MODULE Linux arm 7478EBC20B5D3C489E308EB25E2C50F60 libidirectfbimageprovider_dfiff.so
FUNC a30 10 0 GetType
FUNC a40 10 0 GetImplementation
FUNC a50 54 0 IDirectFBImageProvider_DFIFF_GetSurfaceDescription
FUNC aa4 68 0 IDirectFBImageProvider_DFIFF_GetImageDescription
FUNC b0c 38 0 Deallocate
FUNC b44 25c 0 Construct
FUNC da0 35c 0 IDirectFBImageProvider_DFIFF_RenderTo
FUNC 10fc 10 0 IDirectFBImageProvider_DFIFF_Destruct
FUNC 110c 30 0 Probe
FUNC 113c 68 0 Allocate
FUNC 11a4 10 0 IDirectFBImageProvider_DFIFF_ctor
FUNC 11b4 10 0 IDirectFBImageProvider_DFIFF_dtor
STACK CFI INIT a30 10 .cfa: sp 0 + .ra: lr
STACK CFI INIT a40 10 .cfa: sp 0 + .ra: lr
STACK CFI INIT a50 54 .cfa: sp 0 + .ra: lr
STACK CFI INIT aa4 68 .cfa: sp 0 + .ra: lr
STACK CFI INIT b0c 38 .cfa: sp 0 + .ra: lr
STACK CFI b10 .cfa: sp 16 +
STACK CFI b14 .ra: .cfa -4 + ^ r3: .cfa -16 + ^ r4: .cfa -12 + ^ r5: .cfa -8 + ^
STACK CFI INIT b44 25c .cfa: sp 0 + .ra: lr
STACK CFI b48 .cfa: sp 16 +
STACK CFI b4c .cfa: sp 52 +
STACK CFI b50 .cfa: sp 160 +
STACK CFI b54 .ra: .cfa -20 + ^ r0: .cfa -16 + ^ r1: .cfa -12 + ^ r10: .cfa -28 + ^ r11: .cfa -24 + ^ r2: .cfa -8 + ^ r3: .cfa -4 + ^ r4: .cfa -52 + ^ r5: .cfa -48 + ^ r6: .cfa -44 + ^ r7: .cfa -40 + ^ r8: .cfa -36 + ^ r9: .cfa -32 + ^
STACK CFI INIT da0 35c .cfa: sp 0 + .ra: lr
STACK CFI da4 .cfa: sp 36 +
STACK CFI da8 .ra: .cfa -4 + ^ r10: .cfa -12 + ^ r11: .cfa -8 + ^ r4: .cfa -36 + ^ r5: .cfa -32 + ^ r6: .cfa -28 + ^ r7: .cfa -24 + ^ r8: .cfa -20 + ^ r9: .cfa -16 + ^
STACK CFI dac .cfa: sp 216 +
STACK CFI INIT 10fc 10 .cfa: sp 0 + .ra: lr
STACK CFI INIT 110c 30 .cfa: sp 0 + .ra: lr
STACK CFI 1114 .cfa: sp 8 +
STACK CFI 111c .ra: .cfa -4 + ^ r3: .cfa -8 + ^
STACK CFI INIT 113c 68 .cfa: sp 0 + .ra: lr
STACK CFI 1140 .cfa: sp 8 +
STACK CFI 1148 .ra: .cfa -4 + ^ r4: .cfa -8 + ^
STACK CFI INIT 11a4 10 .cfa: sp 0 + .ra: lr
STACK CFI INIT 11b4 10 .cfa: sp 0 + .ra: lr
