MODULE Linux arm 5287B3C37F01B813544F0DFCD61C6CDF0 libidirectfbimageprovider_bmp.so
FUNC 928 10 0 GetType
FUNC 938 10 0 GetImplementation
FUNC 948 7c 0 fetch_data
FUNC 9c4 38 0 IDirectFBImageProvider_BMP_SetRenderCallback
FUNC 9fc 88 0 IDirectFBImageProvider_BMP_GetSurfaceDescription
FUNC a84 48 0 IDirectFBImageProvider_BMP_GetImageDescription
FUNC acc 24 0 Probe
FUNC af0 68 0 Allocate
FUNC b58 40 0 IDirectFBImageProvider_BMP_Destruct
FUNC b98 38 0 Deallocate
FUNC bd0 36c 0 bmp_decode_rgb_row
FUNC f3c 4bc 0 IDirectFBImageProvider_BMP_RenderTo
FUNC 13f8 608 0 Construct
FUNC 1a00 10 0 IDirectFBImageProvider_BMP_ctor
FUNC 1a10 10 0 IDirectFBImageProvider_BMP_dtor
STACK CFI INIT 928 10 .cfa: sp 0 + .ra: lr
STACK CFI INIT 938 10 .cfa: sp 0 + .ra: lr
STACK CFI INIT 948 7c .cfa: sp 0 + .ra: lr
STACK CFI 94c .cfa: sp 20 +
STACK CFI 950 .ra: .cfa -4 + ^ r4: .cfa -20 + ^ r5: .cfa -16 + ^ r6: .cfa -12 + ^ r7: .cfa -8 + ^
STACK CFI 958 .cfa: sp 32 +
STACK CFI INIT 9c4 38 .cfa: sp 0 + .ra: lr
STACK CFI INIT 9fc 88 .cfa: sp 0 + .ra: lr
STACK CFI a04 .cfa: sp 4 +
STACK CFI a08 r4: .cfa -4 + ^
STACK CFI INIT a84 48 .cfa: sp 0 + .ra: lr
STACK CFI INIT acc 24 .cfa: sp 0 + .ra: lr
STACK CFI INIT af0 68 .cfa: sp 0 + .ra: lr
STACK CFI af4 .cfa: sp 8 +
STACK CFI afc .ra: .cfa -4 + ^ r4: .cfa -8 + ^
STACK CFI INIT b58 40 .cfa: sp 0 + .ra: lr
STACK CFI b5c .cfa: sp 8 +
STACK CFI b60 .ra: .cfa -4 + ^ r4: .cfa -8 + ^
STACK CFI INIT b98 38 .cfa: sp 0 + .ra: lr
STACK CFI b9c .cfa: sp 16 +
STACK CFI ba0 .ra: .cfa -4 + ^ r3: .cfa -16 + ^ r4: .cfa -12 + ^ r5: .cfa -8 + ^
STACK CFI INIT bd0 36c .cfa: sp 0 + .ra: lr
STACK CFI bd4 .cfa: sp 36 +
STACK CFI bd8 .cfa: r11 4 + .ra: .cfa -4 + ^ r10: .cfa -12 + ^ r11: .cfa -8 + ^ r4: .cfa -36 + ^ r5: .cfa -32 + ^ r6: .cfa -28 + ^ r7: .cfa -24 + ^ r8: .cfa -20 + ^ r9: .cfa -16 + ^
STACK CFI INIT f3c 4bc .cfa: sp 0 + .ra: lr
STACK CFI f44 .cfa: sp 36 +
STACK CFI f48 .ra: .cfa -4 + ^ r10: .cfa -12 + ^ r11: .cfa -8 + ^ r4: .cfa -36 + ^ r5: .cfa -32 + ^ r6: .cfa -28 + ^ r7: .cfa -24 + ^ r8: .cfa -20 + ^ r9: .cfa -16 + ^
STACK CFI f4c .cfa: sp 160 +
STACK CFI INIT 13f8 608 .cfa: sp 0 + .ra: lr
STACK CFI 13fc .cfa: sp 36 +
STACK CFI 1400 .ra: .cfa -4 + ^ r10: .cfa -12 + ^ r11: .cfa -8 + ^ r4: .cfa -36 + ^ r5: .cfa -32 + ^ r6: .cfa -28 + ^ r7: .cfa -24 + ^ r8: .cfa -20 + ^ r9: .cfa -16 + ^
STACK CFI 140c .cfa: sp 104 +
STACK CFI INIT 1a00 10 .cfa: sp 0 + .ra: lr
STACK CFI INIT 1a10 10 .cfa: sp 0 + .ra: lr
