MODULE Linux arm 12036FF0D93B1761432DF01C14DCD0030 lib++dfb-1.7.so.4.0.0
FUNC 86f4 8 0 DFBException::GetAction() const
FUNC 86fc 8 0 DFBException::GetResult() const
FUNC 8704 8 0 DFBException::GetResultCode() const
FUNC 870c b0 0 operator<<(std::ostream&, DFBException*)
FUNC 87bc e0 0 DFBException::DFBException
FUNC 889c 68 0 DirectFB::Init(int*, char***)
FUNC 8904 a0 0 DirectFB::Create()
FUNC 89a4 48 0 _GLOBAL__I_ppdfb.cpp
FUNC 89ec 44 0 IDirectFB::~IDirectFB
FUNC 8a30 44 0 IPPAny<IDirectFB, _IDirectFB>::~IPPAny
FUNC 8a74 4c 0 IDirectFB::~IDirectFB
FUNC 8ac0 4c 0 IPPAny<IDirectFB, _IDirectFB>::~IPPAny
FUNC 8b0c 70 0 IDirectFB::SetCooperativeLevel(DFBCooperativeLevel)
FUNC 8b7c 74 0 IDirectFB::SetVideoMode(unsigned int, unsigned int, unsigned int)
FUNC 8bf0 74 0 IDirectFB::GetDeviceDescription(DFBGraphicsDeviceDescription*)
FUNC 8c64 74 0 IDirectFB::EnumVideoModes(DFBEnumerationResult (*)(int, int, int, void*), void*)
FUNC 8cd8 b0 0 IDirectFB::CreateSurface(DFBSurfaceDescription&) const
FUNC 8d88 b0 0 IDirectFB::CreatePalette(DFBPaletteDescription&)
FUNC 8e38 74 0 IDirectFB::EnumDisplayLayers(DFBEnumerationResult (*)(unsigned int, DFBDisplayLayerDescription, void*), void*)
FUNC 8eac b0 0 IDirectFB::GetScreen(unsigned int)
FUNC 8f5c 74 0 IDirectFB::EnumScreens(DFBEnumerationResult (*)(unsigned int, DFBScreenDescription, void*), void*)
FUNC 8fd0 b0 0 IDirectFB::GetDisplayLayer(unsigned int)
FUNC 9080 74 0 IDirectFB::EnumInputDevices(DFBEnumerationResult (*)(unsigned int, DFBInputDeviceDescription, void*), void*) const
FUNC 90f4 b0 0 IDirectFB::GetInputDevice(unsigned int) const
FUNC 91a4 ac 0 IDirectFB::CreateEventBuffer() const
FUNC 9250 b4 0 IDirectFB::CreateInputEventBuffer(DFBInputDeviceCapabilities, DFBBoolean)
FUNC 9304 b0 0 IDirectFB::CreateImageProvider(char const*) const
FUNC 93b4 b0 0 IDirectFB::CreateVideoProvider(char const*)
FUNC 9464 b4 0 IDirectFB::CreateFont(char const*, DFBFontDescription&) const
FUNC 9518 b0 0 IDirectFB::CreateDataBuffer(DFBDataBufferDescription&)
FUNC 95c8 9c 0 IDirectFB::SetClipboardData(char const*, void const*, unsigned int)
FUNC 9664 74 0 IDirectFB::GetClipboardData(char**, void**, unsigned int*)
FUNC 96d8 88 0 IDirectFB::GetClipboardTimeStamp()
FUNC 9760 74 0 IDirectFB::Suspend()
FUNC 97d4 74 0 IDirectFB::Resume()
FUNC 9848 74 0 IDirectFB::WaitIdle()
FUNC 98bc 74 0 IDirectFB::WaitForSync()
FUNC 9930 90 0 IDirectFB::GetInterface(char const*, char const*, void*)
FUNC 99c0 b0 0 IDirectFB::GetSurface(unsigned int) const
FUNC 9a70 48 0 _GLOBAL__I_idirectfb.cpp
FUNC 9ab8 44 0 IDirectFBSurface::~IDirectFBSurface
FUNC 9afc 44 0 IDirectFBPalette::~IDirectFBPalette
FUNC 9b40 44 0 IDirectFBScreen::~IDirectFBScreen
FUNC 9b84 44 0 IDirectFBDisplayLayer::~IDirectFBDisplayLayer
FUNC 9bc8 44 0 IDirectFBInputDevice::~IDirectFBInputDevice
FUNC 9c0c 44 0 IDirectFBEventBuffer::~IDirectFBEventBuffer
FUNC 9c50 44 0 IDirectFBImageProvider::~IDirectFBImageProvider
FUNC 9c94 44 0 IDirectFBVideoProvider::~IDirectFBVideoProvider
FUNC 9cd8 44 0 IDirectFBFont::~IDirectFBFont
FUNC 9d1c 44 0 IDirectFBDataBuffer::~IDirectFBDataBuffer
FUNC 9d60 44 0 IPPAny<IDirectFBScreen, _IDirectFBScreen>::~IPPAny
FUNC 9da4 44 0 IPPAny<IDirectFBDisplayLayer, _IDirectFBDisplayLayer>::~IPPAny
FUNC 9de8 44 0 IPPAny<IDirectFBSurface, _IDirectFBSurface>::~IPPAny
FUNC 9e2c 44 0 IPPAny<IDirectFBPalette, _IDirectFBPalette>::~IPPAny
FUNC 9e70 44 0 IPPAny<IDirectFBInputDevice, _IDirectFBInputDevice>::~IPPAny
FUNC 9eb4 44 0 IPPAny<IDirectFBEventBuffer, _IDirectFBEventBuffer>::~IPPAny
FUNC 9ef8 44 0 IPPAny<IDirectFBFont, _IDirectFBFont>::~IPPAny
FUNC 9f3c 44 0 IPPAny<IDirectFBImageProvider, _IDirectFBImageProvider>::~IPPAny
FUNC 9f80 44 0 IPPAny<IDirectFBVideoProvider, _IDirectFBVideoProvider>::~IPPAny
FUNC 9fc4 44 0 IPPAny<IDirectFBDataBuffer, _IDirectFBDataBuffer>::~IPPAny
FUNC a008 4c 0 IDirectFBSurface::~IDirectFBSurface
FUNC a054 4c 0 IPPAny<IDirectFBSurface, _IDirectFBSurface>::~IPPAny
FUNC a0a0 4c 0 IDirectFBDataBuffer::~IDirectFBDataBuffer
FUNC a0ec 4c 0 IPPAny<IDirectFBDataBuffer, _IDirectFBDataBuffer>::~IPPAny
FUNC a138 4c 0 IDirectFBFont::~IDirectFBFont
FUNC a184 4c 0 IPPAny<IDirectFBFont, _IDirectFBFont>::~IPPAny
FUNC a1d0 4c 0 IDirectFBVideoProvider::~IDirectFBVideoProvider
FUNC a21c 4c 0 IPPAny<IDirectFBVideoProvider, _IDirectFBVideoProvider>::~IPPAny
FUNC a268 4c 0 IDirectFBImageProvider::~IDirectFBImageProvider
FUNC a2b4 4c 0 IPPAny<IDirectFBImageProvider, _IDirectFBImageProvider>::~IPPAny
FUNC a300 4c 0 IDirectFBEventBuffer::~IDirectFBEventBuffer
FUNC a34c 4c 0 IPPAny<IDirectFBEventBuffer, _IDirectFBEventBuffer>::~IPPAny
FUNC a398 4c 0 IDirectFBInputDevice::~IDirectFBInputDevice
FUNC a3e4 4c 0 IPPAny<IDirectFBInputDevice, _IDirectFBInputDevice>::~IPPAny
FUNC a430 4c 0 IDirectFBDisplayLayer::~IDirectFBDisplayLayer
FUNC a47c 4c 0 IPPAny<IDirectFBDisplayLayer, _IDirectFBDisplayLayer>::~IPPAny
FUNC a4c8 4c 0 IDirectFBScreen::~IDirectFBScreen
FUNC a514 4c 0 IPPAny<IDirectFBScreen, _IDirectFBScreen>::~IPPAny
FUNC a560 4c 0 IDirectFBPalette::~IDirectFBPalette
FUNC a5ac 4c 0 IPPAny<IDirectFBPalette, _IDirectFBPalette>::~IPPAny
FUNC a5f8 70 0 IDirectFBDataBuffer::Flush()
FUNC a668 74 0 IDirectFBDataBuffer::Finish()
FUNC a6dc 74 0 IDirectFBDataBuffer::SeekTo(unsigned int)
FUNC a750 88 0 IDirectFBDataBuffer::GetPosition()
FUNC a7d8 88 0 IDirectFBDataBuffer::GetLength()
FUNC a860 74 0 IDirectFBDataBuffer::WaitForData(unsigned int)
FUNC a8d4 74 0 IDirectFBDataBuffer::WaitForDataWithTimeout(unsigned int, unsigned int, unsigned int)
FUNC a948 a0 0 IDirectFBDataBuffer::GetData(unsigned int, void*)
FUNC a9e8 a8 0 IDirectFBDataBuffer::PeekData(unsigned int, int, void*)
FUNC aa90 90 0 IDirectFBDataBuffer::HasData()
FUNC ab20 74 0 IDirectFBDataBuffer::PutData(void const*, unsigned int)
FUNC ab94 ac 0 IDirectFBDataBuffer::CreateImageProvider()
FUNC ac40 ac 0 IDirectFBDataBuffer::CreateVideoProvider()
FUNC acec 48 0 _GLOBAL__I_idirectfbdatabuffer.cpp
FUNC ad34 84 0 IDirectFBDisplayLayer::GetID()
FUNC adb8 88 0 IDirectFBDisplayLayer::GetDescription()
FUNC ae40 74 0 IDirectFBDisplayLayer::GetSourceDescriptions(DFBDisplayLayerSourceDescription*)
FUNC aeb4 ac 0 IDirectFBDisplayLayer::GetSurface()
FUNC af60 ac 0 IDirectFBDisplayLayer::GetScreen()
FUNC b00c 74 0 IDirectFBDisplayLayer::SetCooperativeLevel(DFBDisplayLayerCooperativeLevel)
FUNC b080 74 0 IDirectFBDisplayLayer::SetOpacity(unsigned char)
FUNC b0f4 8c 0 IDirectFBDisplayLayer::SetSourceRectangle(int, int, int, int)
FUNC b180 8c 0 IDirectFBDisplayLayer::SetScreenLocation(float, float, float, float)
FUNC b20c 74 0 IDirectFBDisplayLayer::SetScreenPosition(int, int)
FUNC b280 8c 0 IDirectFBDisplayLayer::SetScreenRectangle(int, int, int, int)
FUNC b30c 74 0 IDirectFBDisplayLayer::SetClipRegions(DFBRegion const*, int, DFBBoolean)
FUNC b380 74 0 IDirectFBDisplayLayer::SetSrcColorKey(unsigned char, unsigned char, unsigned char)
FUNC b3f4 74 0 IDirectFBDisplayLayer::SetDstColorKey(unsigned char, unsigned char, unsigned char)
FUNC b468 88 0 IDirectFBDisplayLayer::GetLevel()
FUNC b4f0 74 0 IDirectFBDisplayLayer::SetLevel(int)
FUNC b564 88 0 IDirectFBDisplayLayer::GetCurrentOutputField()
FUNC b5ec 74 0 IDirectFBDisplayLayer::SetFieldParity(int)
FUNC b660 74 0 IDirectFBDisplayLayer::WaitForSync()
FUNC b6d4 74 0 IDirectFBDisplayLayer::GetConfiguration(DFBDisplayLayerConfig*)
FUNC b748 74 0 IDirectFBDisplayLayer::TestConfiguration(DFBDisplayLayerConfig&, DFBDisplayLayerConfigFlags*)
FUNC b7bc 74 0 IDirectFBDisplayLayer::SetConfiguration(DFBDisplayLayerConfig&)
FUNC b830 74 0 IDirectFBDisplayLayer::SetBackgroundMode(DFBDisplayLayerBackgroundMode)
FUNC b8a4 78 0 IDirectFBDisplayLayer::SetBackgroundImage(IDirectFBSurface*)
FUNC b91c 8c 0 IDirectFBDisplayLayer::SetBackgroundColor(unsigned char, unsigned char, unsigned char, unsigned char)
FUNC b9a8 74 0 IDirectFBDisplayLayer::GetColorAdjustment(DFBColorAdjustment*)
FUNC ba1c 74 0 IDirectFBDisplayLayer::SetColorAdjustment(DFBColorAdjustment&)
FUNC ba90 b0 0 IDirectFBDisplayLayer::CreateWindow(DFBWindowDescription&)
FUNC bb40 b0 0 IDirectFBDisplayLayer::GetWindow(unsigned int)
FUNC bbf0 74 0 IDirectFBDisplayLayer::EnableCursor(bool)
FUNC bc64 74 0 IDirectFBDisplayLayer::GetCursorPosition(int*, int*)
FUNC bcd8 74 0 IDirectFBDisplayLayer::WarpCursor(int, int)
FUNC bd4c 74 0 IDirectFBDisplayLayer::SetCursorAcceleration(int, int, int)
FUNC bdc0 78 0 IDirectFBDisplayLayer::SetCursorShape(IDirectFBSurface*, int, int)
FUNC be38 74 0 IDirectFBDisplayLayer::SetCursorOpacity(unsigned char)
FUNC beac 74 0 IDirectFBDisplayLayer::SwitchContext(DFBBoolean)
FUNC bf20 78 0 IDirectFBDisplayLayer::SetSurface(IDirectFBSurface*)
FUNC bf98 48 0 _GLOBAL__I_idirectfbdisplaylayer.cpp
FUNC bfe0 44 0 IDirectFBWindow::~IDirectFBWindow
FUNC c024 44 0 IPPAny<IDirectFBWindow, _IDirectFBWindow>::~IPPAny
FUNC c068 4c 0 IDirectFBWindow::~IDirectFBWindow
FUNC c0b4 4c 0 IPPAny<IDirectFBWindow, _IDirectFBWindow>::~IPPAny
FUNC c100 70 0 IDirectFBEventBuffer::Reset()
FUNC c170 74 0 IDirectFBEventBuffer::WaitForEvent()
FUNC c1e4 90 0 IDirectFBEventBuffer::WaitForEventWithTimeout(unsigned int, unsigned int)
FUNC c274 74 0 IDirectFBEventBuffer::WakeUp()
FUNC c2e8 90 0 IDirectFBEventBuffer::GetEvent(DFBEvent*)
FUNC c378 90 0 IDirectFBEventBuffer::PeekEvent(DFBEvent*)
FUNC c408 90 0 IDirectFBEventBuffer::HasEvent()
FUNC c498 74 0 IDirectFBEventBuffer::PostEvent(DFBEvent&)
FUNC c50c 88 0 IDirectFBEventBuffer::CreateFileDescriptor()
FUNC c594 74 0 IDirectFBEventBuffer::EnableStatistics(DFBBoolean)
FUNC c608 74 0 IDirectFBEventBuffer::GetStatistics(DFBEventBufferStats*)
FUNC c67c 48 0 _GLOBAL__I_idirectfbeventbuffer.cpp
FUNC c6c4 84 0 IDirectFBFont::GetAscender() const
FUNC c748 88 0 IDirectFBFont::GetDescender() const
FUNC c7d0 88 0 IDirectFBFont::GetHeight() const
FUNC c858 88 0 IDirectFBFont::GetMaxAdvance() const
FUNC c8e0 8c 0 IDirectFBFont::GetKerning(unsigned int, unsigned int, int*, int*) const
FUNC c96c 98 0 IDirectFBFont::GetStringBreak(char const*, int, int, int*, int*, char const**) const
FUNC ca04 88 0 IDirectFBFont::GetStringWidth(char const*, int) const
FUNC ca8c 8c 0 IDirectFBFont::GetStringExtents(char const*, int, DFBRectangle*, DFBRectangle*) const
FUNC cb18 74 0 IDirectFBFont::GetGlyphExtents(unsigned int, DFBRectangle*, int*) const
FUNC cb8c 74 0 IDirectFBFont::SetEncoding(unsigned int)
FUNC cc00 74 0 IDirectFBFont::EnumEncodings(DFBEnumerationResult (*)(unsigned int, char const*, void*), void*)
FUNC cc74 74 0 IDirectFBFont::FindEncoding(char const*, unsigned int*)
FUNC cce8 48 0 _GLOBAL__I_idirectfbfont.cpp
FUNC cd30 70 0 IDirectFBImageProvider::GetSurfaceDescription(DFBSurfaceDescription*)
FUNC cda0 74 0 IDirectFBImageProvider::GetImageDescription(DFBImageDescription*)
FUNC ce14 78 0 IDirectFBImageProvider::RenderTo(IDirectFBSurface*, DFBRectangle*)
FUNC ce8c 74 0 IDirectFBImageProvider::SetRenderCallback(DIRenderCallbackResult (*)(DFBRectangle_C*, void*), void*)
FUNC cf00 48 0 _GLOBAL__I_idirectfbimageprovider.cpp
FUNC cf48 84 0 IDirectFBInputDevice::GetID()
FUNC cfcc 74 0 IDirectFBInputDevice::GetDescription(DFBInputDeviceDescription*)
FUNC d040 74 0 IDirectFBInputDevice::GetKeymapEntry(int, DFBInputDeviceKeymapEntry*)
FUNC d0b4 ac 0 IDirectFBInputDevice::CreateEventBuffer()
FUNC d160 78 0 IDirectFBInputDevice::AttachEventBuffer(IDirectFBEventBuffer*)
FUNC d1d8 78 0 IDirectFBInputDevice::DetachEventBuffer(IDirectFBEventBuffer*)
FUNC d250 88 0 IDirectFBInputDevice::GetKeyState(DFBInputDeviceKeyIdentifier)
FUNC d2d8 88 0 IDirectFBInputDevice::GetModifiers()
FUNC d360 88 0 IDirectFBInputDevice::GetLockState()
FUNC d3e8 88 0 IDirectFBInputDevice::GetButtons()
FUNC d470 88 0 IDirectFBInputDevice::GetButtonState(DFBInputDeviceButtonIdentifier)
FUNC d4f8 88 0 IDirectFBInputDevice::GetAxis(DFBInputDeviceAxisIdentifier)
FUNC d580 74 0 IDirectFBInputDevice::GetXY(int*, int*)
FUNC d5f4 48 0 _GLOBAL__I_idirectfbinputdevice.cpp
FUNC d63c 84 0 IDirectFBPalette::GetCapabilities()
FUNC d6c0 88 0 IDirectFBPalette::GetSize()
FUNC d748 74 0 IDirectFBPalette::SetEntries(DFBColor*, unsigned int, unsigned int)
FUNC d7bc 74 0 IDirectFBPalette::GetEntries(DFBColor*, unsigned int, unsigned int)
FUNC d830 98 0 IDirectFBPalette::FindBestMatch(unsigned char, unsigned char, unsigned char, unsigned char)
FUNC d8c8 ac 0 IDirectFBPalette::CreateCopy()
FUNC d974 48 0 _GLOBAL__I_idirectfbpalette.cpp
FUNC d9bc 84 0 IDirectFBScreen::GetID()
FUNC da40 88 0 IDirectFBScreen::GetDescription()
FUNC dac8 74 0 IDirectFBScreen::GetSize(int*, int*)
FUNC db3c 74 0 IDirectFBScreen::EnumDisplayLayers(DFBEnumerationResult (*)(unsigned int, DFBDisplayLayerDescription, void*), void*)
FUNC dbb0 74 0 IDirectFBScreen::WaitForSync()
FUNC dc24 74 0 IDirectFBScreen::SetPowerMode(DFBScreenPowerMode)
FUNC dc98 74 0 IDirectFBScreen::GetMixerDescriptions(DFBScreenMixerDescription*)
FUNC dd0c 74 0 IDirectFBScreen::GetMixerConfiguration(int, DFBScreenMixerConfig*)
FUNC dd80 74 0 IDirectFBScreen::TestMixerConfiguration(int, DFBScreenMixerConfig const&, DFBScreenMixerConfigFlags*)
FUNC ddf4 74 0 IDirectFBScreen::SetMixerConfiguration(int, DFBScreenMixerConfig const&)
FUNC de68 74 0 IDirectFBScreen::GetEncoderDescriptions(DFBScreenEncoderDescription*)
FUNC dedc 74 0 IDirectFBScreen::GetEncoderConfiguration(int, DFBScreenEncoderConfig*)
FUNC df50 74 0 IDirectFBScreen::TestEncoderConfiguration(int, DFBScreenEncoderConfig const&, DFBScreenEncoderConfigFlags*)
FUNC dfc4 74 0 IDirectFBScreen::SetEncoderConfiguration(int, DFBScreenEncoderConfig const&)
FUNC e038 74 0 IDirectFBScreen::GetOutputDescriptions(DFBScreenOutputDescription*)
FUNC e0ac 74 0 IDirectFBScreen::GetOutputConfiguration(int, DFBScreenOutputConfig*)
FUNC e120 74 0 IDirectFBScreen::TestOutputConfiguration(int, DFBScreenOutputConfig const&, DFBScreenOutputConfigFlags*)
FUNC e194 74 0 IDirectFBScreen::SetOutputConfiguration(int, DFBScreenOutputConfig const&)
FUNC e208 48 0 _GLOBAL__I_idirectfbscreen.cpp
FUNC e250 84 0 IDirectFBSurface::GetCapabilities()
FUNC e2d4 74 0 IDirectFBSurface::GetPosition(int*, int*)
FUNC e348 74 0 IDirectFBSurface::GetSize(int*, int*)
FUNC e3bc 74 0 IDirectFBSurface::GetVisibleRectangle(DFBRectangle*)
FUNC e430 88 0 IDirectFBSurface::GetPixelFormat()
FUNC e4b8 90 0 IDirectFBSurface::GetAccelerationMask(IDirectFBSurface*)
FUNC e548 ac 0 IDirectFBSurface::GetPalette()
FUNC e5f4 78 0 IDirectFBSurface::SetPalette(IDirectFBPalette*)
FUNC e66c 8c 0 IDirectFBSurface::SetAlphaRamp(unsigned char, unsigned char, unsigned char, unsigned char)
FUNC e6f8 74 0 IDirectFBSurface::Lock(DFBSurfaceLockFlags, void**, int*)
FUNC e76c 74 0 IDirectFBSurface::Unlock()
FUNC e7e0 74 0 IDirectFBSurface::Flip(DFBRegion*, DFBSurfaceFlipFlags)
FUNC e854 74 0 IDirectFBSurface::SetField(int)
FUNC e8c8 8c 0 IDirectFBSurface::Clear(unsigned char, unsigned char, unsigned char, unsigned char)
FUNC e954 9c 0 IDirectFBSurface::Clear(DFBColor&)
FUNC e9f0 74 0 IDirectFBSurface::SetClip(DFBRegion const*)
FUNC ea64 ac 0 IDirectFBSurface::SetClip(DFBRectangle const*)
FUNC eb10 8c 0 IDirectFBSurface::SetColor(unsigned char, unsigned char, unsigned char, unsigned char)
FUNC eb9c 9c 0 IDirectFBSurface::SetColor(DFBColor&)
FUNC ec38 74 0 IDirectFBSurface::SetColorIndex(unsigned int)
FUNC ecac 74 0 IDirectFBSurface::SetSrcBlendFunction(DFBSurfaceBlendFunction)
FUNC ed20 74 0 IDirectFBSurface::SetDstBlendFunction(DFBSurfaceBlendFunction)
FUNC ed94 74 0 IDirectFBSurface::SetPorterDuff(DFBSurfacePorterDuffRule)
FUNC ee08 74 0 IDirectFBSurface::SetSrcColorKey(unsigned char, unsigned char, unsigned char)
FUNC ee7c 74 0 IDirectFBSurface::SetSrcColorKeyIndex(unsigned int)
FUNC eef0 74 0 IDirectFBSurface::SetDstColorKey(unsigned char, unsigned char, unsigned char)
FUNC ef64 74 0 IDirectFBSurface::SetDstColorKeyIndex(unsigned int)
FUNC efd8 74 0 IDirectFBSurface::SetBlittingFlags(DFBSurfaceBlittingFlags)
FUNC f04c 90 0 IDirectFBSurface::Blit(IDirectFBSurface*, DFBRectangle const*, int, int)
FUNC f0dc 90 0 IDirectFBSurface::TileBlit(IDirectFBSurface*, DFBRectangle const*, int, int)
FUNC f16c 90 0 IDirectFBSurface::BatchBlit(IDirectFBSurface*, DFBRectangle const*, DFBPoint const*, int)
FUNC f1fc 78 0 IDirectFBSurface::StretchBlit(IDirectFBSurface*, DFBRectangle const*, DFBRectangle const*)
FUNC f274 98 0 IDirectFBSurface::TextureTriangles(IDirectFBSurface*, DFBVertex const*, int const*, int, DFBTriangleFormation)
FUNC f30c 74 0 IDirectFBSurface::SetDrawingFlags(DFBSurfaceDrawingFlags)
FUNC f380 8c 0 IDirectFBSurface::FillRectangle(int, int, int, int)
FUNC f40c 98 0 IDirectFBSurface::FillRectangle(DFBRectangle&)
FUNC f4a4 ac 0 IDirectFBSurface::FillRectangle(DFBRegion&)
FUNC f550 8c 0 IDirectFBSurface::DrawRectangle(int, int, int, int)
FUNC f5dc 8c 0 IDirectFBSurface::DrawLine(int, int, int, int)
FUNC f668 74 0 IDirectFBSurface::DrawLines(DFBRegion const*, unsigned int)
FUNC f6dc 74 0 IDirectFBSurface::FillRectangles(DFBRectangle const*, unsigned int)
FUNC f750 98 0 IDirectFBSurface::FillTriangle(int, int, int, int, int, int)
FUNC f7e8 74 0 IDirectFBSurface::FillSpans(int, DFBSpan const*, unsigned int)
FUNC f85c 78 0 IDirectFBSurface::SetFont(IDirectFBFont const&) const
FUNC f8d4 ac 0 IDirectFBSurface::GetFont() const
FUNC f980 94 0 IDirectFBSurface::DrawString(char const*, int, int, int, DFBSurfaceTextFlags)
FUNC fa14 8c 0 IDirectFBSurface::DrawGlyph(unsigned int, int, int, DFBSurfaceTextFlags)
FUNC faa0 74 0 IDirectFBSurface::SetEncoding(unsigned int)
FUNC fb14 b0 0 IDirectFBSurface::GetSubSurface(DFBRectangle*)
FUNC fbc4 20 0 IDirectFBSurface::GetWidth()
FUNC fbe4 20 0 IDirectFBSurface::GetHeight()
FUNC fc04 9c 0 IDirectFBSurface::SetColor(DFBColor const&)
FUNC fca0 9c 0 IDirectFBSurface::SetColor(DFBColor const*)
FUNC fd3c 98 0 IDirectFBSurface::FillRectangle(DFBRectangle const&)
FUNC fdd4 98 0 IDirectFBSurface::DrawRectangle(DFBRectangle const&)
FUNC fe6c 98 0 IDirectFBSurface::DrawLine(DFBRegion const&)
FUNC ff04 c8 0 IDirectFBSurface::GetSubSurface(int, int, int, int)
FUNC ffcc 74 0 IDirectFBSurface::Dump(char const*, char const*)
FUNC 10040 74 0 IDirectFBSurface::DisableAcceleration(DFBAccelerationMask)
FUNC 100b4 88 0 IDirectFBSurface::GetGL()
FUNC 1013c 88 0 IDirectFBSurface::GetID()
FUNC 101c4 74 0 IDirectFBSurface::AllowAccess(char const*)
FUNC 10238 74 0 IDirectFBSurface::GetClip(DFBRegion*)
FUNC 102ac 88 0 IDirectFBSurface::GetFramebufferOffset()
FUNC 10334 74 0 IDirectFBSurface::ReleaseSource()
FUNC 103a8 74 0 IDirectFBSurface::SetIndexTranslation(int const*, int)
FUNC 1041c d0 0 IDirectFBSurface::Read(void*, int, DFBRectangle const*)
FUNC 104ec d0 0 IDirectFBSurface::Write(void const*, int, DFBRectangle const*)
FUNC 105bc 78 0 IDirectFBSurface::SetRenderOptions(DFBSurfaceRenderOptions const&)
FUNC 10634 48 0 _GLOBAL__I_idirectfbsurface.cpp
FUNC 1067c 84 0 IDirectFBVideoProvider::GetCapabilities()
FUNC 10700 74 0 IDirectFBVideoProvider::GetSurfaceDescription(DFBSurfaceDescription*)
FUNC 10774 74 0 IDirectFBVideoProvider::GetStreamDescription(DFBStreamDescription*)
FUNC 107e8 90 0 IDirectFBVideoProvider::PlayTo(IDirectFBSurface*, DFBRectangle*, void (*)(void*), void*)
FUNC 10878 74 0 IDirectFBVideoProvider::Stop()
FUNC 108ec 88 0 IDirectFBVideoProvider::GetStatus()
FUNC 10974 74 0 IDirectFBVideoProvider::SeekTo(double)
FUNC 109e8 88 0 IDirectFBVideoProvider::GetPos()
FUNC 10a70 88 0 IDirectFBVideoProvider::GetLength()
FUNC 10af8 74 0 IDirectFBVideoProvider::GetColorAdjustment(DFBColorAdjustment*)
FUNC 10b6c 74 0 IDirectFBVideoProvider::SetColorAdjustment(DFBColorAdjustment&)
FUNC 10be0 74 0 IDirectFBVideoProvider::SendEvent(DFBEvent&)
FUNC 10c54 74 0 IDirectFBVideoProvider::SetPlaybackFlags(DFBVideoProviderPlaybackFlags)
FUNC 10cc8 74 0 IDirectFBVideoProvider::SetSpeed(double)
FUNC 10d3c 9c 0 IDirectFBVideoProvider::GetSpeed()
FUNC 10dd8 74 0 IDirectFBVideoProvider::SetVolume(float)
FUNC 10e4c 94 0 IDirectFBVideoProvider::GetVolume()
FUNC 10ee0 48 0 _GLOBAL__I_idirectfbvideoprovider.cpp
FUNC 10f28 84 0 IDirectFBWindow::GetID()
FUNC 10fac 74 0 IDirectFBWindow::GetPosition(int*, int*)
FUNC 11020 74 0 IDirectFBWindow::GetSize(int*, int*)
FUNC 11094 ac 0 IDirectFBWindow::CreateEventBuffer()
FUNC 11140 78 0 IDirectFBWindow::AttachEventBuffer(IDirectFBEventBuffer*)
FUNC 111b8 78 0 IDirectFBWindow::DetachEventBuffer(IDirectFBEventBuffer*)
FUNC 11230 74 0 IDirectFBWindow::EnableEvents(DFBWindowEventType)
FUNC 112a4 74 0 IDirectFBWindow::DisableEvents(DFBWindowEventType)
FUNC 11318 ac 0 IDirectFBWindow::GetSurface()
FUNC 113c4 74 0 IDirectFBWindow::SetOptions(DFBWindowOptions)
FUNC 11438 88 0 IDirectFBWindow::GetOptions()
FUNC 114c0 74 0 IDirectFBWindow::SetColorKey(unsigned char, unsigned char, unsigned char)
FUNC 11534 74 0 IDirectFBWindow::SetColorKeyIndex(unsigned int)
FUNC 115a8 74 0 IDirectFBWindow::SetOpacity(unsigned char)
FUNC 1161c 8c 0 IDirectFBWindow::SetOpaqueRegion(int, int, int, int)
FUNC 116a8 88 0 IDirectFBWindow::GetOpacity()
FUNC 11730 78 0 IDirectFBWindow::SetCursorShape(IDirectFBSurface*, int, int)
FUNC 117a8 74 0 IDirectFBWindow::RequestFocus()
FUNC 1181c 74 0 IDirectFBWindow::GrabKeyboard()
FUNC 11890 74 0 IDirectFBWindow::UngrabKeyboard()
FUNC 11904 74 0 IDirectFBWindow::GrabPointer()
FUNC 11978 74 0 IDirectFBWindow::UngrabPointer()
FUNC 119ec 74 0 IDirectFBWindow::GrabKey(DFBInputDeviceKeySymbol, DFBInputDeviceModifierMask)
FUNC 11a60 74 0 IDirectFBWindow::UngrabKey(DFBInputDeviceKeySymbol, DFBInputDeviceModifierMask)
FUNC 11ad4 74 0 IDirectFBWindow::Move(int, int)
FUNC 11b48 74 0 IDirectFBWindow::MoveTo(int, int)
FUNC 11bbc 74 0 IDirectFBWindow::Resize(int, int)
FUNC 11c30 74 0 IDirectFBWindow::SetStackingClass(DFBWindowStackingClass)
FUNC 11ca4 74 0 IDirectFBWindow::Raise()
FUNC 11d18 74 0 IDirectFBWindow::Lower()
FUNC 11d8c 74 0 IDirectFBWindow::RaiseToTop()
FUNC 11e00 74 0 IDirectFBWindow::LowerToBottom()
FUNC 11e74 78 0 IDirectFBWindow::PutAtop(IDirectFBWindow*)
FUNC 11eec 78 0 IDirectFBWindow::PutBelow(IDirectFBWindow*)
FUNC 11f64 74 0 IDirectFBWindow::Close()
FUNC 11fd8 74 0 IDirectFBWindow::Destroy()
FUNC 1204c 8c 0 IDirectFBWindow::SetBounds(int, int, int, int)
FUNC 120d8 74 0 IDirectFBWindow::ResizeSurface(int, int)
FUNC 1214c 74 0 IDirectFBWindow::BeginUpdates(DFBRegion const*)
FUNC 121c0 74 0 IDirectFBWindow::SetDstGeometry(DFBWindowGeometry*)
FUNC 12234 74 0 IDirectFBWindow::SetSrcGeometry(DFBWindowGeometry*)
FUNC 122a8 74 0 IDirectFBWindow::SetApplicationID(unsigned long)
FUNC 1231c 88 0 IDirectFBWindow::GetApplicationID()
FUNC 123a4 48 0 _GLOBAL__I_idirectfbwindow.cpp
STACK CFI INIT 89ec 44 .cfa: sp 0 + .ra: lr
STACK CFI 89f4 .cfa: sp 8 +
STACK CFI 89f8 .ra: .cfa -4 + ^ r4: .cfa -8 + ^
STACK CFI INIT 8a30 44 .cfa: sp 0 + .ra: lr
STACK CFI 8a38 .cfa: sp 8 +
STACK CFI 8a3c .ra: .cfa -4 + ^ r4: .cfa -8 + ^
STACK CFI INIT 8a74 4c .cfa: sp 0 + .ra: lr
STACK CFI 8a7c .cfa: sp 8 +
STACK CFI 8a80 .ra: .cfa -4 + ^ r4: .cfa -8 + ^
STACK CFI INIT 8ac0 4c .cfa: sp 0 + .ra: lr
STACK CFI 8ac8 .cfa: sp 8 +
STACK CFI 8acc .ra: .cfa -4 + ^ r4: .cfa -8 + ^
STACK CFI INIT 86f4 8 .cfa: sp 0 + .ra: lr
STACK CFI INIT 86fc 8 .cfa: sp 0 + .ra: lr
STACK CFI INIT 8704 8 .cfa: sp 0 + .ra: lr
STACK CFI INIT 870c b0 .cfa: sp 0 + .ra: lr
STACK CFI 8710 .cfa: sp 16 +
STACK CFI 8714 .ra: .cfa -4 + ^ r4: .cfa -16 + ^ r5: .cfa -12 + ^ r6: .cfa -8 + ^
STACK CFI INIT 87bc e0 .cfa: sp 0 + .ra: lr
STACK CFI 87c0 .cfa: sp 32 +
STACK CFI 87c4 .ra: .cfa -4 + ^ r10: .cfa -8 + ^ r3: .cfa -32 + ^ r4: .cfa -28 + ^ r5: .cfa -24 + ^ r6: .cfa -20 + ^ r7: .cfa -16 + ^ r8: .cfa -12 + ^
STACK CFI INIT 889c 68 .cfa: sp 0 + .ra: lr
STACK CFI 88a0 .cfa: sp 16 + .ra: .cfa -4 + ^ r4: .cfa -16 + ^ r5: .cfa -12 + ^ r6: .cfa -8 + ^
STACK CFI INIT 8904 a0 .cfa: sp 0 + .ra: lr
STACK CFI 8908 .cfa: sp 16 +
STACK CFI 890c .cfa: sp 24 +
STACK CFI 8910 .ra: .cfa -4 + ^ r4: .cfa -16 + ^ r5: .cfa -12 + ^ r6: .cfa -8 + ^
STACK CFI INIT 89a4 48 .cfa: sp 0 + .ra: lr
STACK CFI 89a8 .cfa: sp 16 +
STACK CFI 89ac .ra: .cfa -4 + ^ r4: .cfa -16 + ^ r5: .cfa -12 + ^ r6: .cfa -8 + ^
STACK CFI INIT 9ab8 44 .cfa: sp 0 + .ra: lr
STACK CFI 9ac0 .cfa: sp 8 +
STACK CFI 9ac4 .ra: .cfa -4 + ^ r4: .cfa -8 + ^
STACK CFI INIT 9afc 44 .cfa: sp 0 + .ra: lr
STACK CFI 9b04 .cfa: sp 8 +
STACK CFI 9b08 .ra: .cfa -4 + ^ r4: .cfa -8 + ^
STACK CFI INIT 9b40 44 .cfa: sp 0 + .ra: lr
STACK CFI 9b48 .cfa: sp 8 +
STACK CFI 9b4c .ra: .cfa -4 + ^ r4: .cfa -8 + ^
STACK CFI INIT 9b84 44 .cfa: sp 0 + .ra: lr
STACK CFI 9b8c .cfa: sp 8 +
STACK CFI 9b90 .ra: .cfa -4 + ^ r4: .cfa -8 + ^
STACK CFI INIT 9bc8 44 .cfa: sp 0 + .ra: lr
STACK CFI 9bd0 .cfa: sp 8 +
STACK CFI 9bd4 .ra: .cfa -4 + ^ r4: .cfa -8 + ^
STACK CFI INIT 9c0c 44 .cfa: sp 0 + .ra: lr
STACK CFI 9c14 .cfa: sp 8 +
STACK CFI 9c18 .ra: .cfa -4 + ^ r4: .cfa -8 + ^
STACK CFI INIT 9c50 44 .cfa: sp 0 + .ra: lr
STACK CFI 9c58 .cfa: sp 8 +
STACK CFI 9c5c .ra: .cfa -4 + ^ r4: .cfa -8 + ^
STACK CFI INIT 9c94 44 .cfa: sp 0 + .ra: lr
STACK CFI 9c9c .cfa: sp 8 +
STACK CFI 9ca0 .ra: .cfa -4 + ^ r4: .cfa -8 + ^
STACK CFI INIT 9cd8 44 .cfa: sp 0 + .ra: lr
STACK CFI 9ce0 .cfa: sp 8 +
STACK CFI 9ce4 .ra: .cfa -4 + ^ r4: .cfa -8 + ^
STACK CFI INIT 9d1c 44 .cfa: sp 0 + .ra: lr
STACK CFI 9d24 .cfa: sp 8 +
STACK CFI 9d28 .ra: .cfa -4 + ^ r4: .cfa -8 + ^
STACK CFI INIT 9d60 44 .cfa: sp 0 + .ra: lr
STACK CFI 9d68 .cfa: sp 8 +
STACK CFI 9d6c .ra: .cfa -4 + ^ r4: .cfa -8 + ^
STACK CFI INIT 9da4 44 .cfa: sp 0 + .ra: lr
STACK CFI 9dac .cfa: sp 8 +
STACK CFI 9db0 .ra: .cfa -4 + ^ r4: .cfa -8 + ^
STACK CFI INIT 9de8 44 .cfa: sp 0 + .ra: lr
STACK CFI 9df0 .cfa: sp 8 +
STACK CFI 9df4 .ra: .cfa -4 + ^ r4: .cfa -8 + ^
STACK CFI INIT 9e2c 44 .cfa: sp 0 + .ra: lr
STACK CFI 9e34 .cfa: sp 8 +
STACK CFI 9e38 .ra: .cfa -4 + ^ r4: .cfa -8 + ^
STACK CFI INIT 9e70 44 .cfa: sp 0 + .ra: lr
STACK CFI 9e78 .cfa: sp 8 +
STACK CFI 9e7c .ra: .cfa -4 + ^ r4: .cfa -8 + ^
STACK CFI INIT 9eb4 44 .cfa: sp 0 + .ra: lr
STACK CFI 9ebc .cfa: sp 8 +
STACK CFI 9ec0 .ra: .cfa -4 + ^ r4: .cfa -8 + ^
STACK CFI INIT 9ef8 44 .cfa: sp 0 + .ra: lr
STACK CFI 9f00 .cfa: sp 8 +
STACK CFI 9f04 .ra: .cfa -4 + ^ r4: .cfa -8 + ^
STACK CFI INIT 9f3c 44 .cfa: sp 0 + .ra: lr
STACK CFI 9f44 .cfa: sp 8 +
STACK CFI 9f48 .ra: .cfa -4 + ^ r4: .cfa -8 + ^
STACK CFI INIT 9f80 44 .cfa: sp 0 + .ra: lr
STACK CFI 9f88 .cfa: sp 8 +
STACK CFI 9f8c .ra: .cfa -4 + ^ r4: .cfa -8 + ^
STACK CFI INIT 9fc4 44 .cfa: sp 0 + .ra: lr
STACK CFI 9fcc .cfa: sp 8 +
STACK CFI 9fd0 .ra: .cfa -4 + ^ r4: .cfa -8 + ^
STACK CFI INIT a008 4c .cfa: sp 0 + .ra: lr
STACK CFI a010 .cfa: sp 8 +
STACK CFI a014 .ra: .cfa -4 + ^ r4: .cfa -8 + ^
STACK CFI INIT a054 4c .cfa: sp 0 + .ra: lr
STACK CFI a05c .cfa: sp 8 +
STACK CFI a060 .ra: .cfa -4 + ^ r4: .cfa -8 + ^
STACK CFI INIT a0a0 4c .cfa: sp 0 + .ra: lr
STACK CFI a0a8 .cfa: sp 8 +
STACK CFI a0ac .ra: .cfa -4 + ^ r4: .cfa -8 + ^
STACK CFI INIT a0ec 4c .cfa: sp 0 + .ra: lr
STACK CFI a0f4 .cfa: sp 8 +
STACK CFI a0f8 .ra: .cfa -4 + ^ r4: .cfa -8 + ^
STACK CFI INIT a138 4c .cfa: sp 0 + .ra: lr
STACK CFI a140 .cfa: sp 8 +
STACK CFI a144 .ra: .cfa -4 + ^ r4: .cfa -8 + ^
STACK CFI INIT a184 4c .cfa: sp 0 + .ra: lr
STACK CFI a18c .cfa: sp 8 +
STACK CFI a190 .ra: .cfa -4 + ^ r4: .cfa -8 + ^
STACK CFI INIT a1d0 4c .cfa: sp 0 + .ra: lr
STACK CFI a1d8 .cfa: sp 8 +
STACK CFI a1dc .ra: .cfa -4 + ^ r4: .cfa -8 + ^
STACK CFI INIT a21c 4c .cfa: sp 0 + .ra: lr
STACK CFI a224 .cfa: sp 8 +
STACK CFI a228 .ra: .cfa -4 + ^ r4: .cfa -8 + ^
STACK CFI INIT a268 4c .cfa: sp 0 + .ra: lr
STACK CFI a270 .cfa: sp 8 +
STACK CFI a274 .ra: .cfa -4 + ^ r4: .cfa -8 + ^
STACK CFI INIT a2b4 4c .cfa: sp 0 + .ra: lr
STACK CFI a2bc .cfa: sp 8 +
STACK CFI a2c0 .ra: .cfa -4 + ^ r4: .cfa -8 + ^
STACK CFI INIT a300 4c .cfa: sp 0 + .ra: lr
STACK CFI a308 .cfa: sp 8 +
STACK CFI a30c .ra: .cfa -4 + ^ r4: .cfa -8 + ^
STACK CFI INIT a34c 4c .cfa: sp 0 + .ra: lr
STACK CFI a354 .cfa: sp 8 +
STACK CFI a358 .ra: .cfa -4 + ^ r4: .cfa -8 + ^
STACK CFI INIT a398 4c .cfa: sp 0 + .ra: lr
STACK CFI a3a0 .cfa: sp 8 +
STACK CFI a3a4 .ra: .cfa -4 + ^ r4: .cfa -8 + ^
STACK CFI INIT a3e4 4c .cfa: sp 0 + .ra: lr
STACK CFI a3ec .cfa: sp 8 +
STACK CFI a3f0 .ra: .cfa -4 + ^ r4: .cfa -8 + ^
STACK CFI INIT a430 4c .cfa: sp 0 + .ra: lr
STACK CFI a438 .cfa: sp 8 +
STACK CFI a43c .ra: .cfa -4 + ^ r4: .cfa -8 + ^
STACK CFI INIT a47c 4c .cfa: sp 0 + .ra: lr
STACK CFI a484 .cfa: sp 8 +
STACK CFI a488 .ra: .cfa -4 + ^ r4: .cfa -8 + ^
STACK CFI INIT a4c8 4c .cfa: sp 0 + .ra: lr
STACK CFI a4d0 .cfa: sp 8 +
STACK CFI a4d4 .ra: .cfa -4 + ^ r4: .cfa -8 + ^
STACK CFI INIT a514 4c .cfa: sp 0 + .ra: lr
STACK CFI a51c .cfa: sp 8 +
STACK CFI a520 .ra: .cfa -4 + ^ r4: .cfa -8 + ^
STACK CFI INIT a560 4c .cfa: sp 0 + .ra: lr
STACK CFI a568 .cfa: sp 8 +
STACK CFI a56c .ra: .cfa -4 + ^ r4: .cfa -8 + ^
STACK CFI INIT a5ac 4c .cfa: sp 0 + .ra: lr
STACK CFI a5b4 .cfa: sp 8 +
STACK CFI a5b8 .ra: .cfa -4 + ^ r4: .cfa -8 + ^
STACK CFI INIT 8b0c 70 .cfa: sp 0 + .ra: lr
STACK CFI 8b14 .cfa: sp 16 +
STACK CFI 8b18 .ra: .cfa -4 + ^ r4: .cfa -16 + ^ r5: .cfa -12 + ^ r6: .cfa -8 + ^
STACK CFI INIT 8b7c 74 .cfa: sp 0 + .ra: lr
STACK CFI 8b84 .cfa: sp 16 +
STACK CFI 8b88 .ra: .cfa -4 + ^ r4: .cfa -16 + ^ r5: .cfa -12 + ^ r6: .cfa -8 + ^
STACK CFI INIT 8bf0 74 .cfa: sp 0 + .ra: lr
STACK CFI 8bf8 .cfa: sp 16 +
STACK CFI 8bfc .ra: .cfa -4 + ^ r4: .cfa -16 + ^ r5: .cfa -12 + ^ r6: .cfa -8 + ^
STACK CFI INIT 8c64 74 .cfa: sp 0 + .ra: lr
STACK CFI 8c6c .cfa: sp 16 +
STACK CFI 8c70 .ra: .cfa -4 + ^ r4: .cfa -16 + ^ r5: .cfa -12 + ^ r6: .cfa -8 + ^
STACK CFI INIT 8cd8 b0 .cfa: sp 0 + .ra: lr
STACK CFI 8ce0 .cfa: sp 16 +
STACK CFI 8ce4 .cfa: sp 24 +
STACK CFI 8cec .ra: .cfa -4 + ^ r4: .cfa -16 + ^ r5: .cfa -12 + ^ r6: .cfa -8 + ^
STACK CFI INIT 8d88 b0 .cfa: sp 0 + .ra: lr
STACK CFI 8d90 .cfa: sp 16 +
STACK CFI 8d94 .cfa: sp 24 +
STACK CFI 8d9c .ra: .cfa -4 + ^ r4: .cfa -16 + ^ r5: .cfa -12 + ^ r6: .cfa -8 + ^
STACK CFI INIT 8e38 74 .cfa: sp 0 + .ra: lr
STACK CFI 8e40 .cfa: sp 16 +
STACK CFI 8e44 .ra: .cfa -4 + ^ r4: .cfa -16 + ^ r5: .cfa -12 + ^ r6: .cfa -8 + ^
STACK CFI INIT 8eac b0 .cfa: sp 0 + .ra: lr
STACK CFI 8eb4 .cfa: sp 16 +
STACK CFI 8eb8 .cfa: sp 24 +
STACK CFI 8ec0 .ra: .cfa -4 + ^ r4: .cfa -16 + ^ r5: .cfa -12 + ^ r6: .cfa -8 + ^
STACK CFI INIT 8f5c 74 .cfa: sp 0 + .ra: lr
STACK CFI 8f64 .cfa: sp 16 +
STACK CFI 8f68 .ra: .cfa -4 + ^ r4: .cfa -16 + ^ r5: .cfa -12 + ^ r6: .cfa -8 + ^
STACK CFI INIT 8fd0 b0 .cfa: sp 0 + .ra: lr
STACK CFI 8fd8 .cfa: sp 16 +
STACK CFI 8fdc .cfa: sp 24 +
STACK CFI 8fe4 .ra: .cfa -4 + ^ r4: .cfa -16 + ^ r5: .cfa -12 + ^ r6: .cfa -8 + ^
STACK CFI INIT 9080 74 .cfa: sp 0 + .ra: lr
STACK CFI 9088 .cfa: sp 16 +
STACK CFI 908c .ra: .cfa -4 + ^ r4: .cfa -16 + ^ r5: .cfa -12 + ^ r6: .cfa -8 + ^
STACK CFI INIT 90f4 b0 .cfa: sp 0 + .ra: lr
STACK CFI 90fc .cfa: sp 16 +
STACK CFI 9100 .cfa: sp 24 +
STACK CFI 9108 .ra: .cfa -4 + ^ r4: .cfa -16 + ^ r5: .cfa -12 + ^ r6: .cfa -8 + ^
STACK CFI INIT 91a4 ac .cfa: sp 0 + .ra: lr
STACK CFI 91ac .cfa: sp 16 +
STACK CFI 91b0 .cfa: sp 24 +
STACK CFI 91b4 .ra: .cfa -4 + ^ r4: .cfa -16 + ^ r5: .cfa -12 + ^ r6: .cfa -8 + ^
STACK CFI INIT 9250 b4 .cfa: sp 0 + .ra: lr
STACK CFI 9254 .cfa: sp 16 +
STACK CFI 9258 .ra: .cfa -4 + ^ r4: .cfa -16 + ^ r5: .cfa -12 + ^ r6: .cfa -8 + ^
STACK CFI 925c .cfa: sp 24 +
STACK CFI INIT 9304 b0 .cfa: sp 0 + .ra: lr
STACK CFI 930c .cfa: sp 16 +
STACK CFI 9310 .cfa: sp 24 +
STACK CFI 9318 .ra: .cfa -4 + ^ r4: .cfa -16 + ^ r5: .cfa -12 + ^ r6: .cfa -8 + ^
STACK CFI INIT 93b4 b0 .cfa: sp 0 + .ra: lr
STACK CFI 93bc .cfa: sp 16 +
STACK CFI 93c0 .cfa: sp 24 +
STACK CFI 93c8 .ra: .cfa -4 + ^ r4: .cfa -16 + ^ r5: .cfa -12 + ^ r6: .cfa -8 + ^
STACK CFI INIT 9464 b4 .cfa: sp 0 + .ra: lr
STACK CFI 9468 .cfa: sp 16 +
STACK CFI 946c .ra: .cfa -4 + ^ r4: .cfa -16 + ^ r5: .cfa -12 + ^ r6: .cfa -8 + ^
STACK CFI 9470 .cfa: sp 24 +
STACK CFI INIT 9518 b0 .cfa: sp 0 + .ra: lr
STACK CFI 9520 .cfa: sp 16 +
STACK CFI 9524 .cfa: sp 24 +
STACK CFI 952c .ra: .cfa -4 + ^ r4: .cfa -16 + ^ r5: .cfa -12 + ^ r6: .cfa -8 + ^
STACK CFI INIT 95c8 9c .cfa: sp 0 + .ra: lr
STACK CFI 95cc .cfa: sp 16 +
STACK CFI 95d0 .ra: .cfa -4 + ^ r4: .cfa -16 + ^ r5: .cfa -12 + ^ r6: .cfa -8 + ^
STACK CFI 95d4 .cfa: sp 24 +
STACK CFI INIT 9664 74 .cfa: sp 0 + .ra: lr
STACK CFI 966c .cfa: sp 16 +
STACK CFI 9670 .ra: .cfa -4 + ^ r4: .cfa -16 + ^ r5: .cfa -12 + ^ r6: .cfa -8 + ^
STACK CFI INIT 96d8 88 .cfa: sp 0 + .ra: lr
STACK CFI 96e0 .cfa: sp 16 +
STACK CFI 96e4 .ra: .cfa -4 + ^ r4: .cfa -16 + ^ r5: .cfa -12 + ^ r6: .cfa -8 + ^
STACK CFI INIT 9760 74 .cfa: sp 0 + .ra: lr
STACK CFI 9768 .cfa: sp 16 +
STACK CFI 976c .ra: .cfa -4 + ^ r4: .cfa -16 + ^ r5: .cfa -12 + ^ r6: .cfa -8 + ^
STACK CFI INIT 97d4 74 .cfa: sp 0 + .ra: lr
STACK CFI 97dc .cfa: sp 16 +
STACK CFI 97e0 .ra: .cfa -4 + ^ r4: .cfa -16 + ^ r5: .cfa -12 + ^ r6: .cfa -8 + ^
STACK CFI INIT 9848 74 .cfa: sp 0 + .ra: lr
STACK CFI 9850 .cfa: sp 16 +
STACK CFI 9854 .ra: .cfa -4 + ^ r4: .cfa -16 + ^ r5: .cfa -12 + ^ r6: .cfa -8 + ^
STACK CFI INIT 98bc 74 .cfa: sp 0 + .ra: lr
STACK CFI 98c4 .cfa: sp 16 +
STACK CFI 98c8 .ra: .cfa -4 + ^ r4: .cfa -16 + ^ r5: .cfa -12 + ^ r6: .cfa -8 + ^
STACK CFI INIT 9930 90 .cfa: sp 0 + .ra: lr
STACK CFI 9934 .cfa: sp 16 +
STACK CFI 9938 .ra: .cfa -4 + ^ r4: .cfa -16 + ^ r5: .cfa -12 + ^ r6: .cfa -8 + ^
STACK CFI 993c .cfa: sp 32 +
STACK CFI INIT 99c0 b0 .cfa: sp 0 + .ra: lr
STACK CFI 99c8 .cfa: sp 16 +
STACK CFI 99cc .cfa: sp 24 +
STACK CFI 99d4 .ra: .cfa -4 + ^ r4: .cfa -16 + ^ r5: .cfa -12 + ^ r6: .cfa -8 + ^
STACK CFI INIT 9a70 48 .cfa: sp 0 + .ra: lr
STACK CFI 9a74 .cfa: sp 16 +
STACK CFI 9a78 .ra: .cfa -4 + ^ r4: .cfa -16 + ^ r5: .cfa -12 + ^ r6: .cfa -8 + ^
STACK CFI INIT 9c50 44 .cfa: sp 0 + .ra: lr
STACK CFI 9c58 .cfa: sp 8 +
STACK CFI 9c5c .ra: .cfa -4 + ^ r4: .cfa -8 + ^
STACK CFI INIT 9c94 44 .cfa: sp 0 + .ra: lr
STACK CFI 9c9c .cfa: sp 8 +
STACK CFI 9ca0 .ra: .cfa -4 + ^ r4: .cfa -8 + ^
STACK CFI INIT 9f3c 44 .cfa: sp 0 + .ra: lr
STACK CFI 9f44 .cfa: sp 8 +
STACK CFI 9f48 .ra: .cfa -4 + ^ r4: .cfa -8 + ^
STACK CFI INIT 9f80 44 .cfa: sp 0 + .ra: lr
STACK CFI 9f88 .cfa: sp 8 +
STACK CFI 9f8c .ra: .cfa -4 + ^ r4: .cfa -8 + ^
STACK CFI INIT a1d0 4c .cfa: sp 0 + .ra: lr
STACK CFI a1d8 .cfa: sp 8 +
STACK CFI a1dc .ra: .cfa -4 + ^ r4: .cfa -8 + ^
STACK CFI INIT a21c 4c .cfa: sp 0 + .ra: lr
STACK CFI a224 .cfa: sp 8 +
STACK CFI a228 .ra: .cfa -4 + ^ r4: .cfa -8 + ^
STACK CFI INIT a268 4c .cfa: sp 0 + .ra: lr
STACK CFI a270 .cfa: sp 8 +
STACK CFI a274 .ra: .cfa -4 + ^ r4: .cfa -8 + ^
STACK CFI INIT a2b4 4c .cfa: sp 0 + .ra: lr
STACK CFI a2bc .cfa: sp 8 +
STACK CFI a2c0 .ra: .cfa -4 + ^ r4: .cfa -8 + ^
STACK CFI INIT a5f8 70 .cfa: sp 0 + .ra: lr
STACK CFI a600 .cfa: sp 16 +
STACK CFI a604 .ra: .cfa -4 + ^ r4: .cfa -16 + ^ r5: .cfa -12 + ^ r6: .cfa -8 + ^
STACK CFI INIT a668 74 .cfa: sp 0 + .ra: lr
STACK CFI a670 .cfa: sp 16 +
STACK CFI a674 .ra: .cfa -4 + ^ r4: .cfa -16 + ^ r5: .cfa -12 + ^ r6: .cfa -8 + ^
STACK CFI INIT a6dc 74 .cfa: sp 0 + .ra: lr
STACK CFI a6e4 .cfa: sp 16 +
STACK CFI a6e8 .ra: .cfa -4 + ^ r4: .cfa -16 + ^ r5: .cfa -12 + ^ r6: .cfa -8 + ^
STACK CFI INIT a750 88 .cfa: sp 0 + .ra: lr
STACK CFI a758 .cfa: sp 16 +
STACK CFI a75c .cfa: sp 24 +
STACK CFI a764 .ra: .cfa -4 + ^ r4: .cfa -16 + ^ r5: .cfa -12 + ^ r6: .cfa -8 + ^
STACK CFI INIT a7d8 88 .cfa: sp 0 + .ra: lr
STACK CFI a7e0 .cfa: sp 16 +
STACK CFI a7e4 .cfa: sp 24 +
STACK CFI a7ec .ra: .cfa -4 + ^ r4: .cfa -16 + ^ r5: .cfa -12 + ^ r6: .cfa -8 + ^
STACK CFI INIT a860 74 .cfa: sp 0 + .ra: lr
STACK CFI a868 .cfa: sp 16 +
STACK CFI a86c .ra: .cfa -4 + ^ r4: .cfa -16 + ^ r5: .cfa -12 + ^ r6: .cfa -8 + ^
STACK CFI INIT a8d4 74 .cfa: sp 0 + .ra: lr
STACK CFI a8dc .cfa: sp 16 +
STACK CFI a8e0 .ra: .cfa -4 + ^ r4: .cfa -16 + ^ r5: .cfa -12 + ^ r6: .cfa -8 + ^
STACK CFI INIT a948 a0 .cfa: sp 0 + .ra: lr
STACK CFI a94c .cfa: sp 16 +
STACK CFI a954 .cfa: sp 24 +
STACK CFI a95c .ra: .cfa -4 + ^ r4: .cfa -16 + ^ r5: .cfa -12 + ^ r6: .cfa -8 + ^
STACK CFI INIT a9e8 a8 .cfa: sp 0 + .ra: lr
STACK CFI a9ec .cfa: sp 16 +
STACK CFI a9f0 .ra: .cfa -4 + ^ r4: .cfa -16 + ^ r5: .cfa -12 + ^ r6: .cfa -8 + ^
STACK CFI a9f4 .cfa: sp 32 +
STACK CFI INIT aa90 90 .cfa: sp 0 + .ra: lr
STACK CFI aa98 .cfa: sp 16 +
STACK CFI aa9c .ra: .cfa -4 + ^ r4: .cfa -16 + ^ r5: .cfa -12 + ^ r6: .cfa -8 + ^
STACK CFI INIT ab20 74 .cfa: sp 0 + .ra: lr
STACK CFI ab28 .cfa: sp 16 +
STACK CFI ab2c .ra: .cfa -4 + ^ r4: .cfa -16 + ^ r5: .cfa -12 + ^ r6: .cfa -8 + ^
STACK CFI INIT ab94 ac .cfa: sp 0 + .ra: lr
STACK CFI ab9c .cfa: sp 16 +
STACK CFI aba0 .cfa: sp 24 +
STACK CFI aba4 .ra: .cfa -4 + ^ r4: .cfa -16 + ^ r5: .cfa -12 + ^ r6: .cfa -8 + ^
STACK CFI INIT ac40 ac .cfa: sp 0 + .ra: lr
STACK CFI ac48 .cfa: sp 16 +
STACK CFI ac4c .cfa: sp 24 +
STACK CFI ac50 .ra: .cfa -4 + ^ r4: .cfa -16 + ^ r5: .cfa -12 + ^ r6: .cfa -8 + ^
STACK CFI INIT acec 48 .cfa: sp 0 + .ra: lr
STACK CFI acf0 .cfa: sp 16 +
STACK CFI acf4 .ra: .cfa -4 + ^ r4: .cfa -16 + ^ r5: .cfa -12 + ^ r6: .cfa -8 + ^
STACK CFI INIT 9ab8 44 .cfa: sp 0 + .ra: lr
STACK CFI 9ac0 .cfa: sp 8 +
STACK CFI 9ac4 .ra: .cfa -4 + ^ r4: .cfa -8 + ^
STACK CFI INIT 9b40 44 .cfa: sp 0 + .ra: lr
STACK CFI 9b48 .cfa: sp 8 +
STACK CFI 9b4c .ra: .cfa -4 + ^ r4: .cfa -8 + ^
STACK CFI INIT bfe0 44 .cfa: sp 0 + .ra: lr
STACK CFI bfe8 .cfa: sp 8 +
STACK CFI bfec .ra: .cfa -4 + ^ r4: .cfa -8 + ^
STACK CFI INIT 9d60 44 .cfa: sp 0 + .ra: lr
STACK CFI 9d68 .cfa: sp 8 +
STACK CFI 9d6c .ra: .cfa -4 + ^ r4: .cfa -8 + ^
STACK CFI INIT 9de8 44 .cfa: sp 0 + .ra: lr
STACK CFI 9df0 .cfa: sp 8 +
STACK CFI 9df4 .ra: .cfa -4 + ^ r4: .cfa -8 + ^
STACK CFI INIT c024 44 .cfa: sp 0 + .ra: lr
STACK CFI c02c .cfa: sp 8 +
STACK CFI c030 .ra: .cfa -4 + ^ r4: .cfa -8 + ^
STACK CFI INIT c068 4c .cfa: sp 0 + .ra: lr
STACK CFI c070 .cfa: sp 8 +
STACK CFI c074 .ra: .cfa -4 + ^ r4: .cfa -8 + ^
STACK CFI INIT c0b4 4c .cfa: sp 0 + .ra: lr
STACK CFI c0bc .cfa: sp 8 +
STACK CFI c0c0 .ra: .cfa -4 + ^ r4: .cfa -8 + ^
STACK CFI INIT a4c8 4c .cfa: sp 0 + .ra: lr
STACK CFI a4d0 .cfa: sp 8 +
STACK CFI a4d4 .ra: .cfa -4 + ^ r4: .cfa -8 + ^
STACK CFI INIT a514 4c .cfa: sp 0 + .ra: lr
STACK CFI a51c .cfa: sp 8 +
STACK CFI a520 .ra: .cfa -4 + ^ r4: .cfa -8 + ^
STACK CFI INIT a008 4c .cfa: sp 0 + .ra: lr
STACK CFI a010 .cfa: sp 8 +
STACK CFI a014 .ra: .cfa -4 + ^ r4: .cfa -8 + ^
STACK CFI INIT a054 4c .cfa: sp 0 + .ra: lr
STACK CFI a05c .cfa: sp 8 +
STACK CFI a060 .ra: .cfa -4 + ^ r4: .cfa -8 + ^
STACK CFI INIT ad34 84 .cfa: sp 0 + .ra: lr
STACK CFI ad3c .cfa: sp 16 +
STACK CFI ad40 .cfa: sp 24 +
STACK CFI ad48 .ra: .cfa -4 + ^ r4: .cfa -16 + ^ r5: .cfa -12 + ^ r6: .cfa -8 + ^
STACK CFI INIT adb8 88 .cfa: sp 0 + .ra: lr
STACK CFI adc0 .cfa: sp 16 +
STACK CFI adc4 .ra: .cfa -4 + ^ r4: .cfa -16 + ^ r5: .cfa -12 + ^ r6: .cfa -8 + ^
STACK CFI INIT ae40 74 .cfa: sp 0 + .ra: lr
STACK CFI ae48 .cfa: sp 16 +
STACK CFI ae4c .ra: .cfa -4 + ^ r4: .cfa -16 + ^ r5: .cfa -12 + ^ r6: .cfa -8 + ^
STACK CFI INIT aeb4 ac .cfa: sp 0 + .ra: lr
STACK CFI aebc .cfa: sp 16 +
STACK CFI aec0 .cfa: sp 24 +
STACK CFI aec4 .ra: .cfa -4 + ^ r4: .cfa -16 + ^ r5: .cfa -12 + ^ r6: .cfa -8 + ^
STACK CFI INIT af60 ac .cfa: sp 0 + .ra: lr
STACK CFI af68 .cfa: sp 16 +
STACK CFI af6c .cfa: sp 24 +
STACK CFI af70 .ra: .cfa -4 + ^ r4: .cfa -16 + ^ r5: .cfa -12 + ^ r6: .cfa -8 + ^
STACK CFI INIT b00c 74 .cfa: sp 0 + .ra: lr
STACK CFI b014 .cfa: sp 16 +
STACK CFI b018 .ra: .cfa -4 + ^ r4: .cfa -16 + ^ r5: .cfa -12 + ^ r6: .cfa -8 + ^
STACK CFI INIT b080 74 .cfa: sp 0 + .ra: lr
STACK CFI b088 .cfa: sp 16 +
STACK CFI b08c .ra: .cfa -4 + ^ r4: .cfa -16 + ^ r5: .cfa -12 + ^ r6: .cfa -8 + ^
STACK CFI INIT b0f4 8c .cfa: sp 0 + .ra: lr
STACK CFI b0f8 .cfa: sp 16 +
STACK CFI b0fc .ra: .cfa -4 + ^ r4: .cfa -16 + ^ r5: .cfa -12 + ^ r6: .cfa -8 + ^
STACK CFI b100 .cfa: sp 24 +
STACK CFI INIT b180 8c .cfa: sp 0 + .ra: lr
STACK CFI b184 .cfa: sp 16 +
STACK CFI b188 .ra: .cfa -4 + ^ r4: .cfa -16 + ^ r5: .cfa -12 + ^ r6: .cfa -8 + ^
STACK CFI b18c .cfa: sp 24 +
STACK CFI INIT b20c 74 .cfa: sp 0 + .ra: lr
STACK CFI b214 .cfa: sp 16 +
STACK CFI b218 .ra: .cfa -4 + ^ r4: .cfa -16 + ^ r5: .cfa -12 + ^ r6: .cfa -8 + ^
STACK CFI INIT b280 8c .cfa: sp 0 + .ra: lr
STACK CFI b284 .cfa: sp 16 +
STACK CFI b288 .ra: .cfa -4 + ^ r4: .cfa -16 + ^ r5: .cfa -12 + ^ r6: .cfa -8 + ^
STACK CFI b28c .cfa: sp 24 +
STACK CFI INIT b30c 74 .cfa: sp 0 + .ra: lr
STACK CFI b314 .cfa: sp 16 +
STACK CFI b318 .ra: .cfa -4 + ^ r4: .cfa -16 + ^ r5: .cfa -12 + ^ r6: .cfa -8 + ^
STACK CFI INIT b380 74 .cfa: sp 0 + .ra: lr
STACK CFI b388 .cfa: sp 16 +
STACK CFI b38c .ra: .cfa -4 + ^ r4: .cfa -16 + ^ r5: .cfa -12 + ^ r6: .cfa -8 + ^
STACK CFI INIT b3f4 74 .cfa: sp 0 + .ra: lr
STACK CFI b3fc .cfa: sp 16 +
STACK CFI b400 .ra: .cfa -4 + ^ r4: .cfa -16 + ^ r5: .cfa -12 + ^ r6: .cfa -8 + ^
STACK CFI INIT b468 88 .cfa: sp 0 + .ra: lr
STACK CFI b470 .cfa: sp 16 +
STACK CFI b474 .cfa: sp 24 +
STACK CFI b47c .ra: .cfa -4 + ^ r4: .cfa -16 + ^ r5: .cfa -12 + ^ r6: .cfa -8 + ^
STACK CFI INIT b4f0 74 .cfa: sp 0 + .ra: lr
STACK CFI b4f8 .cfa: sp 16 +
STACK CFI b4fc .ra: .cfa -4 + ^ r4: .cfa -16 + ^ r5: .cfa -12 + ^ r6: .cfa -8 + ^
STACK CFI INIT b564 88 .cfa: sp 0 + .ra: lr
STACK CFI b56c .cfa: sp 16 +
STACK CFI b570 .cfa: sp 24 +
STACK CFI b578 .ra: .cfa -4 + ^ r4: .cfa -16 + ^ r5: .cfa -12 + ^ r6: .cfa -8 + ^
STACK CFI INIT b5ec 74 .cfa: sp 0 + .ra: lr
STACK CFI b5f4 .cfa: sp 16 +
STACK CFI b5f8 .ra: .cfa -4 + ^ r4: .cfa -16 + ^ r5: .cfa -12 + ^ r6: .cfa -8 + ^
STACK CFI INIT b660 74 .cfa: sp 0 + .ra: lr
STACK CFI b668 .cfa: sp 16 +
STACK CFI b66c .ra: .cfa -4 + ^ r4: .cfa -16 + ^ r5: .cfa -12 + ^ r6: .cfa -8 + ^
STACK CFI INIT b6d4 74 .cfa: sp 0 + .ra: lr
STACK CFI b6dc .cfa: sp 16 +
STACK CFI b6e0 .ra: .cfa -4 + ^ r4: .cfa -16 + ^ r5: .cfa -12 + ^ r6: .cfa -8 + ^
STACK CFI INIT b748 74 .cfa: sp 0 + .ra: lr
STACK CFI b750 .cfa: sp 16 +
STACK CFI b754 .ra: .cfa -4 + ^ r4: .cfa -16 + ^ r5: .cfa -12 + ^ r6: .cfa -8 + ^
STACK CFI INIT b7bc 74 .cfa: sp 0 + .ra: lr
STACK CFI b7c4 .cfa: sp 16 +
STACK CFI b7c8 .ra: .cfa -4 + ^ r4: .cfa -16 + ^ r5: .cfa -12 + ^ r6: .cfa -8 + ^
STACK CFI INIT b830 74 .cfa: sp 0 + .ra: lr
STACK CFI b838 .cfa: sp 16 +
STACK CFI b83c .ra: .cfa -4 + ^ r4: .cfa -16 + ^ r5: .cfa -12 + ^ r6: .cfa -8 + ^
STACK CFI INIT b8a4 78 .cfa: sp 0 + .ra: lr
STACK CFI b8ac .cfa: sp 16 +
STACK CFI b8b4 .ra: .cfa -4 + ^ r4: .cfa -16 + ^ r5: .cfa -12 + ^ r6: .cfa -8 + ^
STACK CFI INIT b91c 8c .cfa: sp 0 + .ra: lr
STACK CFI b920 .cfa: sp 16 +
STACK CFI b924 .ra: .cfa -4 + ^ r4: .cfa -16 + ^ r5: .cfa -12 + ^ r6: .cfa -8 + ^
STACK CFI b928 .cfa: sp 24 +
STACK CFI INIT b9a8 74 .cfa: sp 0 + .ra: lr
STACK CFI b9b0 .cfa: sp 16 +
STACK CFI b9b4 .ra: .cfa -4 + ^ r4: .cfa -16 + ^ r5: .cfa -12 + ^ r6: .cfa -8 + ^
STACK CFI INIT ba1c 74 .cfa: sp 0 + .ra: lr
STACK CFI ba24 .cfa: sp 16 +
STACK CFI ba28 .ra: .cfa -4 + ^ r4: .cfa -16 + ^ r5: .cfa -12 + ^ r6: .cfa -8 + ^
STACK CFI INIT ba90 b0 .cfa: sp 0 + .ra: lr
STACK CFI ba98 .cfa: sp 16 +
STACK CFI ba9c .cfa: sp 24 +
STACK CFI baa4 .ra: .cfa -4 + ^ r4: .cfa -16 + ^ r5: .cfa -12 + ^ r6: .cfa -8 + ^
STACK CFI INIT bb40 b0 .cfa: sp 0 + .ra: lr
STACK CFI bb48 .cfa: sp 16 +
STACK CFI bb4c .cfa: sp 24 +
STACK CFI bb54 .ra: .cfa -4 + ^ r4: .cfa -16 + ^ r5: .cfa -12 + ^ r6: .cfa -8 + ^
STACK CFI INIT bbf0 74 .cfa: sp 0 + .ra: lr
STACK CFI bbf8 .cfa: sp 16 +
STACK CFI bbfc .ra: .cfa -4 + ^ r4: .cfa -16 + ^ r5: .cfa -12 + ^ r6: .cfa -8 + ^
STACK CFI INIT bc64 74 .cfa: sp 0 + .ra: lr
STACK CFI bc6c .cfa: sp 16 +
STACK CFI bc70 .ra: .cfa -4 + ^ r4: .cfa -16 + ^ r5: .cfa -12 + ^ r6: .cfa -8 + ^
STACK CFI INIT bcd8 74 .cfa: sp 0 + .ra: lr
STACK CFI bce0 .cfa: sp 16 +
STACK CFI bce4 .ra: .cfa -4 + ^ r4: .cfa -16 + ^ r5: .cfa -12 + ^ r6: .cfa -8 + ^
STACK CFI INIT bd4c 74 .cfa: sp 0 + .ra: lr
STACK CFI bd54 .cfa: sp 16 +
STACK CFI bd58 .ra: .cfa -4 + ^ r4: .cfa -16 + ^ r5: .cfa -12 + ^ r6: .cfa -8 + ^
STACK CFI INIT bdc0 78 .cfa: sp 0 + .ra: lr
STACK CFI bdc8 .cfa: sp 16 +
STACK CFI bdd0 .ra: .cfa -4 + ^ r4: .cfa -16 + ^ r5: .cfa -12 + ^ r6: .cfa -8 + ^
STACK CFI INIT be38 74 .cfa: sp 0 + .ra: lr
STACK CFI be40 .cfa: sp 16 +
STACK CFI be44 .ra: .cfa -4 + ^ r4: .cfa -16 + ^ r5: .cfa -12 + ^ r6: .cfa -8 + ^
STACK CFI INIT beac 74 .cfa: sp 0 + .ra: lr
STACK CFI beb4 .cfa: sp 16 +
STACK CFI beb8 .ra: .cfa -4 + ^ r4: .cfa -16 + ^ r5: .cfa -12 + ^ r6: .cfa -8 + ^
STACK CFI INIT bf20 78 .cfa: sp 0 + .ra: lr
STACK CFI bf28 .cfa: sp 16 +
STACK CFI bf30 .ra: .cfa -4 + ^ r4: .cfa -16 + ^ r5: .cfa -12 + ^ r6: .cfa -8 + ^
STACK CFI INIT bf98 48 .cfa: sp 0 + .ra: lr
STACK CFI bf9c .cfa: sp 16 +
STACK CFI bfa0 .ra: .cfa -4 + ^ r4: .cfa -16 + ^ r5: .cfa -12 + ^ r6: .cfa -8 + ^
STACK CFI INIT c100 70 .cfa: sp 0 + .ra: lr
STACK CFI c108 .cfa: sp 16 +
STACK CFI c10c .ra: .cfa -4 + ^ r4: .cfa -16 + ^ r5: .cfa -12 + ^ r6: .cfa -8 + ^
STACK CFI INIT c170 74 .cfa: sp 0 + .ra: lr
STACK CFI c178 .cfa: sp 16 +
STACK CFI c17c .ra: .cfa -4 + ^ r4: .cfa -16 + ^ r5: .cfa -12 + ^ r6: .cfa -8 + ^
STACK CFI INIT c1e4 90 .cfa: sp 0 + .ra: lr
STACK CFI c1ec .cfa: sp 16 +
STACK CFI c1f0 .ra: .cfa -4 + ^ r4: .cfa -16 + ^ r5: .cfa -12 + ^ r6: .cfa -8 + ^
STACK CFI INIT c274 74 .cfa: sp 0 + .ra: lr
STACK CFI c27c .cfa: sp 16 +
STACK CFI c280 .ra: .cfa -4 + ^ r4: .cfa -16 + ^ r5: .cfa -12 + ^ r6: .cfa -8 + ^
STACK CFI INIT c2e8 90 .cfa: sp 0 + .ra: lr
STACK CFI c2f0 .cfa: sp 16 +
STACK CFI c2f4 .ra: .cfa -4 + ^ r4: .cfa -16 + ^ r5: .cfa -12 + ^ r6: .cfa -8 + ^
STACK CFI INIT c378 90 .cfa: sp 0 + .ra: lr
STACK CFI c380 .cfa: sp 16 +
STACK CFI c384 .ra: .cfa -4 + ^ r4: .cfa -16 + ^ r5: .cfa -12 + ^ r6: .cfa -8 + ^
STACK CFI INIT c408 90 .cfa: sp 0 + .ra: lr
STACK CFI c410 .cfa: sp 16 +
STACK CFI c414 .ra: .cfa -4 + ^ r4: .cfa -16 + ^ r5: .cfa -12 + ^ r6: .cfa -8 + ^
STACK CFI INIT c498 74 .cfa: sp 0 + .ra: lr
STACK CFI c4a0 .cfa: sp 16 +
STACK CFI c4a4 .ra: .cfa -4 + ^ r4: .cfa -16 + ^ r5: .cfa -12 + ^ r6: .cfa -8 + ^
STACK CFI INIT c50c 88 .cfa: sp 0 + .ra: lr
STACK CFI c514 .cfa: sp 16 +
STACK CFI c518 .cfa: sp 24 +
STACK CFI c520 .ra: .cfa -4 + ^ r4: .cfa -16 + ^ r5: .cfa -12 + ^ r6: .cfa -8 + ^
STACK CFI INIT c594 74 .cfa: sp 0 + .ra: lr
STACK CFI c59c .cfa: sp 16 +
STACK CFI c5a0 .ra: .cfa -4 + ^ r4: .cfa -16 + ^ r5: .cfa -12 + ^ r6: .cfa -8 + ^
STACK CFI INIT c608 74 .cfa: sp 0 + .ra: lr
STACK CFI c610 .cfa: sp 16 +
STACK CFI c614 .ra: .cfa -4 + ^ r4: .cfa -16 + ^ r5: .cfa -12 + ^ r6: .cfa -8 + ^
STACK CFI INIT c67c 48 .cfa: sp 0 + .ra: lr
STACK CFI c680 .cfa: sp 16 +
STACK CFI c684 .ra: .cfa -4 + ^ r4: .cfa -16 + ^ r5: .cfa -12 + ^ r6: .cfa -8 + ^
STACK CFI INIT c6c4 84 .cfa: sp 0 + .ra: lr
STACK CFI c6cc .cfa: sp 16 +
STACK CFI c6d0 .cfa: sp 24 +
STACK CFI c6d8 .ra: .cfa -4 + ^ r4: .cfa -16 + ^ r5: .cfa -12 + ^ r6: .cfa -8 + ^
STACK CFI INIT c748 88 .cfa: sp 0 + .ra: lr
STACK CFI c750 .cfa: sp 16 +
STACK CFI c754 .cfa: sp 24 +
STACK CFI c75c .ra: .cfa -4 + ^ r4: .cfa -16 + ^ r5: .cfa -12 + ^ r6: .cfa -8 + ^
STACK CFI INIT c7d0 88 .cfa: sp 0 + .ra: lr
STACK CFI c7d8 .cfa: sp 16 +
STACK CFI c7dc .cfa: sp 24 +
STACK CFI c7e4 .ra: .cfa -4 + ^ r4: .cfa -16 + ^ r5: .cfa -12 + ^ r6: .cfa -8 + ^
STACK CFI INIT c858 88 .cfa: sp 0 + .ra: lr
STACK CFI c860 .cfa: sp 16 +
STACK CFI c864 .cfa: sp 24 +
STACK CFI c86c .ra: .cfa -4 + ^ r4: .cfa -16 + ^ r5: .cfa -12 + ^ r6: .cfa -8 + ^
STACK CFI INIT c8e0 8c .cfa: sp 0 + .ra: lr
STACK CFI c8e4 .cfa: sp 16 +
STACK CFI c8e8 .ra: .cfa -4 + ^ r4: .cfa -16 + ^ r5: .cfa -12 + ^ r6: .cfa -8 + ^
STACK CFI c8ec .cfa: sp 24 +
STACK CFI INIT c96c 98 .cfa: sp 0 + .ra: lr
STACK CFI c970 .cfa: sp 16 +
STACK CFI c974 .ra: .cfa -4 + ^ r4: .cfa -16 + ^ r5: .cfa -12 + ^ r6: .cfa -8 + ^
STACK CFI c978 .cfa: sp 32 +
STACK CFI INIT ca04 88 .cfa: sp 0 + .ra: lr
STACK CFI ca0c .cfa: sp 16 +
STACK CFI ca10 .cfa: sp 24 +
STACK CFI ca18 .ra: .cfa -4 + ^ r4: .cfa -16 + ^ r5: .cfa -12 + ^ r6: .cfa -8 + ^
STACK CFI INIT ca8c 8c .cfa: sp 0 + .ra: lr
STACK CFI ca90 .cfa: sp 16 +
STACK CFI ca94 .ra: .cfa -4 + ^ r4: .cfa -16 + ^ r5: .cfa -12 + ^ r6: .cfa -8 + ^
STACK CFI ca98 .cfa: sp 24 +
STACK CFI INIT cb18 74 .cfa: sp 0 + .ra: lr
STACK CFI cb20 .cfa: sp 16 +
STACK CFI cb24 .ra: .cfa -4 + ^ r4: .cfa -16 + ^ r5: .cfa -12 + ^ r6: .cfa -8 + ^
STACK CFI INIT cb8c 74 .cfa: sp 0 + .ra: lr
STACK CFI cb94 .cfa: sp 16 +
STACK CFI cb98 .ra: .cfa -4 + ^ r4: .cfa -16 + ^ r5: .cfa -12 + ^ r6: .cfa -8 + ^
STACK CFI INIT cc00 74 .cfa: sp 0 + .ra: lr
STACK CFI cc08 .cfa: sp 16 +
STACK CFI cc0c .ra: .cfa -4 + ^ r4: .cfa -16 + ^ r5: .cfa -12 + ^ r6: .cfa -8 + ^
STACK CFI INIT cc74 74 .cfa: sp 0 + .ra: lr
STACK CFI cc7c .cfa: sp 16 +
STACK CFI cc80 .ra: .cfa -4 + ^ r4: .cfa -16 + ^ r5: .cfa -12 + ^ r6: .cfa -8 + ^
STACK CFI INIT cce8 48 .cfa: sp 0 + .ra: lr
STACK CFI ccec .cfa: sp 16 +
STACK CFI ccf0 .ra: .cfa -4 + ^ r4: .cfa -16 + ^ r5: .cfa -12 + ^ r6: .cfa -8 + ^
STACK CFI INIT cd30 70 .cfa: sp 0 + .ra: lr
STACK CFI cd38 .cfa: sp 16 +
STACK CFI cd3c .ra: .cfa -4 + ^ r4: .cfa -16 + ^ r5: .cfa -12 + ^ r6: .cfa -8 + ^
STACK CFI INIT cda0 74 .cfa: sp 0 + .ra: lr
STACK CFI cda8 .cfa: sp 16 +
STACK CFI cdac .ra: .cfa -4 + ^ r4: .cfa -16 + ^ r5: .cfa -12 + ^ r6: .cfa -8 + ^
STACK CFI INIT ce14 78 .cfa: sp 0 + .ra: lr
STACK CFI ce1c .cfa: sp 16 +
STACK CFI ce24 .ra: .cfa -4 + ^ r4: .cfa -16 + ^ r5: .cfa -12 + ^ r6: .cfa -8 + ^
STACK CFI INIT ce8c 74 .cfa: sp 0 + .ra: lr
STACK CFI ce94 .cfa: sp 16 +
STACK CFI ce98 .ra: .cfa -4 + ^ r4: .cfa -16 + ^ r5: .cfa -12 + ^ r6: .cfa -8 + ^
STACK CFI INIT cf00 48 .cfa: sp 0 + .ra: lr
STACK CFI cf04 .cfa: sp 16 +
STACK CFI cf08 .ra: .cfa -4 + ^ r4: .cfa -16 + ^ r5: .cfa -12 + ^ r6: .cfa -8 + ^
STACK CFI INIT 9c0c 44 .cfa: sp 0 + .ra: lr
STACK CFI 9c14 .cfa: sp 8 +
STACK CFI 9c18 .ra: .cfa -4 + ^ r4: .cfa -8 + ^
STACK CFI INIT 9eb4 44 .cfa: sp 0 + .ra: lr
STACK CFI 9ebc .cfa: sp 8 +
STACK CFI 9ec0 .ra: .cfa -4 + ^ r4: .cfa -8 + ^
STACK CFI INIT a300 4c .cfa: sp 0 + .ra: lr
STACK CFI a308 .cfa: sp 8 +
STACK CFI a30c .ra: .cfa -4 + ^ r4: .cfa -8 + ^
STACK CFI INIT a34c 4c .cfa: sp 0 + .ra: lr
STACK CFI a354 .cfa: sp 8 +
STACK CFI a358 .ra: .cfa -4 + ^ r4: .cfa -8 + ^
STACK CFI INIT cf48 84 .cfa: sp 0 + .ra: lr
STACK CFI cf50 .cfa: sp 16 +
STACK CFI cf54 .cfa: sp 24 +
STACK CFI cf5c .ra: .cfa -4 + ^ r4: .cfa -16 + ^ r5: .cfa -12 + ^ r6: .cfa -8 + ^
STACK CFI INIT cfcc 74 .cfa: sp 0 + .ra: lr
STACK CFI cfd4 .cfa: sp 16 +
STACK CFI cfd8 .ra: .cfa -4 + ^ r4: .cfa -16 + ^ r5: .cfa -12 + ^ r6: .cfa -8 + ^
STACK CFI INIT d040 74 .cfa: sp 0 + .ra: lr
STACK CFI d048 .cfa: sp 16 +
STACK CFI d04c .ra: .cfa -4 + ^ r4: .cfa -16 + ^ r5: .cfa -12 + ^ r6: .cfa -8 + ^
STACK CFI INIT d0b4 ac .cfa: sp 0 + .ra: lr
STACK CFI d0bc .cfa: sp 16 +
STACK CFI d0c0 .cfa: sp 24 +
STACK CFI d0c4 .ra: .cfa -4 + ^ r4: .cfa -16 + ^ r5: .cfa -12 + ^ r6: .cfa -8 + ^
STACK CFI INIT d160 78 .cfa: sp 0 + .ra: lr
STACK CFI d168 .cfa: sp 16 +
STACK CFI d170 .ra: .cfa -4 + ^ r4: .cfa -16 + ^ r5: .cfa -12 + ^ r6: .cfa -8 + ^
STACK CFI INIT d1d8 78 .cfa: sp 0 + .ra: lr
STACK CFI d1e0 .cfa: sp 16 +
STACK CFI d1e8 .ra: .cfa -4 + ^ r4: .cfa -16 + ^ r5: .cfa -12 + ^ r6: .cfa -8 + ^
STACK CFI INIT d250 88 .cfa: sp 0 + .ra: lr
STACK CFI d258 .cfa: sp 16 +
STACK CFI d25c .cfa: sp 24 +
STACK CFI d264 .ra: .cfa -4 + ^ r4: .cfa -16 + ^ r5: .cfa -12 + ^ r6: .cfa -8 + ^
STACK CFI INIT d2d8 88 .cfa: sp 0 + .ra: lr
STACK CFI d2e0 .cfa: sp 16 +
STACK CFI d2e4 .cfa: sp 24 +
STACK CFI d2ec .ra: .cfa -4 + ^ r4: .cfa -16 + ^ r5: .cfa -12 + ^ r6: .cfa -8 + ^
STACK CFI INIT d360 88 .cfa: sp 0 + .ra: lr
STACK CFI d368 .cfa: sp 16 +
STACK CFI d36c .cfa: sp 24 +
STACK CFI d374 .ra: .cfa -4 + ^ r4: .cfa -16 + ^ r5: .cfa -12 + ^ r6: .cfa -8 + ^
STACK CFI INIT d3e8 88 .cfa: sp 0 + .ra: lr
STACK CFI d3f0 .cfa: sp 16 +
STACK CFI d3f4 .cfa: sp 24 +
STACK CFI d3fc .ra: .cfa -4 + ^ r4: .cfa -16 + ^ r5: .cfa -12 + ^ r6: .cfa -8 + ^
STACK CFI INIT d470 88 .cfa: sp 0 + .ra: lr
STACK CFI d478 .cfa: sp 16 +
STACK CFI d47c .cfa: sp 24 +
STACK CFI d484 .ra: .cfa -4 + ^ r4: .cfa -16 + ^ r5: .cfa -12 + ^ r6: .cfa -8 + ^
STACK CFI INIT d4f8 88 .cfa: sp 0 + .ra: lr
STACK CFI d500 .cfa: sp 16 +
STACK CFI d504 .cfa: sp 24 +
STACK CFI d50c .ra: .cfa -4 + ^ r4: .cfa -16 + ^ r5: .cfa -12 + ^ r6: .cfa -8 + ^
STACK CFI INIT d580 74 .cfa: sp 0 + .ra: lr
STACK CFI d588 .cfa: sp 16 +
STACK CFI d58c .ra: .cfa -4 + ^ r4: .cfa -16 + ^ r5: .cfa -12 + ^ r6: .cfa -8 + ^
STACK CFI INIT d5f4 48 .cfa: sp 0 + .ra: lr
STACK CFI d5f8 .cfa: sp 16 +
STACK CFI d5fc .ra: .cfa -4 + ^ r4: .cfa -16 + ^ r5: .cfa -12 + ^ r6: .cfa -8 + ^
STACK CFI INIT 9afc 44 .cfa: sp 0 + .ra: lr
STACK CFI 9b04 .cfa: sp 8 +
STACK CFI 9b08 .ra: .cfa -4 + ^ r4: .cfa -8 + ^
STACK CFI INIT 9e2c 44 .cfa: sp 0 + .ra: lr
STACK CFI 9e34 .cfa: sp 8 +
STACK CFI 9e38 .ra: .cfa -4 + ^ r4: .cfa -8 + ^
STACK CFI INIT a560 4c .cfa: sp 0 + .ra: lr
STACK CFI a568 .cfa: sp 8 +
STACK CFI a56c .ra: .cfa -4 + ^ r4: .cfa -8 + ^
STACK CFI INIT a5ac 4c .cfa: sp 0 + .ra: lr
STACK CFI a5b4 .cfa: sp 8 +
STACK CFI a5b8 .ra: .cfa -4 + ^ r4: .cfa -8 + ^
STACK CFI INIT d63c 84 .cfa: sp 0 + .ra: lr
STACK CFI d644 .cfa: sp 16 +
STACK CFI d648 .cfa: sp 24 +
STACK CFI d650 .ra: .cfa -4 + ^ r4: .cfa -16 + ^ r5: .cfa -12 + ^ r6: .cfa -8 + ^
STACK CFI INIT d6c0 88 .cfa: sp 0 + .ra: lr
STACK CFI d6c8 .cfa: sp 16 +
STACK CFI d6cc .cfa: sp 24 +
STACK CFI d6d4 .ra: .cfa -4 + ^ r4: .cfa -16 + ^ r5: .cfa -12 + ^ r6: .cfa -8 + ^
STACK CFI INIT d748 74 .cfa: sp 0 + .ra: lr
STACK CFI d750 .cfa: sp 16 +
STACK CFI d754 .ra: .cfa -4 + ^ r4: .cfa -16 + ^ r5: .cfa -12 + ^ r6: .cfa -8 + ^
STACK CFI INIT d7bc 74 .cfa: sp 0 + .ra: lr
STACK CFI d7c4 .cfa: sp 16 +
STACK CFI d7c8 .ra: .cfa -4 + ^ r4: .cfa -16 + ^ r5: .cfa -12 + ^ r6: .cfa -8 + ^
STACK CFI INIT d830 98 .cfa: sp 0 + .ra: lr
STACK CFI d834 .cfa: sp 16 +
STACK CFI d838 .ra: .cfa -4 + ^ r4: .cfa -16 + ^ r5: .cfa -12 + ^ r6: .cfa -8 + ^
STACK CFI d83c .cfa: sp 32 +
STACK CFI INIT d8c8 ac .cfa: sp 0 + .ra: lr
STACK CFI d8d0 .cfa: sp 16 +
STACK CFI d8d4 .cfa: sp 24 +
STACK CFI d8d8 .ra: .cfa -4 + ^ r4: .cfa -16 + ^ r5: .cfa -12 + ^ r6: .cfa -8 + ^
STACK CFI INIT d974 48 .cfa: sp 0 + .ra: lr
STACK CFI d978 .cfa: sp 16 +
STACK CFI d97c .ra: .cfa -4 + ^ r4: .cfa -16 + ^ r5: .cfa -12 + ^ r6: .cfa -8 + ^
STACK CFI INIT d9bc 84 .cfa: sp 0 + .ra: lr
STACK CFI d9c4 .cfa: sp 16 +
STACK CFI d9c8 .cfa: sp 24 +
STACK CFI d9d0 .ra: .cfa -4 + ^ r4: .cfa -16 + ^ r5: .cfa -12 + ^ r6: .cfa -8 + ^
STACK CFI INIT da40 88 .cfa: sp 0 + .ra: lr
STACK CFI da48 .cfa: sp 16 +
STACK CFI da4c .ra: .cfa -4 + ^ r4: .cfa -16 + ^ r5: .cfa -12 + ^ r6: .cfa -8 + ^
STACK CFI INIT dac8 74 .cfa: sp 0 + .ra: lr
STACK CFI dad0 .cfa: sp 16 +
STACK CFI dad4 .ra: .cfa -4 + ^ r4: .cfa -16 + ^ r5: .cfa -12 + ^ r6: .cfa -8 + ^
STACK CFI INIT db3c 74 .cfa: sp 0 + .ra: lr
STACK CFI db44 .cfa: sp 16 +
STACK CFI db48 .ra: .cfa -4 + ^ r4: .cfa -16 + ^ r5: .cfa -12 + ^ r6: .cfa -8 + ^
STACK CFI INIT dbb0 74 .cfa: sp 0 + .ra: lr
STACK CFI dbb8 .cfa: sp 16 +
STACK CFI dbbc .ra: .cfa -4 + ^ r4: .cfa -16 + ^ r5: .cfa -12 + ^ r6: .cfa -8 + ^
STACK CFI INIT dc24 74 .cfa: sp 0 + .ra: lr
STACK CFI dc2c .cfa: sp 16 +
STACK CFI dc30 .ra: .cfa -4 + ^ r4: .cfa -16 + ^ r5: .cfa -12 + ^ r6: .cfa -8 + ^
STACK CFI INIT dc98 74 .cfa: sp 0 + .ra: lr
STACK CFI dca0 .cfa: sp 16 +
STACK CFI dca4 .ra: .cfa -4 + ^ r4: .cfa -16 + ^ r5: .cfa -12 + ^ r6: .cfa -8 + ^
STACK CFI INIT dd0c 74 .cfa: sp 0 + .ra: lr
STACK CFI dd14 .cfa: sp 16 +
STACK CFI dd18 .ra: .cfa -4 + ^ r4: .cfa -16 + ^ r5: .cfa -12 + ^ r6: .cfa -8 + ^
STACK CFI INIT dd80 74 .cfa: sp 0 + .ra: lr
STACK CFI dd88 .cfa: sp 16 +
STACK CFI dd8c .ra: .cfa -4 + ^ r4: .cfa -16 + ^ r5: .cfa -12 + ^ r6: .cfa -8 + ^
STACK CFI INIT ddf4 74 .cfa: sp 0 + .ra: lr
STACK CFI ddfc .cfa: sp 16 +
STACK CFI de00 .ra: .cfa -4 + ^ r4: .cfa -16 + ^ r5: .cfa -12 + ^ r6: .cfa -8 + ^
STACK CFI INIT de68 74 .cfa: sp 0 + .ra: lr
STACK CFI de70 .cfa: sp 16 +
STACK CFI de74 .ra: .cfa -4 + ^ r4: .cfa -16 + ^ r5: .cfa -12 + ^ r6: .cfa -8 + ^
STACK CFI INIT dedc 74 .cfa: sp 0 + .ra: lr
STACK CFI dee4 .cfa: sp 16 +
STACK CFI dee8 .ra: .cfa -4 + ^ r4: .cfa -16 + ^ r5: .cfa -12 + ^ r6: .cfa -8 + ^
STACK CFI INIT df50 74 .cfa: sp 0 + .ra: lr
STACK CFI df58 .cfa: sp 16 +
STACK CFI df5c .ra: .cfa -4 + ^ r4: .cfa -16 + ^ r5: .cfa -12 + ^ r6: .cfa -8 + ^
STACK CFI INIT dfc4 74 .cfa: sp 0 + .ra: lr
STACK CFI dfcc .cfa: sp 16 +
STACK CFI dfd0 .ra: .cfa -4 + ^ r4: .cfa -16 + ^ r5: .cfa -12 + ^ r6: .cfa -8 + ^
STACK CFI INIT e038 74 .cfa: sp 0 + .ra: lr
STACK CFI e040 .cfa: sp 16 +
STACK CFI e044 .ra: .cfa -4 + ^ r4: .cfa -16 + ^ r5: .cfa -12 + ^ r6: .cfa -8 + ^
STACK CFI INIT e0ac 74 .cfa: sp 0 + .ra: lr
STACK CFI e0b4 .cfa: sp 16 +
STACK CFI e0b8 .ra: .cfa -4 + ^ r4: .cfa -16 + ^ r5: .cfa -12 + ^ r6: .cfa -8 + ^
STACK CFI INIT e120 74 .cfa: sp 0 + .ra: lr
STACK CFI e128 .cfa: sp 16 +
STACK CFI e12c .ra: .cfa -4 + ^ r4: .cfa -16 + ^ r5: .cfa -12 + ^ r6: .cfa -8 + ^
STACK CFI INIT e194 74 .cfa: sp 0 + .ra: lr
STACK CFI e19c .cfa: sp 16 +
STACK CFI e1a0 .ra: .cfa -4 + ^ r4: .cfa -16 + ^ r5: .cfa -12 + ^ r6: .cfa -8 + ^
STACK CFI INIT e208 48 .cfa: sp 0 + .ra: lr
STACK CFI e20c .cfa: sp 16 +
STACK CFI e210 .ra: .cfa -4 + ^ r4: .cfa -16 + ^ r5: .cfa -12 + ^ r6: .cfa -8 + ^
STACK CFI INIT 9afc 44 .cfa: sp 0 + .ra: lr
STACK CFI 9b04 .cfa: sp 8 +
STACK CFI 9b08 .ra: .cfa -4 + ^ r4: .cfa -8 + ^
STACK CFI INIT 9cd8 44 .cfa: sp 0 + .ra: lr
STACK CFI 9ce0 .cfa: sp 8 +
STACK CFI 9ce4 .ra: .cfa -4 + ^ r4: .cfa -8 + ^
STACK CFI INIT 9ab8 44 .cfa: sp 0 + .ra: lr
STACK CFI 9ac0 .cfa: sp 8 +
STACK CFI 9ac4 .ra: .cfa -4 + ^ r4: .cfa -8 + ^
STACK CFI INIT 9de8 44 .cfa: sp 0 + .ra: lr
STACK CFI 9df0 .cfa: sp 8 +
STACK CFI 9df4 .ra: .cfa -4 + ^ r4: .cfa -8 + ^
STACK CFI INIT 9e2c 44 .cfa: sp 0 + .ra: lr
STACK CFI 9e34 .cfa: sp 8 +
STACK CFI 9e38 .ra: .cfa -4 + ^ r4: .cfa -8 + ^
STACK CFI INIT 9ef8 44 .cfa: sp 0 + .ra: lr
STACK CFI 9f00 .cfa: sp 8 +
STACK CFI 9f04 .ra: .cfa -4 + ^ r4: .cfa -8 + ^
STACK CFI INIT a008 4c .cfa: sp 0 + .ra: lr
STACK CFI a010 .cfa: sp 8 +
STACK CFI a014 .ra: .cfa -4 + ^ r4: .cfa -8 + ^
STACK CFI INIT a054 4c .cfa: sp 0 + .ra: lr
STACK CFI a05c .cfa: sp 8 +
STACK CFI a060 .ra: .cfa -4 + ^ r4: .cfa -8 + ^
STACK CFI INIT a138 4c .cfa: sp 0 + .ra: lr
STACK CFI a140 .cfa: sp 8 +
STACK CFI a144 .ra: .cfa -4 + ^ r4: .cfa -8 + ^
STACK CFI INIT a184 4c .cfa: sp 0 + .ra: lr
STACK CFI a18c .cfa: sp 8 +
STACK CFI a190 .ra: .cfa -4 + ^ r4: .cfa -8 + ^
STACK CFI INIT a560 4c .cfa: sp 0 + .ra: lr
STACK CFI a568 .cfa: sp 8 +
STACK CFI a56c .ra: .cfa -4 + ^ r4: .cfa -8 + ^
STACK CFI INIT a5ac 4c .cfa: sp 0 + .ra: lr
STACK CFI a5b4 .cfa: sp 8 +
STACK CFI a5b8 .ra: .cfa -4 + ^ r4: .cfa -8 + ^
STACK CFI INIT e250 84 .cfa: sp 0 + .ra: lr
STACK CFI e258 .cfa: sp 16 +
STACK CFI e25c .cfa: sp 24 +
STACK CFI e264 .ra: .cfa -4 + ^ r4: .cfa -16 + ^ r5: .cfa -12 + ^ r6: .cfa -8 + ^
STACK CFI INIT e2d4 74 .cfa: sp 0 + .ra: lr
STACK CFI e2dc .cfa: sp 16 +
STACK CFI e2e0 .ra: .cfa -4 + ^ r4: .cfa -16 + ^ r5: .cfa -12 + ^ r6: .cfa -8 + ^
STACK CFI INIT e348 74 .cfa: sp 0 + .ra: lr
STACK CFI e350 .cfa: sp 16 +
STACK CFI e354 .ra: .cfa -4 + ^ r4: .cfa -16 + ^ r5: .cfa -12 + ^ r6: .cfa -8 + ^
STACK CFI INIT e3bc 74 .cfa: sp 0 + .ra: lr
STACK CFI e3c4 .cfa: sp 16 +
STACK CFI e3c8 .ra: .cfa -4 + ^ r4: .cfa -16 + ^ r5: .cfa -12 + ^ r6: .cfa -8 + ^
STACK CFI INIT e430 88 .cfa: sp 0 + .ra: lr
STACK CFI e438 .cfa: sp 16 +
STACK CFI e43c .cfa: sp 24 +
STACK CFI e444 .ra: .cfa -4 + ^ r4: .cfa -16 + ^ r5: .cfa -12 + ^ r6: .cfa -8 + ^
STACK CFI INIT e4b8 90 .cfa: sp 0 + .ra: lr
STACK CFI e4c0 .cfa: sp 16 +
STACK CFI e4c8 .cfa: sp 24 +
STACK CFI e4d4 .ra: .cfa -4 + ^ r4: .cfa -16 + ^ r5: .cfa -12 + ^ r6: .cfa -8 + ^
STACK CFI INIT e548 ac .cfa: sp 0 + .ra: lr
STACK CFI e550 .cfa: sp 16 +
STACK CFI e554 .cfa: sp 24 +
STACK CFI e558 .ra: .cfa -4 + ^ r4: .cfa -16 + ^ r5: .cfa -12 + ^ r6: .cfa -8 + ^
STACK CFI INIT e5f4 78 .cfa: sp 0 + .ra: lr
STACK CFI e5fc .cfa: sp 16 +
STACK CFI e604 .ra: .cfa -4 + ^ r4: .cfa -16 + ^ r5: .cfa -12 + ^ r6: .cfa -8 + ^
STACK CFI INIT e66c 8c .cfa: sp 0 + .ra: lr
STACK CFI e670 .cfa: sp 16 +
STACK CFI e674 .ra: .cfa -4 + ^ r4: .cfa -16 + ^ r5: .cfa -12 + ^ r6: .cfa -8 + ^
STACK CFI e678 .cfa: sp 24 +
STACK CFI INIT e6f8 74 .cfa: sp 0 + .ra: lr
STACK CFI e700 .cfa: sp 16 +
STACK CFI e704 .ra: .cfa -4 + ^ r4: .cfa -16 + ^ r5: .cfa -12 + ^ r6: .cfa -8 + ^
STACK CFI INIT e76c 74 .cfa: sp 0 + .ra: lr
STACK CFI e774 .cfa: sp 16 +
STACK CFI e778 .ra: .cfa -4 + ^ r4: .cfa -16 + ^ r5: .cfa -12 + ^ r6: .cfa -8 + ^
STACK CFI INIT e7e0 74 .cfa: sp 0 + .ra: lr
STACK CFI e7e8 .cfa: sp 16 +
STACK CFI e7ec .ra: .cfa -4 + ^ r4: .cfa -16 + ^ r5: .cfa -12 + ^ r6: .cfa -8 + ^
STACK CFI INIT e854 74 .cfa: sp 0 + .ra: lr
STACK CFI e85c .cfa: sp 16 +
STACK CFI e860 .ra: .cfa -4 + ^ r4: .cfa -16 + ^ r5: .cfa -12 + ^ r6: .cfa -8 + ^
STACK CFI INIT e8c8 8c .cfa: sp 0 + .ra: lr
STACK CFI e8cc .cfa: sp 16 +
STACK CFI e8d0 .ra: .cfa -4 + ^ r4: .cfa -16 + ^ r5: .cfa -12 + ^ r6: .cfa -8 + ^
STACK CFI e8d4 .cfa: sp 24 +
STACK CFI INIT e954 9c .cfa: sp 0 + .ra: lr
STACK CFI e958 .cfa: sp 16 +
STACK CFI e95c .ra: .cfa -4 + ^ r4: .cfa -16 + ^ r5: .cfa -12 + ^ r6: .cfa -8 + ^
STACK CFI e96c .cfa: sp 24 +
STACK CFI INIT e9f0 74 .cfa: sp 0 + .ra: lr
STACK CFI e9f8 .cfa: sp 16 +
STACK CFI e9fc .ra: .cfa -4 + ^ r4: .cfa -16 + ^ r5: .cfa -12 + ^ r6: .cfa -8 + ^
STACK CFI INIT ea64 ac .cfa: sp 0 + .ra: lr
STACK CFI ea68 .cfa: sp 16 +
STACK CFI ea70 .ra: .cfa -4 + ^ r4: .cfa -16 + ^ r5: .cfa -12 + ^ r6: .cfa -8 + ^
STACK CFI ea80 .cfa: sp 32 +
STACK CFI INIT eb10 8c .cfa: sp 0 + .ra: lr
STACK CFI eb14 .cfa: sp 16 +
STACK CFI eb18 .ra: .cfa -4 + ^ r4: .cfa -16 + ^ r5: .cfa -12 + ^ r6: .cfa -8 + ^
STACK CFI eb1c .cfa: sp 24 +
STACK CFI INIT eb9c 9c .cfa: sp 0 + .ra: lr
STACK CFI eba0 .cfa: sp 16 +
STACK CFI eba4 .ra: .cfa -4 + ^ r4: .cfa -16 + ^ r5: .cfa -12 + ^ r6: .cfa -8 + ^
STACK CFI ebb4 .cfa: sp 24 +
STACK CFI INIT ec38 74 .cfa: sp 0 + .ra: lr
STACK CFI ec40 .cfa: sp 16 +
STACK CFI ec44 .ra: .cfa -4 + ^ r4: .cfa -16 + ^ r5: .cfa -12 + ^ r6: .cfa -8 + ^
STACK CFI INIT ecac 74 .cfa: sp 0 + .ra: lr
STACK CFI ecb4 .cfa: sp 16 +
STACK CFI ecb8 .ra: .cfa -4 + ^ r4: .cfa -16 + ^ r5: .cfa -12 + ^ r6: .cfa -8 + ^
STACK CFI INIT ed20 74 .cfa: sp 0 + .ra: lr
STACK CFI ed28 .cfa: sp 16 +
STACK CFI ed2c .ra: .cfa -4 + ^ r4: .cfa -16 + ^ r5: .cfa -12 + ^ r6: .cfa -8 + ^
STACK CFI INIT ed94 74 .cfa: sp 0 + .ra: lr
STACK CFI ed9c .cfa: sp 16 +
STACK CFI eda0 .ra: .cfa -4 + ^ r4: .cfa -16 + ^ r5: .cfa -12 + ^ r6: .cfa -8 + ^
STACK CFI INIT ee08 74 .cfa: sp 0 + .ra: lr
STACK CFI ee10 .cfa: sp 16 +
STACK CFI ee14 .ra: .cfa -4 + ^ r4: .cfa -16 + ^ r5: .cfa -12 + ^ r6: .cfa -8 + ^
STACK CFI INIT ee7c 74 .cfa: sp 0 + .ra: lr
STACK CFI ee84 .cfa: sp 16 +
STACK CFI ee88 .ra: .cfa -4 + ^ r4: .cfa -16 + ^ r5: .cfa -12 + ^ r6: .cfa -8 + ^
STACK CFI INIT eef0 74 .cfa: sp 0 + .ra: lr
STACK CFI eef8 .cfa: sp 16 +
STACK CFI eefc .ra: .cfa -4 + ^ r4: .cfa -16 + ^ r5: .cfa -12 + ^ r6: .cfa -8 + ^
STACK CFI INIT ef64 74 .cfa: sp 0 + .ra: lr
STACK CFI ef6c .cfa: sp 16 +
STACK CFI ef70 .ra: .cfa -4 + ^ r4: .cfa -16 + ^ r5: .cfa -12 + ^ r6: .cfa -8 + ^
STACK CFI INIT efd8 74 .cfa: sp 0 + .ra: lr
STACK CFI efe0 .cfa: sp 16 +
STACK CFI efe4 .ra: .cfa -4 + ^ r4: .cfa -16 + ^ r5: .cfa -12 + ^ r6: .cfa -8 + ^
STACK CFI INIT f04c 90 .cfa: sp 0 + .ra: lr
STACK CFI f050 .cfa: sp 16 +
STACK CFI f054 .ra: .cfa -4 + ^ r4: .cfa -16 + ^ r5: .cfa -12 + ^ r6: .cfa -8 + ^
STACK CFI f058 .cfa: sp 24 +
STACK CFI INIT f0dc 90 .cfa: sp 0 + .ra: lr
STACK CFI f0e0 .cfa: sp 16 +
STACK CFI f0e4 .ra: .cfa -4 + ^ r4: .cfa -16 + ^ r5: .cfa -12 + ^ r6: .cfa -8 + ^
STACK CFI f0e8 .cfa: sp 24 +
STACK CFI INIT f16c 90 .cfa: sp 0 + .ra: lr
STACK CFI f170 .cfa: sp 16 +
STACK CFI f174 .ra: .cfa -4 + ^ r4: .cfa -16 + ^ r5: .cfa -12 + ^ r6: .cfa -8 + ^
STACK CFI f178 .cfa: sp 24 +
STACK CFI INIT f1fc 78 .cfa: sp 0 + .ra: lr
STACK CFI f204 .cfa: sp 16 +
STACK CFI f20c .ra: .cfa -4 + ^ r4: .cfa -16 + ^ r5: .cfa -12 + ^ r6: .cfa -8 + ^
STACK CFI INIT f274 98 .cfa: sp 0 + .ra: lr
STACK CFI f278 .cfa: sp 16 +
STACK CFI f27c .ra: .cfa -4 + ^ r4: .cfa -16 + ^ r5: .cfa -12 + ^ r6: .cfa -8 + ^
STACK CFI f280 .cfa: sp 24 +
STACK CFI INIT f30c 74 .cfa: sp 0 + .ra: lr
STACK CFI f314 .cfa: sp 16 +
STACK CFI f318 .ra: .cfa -4 + ^ r4: .cfa -16 + ^ r5: .cfa -12 + ^ r6: .cfa -8 + ^
STACK CFI INIT f380 8c .cfa: sp 0 + .ra: lr
STACK CFI f384 .cfa: sp 16 +
STACK CFI f388 .ra: .cfa -4 + ^ r4: .cfa -16 + ^ r5: .cfa -12 + ^ r6: .cfa -8 + ^
STACK CFI f38c .cfa: sp 24 +
STACK CFI INIT f40c 98 .cfa: sp 0 + .ra: lr
STACK CFI f410 .cfa: sp 16 +
STACK CFI f414 .ra: .cfa -4 + ^ r4: .cfa -16 + ^ r5: .cfa -12 + ^ r6: .cfa -8 + ^
STACK CFI f420 .cfa: sp 24 +
STACK CFI INIT f4a4 ac .cfa: sp 0 + .ra: lr
STACK CFI f4a8 .cfa: sp 16 +
STACK CFI f4b0 .ra: .cfa -4 + ^ r4: .cfa -16 + ^ r5: .cfa -12 + ^ r6: .cfa -8 + ^
STACK CFI f4cc .cfa: sp 24 +
STACK CFI INIT f550 8c .cfa: sp 0 + .ra: lr
STACK CFI f554 .cfa: sp 16 +
STACK CFI f558 .ra: .cfa -4 + ^ r4: .cfa -16 + ^ r5: .cfa -12 + ^ r6: .cfa -8 + ^
STACK CFI f55c .cfa: sp 24 +
STACK CFI INIT f5dc 8c .cfa: sp 0 + .ra: lr
STACK CFI f5e0 .cfa: sp 16 +
STACK CFI f5e4 .ra: .cfa -4 + ^ r4: .cfa -16 + ^ r5: .cfa -12 + ^ r6: .cfa -8 + ^
STACK CFI f5e8 .cfa: sp 24 +
STACK CFI INIT f668 74 .cfa: sp 0 + .ra: lr
STACK CFI f670 .cfa: sp 16 +
STACK CFI f674 .ra: .cfa -4 + ^ r4: .cfa -16 + ^ r5: .cfa -12 + ^ r6: .cfa -8 + ^
STACK CFI INIT f6dc 74 .cfa: sp 0 + .ra: lr
STACK CFI f6e4 .cfa: sp 16 +
STACK CFI f6e8 .ra: .cfa -4 + ^ r4: .cfa -16 + ^ r5: .cfa -12 + ^ r6: .cfa -8 + ^
STACK CFI INIT f750 98 .cfa: sp 0 + .ra: lr
STACK CFI f754 .cfa: sp 16 +
STACK CFI f758 .ra: .cfa -4 + ^ r4: .cfa -16 + ^ r5: .cfa -12 + ^ r6: .cfa -8 + ^
STACK CFI f75c .cfa: sp 32 +
STACK CFI INIT f7e8 74 .cfa: sp 0 + .ra: lr
STACK CFI f7f0 .cfa: sp 16 +
STACK CFI f7f4 .ra: .cfa -4 + ^ r4: .cfa -16 + ^ r5: .cfa -12 + ^ r6: .cfa -8 + ^
STACK CFI INIT f85c 78 .cfa: sp 0 + .ra: lr
STACK CFI f864 .cfa: sp 16 +
STACK CFI f86c .ra: .cfa -4 + ^ r4: .cfa -16 + ^ r5: .cfa -12 + ^ r6: .cfa -8 + ^
STACK CFI INIT f8d4 ac .cfa: sp 0 + .ra: lr
STACK CFI f8dc .cfa: sp 16 +
STACK CFI f8e0 .cfa: sp 24 +
STACK CFI f8e4 .ra: .cfa -4 + ^ r4: .cfa -16 + ^ r5: .cfa -12 + ^ r6: .cfa -8 + ^
STACK CFI INIT f980 94 .cfa: sp 0 + .ra: lr
STACK CFI f984 .cfa: sp 16 +
STACK CFI f988 .ra: .cfa -4 + ^ r4: .cfa -16 + ^ r5: .cfa -12 + ^ r6: .cfa -8 + ^
STACK CFI f98c .cfa: sp 24 +
STACK CFI INIT fa14 8c .cfa: sp 0 + .ra: lr
STACK CFI fa18 .cfa: sp 16 +
STACK CFI fa1c .ra: .cfa -4 + ^ r4: .cfa -16 + ^ r5: .cfa -12 + ^ r6: .cfa -8 + ^
STACK CFI fa20 .cfa: sp 24 +
STACK CFI INIT faa0 74 .cfa: sp 0 + .ra: lr
STACK CFI faa8 .cfa: sp 16 +
STACK CFI faac .ra: .cfa -4 + ^ r4: .cfa -16 + ^ r5: .cfa -12 + ^ r6: .cfa -8 + ^
STACK CFI INIT fb14 b0 .cfa: sp 0 + .ra: lr
STACK CFI fb1c .cfa: sp 16 +
STACK CFI fb20 .cfa: sp 24 +
STACK CFI fb28 .ra: .cfa -4 + ^ r4: .cfa -16 + ^ r5: .cfa -12 + ^ r6: .cfa -8 + ^
STACK CFI INIT fbc4 20 .cfa: sp 0 + .ra: lr
STACK CFI fbc8 .cfa: sp 4 +
STACK CFI fbcc .cfa: sp 16 +
STACK CFI fbd4 .ra: .cfa -4 + ^
STACK CFI INIT fbe4 20 .cfa: sp 0 + .ra: lr
STACK CFI fbe8 .cfa: sp 4 +
STACK CFI fbec .cfa: sp 16 +
STACK CFI fbf4 .ra: .cfa -4 + ^
STACK CFI INIT fc04 9c .cfa: sp 0 + .ra: lr
STACK CFI fc08 .cfa: sp 16 +
STACK CFI fc0c .ra: .cfa -4 + ^ r4: .cfa -16 + ^ r5: .cfa -12 + ^ r6: .cfa -8 + ^
STACK CFI fc1c .cfa: sp 24 +
STACK CFI INIT fca0 9c .cfa: sp 0 + .ra: lr
STACK CFI fca4 .cfa: sp 16 +
STACK CFI fca8 .ra: .cfa -4 + ^ r4: .cfa -16 + ^ r5: .cfa -12 + ^ r6: .cfa -8 + ^
STACK CFI fcb8 .cfa: sp 24 +
STACK CFI INIT fd3c 98 .cfa: sp 0 + .ra: lr
STACK CFI fd40 .cfa: sp 16 +
STACK CFI fd44 .ra: .cfa -4 + ^ r4: .cfa -16 + ^ r5: .cfa -12 + ^ r6: .cfa -8 + ^
STACK CFI fd50 .cfa: sp 24 +
STACK CFI INIT fdd4 98 .cfa: sp 0 + .ra: lr
STACK CFI fdd8 .cfa: sp 16 +
STACK CFI fddc .ra: .cfa -4 + ^ r4: .cfa -16 + ^ r5: .cfa -12 + ^ r6: .cfa -8 + ^
STACK CFI fde8 .cfa: sp 24 +
STACK CFI INIT fe6c 98 .cfa: sp 0 + .ra: lr
STACK CFI fe70 .cfa: sp 16 +
STACK CFI fe74 .ra: .cfa -4 + ^ r4: .cfa -16 + ^ r5: .cfa -12 + ^ r6: .cfa -8 + ^
STACK CFI fe80 .cfa: sp 24 +
STACK CFI INIT ff04 c8 .cfa: sp 0 + .ra: lr
STACK CFI ff08 .cfa: sp 16 +
STACK CFI ff10 .cfa: sp 40 +
STACK CFI ff18 .ra: .cfa -4 + ^ r4: .cfa -16 + ^ r5: .cfa -12 + ^ r6: .cfa -8 + ^
STACK CFI INIT ffcc 74 .cfa: sp 0 + .ra: lr
STACK CFI ffd4 .cfa: sp 16 +
STACK CFI ffd8 .ra: .cfa -4 + ^ r4: .cfa -16 + ^ r5: .cfa -12 + ^ r6: .cfa -8 + ^
STACK CFI INIT 10040 74 .cfa: sp 0 + .ra: lr
STACK CFI 10048 .cfa: sp 16 +
STACK CFI 1004c .ra: .cfa -4 + ^ r4: .cfa -16 + ^ r5: .cfa -12 + ^ r6: .cfa -8 + ^
STACK CFI INIT 100b4 88 .cfa: sp 0 + .ra: lr
STACK CFI 100bc .cfa: sp 16 +
STACK CFI 100c0 .cfa: sp 24 +
STACK CFI 100c8 .ra: .cfa -4 + ^ r4: .cfa -16 + ^ r5: .cfa -12 + ^ r6: .cfa -8 + ^
STACK CFI INIT 1013c 88 .cfa: sp 0 + .ra: lr
STACK CFI 10144 .cfa: sp 16 +
STACK CFI 10148 .cfa: sp 24 +
STACK CFI 10150 .ra: .cfa -4 + ^ r4: .cfa -16 + ^ r5: .cfa -12 + ^ r6: .cfa -8 + ^
STACK CFI INIT 101c4 74 .cfa: sp 0 + .ra: lr
STACK CFI 101cc .cfa: sp 16 +
STACK CFI 101d0 .ra: .cfa -4 + ^ r4: .cfa -16 + ^ r5: .cfa -12 + ^ r6: .cfa -8 + ^
STACK CFI INIT 10238 74 .cfa: sp 0 + .ra: lr
STACK CFI 10240 .cfa: sp 16 +
STACK CFI 10244 .ra: .cfa -4 + ^ r4: .cfa -16 + ^ r5: .cfa -12 + ^ r6: .cfa -8 + ^
STACK CFI INIT 102ac 88 .cfa: sp 0 + .ra: lr
STACK CFI 102b4 .cfa: sp 16 +
STACK CFI 102b8 .cfa: sp 24 +
STACK CFI 102c0 .ra: .cfa -4 + ^ r4: .cfa -16 + ^ r5: .cfa -12 + ^ r6: .cfa -8 + ^
STACK CFI INIT 10334 74 .cfa: sp 0 + .ra: lr
STACK CFI 1033c .cfa: sp 16 +
STACK CFI 10340 .ra: .cfa -4 + ^ r4: .cfa -16 + ^ r5: .cfa -12 + ^ r6: .cfa -8 + ^
STACK CFI INIT 103a8 74 .cfa: sp 0 + .ra: lr
STACK CFI 103b0 .cfa: sp 16 +
STACK CFI 103b4 .ra: .cfa -4 + ^ r4: .cfa -16 + ^ r5: .cfa -12 + ^ r6: .cfa -8 + ^
STACK CFI INIT 1041c d0 .cfa: sp 0 + .ra: lr
STACK CFI 10420 .cfa: sp 16 +
STACK CFI 10424 .ra: .cfa -4 + ^ r4: .cfa -16 + ^ r5: .cfa -12 + ^ r6: .cfa -8 + ^
STACK CFI 10428 .cfa: sp 40 +
STACK CFI INIT 104ec d0 .cfa: sp 0 + .ra: lr
STACK CFI 104f0 .cfa: sp 16 +
STACK CFI 104f4 .ra: .cfa -4 + ^ r4: .cfa -16 + ^ r5: .cfa -12 + ^ r6: .cfa -8 + ^
STACK CFI 104f8 .cfa: sp 40 +
STACK CFI INIT 105bc 78 .cfa: sp 0 + .ra: lr
STACK CFI 105c4 .cfa: sp 16 +
STACK CFI 105cc .ra: .cfa -4 + ^ r4: .cfa -16 + ^ r5: .cfa -12 + ^ r6: .cfa -8 + ^
STACK CFI INIT 10634 48 .cfa: sp 0 + .ra: lr
STACK CFI 10638 .cfa: sp 16 +
STACK CFI 1063c .ra: .cfa -4 + ^ r4: .cfa -16 + ^ r5: .cfa -12 + ^ r6: .cfa -8 + ^
STACK CFI INIT 1067c 84 .cfa: sp 0 + .ra: lr
STACK CFI 10684 .cfa: sp 16 +
STACK CFI 10688 .cfa: sp 24 +
STACK CFI 10690 .ra: .cfa -4 + ^ r4: .cfa -16 + ^ r5: .cfa -12 + ^ r6: .cfa -8 + ^
STACK CFI INIT 10700 74 .cfa: sp 0 + .ra: lr
STACK CFI 10708 .cfa: sp 16 +
STACK CFI 1070c .ra: .cfa -4 + ^ r4: .cfa -16 + ^ r5: .cfa -12 + ^ r6: .cfa -8 + ^
STACK CFI INIT 10774 74 .cfa: sp 0 + .ra: lr
STACK CFI 1077c .cfa: sp 16 +
STACK CFI 10780 .ra: .cfa -4 + ^ r4: .cfa -16 + ^ r5: .cfa -12 + ^ r6: .cfa -8 + ^
STACK CFI INIT 107e8 90 .cfa: sp 0 + .ra: lr
STACK CFI 107ec .cfa: sp 16 +
STACK CFI 107f0 .ra: .cfa -4 + ^ r4: .cfa -16 + ^ r5: .cfa -12 + ^ r6: .cfa -8 + ^
STACK CFI 107f4 .cfa: sp 24 +
STACK CFI INIT 10878 74 .cfa: sp 0 + .ra: lr
STACK CFI 10880 .cfa: sp 16 +
STACK CFI 10884 .ra: .cfa -4 + ^ r4: .cfa -16 + ^ r5: .cfa -12 + ^ r6: .cfa -8 + ^
STACK CFI INIT 108ec 88 .cfa: sp 0 + .ra: lr
STACK CFI 108f4 .cfa: sp 16 +
STACK CFI 108f8 .cfa: sp 24 +
STACK CFI 10900 .ra: .cfa -4 + ^ r4: .cfa -16 + ^ r5: .cfa -12 + ^ r6: .cfa -8 + ^
STACK CFI INIT 10974 74 .cfa: sp 0 + .ra: lr
STACK CFI 1097c .cfa: sp 16 +
STACK CFI 10980 .ra: .cfa -4 + ^ r4: .cfa -16 + ^ r5: .cfa -12 + ^ r6: .cfa -8 + ^
STACK CFI INIT 109e8 88 .cfa: sp 0 + .ra: lr
STACK CFI 109f0 .cfa: sp 16 +
STACK CFI 109f4 .cfa: sp 24 +
STACK CFI 109fc .ra: .cfa -4 + ^ r4: .cfa -16 + ^ r5: .cfa -12 + ^ r6: .cfa -8 + ^
STACK CFI INIT 10a70 88 .cfa: sp 0 + .ra: lr
STACK CFI 10a78 .cfa: sp 16 +
STACK CFI 10a7c .cfa: sp 24 +
STACK CFI 10a84 .ra: .cfa -4 + ^ r4: .cfa -16 + ^ r5: .cfa -12 + ^ r6: .cfa -8 + ^
STACK CFI INIT 10af8 74 .cfa: sp 0 + .ra: lr
STACK CFI 10b00 .cfa: sp 16 +
STACK CFI 10b04 .ra: .cfa -4 + ^ r4: .cfa -16 + ^ r5: .cfa -12 + ^ r6: .cfa -8 + ^
STACK CFI INIT 10b6c 74 .cfa: sp 0 + .ra: lr
STACK CFI 10b74 .cfa: sp 16 +
STACK CFI 10b78 .ra: .cfa -4 + ^ r4: .cfa -16 + ^ r5: .cfa -12 + ^ r6: .cfa -8 + ^
STACK CFI INIT 10be0 74 .cfa: sp 0 + .ra: lr
STACK CFI 10be8 .cfa: sp 16 +
STACK CFI 10bec .ra: .cfa -4 + ^ r4: .cfa -16 + ^ r5: .cfa -12 + ^ r6: .cfa -8 + ^
STACK CFI INIT 10c54 74 .cfa: sp 0 + .ra: lr
STACK CFI 10c5c .cfa: sp 16 +
STACK CFI 10c60 .ra: .cfa -4 + ^ r4: .cfa -16 + ^ r5: .cfa -12 + ^ r6: .cfa -8 + ^
STACK CFI INIT 10cc8 74 .cfa: sp 0 + .ra: lr
STACK CFI 10cd0 .cfa: sp 16 +
STACK CFI 10cd4 .ra: .cfa -4 + ^ r4: .cfa -16 + ^ r5: .cfa -12 + ^ r6: .cfa -8 + ^
STACK CFI INIT 10d3c 9c .cfa: sp 0 + .ra: lr
STACK CFI 10d40 .cfa: sp 16 +
STACK CFI 10d48 .cfa: sp 24 +
STACK CFI 10d60 .ra: .cfa -4 + ^ r4: .cfa -16 + ^ r5: .cfa -12 + ^ r6: .cfa -8 + ^
STACK CFI INIT 10dd8 74 .cfa: sp 0 + .ra: lr
STACK CFI 10de0 .cfa: sp 16 +
STACK CFI 10de4 .ra: .cfa -4 + ^ r4: .cfa -16 + ^ r5: .cfa -12 + ^ r6: .cfa -8 + ^
STACK CFI INIT 10e4c 94 .cfa: sp 0 + .ra: lr
STACK CFI 10e50 .cfa: sp 16 +
STACK CFI 10e58 .cfa: sp 24 +
STACK CFI 10e68 .ra: .cfa -4 + ^ r4: .cfa -16 + ^ r5: .cfa -12 + ^ r6: .cfa -8 + ^
STACK CFI INIT 10ee0 48 .cfa: sp 0 + .ra: lr
STACK CFI 10ee4 .cfa: sp 16 +
STACK CFI 10ee8 .ra: .cfa -4 + ^ r4: .cfa -16 + ^ r5: .cfa -12 + ^ r6: .cfa -8 + ^
STACK CFI INIT 9c0c 44 .cfa: sp 0 + .ra: lr
STACK CFI 9c14 .cfa: sp 8 +
STACK CFI 9c18 .ra: .cfa -4 + ^ r4: .cfa -8 + ^
STACK CFI INIT 9ab8 44 .cfa: sp 0 + .ra: lr
STACK CFI 9ac0 .cfa: sp 8 +
STACK CFI 9ac4 .ra: .cfa -4 + ^ r4: .cfa -8 + ^
STACK CFI INIT 9de8 44 .cfa: sp 0 + .ra: lr
STACK CFI 9df0 .cfa: sp 8 +
STACK CFI 9df4 .ra: .cfa -4 + ^ r4: .cfa -8 + ^
STACK CFI INIT 9eb4 44 .cfa: sp 0 + .ra: lr
STACK CFI 9ebc .cfa: sp 8 +
STACK CFI 9ec0 .ra: .cfa -4 + ^ r4: .cfa -8 + ^
STACK CFI INIT a008 4c .cfa: sp 0 + .ra: lr
STACK CFI a010 .cfa: sp 8 +
STACK CFI a014 .ra: .cfa -4 + ^ r4: .cfa -8 + ^
STACK CFI INIT a054 4c .cfa: sp 0 + .ra: lr
STACK CFI a05c .cfa: sp 8 +
STACK CFI a060 .ra: .cfa -4 + ^ r4: .cfa -8 + ^
STACK CFI INIT a300 4c .cfa: sp 0 + .ra: lr
STACK CFI a308 .cfa: sp 8 +
STACK CFI a30c .ra: .cfa -4 + ^ r4: .cfa -8 + ^
STACK CFI INIT a34c 4c .cfa: sp 0 + .ra: lr
STACK CFI a354 .cfa: sp 8 +
STACK CFI a358 .ra: .cfa -4 + ^ r4: .cfa -8 + ^
STACK CFI INIT 10f28 84 .cfa: sp 0 + .ra: lr
STACK CFI 10f30 .cfa: sp 16 +
STACK CFI 10f34 .cfa: sp 24 +
STACK CFI 10f3c .ra: .cfa -4 + ^ r4: .cfa -16 + ^ r5: .cfa -12 + ^ r6: .cfa -8 + ^
STACK CFI INIT 10fac 74 .cfa: sp 0 + .ra: lr
STACK CFI 10fb4 .cfa: sp 16 +
STACK CFI 10fb8 .ra: .cfa -4 + ^ r4: .cfa -16 + ^ r5: .cfa -12 + ^ r6: .cfa -8 + ^
STACK CFI INIT 11020 74 .cfa: sp 0 + .ra: lr
STACK CFI 11028 .cfa: sp 16 +
STACK CFI 1102c .ra: .cfa -4 + ^ r4: .cfa -16 + ^ r5: .cfa -12 + ^ r6: .cfa -8 + ^
STACK CFI INIT 11094 ac .cfa: sp 0 + .ra: lr
STACK CFI 1109c .cfa: sp 16 +
STACK CFI 110a0 .cfa: sp 24 +
STACK CFI 110a4 .ra: .cfa -4 + ^ r4: .cfa -16 + ^ r5: .cfa -12 + ^ r6: .cfa -8 + ^
STACK CFI INIT 11140 78 .cfa: sp 0 + .ra: lr
STACK CFI 11148 .cfa: sp 16 +
STACK CFI 11150 .ra: .cfa -4 + ^ r4: .cfa -16 + ^ r5: .cfa -12 + ^ r6: .cfa -8 + ^
STACK CFI INIT 111b8 78 .cfa: sp 0 + .ra: lr
STACK CFI 111c0 .cfa: sp 16 +
STACK CFI 111c8 .ra: .cfa -4 + ^ r4: .cfa -16 + ^ r5: .cfa -12 + ^ r6: .cfa -8 + ^
STACK CFI INIT 11230 74 .cfa: sp 0 + .ra: lr
STACK CFI 11238 .cfa: sp 16 +
STACK CFI 1123c .ra: .cfa -4 + ^ r4: .cfa -16 + ^ r5: .cfa -12 + ^ r6: .cfa -8 + ^
STACK CFI INIT 112a4 74 .cfa: sp 0 + .ra: lr
STACK CFI 112ac .cfa: sp 16 +
STACK CFI 112b0 .ra: .cfa -4 + ^ r4: .cfa -16 + ^ r5: .cfa -12 + ^ r6: .cfa -8 + ^
STACK CFI INIT 11318 ac .cfa: sp 0 + .ra: lr
STACK CFI 11320 .cfa: sp 16 +
STACK CFI 11324 .cfa: sp 24 +
STACK CFI 11328 .ra: .cfa -4 + ^ r4: .cfa -16 + ^ r5: .cfa -12 + ^ r6: .cfa -8 + ^
STACK CFI INIT 113c4 74 .cfa: sp 0 + .ra: lr
STACK CFI 113cc .cfa: sp 16 +
STACK CFI 113d0 .ra: .cfa -4 + ^ r4: .cfa -16 + ^ r5: .cfa -12 + ^ r6: .cfa -8 + ^
STACK CFI INIT 11438 88 .cfa: sp 0 + .ra: lr
STACK CFI 11440 .cfa: sp 16 +
STACK CFI 11444 .cfa: sp 24 +
STACK CFI 1144c .ra: .cfa -4 + ^ r4: .cfa -16 + ^ r5: .cfa -12 + ^ r6: .cfa -8 + ^
STACK CFI INIT 114c0 74 .cfa: sp 0 + .ra: lr
STACK CFI 114c8 .cfa: sp 16 +
STACK CFI 114cc .ra: .cfa -4 + ^ r4: .cfa -16 + ^ r5: .cfa -12 + ^ r6: .cfa -8 + ^
STACK CFI INIT 11534 74 .cfa: sp 0 + .ra: lr
STACK CFI 1153c .cfa: sp 16 +
STACK CFI 11540 .ra: .cfa -4 + ^ r4: .cfa -16 + ^ r5: .cfa -12 + ^ r6: .cfa -8 + ^
STACK CFI INIT 115a8 74 .cfa: sp 0 + .ra: lr
STACK CFI 115b0 .cfa: sp 16 +
STACK CFI 115b4 .ra: .cfa -4 + ^ r4: .cfa -16 + ^ r5: .cfa -12 + ^ r6: .cfa -8 + ^
STACK CFI INIT 1161c 8c .cfa: sp 0 + .ra: lr
STACK CFI 11620 .cfa: sp 16 +
STACK CFI 11624 .ra: .cfa -4 + ^ r4: .cfa -16 + ^ r5: .cfa -12 + ^ r6: .cfa -8 + ^
STACK CFI 11628 .cfa: sp 24 +
STACK CFI INIT 116a8 88 .cfa: sp 0 + .ra: lr
STACK CFI 116b0 .cfa: sp 16 +
STACK CFI 116b4 .cfa: sp 24 +
STACK CFI 116bc .ra: .cfa -4 + ^ r4: .cfa -16 + ^ r5: .cfa -12 + ^ r6: .cfa -8 + ^
STACK CFI INIT 11730 78 .cfa: sp 0 + .ra: lr
STACK CFI 11738 .cfa: sp 16 +
STACK CFI 11740 .ra: .cfa -4 + ^ r4: .cfa -16 + ^ r5: .cfa -12 + ^ r6: .cfa -8 + ^
STACK CFI INIT 117a8 74 .cfa: sp 0 + .ra: lr
STACK CFI 117b0 .cfa: sp 16 +
STACK CFI 117b4 .ra: .cfa -4 + ^ r4: .cfa -16 + ^ r5: .cfa -12 + ^ r6: .cfa -8 + ^
STACK CFI INIT 1181c 74 .cfa: sp 0 + .ra: lr
STACK CFI 11824 .cfa: sp 16 +
STACK CFI 11828 .ra: .cfa -4 + ^ r4: .cfa -16 + ^ r5: .cfa -12 + ^ r6: .cfa -8 + ^
STACK CFI INIT 11890 74 .cfa: sp 0 + .ra: lr
STACK CFI 11898 .cfa: sp 16 +
STACK CFI 1189c .ra: .cfa -4 + ^ r4: .cfa -16 + ^ r5: .cfa -12 + ^ r6: .cfa -8 + ^
STACK CFI INIT 11904 74 .cfa: sp 0 + .ra: lr
STACK CFI 1190c .cfa: sp 16 +
STACK CFI 11910 .ra: .cfa -4 + ^ r4: .cfa -16 + ^ r5: .cfa -12 + ^ r6: .cfa -8 + ^
STACK CFI INIT 11978 74 .cfa: sp 0 + .ra: lr
STACK CFI 11980 .cfa: sp 16 +
STACK CFI 11984 .ra: .cfa -4 + ^ r4: .cfa -16 + ^ r5: .cfa -12 + ^ r6: .cfa -8 + ^
STACK CFI INIT 119ec 74 .cfa: sp 0 + .ra: lr
STACK CFI 119f4 .cfa: sp 16 +
STACK CFI 119f8 .ra: .cfa -4 + ^ r4: .cfa -16 + ^ r5: .cfa -12 + ^ r6: .cfa -8 + ^
STACK CFI INIT 11a60 74 .cfa: sp 0 + .ra: lr
STACK CFI 11a68 .cfa: sp 16 +
STACK CFI 11a6c .ra: .cfa -4 + ^ r4: .cfa -16 + ^ r5: .cfa -12 + ^ r6: .cfa -8 + ^
STACK CFI INIT 11ad4 74 .cfa: sp 0 + .ra: lr
STACK CFI 11adc .cfa: sp 16 +
STACK CFI 11ae0 .ra: .cfa -4 + ^ r4: .cfa -16 + ^ r5: .cfa -12 + ^ r6: .cfa -8 + ^
STACK CFI INIT 11b48 74 .cfa: sp 0 + .ra: lr
STACK CFI 11b50 .cfa: sp 16 +
STACK CFI 11b54 .ra: .cfa -4 + ^ r4: .cfa -16 + ^ r5: .cfa -12 + ^ r6: .cfa -8 + ^
STACK CFI INIT 11bbc 74 .cfa: sp 0 + .ra: lr
STACK CFI 11bc4 .cfa: sp 16 +
STACK CFI 11bc8 .ra: .cfa -4 + ^ r4: .cfa -16 + ^ r5: .cfa -12 + ^ r6: .cfa -8 + ^
STACK CFI INIT 11c30 74 .cfa: sp 0 + .ra: lr
STACK CFI 11c38 .cfa: sp 16 +
STACK CFI 11c3c .ra: .cfa -4 + ^ r4: .cfa -16 + ^ r5: .cfa -12 + ^ r6: .cfa -8 + ^
STACK CFI INIT 11ca4 74 .cfa: sp 0 + .ra: lr
STACK CFI 11cac .cfa: sp 16 +
STACK CFI 11cb0 .ra: .cfa -4 + ^ r4: .cfa -16 + ^ r5: .cfa -12 + ^ r6: .cfa -8 + ^
STACK CFI INIT 11d18 74 .cfa: sp 0 + .ra: lr
STACK CFI 11d20 .cfa: sp 16 +
STACK CFI 11d24 .ra: .cfa -4 + ^ r4: .cfa -16 + ^ r5: .cfa -12 + ^ r6: .cfa -8 + ^
STACK CFI INIT 11d8c 74 .cfa: sp 0 + .ra: lr
STACK CFI 11d94 .cfa: sp 16 +
STACK CFI 11d98 .ra: .cfa -4 + ^ r4: .cfa -16 + ^ r5: .cfa -12 + ^ r6: .cfa -8 + ^
STACK CFI INIT 11e00 74 .cfa: sp 0 + .ra: lr
STACK CFI 11e08 .cfa: sp 16 +
STACK CFI 11e0c .ra: .cfa -4 + ^ r4: .cfa -16 + ^ r5: .cfa -12 + ^ r6: .cfa -8 + ^
STACK CFI INIT 11e74 78 .cfa: sp 0 + .ra: lr
STACK CFI 11e7c .cfa: sp 16 +
STACK CFI 11e84 .ra: .cfa -4 + ^ r4: .cfa -16 + ^ r5: .cfa -12 + ^ r6: .cfa -8 + ^
STACK CFI INIT 11eec 78 .cfa: sp 0 + .ra: lr
STACK CFI 11ef4 .cfa: sp 16 +
STACK CFI 11efc .ra: .cfa -4 + ^ r4: .cfa -16 + ^ r5: .cfa -12 + ^ r6: .cfa -8 + ^
STACK CFI INIT 11f64 74 .cfa: sp 0 + .ra: lr
STACK CFI 11f6c .cfa: sp 16 +
STACK CFI 11f70 .ra: .cfa -4 + ^ r4: .cfa -16 + ^ r5: .cfa -12 + ^ r6: .cfa -8 + ^
STACK CFI INIT 11fd8 74 .cfa: sp 0 + .ra: lr
STACK CFI 11fe0 .cfa: sp 16 +
STACK CFI 11fe4 .ra: .cfa -4 + ^ r4: .cfa -16 + ^ r5: .cfa -12 + ^ r6: .cfa -8 + ^
STACK CFI INIT 1204c 8c .cfa: sp 0 + .ra: lr
STACK CFI 12050 .cfa: sp 16 +
STACK CFI 12054 .ra: .cfa -4 + ^ r4: .cfa -16 + ^ r5: .cfa -12 + ^ r6: .cfa -8 + ^
STACK CFI 12058 .cfa: sp 24 +
STACK CFI INIT 120d8 74 .cfa: sp 0 + .ra: lr
STACK CFI 120e0 .cfa: sp 16 +
STACK CFI 120e4 .ra: .cfa -4 + ^ r4: .cfa -16 + ^ r5: .cfa -12 + ^ r6: .cfa -8 + ^
STACK CFI INIT 1214c 74 .cfa: sp 0 + .ra: lr
STACK CFI 12154 .cfa: sp 16 +
STACK CFI 12158 .ra: .cfa -4 + ^ r4: .cfa -16 + ^ r5: .cfa -12 + ^ r6: .cfa -8 + ^
STACK CFI INIT 121c0 74 .cfa: sp 0 + .ra: lr
STACK CFI 121c8 .cfa: sp 16 +
STACK CFI 121cc .ra: .cfa -4 + ^ r4: .cfa -16 + ^ r5: .cfa -12 + ^ r6: .cfa -8 + ^
STACK CFI INIT 12234 74 .cfa: sp 0 + .ra: lr
STACK CFI 1223c .cfa: sp 16 +
STACK CFI 12240 .ra: .cfa -4 + ^ r4: .cfa -16 + ^ r5: .cfa -12 + ^ r6: .cfa -8 + ^
STACK CFI INIT 122a8 74 .cfa: sp 0 + .ra: lr
STACK CFI 122b0 .cfa: sp 16 +
STACK CFI 122b4 .ra: .cfa -4 + ^ r4: .cfa -16 + ^ r5: .cfa -12 + ^ r6: .cfa -8 + ^
STACK CFI INIT 1231c 88 .cfa: sp 0 + .ra: lr
STACK CFI 12324 .cfa: sp 16 +
STACK CFI 12328 .cfa: sp 24 +
STACK CFI 12330 .ra: .cfa -4 + ^ r4: .cfa -16 + ^ r5: .cfa -12 + ^ r6: .cfa -8 + ^
STACK CFI INIT 123a4 48 .cfa: sp 0 + .ra: lr
STACK CFI 123a8 .cfa: sp 16 +
STACK CFI 123ac .ra: .cfa -4 + ^ r4: .cfa -16 + ^ r5: .cfa -12 + ^ r6: .cfa -8 + ^
