MODULE Linux arm 19C44EF2CBFFEE3236BBF9F8C84B0F650 libicoreresourcemanager_test.so
FUNC 910 10 0 GetType
FUNC 920 10 0 GetImplementation
FUNC 930 40 0 ICoreResourceManager_test_AddRef
FUNC 970 10 0 Probe
FUNC 980 90 0 Construct
FUNC a10 68 0 ICoreResourceManager_test_Release
FUNC a78 38 0 Deallocate
FUNC ab0 68 0 Allocate
FUNC b18 a8 0 ICoreResourceManager_test_CreateClient
FUNC bc0 10 0 ICoreResourceManager_test_ctor
FUNC bd0 10 0 ICoreResourceManager_test_dtor
FUNC be0 40 0 ICoreResourceClient_test_AddRef
FUNC c20 30 0 ICoreResourceClient_test_CheckSurfaceUpdate
FUNC c50 10c 0 ICoreResourceClient_test_CheckSurface
FUNC d5c c4 0 ICoreResourceClient_test_Release
FUNC e20 98 0 ICoreResourceClient_test_AddSurface
FUNC eb8 98 0 ICoreResourceClient_test_RemoveSurface
FUNC f50 ec 0 ICoreResourceClient_test_UpdateSurface
FUNC 103c 13c 0 ICoreResourceClient_test_Construct
STACK CFI INIT 910 10 .cfa: sp 0 + .ra: lr
STACK CFI INIT 920 10 .cfa: sp 0 + .ra: lr
STACK CFI INIT 930 40 .cfa: sp 0 + .ra: lr
STACK CFI INIT 970 10 .cfa: sp 0 + .ra: lr
STACK CFI 974 .cfa: sp 16 +
STACK CFI 978 r0: .cfa -16 + ^ r1: .cfa -12 + ^ r2: .cfa -8 + ^ r3: .cfa -4 + ^
STACK CFI INIT 980 90 .cfa: sp 0 + .ra: lr
STACK CFI 984 .cfa: sp 16 +
STACK CFI 988 .cfa: sp 24 +
STACK CFI 98c .cfa: sp 32 +
STACK CFI 990 .ra: .cfa -20 + ^ r0: .cfa -16 + ^ r1: .cfa -12 + ^ r2: .cfa -8 + ^ r3: .cfa -4 + ^ r4: .cfa -24 + ^
STACK CFI INIT a10 68 .cfa: sp 0 + .ra: lr
STACK CFI a14 .cfa: sp 16 +
STACK CFI a18 .ra: .cfa -4 + ^ r3: .cfa -16 + ^ r4: .cfa -12 + ^ r5: .cfa -8 + ^
STACK CFI INIT a78 38 .cfa: sp 0 + .ra: lr
STACK CFI a7c .cfa: sp 16 +
STACK CFI a80 .ra: .cfa -4 + ^ r3: .cfa -16 + ^ r4: .cfa -12 + ^ r5: .cfa -8 + ^
STACK CFI INIT ab0 68 .cfa: sp 0 + .ra: lr
STACK CFI ab4 .cfa: sp 8 +
STACK CFI abc .ra: .cfa -4 + ^ r4: .cfa -8 + ^
STACK CFI INIT b18 a8 .cfa: sp 0 + .ra: lr
STACK CFI b1c .cfa: sp 24 +
STACK CFI b20 .ra: .cfa -4 + ^ r3: .cfa -24 + ^ r4: .cfa -20 + ^ r5: .cfa -16 + ^ r6: .cfa -12 + ^ r7: .cfa -8 + ^
STACK CFI INIT bc0 10 .cfa: sp 0 + .ra: lr
STACK CFI INIT bd0 10 .cfa: sp 0 + .ra: lr
STACK CFI INIT be0 40 .cfa: sp 0 + .ra: lr
STACK CFI INIT c20 30 .cfa: sp 0 + .ra: lr
STACK CFI INIT c50 10c .cfa: sp 0 + .ra: lr
STACK CFI c5c .cfa: sp 20 +
STACK CFI c64 .cfa: sp 40 +
STACK CFI c68 .ra: .cfa -4 + ^ r4: .cfa -20 + ^ r5: .cfa -16 + ^ r6: .cfa -12 + ^ r7: .cfa -8 + ^
STACK CFI INIT d5c c4 .cfa: sp 0 + .ra: lr
STACK CFI d60 .cfa: sp 16 +
STACK CFI d64 .ra: .cfa -4 + ^ r3: .cfa -16 + ^ r4: .cfa -12 + ^ r5: .cfa -8 + ^
STACK CFI INIT e20 98 .cfa: sp 0 + .ra: lr
STACK CFI e28 .cfa: sp 8 +
STACK CFI e2c r4: .cfa -8 + ^ r5: .cfa -4 + ^
STACK CFI INIT eb8 98 .cfa: sp 0 + .ra: lr
STACK CFI ec0 .cfa: sp 8 +
STACK CFI ec4 r4: .cfa -8 + ^ r5: .cfa -4 + ^
STACK CFI INIT f50 ec .cfa: sp 0 + .ra: lr
STACK CFI f58 .cfa: sp 12 +
STACK CFI f5c r4: .cfa -12 + ^ r5: .cfa -8 + ^ r6: .cfa -4 + ^
STACK CFI INIT 103c 13c .cfa: sp 0 + .ra: lr
STACK CFI 1040 .cfa: sp 24 +
STACK CFI 1044 .cfa: sp 552 +
STACK CFI 1048 .ra: .cfa -4 + ^ r4: .cfa -24 + ^ r5: .cfa -20 + ^ r6: .cfa -16 + ^ r7: .cfa -12 + ^ r8: .cfa -8 + ^
