MODULE Linux arm F5A0E286447944A2E2F2F81DAC16A3130 libidirectfbimageprovider_png.so
FUNC 1074 10 0 GetType
FUNC 1084 10 0 GetImplementation
FUNC 1094 90 0 IDirectFBImageProvider_PNG_GetImageDescription
FUNC 1124 10 0 SortColors
FUNC 1134 2c 0 IDirectFBImageProvider_PNG_Destruct
FUNC 1160 38 0 Deallocate
FUNC 1198 108 0 push_data_until_stage
FUNC 12a0 24c 0 Construct
FUNC 14ec e4 0 IDirectFBImageProvider_PNG_GetSurfaceDescription
FUNC 15d0 930 0 IDirectFBImageProvider_PNG_RenderTo
FUNC 1f00 1c 0 png_end_callback
FUNC 1f1c 380 0 png_row_callback
FUNC 229c 580 0 FindColorKey
FUNC 281c 930 0 png_info_callback
FUNC 314c 28 0 Probe
FUNC 3174 6c 0 Allocate
FUNC 31e0 10 0 IDirectFBImageProvider_PNG_ctor
FUNC 31f0 10 0 IDirectFBImageProvider_PNG_dtor
STACK CFI INIT 1074 10 .cfa: sp 0 + .ra: lr
STACK CFI INIT 1084 10 .cfa: sp 0 + .ra: lr
STACK CFI INIT 1094 90 .cfa: sp 0 + .ra: lr
STACK CFI INIT 1124 10 .cfa: sp 0 + .ra: lr
STACK CFI INIT 1134 2c .cfa: sp 0 + .ra: lr
STACK CFI 1138 .cfa: sp 8 +
STACK CFI 113c .ra: .cfa -4 + ^ r4: .cfa -8 + ^
STACK CFI INIT 1160 38 .cfa: sp 0 + .ra: lr
STACK CFI 1164 .cfa: sp 16 +
STACK CFI 1168 .ra: .cfa -4 + ^ r3: .cfa -16 + ^ r4: .cfa -12 + ^ r5: .cfa -8 + ^
STACK CFI INIT 1198 108 .cfa: sp 0 + .ra: lr
STACK CFI 119c .cfa: sp 36 +
STACK CFI 11a0 .cfa: r11 4 + .ra: .cfa -4 + ^ r10: .cfa -12 + ^ r11: .cfa -8 + ^ r4: .cfa -36 + ^ r5: .cfa -32 + ^ r6: .cfa -28 + ^ r7: .cfa -24 + ^ r8: .cfa -20 + ^ r9: .cfa -16 + ^
STACK CFI INIT 12a0 24c .cfa: sp 0 + .ra: lr
STACK CFI 12a4 .cfa: sp 16 +
STACK CFI 12a8 .cfa: sp 24 +
STACK CFI 12ac .cfa: sp 56 +
STACK CFI 12b0 .ra: .cfa -20 + ^ r0: .cfa -16 + ^ r1: .cfa -12 + ^ r2: .cfa -8 + ^ r3: .cfa -4 + ^ r4: .cfa -24 + ^
STACK CFI INIT 14ec e4 .cfa: sp 0 + .ra: lr
STACK CFI 14f0 .cfa: sp 16 +
STACK CFI 14f4 .ra: .cfa -4 + ^ r4: .cfa -16 + ^ r5: .cfa -12 + ^ r6: .cfa -8 + ^
STACK CFI INIT 15d0 930 .cfa: sp 0 + .ra: lr
STACK CFI 15d4 .cfa: sp 36 +
STACK CFI 15d8 .ra: .cfa -4 + ^ r10: .cfa -12 + ^ r11: .cfa -8 + ^ r4: .cfa -36 + ^ r5: .cfa -32 + ^ r6: .cfa -28 + ^ r7: .cfa -24 + ^ r8: .cfa -20 + ^ r9: .cfa -16 + ^
STACK CFI 15dc .cfa: sp 168 +
STACK CFI INIT 1f00 1c .cfa: sp 0 + .ra: lr
STACK CFI 1f04 .cfa: sp 8 + .ra: .cfa -4 + ^ r3: .cfa -8 + ^
STACK CFI INIT 1f1c 380 .cfa: sp 0 + .ra: lr
STACK CFI 1f20 .cfa: sp 36 +
STACK CFI 1f24 .ra: .cfa -4 + ^ r10: .cfa -12 + ^ r11: .cfa -8 + ^ r4: .cfa -36 + ^ r5: .cfa -32 + ^ r6: .cfa -28 + ^ r7: .cfa -24 + ^ r8: .cfa -20 + ^ r9: .cfa -16 + ^
STACK CFI 1f28 .cfa: sp 120 +
STACK CFI INIT 229c 580 .cfa: sp 0 + .ra: lr
STACK CFI 22a0 .cfa: sp 36 +
STACK CFI 22a4 .ra: .cfa -4 + ^ r10: .cfa -12 + ^ r11: .cfa -8 + ^ r4: .cfa -36 + ^ r5: .cfa -32 + ^ r6: .cfa -28 + ^ r7: .cfa -24 + ^ r8: .cfa -20 + ^ r9: .cfa -16 + ^
STACK CFI 22a8 .cfa: r11 4 +
STACK CFI INIT 281c 930 .cfa: sp 0 + .ra: lr
STACK CFI 2824 .cfa: sp 32 +
STACK CFI 2828 .ra: .cfa -4 + ^ r10: .cfa -8 + ^ r4: .cfa -32 + ^ r5: .cfa -28 + ^ r6: .cfa -24 + ^ r7: .cfa -20 + ^ r8: .cfa -16 + ^ r9: .cfa -12 + ^
STACK CFI 2838 .cfa: sp 936 +
STACK CFI INIT 314c 28 .cfa: sp 0 + .ra: lr
STACK CFI 3150 .cfa: sp 8 +
STACK CFI 3158 .ra: .cfa -4 + ^ r3: .cfa -8 + ^
STACK CFI INIT 3174 6c .cfa: sp 0 + .ra: lr
STACK CFI 3178 .cfa: sp 8 +
STACK CFI 3180 .ra: .cfa -4 + ^ r4: .cfa -8 + ^
STACK CFI INIT 31e0 10 .cfa: sp 0 + .ra: lr
STACK CFI INIT 31f0 10 .cfa: sp 0 + .ra: lr
STACK CFI INIT 3200 220 .cfa: sp 0 + .ra: lr
