MODULE Linux arm 0FE4F1132F0CAC2FA2CB9BB520851C260 libstdc++.so.6.0.14
PUBLIC 442bd 0 _ZNSt9__atomic011atomic_flag12test_and_setESt12memory_order
PUBLIC 442fd 0 _ZNSt9__atomic011atomic_flag5clearESt12memory_order
PUBLIC 44335 0 atomic_flag_test_and_set_explicit
PUBLIC 44369 0 atomic_flag_clear_explicit
PUBLIC 44389 0 __atomic_flag_wait_explicit
PUBLIC 4439d 0 __atomic_flag_for_address
PUBLIC 444c9 0 _ZN9__gnu_cxx9free_list8_M_clearEv
PUBLIC 44f29 0 _ZN9__gnu_cxx9free_list6_M_getEj
PUBLIC 46bf9 0 _ZN9__gnu_cxx17__pool_alloc_base16_M_get_free_listEj
PUBLIC 46c15 0 _ZN9__gnu_cxx17__pool_alloc_base12_M_get_mutexEv
PUBLIC 46d9d 0 _ZN9__gnu_cxx17__pool_alloc_base9_M_refillEj
PUBLIC 474a9 0 _ZN9__gnu_cxx6__poolILb0EE10_M_destroyEv
PUBLIC 47509 0 _ZN9__gnu_cxx6__poolILb0EE16_M_reclaim_blockEPcj
PUBLIC 47529 0 _ZN9__gnu_cxx6__poolILb0EE16_M_reserve_blockEjj
PUBLIC 475e1 0 _ZN9__gnu_cxx6__poolILb0EE13_M_initializeEv
PUBLIC 476a9 0 _ZN9__gnu_cxx6__poolILb1EE10_M_destroyEv
PUBLIC 4775d 0 _ZN9__gnu_cxx6__poolILb1EE16_M_reserve_blockEjj
PUBLIC 47935 0 _ZN9__gnu_cxx6__poolILb1EE13_M_initializeEv
PUBLIC 47d09 0 _ZN9__gnu_cxx6__poolILb1EE16_M_get_thread_idEv
PUBLIC 47ddd 0 _ZN9__gnu_cxx6__poolILb1EE16_M_reclaim_blockEPcj
PUBLIC 47fa1 0 _ZN9__gnu_cxx6__poolILb1EE21_M_destroy_thread_keyEPv
PUBLIC 47fa5 0 _ZN9__gnu_cxx6__poolILb1EE13_M_initializeEPFvPvE
PUBLIC 489e5 0 _ZNKSt7codecvtIcc11__mbstate_tE6do_outERS0_PKcS4_RS4_PcS6_RS6_
PUBLIC 489f5 0 _ZNKSt7codecvtIcc11__mbstate_tE10do_unshiftERS0_PcS3_RS3_
PUBLIC 489fd 0 _ZNKSt7codecvtIcc11__mbstate_tE5do_inERS0_PKcS4_RS4_PcS6_RS6_
PUBLIC 48a0d 0 _ZNKSt7codecvtIcc11__mbstate_tE11do_encodingEv
PUBLIC 48a11 0 _ZNKSt7codecvtIcc11__mbstate_tE16do_always_noconvEv
PUBLIC 48a15 0 _ZNKSt7codecvtIcc11__mbstate_tE9do_lengthERS0_PKcS4_j
PUBLIC 48a25 0 _ZNKSt7codecvtIcc11__mbstate_tE13do_max_lengthEv
PUBLIC 48a29 0 _ZNKSt7codecvtIwc11__mbstate_tE10do_unshiftERS0_PcS3_RS3_
PUBLIC 48a31 0 _ZNKSt7codecvtIwc11__mbstate_tE16do_always_noconvEv
PUBLIC 48a35 0 _ZNSt7codecvtIcc11__mbstate_tED2Ev
PUBLIC 48a85 0 _ZNSt7codecvtIcc11__mbstate_tED0Ev
PUBLIC 48a99 0 _ZNSt7codecvtIwc11__mbstate_tED1Ev
PUBLIC 48ae9 0 _ZNSt7codecvtIwc11__mbstate_tED0Ev
PUBLIC 48afd 0 _ZNSt7codecvtIcc11__mbstate_tEC1Ej
PUBLIC 48b41 0 _ZNSt7codecvtIcc11__mbstate_tEC2EPij
PUBLIC 48b75 0 _ZNSt7codecvtIwc11__mbstate_tEC1Ej
PUBLIC 48bb9 0 _ZNSt7codecvtIwc11__mbstate_tEC1EPij
PUBLIC 48bf1 0 _ZNSt11char_traitsIcE2eqERKcS2_
PUBLIC 48c01 0 _ZNSt11char_traitsIwE2eqERKwS2_
PUBLIC 48c11 0 _ZN10__gnu_norm15_List_node_base4swapERS0_S1_
PUBLIC 48c65 0 _ZN10__gnu_norm15_List_node_base8transferEPS0_S1_
PUBLIC 48c85 0 _ZN10__gnu_norm15_List_node_base7reverseEv
PUBLIC 48c99 0 _ZN10__gnu_norm15_List_node_base4hookEPS0_
PUBLIC 48ca9 0 _ZN10__gnu_norm15_List_node_base6unhookEv
PUBLIC 48cb5 0 acosl
PUBLIC 48cb9 0 asinl
PUBLIC 48cbd 0 atan2l
PUBLIC 48cc1 0 atanl
PUBLIC 48cc5 0 ceill
PUBLIC 48cc9 0 coshl
PUBLIC 48ccd 0 cosl
PUBLIC 48cd1 0 expl
PUBLIC 48cd5 0 floorl
PUBLIC 48cd9 0 fmodl
PUBLIC 48cdd 0 frexpl
PUBLIC 48ce1 0 hypotl
PUBLIC 48ce5 0 ldexpl
PUBLIC 48ce9 0 log10l
PUBLIC 48ced 0 logl
PUBLIC 48cf1 0 modfl
PUBLIC 48cf5 0 powl
PUBLIC 48cf9 0 sinhl
PUBLIC 48cfd 0 sinl
PUBLIC 48d01 0 sqrtl
PUBLIC 48d05 0 tanhl
PUBLIC 48d09 0 tanl
PUBLIC 48d0d 0 _ZNSt19istreambuf_iteratorIcSt11char_traitsIcEEppEv
PUBLIC 48d35 0 _ZNSt19istreambuf_iteratorIwSt11char_traitsIwEEppEv
PUBLIC 48d5d 0 _ZNSs7_M_copyEPcPKcj
PUBLIC 48d75 0 _ZNSs7_M_moveEPcPKcj
PUBLIC 48d8d 0 _ZNSs9_M_assignEPcjc
PUBLIC 48da9 0 _ZNKSs11_M_disjunctEPKc
PUBLIC 48dc5 0 _ZNKSs15_M_check_lengthEjjPKc
PUBLIC 48de5 0 _ZNSs4_Rep26_M_set_length_and_sharableEj
PUBLIC 48e0d 0 _ZNSi6ignoreEv
PUBLIC 48ed5 0 _ZNSi6ignoreEi
PUBLIC 4904d 0 _ZNKSt13basic_fstreamIcSt11char_traitsIcEE7is_openEv
PUBLIC 49055 0 _ZNKSt14basic_ifstreamIcSt11char_traitsIcEE7is_openEv
PUBLIC 4905d 0 _ZNKSt14basic_ofstreamIcSt11char_traitsIcEE7is_openEv
PUBLIC 49065 0 _ZNSbIwSt11char_traitsIwESaIwEE7_M_copyEPwPKwj
PUBLIC 4907d 0 _ZNSbIwSt11char_traitsIwESaIwEE7_M_moveEPwPKwj
PUBLIC 49095 0 _ZNSbIwSt11char_traitsIwESaIwEE9_M_assignEPwjw
PUBLIC 490b1 0 _ZNKSbIwSt11char_traitsIwESaIwEE11_M_disjunctEPKw
PUBLIC 490cd 0 _ZNKSbIwSt11char_traitsIwESaIwEE15_M_check_lengthEjjPKc
PUBLIC 490ed 0 _ZNSbIwSt11char_traitsIwESaIwEE4_Rep26_M_set_length_and_sharableEj
PUBLIC 49115 0 _ZNSt13basic_istreamIwSt11char_traitsIwEE6ignoreEv
PUBLIC 491e1 0 _ZNSt13basic_istreamIwSt11char_traitsIwEE6ignoreEi
PUBLIC 49361 0 _ZNKSt13basic_fstreamIwSt11char_traitsIwEE7is_openEv
PUBLIC 49369 0 _ZNKSt14basic_ifstreamIwSt11char_traitsIwEE7is_openEv
PUBLIC 49371 0 _ZNKSt14basic_ofstreamIwSt11char_traitsIwEE7is_openEv
PUBLIC 49379 0 _ZNKSt10lock_error4whatEv
PUBLIC 493cd 0 _ZNKSt4hashISsEclESs
PUBLIC 49439 0 _ZNKSt4hashIRKSsEclES1_
PUBLIC 494a5 0 _ZNKSt4hashISbIwSt11char_traitsIwESaIwEEEclES3_
PUBLIC 49515 0 _ZNKSt4hashIRKSbIwSt11char_traitsIwESaIwEEEclES5_
PUBLIC 49585 0 _ZNKSt4hashISt10error_codeEclES0_
PUBLIC 49609 0 _ZNSt6__norm15_List_node_base8transferEPS0_S1_
PUBLIC 49629 0 _ZNSt6__norm15_List_node_base7reverseEv
PUBLIC 4963d 0 _ZNSt6__norm15_List_node_base4hookEPS0_
PUBLIC 4964d 0 _ZNSt6__norm15_List_node_base6unhookEv
PUBLIC 49659 0 _ZNSt15_List_node_base8transferEPS_S0_
PUBLIC 49679 0 _ZNSt15_List_node_base7reverseEv
PUBLIC 4968d 0 _ZNSt15_List_node_base4hookEPS_
PUBLIC 4969d 0 _ZNSt15_List_node_base6unhookEv
PUBLIC 496a9 0 _ZStrsIfcSt11char_traitsIcEERSt13basic_istreamIT0_T1_ES6_RSt7complexIT_E
PUBLIC 49739 0 _ZStrsIdcSt11char_traitsIcEERSt13basic_istreamIT0_T1_ES6_RSt7complexIT_E
PUBLIC 497d5 0 _ZStrsIecSt11char_traitsIcEERSt13basic_istreamIT0_T1_ES6_RSt7complexIT_E
PUBLIC 49871 0 _ZStrsIfwSt11char_traitsIwEERSt13basic_istreamIT0_T1_ES6_RSt7complexIT_E
PUBLIC 498f5 0 _ZStrsIdwSt11char_traitsIwEERSt13basic_istreamIT0_T1_ES6_RSt7complexIT_E
PUBLIC 49985 0 _ZStrsIewSt11char_traitsIwEERSt13basic_istreamIT0_T1_ES6_RSt7complexIT_E
PUBLIC 49a15 0 _ZNSt15basic_stringbufIcSt11char_traitsIcESaIcEED1Ev
PUBLIC 49aa5 0 _ZStlsIecSt11char_traitsIcEERSt13basic_ostreamIT0_T1_ES6_RKSt7complexIT_E
PUBLIC 49e5d 0 _ZStlsIdcSt11char_traitsIcEERSt13basic_ostreamIT0_T1_ES6_RKSt7complexIT_E
PUBLIC 4a215 0 _ZStlsIfcSt11char_traitsIcEERSt13basic_ostreamIT0_T1_ES6_RKSt7complexIT_E
PUBLIC 4a5e1 0 _ZNSt15basic_stringbufIcSt11char_traitsIcESaIcEED0Ev
PUBLIC 4a675 0 _ZNSt15basic_stringbufIwSt11char_traitsIwESaIwEED1Ev
PUBLIC 4a705 0 _ZStlsIdwSt11char_traitsIwEERSt13basic_ostreamIT0_T1_ES6_RKSt7complexIT_E
PUBLIC 4ab19 0 _ZStlsIewSt11char_traitsIwEERSt13basic_ostreamIT0_T1_ES6_RKSt7complexIT_E
PUBLIC 4af2d 0 _ZStlsIfwSt11char_traitsIwEERSt13basic_ostreamIT0_T1_ES6_RKSt7complexIT_E
PUBLIC 4b355 0 _ZNSt15basic_stringbufIwSt11char_traitsIwESaIwEED0Ev
PUBLIC 4b3e9 0 _ZNKSt5ctypeIcE8do_widenEc
PUBLIC 4b3ed 0 _ZNKSt5ctypeIcE9do_narrowEcc
PUBLIC 4b3f1 0 _ZNKSt5ctypeIcE10do_toupperEc
PUBLIC 4b3f9 0 _ZNKSt5ctypeIcE10do_toupperEPcPKc
PUBLIC 4b445 0 _ZNKSt5ctypeIcE10do_tolowerEc
PUBLIC 4b44d 0 _ZNKSt5ctypeIcE10do_tolowerEPcPKc
PUBLIC 4b499 0 _ZNKSt5ctypeIcE9do_narrowEPKcS2_cPc
PUBLIC 4b4a9 0 _ZNKSt5ctypeIcE8do_widenEPKcS2_Pc
PUBLIC 4b4b9 0 _ZNSt5ctypeIwED1Ev
PUBLIC 4b509 0 _ZNSt12ctype_bynameIwED2Ev
PUBLIC 4b529 0 _ZNSt12ctype_bynameIwED0Ev
PUBLIC 4b53d 0 _ZNSt5ctypeIwED0Ev
PUBLIC 4b551 0 _ZNSt5ctypeIcED1Ev
PUBLIC 4b591 0 _ZNSt5ctypeIcED0Ev
PUBLIC 4b5a5 0 _ZNSt5ctypeIcE13classic_tableEv
PUBLIC 4b5bd 0 _ZNSt5ctypeIcEC1EP15__locale_structPKtbj
PUBLIC 4b64d 0 _ZNSt5ctypeIcEC2EPKtbj
PUBLIC 4b6d9 0 _ZNKSt5ctypeIcE14_M_narrow_initEv
PUBLIC 4b74d 0 _ZNKSt5ctypeIcE13_M_widen_initEv
PUBLIC 4b791 0 _ZNSt5ctypeIwEC2Ej
PUBLIC 4b7e1 0 _ZNSt5ctypeIwEC2EP15__locale_structj
PUBLIC 4b821 0 _ZNSt12ctype_bynameIwEC2EPKcj
PUBLIC 4b905 0 _ZN11__gnu_debug19_Safe_sequence_base12_M_get_mutexEv
PUBLIC 4b909 0 _ZN11__gnu_debug19_Safe_sequence_base22_M_revalidate_singularEv
PUBLIC 4b9b1 0 _ZN11__gnu_debug19_Safe_sequence_base7_M_swapERS0_
PUBLIC 4ba95 0 _ZN11__gnu_debug19_Safe_iterator_base16_M_detach_singleEv
PUBLIC 4bac5 0 _ZN11__gnu_debug19_Safe_iterator_base16_M_attach_singleEPNS_19_Safe_sequence_baseEb
PUBLIC 4baf9 0 _ZN11__gnu_debug19_Safe_sequence_base13_M_detach_allEv
PUBLIC 4bbb1 0 _ZNK11__gnu_debug19_Safe_iterator_base11_M_singularEv
PUBLIC 4bbc5 0 _ZN11__gnu_debug19_Safe_sequence_base18_M_detach_singularEv
PUBLIC 4bcb1 0 _ZNK11__gnu_debug19_Safe_iterator_base14_M_can_compareERKS0_
PUBLIC 4bcdd 0 _ZN11__gnu_debug19_Safe_iterator_base12_M_get_mutexEv
PUBLIC 4bce1 0 _ZN11__gnu_debug19_Safe_iterator_base9_M_detachEv
PUBLIC 4bd7d 0 _ZN11__gnu_debug19_Safe_iterator_base9_M_attachEPNS_19_Safe_sequence_baseEb
PUBLIC 4be2d 0 _ZNK11__gnu_debug16_Error_formatter10_M_messageENS_13_Debug_msg_idE
PUBLIC 4be4d 0 _ZNK11__gnu_debug16_Error_formatter13_M_print_wordEPKc
PUBLIC 4bf29 0 _ZNK11__gnu_debug16_Error_formatter17_M_get_max_lengthEv
PUBLIC 4bf65 0 _ZNK11__gnu_debug16_Error_formatter10_Parameter14_M_print_fieldEPKS0_PKc
PUBLIC 4c2e9 0 _ZNK11__gnu_debug16_Error_formatter10_Parameter20_M_print_descriptionEPKS0_
PUBLIC 4c501 0 _ZNK11__gnu_debug16_Error_formatter15_M_print_stringEPKc
PUBLIC 4c8ad 0 _ZNK11__gnu_debug16_Error_formatter8_M_errorEv
PUBLIC 4ca21 0 _ZNSt15underflow_errorD1Ev
PUBLIC 4ca41 0 _ZNSt15underflow_errorD0Ev
PUBLIC 4ca69 0 _ZNSt14overflow_errorD1Ev
PUBLIC 4ca89 0 _ZNSt14overflow_errorD0Ev
PUBLIC 4cab1 0 _ZNSt11range_errorD1Ev
PUBLIC 4cad1 0 _ZNSt11range_errorD0Ev
PUBLIC 4caf9 0 _ZNSt12out_of_rangeD1Ev
PUBLIC 4cb19 0 _ZNSt12out_of_rangeD0Ev
PUBLIC 4cb41 0 _ZNSt12length_errorD1Ev
PUBLIC 4cb61 0 _ZNSt12length_errorD0Ev
PUBLIC 4cb89 0 _ZNSt16invalid_argumentD1Ev
PUBLIC 4cba9 0 _ZNSt16invalid_argumentD0Ev
PUBLIC 4cbd1 0 _ZNSt12domain_errorD1Ev
PUBLIC 4cbf1 0 _ZNSt12domain_errorD0Ev
PUBLIC 4cc19 0 _ZSt21__throw_bad_exceptionv
PUBLIC 4cc4d 0 _ZSt17__throw_bad_allocv
PUBLIC 4cc81 0 _ZSt16__throw_bad_castv
PUBLIC 4ccb5 0 _ZSt18__throw_bad_typeidv
PUBLIC 4cce9 0 _ZSt19__throw_logic_errorPKc
PUBLIC 4cd85 0 _ZSt20__throw_domain_errorPKc
PUBLIC 4ce21 0 _ZSt24__throw_invalid_argumentPKc
PUBLIC 4cebd 0 _ZSt20__throw_length_errorPKc
PUBLIC 4cf59 0 _ZSt20__throw_out_of_rangePKc
PUBLIC 4cff5 0 _ZSt21__throw_runtime_errorPKc
PUBLIC 4d091 0 _ZSt19__throw_range_errorPKc
PUBLIC 4d12d 0 _ZSt22__throw_overflow_errorPKc
PUBLIC 4d1c9 0 _ZSt23__throw_underflow_errorPKc
PUBLIC 4d265 0 _ZSt19__throw_ios_failurePKc
PUBLIC 4d2f1 0 _ZSt20__throw_system_errori
PUBLIC 4d3b9 0 _ZSt20__throw_future_errori
PUBLIC 4d485 0 _ZSt25__throw_bad_function_callv
PUBLIC 4d4b9 0 _ZNKSt4hashIeEclEe
PUBLIC 4d549 0 _ZNKSt3tr14hashIeEclEe
PUBLIC 4d5d9 0 _ZNKSt3tr14hashISsEclESs
PUBLIC 4d645 0 _ZNKSt3tr14hashIRKSsEclES2_
PUBLIC 4d6b1 0 _ZNKSt3tr14hashISbIwSt11char_traitsIwESaIwEEEclES4_
PUBLIC 4d721 0 _ZNKSt3tr14hashIRKSbIwSt11char_traitsIwESaIwEEEclES6_
PUBLIC 4d791 0 _ZNSt8ios_baseC2Ev
PUBLIC 4d7f1 0 _ZNSt8ios_base6xallocEv
PUBLIC 4d841 0 _ZNSt8ios_base17register_callbackEPFvNS_5eventERS_iEi
PUBLIC 4d861 0 _ZNSt8ios_base13_M_grow_wordsEib
PUBLIC 4d9f5 0 _ZNSt8ios_base17_M_call_callbacksENS_5eventE
PUBLIC 4da2d 0 _ZNSt8ios_base20_M_dispose_callbacksEv
PUBLIC 4da8d 0 _ZNSt8ios_baseD1Ev
PUBLIC 4dad5 0 _ZNSt8ios_baseD0Ev
PUBLIC 4dae9 0 _ZNKSt8ios_base7failure4whatEv
PUBLIC 4daed 0 _ZNSt8ios_base7failureD1Ev
PUBLIC 4db6d 0 _ZNSt8ios_base7failureD0Ev
PUBLIC 4db81 0 _ZNSt8ios_base7failureC1ERKSs
PUBLIC 4dca5 0 _ZNSt8ios_base4InitC1Ev
PUBLIC 4e285 0 _ZNSt8ios_base4InitD1Ev
PUBLIC 4e33d 0 _ZNSt8ios_base15sync_with_stdioEb
PUBLIC 4e535 0 _ZNSt8ios_base7_M_initEv
PUBLIC 4e565 0 _ZNSt8ios_base5imbueERKSt6locale
PUBLIC 4e58d 0 _ZNSt15_List_node_base4swapERS_S0_
PUBLIC 4e5e1 0 _ZNSt15_List_node_base11_M_transferEPS_S0_
PUBLIC 4e601 0 _ZNSt15_List_node_base10_M_reverseEv
PUBLIC 4e615 0 _ZNSt15_List_node_base7_M_hookEPS_
PUBLIC 4e625 0 _ZNSt15_List_node_base9_M_unhookEv
PUBLIC 4e631 0 _ZNSt6__norm15_List_node_base4swapERS0_S1_
PUBLIC 4e685 0 _ZNSt6__norm15_List_node_base11_M_transferEPS0_S1_
PUBLIC 4e6a5 0 _ZNSt6__norm15_List_node_base10_M_reverseEv
PUBLIC 4e6b9 0 _ZNSt6__norm15_List_node_base7_M_hookEPS0_
PUBLIC 4e6c9 0 _ZNSt6__norm15_List_node_base9_M_unhookEv
PUBLIC 4e6d5 0 _ZNSt6locale5facetD1Ev
PUBLIC 4e6ed 0 _ZNSt6locale5facetD0Ev
PUBLIC 4e701 0 _ZNSt6localeC1ERKS_
PUBLIC 4e741 0 _ZNSt6localeC1EPNS_5_ImplE
PUBLIC 4e745 0 _ZNKSt6locale4nameEv
PUBLIC 4e9d1 0 _ZNKSt6localeeqERKS_
PUBLIC 4eb29 0 _ZNSt6locale21_S_normalize_categoryEi
PUBLIC 4eb95 0 _ZNSt6locale5facet15_S_get_c_localeEv
PUBLIC 4ebb5 0 _ZNSt6locale5facet13_S_get_c_nameEv
PUBLIC 4ebc9 0 _ZNSt6locale5_ImplD1Ev
PUBLIC 4ed59 0 _ZNSt6localeD1Ev
PUBLIC 4edb5 0 _ZNSt6localeaSERKS_
PUBLIC 4ee41 0 _ZNSt6locale5_ImplC2ERKS0_j
PUBLIC 4f11d 0 _ZNSt6locale5_Impl16_M_install_cacheEPKNS_5facetEj
PUBLIC 4f27d 0 _ZNKSt6locale2id5_M_idEv
PUBLIC 4f2d9 0 _ZNSt6locale5_Impl16_M_install_facetEPKNS_2idEPKNS_5facetE
PUBLIC 4f581 0 _ZNSt6locale5_Impl16_M_replace_facetEPKS0_PKNS_2idE
PUBLIC 4f5b9 0 _ZNSt6locale5_Impl19_M_replace_categoryEPKS0_PKPKNS_2idE
PUBLIC 4f64d 0 _ZNSt6locale5_ImplC1Ej
PUBLIC 50209 0 _ZNSt6locale7classicEv
PUBLIC 50235 0 _ZNSt6localeC2Ev
PUBLIC 50349 0 _ZNSt6locale6globalERKS_
PUBLIC 504b5 0 _ZNSt10__num_base15_S_format_floatERKSt8ios_basePcc
PUBLIC 50535 0 _ZSt17__verify_groupingPKcjRKSs
PUBLIC 5066d 0 _ZNSt6locale5_ImplC2EPKcj
PUBLIC 51435 0 _ZNSt6localeC1EPKc
PUBLIC 51f2d 0 _ZNSt6locale5_Impl21_M_replace_categoriesEPKS0_i
PUBLIC 52649 0 _ZNSt6locale11_M_coalesceERKS_S1_i
PUBLIC 5269d 0 _ZNSt6localeC2ERKS_S1_i
PUBLIC 526ad 0 _ZNSt6localeC1ERKS_PKci
PUBLIC 526e5 0 _ZNKSt11logic_error4whatEv
PUBLIC 526e9 0 _ZNKSt13runtime_error4whatEv
PUBLIC 526ed 0 _ZNSt13runtime_errorD2Ev
PUBLIC 5276d 0 _ZNSt13runtime_errorD0Ev
PUBLIC 52781 0 _ZNSt11logic_errorD1Ev
PUBLIC 52801 0 _ZNSt11logic_errorD0Ev
PUBLIC 52815 0 _ZNSt11logic_errorC2ERKSs
PUBLIC 52841 0 _ZNSt12domain_errorC2ERKSs
PUBLIC 52861 0 _ZNSt16invalid_argumentC2ERKSs
PUBLIC 52881 0 _ZNSt12length_errorC2ERKSs
PUBLIC 528a1 0 _ZNSt12out_of_rangeC1ERKSs
PUBLIC 528c1 0 _ZNSt13runtime_errorC1ERKSs
PUBLIC 528ed 0 _ZNSt11range_errorC1ERKSs
PUBLIC 5290d 0 _ZNSt14overflow_errorC2ERKSs
PUBLIC 5292d 0 _ZNSt15underflow_errorC1ERKSs
PUBLIC 5294d 0 _ZNSt12strstreambuf9pbackfailEi
PUBLIC 52995 0 _ZNSt12strstreambuf9underflowEv
PUBLIC 529b9 0 _ZNSt12strstreambuf6setbufEPci
PUBLIC 529bd 0 _ZNSt12strstreambuf7seekoffExSt12_Ios_SeekdirSt13_Ios_Openmode
PUBLIC 52af9 0 _ZNSt12strstreambuf7seekposESt4fposI11__mbstate_tESt13_Ios_Openmode
PUBLIC 52b29 0 _ZNSt12strstreambuf6freezeEb
PUBLIC 52b3d 0 _ZNSt12strstreambuf3strEv
PUBLIC 52b4d 0 _ZNKSt12strstreambuf6pcountEv
PUBLIC 52b5d 0 _ZNSt12strstreambuf8_M_allocEj
PUBLIC 52b75 0 _ZNSt12strstreambufC2EPFPvjEPFvS0_E
PUBLIC 52c09 0 _ZNSt12strstreambufC1Ei
PUBLIC 52cad 0 _ZNSt12strstreambuf7_M_freeEPc
PUBLIC 52cc9 0 _ZNSt12strstreambufD1Ev
PUBLIC 52d29 0 _ZNSt9strstreamD1Ev
PUBLIC 52dd5 0 _ZThn8_NSt9strstreamD1Ev
PUBLIC 52ddd 0 _ZNSt9strstreamD0Ev
PUBLIC 52df1 0 _ZThn8_NSt9strstreamD0Ev
PUBLIC 52df9 0 _ZNSt10ostrstreamD1Ev
PUBLIC 52e79 0 _ZNSt10ostrstreamD0Ev
PUBLIC 52e8d 0 _ZNSt10istrstreamD1Ev
PUBLIC 52f15 0 _ZNSt10istrstreamD0Ev
PUBLIC 52f29 0 _ZNSt12strstreambufD0Ev
PUBLIC 52f3d 0 _ZNSt12strstreambuf8overflowEi
PUBLIC 52ff1 0 _ZNSt12strstreambuf8_M_setupEPcS0_i
PUBLIC 53039 0 _ZNSt12strstreambufC2EPKhi
PUBLIC 530a1 0 _ZNSt12strstreambufC1EPKai
PUBLIC 53109 0 _ZNSt12strstreambufC1EPKci
PUBLIC 53171 0 _ZNSt12strstreambufC1EPhiS0_
PUBLIC 531e1 0 _ZNSt12strstreambufC2EPaiS0_
PUBLIC 53251 0 _ZNSt12strstreambufC1EPciS0_
PUBLIC 532c1 0 _ZNSt10istrstreamC2EPc
PUBLIC 53341 0 _ZNSt10istrstreamC1EPc
PUBLIC 53409 0 _ZNSt10istrstreamC2EPKc
PUBLIC 53481 0 _ZNSt10istrstreamC1EPKc
PUBLIC 53545 0 _ZNSt10istrstreamC2EPci
PUBLIC 535c9 0 _ZNSt10istrstreamC1EPci
PUBLIC 53695 0 _ZNSt10istrstreamC2EPKci
PUBLIC 53715 0 _ZNSt10istrstreamC1EPKci
PUBLIC 537dd 0 _ZNSt10istrstreamD2Ev
PUBLIC 5381d 0 _ZNKSt10istrstream5rdbufEv
PUBLIC 53821 0 _ZNSt10istrstream3strEv
PUBLIC 53829 0 _ZNSt10ostrstreamC2Ev
PUBLIC 53889 0 _ZNSt10ostrstreamC1Ev
PUBLIC 53941 0 _ZNSt10ostrstreamC2EPciSt13_Ios_Openmode
PUBLIC 539bd 0 _ZNSt10ostrstreamC1EPciSt13_Ios_Openmode
PUBLIC 53a99 0 _ZNSt10ostrstreamD2Ev
PUBLIC 53ad1 0 _ZNKSt10ostrstream5rdbufEv
PUBLIC 53ad5 0 _ZNSt10ostrstream6freezeEb
PUBLIC 53add 0 _ZNSt10ostrstream3strEv
PUBLIC 53ae5 0 _ZNKSt10ostrstream6pcountEv
PUBLIC 53aed 0 _ZNSt9strstreamC2Ev
PUBLIC 53ba1 0 _ZNSt9strstreamC1Ev
PUBLIC 53ca1 0 _ZNSt9strstreamC2EPciSt13_Ios_Openmode
PUBLIC 53d69 0 _ZNSt9strstreamC1EPciSt13_Ios_Openmode
PUBLIC 53e81 0 _ZNSt9strstreamD2Ev
PUBLIC 53ee5 0 _ZNKSt9strstream5rdbufEv
PUBLIC 53ee9 0 _ZNSt9strstream6freezeEb
PUBLIC 53ef1 0 _ZNKSt9strstream6pcountEv
PUBLIC 53ef9 0 _ZNSt9strstream3strEv
PUBLIC 53f01 0 _ZTv0_n12_NSt10istrstreamD0Ev
PUBLIC 53f0d 0 _ZTv0_n12_NSt10istrstreamD1Ev
PUBLIC 53f19 0 _ZTv0_n12_NSt10ostrstreamD0Ev
PUBLIC 53f25 0 _ZTv0_n12_NSt10ostrstreamD1Ev
PUBLIC 53f31 0 _ZTv0_n12_NSt9strstreamD0Ev
PUBLIC 53f3d 0 _ZTv0_n12_NSt9strstreamD1Ev
PUBLIC 53f79 0 _ZNKSt14error_category23default_error_conditionEi
PUBLIC 53f81 0 _ZNKSt14error_category10equivalentEiRKSt15error_condition
PUBLIC 53fb5 0 _ZNKSt14error_category10equivalentERKSt10error_codei
PUBLIC 54095 0 _ZNSt12system_errorD2Ev
PUBLIC 540b5 0 _ZNSt12system_errorD0Ev
PUBLIC 540c9 0 _ZSt15system_categoryv
PUBLIC 540d5 0 _ZSt16generic_categoryv
PUBLIC 540e1 0 _ZNKSt10error_code23default_error_conditionEv
PUBLIC 541ad 0 _ZSt18_Rb_tree_incrementPSt18_Rb_tree_node_base
PUBLIC 541e9 0 _ZSt18_Rb_tree_incrementPKSt18_Rb_tree_node_base
PUBLIC 541ed 0 _ZSt18_Rb_tree_decrementPSt18_Rb_tree_node_base
PUBLIC 54229 0 _ZSt18_Rb_tree_decrementPKSt18_Rb_tree_node_base
PUBLIC 5422d 0 _ZSt20_Rb_tree_rotate_leftPSt18_Rb_tree_node_baseRS0_
PUBLIC 54231 0 _ZSt21_Rb_tree_rotate_rightPSt18_Rb_tree_node_baseRS0_
PUBLIC 54235 0 _ZSt29_Rb_tree_insert_and_rebalancebPSt18_Rb_tree_node_baseS0_RS_
PUBLIC 54301 0 _ZSt28_Rb_tree_rebalance_for_erasePSt18_Rb_tree_node_baseRS_
PUBLIC 544dd 0 _ZSt20_Rb_tree_black_countPKSt18_Rb_tree_node_baseS1_
PUBLIC 544f5 0 _ZNSaIcEC1Ev
PUBLIC 544f9 0 _ZNSaIcEC2ERKS_
PUBLIC 544fd 0 _ZNSaIcED2Ev
PUBLIC 54501 0 _ZNSaIwEC2Ev
PUBLIC 54505 0 _ZNSaIwEC1ERKS_
PUBLIC 54509 0 _ZNSaIwED2Ev
PUBLIC 54c6d 0 _ZNSt13basic_filebufIcSt11char_traitsIcEE9pbackfailEi
PUBLIC 54d21 0 _ZNSt13basic_filebufIcSt11char_traitsIcEE4syncEv
PUBLIC 54d49 0 _ZNSt13basic_filebufIwSt11char_traitsIwEE9pbackfailEj
PUBLIC 54dfd 0 _ZNSt13basic_filebufIwSt11char_traitsIwEE4syncEv
PUBLIC 54e25 0 _ZNSt13basic_filebufIcSt11char_traitsIcEE6setbufEPci
PUBLIC 54e6d 0 _ZNSt13basic_filebufIwSt11char_traitsIwEE6setbufEPwi
PUBLIC 54eb5 0 _ZNSt13basic_filebufIcSt11char_traitsIcEE9showmanycEv
PUBLIC 54f0d 0 _ZNSt13basic_filebufIwSt11char_traitsIwEE9showmanycEv
PUBLIC 54f69 0 _ZNSt13basic_filebufIcSt11char_traitsIcEE6xsgetnEPci
PUBLIC 5510d 0 _ZNSt13basic_filebufIwSt11char_traitsIwEE6xsgetnEPwi
PUBLIC 552a5 0 _ZNSt13basic_filebufIcSt11char_traitsIcEE6xsputnEPKci
PUBLIC 5535d 0 _ZNSt13basic_filebufIwSt11char_traitsIwEE6xsputnEPKwi
PUBLIC 5541d 0 _ZNSt13basic_filebufIcSt11char_traitsIcEE9underflowEv
PUBLIC 556f9 0 _ZNSt13basic_filebufIwSt11char_traitsIwEE9underflowEv
PUBLIC 559e9 0 _ZNSt13basic_filebufIcSt11char_traitsIcEE15_M_create_pbackEv
PUBLIC 55a11 0 _ZNSt13basic_filebufIcSt11char_traitsIcEE16_M_destroy_pbackEv
PUBLIC 55a3d 0 _ZNSt13basic_filebufIcSt11char_traitsIcEEC2Ev
PUBLIC 55b15 0 _ZNKSt13basic_filebufIcSt11char_traitsIcEE7is_openEv
PUBLIC 55b1d 0 _ZNSt13basic_filebufIcSt11char_traitsIcEE27_M_allocate_internal_bufferEv
PUBLIC 55b3d 0 _ZNSt13basic_filebufIcSt11char_traitsIcEE26_M_destroy_internal_bufferEv
PUBLIC 55b71 0 _ZNSt13basic_filebufIcSt11char_traitsIcEE22_M_convert_to_externalEPci
PUBLIC 55c8d 0 _ZNSt13basic_filebufIcSt11char_traitsIcEE8overflowEi
PUBLIC 55d61 0 _ZNSt13basic_filebufIcSt11char_traitsIcEE19_M_terminate_outputEv
PUBLIC 55e49 0 _ZNSt13basic_filebufIcSt11char_traitsIcEE5imbueERKSt6locale
PUBLIC 55f85 0 _ZNSt13basic_filebufIcSt11char_traitsIcEE7_M_seekExSt12_Ios_Seekdir11__mbstate_t
PUBLIC 56035 0 _ZNSt13basic_filebufIcSt11char_traitsIcEE7seekposESt4fposI11__mbstate_tESt13_Ios_Openmode
PUBLIC 560c1 0 _ZNSt13basic_filebufIcSt11char_traitsIcEE7seekoffExSt12_Ios_SeekdirSt13_Ios_Openmode
PUBLIC 56201 0 _ZNSt13basic_filebufIcSt11char_traitsIcEE5closeEv
PUBLIC 562cd 0 _ZNSt13basic_filebufIcSt11char_traitsIcEE4openEPKcSt13_Ios_Openmode
PUBLIC 56371 0 _ZNSt13basic_filebufIcSt11char_traitsIcEE4openERKSsSt13_Ios_Openmode
PUBLIC 56379 0 _ZNSt13basic_filebufIcSt11char_traitsIcEED2Ev
PUBLIC 563d9 0 _ZNSt13basic_filebufIcSt11char_traitsIcEED0Ev
PUBLIC 56441 0 _ZNSt13basic_fstreamIcSt11char_traitsIcEED1Ev
PUBLIC 56541 0 _ZThn8_NSt13basic_fstreamIcSt11char_traitsIcEED1Ev
PUBLIC 56549 0 _ZTv0_n12_NSt13basic_fstreamIcSt11char_traitsIcEED1Ev
PUBLIC 56555 0 _ZNSt14basic_ofstreamIcSt11char_traitsIcEED1Ev
PUBLIC 56629 0 _ZTv0_n12_NSt14basic_ofstreamIcSt11char_traitsIcEED1Ev
PUBLIC 56635 0 _ZNSt14basic_ifstreamIcSt11char_traitsIcEED1Ev
PUBLIC 56711 0 _ZTv0_n12_NSt14basic_ifstreamIcSt11char_traitsIcEED1Ev
PUBLIC 5671d 0 _ZNSt13basic_fstreamIcSt11char_traitsIcEED0Ev
PUBLIC 56825 0 _ZThn8_NSt13basic_fstreamIcSt11char_traitsIcEED0Ev
PUBLIC 5682d 0 _ZTv0_n12_NSt13basic_fstreamIcSt11char_traitsIcEED0Ev
PUBLIC 56839 0 _ZNSt14basic_ofstreamIcSt11char_traitsIcEED0Ev
PUBLIC 56911 0 _ZTv0_n12_NSt14basic_ofstreamIcSt11char_traitsIcEED0Ev
PUBLIC 5691d 0 _ZNSt14basic_ifstreamIcSt11char_traitsIcEED0Ev
PUBLIC 56a01 0 _ZTv0_n12_NSt14basic_ifstreamIcSt11char_traitsIcEED0Ev
PUBLIC 56a0d 0 _ZNSt13basic_filebufIcSt11char_traitsIcEE13_M_set_bufferEi
PUBLIC 56a55 0 _ZNSt14basic_ifstreamIcSt11char_traitsIcEEC2Ev
PUBLIC 56ac1 0 _ZNSt14basic_ifstreamIcSt11char_traitsIcEEC1Ev
PUBLIC 56b85 0 _ZNSt14basic_ifstreamIcSt11char_traitsIcEEC2EPKcSt13_Ios_Openmode
PUBLIC 56c39 0 _ZNSt14basic_ifstreamIcSt11char_traitsIcEEC1EPKcSt13_Ios_Openmode
PUBLIC 56d3d 0 _ZNSt14basic_ifstreamIcSt11char_traitsIcEEC2ERKSsSt13_Ios_Openmode
PUBLIC 56df1 0 _ZNSt14basic_ifstreamIcSt11char_traitsIcEEC1ERKSsSt13_Ios_Openmode
PUBLIC 56ef5 0 _ZNSt14basic_ifstreamIcSt11char_traitsIcEED2Ev
PUBLIC 56f8d 0 _ZNKSt14basic_ifstreamIcSt11char_traitsIcEE5rdbufEv
PUBLIC 56f91 0 _ZNSt14basic_ifstreamIcSt11char_traitsIcEE7is_openEv
PUBLIC 56f99 0 _ZNSt14basic_ifstreamIcSt11char_traitsIcEE4openEPKcSt13_Ios_Openmode
PUBLIC 56fd5 0 _ZNSt14basic_ifstreamIcSt11char_traitsIcEE4openERKSsSt13_Ios_Openmode
PUBLIC 57011 0 _ZNSt14basic_ifstreamIcSt11char_traitsIcEE5closeEv
PUBLIC 57039 0 _ZNSt14basic_ofstreamIcSt11char_traitsIcEEC2Ev
PUBLIC 57095 0 _ZNSt14basic_ofstreamIcSt11char_traitsIcEEC1Ev
PUBLIC 57151 0 _ZNSt14basic_ofstreamIcSt11char_traitsIcEEC2EPKcSt13_Ios_Openmode
PUBLIC 571ed 0 _ZNSt14basic_ofstreamIcSt11char_traitsIcEEC1EPKcSt13_Ios_Openmode
PUBLIC 572e1 0 _ZNSt14basic_ofstreamIcSt11char_traitsIcEEC2ERKSsSt13_Ios_Openmode
PUBLIC 57381 0 _ZNSt14basic_ofstreamIcSt11char_traitsIcEEC1ERKSsSt13_Ios_Openmode
PUBLIC 57479 0 _ZNSt14basic_ofstreamIcSt11char_traitsIcEED2Ev
PUBLIC 57505 0 _ZNKSt14basic_ofstreamIcSt11char_traitsIcEE5rdbufEv
PUBLIC 57509 0 _ZNSt14basic_ofstreamIcSt11char_traitsIcEE7is_openEv
PUBLIC 57511 0 _ZNSt14basic_ofstreamIcSt11char_traitsIcEE4openEPKcSt13_Ios_Openmode
PUBLIC 5754d 0 _ZNSt14basic_ofstreamIcSt11char_traitsIcEE4openERKSsSt13_Ios_Openmode
PUBLIC 57589 0 _ZNSt14basic_ofstreamIcSt11char_traitsIcEE5closeEv
PUBLIC 575b1 0 _ZNSt13basic_fstreamIcSt11char_traitsIcEEC2Ev
PUBLIC 57661 0 _ZNSt13basic_fstreamIcSt11char_traitsIcEEC1Ev
PUBLIC 57765 0 _ZNSt13basic_fstreamIcSt11char_traitsIcEEC2EPKcSt13_Ios_Openmode
PUBLIC 57851 0 _ZNSt13basic_fstreamIcSt11char_traitsIcEEC1EPKcSt13_Ios_Openmode
PUBLIC 5798d 0 _ZNSt13basic_fstreamIcSt11char_traitsIcEEC2ERKSsSt13_Ios_Openmode
PUBLIC 57a7d 0 _ZNSt13basic_fstreamIcSt11char_traitsIcEEC1ERKSsSt13_Ios_Openmode
PUBLIC 57bb9 0 _ZNSt13basic_fstreamIcSt11char_traitsIcEED2Ev
PUBLIC 57c79 0 _ZNKSt13basic_fstreamIcSt11char_traitsIcEE5rdbufEv
PUBLIC 57c7d 0 _ZNSt13basic_fstreamIcSt11char_traitsIcEE7is_openEv
PUBLIC 57c85 0 _ZNSt13basic_fstreamIcSt11char_traitsIcEE4openEPKcSt13_Ios_Openmode
PUBLIC 57cbd 0 _ZNSt13basic_fstreamIcSt11char_traitsIcEE4openERKSsSt13_Ios_Openmode
PUBLIC 57cf5 0 _ZNSt13basic_fstreamIcSt11char_traitsIcEE5closeEv
PUBLIC 57d1d 0 _ZNSt13basic_filebufIwSt11char_traitsIwEE15_M_create_pbackEv
PUBLIC 57d45 0 _ZNSt13basic_filebufIwSt11char_traitsIwEE16_M_destroy_pbackEv
PUBLIC 57d79 0 _ZNSt13basic_filebufIwSt11char_traitsIwEEC1Ev
PUBLIC 57e51 0 _ZNKSt13basic_filebufIwSt11char_traitsIwEE7is_openEv
PUBLIC 57e59 0 _ZNSt13basic_filebufIwSt11char_traitsIwEE27_M_allocate_internal_bufferEv
PUBLIC 57e7d 0 _ZNSt13basic_filebufIwSt11char_traitsIwEE26_M_destroy_internal_bufferEv
PUBLIC 57eb1 0 _ZNSt13basic_filebufIwSt11char_traitsIwEE22_M_convert_to_externalEPwi
PUBLIC 57fd5 0 _ZNSt13basic_filebufIwSt11char_traitsIwEE8overflowEj
PUBLIC 580a5 0 _ZNSt13basic_filebufIwSt11char_traitsIwEE19_M_terminate_outputEv
PUBLIC 5818d 0 _ZNSt13basic_filebufIwSt11char_traitsIwEE5imbueERKSt6locale
PUBLIC 582cd 0 _ZNSt13basic_filebufIwSt11char_traitsIwEE7_M_seekExSt12_Ios_Seekdir11__mbstate_t
PUBLIC 5837d 0 _ZNSt13basic_filebufIwSt11char_traitsIwEE7seekposESt4fposI11__mbstate_tESt13_Ios_Openmode
PUBLIC 5840d 0 _ZNSt13basic_filebufIwSt11char_traitsIwEE7seekoffExSt12_Ios_SeekdirSt13_Ios_Openmode
PUBLIC 58551 0 _ZNSt13basic_filebufIwSt11char_traitsIwEE5closeEv
PUBLIC 5861d 0 _ZNSt13basic_filebufIwSt11char_traitsIwEE4openEPKcSt13_Ios_Openmode
PUBLIC 586c1 0 _ZNSt13basic_filebufIwSt11char_traitsIwEE4openERKSsSt13_Ios_Openmode
PUBLIC 586c9 0 _ZNSt13basic_filebufIwSt11char_traitsIwEED2Ev
PUBLIC 58729 0 _ZNSt13basic_fstreamIwSt11char_traitsIwEED1Ev
PUBLIC 58829 0 _ZThn8_NSt13basic_fstreamIwSt11char_traitsIwEED1Ev
PUBLIC 58831 0 _ZTv0_n12_NSt13basic_fstreamIwSt11char_traitsIwEED1Ev
PUBLIC 5883d 0 _ZNSt14basic_ofstreamIwSt11char_traitsIwEED1Ev
PUBLIC 58911 0 _ZTv0_n12_NSt14basic_ofstreamIwSt11char_traitsIwEED1Ev
PUBLIC 5891d 0 _ZNSt14basic_ifstreamIwSt11char_traitsIwEED1Ev
PUBLIC 589f9 0 _ZTv0_n12_NSt14basic_ifstreamIwSt11char_traitsIwEED1Ev
PUBLIC 58a05 0 _ZNSt13basic_filebufIwSt11char_traitsIwEED0Ev
PUBLIC 58a6d 0 _ZNSt13basic_fstreamIwSt11char_traitsIwEED0Ev
PUBLIC 58b75 0 _ZThn8_NSt13basic_fstreamIwSt11char_traitsIwEED0Ev
PUBLIC 58b7d 0 _ZTv0_n12_NSt13basic_fstreamIwSt11char_traitsIwEED0Ev
PUBLIC 58b89 0 _ZNSt14basic_ofstreamIwSt11char_traitsIwEED0Ev
PUBLIC 58c61 0 _ZTv0_n12_NSt14basic_ofstreamIwSt11char_traitsIwEED0Ev
PUBLIC 58c6d 0 _ZNSt14basic_ifstreamIwSt11char_traitsIwEED0Ev
PUBLIC 58d51 0 _ZTv0_n12_NSt14basic_ifstreamIwSt11char_traitsIwEED0Ev
PUBLIC 58d5d 0 _ZNSt13basic_filebufIwSt11char_traitsIwEE13_M_set_bufferEi
PUBLIC 58da9 0 _ZNSt14basic_ifstreamIwSt11char_traitsIwEEC2Ev
PUBLIC 58e15 0 _ZNSt14basic_ifstreamIwSt11char_traitsIwEEC1Ev
PUBLIC 58ed9 0 _ZNSt14basic_ifstreamIwSt11char_traitsIwEEC2EPKcSt13_Ios_Openmode
PUBLIC 58f8d 0 _ZNSt14basic_ifstreamIwSt11char_traitsIwEEC1EPKcSt13_Ios_Openmode
PUBLIC 59091 0 _ZNSt14basic_ifstreamIwSt11char_traitsIwEEC2ERKSsSt13_Ios_Openmode
PUBLIC 59145 0 _ZNSt14basic_ifstreamIwSt11char_traitsIwEEC1ERKSsSt13_Ios_Openmode
PUBLIC 59249 0 _ZNSt14basic_ifstreamIwSt11char_traitsIwEED2Ev
PUBLIC 592e1 0 _ZNKSt14basic_ifstreamIwSt11char_traitsIwEE5rdbufEv
PUBLIC 592e5 0 _ZNSt14basic_ifstreamIwSt11char_traitsIwEE7is_openEv
PUBLIC 592ed 0 _ZNSt14basic_ifstreamIwSt11char_traitsIwEE4openEPKcSt13_Ios_Openmode
PUBLIC 59329 0 _ZNSt14basic_ifstreamIwSt11char_traitsIwEE4openERKSsSt13_Ios_Openmode
PUBLIC 59365 0 _ZNSt14basic_ifstreamIwSt11char_traitsIwEE5closeEv
PUBLIC 5938d 0 _ZNSt14basic_ofstreamIwSt11char_traitsIwEEC2Ev
PUBLIC 593e9 0 _ZNSt14basic_ofstreamIwSt11char_traitsIwEEC1Ev
PUBLIC 594a5 0 _ZNSt14basic_ofstreamIwSt11char_traitsIwEEC2EPKcSt13_Ios_Openmode
PUBLIC 59541 0 _ZNSt14basic_ofstreamIwSt11char_traitsIwEEC1EPKcSt13_Ios_Openmode
PUBLIC 59635 0 _ZNSt14basic_ofstreamIwSt11char_traitsIwEEC2ERKSsSt13_Ios_Openmode
PUBLIC 596d5 0 _ZNSt14basic_ofstreamIwSt11char_traitsIwEEC1ERKSsSt13_Ios_Openmode
PUBLIC 597cd 0 _ZNSt14basic_ofstreamIwSt11char_traitsIwEED2Ev
PUBLIC 59859 0 _ZNKSt14basic_ofstreamIwSt11char_traitsIwEE5rdbufEv
PUBLIC 5985d 0 _ZNSt14basic_ofstreamIwSt11char_traitsIwEE7is_openEv
PUBLIC 59865 0 _ZNSt14basic_ofstreamIwSt11char_traitsIwEE4openEPKcSt13_Ios_Openmode
PUBLIC 598a1 0 _ZNSt14basic_ofstreamIwSt11char_traitsIwEE4openERKSsSt13_Ios_Openmode
PUBLIC 598dd 0 _ZNSt14basic_ofstreamIwSt11char_traitsIwEE5closeEv
PUBLIC 59905 0 _ZNSt13basic_fstreamIwSt11char_traitsIwEEC2Ev
PUBLIC 599b5 0 _ZNSt13basic_fstreamIwSt11char_traitsIwEEC1Ev
PUBLIC 59ab9 0 _ZNSt13basic_fstreamIwSt11char_traitsIwEEC2EPKcSt13_Ios_Openmode
PUBLIC 59ba5 0 _ZNSt13basic_fstreamIwSt11char_traitsIwEEC1EPKcSt13_Ios_Openmode
PUBLIC 59ce1 0 _ZNSt13basic_fstreamIwSt11char_traitsIwEEC2ERKSsSt13_Ios_Openmode
PUBLIC 59dd1 0 _ZNSt13basic_fstreamIwSt11char_traitsIwEEC1ERKSsSt13_Ios_Openmode
PUBLIC 59f0d 0 _ZNSt13basic_fstreamIwSt11char_traitsIwEED2Ev
PUBLIC 59fcd 0 _ZNKSt13basic_fstreamIwSt11char_traitsIwEE5rdbufEv
PUBLIC 59fd1 0 _ZNSt13basic_fstreamIwSt11char_traitsIwEE7is_openEv
PUBLIC 59fd9 0 _ZNSt13basic_fstreamIwSt11char_traitsIwEE4openEPKcSt13_Ios_Openmode
PUBLIC 5a011 0 _ZNSt13basic_fstreamIwSt11char_traitsIwEE4openERKSsSt13_Ios_Openmode
PUBLIC 5a049 0 _ZNSt13basic_fstreamIwSt11char_traitsIwEE5closeEv
PUBLIC 5a441 0 _ZNSt9basic_iosIwSt11char_traitsIwEED2Ev
PUBLIC 5a461 0 _ZNSt9basic_iosIwSt11char_traitsIwEED0Ev
PUBLIC 5a489 0 _ZNSt9basic_iosIcSt11char_traitsIcEED1Ev
PUBLIC 5a4a9 0 _ZNSt9basic_iosIcSt11char_traitsIcEED0Ev
PUBLIC 5a4d1 0 _ZNKSt9basic_iosIcSt11char_traitsIcEEcvPvEv
PUBLIC 5a4dd 0 _ZNKSt9basic_iosIcSt11char_traitsIcEEntEv
PUBLIC 5a4ed 0 _ZNKSt9basic_iosIcSt11char_traitsIcEE7rdstateEv
PUBLIC 5a4f1 0 _ZNSt9basic_iosIcSt11char_traitsIcEE5clearESt12_Ios_Iostate
PUBLIC 5a515 0 _ZNSt9basic_iosIcSt11char_traitsIcEE8setstateESt12_Ios_Iostate
PUBLIC 5a51d 0 _ZNSt9basic_iosIcSt11char_traitsIcEE11_M_setstateESt12_Ios_Iostate
PUBLIC 5a535 0 _ZNKSt9basic_iosIcSt11char_traitsIcEE4goodEv
PUBLIC 5a541 0 _ZNKSt9basic_iosIcSt11char_traitsIcEE3eofEv
PUBLIC 5a549 0 _ZNKSt9basic_iosIcSt11char_traitsIcEE4failEv
PUBLIC 5a559 0 _ZNKSt9basic_iosIcSt11char_traitsIcEE3badEv
PUBLIC 5a561 0 _ZNKSt9basic_iosIcSt11char_traitsIcEE10exceptionsEv
PUBLIC 5a565 0 _ZNSt9basic_iosIcSt11char_traitsIcEE10exceptionsESt12_Ios_Iostate
PUBLIC 5a56d 0 _ZNKSt9basic_iosIcSt11char_traitsIcEE3tieEv
PUBLIC 5a571 0 _ZNSt9basic_iosIcSt11char_traitsIcEE3tieEPSo
PUBLIC 5a579 0 _ZNKSt9basic_iosIcSt11char_traitsIcEE5rdbufEv
PUBLIC 5a57d 0 _ZNSt9basic_iosIcSt11char_traitsIcEE5rdbufEPSt15basic_streambufIcS1_E
PUBLIC 5a58d 0 _ZNKSt9basic_iosIcSt11char_traitsIcEE4fillEv
PUBLIC 5a5d5 0 _ZNSt9basic_iosIcSt11char_traitsIcEE4fillEc
PUBLIC 5a619 0 _ZNKSt9basic_iosIcSt11char_traitsIcEE6narrowEcc
PUBLIC 5a641 0 _ZNKSt9basic_iosIcSt11char_traitsIcEE5widenEc
PUBLIC 5a669 0 _ZNSt9basic_iosIcSt11char_traitsIcEEC1Ev
PUBLIC 5a6a1 0 _ZNSt9basic_iosIcSt11char_traitsIcEE15_M_cache_localeERKSt6locale
PUBLIC 5a6ed 0 _ZNSt9basic_iosIcSt11char_traitsIcEE4initEPSt15basic_streambufIcS1_E
PUBLIC 5a71d 0 _ZNSt9basic_iosIcSt11char_traitsIcEEC2EPSt15basic_streambufIcS1_E
PUBLIC 5a76d 0 _ZNSt9basic_iosIcSt11char_traitsIcEE5imbueERKSt6locale
PUBLIC 5a7d5 0 _ZNSt9basic_iosIcSt11char_traitsIcEE7copyfmtERKS2_
PUBLIC 5a9f5 0 _ZNKSt9basic_iosIwSt11char_traitsIwEEcvPvEv
PUBLIC 5aa01 0 _ZNKSt9basic_iosIwSt11char_traitsIwEEntEv
PUBLIC 5aa11 0 _ZNKSt9basic_iosIwSt11char_traitsIwEE7rdstateEv
PUBLIC 5aa15 0 _ZNSt9basic_iosIwSt11char_traitsIwEE5clearESt12_Ios_Iostate
PUBLIC 5aa39 0 _ZNSt9basic_iosIwSt11char_traitsIwEE8setstateESt12_Ios_Iostate
PUBLIC 5aa41 0 _ZNSt9basic_iosIwSt11char_traitsIwEE11_M_setstateESt12_Ios_Iostate
PUBLIC 5aa59 0 _ZNKSt9basic_iosIwSt11char_traitsIwEE4goodEv
PUBLIC 5aa65 0 _ZNKSt9basic_iosIwSt11char_traitsIwEE3eofEv
PUBLIC 5aa6d 0 _ZNKSt9basic_iosIwSt11char_traitsIwEE4failEv
PUBLIC 5aa7d 0 _ZNKSt9basic_iosIwSt11char_traitsIwEE3badEv
PUBLIC 5aa85 0 _ZNKSt9basic_iosIwSt11char_traitsIwEE10exceptionsEv
PUBLIC 5aa89 0 _ZNSt9basic_iosIwSt11char_traitsIwEE10exceptionsESt12_Ios_Iostate
PUBLIC 5aa91 0 _ZNKSt9basic_iosIwSt11char_traitsIwEE3tieEv
PUBLIC 5aa95 0 _ZNSt9basic_iosIwSt11char_traitsIwEE3tieEPSt13basic_ostreamIwS1_E
PUBLIC 5aa9d 0 _ZNKSt9basic_iosIwSt11char_traitsIwEE5rdbufEv
PUBLIC 5aaa1 0 _ZNSt9basic_iosIwSt11char_traitsIwEE5rdbufEPSt15basic_streambufIwS1_E
PUBLIC 5aab1 0 _ZNKSt9basic_iosIwSt11char_traitsIwEE4fillEv
PUBLIC 5aadd 0 _ZNSt9basic_iosIwSt11char_traitsIwEE4fillEw
PUBLIC 5ab0d 0 _ZNKSt9basic_iosIwSt11char_traitsIwEE6narrowEwc
PUBLIC 5ab21 0 _ZNKSt9basic_iosIwSt11char_traitsIwEE5widenEc
PUBLIC 5ab35 0 _ZNSt9basic_iosIwSt11char_traitsIwEEC2Ev
PUBLIC 5ab6d 0 _ZNSt9basic_iosIwSt11char_traitsIwEE15_M_cache_localeERKSt6locale
PUBLIC 5abbd 0 _ZNSt9basic_iosIwSt11char_traitsIwEE4initEPSt15basic_streambufIwS1_E
PUBLIC 5abed 0 _ZNSt9basic_iosIwSt11char_traitsIwEEC2EPSt15basic_streambufIwS1_E
PUBLIC 5ac3d 0 _ZNSt9basic_iosIwSt11char_traitsIwEE5imbueERKSt6locale
PUBLIC 5aca5 0 _ZNSt9basic_iosIwSt11char_traitsIwEE7copyfmtERKS2_
PUBLIC 5aea5 0 _ZNSdD1Ev
PUBLIC 5aef5 0 _ZThn8_NSdD1Ev
PUBLIC 5aefd 0 _ZTv0_n12_NSdD1Ev
PUBLIC 5af09 0 _ZNSt14basic_iostreamIwSt11char_traitsIwEED1Ev
PUBLIC 5af59 0 _ZThn8_NSt14basic_iostreamIwSt11char_traitsIwEED1Ev
PUBLIC 5af61 0 _ZTv0_n12_NSt14basic_iostreamIwSt11char_traitsIwEED1Ev
PUBLIC 5af6d 0 _ZNSt14basic_iostreamIwSt11char_traitsIwEED0Ev
PUBLIC 5afc1 0 _ZThn8_NSt14basic_iostreamIwSt11char_traitsIwEED0Ev
PUBLIC 5afc9 0 _ZTv0_n12_NSt14basic_iostreamIwSt11char_traitsIwEED0Ev
PUBLIC 5afd5 0 _ZNSdD0Ev
PUBLIC 5b029 0 _ZThn8_NSdD0Ev
PUBLIC 5b031 0 _ZTv0_n12_NSdD0Ev
PUBLIC 5b041 0 _ZNSdC2EPSt15basic_streambufIcSt11char_traitsIcEE
PUBLIC 5b0ad 0 _ZNSdC1EPSt15basic_streambufIcSt11char_traitsIcEE
PUBLIC 5b17d 0 _ZNSdD2Ev
PUBLIC 5b1b9 0 _ZNSdC2Ev
PUBLIC 5b221 0 _ZNSdC1Ev
PUBLIC 5b2f1 0 _ZNSt14basic_iostreamIwSt11char_traitsIwEEC2EPSt15basic_streambufIwS1_E
PUBLIC 5b35d 0 _ZNSt14basic_iostreamIwSt11char_traitsIwEEC1EPSt15basic_streambufIwS1_E
PUBLIC 5b42d 0 _ZNSt14basic_iostreamIwSt11char_traitsIwEED2Ev
PUBLIC 5b469 0 _ZNSt14basic_iostreamIwSt11char_traitsIwEEC2Ev
PUBLIC 5b4d1 0 _ZNSt14basic_iostreamIwSt11char_traitsIwEEC1Ev
PUBLIC 5b59d 0 _ZNSt13basic_istreamIwSt11char_traitsIwEED1Ev
PUBLIC 5b5d5 0 _ZTv0_n12_NSt13basic_istreamIwSt11char_traitsIwEED1Ev
PUBLIC 5b5e1 0 _ZNSiD1Ev
PUBLIC 5b619 0 _ZTv0_n12_NSiD1Ev
PUBLIC 5b64d 0 _ZNSiD0Ev
PUBLIC 5b689 0 _ZTv0_n12_NSiD0Ev
PUBLIC 5b695 0 _ZNSt13basic_istreamIwSt11char_traitsIwEED0Ev
PUBLIC 5b6d1 0 _ZTv0_n12_NSt13basic_istreamIwSt11char_traitsIwEED0Ev
PUBLIC 5b6dd 0 _ZNSiC2EPSt15basic_streambufIcSt11char_traitsIcEE
PUBLIC 5b709 0 _ZNSiC1EPSt15basic_streambufIcSt11char_traitsIcEE
PUBLIC 5b779 0 _ZNSiD2Ev
PUBLIC 5b791 0 _ZNSirsEPFRSiS_E
PUBLIC 5b799 0 _ZNSirsEPFRSt9basic_iosIcSt11char_traitsIcEES3_E
PUBLIC 5b7ad 0 _ZNSirsEPFRSt8ios_baseS0_E
PUBLIC 5b7c1 0 _ZNKSi6gcountEv
PUBLIC 5b7c5 0 _ZNSi7getlineEPci
PUBLIC 5b80d 0 _ZNSi5tellgEv
PUBLIC 5b8b9 0 _ZNSi5seekgESt4fposI11__mbstate_tE
PUBLIC 5b989 0 _ZNSi5seekgExSt12_Ios_Seekdir
PUBLIC 5ba35 0 _ZNSiC2Ev
PUBLIC 5ba5d 0 _ZNSiC1Ev
PUBLIC 5bacd 0 _ZNSi6sentryC2ERSib
PUBLIC 5bbd1 0 _ZNSi4syncEv
PUBLIC 5bc79 0 _ZNSi5ungetEv
PUBLIC 5bd2d 0 _ZNSi7putbackEc
PUBLIC 5bde9 0 _ZNSi8readsomeEPci
PUBLIC 5bec5 0 _ZNSi4readEPci
PUBLIC 5bf75 0 _ZNSi4peekEv
PUBLIC 5c029 0 _ZNSi3getERSt15basic_streambufIcSt11char_traitsIcEEc
PUBLIC 5c165 0 _ZNSi3getERSt15basic_streambufIcSt11char_traitsIcEE
PUBLIC 5c1a5 0 _ZNSi3getEPcic
PUBLIC 5c2d5 0 _ZNSi3getEPci
PUBLIC 5c31d 0 _ZNSi3getERc
PUBLIC 5c3ed 0 _ZNSi3getEv
PUBLIC 5c4b9 0 _ZNSirsEPSt15basic_streambufIcSt11char_traitsIcEE
PUBLIC 5c575 0 _ZNSirsERi
PUBLIC 5c659 0 _ZNSirsERs
PUBLIC 5c771 0 _ZNKSi6sentrycvbEv
PUBLIC 5c775 0 _ZSt2wsIcSt11char_traitsIcEERSt13basic_istreamIT_T0_ES6_
PUBLIC 5c81d 0 _ZStrsIcSt11char_traitsIcEERSt13basic_istreamIT_T0_ES6_RS3_
PUBLIC 5c8d1 0 _ZStrsISt11char_traitsIcEERSt13basic_istreamIcT_ES5_Rh
PUBLIC 5c8d5 0 _ZStrsISt11char_traitsIcEERSt13basic_istreamIcT_ES5_Ra
PUBLIC 5c8d9 0 _ZStrsISt11char_traitsIcEERSt13basic_istreamIcT_ES5_Ph
PUBLIC 5c8dd 0 _ZStrsISt11char_traitsIcEERSt13basic_istreamIcT_ES5_Pa
PUBLIC 5c8e1 0 _ZStrsIcSt11char_traitsIcEERSt13basic_istreamIT_T0_ES6_St8_SetfillIS3_E
PUBLIC 5c929 0 _ZStrsIcSt11char_traitsIcEERSt13basic_istreamIT_T0_ES6_St12_Setiosflags
PUBLIC 5c939 0 _ZStrsIcSt11char_traitsIcEERSt13basic_istreamIT_T0_ES6_St14_Resetiosflags
PUBLIC 5c94d 0 _ZStrsIcSt11char_traitsIcEERSt13basic_istreamIT_T0_ES6_St8_Setbase
PUBLIC 5c995 0 _ZStrsIcSt11char_traitsIcEERSt13basic_istreamIT_T0_ES6_St13_Setprecision
PUBLIC 5c9a1 0 _ZStrsIcSt11char_traitsIcEERSt13basic_istreamIT_T0_ES6_St5_Setw
PUBLIC 5c9ad 0 _ZNSi10_M_extractItEERSiRT_
PUBLIC 5ca85 0 _ZNSirsERt
PUBLIC 5ca89 0 _ZNSi10_M_extractIjEERSiRT_
PUBLIC 5cb61 0 _ZNSirsERj
PUBLIC 5cb65 0 _ZNSi10_M_extractIlEERSiRT_
PUBLIC 5cc3d 0 _ZNSirsERl
PUBLIC 5cc41 0 _ZNSi10_M_extractImEERSiRT_
PUBLIC 5cd19 0 _ZNSirsERm
PUBLIC 5cd1d 0 _ZNSi10_M_extractIbEERSiRT_
PUBLIC 5cdf5 0 _ZNSirsERb
PUBLIC 5cdf9 0 _ZNSi10_M_extractIxEERSiRT_
PUBLIC 5ced1 0 _ZNSirsERx
PUBLIC 5ced5 0 _ZNSi10_M_extractIyEERSiRT_
PUBLIC 5cfad 0 _ZNSirsERy
PUBLIC 5cfb1 0 _ZNSi10_M_extractIfEERSiRT_
PUBLIC 5d089 0 _ZNSirsERf
PUBLIC 5d08d 0 _ZNSi10_M_extractIdEERSiRT_
PUBLIC 5d165 0 _ZNSirsERd
PUBLIC 5d169 0 _ZNSi10_M_extractIeEERSiRT_
PUBLIC 5d241 0 _ZNSirsERe
PUBLIC 5d245 0 _ZNSi10_M_extractIPvEERSiRT_
PUBLIC 5d31d 0 _ZNSirsERPv
PUBLIC 5d321 0 _ZNSt13basic_istreamIwSt11char_traitsIwEEC2EPSt15basic_streambufIwS1_E
PUBLIC 5d34d 0 _ZNSt13basic_istreamIwSt11char_traitsIwEEC1EPSt15basic_streambufIwS1_E
PUBLIC 5d3b9 0 _ZNSt13basic_istreamIwSt11char_traitsIwEED2Ev
PUBLIC 5d3d1 0 _ZNSt13basic_istreamIwSt11char_traitsIwEErsEPFRS2_S3_E
PUBLIC 5d3d9 0 _ZNSt13basic_istreamIwSt11char_traitsIwEErsEPFRSt9basic_iosIwS1_ES5_E
PUBLIC 5d3ed 0 _ZNSt13basic_istreamIwSt11char_traitsIwEErsEPFRSt8ios_baseS4_E
PUBLIC 5d401 0 _ZNKSt13basic_istreamIwSt11char_traitsIwEE6gcountEv
PUBLIC 5d405 0 _ZNSt13basic_istreamIwSt11char_traitsIwEE7getlineEPwi
PUBLIC 5d439 0 _ZNSt13basic_istreamIwSt11char_traitsIwEE5tellgEv
PUBLIC 5d4e5 0 _ZNSt13basic_istreamIwSt11char_traitsIwEE5seekgESt4fposI11__mbstate_tE
PUBLIC 5d5b5 0 _ZNSt13basic_istreamIwSt11char_traitsIwEE5seekgExSt12_Ios_Seekdir
PUBLIC 5d661 0 _ZNSt13basic_istreamIwSt11char_traitsIwEEC2Ev
PUBLIC 5d689 0 _ZNSt13basic_istreamIwSt11char_traitsIwEEC1Ev
PUBLIC 5d6f9 0 _ZNSt13basic_istreamIwSt11char_traitsIwEE6sentryC1ERS2_b
PUBLIC 5d7f9 0 _ZNSt13basic_istreamIwSt11char_traitsIwEE4syncEv
PUBLIC 5d8a1 0 _ZNSt13basic_istreamIwSt11char_traitsIwEE5ungetEv
PUBLIC 5d959 0 _ZNSt13basic_istreamIwSt11char_traitsIwEE7putbackEw
PUBLIC 5da19 0 _ZNSt13basic_istreamIwSt11char_traitsIwEE8readsomeEPwi
PUBLIC 5daf5 0 _ZNSt13basic_istreamIwSt11char_traitsIwEE4readEPwi
PUBLIC 5dba5 0 _ZNSt13basic_istreamIwSt11char_traitsIwEE4peekEv
PUBLIC 5dc5d 0 _ZNSt13basic_istreamIwSt11char_traitsIwEE3getERSt15basic_streambufIwS1_Ew
PUBLIC 5dd99 0 _ZNSt13basic_istreamIwSt11char_traitsIwEE3getERSt15basic_streambufIwS1_E
PUBLIC 5ddc9 0 _ZNSt13basic_istreamIwSt11char_traitsIwEE3getEPwiw
PUBLIC 5def9 0 _ZNSt13basic_istreamIwSt11char_traitsIwEE3getEPwi
PUBLIC 5df2d 0 _ZNSt13basic_istreamIwSt11char_traitsIwEE3getERw
PUBLIC 5dffd 0 _ZNSt13basic_istreamIwSt11char_traitsIwEE3getEv
PUBLIC 5e0d1 0 _ZNSt13basic_istreamIwSt11char_traitsIwEErsEPSt15basic_streambufIwS1_E
PUBLIC 5e18d 0 _ZNSt13basic_istreamIwSt11char_traitsIwEErsERi
PUBLIC 5e271 0 _ZNSt13basic_istreamIwSt11char_traitsIwEErsERs
PUBLIC 5e389 0 _ZNKSt13basic_istreamIwSt11char_traitsIwEE6sentrycvbEv
PUBLIC 5e38d 0 _ZSt2wsIwSt11char_traitsIwEERSt13basic_istreamIT_T0_ES6_
PUBLIC 5e43d 0 _ZStrsIwSt11char_traitsIwEERSt13basic_istreamIT_T0_ES6_RS3_
PUBLIC 5e4f5 0 _ZStrsIwSt11char_traitsIwEERSt13basic_istreamIT_T0_ES6_PS3_
PUBLIC 5e71d 0 _ZStrsIwSt11char_traitsIwEERSt13basic_istreamIT_T0_ES6_St8_SetfillIS3_E
PUBLIC 5e755 0 _ZStrsIwSt11char_traitsIwEERSt13basic_istreamIT_T0_ES6_St12_Setiosflags
PUBLIC 5e765 0 _ZStrsIwSt11char_traitsIwEERSt13basic_istreamIT_T0_ES6_St14_Resetiosflags
PUBLIC 5e779 0 _ZStrsIwSt11char_traitsIwEERSt13basic_istreamIT_T0_ES6_St8_Setbase
PUBLIC 5e7c1 0 _ZStrsIwSt11char_traitsIwEERSt13basic_istreamIT_T0_ES6_St13_Setprecision
PUBLIC 5e7cd 0 _ZStrsIwSt11char_traitsIwEERSt13basic_istreamIT_T0_ES6_St5_Setw
PUBLIC 5e7d9 0 _ZNSt13basic_istreamIwSt11char_traitsIwEE10_M_extractItEERS2_RT_
PUBLIC 5e8b1 0 _ZNSt13basic_istreamIwSt11char_traitsIwEErsERt
PUBLIC 5e8b5 0 _ZNSt13basic_istreamIwSt11char_traitsIwEE10_M_extractIjEERS2_RT_
PUBLIC 5e98d 0 _ZNSt13basic_istreamIwSt11char_traitsIwEErsERj
PUBLIC 5e991 0 _ZNSt13basic_istreamIwSt11char_traitsIwEE10_M_extractIlEERS2_RT_
PUBLIC 5ea69 0 _ZNSt13basic_istreamIwSt11char_traitsIwEErsERl
PUBLIC 5ea6d 0 _ZNSt13basic_istreamIwSt11char_traitsIwEE10_M_extractImEERS2_RT_
PUBLIC 5eb45 0 _ZNSt13basic_istreamIwSt11char_traitsIwEErsERm
PUBLIC 5eb49 0 _ZNSt13basic_istreamIwSt11char_traitsIwEE10_M_extractIbEERS2_RT_
PUBLIC 5ec21 0 _ZNSt13basic_istreamIwSt11char_traitsIwEErsERb
PUBLIC 5ec25 0 _ZNSt13basic_istreamIwSt11char_traitsIwEE10_M_extractIxEERS2_RT_
PUBLIC 5ecfd 0 _ZNSt13basic_istreamIwSt11char_traitsIwEErsERx
PUBLIC 5ed01 0 _ZNSt13basic_istreamIwSt11char_traitsIwEE10_M_extractIyEERS2_RT_
PUBLIC 5edd9 0 _ZNSt13basic_istreamIwSt11char_traitsIwEErsERy
PUBLIC 5eddd 0 _ZNSt13basic_istreamIwSt11char_traitsIwEE10_M_extractIfEERS2_RT_
PUBLIC 5eeb5 0 _ZNSt13basic_istreamIwSt11char_traitsIwEErsERf
PUBLIC 5eeb9 0 _ZNSt13basic_istreamIwSt11char_traitsIwEE10_M_extractIdEERS2_RT_
PUBLIC 5ef91 0 _ZNSt13basic_istreamIwSt11char_traitsIwEErsERd
PUBLIC 5ef95 0 _ZNSt13basic_istreamIwSt11char_traitsIwEE10_M_extractIeEERS2_RT_
PUBLIC 5f06d 0 _ZNSt13basic_istreamIwSt11char_traitsIwEErsERe
PUBLIC 5f071 0 _ZNSt13basic_istreamIwSt11char_traitsIwEE10_M_extractIPvEERS2_RT_
PUBLIC 5f149 0 _ZNSt13basic_istreamIwSt11char_traitsIwEErsERPv
PUBLIC 5f165 0 _ZNSi7getlineEPcic
PUBLIC 5f2ed 0 _ZNSi6ignoreEii
PUBLIC 5f4c9 0 _ZStrsIcSt11char_traitsIcEERSt13basic_istreamIT_T0_ES6_PS3_
PUBLIC 5f715 0 _ZStrsIcSt11char_traitsIcESaIcEERSt13basic_istreamIT_T0_ES7_RSbIS4_S5_T1_E
PUBLIC 5f9e5 0 _ZSt7getlineIcSt11char_traitsIcESaIcEERSt13basic_istreamIT_T0_ES7_RSbIS4_S5_T1_ES4_
PUBLIC 5fc1d 0 _ZNSt13basic_istreamIwSt11char_traitsIwEE7getlineEPwiw
PUBLIC 5fdcd 0 _ZNSt13basic_istreamIwSt11char_traitsIwEE6ignoreEij
PUBLIC 5ffb5 0 _ZSt7getlineIwSt11char_traitsIwESaIwEERSt13basic_istreamIT_T0_ES7_RSbIS4_S5_T1_ES4_
PUBLIC 6020d 0 _ZNKSt10moneypunctIcLb0EE16do_decimal_pointEv
PUBLIC 60215 0 _ZNKSt10moneypunctIcLb0EE16do_thousands_sepEv
PUBLIC 6021d 0 _ZNKSt10moneypunctIcLb0EE14do_frac_digitsEv
PUBLIC 60225 0 _ZNKSt10moneypunctIcLb0EE13do_pos_formatEv
PUBLIC 60251 0 _ZNKSt10moneypunctIcLb0EE13do_neg_formatEv
PUBLIC 6027d 0 _ZNKSt10moneypunctIcLb1EE16do_decimal_pointEv
PUBLIC 60285 0 _ZNKSt10moneypunctIcLb1EE16do_thousands_sepEv
PUBLIC 6028d 0 _ZNKSt10moneypunctIcLb1EE14do_frac_digitsEv
PUBLIC 60295 0 _ZNKSt10moneypunctIcLb1EE13do_pos_formatEv
PUBLIC 602c1 0 _ZNKSt10moneypunctIcLb1EE13do_neg_formatEv
PUBLIC 602ed 0 _ZNKSt8numpunctIcE16do_decimal_pointEv
PUBLIC 602f5 0 _ZNKSt8numpunctIcE16do_thousands_sepEv
PUBLIC 602fd 0 _ZNKSt8time_getIcSt19istreambuf_iteratorIcSt11char_traitsIcEEE13do_date_orderEv
PUBLIC 60301 0 _ZNKSt8messagesIcE8do_closeEi
PUBLIC 60305 0 _ZNKSt7collateIcE7do_hashEPKcS2_
PUBLIC 603d9 0 _ZNSt8time_getIcSt19istreambuf_iteratorIcSt11char_traitsIcEEED2Ev
PUBLIC 603f9 0 _ZNSt15time_get_bynameIcSt19istreambuf_iteratorIcSt11char_traitsIcEEED1Ev
PUBLIC 60419 0 _ZNSt8time_getIcSt19istreambuf_iteratorIcSt11char_traitsIcEEED0Ev
PUBLIC 60441 0 _ZNSt8time_putIcSt19ostreambuf_iteratorIcSt11char_traitsIcEEED1Ev
PUBLIC 60461 0 _ZNSt15time_put_bynameIcSt19ostreambuf_iteratorIcSt11char_traitsIcEEED2Ev
PUBLIC 60481 0 _ZNSt8time_putIcSt19ostreambuf_iteratorIcSt11char_traitsIcEEED0Ev
PUBLIC 604a9 0 _ZNSt17__timepunct_cacheIcED1Ev
PUBLIC 604c9 0 _ZNSt17__timepunct_cacheIcED0Ev
PUBLIC 604dd 0 _ZNSt7num_putIcSt19ostreambuf_iteratorIcSt11char_traitsIcEEED1Ev
PUBLIC 604fd 0 _ZNSt7num_putIcSt19ostreambuf_iteratorIcSt11char_traitsIcEEED0Ev
PUBLIC 60525 0 _ZNSt7num_getIcSt19istreambuf_iteratorIcSt11char_traitsIcEEED2Ev
PUBLIC 60545 0 _ZNSt7num_getIcSt19istreambuf_iteratorIcSt11char_traitsIcEEED0Ev
PUBLIC 6056d 0 _ZNSt9money_putIcSt19ostreambuf_iteratorIcSt11char_traitsIcEEED2Ev
PUBLIC 6058d 0 _ZNSt9money_putIcSt19ostreambuf_iteratorIcSt11char_traitsIcEEED0Ev
PUBLIC 605b5 0 _ZNSt9money_getIcSt19istreambuf_iteratorIcSt11char_traitsIcEEED1Ev
PUBLIC 605d5 0 _ZNSt9money_getIcSt19istreambuf_iteratorIcSt11char_traitsIcEEED0Ev
PUBLIC 605fd 0 _ZNSt7collateIcED1Ev
PUBLIC 60631 0 _ZNSt16__numpunct_cacheIcED2Ev
PUBLIC 60671 0 _ZNSt16__numpunct_cacheIcED0Ev
PUBLIC 60685 0 _ZNSt18__moneypunct_cacheIcLb1EED1Ev
PUBLIC 606cd 0 _ZNSt18__moneypunct_cacheIcLb1EED0Ev
PUBLIC 606e1 0 _ZNSt18__moneypunct_cacheIcLb0EED1Ev
PUBLIC 60729 0 _ZNSt18__moneypunct_cacheIcLb0EED0Ev
PUBLIC 6073d 0 _ZNKSt7collateIcE10do_compareEPKcS2_S2_S2_
PUBLIC 607d9 0 _ZNSt14codecvt_bynameIcc11__mbstate_tED2Ev
PUBLIC 607f9 0 _ZNSt14codecvt_bynameIcc11__mbstate_tED0Ev
PUBLIC 60821 0 _ZNSt8messagesIcED2Ev
PUBLIC 60869 0 _ZNSt15messages_bynameIcED2Ev
PUBLIC 60889 0 _ZNSt15messages_bynameIcED0Ev
PUBLIC 608b1 0 _ZNSt8messagesIcED0Ev
PUBLIC 608c5 0 _ZNSt11__timepunctIcED2Ev
PUBLIC 60915 0 _ZNSt11__timepunctIcED0Ev
PUBLIC 60929 0 _ZNKSt8messagesIcE7do_openERKSsRKSt6locale
PUBLIC 60935 0 _ZNSt15numpunct_bynameIcED1Ev
PUBLIC 60955 0 _ZNSt15numpunct_bynameIcED0Ev
PUBLIC 6097d 0 _ZNKSt8numpunctIcE12do_falsenameEv
PUBLIC 60995 0 _ZNKSt8numpunctIcE11do_truenameEv
PUBLIC 609ad 0 _ZNKSt8numpunctIcE11do_groupingEv
PUBLIC 609c5 0 _ZNKSt10moneypunctIcLb1EE16do_negative_signEv
PUBLIC 609dd 0 _ZNKSt10moneypunctIcLb1EE16do_positive_signEv
PUBLIC 609f5 0 _ZNKSt10moneypunctIcLb1EE14do_curr_symbolEv
PUBLIC 60a0d 0 _ZNKSt10moneypunctIcLb1EE11do_groupingEv
PUBLIC 60a25 0 _ZNKSt10moneypunctIcLb0EE16do_negative_signEv
PUBLIC 60a3d 0 _ZNKSt10moneypunctIcLb0EE16do_positive_signEv
PUBLIC 60a55 0 _ZNKSt10moneypunctIcLb0EE14do_curr_symbolEv
PUBLIC 60a6d 0 _ZNKSt10moneypunctIcLb0EE11do_groupingEv
PUBLIC 60a85 0 _ZNSt17moneypunct_bynameIcLb1EED1Ev
PUBLIC 60aa5 0 _ZNSt17moneypunct_bynameIcLb1EED0Ev
PUBLIC 60acd 0 _ZNSt17moneypunct_bynameIcLb0EED1Ev
PUBLIC 60aed 0 _ZNSt17moneypunct_bynameIcLb0EED0Ev
PUBLIC 60b15 0 _ZNSt15time_put_bynameIcSt19ostreambuf_iteratorIcSt11char_traitsIcEEED0Ev
PUBLIC 60b3d 0 _ZNSt15time_get_bynameIcSt19istreambuf_iteratorIcSt11char_traitsIcEEED0Ev
PUBLIC 60b65 0 _ZNSt14collate_bynameIcED0Ev
PUBLIC 60b9d 0 _ZNSt14collate_bynameIcED1Ev
PUBLIC 60bd1 0 _ZNSt7collateIcED0Ev
PUBLIC 60c09 0 _ZNKSt7collateIcE12do_transformEPKcS2_
PUBLIC 60d69 0 _ZNSt10moneypunctIcLb0EEC2Ej
PUBLIC 60da5 0 _ZNSt10moneypunctIcLb0EEC1EPSt18__moneypunct_cacheIcLb0EEj
PUBLIC 60ddd 0 _ZNSt10moneypunctIcLb0EEC2EP15__locale_structPKcj
PUBLIC 60e19 0 _ZNKSt10moneypunctIcLb0EE13decimal_pointEv
PUBLIC 60e25 0 _ZNKSt10moneypunctIcLb0EE13thousands_sepEv
PUBLIC 60e31 0 _ZNKSt10moneypunctIcLb0EE8groupingEv
PUBLIC 60e41 0 _ZNKSt10moneypunctIcLb0EE11curr_symbolEv
PUBLIC 60e51 0 _ZNKSt10moneypunctIcLb0EE13positive_signEv
PUBLIC 60e61 0 _ZNKSt10moneypunctIcLb0EE13negative_signEv
PUBLIC 60e71 0 _ZNKSt10moneypunctIcLb0EE11frac_digitsEv
PUBLIC 60e7d 0 _ZNKSt10moneypunctIcLb0EE10pos_formatEv
PUBLIC 60ec9 0 _ZNKSt10moneypunctIcLb0EE10neg_formatEv
PUBLIC 60f15 0 _ZNSt10moneypunctIcLb1EEC2Ej
PUBLIC 60f51 0 _ZNSt10moneypunctIcLb1EEC2EPSt18__moneypunct_cacheIcLb1EEj
PUBLIC 60f89 0 _ZNSt10moneypunctIcLb1EEC2EPiPKcj
PUBLIC 60fc5 0 _ZNKSt10moneypunctIcLb1EE13decimal_pointEv
PUBLIC 60fd1 0 _ZNKSt10moneypunctIcLb1EE13thousands_sepEv
PUBLIC 60fdd 0 _ZNKSt10moneypunctIcLb1EE8groupingEv
PUBLIC 60fed 0 _ZNKSt10moneypunctIcLb1EE11curr_symbolEv
PUBLIC 60ffd 0 _ZNKSt10moneypunctIcLb1EE13positive_signEv
PUBLIC 6100d 0 _ZNKSt10moneypunctIcLb1EE13negative_signEv
PUBLIC 6101d 0 _ZNKSt10moneypunctIcLb1EE11frac_digitsEv
PUBLIC 61029 0 _ZNKSt10moneypunctIcLb1EE10pos_formatEv
PUBLIC 61075 0 _ZNKSt10moneypunctIcLb1EE10neg_formatEv
PUBLIC 610c1 0 _ZNSt18__moneypunct_cacheIcLb0EEC1Ej
PUBLIC 61121 0 _ZNSt18__moneypunct_cacheIcLb1EEC2Ej
PUBLIC 61181 0 _ZNSt17moneypunct_bynameIcLb0EEC2EPKcj
PUBLIC 61219 0 _ZNSt17moneypunct_bynameIcLb1EEC2EPKcj
PUBLIC 612b1 0 _ZNSt9money_getIcSt19istreambuf_iteratorIcSt11char_traitsIcEEEC2Ej
PUBLIC 612d1 0 _ZNKSt9money_getIcSt19istreambuf_iteratorIcSt11char_traitsIcEEE3getES3_S3_bRSt8ios_baseRSt12_Ios_IostateRe
PUBLIC 61315 0 _ZNKSt9money_getIcSt19istreambuf_iteratorIcSt11char_traitsIcEEE3getES3_S3_bRSt8ios_baseRSt12_Ios_IostateRSs
PUBLIC 61359 0 _ZNSt9money_putIcSt19ostreambuf_iteratorIcSt11char_traitsIcEEEC2Ej
PUBLIC 61379 0 _ZNKSt9money_putIcSt19ostreambuf_iteratorIcSt11char_traitsIcEEE3putES3_bRSt8ios_basece
PUBLIC 613b1 0 _ZNKSt9money_putIcSt19ostreambuf_iteratorIcSt11char_traitsIcEEE3putES3_bRSt8ios_basecRKSs
PUBLIC 613e5 0 _ZNSt8numpunctIcEC1Ej
PUBLIC 6141d 0 _ZNSt8numpunctIcEC1EPSt16__numpunct_cacheIcEj
PUBLIC 61455 0 _ZNSt8numpunctIcEC1EPij
PUBLIC 61491 0 _ZNKSt8numpunctIcE13decimal_pointEv
PUBLIC 6149d 0 _ZNKSt8numpunctIcE13thousands_sepEv
PUBLIC 614a9 0 _ZNKSt8numpunctIcE8groupingEv
PUBLIC 614b9 0 _ZNKSt8numpunctIcE8truenameEv
PUBLIC 614c9 0 _ZNKSt8numpunctIcE9falsenameEv
PUBLIC 614d9 0 _ZNSt16__numpunct_cacheIcEC2Ej
PUBLIC 61519 0 _ZNSt15numpunct_bynameIcEC2EPKcj
PUBLIC 615ad 0 _ZNSt7num_getIcSt19istreambuf_iteratorIcSt11char_traitsIcEEEC1Ej
PUBLIC 615cd 0 _ZNKSt7num_getIcSt19istreambuf_iteratorIcSt11char_traitsIcEEE3getES3_S3_RSt8ios_baseRSt12_Ios_IostateRb
PUBLIC 61609 0 _ZNKSt7num_getIcSt19istreambuf_iteratorIcSt11char_traitsIcEEE3getES3_S3_RSt8ios_baseRSt12_Ios_IostateRl
PUBLIC 61645 0 _ZNKSt7num_getIcSt19istreambuf_iteratorIcSt11char_traitsIcEEE3getES3_S3_RSt8ios_baseRSt12_Ios_IostateRt
PUBLIC 61681 0 _ZNKSt7num_getIcSt19istreambuf_iteratorIcSt11char_traitsIcEEE3getES3_S3_RSt8ios_baseRSt12_Ios_IostateRj
PUBLIC 616bd 0 _ZNKSt7num_getIcSt19istreambuf_iteratorIcSt11char_traitsIcEEE3getES3_S3_RSt8ios_baseRSt12_Ios_IostateRm
PUBLIC 616f9 0 _ZNKSt7num_getIcSt19istreambuf_iteratorIcSt11char_traitsIcEEE3getES3_S3_RSt8ios_baseRSt12_Ios_IostateRx
PUBLIC 61735 0 _ZNKSt7num_getIcSt19istreambuf_iteratorIcSt11char_traitsIcEEE3getES3_S3_RSt8ios_baseRSt12_Ios_IostateRy
PUBLIC 61771 0 _ZNKSt7num_getIcSt19istreambuf_iteratorIcSt11char_traitsIcEEE3getES3_S3_RSt8ios_baseRSt12_Ios_IostateRf
PUBLIC 617ad 0 _ZNKSt7num_getIcSt19istreambuf_iteratorIcSt11char_traitsIcEEE3getES3_S3_RSt8ios_baseRSt12_Ios_IostateRd
PUBLIC 617e9 0 _ZNKSt7num_getIcSt19istreambuf_iteratorIcSt11char_traitsIcEEE3getES3_S3_RSt8ios_baseRSt12_Ios_IostateRe
PUBLIC 61825 0 _ZNKSt7num_getIcSt19istreambuf_iteratorIcSt11char_traitsIcEEE3getES3_S3_RSt8ios_baseRSt12_Ios_IostateRPv
PUBLIC 61861 0 _ZNSt7num_putIcSt19ostreambuf_iteratorIcSt11char_traitsIcEEEC1Ej
PUBLIC 61881 0 _ZNKSt7num_putIcSt19ostreambuf_iteratorIcSt11char_traitsIcEEE3putES3_RSt8ios_basecb
PUBLIC 618b1 0 _ZNKSt7num_putIcSt19ostreambuf_iteratorIcSt11char_traitsIcEEE3putES3_RSt8ios_basecl
PUBLIC 618dd 0 _ZNKSt7num_putIcSt19ostreambuf_iteratorIcSt11char_traitsIcEEE3putES3_RSt8ios_basecm
PUBLIC 61909 0 _ZNKSt7num_putIcSt19ostreambuf_iteratorIcSt11char_traitsIcEEE3putES3_RSt8ios_basecx
PUBLIC 6193d 0 _ZNKSt7num_putIcSt19ostreambuf_iteratorIcSt11char_traitsIcEEE3putES3_RSt8ios_basecy
PUBLIC 61971 0 _ZNKSt7num_putIcSt19ostreambuf_iteratorIcSt11char_traitsIcEEE3putES3_RSt8ios_basecd
PUBLIC 619a1 0 _ZNKSt7num_putIcSt19ostreambuf_iteratorIcSt11char_traitsIcEEE3putES3_RSt8ios_basece
PUBLIC 619d1 0 _ZNKSt7num_putIcSt19ostreambuf_iteratorIcSt11char_traitsIcEEE3putES3_RSt8ios_basecPKv
PUBLIC 619fd 0 _ZNSt11__timepunctIcEC2Ej
PUBLIC 61a41 0 _ZNSt11__timepunctIcEC1EPSt17__timepunct_cacheIcEj
PUBLIC 61a85 0 _ZNSt11__timepunctIcEC1EP15__locale_structPKcj
PUBLIC 61b55 0 _ZNKSt11__timepunctIcE15_M_date_formatsEPPKc
PUBLIC 61b61 0 _ZNKSt11__timepunctIcE15_M_time_formatsEPPKc
PUBLIC 61b6d 0 _ZNKSt11__timepunctIcE20_M_date_time_formatsEPPKc
PUBLIC 61b79 0 _ZNKSt11__timepunctIcE15_M_am_pm_formatEPKc
PUBLIC 61b7d 0 _ZNKSt11__timepunctIcE8_M_am_pmEPPKc
PUBLIC 61b89 0 _ZNKSt11__timepunctIcE7_M_daysEPPKc
PUBLIC 61ba9 0 _ZNKSt11__timepunctIcE19_M_days_abbreviatedEPPKc
PUBLIC 61bc9 0 _ZNKSt11__timepunctIcE9_M_monthsEPPKc
PUBLIC 61c09 0 _ZNKSt11__timepunctIcE21_M_months_abbreviatedEPPKc
PUBLIC 61c55 0 _ZNSt17__timepunct_cacheIcEC2Ej
PUBLIC 61cfd 0 _ZNSt8time_putIcSt19ostreambuf_iteratorIcSt11char_traitsIcEEEC2Ej
PUBLIC 61d1d 0 _ZNKSt8time_putIcSt19ostreambuf_iteratorIcSt11char_traitsIcEEE3putES3_RSt8ios_basecPK2tmcc
PUBLIC 61d59 0 _ZNSt15time_put_bynameIcSt19ostreambuf_iteratorIcSt11char_traitsIcEEEC2EPKcj
PUBLIC 61d79 0 _ZNSt8time_getIcSt19istreambuf_iteratorIcSt11char_traitsIcEEEC2Ej
PUBLIC 61d99 0 _ZNKSt8time_getIcSt19istreambuf_iteratorIcSt11char_traitsIcEEE10date_orderEv
PUBLIC 61da5 0 _ZNKSt8time_getIcSt19istreambuf_iteratorIcSt11char_traitsIcEEE8get_timeES3_S3_RSt8ios_baseRSt12_Ios_IostateP2tm
PUBLIC 61de1 0 _ZNKSt8time_getIcSt19istreambuf_iteratorIcSt11char_traitsIcEEE8get_dateES3_S3_RSt8ios_baseRSt12_Ios_IostateP2tm
PUBLIC 61e1d 0 _ZNKSt8time_getIcSt19istreambuf_iteratorIcSt11char_traitsIcEEE11get_weekdayES3_S3_RSt8ios_baseRSt12_Ios_IostateP2tm
PUBLIC 61e59 0 _ZNKSt8time_getIcSt19istreambuf_iteratorIcSt11char_traitsIcEEE13get_monthnameES3_S3_RSt8ios_baseRSt12_Ios_IostateP2tm
PUBLIC 61e95 0 _ZNKSt8time_getIcSt19istreambuf_iteratorIcSt11char_traitsIcEEE8get_yearES3_S3_RSt8ios_baseRSt12_Ios_IostateP2tm
PUBLIC 61ed1 0 _ZNSt15time_get_bynameIcSt19istreambuf_iteratorIcSt11char_traitsIcEEEC2EPKcj
PUBLIC 61ef1 0 _ZNSt8messagesIcEC1Ej
PUBLIC 61f2d 0 _ZNSt8messagesIcEC1EP15__locale_structPKcj
PUBLIC 61fe1 0 _ZNKSt8messagesIcE4openERKSsRKSt6locale
PUBLIC 61fed 0 _ZNKSt8messagesIcE4openERKSsRKSt6localePKc
PUBLIC 6200d 0 _ZNKSt8messagesIcE3getEiiiRKSs
PUBLIC 62029 0 _ZNKSt8messagesIcE5closeEi
PUBLIC 62035 0 _ZNKSt8messagesIcE18_M_convert_to_charERKSs
PUBLIC 62039 0 _ZNKSt8messagesIcE20_M_convert_from_charEPc
PUBLIC 62051 0 _ZNSt15messages_bynameIcEC2EPKcj
PUBLIC 62135 0 _ZNSt14codecvt_bynameIcc11__mbstate_tEC1EPKcj
PUBLIC 6219d 0 _ZNSt7collateIcEC2Ej
PUBLIC 621d1 0 _ZNSt7collateIcEC2EP15__locale_structj
PUBLIC 62205 0 _ZNKSt7collateIcE7compareEPKcS2_S2_S2_
PUBLIC 62219 0 _ZNKSt7collateIcE9transformEPKcS2_
PUBLIC 62229 0 _ZNKSt7collateIcE4hashEPKcS2_
PUBLIC 62235 0 _ZNSt14collate_bynameIcEC2EPKcj
PUBLIC 622b9 0 _ZSt9use_facetISt5ctypeIcEERKT_RKSt6locale
PUBLIC 62309 0 _ZNKSt8time_putIcSt19ostreambuf_iteratorIcSt11char_traitsIcEEE3putES3_RSt8ios_basecPK2tmPKcSB_
PUBLIC 62465 0 _ZSt9use_facetISt7codecvtIcc11__mbstate_tEERKT_RKSt6locale
PUBLIC 624b5 0 _ZSt9use_facetISt7collateIcEERKT_RKSt6locale
PUBLIC 62505 0 _ZSt9use_facetISt8numpunctIcEERKT_RKSt6locale
PUBLIC 62555 0 _ZNSt16__numpunct_cacheIcE8_M_cacheERKSt6locale
PUBLIC 627ad 0 _ZSt9use_facetISt7num_putIcSt19ostreambuf_iteratorIcSt11char_traitsIcEEEERKT_RKSt6locale
PUBLIC 627fd 0 _ZSt9use_facetISt7num_getIcSt19istreambuf_iteratorIcSt11char_traitsIcEEEERKT_RKSt6locale
PUBLIC 6284d 0 _ZSt9use_facetISt10moneypunctIcLb1EEERKT_RKSt6locale
PUBLIC 6289d 0 _ZNSt18__moneypunct_cacheIcLb1EE8_M_cacheERKSt6locale
PUBLIC 62b6d 0 _ZSt9use_facetISt10moneypunctIcLb0EEERKT_RKSt6locale
PUBLIC 62bbd 0 _ZNSt18__moneypunct_cacheIcLb0EE8_M_cacheERKSt6locale
PUBLIC 62e8d 0 _ZSt9use_facetISt9money_putIcSt19ostreambuf_iteratorIcSt11char_traitsIcEEEERKT_RKSt6locale
PUBLIC 62edd 0 _ZSt9use_facetISt9money_getIcSt19istreambuf_iteratorIcSt11char_traitsIcEEEERKT_RKSt6locale
PUBLIC 62f2d 0 _ZSt9use_facetISt11__timepunctIcEERKT_RKSt6locale
PUBLIC 62f7d 0 _ZNKSt8time_putIcSt19ostreambuf_iteratorIcSt11char_traitsIcEEE6do_putES3_RSt8ios_basecPK2tmcc
PUBLIC 6303d 0 _ZSt9use_facetISt8time_putIcSt19ostreambuf_iteratorIcSt11char_traitsIcEEEERKT_RKSt6locale
PUBLIC 6308d 0 _ZSt9use_facetISt8time_getIcSt19istreambuf_iteratorIcSt11char_traitsIcEEEERKT_RKSt6locale
PUBLIC 630dd 0 _ZSt9use_facetISt8messagesIcEERKT_RKSt6locale
PUBLIC 6312d 0 _ZSt9has_facetISt5ctypeIcEEbRKSt6locale
PUBLIC 6317d 0 _ZSt9has_facetISt7codecvtIcc11__mbstate_tEEbRKSt6locale
PUBLIC 631cd 0 _ZSt9has_facetISt7collateIcEEbRKSt6locale
PUBLIC 6321d 0 _ZSt9has_facetISt8numpunctIcEEbRKSt6locale
PUBLIC 6326d 0 _ZSt9has_facetISt7num_putIcSt19ostreambuf_iteratorIcSt11char_traitsIcEEEEbRKSt6locale
PUBLIC 632bd 0 _ZSt9has_facetISt7num_getIcSt19istreambuf_iteratorIcSt11char_traitsIcEEEEbRKSt6locale
PUBLIC 6330d 0 _ZSt9has_facetISt10moneypunctIcLb0EEEbRKSt6locale
PUBLIC 6335d 0 _ZSt9has_facetISt9money_putIcSt19ostreambuf_iteratorIcSt11char_traitsIcEEEEbRKSt6locale
PUBLIC 633ad 0 _ZSt9has_facetISt9money_getIcSt19istreambuf_iteratorIcSt11char_traitsIcEEEEbRKSt6locale
PUBLIC 633fd 0 _ZSt9has_facetISt11__timepunctIcEEbRKSt6locale
PUBLIC 6344d 0 _ZSt9has_facetISt8time_putIcSt19ostreambuf_iteratorIcSt11char_traitsIcEEEEbRKSt6locale
PUBLIC 6349d 0 _ZSt9has_facetISt8time_getIcSt19istreambuf_iteratorIcSt11char_traitsIcEEEEbRKSt6locale
PUBLIC 634ed 0 _ZSt9has_facetISt8messagesIcEEbRKSt6locale
PUBLIC 636cd 0 _ZNKSt7num_putIcSt19ostreambuf_iteratorIcSt11char_traitsIcEEE12_M_group_intEPKcjcRSt8ios_basePcS9_Ri
PUBLIC 636f9 0 _ZNKSt7num_putIcSt19ostreambuf_iteratorIcSt11char_traitsIcEEE14_M_group_floatEPKcjcS6_PcS7_Ri
PUBLIC 6375d 0 _ZNKSt9money_putIcSt19ostreambuf_iteratorIcSt11char_traitsIcEEE9_M_insertILb1EEES3_S3_RSt8ios_basecRKSs
PUBLIC 63cd1 0 _ZNKSt9money_putIcSt19ostreambuf_iteratorIcSt11char_traitsIcEEE9_M_insertILb0EEES3_S3_RSt8ios_basecRKSs
PUBLIC 64245 0 _ZNKSt9money_putIcSt19ostreambuf_iteratorIcSt11char_traitsIcEEE6do_putES3_bRSt8ios_basecRKSs
PUBLIC 6428d 0 _ZNKSt9money_putIcSt19ostreambuf_iteratorIcSt11char_traitsIcEEE6do_putES3_bRSt8ios_basece
PUBLIC 6453d 0 _ZNKSt7num_putIcSt19ostreambuf_iteratorIcSt11char_traitsIcEEE6_M_padEciRSt8ios_basePcPKcRi
PUBLIC 6455d 0 _ZNKSt7num_putIcSt19ostreambuf_iteratorIcSt11char_traitsIcEEE15_M_insert_floatIeEES3_S3_RSt8ios_baseccT_
PUBLIC 64859 0 _ZNKSt7num_putIcSt19ostreambuf_iteratorIcSt11char_traitsIcEEE6do_putES3_RSt8ios_basece
PUBLIC 6488d 0 _ZNKSt7num_putIcSt19ostreambuf_iteratorIcSt11char_traitsIcEEE15_M_insert_floatIdEES3_S3_RSt8ios_baseccT_
PUBLIC 64b89 0 _ZNKSt7num_putIcSt19ostreambuf_iteratorIcSt11char_traitsIcEEE6do_putES3_RSt8ios_basecd
PUBLIC 64c41 0 _ZNKSt7num_putIcSt19ostreambuf_iteratorIcSt11char_traitsIcEEE13_M_insert_intImEES3_S3_RSt8ios_basecT_
PUBLIC 64e55 0 _ZNKSt7num_putIcSt19ostreambuf_iteratorIcSt11char_traitsIcEEE6do_putES3_RSt8ios_basecPKv
PUBLIC 64eb1 0 _ZNKSt7num_putIcSt19ostreambuf_iteratorIcSt11char_traitsIcEEE6do_putES3_RSt8ios_basecm
PUBLIC 64edd 0 _ZNKSt7num_putIcSt19ostreambuf_iteratorIcSt11char_traitsIcEEE13_M_insert_intIlEES3_S3_RSt8ios_basecT_
PUBLIC 65121 0 _ZNKSt7num_putIcSt19ostreambuf_iteratorIcSt11char_traitsIcEEE6do_putES3_RSt8ios_basecl
PUBLIC 6514d 0 _ZNKSt7num_putIcSt19ostreambuf_iteratorIcSt11char_traitsIcEEE6do_putES3_RSt8ios_basecb
PUBLIC 654f9 0 _ZNKSt7num_putIcSt19ostreambuf_iteratorIcSt11char_traitsIcEEE13_M_insert_intIyEES3_S3_RSt8ios_basecT_
PUBLIC 65709 0 _ZNKSt7num_putIcSt19ostreambuf_iteratorIcSt11char_traitsIcEEE6do_putES3_RSt8ios_basecy
PUBLIC 65735 0 _ZNKSt7num_putIcSt19ostreambuf_iteratorIcSt11char_traitsIcEEE13_M_insert_intIxEES3_S3_RSt8ios_basecT_
PUBLIC 65999 0 _ZNKSt7num_putIcSt19ostreambuf_iteratorIcSt11char_traitsIcEEE6do_putES3_RSt8ios_basecx
PUBLIC 65a01 0 _ZNKSt8time_getIcSt19istreambuf_iteratorIcSt11char_traitsIcEEE14_M_extract_numES3_S3_RiiijRSt8ios_baseRSt12_Ios_Iostate
PUBLIC 65b41 0 _ZNKSt8time_getIcSt19istreambuf_iteratorIcSt11char_traitsIcEEE11do_get_yearES3_S3_RSt8ios_baseRSt12_Ios_IostateP2tm
PUBLIC 65c11 0 _ZNKSt9money_getIcSt19istreambuf_iteratorIcSt11char_traitsIcEEE10_M_extractILb1EEES3_S3_S3_RSt8ios_baseRSt12_Ios_IostateRSs
PUBLIC 66591 0 _ZNKSt9money_getIcSt19istreambuf_iteratorIcSt11char_traitsIcEEE10_M_extractILb0EEES3_S3_S3_RSt8ios_baseRSt12_Ios_IostateRSs
PUBLIC 66f11 0 _ZNKSt9money_getIcSt19istreambuf_iteratorIcSt11char_traitsIcEEE6do_getES3_S3_bRSt8ios_baseRSt12_Ios_IostateRSs
PUBLIC 67019 0 _ZNKSt9money_getIcSt19istreambuf_iteratorIcSt11char_traitsIcEEE6do_getES3_S3_bRSt8ios_baseRSt12_Ios_IostateRe
PUBLIC 670c9 0 _ZNKSt8time_getIcSt19istreambuf_iteratorIcSt11char_traitsIcEEE24_M_extract_wday_or_monthES3_S3_RiPPKcjRSt8ios_baseRSt12_Ios_Iostate
PUBLIC 673ed 0 _ZNKSt8time_getIcSt19istreambuf_iteratorIcSt11char_traitsIcEEE16do_get_monthnameES3_S3_RSt8ios_baseRSt12_Ios_IostateP2tm
PUBLIC 6754d 0 _ZNKSt8time_getIcSt19istreambuf_iteratorIcSt11char_traitsIcEEE14do_get_weekdayES3_S3_RSt8ios_baseRSt12_Ios_IostateP2tm
PUBLIC 6765d 0 _ZNKSt8time_getIcSt19istreambuf_iteratorIcSt11char_traitsIcEEE15_M_extract_nameES3_S3_RiPPKcjRSt8ios_baseRSt12_Ios_Iostate
PUBLIC 679a1 0 _ZNKSt8time_getIcSt19istreambuf_iteratorIcSt11char_traitsIcEEE21_M_extract_via_formatES3_S3_RSt8ios_baseRSt12_Ios_IostateP2tmPKc
PUBLIC 683a1 0 _ZNKSt8time_getIcSt19istreambuf_iteratorIcSt11char_traitsIcEEE11do_get_dateES3_S3_RSt8ios_baseRSt12_Ios_IostateP2tm
PUBLIC 68439 0 _ZNKSt8time_getIcSt19istreambuf_iteratorIcSt11char_traitsIcEEE11do_get_timeES3_S3_RSt8ios_baseRSt12_Ios_IostateP2tm
PUBLIC 684d1 0 _ZNKSt7num_getIcSt19istreambuf_iteratorIcSt11char_traitsIcEEE16_M_extract_floatES3_S3_RSt8ios_baseRSt12_Ios_IostateRSs
PUBLIC 68d49 0 _ZNKSt7num_getIcSt19istreambuf_iteratorIcSt11char_traitsIcEEE6do_getES3_S3_RSt8ios_baseRSt12_Ios_IostateRe
PUBLIC 68e0d 0 _ZNKSt7num_getIcSt19istreambuf_iteratorIcSt11char_traitsIcEEE6do_getES3_S3_RSt8ios_baseRSt12_Ios_IostateRd
PUBLIC 68ed5 0 _ZNKSt7num_getIcSt19istreambuf_iteratorIcSt11char_traitsIcEEE6do_getES3_S3_RSt8ios_baseRSt12_Ios_IostateRf
PUBLIC 68f99 0 _ZNKSt7num_getIcSt19istreambuf_iteratorIcSt11char_traitsIcEEE14_M_extract_intIyEES3_S3_S3_RSt8ios_baseRSt12_Ios_IostateRT_
PUBLIC 695f9 0 _ZNKSt7num_getIcSt19istreambuf_iteratorIcSt11char_traitsIcEEE6do_getES3_S3_RSt8ios_baseRSt12_Ios_IostateRy
PUBLIC 69631 0 _ZNKSt7num_getIcSt19istreambuf_iteratorIcSt11char_traitsIcEEE14_M_extract_intIxEES3_S3_S3_RSt8ios_baseRSt12_Ios_IostateRT_
PUBLIC 69ccd 0 _ZNKSt7num_getIcSt19istreambuf_iteratorIcSt11char_traitsIcEEE6do_getES3_S3_RSt8ios_baseRSt12_Ios_IostateRx
PUBLIC 69d05 0 _ZNKSt7num_getIcSt19istreambuf_iteratorIcSt11char_traitsIcEEE14_M_extract_intImEES3_S3_S3_RSt8ios_baseRSt12_Ios_IostateRT_
PUBLIC 6a2c1 0 _ZNKSt7num_getIcSt19istreambuf_iteratorIcSt11char_traitsIcEEE6do_getES3_S3_RSt8ios_baseRSt12_Ios_IostateRPv
PUBLIC 6a31d 0 _ZNKSt7num_getIcSt19istreambuf_iteratorIcSt11char_traitsIcEEE6do_getES3_S3_RSt8ios_baseRSt12_Ios_IostateRm
PUBLIC 6a355 0 _ZNKSt7num_getIcSt19istreambuf_iteratorIcSt11char_traitsIcEEE14_M_extract_intIjEES3_S3_S3_RSt8ios_baseRSt12_Ios_IostateRT_
PUBLIC 6a911 0 _ZNKSt7num_getIcSt19istreambuf_iteratorIcSt11char_traitsIcEEE6do_getES3_S3_RSt8ios_baseRSt12_Ios_IostateRj
PUBLIC 6a949 0 _ZNKSt7num_getIcSt19istreambuf_iteratorIcSt11char_traitsIcEEE14_M_extract_intItEES3_S3_S3_RSt8ios_baseRSt12_Ios_IostateRT_
PUBLIC 6af25 0 _ZNKSt7num_getIcSt19istreambuf_iteratorIcSt11char_traitsIcEEE6do_getES3_S3_RSt8ios_baseRSt12_Ios_IostateRt
PUBLIC 6af5d 0 _ZNKSt7num_getIcSt19istreambuf_iteratorIcSt11char_traitsIcEEE14_M_extract_intIlEES3_S3_S3_RSt8ios_baseRSt12_Ios_IostateRT_
PUBLIC 6b541 0 _ZNKSt7num_getIcSt19istreambuf_iteratorIcSt11char_traitsIcEEE6do_getES3_S3_RSt8ios_baseRSt12_Ios_IostateRl
PUBLIC 6b579 0 _ZNKSt7num_getIcSt19istreambuf_iteratorIcSt11char_traitsIcEEE6do_getES3_S3_RSt8ios_baseRSt12_Ios_IostateRb
PUBLIC 6b981 0 _ZN9__gnu_cxx18stdio_sync_filebufIcSt11char_traitsIcEE7seekposESt4fposI11__mbstate_tESt13_Ios_Openmode
PUBLIC 6b9ad 0 _ZN9__gnu_cxx18stdio_sync_filebufIwSt11char_traitsIwEE7seekposESt4fposI11__mbstate_tESt13_Ios_Openmode
PUBLIC 6b9d9 0 _ZN9__gnu_cxx18stdio_sync_filebufIcSt11char_traitsIcEE6xsputnEPKci
PUBLIC 6b9e5 0 _ZN9__gnu_cxx18stdio_sync_filebufIcSt11char_traitsIcEE6xsgetnEPci
PUBLIC 6ba0d 0 _ZN9__gnu_cxx18stdio_sync_filebufIcSt11char_traitsIcEED1Ev
PUBLIC 6ba31 0 _ZN9__gnu_cxx18stdio_sync_filebufIwSt11char_traitsIwEED1Ev
PUBLIC 6ba55 0 _ZN9__gnu_cxx18stdio_sync_filebufIwSt11char_traitsIwEE6xsputnEPKwi
PUBLIC 6bacd 0 _ZN9__gnu_cxx18stdio_sync_filebufIwSt11char_traitsIwEE6xsgetnEPwi
PUBLIC 6bb61 0 _ZN9__gnu_cxx18stdio_sync_filebufIwSt11char_traitsIwEE5uflowEv
PUBLIC 6bb71 0 _ZN9__gnu_cxx18stdio_sync_filebufIwSt11char_traitsIwEE7seekoffExSt12_Ios_SeekdirSt13_Ios_Openmode
PUBLIC 6bbc9 0 _ZN9__gnu_cxx18stdio_sync_filebufIcSt11char_traitsIcEE7seekoffExSt12_Ios_SeekdirSt13_Ios_Openmode
PUBLIC 6bc21 0 _ZN9__gnu_cxx18stdio_sync_filebufIwSt11char_traitsIwEE4syncEv
PUBLIC 6bc29 0 _ZN9__gnu_cxx18stdio_sync_filebufIcSt11char_traitsIcEE4syncEv
PUBLIC 6bc31 0 _ZN9__gnu_cxx18stdio_sync_filebufIwSt11char_traitsIwEE8overflowEj
PUBLIC 6bc59 0 _ZN9__gnu_cxx18stdio_sync_filebufIwSt11char_traitsIwEE9pbackfailEj
PUBLIC 6bc85 0 _ZN9__gnu_cxx18stdio_sync_filebufIwSt11char_traitsIwEE9underflowEv
PUBLIC 6bc99 0 _ZN9__gnu_cxx18stdio_sync_filebufIcSt11char_traitsIcEE8overflowEi
PUBLIC 6bcc1 0 _ZN9__gnu_cxx18stdio_sync_filebufIcSt11char_traitsIcEE9pbackfailEi
PUBLIC 6bced 0 _ZN9__gnu_cxx18stdio_sync_filebufIcSt11char_traitsIcEE5uflowEv
PUBLIC 6bcfd 0 _ZN9__gnu_cxx18stdio_sync_filebufIcSt11char_traitsIcEE9underflowEv
PUBLIC 6bd11 0 _ZN9__gnu_cxx18stdio_sync_filebufIwSt11char_traitsIwEED0Ev
PUBLIC 6bd39 0 _ZN9__gnu_cxx18stdio_sync_filebufIcSt11char_traitsIcEED0Ev
PUBLIC 6bd61 0 _ZStlsIcSt11char_traitsIcESaIcEERSt13basic_ostreamIT_T0_ES7_RKSbIS4_S5_T1_E
PUBLIC 6bd6d 0 _ZSt7getlineIcSt11char_traitsIcESaIcEERSt13basic_istreamIT_T0_ES7_RSbIS4_S5_T1_E
PUBLIC 6bdad 0 _ZStrsIwSt11char_traitsIwESaIwEERSt13basic_istreamIT_T0_ES7_RSbIS4_S5_T1_E
PUBLIC 6bfa5 0 _ZStlsIwSt11char_traitsIwESaIwEERSt13basic_ostreamIT_T0_ES7_RKSbIS4_S5_T1_E
PUBLIC 6bfb1 0 _ZSt7getlineIwSt11char_traitsIwESaIwEERSt13basic_istreamIT_T0_ES7_RSbIS4_S5_T1_E
PUBLIC 6bfe1 0 _ZN9__gnu_cxx18stdio_sync_filebufIcSt11char_traitsIcEEC2EP8_IO_FILE
PUBLIC 6c02d 0 _ZN9__gnu_cxx18stdio_sync_filebufIcSt11char_traitsIcEE4fileEv
PUBLIC 6c031 0 _ZN9__gnu_cxx18stdio_sync_filebufIwSt11char_traitsIwEEC2EP8_IO_FILE
PUBLIC 6c07d 0 _ZN9__gnu_cxx18stdio_sync_filebufIwSt11char_traitsIwEE4fileEv
PUBLIC 6c081 0 _ZNSt13basic_ostreamIwSt11char_traitsIwEED1Ev
PUBLIC 6c0b5 0 _ZTv0_n12_NSt13basic_ostreamIwSt11char_traitsIwEED1Ev
PUBLIC 6c0c1 0 _ZNSoD1Ev
PUBLIC 6c0f5 0 _ZTv0_n12_NSoD1Ev
PUBLIC 6c129 0 _ZNSt13basic_ostreamIwSt11char_traitsIwEED0Ev
PUBLIC 6c161 0 _ZTv0_n12_NSt13basic_ostreamIwSt11char_traitsIwEED0Ev
PUBLIC 6c16d 0 _ZNSoD0Ev
PUBLIC 6c1a5 0 _ZTv0_n12_NSoD0Ev
PUBLIC 6c1b1 0 _ZNSoC2EPSt15basic_streambufIcSt11char_traitsIcEE
PUBLIC 6c1d5 0 _ZNSoC1EPSt15basic_streambufIcSt11char_traitsIcEE
PUBLIC 6c23d 0 _ZNSoD2Ev
PUBLIC 6c251 0 _ZNSolsEPFRSoS_E
PUBLIC 6c259 0 _ZNSolsEPFRSt9basic_iosIcSt11char_traitsIcEES3_E
PUBLIC 6c26d 0 _ZNSolsEPFRSt8ios_baseS0_E
PUBLIC 6c281 0 _ZNSo8_M_writeEPKci
PUBLIC 6c2b9 0 _ZNSo5flushEv
PUBLIC 6c345 0 _ZNSo5tellpEv
PUBLIC 6c3f1 0 _ZNSo5seekpESt4fposI11__mbstate_tE
PUBLIC 6c4c1 0 _ZNSo5seekpExSt12_Ios_Seekdir
PUBLIC 6c56d 0 _ZNSoC2Ev
PUBLIC 6c591 0 _ZNSoC1Ev
PUBLIC 6c5fd 0 _ZNSo6sentryC2ERSo
PUBLIC 6c641 0 _ZNSo6sentryD1Ev
PUBLIC 6c691 0 _ZNSo5writeEPKci
PUBLIC 6c77d 0 _ZNSo3putEc
PUBLIC 6c879 0 _ZNSolsEPSt15basic_streambufIcSt11char_traitsIcEE
PUBLIC 6c971 0 _ZNKSo6sentrycvbEv
PUBLIC 6c975 0 _ZSt4endlIcSt11char_traitsIcEERSt13basic_ostreamIT_T0_ES6_
PUBLIC 6c9b5 0 _ZSt4endsIcSt11char_traitsIcEERSt13basic_ostreamIT_T0_ES6_
PUBLIC 6c9bd 0 _ZSt5flushIcSt11char_traitsIcEERSt13basic_ostreamIT_T0_ES6_
PUBLIC 6c9c1 0 _ZStlsIcSt11char_traitsIcEERSt13basic_ostreamIT_T0_ES6_St8_SetfillIS3_E
PUBLIC 6ca01 0 _ZStlsIcSt11char_traitsIcEERSt13basic_ostreamIT_T0_ES6_St12_Setiosflags
PUBLIC 6ca11 0 _ZStlsIcSt11char_traitsIcEERSt13basic_ostreamIT_T0_ES6_St14_Resetiosflags
PUBLIC 6ca25 0 _ZStlsIcSt11char_traitsIcEERSt13basic_ostreamIT_T0_ES6_St8_Setbase
PUBLIC 6ca6d 0 _ZStlsIcSt11char_traitsIcEERSt13basic_ostreamIT_T0_ES6_St13_Setprecision
PUBLIC 6ca79 0 _ZStlsIcSt11char_traitsIcEERSt13basic_ostreamIT_T0_ES6_St5_Setw
PUBLIC 6ca85 0 _ZSt16__ostream_insertIcSt11char_traitsIcEERSt13basic_ostreamIT_T0_ES6_PKS3_i
PUBLIC 6ce4d 0 _ZStlsISt11char_traitsIcEERSt13basic_ostreamIcT_ES5_PKc
PUBLIC 6ce81 0 _ZStlsISt11char_traitsIcEERSt13basic_ostreamIcT_ES5_c
PUBLIC 6ce99 0 _ZStlsISt11char_traitsIcEERSt13basic_ostreamIcT_ES5_a
PUBLIC 6ceb1 0 _ZStlsISt11char_traitsIcEERSt13basic_ostreamIcT_ES5_h
PUBLIC 6cec9 0 _ZStlsISt11char_traitsIcEERSt13basic_ostreamIcT_ES5_PKa
PUBLIC 6cefd 0 _ZStlsISt11char_traitsIcEERSt13basic_ostreamIcT_ES5_PKh
PUBLIC 6cf31 0 _ZNSo9_M_insertIlEERSoT_
PUBLIC 6d099 0 _ZNSolsEi
PUBLIC 6d09d 0 _ZNSolsEs
PUBLIC 6d0d5 0 _ZNSolsEl
PUBLIC 6d0d9 0 _ZNSo9_M_insertImEERSoT_
PUBLIC 6d241 0 _ZNSolsEj
PUBLIC 6d245 0 _ZNSolsEt
PUBLIC 6d249 0 _ZNSolsEm
PUBLIC 6d24d 0 _ZNSo9_M_insertIbEERSoT_
PUBLIC 6d3b5 0 _ZNSolsEb
PUBLIC 6d3b9 0 _ZNSo9_M_insertIxEERSoT_
PUBLIC 6d525 0 _ZNSolsEx
PUBLIC 6d529 0 _ZNSo9_M_insertIyEERSoT_
PUBLIC 6d695 0 _ZNSolsEy
PUBLIC 6d699 0 _ZNSo9_M_insertIdEERSoT_
PUBLIC 6d805 0 _ZNSolsEf
PUBLIC 6d81d 0 _ZNSolsEd
PUBLIC 6d821 0 _ZNSo9_M_insertIeEERSoT_
PUBLIC 6d98d 0 _ZNSolsEe
PUBLIC 6d991 0 _ZNSo9_M_insertIPKvEERSoT_
PUBLIC 6daf9 0 _ZNSolsEPKv
PUBLIC 6dafd 0 _ZNSt13basic_ostreamIwSt11char_traitsIwEEC2EPSt15basic_streambufIwS1_E
PUBLIC 6db21 0 _ZNSt13basic_ostreamIwSt11char_traitsIwEEC1EPSt15basic_streambufIwS1_E
PUBLIC 6db89 0 _ZNSt13basic_ostreamIwSt11char_traitsIwEED2Ev
PUBLIC 6db9d 0 _ZNSt13basic_ostreamIwSt11char_traitsIwEElsEPFRS2_S3_E
PUBLIC 6dba5 0 _ZNSt13basic_ostreamIwSt11char_traitsIwEElsEPFRSt9basic_iosIwS1_ES5_E
PUBLIC 6dbb9 0 _ZNSt13basic_ostreamIwSt11char_traitsIwEElsEPFRSt8ios_baseS4_E
PUBLIC 6dbcd 0 _ZNSt13basic_ostreamIwSt11char_traitsIwEE8_M_writeEPKwi
PUBLIC 6dc05 0 _ZNSt13basic_ostreamIwSt11char_traitsIwEE5flushEv
PUBLIC 6dc91 0 _ZNSt13basic_ostreamIwSt11char_traitsIwEE5tellpEv
PUBLIC 6dd3d 0 _ZNSt13basic_ostreamIwSt11char_traitsIwEE5seekpESt4fposI11__mbstate_tE
PUBLIC 6de0d 0 _ZNSt13basic_ostreamIwSt11char_traitsIwEE5seekpExSt12_Ios_Seekdir
PUBLIC 6deb9 0 _ZNSt13basic_ostreamIwSt11char_traitsIwEEC2Ev
PUBLIC 6dedd 0 _ZNSt13basic_ostreamIwSt11char_traitsIwEEC1Ev
PUBLIC 6df49 0 _ZNSt13basic_ostreamIwSt11char_traitsIwEE6sentryC1ERS2_
PUBLIC 6df8d 0 _ZNSt13basic_ostreamIwSt11char_traitsIwEE6sentryD2Ev
PUBLIC 6dfdd 0 _ZNSt13basic_ostreamIwSt11char_traitsIwEE5writeEPKwi
PUBLIC 6e0c9 0 _ZNSt13basic_ostreamIwSt11char_traitsIwEE3putEw
PUBLIC 6e1c9 0 _ZNSt13basic_ostreamIwSt11char_traitsIwEElsEPSt15basic_streambufIwS1_E
PUBLIC 6e2c1 0 _ZNKSt13basic_ostreamIwSt11char_traitsIwEE6sentrycvbEv
PUBLIC 6e2c5 0 _ZSt4endlIwSt11char_traitsIwEERSt13basic_ostreamIT_T0_ES6_
PUBLIC 6e2f5 0 _ZSt4endsIwSt11char_traitsIwEERSt13basic_ostreamIT_T0_ES6_
PUBLIC 6e2fd 0 _ZSt5flushIwSt11char_traitsIwEERSt13basic_ostreamIT_T0_ES6_
PUBLIC 6e301 0 _ZStlsIwSt11char_traitsIwEERSt13basic_ostreamIT_T0_ES6_St8_SetfillIS3_E
PUBLIC 6e339 0 _ZStlsIwSt11char_traitsIwEERSt13basic_ostreamIT_T0_ES6_St12_Setiosflags
PUBLIC 6e349 0 _ZStlsIwSt11char_traitsIwEERSt13basic_ostreamIT_T0_ES6_St14_Resetiosflags
PUBLIC 6e35d 0 _ZStlsIwSt11char_traitsIwEERSt13basic_ostreamIT_T0_ES6_St8_Setbase
PUBLIC 6e3a5 0 _ZStlsIwSt11char_traitsIwEERSt13basic_ostreamIT_T0_ES6_St13_Setprecision
PUBLIC 6e3b1 0 _ZStlsIwSt11char_traitsIwEERSt13basic_ostreamIT_T0_ES6_St5_Setw
PUBLIC 6e3bd 0 _ZSt16__ostream_insertIwSt11char_traitsIwEERSt13basic_ostreamIT_T0_ES6_PKS3_i
PUBLIC 6e785 0 _ZStlsIwSt11char_traitsIwEERSt13basic_ostreamIT_T0_ES6_PKS3_
PUBLIC 6e7b9 0 _ZStlsIwSt11char_traitsIwEERSt13basic_ostreamIT_T0_ES6_S3_
PUBLIC 6e7d1 0 _ZStlsIwSt11char_traitsIwEERSt13basic_ostreamIT_T0_ES6_PKc
PUBLIC 6e921 0 _ZStlsIwSt11char_traitsIwEERSt13basic_ostreamIT_T0_ES6_c
PUBLIC 6e951 0 _ZNSt13basic_ostreamIwSt11char_traitsIwEE9_M_insertIlEERS2_T_
PUBLIC 6ea99 0 _ZNSt13basic_ostreamIwSt11char_traitsIwEElsEi
PUBLIC 6ea9d 0 _ZNSt13basic_ostreamIwSt11char_traitsIwEElsEs
PUBLIC 6ead5 0 _ZNSt13basic_ostreamIwSt11char_traitsIwEElsEl
PUBLIC 6ead9 0 _ZNSt13basic_ostreamIwSt11char_traitsIwEE9_M_insertImEERS2_T_
PUBLIC 6ec21 0 _ZNSt13basic_ostreamIwSt11char_traitsIwEElsEj
PUBLIC 6ec25 0 _ZNSt13basic_ostreamIwSt11char_traitsIwEElsEt
PUBLIC 6ec29 0 _ZNSt13basic_ostreamIwSt11char_traitsIwEElsEm
PUBLIC 6ec2d 0 _ZNSt13basic_ostreamIwSt11char_traitsIwEE9_M_insertIbEERS2_T_
PUBLIC 6ed75 0 _ZNSt13basic_ostreamIwSt11char_traitsIwEElsEb
PUBLIC 6ed79 0 _ZNSt13basic_ostreamIwSt11char_traitsIwEE9_M_insertIxEERS2_T_
PUBLIC 6eec5 0 _ZNSt13basic_ostreamIwSt11char_traitsIwEElsEx
PUBLIC 6eec9 0 _ZNSt13basic_ostreamIwSt11char_traitsIwEE9_M_insertIyEERS2_T_
PUBLIC 6f015 0 _ZNSt13basic_ostreamIwSt11char_traitsIwEElsEy
PUBLIC 6f019 0 _ZNSt13basic_ostreamIwSt11char_traitsIwEE9_M_insertIdEERS2_T_
PUBLIC 6f165 0 _ZNSt13basic_ostreamIwSt11char_traitsIwEElsEf
PUBLIC 6f17d 0 _ZNSt13basic_ostreamIwSt11char_traitsIwEElsEd
PUBLIC 6f181 0 _ZNSt13basic_ostreamIwSt11char_traitsIwEE9_M_insertIeEERS2_T_
PUBLIC 6f2cd 0 _ZNSt13basic_ostreamIwSt11char_traitsIwEElsEe
PUBLIC 6f2d1 0 _ZNSt13basic_ostreamIwSt11char_traitsIwEE9_M_insertIPKvEERS2_T_
PUBLIC 6f419 0 _ZNSt13basic_ostreamIwSt11char_traitsIwEElsEPKv
PUBLIC 6f41d 0 _ZNSt15basic_stringbufIcSt11char_traitsIcESaIcEE9showmanycEv
PUBLIC 6f445 0 _ZNSt15basic_stringbufIcSt11char_traitsIcESaIcEE9underflowEv
PUBLIC 6f475 0 _ZNSt15basic_stringbufIcSt11char_traitsIcESaIcEE9pbackfailEi
PUBLIC 6f4bd 0 _ZNSt15basic_stringbufIcSt11char_traitsIcESaIcEE7seekoffExSt12_Ios_SeekdirSt13_Ios_Openmode
PUBLIC 6f64d 0 _ZNSt15basic_stringbufIcSt11char_traitsIcESaIcEE7seekposESt4fposI11__mbstate_tESt13_Ios_Openmode
PUBLIC 6f711 0 _ZNSt15basic_stringbufIwSt11char_traitsIwESaIwEE9showmanycEv
PUBLIC 6f739 0 _ZNSt15basic_stringbufIwSt11char_traitsIwESaIwEE9underflowEv
PUBLIC 6f769 0 _ZNSt15basic_stringbufIwSt11char_traitsIwESaIwEE9pbackfailEj
PUBLIC 6f7ad 0 _ZNSt15basic_stringbufIwSt11char_traitsIwESaIwEE7seekoffExSt12_Ios_SeekdirSt13_Ios_Openmode
PUBLIC 6f989 0 _ZNSt15basic_stringbufIwSt11char_traitsIwESaIwEE7seekposESt4fposI11__mbstate_tESt13_Ios_Openmode
PUBLIC 6fa71 0 _ZNSt18basic_stringstreamIwSt11char_traitsIwESaIwEED0Ev
PUBLIC 6fb7d 0 _ZThn8_NSt18basic_stringstreamIwSt11char_traitsIwESaIwEED0Ev
PUBLIC 6fb85 0 _ZTv0_n12_NSt18basic_stringstreamIwSt11char_traitsIwESaIwEED0Ev
PUBLIC 6fb91 0 _ZNSt18basic_stringstreamIwSt11char_traitsIwESaIwEED1Ev
PUBLIC 6fc95 0 _ZThn8_NSt18basic_stringstreamIwSt11char_traitsIwESaIwEED1Ev
PUBLIC 6fc9d 0 _ZTv0_n12_NSt18basic_stringstreamIwSt11char_traitsIwESaIwEED1Ev
PUBLIC 6fca9 0 _ZNSt19basic_ostringstreamIwSt11char_traitsIwESaIwEED1Ev
PUBLIC 6fd81 0 _ZTv0_n12_NSt19basic_ostringstreamIwSt11char_traitsIwESaIwEED1Ev
PUBLIC 6fd8d 0 _ZNSt19basic_istringstreamIwSt11char_traitsIwESaIwEED1Ev
PUBLIC 6fe69 0 _ZTv0_n12_NSt19basic_istringstreamIwSt11char_traitsIwESaIwEED1Ev
PUBLIC 6fe75 0 _ZNSt19basic_ostringstreamIwSt11char_traitsIwESaIwEED0Ev
PUBLIC 6ff51 0 _ZTv0_n12_NSt19basic_ostringstreamIwSt11char_traitsIwESaIwEED0Ev
PUBLIC 6ff5d 0 _ZNSt19basic_istringstreamIwSt11char_traitsIwESaIwEED0Ev
PUBLIC 70041 0 _ZTv0_n12_NSt19basic_istringstreamIwSt11char_traitsIwESaIwEED0Ev
PUBLIC 7004d 0 _ZNSt18basic_stringstreamIcSt11char_traitsIcESaIcEED1Ev
PUBLIC 70151 0 _ZThn8_NSt18basic_stringstreamIcSt11char_traitsIcESaIcEED1Ev
PUBLIC 70159 0 _ZTv0_n12_NSt18basic_stringstreamIcSt11char_traitsIcESaIcEED1Ev
PUBLIC 70165 0 _ZNSt19basic_ostringstreamIcSt11char_traitsIcESaIcEED1Ev
PUBLIC 7023d 0 _ZTv0_n12_NSt19basic_ostringstreamIcSt11char_traitsIcESaIcEED1Ev
PUBLIC 70249 0 _ZNSt19basic_istringstreamIcSt11char_traitsIcESaIcEED1Ev
PUBLIC 70325 0 _ZTv0_n12_NSt19basic_istringstreamIcSt11char_traitsIcESaIcEED1Ev
PUBLIC 70331 0 _ZNSt18basic_stringstreamIcSt11char_traitsIcESaIcEED0Ev
PUBLIC 7043d 0 _ZThn8_NSt18basic_stringstreamIcSt11char_traitsIcESaIcEED0Ev
PUBLIC 70445 0 _ZTv0_n12_NSt18basic_stringstreamIcSt11char_traitsIcESaIcEED0Ev
PUBLIC 70451 0 _ZNSt19basic_ostringstreamIcSt11char_traitsIcESaIcEED0Ev
PUBLIC 7052d 0 _ZTv0_n12_NSt19basic_ostringstreamIcSt11char_traitsIcESaIcEED0Ev
PUBLIC 70539 0 _ZNSt19basic_istringstreamIcSt11char_traitsIcESaIcEED0Ev
PUBLIC 7061d 0 _ZTv0_n12_NSt19basic_istringstreamIcSt11char_traitsIcESaIcEED0Ev
PUBLIC 70629 0 _ZNSt15basic_stringbufIcSt11char_traitsIcESaIcEEC1ESt13_Ios_Openmode
PUBLIC 7067d 0 _ZNKSt15basic_stringbufIcSt11char_traitsIcESaIcEE3strEv
PUBLIC 70791 0 _ZNSt15basic_stringbufIcSt11char_traitsIcESaIcEE7_M_syncEPcjj
PUBLIC 707d9 0 _ZNSt15basic_stringbufIcSt11char_traitsIcESaIcEE6setbufEPci
PUBLIC 70815 0 _ZNSt15basic_stringbufIcSt11char_traitsIcESaIcEE17_M_stringbuf_initESt13_Ios_Openmode
PUBLIC 70829 0 _ZNSt15basic_stringbufIcSt11char_traitsIcESaIcEE8overflowEi
PUBLIC 70985 0 _ZNSt15basic_stringbufIcSt11char_traitsIcESaIcEE3strERKSs
PUBLIC 709b1 0 _ZNSt15basic_stringbufIcSt11char_traitsIcESaIcEEC2ERKSsSt13_Ios_Openmode
PUBLIC 70a4d 0 _ZNSt15basic_stringbufIcSt11char_traitsIcESaIcEE15_M_update_egptrEv
PUBLIC 70a6d 0 _ZNSt19basic_istringstreamIcSt11char_traitsIcESaIcEEC2ESt13_Ios_Openmode
PUBLIC 70b35 0 _ZNSt19basic_istringstreamIcSt11char_traitsIcESaIcEEC1ESt13_Ios_Openmode
PUBLIC 70c39 0 _ZNSt19basic_istringstreamIcSt11char_traitsIcESaIcEEC2ERKSsSt13_Ios_Openmode
PUBLIC 70d39 0 _ZNSt19basic_istringstreamIcSt11char_traitsIcESaIcEEC1ERKSsSt13_Ios_Openmode
PUBLIC 70e91 0 _ZNSt19basic_istringstreamIcSt11char_traitsIcESaIcEED2Ev
PUBLIC 70f41 0 _ZNKSt19basic_istringstreamIcSt11char_traitsIcESaIcEE5rdbufEv
PUBLIC 70f45 0 _ZNKSt19basic_istringstreamIcSt11char_traitsIcESaIcEE3strEv
PUBLIC 71059 0 _ZNSt19basic_istringstreamIcSt11char_traitsIcESaIcEE3strERKSs
PUBLIC 71089 0 _ZNSt19basic_ostringstreamIcSt11char_traitsIcESaIcEEC2ESt13_Ios_Openmode
PUBLIC 7113d 0 _ZNSt19basic_ostringstreamIcSt11char_traitsIcESaIcEEC1ESt13_Ios_Openmode
PUBLIC 71235 0 _ZNSt19basic_ostringstreamIcSt11char_traitsIcESaIcEEC2ERKSsSt13_Ios_Openmode
PUBLIC 71335 0 _ZNSt19basic_ostringstreamIcSt11char_traitsIcESaIcEEC1ERKSsSt13_Ios_Openmode
PUBLIC 71489 0 _ZNSt19basic_ostringstreamIcSt11char_traitsIcESaIcEED2Ev
PUBLIC 71535 0 _ZNKSt19basic_ostringstreamIcSt11char_traitsIcESaIcEE5rdbufEv
PUBLIC 71539 0 _ZNKSt19basic_ostringstreamIcSt11char_traitsIcESaIcEE3strEv
PUBLIC 7164d 0 _ZNSt19basic_ostringstreamIcSt11char_traitsIcESaIcEE3strERKSs
PUBLIC 71679 0 _ZNSt18basic_stringstreamIcSt11char_traitsIcESaIcEEC2ESt13_Ios_Openmode
PUBLIC 71775 0 _ZNSt18basic_stringstreamIcSt11char_traitsIcESaIcEEC1ESt13_Ios_Openmode
PUBLIC 718b9 0 _ZNSt18basic_stringstreamIcSt11char_traitsIcESaIcEEC2ERKSsSt13_Ios_Openmode
PUBLIC 719f9 0 _ZNSt18basic_stringstreamIcSt11char_traitsIcESaIcEEC1ERKSsSt13_Ios_Openmode
PUBLIC 71b8d 0 _ZNSt18basic_stringstreamIcSt11char_traitsIcESaIcEED2Ev
PUBLIC 71c69 0 _ZNKSt18basic_stringstreamIcSt11char_traitsIcESaIcEE5rdbufEv
PUBLIC 71c6d 0 _ZNKSt18basic_stringstreamIcSt11char_traitsIcESaIcEE3strEv
PUBLIC 71d81 0 _ZNSt18basic_stringstreamIcSt11char_traitsIcESaIcEE3strERKSs
PUBLIC 71db1 0 _ZNSt15basic_stringbufIwSt11char_traitsIwESaIwEEC1ESt13_Ios_Openmode
PUBLIC 71e05 0 _ZNKSt15basic_stringbufIwSt11char_traitsIwESaIwEE3strEv
PUBLIC 71f19 0 _ZNSt15basic_stringbufIwSt11char_traitsIwESaIwEE7_M_syncEPwjj
PUBLIC 71f69 0 _ZNSt15basic_stringbufIwSt11char_traitsIwESaIwEE6setbufEPwi
PUBLIC 71fa5 0 _ZNSt15basic_stringbufIwSt11char_traitsIwESaIwEE17_M_stringbuf_initESt13_Ios_Openmode
PUBLIC 71fb9 0 _ZNSt15basic_stringbufIwSt11char_traitsIwESaIwEE8overflowEj
PUBLIC 7211d 0 _ZNSt15basic_stringbufIwSt11char_traitsIwESaIwEE3strERKSbIwS1_S2_E
PUBLIC 72149 0 _ZNSt15basic_stringbufIwSt11char_traitsIwESaIwEEC2ERKSbIwS1_S2_ESt13_Ios_Openmode
PUBLIC 721e5 0 _ZNSt15basic_stringbufIwSt11char_traitsIwESaIwEE15_M_update_egptrEv
PUBLIC 72205 0 _ZNSt19basic_istringstreamIwSt11char_traitsIwESaIwEEC2ESt13_Ios_Openmode
PUBLIC 722cd 0 _ZNSt19basic_istringstreamIwSt11char_traitsIwESaIwEEC1ESt13_Ios_Openmode
PUBLIC 723d1 0 _ZNSt19basic_istringstreamIwSt11char_traitsIwESaIwEEC2ERKSbIwS1_S2_ESt13_Ios_Openmode
PUBLIC 724d1 0 _ZNSt19basic_istringstreamIwSt11char_traitsIwESaIwEEC1ERKSbIwS1_S2_ESt13_Ios_Openmode
PUBLIC 72621 0 _ZNSt19basic_istringstreamIwSt11char_traitsIwESaIwEED2Ev
PUBLIC 726d1 0 _ZNKSt19basic_istringstreamIwSt11char_traitsIwESaIwEE5rdbufEv
PUBLIC 726d5 0 _ZNKSt19basic_istringstreamIwSt11char_traitsIwESaIwEE3strEv
PUBLIC 727e9 0 _ZNSt19basic_istringstreamIwSt11char_traitsIwESaIwEE3strERKSbIwS1_S2_E
PUBLIC 72819 0 _ZNSt19basic_ostringstreamIwSt11char_traitsIwESaIwEEC2ESt13_Ios_Openmode
PUBLIC 728cd 0 _ZNSt19basic_ostringstreamIwSt11char_traitsIwESaIwEEC1ESt13_Ios_Openmode
PUBLIC 729c5 0 _ZNSt19basic_ostringstreamIwSt11char_traitsIwESaIwEEC2ERKSbIwS1_S2_ESt13_Ios_Openmode
PUBLIC 72ac5 0 _ZNSt19basic_ostringstreamIwSt11char_traitsIwESaIwEEC1ERKSbIwS1_S2_ESt13_Ios_Openmode
PUBLIC 72c15 0 _ZNSt19basic_ostringstreamIwSt11char_traitsIwESaIwEED2Ev
PUBLIC 72cc1 0 _ZNKSt19basic_ostringstreamIwSt11char_traitsIwESaIwEE5rdbufEv
PUBLIC 72cc5 0 _ZNKSt19basic_ostringstreamIwSt11char_traitsIwESaIwEE3strEv
PUBLIC 72dd9 0 _ZNSt19basic_ostringstreamIwSt11char_traitsIwESaIwEE3strERKSbIwS1_S2_E
PUBLIC 72e05 0 _ZNSt18basic_stringstreamIwSt11char_traitsIwESaIwEEC2ESt13_Ios_Openmode
PUBLIC 72f01 0 _ZNSt18basic_stringstreamIwSt11char_traitsIwESaIwEEC1ESt13_Ios_Openmode
PUBLIC 73045 0 _ZNSt18basic_stringstreamIwSt11char_traitsIwESaIwEEC2ERKSbIwS1_S2_ESt13_Ios_Openmode
PUBLIC 73185 0 _ZNSt18basic_stringstreamIwSt11char_traitsIwESaIwEEC1ERKSbIwS1_S2_ESt13_Ios_Openmode
PUBLIC 73315 0 _ZNSt18basic_stringstreamIwSt11char_traitsIwESaIwEED2Ev
PUBLIC 733f1 0 _ZNKSt18basic_stringstreamIwSt11char_traitsIwESaIwEE5rdbufEv
PUBLIC 733f5 0 _ZNKSt18basic_stringstreamIwSt11char_traitsIwESaIwEE3strEv
PUBLIC 73509 0 _ZNSt18basic_stringstreamIwSt11char_traitsIwESaIwEE3strERKSbIwS1_S2_E
PUBLIC 73539 0 _ZNSt15basic_streambufIcSt11char_traitsIcEE5imbueERKSt6locale
PUBLIC 7353d 0 _ZNSt15basic_streambufIcSt11char_traitsIcEE6setbufEPci
PUBLIC 73541 0 _ZNSt15basic_streambufIcSt11char_traitsIcEE7seekoffExSt12_Ios_SeekdirSt13_Ios_Openmode
PUBLIC 73559 0 _ZNSt15basic_streambufIcSt11char_traitsIcEE7seekposESt4fposI11__mbstate_tESt13_Ios_Openmode
PUBLIC 7357d 0 _ZNSt15basic_streambufIcSt11char_traitsIcEE4syncEv
PUBLIC 73581 0 _ZNSt15basic_streambufIcSt11char_traitsIcEE9showmanycEv
PUBLIC 73585 0 _ZNSt15basic_streambufIcSt11char_traitsIcEE9underflowEv
PUBLIC 7358d 0 _ZNSt15basic_streambufIcSt11char_traitsIcEE5uflowEv
PUBLIC 735a9 0 _ZNSt15basic_streambufIcSt11char_traitsIcEE9pbackfailEi
PUBLIC 735b1 0 _ZNSt15basic_streambufIcSt11char_traitsIcEE8overflowEi
PUBLIC 735b9 0 _ZNSt15basic_streambufIwSt11char_traitsIwEE5imbueERKSt6locale
PUBLIC 735bd 0 _ZNSt15basic_streambufIwSt11char_traitsIwEE6setbufEPwi
PUBLIC 735c1 0 _ZNSt15basic_streambufIwSt11char_traitsIwEE7seekoffExSt12_Ios_SeekdirSt13_Ios_Openmode
PUBLIC 735d9 0 _ZNSt15basic_streambufIwSt11char_traitsIwEE7seekposESt4fposI11__mbstate_tESt13_Ios_Openmode
PUBLIC 735fd 0 _ZNSt15basic_streambufIwSt11char_traitsIwEE4syncEv
PUBLIC 73601 0 _ZNSt15basic_streambufIwSt11char_traitsIwEE9showmanycEv
PUBLIC 73605 0 _ZNSt15basic_streambufIwSt11char_traitsIwEE9underflowEv
PUBLIC 7360d 0 _ZNSt15basic_streambufIwSt11char_traitsIwEE5uflowEv
PUBLIC 73629 0 _ZNSt15basic_streambufIwSt11char_traitsIwEE9pbackfailEj
PUBLIC 73631 0 _ZNSt15basic_streambufIwSt11char_traitsIwEE8overflowEj
PUBLIC 73639 0 _ZNSt15basic_streambufIwSt11char_traitsIwEE6xsputnEPKwi
PUBLIC 736a5 0 _ZNSt15basic_streambufIwSt11char_traitsIwEE6xsgetnEPwi
PUBLIC 73711 0 _ZNSt15basic_streambufIwSt11char_traitsIwEED2Ev
PUBLIC 73735 0 _ZNSt15basic_streambufIcSt11char_traitsIcEED1Ev
PUBLIC 73759 0 _ZNSt15basic_streambufIwSt11char_traitsIwEED0Ev
PUBLIC 73781 0 _ZNSt15basic_streambufIcSt11char_traitsIcEED0Ev
PUBLIC 737a9 0 _ZNSt15basic_streambufIcSt11char_traitsIcEE6xsputnEPKci
PUBLIC 73811 0 _ZNSt15basic_streambufIcSt11char_traitsIcEE6xsgetnEPci
PUBLIC 73879 0 _ZNSt15basic_streambufIcSt11char_traitsIcEE8pubimbueERKSt6locale
PUBLIC 738ad 0 _ZNKSt15basic_streambufIcSt11char_traitsIcEE6getlocEv
PUBLIC 738bd 0 _ZNSt15basic_streambufIcSt11char_traitsIcEE9pubsetbufEPci
PUBLIC 738c9 0 _ZNSt15basic_streambufIcSt11char_traitsIcEE10pubseekoffExSt12_Ios_SeekdirSt13_Ios_Openmode
PUBLIC 738e5 0 _ZNSt15basic_streambufIcSt11char_traitsIcEE10pubseekposESt4fposI11__mbstate_tESt13_Ios_Openmode
PUBLIC 7391d 0 _ZNSt15basic_streambufIcSt11char_traitsIcEE7pubsyncEv
PUBLIC 73929 0 _ZNSt15basic_streambufIcSt11char_traitsIcEE8in_availEv
PUBLIC 73941 0 _ZNSt15basic_streambufIcSt11char_traitsIcEE6snextcEv
PUBLIC 73979 0 _ZNSt15basic_streambufIcSt11char_traitsIcEE6sbumpcEv
PUBLIC 73995 0 _ZNSt15basic_streambufIcSt11char_traitsIcEE5sgetcEv
PUBLIC 739ad 0 _ZNSt15basic_streambufIcSt11char_traitsIcEE5sgetnEPci
PUBLIC 739b9 0 _ZNSt15basic_streambufIcSt11char_traitsIcEE9sputbackcEc
PUBLIC 739dd 0 _ZNSt15basic_streambufIcSt11char_traitsIcEE7sungetcEv
PUBLIC 73a01 0 _ZNSt15basic_streambufIcSt11char_traitsIcEE5sputcEc
PUBLIC 73a25 0 _ZNSt15basic_streambufIcSt11char_traitsIcEE5sputnEPKci
PUBLIC 73a31 0 _ZNSt15basic_streambufIcSt11char_traitsIcEEC2Ev
PUBLIC 73a61 0 _ZNKSt15basic_streambufIcSt11char_traitsIcEE5ebackEv
PUBLIC 73a65 0 _ZNKSt15basic_streambufIcSt11char_traitsIcEE4gptrEv
PUBLIC 73a69 0 _ZNKSt15basic_streambufIcSt11char_traitsIcEE5egptrEv
PUBLIC 73a6d 0 _ZNSt15basic_streambufIcSt11char_traitsIcEE5gbumpEi
PUBLIC 73a75 0 _ZNSt15basic_streambufIcSt11char_traitsIcEE4setgEPcS3_S3_
PUBLIC 73a7d 0 _ZNKSt15basic_streambufIcSt11char_traitsIcEE5pbaseEv
PUBLIC 73a81 0 _ZNKSt15basic_streambufIcSt11char_traitsIcEE4pptrEv
PUBLIC 73a85 0 _ZNKSt15basic_streambufIcSt11char_traitsIcEE5epptrEv
PUBLIC 73a89 0 _ZNSt15basic_streambufIcSt11char_traitsIcEE5pbumpEi
PUBLIC 73a91 0 _ZNSt15basic_streambufIcSt11char_traitsIcEE4setpEPcS3_
PUBLIC 73a99 0 _ZNSt15basic_streambufIcSt11char_traitsIcEE6stosscEv
PUBLIC 73ab1 0 _ZNSt15basic_streambufIcSt11char_traitsIcEEC2ERKS2_
PUBLIC 73afd 0 _ZNSt15basic_streambufIcSt11char_traitsIcEEaSERKS2_
PUBLIC 73b01 0 _ZSt17__copy_streambufsIcSt11char_traitsIcEEiPSt15basic_streambufIT_T0_ES6_
PUBLIC 73b11 0 _ZNSt15basic_streambufIwSt11char_traitsIwEE8pubimbueERKSt6locale
PUBLIC 73b45 0 _ZNKSt15basic_streambufIwSt11char_traitsIwEE6getlocEv
PUBLIC 73b55 0 _ZNSt15basic_streambufIwSt11char_traitsIwEE9pubsetbufEPwi
PUBLIC 73b61 0 _ZNSt15basic_streambufIwSt11char_traitsIwEE10pubseekoffExSt12_Ios_SeekdirSt13_Ios_Openmode
PUBLIC 73b7d 0 _ZNSt15basic_streambufIwSt11char_traitsIwEE10pubseekposESt4fposI11__mbstate_tESt13_Ios_Openmode
PUBLIC 73bb5 0 _ZNSt15basic_streambufIwSt11char_traitsIwEE7pubsyncEv
PUBLIC 73bc1 0 _ZNSt15basic_streambufIwSt11char_traitsIwEE8in_availEv
PUBLIC 73bd9 0 _ZNSt15basic_streambufIwSt11char_traitsIwEE6snextcEv
PUBLIC 73c11 0 _ZNSt15basic_streambufIwSt11char_traitsIwEE6sbumpcEv
PUBLIC 73c2d 0 _ZNSt15basic_streambufIwSt11char_traitsIwEE5sgetcEv
PUBLIC 73c45 0 _ZNSt15basic_streambufIwSt11char_traitsIwEE5sgetnEPwi
PUBLIC 73c51 0 _ZNSt15basic_streambufIwSt11char_traitsIwEE9sputbackcEw
PUBLIC 73c75 0 _ZNSt15basic_streambufIwSt11char_traitsIwEE7sungetcEv
PUBLIC 73c99 0 _ZNSt15basic_streambufIwSt11char_traitsIwEE5sputcEw
PUBLIC 73cb9 0 _ZNSt15basic_streambufIwSt11char_traitsIwEE5sputnEPKwi
PUBLIC 73cc5 0 _ZNSt15basic_streambufIwSt11char_traitsIwEEC1Ev
PUBLIC 73cf5 0 _ZNKSt15basic_streambufIwSt11char_traitsIwEE5ebackEv
PUBLIC 73cf9 0 _ZNKSt15basic_streambufIwSt11char_traitsIwEE4gptrEv
PUBLIC 73cfd 0 _ZNKSt15basic_streambufIwSt11char_traitsIwEE5egptrEv
PUBLIC 73d01 0 _ZNSt15basic_streambufIwSt11char_traitsIwEE5gbumpEi
PUBLIC 73d0d 0 _ZNSt15basic_streambufIwSt11char_traitsIwEE4setgEPwS3_S3_
PUBLIC 73d15 0 _ZNKSt15basic_streambufIwSt11char_traitsIwEE5pbaseEv
PUBLIC 73d19 0 _ZNKSt15basic_streambufIwSt11char_traitsIwEE4pptrEv
PUBLIC 73d1d 0 _ZNKSt15basic_streambufIwSt11char_traitsIwEE5epptrEv
PUBLIC 73d21 0 _ZNSt15basic_streambufIwSt11char_traitsIwEE5pbumpEi
PUBLIC 73d2d 0 _ZNSt15basic_streambufIwSt11char_traitsIwEE4setpEPwS3_
PUBLIC 73d35 0 _ZNSt15basic_streambufIwSt11char_traitsIwEE6stosscEv
PUBLIC 73d4d 0 _ZNSt15basic_streambufIwSt11char_traitsIwEEC2ERKS2_
PUBLIC 73d99 0 _ZNSt15basic_streambufIwSt11char_traitsIwEEaSERKS2_
PUBLIC 73d9d 0 _ZSt17__copy_streambufsIwSt11char_traitsIwEEiPSt15basic_streambufIT_T0_ES6_
PUBLIC 73dad 0 _ZSt21__copy_streambufs_eofIcSt11char_traitsIcEEiPSt15basic_streambufIT_T0_ES6_Rb
PUBLIC 73e75 0 _ZSt21__copy_streambufs_eofIwSt11char_traitsIwEEiPSt15basic_streambufIT_T0_ES6_Rb
PUBLIC 73f41 0 _ZNKSs5c_strEv
PUBLIC 73f45 0 _ZNSsC1EOSs
PUBLIC 73f61 0 _ZNKSs4dataEv
PUBLIC 73f65 0 _ZNKSs6lengthEv
PUBLIC 73f6d 0 _ZNKSs7_M_dataEv
PUBLIC 73f71 0 _ZNSs7_M_dataEPc
PUBLIC 73f79 0 _ZNKSs6_M_repEv
PUBLIC 73f81 0 _ZNKSs9_M_ibeginEv
PUBLIC 73f85 0 _ZNKSs7_M_iendEv
PUBLIC 73f91 0 _ZNKSs8_M_checkEjPKc
PUBLIC 73fa9 0 _ZNKSs8_M_limitEjj
PUBLIC 73fb9 0 _ZNSs13_S_copy_charsEPcN9__gnu_cxx17__normal_iteratorIS_SsEES2_
PUBLIC 73fd1 0 _ZNSs13_S_copy_charsEPcN9__gnu_cxx17__normal_iteratorIPKcSsEES4_
PUBLIC 73fe9 0 _ZNSs13_S_copy_charsEPcS_S_
PUBLIC 74001 0 _ZNSs13_S_copy_charsEPcPKcS1_
PUBLIC 7401d 0 _ZNSs12_S_empty_repEv
PUBLIC 74031 0 _ZNSsC2Ev
PUBLIC 74049 0 _ZNKSs5beginEv
PUBLIC 7404d 0 _ZNKSs3endEv
PUBLIC 74059 0 _ZNKSs6rbeginEv
PUBLIC 74065 0 _ZNKSs4rendEv
PUBLIC 7406d 0 _ZNKSs6cbeginEv
PUBLIC 74071 0 _ZNKSs4cendEv
PUBLIC 7407d 0 _ZNKSs7crbeginEv
PUBLIC 74089 0 _ZNKSs5crendEv
PUBLIC 74091 0 _ZNKSs4sizeEv
PUBLIC 74099 0 _ZNKSs8max_sizeEv
PUBLIC 740a5 0 _ZNKSs8capacityEv
PUBLIC 740ad 0 _ZNKSs5emptyEv
PUBLIC 740bd 0 _ZNKSsixEj
PUBLIC 740c5 0 _ZNKSs2atEj
PUBLIC 740e1 0 _ZNKSs4copyEPcjj
PUBLIC 74125 0 _ZNSs4swapERSs
PUBLIC 74165 0 _ZNSs6assignEOSs
PUBLIC 74171 0 _ZNSsaSEOSs
PUBLIC 7417d 0 _ZNKSs13get_allocatorEv
PUBLIC 74181 0 _ZNKSs4findEPKcjj
PUBLIC 7424d 0 _ZNKSs4findERKSsj
PUBLIC 74259 0 _ZNKSs4findEPKcj
PUBLIC 74279 0 _ZNKSs4findEcj
PUBLIC 742a1 0 _ZNKSs5rfindEPKcjj
PUBLIC 742f9 0 _ZNKSs5rfindERKSsj
PUBLIC 74305 0 _ZNKSs5rfindEPKcj
PUBLIC 74325 0 _ZNKSs5rfindEcj
PUBLIC 7436d 0 _ZNKSs13find_first_ofEPKcjj
PUBLIC 743e1 0 _ZNKSs13find_first_ofERKSsj
PUBLIC 743ed 0 _ZNKSs13find_first_ofEPKcj
PUBLIC 7440d 0 _ZNKSs13find_first_ofEcj
PUBLIC 74411 0 _ZNKSs12find_last_ofEPKcjj
PUBLIC 74479 0 _ZNKSs12find_last_ofERKSsj
PUBLIC 74485 0 _ZNKSs12find_last_ofEPKcj
PUBLIC 744a5 0 _ZNKSs12find_last_ofEcj
PUBLIC 744a9 0 _ZNKSs17find_first_not_ofEPKcjj
PUBLIC 74519 0 _ZNKSs17find_first_not_ofERKSsj
PUBLIC 74525 0 _ZNKSs17find_first_not_ofEPKcj
PUBLIC 74545 0 _ZNKSs17find_first_not_ofEcj
PUBLIC 7458d 0 _ZNKSs16find_last_not_ofEPKcjj
PUBLIC 745e5 0 _ZNKSs16find_last_not_ofERKSsj
PUBLIC 745f1 0 _ZNKSs16find_last_not_ofEPKcj
PUBLIC 74611 0 _ZNKSs16find_last_not_ofEcj
PUBLIC 74651 0 _ZNKSs7compareERKSs
PUBLIC 74675 0 _ZNKSs7compareEjjRKSs
PUBLIC 746b1 0 _ZNKSs7compareEjjRKSsjj
PUBLIC 74709 0 _ZNKSs7compareEPKc
PUBLIC 74731 0 _ZNKSs7compareEjjPKc
PUBLIC 74779 0 _ZNKSs7compareEjjPKcj
PUBLIC 747b1 0 _ZNSs12_Alloc_hiderC1EPcRKSaIcE
PUBLIC 747b5 0 _ZNSs4_Rep12_S_empty_repEv
PUBLIC 747c9 0 _ZNKSs4_Rep12_M_is_leakedEv
PUBLIC 747d1 0 _ZNKSs4_Rep12_M_is_sharedEv
PUBLIC 747dd 0 _ZNSs4_Rep13_M_set_leakedEv
PUBLIC 747e5 0 _ZNSs4_Rep15_M_set_sharableEv
PUBLIC 747ed 0 _ZNSs4_Rep10_M_refdataEv
PUBLIC 747f1 0 _ZNSs4_Rep9_S_createEjjRKSaIcE
PUBLIC 74859 0 _ZNSs12_S_constructEjcRKSaIcE
PUBLIC 748ad 0 _ZNSs18_S_construct_aux_2EjcRKSaIcE
PUBLIC 748b1 0 _ZNSsC1EjcRKSaIcE
PUBLIC 748c5 0 _ZNSsC1ERKSaIcE
PUBLIC 748d9 0 _ZNSs4_Rep10_M_destroyERKSaIcE
PUBLIC 748dd 0 _ZNSs4_Rep10_M_disposeERKSaIcE
PUBLIC 74939 0 _ZNSsD1Ev
PUBLIC 749a1 0 _ZNSs9_M_mutateEjjj
PUBLIC 74b05 0 _ZNSs15_M_replace_safeEjjPKcj
PUBLIC 74b39 0 _ZNSs6assignEPKcj
PUBLIC 74bf1 0 _ZNSs6assignESt16initializer_listIcE
PUBLIC 74c01 0 _ZNSs6assignEPKc
PUBLIC 74c1d 0 _ZNSs6assignERKSsjj
PUBLIC 74c49 0 _ZNSsaSESt16initializer_listIcE
PUBLIC 74c61 0 _ZNSsaSEPKc
PUBLIC 74c7d 0 _ZNSs14_M_replace_auxEjjjc
PUBLIC 74cdd 0 _ZNSs7replaceEN9__gnu_cxx17__normal_iteratorIPcSsEES2_jc
PUBLIC 74cf1 0 _ZNSs7replaceEjjjc
PUBLIC 74d21 0 _ZNSs6insertEN9__gnu_cxx17__normal_iteratorIPcSsEEc
PUBLIC 74d49 0 _ZNSs6insertEjjc
PUBLIC 74d75 0 _ZNSs6assignEjc
PUBLIC 74d91 0 _ZNSs6insertEN9__gnu_cxx17__normal_iteratorIPcSsEEjc
PUBLIC 74da9 0 _ZNSsaSEc
PUBLIC 74dc5 0 _ZNSs5eraseEN9__gnu_cxx17__normal_iteratorIPcSsEES2_
PUBLIC 74de9 0 _ZNSs5eraseEN9__gnu_cxx17__normal_iteratorIPcSsEE
PUBLIC 74e09 0 _ZNSs5eraseEjj
PUBLIC 74e35 0 _ZNSs6insertEjPKcj
PUBLIC 74f21 0 _ZNSs6insertEjPKc
PUBLIC 74f41 0 _ZNSs6insertEjRKSsjj
PUBLIC 74f71 0 _ZNSs6insertEN9__gnu_cxx17__normal_iteratorIPcSsEESt16initializer_listIcE
PUBLIC 74f89 0 _ZNSs6insertEjRKSs
PUBLIC 74f95 0 _ZNSs5clearEv
PUBLIC 74fa5 0 _ZNSs12_M_leak_hardEv
PUBLIC 74fe5 0 _ZNSs7_M_leakEv
PUBLIC 74ff5 0 _ZNSs5beginEv
PUBLIC 7500d 0 _ZNSs2atEj
PUBLIC 7503d 0 _ZNSsixEj
PUBLIC 75059 0 _ZNSs3endEv
PUBLIC 75079 0 _ZNSs4rendEv
PUBLIC 75099 0 _ZNSs6rbeginEv
PUBLIC 750c1 0 _ZNSs4_Rep10_M_refcopyEv
PUBLIC 75115 0 _ZNSs4_Rep8_M_cloneERKSaIcEj
PUBLIC 75175 0 _ZNSs4_Rep7_M_grabERKSaIcES2_
PUBLIC 751d9 0 _ZNSs7reserveEj
PUBLIC 75271 0 _ZNSs9push_backEc
PUBLIC 752d1 0 _ZNSs6appendEjc
PUBLIC 7536d 0 _ZNSs6resizeEjc
PUBLIC 753ad 0 _ZNSs6resizeEj
PUBLIC 753b5 0 _ZNSs6appendEPKcj
PUBLIC 75471 0 _ZNSs6appendESt16initializer_listIcE
PUBLIC 75481 0 _ZNSs6appendEPKc
PUBLIC 7549d 0 _ZNSspLESt16initializer_listIcE
PUBLIC 754ad 0 _ZNSspLEPKc
PUBLIC 754c9 0 _ZNSs6appendERKSsjj
PUBLIC 75575 0 _ZNSs6appendERKSs
PUBLIC 755f9 0 _ZNSspLERKSs
PUBLIC 755fd 0 _ZNSs13shrink_to_fitEv
PUBLIC 75615 0 _ZNSspLEc
PUBLIC 75675 0 _ZNSsC2ERKSs
PUBLIC 756dd 0 _ZNSs6assignERKSs
PUBLIC 757a1 0 _ZNSsaSERKSs
PUBLIC 757a5 0 _ZStplIcSt11char_traitsIcESaIcEESbIT_T0_T1_EPKS3_RKS6_
PUBLIC 75801 0 _ZStplIcSt11char_traitsIcESaIcEESbIT_T0_T1_ES3_RKS6_
PUBLIC 7584d 0 _ZStplIcSt11char_traitsIcESaIcEESbIT_T0_T1_ERKS6_S8_
PUBLIC 7586d 0 _ZNSs12_S_constructIN9__gnu_cxx17__normal_iteratorIPcSsEEEES2_T_S4_RKSaIcESt20forward_iterator_tag
PUBLIC 758cd 0 _ZNSsC1IN9__gnu_cxx17__normal_iteratorIPcSsEEEET_S4_RKSaIcE
PUBLIC 758e5 0 _ZNSs12_S_constructIPcEES0_T_S1_RKSaIcESt20forward_iterator_tag
PUBLIC 75969 0 _ZNSsC2ERKSsjj
PUBLIC 759a9 0 _ZNKSs6substrEjj
PUBLIC 759cd 0 _ZNSsC2IPcEET_S1_RKSaIcE
PUBLIC 759e5 0 _ZNSsC1ERKSsjjRKSaIcE
PUBLIC 75a21 0 _ZNSs12_S_constructIPKcEEPcT_S3_RKSaIcESt20forward_iterator_tag
PUBLIC 75aa5 0 _ZNSsC1EPKcjRKSaIcE
PUBLIC 75abd 0 _ZNSs7replaceEjjPKcj
PUBLIC 75c09 0 _ZNSs7replaceEN9__gnu_cxx17__normal_iteratorIPcSsEES2_NS0_IPKcSsEES5_
PUBLIC 75c1d 0 _ZNSs7replaceEN9__gnu_cxx17__normal_iteratorIPcSsEES2_S2_S2_
PUBLIC 75c31 0 _ZNSs7replaceEN9__gnu_cxx17__normal_iteratorIPcSsEES2_PKcS4_
PUBLIC 75c45 0 _ZNSs7replaceEN9__gnu_cxx17__normal_iteratorIPcSsEES2_S1_S1_
PUBLIC 75c59 0 _ZNSs7replaceEN9__gnu_cxx17__normal_iteratorIPcSsEES2_PKcj
PUBLIC 75c69 0 _ZNSs7replaceEjjPKc
PUBLIC 75c8d 0 _ZNSs7replaceEjjRKSsjj
PUBLIC 75cbd 0 _ZNSs7replaceEjjRKSs
PUBLIC 75cd5 0 _ZNSs7replaceEN9__gnu_cxx17__normal_iteratorIPcSsEES2_St16initializer_listIcE
PUBLIC 75ce9 0 _ZNSs7replaceEN9__gnu_cxx17__normal_iteratorIPcSsEES2_PKc
PUBLIC 75d11 0 _ZNSs7replaceEN9__gnu_cxx17__normal_iteratorIPcSsEES2_RKSs
PUBLIC 75d2d 0 _ZNSsC1IPKcEET_S2_RKSaIcE
PUBLIC 75d45 0 _ZNSsC2ESt16initializer_listIcERKSaIcE
PUBLIC 75d69 0 _ZNSsC1EPKcRKSaIcE
PUBLIC 75ef9 0 _ZNSt6gslice8_IndexerC1EjRKSt8valarrayIjES4_
PUBLIC 75fcd 0 _ZNSt8valarrayIjED1Ev
PUBLIC 75fdd 0 _ZNSt8valarrayIjEC1ERKS0_
PUBLIC 7604d 0 _ZNSt8valarrayIjEC1Ej
PUBLIC 76069 0 _ZNKSt8valarrayIjE4sizeEv
PUBLIC 7606d 0 _ZNSt8valarrayIjEixEj
PUBLIC 76075 0 _ZNKSt10moneypunctIwLb0EE16do_decimal_pointEv
PUBLIC 7607d 0 _ZNKSt10moneypunctIwLb0EE16do_thousands_sepEv
PUBLIC 76085 0 _ZNKSt10moneypunctIwLb0EE14do_frac_digitsEv
PUBLIC 7608d 0 _ZNKSt10moneypunctIwLb0EE13do_pos_formatEv
PUBLIC 760b9 0 _ZNKSt10moneypunctIwLb0EE13do_neg_formatEv
PUBLIC 760e5 0 _ZNKSt10moneypunctIwLb1EE16do_decimal_pointEv
PUBLIC 760ed 0 _ZNKSt10moneypunctIwLb1EE16do_thousands_sepEv
PUBLIC 760f5 0 _ZNKSt10moneypunctIwLb1EE14do_frac_digitsEv
PUBLIC 760fd 0 _ZNKSt10moneypunctIwLb1EE13do_pos_formatEv
PUBLIC 76129 0 _ZNKSt10moneypunctIwLb1EE13do_neg_formatEv
PUBLIC 76155 0 _ZNKSt8numpunctIwE16do_decimal_pointEv
PUBLIC 7615d 0 _ZNKSt8numpunctIwE16do_thousands_sepEv
PUBLIC 76165 0 _ZNKSt8time_getIwSt19istreambuf_iteratorIwSt11char_traitsIwEEE13do_date_orderEv
PUBLIC 76169 0 _ZNKSt8messagesIwE8do_closeEi
PUBLIC 7616d 0 _ZNKSt7collateIwE7do_hashEPKwS2_
PUBLIC 76241 0 _ZNSt8time_getIwSt19istreambuf_iteratorIwSt11char_traitsIwEEED2Ev
PUBLIC 76261 0 _ZNSt15time_get_bynameIwSt19istreambuf_iteratorIwSt11char_traitsIwEEED2Ev
PUBLIC 76281 0 _ZNSt8time_getIwSt19istreambuf_iteratorIwSt11char_traitsIwEEED0Ev
PUBLIC 762a9 0 _ZNSt8time_putIwSt19ostreambuf_iteratorIwSt11char_traitsIwEEED2Ev
PUBLIC 762c9 0 _ZNSt15time_put_bynameIwSt19ostreambuf_iteratorIwSt11char_traitsIwEEED2Ev
PUBLIC 762e9 0 _ZNSt8time_putIwSt19ostreambuf_iteratorIwSt11char_traitsIwEEED0Ev
PUBLIC 76311 0 _ZNSt17__timepunct_cacheIwED2Ev
PUBLIC 76331 0 _ZNSt17__timepunct_cacheIwED0Ev
PUBLIC 76345 0 _ZNSt7num_putIwSt19ostreambuf_iteratorIwSt11char_traitsIwEEED1Ev
PUBLIC 76365 0 _ZNSt7num_putIwSt19ostreambuf_iteratorIwSt11char_traitsIwEEED0Ev
PUBLIC 7638d 0 _ZNSt7num_getIwSt19istreambuf_iteratorIwSt11char_traitsIwEEED2Ev
PUBLIC 763ad 0 _ZNSt7num_getIwSt19istreambuf_iteratorIwSt11char_traitsIwEEED0Ev
PUBLIC 763d5 0 _ZNSt9money_putIwSt19ostreambuf_iteratorIwSt11char_traitsIwEEED2Ev
PUBLIC 763f5 0 _ZNSt9money_putIwSt19ostreambuf_iteratorIwSt11char_traitsIwEEED0Ev
PUBLIC 7641d 0 _ZNSt9money_getIwSt19istreambuf_iteratorIwSt11char_traitsIwEEED2Ev
PUBLIC 7643d 0 _ZNSt9money_getIwSt19istreambuf_iteratorIwSt11char_traitsIwEEED0Ev
PUBLIC 76465 0 _ZNSt7collateIwED1Ev
PUBLIC 76499 0 _ZNSt16__numpunct_cacheIwED1Ev
PUBLIC 764d9 0 _ZNSt16__numpunct_cacheIwED0Ev
PUBLIC 764ed 0 _ZNSt18__moneypunct_cacheIwLb1EED2Ev
PUBLIC 76535 0 _ZNSt18__moneypunct_cacheIwLb1EED0Ev
PUBLIC 76549 0 _ZNSt18__moneypunct_cacheIwLb0EED2Ev
PUBLIC 76591 0 _ZNSt18__moneypunct_cacheIwLb0EED0Ev
PUBLIC 765a5 0 _ZNSt14codecvt_bynameIwc11__mbstate_tED2Ev
PUBLIC 765c5 0 _ZNSt14codecvt_bynameIwc11__mbstate_tED0Ev
PUBLIC 765ed 0 _ZNSt8messagesIwED2Ev
PUBLIC 76635 0 _ZNSt15messages_bynameIwED2Ev
PUBLIC 76655 0 _ZNSt15messages_bynameIwED0Ev
PUBLIC 7667d 0 _ZNSt8messagesIwED0Ev
PUBLIC 76691 0 _ZNSt11__timepunctIwED1Ev
PUBLIC 766e1 0 _ZNSt11__timepunctIwED0Ev
PUBLIC 766f5 0 _ZNKSt8messagesIwE7do_openERKSsRKSt6locale
PUBLIC 76701 0 _ZNSt15numpunct_bynameIwED2Ev
PUBLIC 76721 0 _ZNSt15numpunct_bynameIwED0Ev
PUBLIC 76749 0 _ZNKSt8numpunctIwE12do_falsenameEv
PUBLIC 76761 0 _ZNKSt8numpunctIwE11do_truenameEv
PUBLIC 76779 0 _ZNKSt10moneypunctIwLb1EE16do_negative_signEv
PUBLIC 76791 0 _ZNKSt10moneypunctIwLb1EE16do_positive_signEv
PUBLIC 767a9 0 _ZNKSt10moneypunctIwLb1EE14do_curr_symbolEv
PUBLIC 767c1 0 _ZNKSt10moneypunctIwLb0EE16do_negative_signEv
PUBLIC 767d9 0 _ZNKSt10moneypunctIwLb0EE16do_positive_signEv
PUBLIC 767f1 0 _ZNKSt10moneypunctIwLb0EE14do_curr_symbolEv
PUBLIC 76809 0 _ZNKSt8numpunctIwE11do_groupingEv
PUBLIC 76821 0 _ZNKSt10moneypunctIwLb1EE11do_groupingEv
PUBLIC 76839 0 _ZNKSt10moneypunctIwLb0EE11do_groupingEv
PUBLIC 76851 0 _ZNSt17moneypunct_bynameIwLb1EED2Ev
PUBLIC 76871 0 _ZNSt17moneypunct_bynameIwLb1EED0Ev
PUBLIC 76899 0 _ZNSt17moneypunct_bynameIwLb0EED1Ev
PUBLIC 768b9 0 _ZNSt17moneypunct_bynameIwLb0EED0Ev
PUBLIC 768e1 0 _ZNSt15time_put_bynameIwSt19ostreambuf_iteratorIwSt11char_traitsIwEEED0Ev
PUBLIC 76909 0 _ZNSt15time_get_bynameIwSt19istreambuf_iteratorIwSt11char_traitsIwEEED0Ev
PUBLIC 76931 0 _ZNSt14collate_bynameIwED2Ev
PUBLIC 76965 0 _ZNSt14collate_bynameIwED0Ev
PUBLIC 7699d 0 _ZNSt7collateIwED0Ev
PUBLIC 769d5 0 _ZNKSt7collateIwE12do_transformEPKwS2_
PUBLIC 76b41 0 _ZNKSt7collateIwE10do_compareEPKwS2_S2_S2_
PUBLIC 76c85 0 _ZNSt10moneypunctIwLb0EEC1Ej
PUBLIC 76cc1 0 _ZNSt10moneypunctIwLb0EEC1EPSt18__moneypunct_cacheIwLb0EEj
PUBLIC 76cf9 0 _ZNSt10moneypunctIwLb0EEC2EPiPKcj
PUBLIC 76d35 0 _ZNKSt10moneypunctIwLb0EE13decimal_pointEv
PUBLIC 76d41 0 _ZNKSt10moneypunctIwLb0EE13thousands_sepEv
PUBLIC 76d4d 0 _ZNKSt10moneypunctIwLb0EE8groupingEv
PUBLIC 76d5d 0 _ZNKSt10moneypunctIwLb0EE11curr_symbolEv
PUBLIC 76d6d 0 _ZNKSt10moneypunctIwLb0EE13positive_signEv
PUBLIC 76d7d 0 _ZNKSt10moneypunctIwLb0EE13negative_signEv
PUBLIC 76d8d 0 _ZNKSt10moneypunctIwLb0EE11frac_digitsEv
PUBLIC 76d99 0 _ZNKSt10moneypunctIwLb0EE10pos_formatEv
PUBLIC 76de5 0 _ZNKSt10moneypunctIwLb0EE10neg_formatEv
PUBLIC 76e31 0 _ZNSt10moneypunctIwLb1EEC1Ej
PUBLIC 76e6d 0 _ZNSt10moneypunctIwLb1EEC1EPSt18__moneypunct_cacheIwLb1EEj
PUBLIC 76ea5 0 _ZNSt10moneypunctIwLb1EEC1EPiPKcj
PUBLIC 76ee1 0 _ZNKSt10moneypunctIwLb1EE13decimal_pointEv
PUBLIC 76eed 0 _ZNKSt10moneypunctIwLb1EE13thousands_sepEv
PUBLIC 76ef9 0 _ZNKSt10moneypunctIwLb1EE8groupingEv
PUBLIC 76f09 0 _ZNKSt10moneypunctIwLb1EE11curr_symbolEv
PUBLIC 76f19 0 _ZNKSt10moneypunctIwLb1EE13positive_signEv
PUBLIC 76f29 0 _ZNKSt10moneypunctIwLb1EE13negative_signEv
PUBLIC 76f39 0 _ZNKSt10moneypunctIwLb1EE11frac_digitsEv
PUBLIC 76f45 0 _ZNKSt10moneypunctIwLb1EE10pos_formatEv
PUBLIC 76f91 0 _ZNKSt10moneypunctIwLb1EE10neg_formatEv
PUBLIC 76fdd 0 _ZNSt18__moneypunct_cacheIwLb0EEC2Ej
PUBLIC 7703d 0 _ZNSt18__moneypunct_cacheIwLb1EEC2Ej
PUBLIC 7709d 0 _ZNSt17moneypunct_bynameIwLb0EEC1EPKcj
PUBLIC 77135 0 _ZNSt17moneypunct_bynameIwLb1EEC2EPKcj
PUBLIC 771cd 0 _ZNSt9money_getIwSt19istreambuf_iteratorIwSt11char_traitsIwEEEC1Ej
PUBLIC 771ed 0 _ZNKSt9money_getIwSt19istreambuf_iteratorIwSt11char_traitsIwEEE3getES3_S3_bRSt8ios_baseRSt12_Ios_IostateRe
PUBLIC 77231 0 _ZNKSt9money_getIwSt19istreambuf_iteratorIwSt11char_traitsIwEEE3getES3_S3_bRSt8ios_baseRSt12_Ios_IostateRSbIwS2_SaIwEE
PUBLIC 77275 0 _ZNSt9money_putIwSt19ostreambuf_iteratorIwSt11char_traitsIwEEEC1Ej
PUBLIC 77295 0 _ZNKSt9money_putIwSt19ostreambuf_iteratorIwSt11char_traitsIwEEE3putES3_bRSt8ios_basewe
PUBLIC 772c9 0 _ZNKSt9money_putIwSt19ostreambuf_iteratorIwSt11char_traitsIwEEE3putES3_bRSt8ios_basewRKSbIwS2_SaIwEE
PUBLIC 772f9 0 _ZNSt8numpunctIwEC2Ej
PUBLIC 77331 0 _ZNSt8numpunctIwEC1EPSt16__numpunct_cacheIwEj
PUBLIC 77369 0 _ZNSt8numpunctIwEC2EPij
PUBLIC 773a5 0 _ZNKSt8numpunctIwE13decimal_pointEv
PUBLIC 773b1 0 _ZNKSt8numpunctIwE13thousands_sepEv
PUBLIC 773bd 0 _ZNKSt8numpunctIwE8groupingEv
PUBLIC 773cd 0 _ZNKSt8numpunctIwE8truenameEv
PUBLIC 773dd 0 _ZNKSt8numpunctIwE9falsenameEv
PUBLIC 773ed 0 _ZNSt16__numpunct_cacheIwEC1Ej
PUBLIC 77429 0 _ZNSt15numpunct_bynameIwEC2EPKcj
PUBLIC 774bd 0 _ZNSt7num_getIwSt19istreambuf_iteratorIwSt11char_traitsIwEEEC1Ej
PUBLIC 774dd 0 _ZNKSt7num_getIwSt19istreambuf_iteratorIwSt11char_traitsIwEEE3getES3_S3_RSt8ios_baseRSt12_Ios_IostateRb
PUBLIC 77519 0 _ZNKSt7num_getIwSt19istreambuf_iteratorIwSt11char_traitsIwEEE3getES3_S3_RSt8ios_baseRSt12_Ios_IostateRl
PUBLIC 77555 0 _ZNKSt7num_getIwSt19istreambuf_iteratorIwSt11char_traitsIwEEE3getES3_S3_RSt8ios_baseRSt12_Ios_IostateRt
PUBLIC 77591 0 _ZNKSt7num_getIwSt19istreambuf_iteratorIwSt11char_traitsIwEEE3getES3_S3_RSt8ios_baseRSt12_Ios_IostateRj
PUBLIC 775cd 0 _ZNKSt7num_getIwSt19istreambuf_iteratorIwSt11char_traitsIwEEE3getES3_S3_RSt8ios_baseRSt12_Ios_IostateRm
PUBLIC 77609 0 _ZNKSt7num_getIwSt19istreambuf_iteratorIwSt11char_traitsIwEEE3getES3_S3_RSt8ios_baseRSt12_Ios_IostateRx
PUBLIC 77645 0 _ZNKSt7num_getIwSt19istreambuf_iteratorIwSt11char_traitsIwEEE3getES3_S3_RSt8ios_baseRSt12_Ios_IostateRy
PUBLIC 77681 0 _ZNKSt7num_getIwSt19istreambuf_iteratorIwSt11char_traitsIwEEE3getES3_S3_RSt8ios_baseRSt12_Ios_IostateRf
PUBLIC 776bd 0 _ZNKSt7num_getIwSt19istreambuf_iteratorIwSt11char_traitsIwEEE3getES3_S3_RSt8ios_baseRSt12_Ios_IostateRd
PUBLIC 776f9 0 _ZNKSt7num_getIwSt19istreambuf_iteratorIwSt11char_traitsIwEEE3getES3_S3_RSt8ios_baseRSt12_Ios_IostateRe
PUBLIC 77735 0 _ZNKSt7num_getIwSt19istreambuf_iteratorIwSt11char_traitsIwEEE3getES3_S3_RSt8ios_baseRSt12_Ios_IostateRPv
PUBLIC 77771 0 _ZNSt7num_putIwSt19ostreambuf_iteratorIwSt11char_traitsIwEEEC2Ej
PUBLIC 77791 0 _ZNKSt7num_putIwSt19ostreambuf_iteratorIwSt11char_traitsIwEEE3putES3_RSt8ios_basewb
PUBLIC 777bd 0 _ZNKSt7num_putIwSt19ostreambuf_iteratorIwSt11char_traitsIwEEE3putES3_RSt8ios_basewl
PUBLIC 777e5 0 _ZNKSt7num_putIwSt19ostreambuf_iteratorIwSt11char_traitsIwEEE3putES3_RSt8ios_basewm
PUBLIC 7780d 0 _ZNKSt7num_putIwSt19ostreambuf_iteratorIwSt11char_traitsIwEEE3putES3_RSt8ios_basewx
PUBLIC 77839 0 _ZNKSt7num_putIwSt19ostreambuf_iteratorIwSt11char_traitsIwEEE3putES3_RSt8ios_basewy
PUBLIC 77865 0 _ZNKSt7num_putIwSt19ostreambuf_iteratorIwSt11char_traitsIwEEE3putES3_RSt8ios_basewd
PUBLIC 77891 0 _ZNKSt7num_putIwSt19ostreambuf_iteratorIwSt11char_traitsIwEEE3putES3_RSt8ios_basewe
PUBLIC 778bd 0 _ZNKSt7num_putIwSt19ostreambuf_iteratorIwSt11char_traitsIwEEE3putES3_RSt8ios_basewPKv
PUBLIC 778e5 0 _ZNSt11__timepunctIwEC2Ej
PUBLIC 77929 0 _ZNSt11__timepunctIwEC2EPSt17__timepunct_cacheIwEj
PUBLIC 7796d 0 _ZNSt11__timepunctIwEC2EP15__locale_structPKcj
PUBLIC 77a3d 0 _ZNKSt11__timepunctIwE15_M_date_formatsEPPKw
PUBLIC 77a49 0 _ZNKSt11__timepunctIwE15_M_time_formatsEPPKw
PUBLIC 77a55 0 _ZNKSt11__timepunctIwE20_M_date_time_formatsEPPKw
PUBLIC 77a61 0 _ZNKSt11__timepunctIwE15_M_am_pm_formatEPKw
PUBLIC 77a65 0 _ZNKSt11__timepunctIwE8_M_am_pmEPPKw
PUBLIC 77a71 0 _ZNKSt11__timepunctIwE7_M_daysEPPKw
PUBLIC 77a91 0 _ZNKSt11__timepunctIwE19_M_days_abbreviatedEPPKw
PUBLIC 77ab1 0 _ZNKSt11__timepunctIwE9_M_monthsEPPKw
PUBLIC 77af1 0 _ZNKSt11__timepunctIwE21_M_months_abbreviatedEPPKw
PUBLIC 77b3d 0 _ZNSt17__timepunct_cacheIwEC1Ej
PUBLIC 77be5 0 _ZNSt8time_putIwSt19ostreambuf_iteratorIwSt11char_traitsIwEEEC1Ej
PUBLIC 77c05 0 _ZNKSt8time_putIwSt19ostreambuf_iteratorIwSt11char_traitsIwEEE3putES3_RSt8ios_basewPK2tmcc
PUBLIC 77c3d 0 _ZNSt15time_put_bynameIwSt19ostreambuf_iteratorIwSt11char_traitsIwEEEC1EPKcj
PUBLIC 77c5d 0 _ZNSt8time_getIwSt19istreambuf_iteratorIwSt11char_traitsIwEEEC2Ej
PUBLIC 77c7d 0 _ZNKSt8time_getIwSt19istreambuf_iteratorIwSt11char_traitsIwEEE10date_orderEv
PUBLIC 77c89 0 _ZNKSt8time_getIwSt19istreambuf_iteratorIwSt11char_traitsIwEEE8get_timeES3_S3_RSt8ios_baseRSt12_Ios_IostateP2tm
PUBLIC 77cc5 0 _ZNKSt8time_getIwSt19istreambuf_iteratorIwSt11char_traitsIwEEE8get_dateES3_S3_RSt8ios_baseRSt12_Ios_IostateP2tm
PUBLIC 77d01 0 _ZNKSt8time_getIwSt19istreambuf_iteratorIwSt11char_traitsIwEEE11get_weekdayES3_S3_RSt8ios_baseRSt12_Ios_IostateP2tm
PUBLIC 77d3d 0 _ZNKSt8time_getIwSt19istreambuf_iteratorIwSt11char_traitsIwEEE13get_monthnameES3_S3_RSt8ios_baseRSt12_Ios_IostateP2tm
PUBLIC 77d79 0 _ZNKSt8time_getIwSt19istreambuf_iteratorIwSt11char_traitsIwEEE8get_yearES3_S3_RSt8ios_baseRSt12_Ios_IostateP2tm
PUBLIC 77db5 0 _ZNSt15time_get_bynameIwSt19istreambuf_iteratorIwSt11char_traitsIwEEEC1EPKcj
PUBLIC 77dd5 0 _ZNSt8messagesIwEC2Ej
PUBLIC 77e11 0 _ZNSt8messagesIwEC2EP15__locale_structPKcj
PUBLIC 77ec5 0 _ZNKSt8messagesIwE4openERKSsRKSt6locale
PUBLIC 77ed1 0 _ZNKSt8messagesIwE4openERKSsRKSt6localePKc
PUBLIC 77ef1 0 _ZNKSt8messagesIwE3getEiiiRKSbIwSt11char_traitsIwESaIwEE
PUBLIC 77f0d 0 _ZNKSt8messagesIwE5closeEi
PUBLIC 77f19 0 _ZNKSt8messagesIwE18_M_convert_to_charERKSbIwSt11char_traitsIwESaIwEE
PUBLIC 77f1d 0 _ZNKSt8messagesIwE20_M_convert_from_charEPc
PUBLIC 77f35 0 _ZNSt15messages_bynameIwEC1EPKcj
PUBLIC 78019 0 _ZNSt14codecvt_bynameIwc11__mbstate_tEC1EPKcj
PUBLIC 78081 0 _ZNSt7collateIwEC1Ej
PUBLIC 780b5 0 _ZNSt7collateIwEC2EPij
PUBLIC 780e9 0 _ZNKSt7collateIwE7compareEPKwS2_S2_S2_
PUBLIC 780fd 0 _ZNKSt7collateIwE9transformEPKwS2_
PUBLIC 7810d 0 _ZNKSt7collateIwE4hashEPKwS2_
PUBLIC 78119 0 _ZNSt14collate_bynameIwEC1EPKcj
PUBLIC 7819d 0 _ZSt9use_facetISt5ctypeIwEERKT_RKSt6locale
PUBLIC 781ed 0 _ZNKSt8time_putIwSt19ostreambuf_iteratorIwSt11char_traitsIwEEE3putES3_RSt8ios_basewPK2tmPKwSB_
PUBLIC 782f1 0 _ZSt9use_facetISt7codecvtIwc11__mbstate_tEERKT_RKSt6locale
PUBLIC 78341 0 _ZSt9use_facetISt7collateIwEERKT_RKSt6locale
PUBLIC 78391 0 _ZSt9use_facetISt8numpunctIwEERKT_RKSt6locale
PUBLIC 783e1 0 _ZNSt16__numpunct_cacheIwE8_M_cacheERKSt6locale
PUBLIC 787ad 0 _ZSt9use_facetISt7num_putIwSt19ostreambuf_iteratorIwSt11char_traitsIwEEEERKT_RKSt6locale
PUBLIC 787fd 0 _ZSt9use_facetISt7num_getIwSt19istreambuf_iteratorIwSt11char_traitsIwEEEERKT_RKSt6locale
PUBLIC 7884d 0 _ZSt9use_facetISt10moneypunctIwLb1EEERKT_RKSt6locale
PUBLIC 7889d 0 _ZNSt18__moneypunct_cacheIwLb1EE8_M_cacheERKSt6locale
PUBLIC 78da9 0 _ZSt9use_facetISt10moneypunctIwLb0EEERKT_RKSt6locale
PUBLIC 78df9 0 _ZNSt18__moneypunct_cacheIwLb0EE8_M_cacheERKSt6locale
PUBLIC 79305 0 _ZSt9use_facetISt9money_putIwSt19ostreambuf_iteratorIwSt11char_traitsIwEEEERKT_RKSt6locale
PUBLIC 79355 0 _ZSt9use_facetISt9money_getIwSt19istreambuf_iteratorIwSt11char_traitsIwEEEERKT_RKSt6locale
PUBLIC 793a5 0 _ZSt9use_facetISt11__timepunctIwEERKT_RKSt6locale
PUBLIC 793f5 0 _ZNKSt8time_putIwSt19ostreambuf_iteratorIwSt11char_traitsIwEEE6do_putES3_RSt8ios_basewPK2tmcc
PUBLIC 79495 0 _ZSt9use_facetISt8time_putIwSt19ostreambuf_iteratorIwSt11char_traitsIwEEEERKT_RKSt6locale
PUBLIC 794e5 0 _ZSt9use_facetISt8time_getIwSt19istreambuf_iteratorIwSt11char_traitsIwEEEERKT_RKSt6locale
PUBLIC 79535 0 _ZSt9use_facetISt8messagesIwEERKT_RKSt6locale
PUBLIC 79585 0 _ZSt9has_facetISt5ctypeIwEEbRKSt6locale
PUBLIC 795d5 0 _ZSt9has_facetISt7codecvtIwc11__mbstate_tEEbRKSt6locale
PUBLIC 79625 0 _ZSt9has_facetISt7collateIwEEbRKSt6locale
PUBLIC 79675 0 _ZSt9has_facetISt8numpunctIwEEbRKSt6locale
PUBLIC 796c5 0 _ZSt9has_facetISt7num_putIwSt19ostreambuf_iteratorIwSt11char_traitsIwEEEEbRKSt6locale
PUBLIC 79715 0 _ZSt9has_facetISt7num_getIwSt19istreambuf_iteratorIwSt11char_traitsIwEEEEbRKSt6locale
PUBLIC 79765 0 _ZSt9has_facetISt10moneypunctIwLb0EEEbRKSt6locale
PUBLIC 797b5 0 _ZSt9has_facetISt9money_putIwSt19ostreambuf_iteratorIwSt11char_traitsIwEEEEbRKSt6locale
PUBLIC 79805 0 _ZSt9has_facetISt9money_getIwSt19istreambuf_iteratorIwSt11char_traitsIwEEEEbRKSt6locale
PUBLIC 79855 0 _ZSt9has_facetISt11__timepunctIwEEbRKSt6locale
PUBLIC 798a5 0 _ZSt9has_facetISt8time_putIwSt19ostreambuf_iteratorIwSt11char_traitsIwEEEEbRKSt6locale
PUBLIC 798f5 0 _ZSt9has_facetISt8time_getIwSt19istreambuf_iteratorIwSt11char_traitsIwEEEEbRKSt6locale
PUBLIC 79945 0 _ZSt9has_facetISt8messagesIwEEbRKSt6locale
PUBLIC 79b3d 0 _ZNKSt7num_putIwSt19ostreambuf_iteratorIwSt11char_traitsIwEEE12_M_group_intEPKcjwRSt8ios_basePwS9_Ri
PUBLIC 79b6d 0 _ZNKSt7num_putIwSt19ostreambuf_iteratorIwSt11char_traitsIwEEE14_M_group_floatEPKcjwPKwPwS9_Ri
PUBLIC 79bdd 0 _ZNKSt9money_putIwSt19ostreambuf_iteratorIwSt11char_traitsIwEEE9_M_insertILb1EEES3_S3_RSt8ios_basewRKSbIwS2_SaIwEE
PUBLIC 7a3e1 0 _ZNKSt9money_putIwSt19ostreambuf_iteratorIwSt11char_traitsIwEEE9_M_insertILb0EEES3_S3_RSt8ios_basewRKSbIwS2_SaIwEE
PUBLIC 7abe5 0 _ZNKSt9money_putIwSt19ostreambuf_iteratorIwSt11char_traitsIwEEE6do_putES3_bRSt8ios_basewRKSbIwS2_SaIwEE
PUBLIC 7ac2d 0 _ZNKSt9money_putIwSt19ostreambuf_iteratorIwSt11char_traitsIwEEE6do_putES3_bRSt8ios_basewe
PUBLIC 7aec1 0 _ZNKSt7num_putIwSt19ostreambuf_iteratorIwSt11char_traitsIwEEE6_M_padEwiRSt8ios_basePwPKwRi
PUBLIC 7b0cd 0 _ZNKSt7num_putIwSt19ostreambuf_iteratorIwSt11char_traitsIwEEE15_M_insert_floatIeEES3_S3_RSt8ios_basewcT_
PUBLIC 7b2f1 0 _ZNKSt7num_putIwSt19ostreambuf_iteratorIwSt11char_traitsIwEEE6do_putES3_RSt8ios_basewe
PUBLIC 7b321 0 _ZNKSt7num_putIwSt19ostreambuf_iteratorIwSt11char_traitsIwEEE15_M_insert_floatIdEES3_S3_RSt8ios_basewcT_
PUBLIC 7b545 0 _ZNKSt7num_putIwSt19ostreambuf_iteratorIwSt11char_traitsIwEEE6do_putES3_RSt8ios_basewd
PUBLIC 7b575 0 _ZNKSt7num_putIwSt19ostreambuf_iteratorIwSt11char_traitsIwEEE13_M_insert_intIyEES3_S3_RSt8ios_basewT_
PUBLIC 7b6ed 0 _ZNKSt7num_putIwSt19ostreambuf_iteratorIwSt11char_traitsIwEEE6do_putES3_RSt8ios_basewy
PUBLIC 7b719 0 _ZNKSt7num_putIwSt19ostreambuf_iteratorIwSt11char_traitsIwEEE13_M_insert_intIxEES3_S3_RSt8ios_basewT_
PUBLIC 7b8e5 0 _ZNKSt7num_putIwSt19ostreambuf_iteratorIwSt11char_traitsIwEEE6do_putES3_RSt8ios_basewx
PUBLIC 7b911 0 _ZNKSt7num_putIwSt19ostreambuf_iteratorIwSt11char_traitsIwEEE13_M_insert_intImEES3_S3_RSt8ios_basewT_
PUBLIC 7ba89 0 _ZNKSt7num_putIwSt19ostreambuf_iteratorIwSt11char_traitsIwEEE6do_putES3_RSt8ios_basewPKv
PUBLIC 7bae5 0 _ZNKSt7num_putIwSt19ostreambuf_iteratorIwSt11char_traitsIwEEE6do_putES3_RSt8ios_basewm
PUBLIC 7bb0d 0 _ZNKSt7num_putIwSt19ostreambuf_iteratorIwSt11char_traitsIwEEE13_M_insert_intIlEES3_S3_RSt8ios_basewT_
PUBLIC 7bcbd 0 _ZNKSt7num_putIwSt19ostreambuf_iteratorIwSt11char_traitsIwEEE6do_putES3_RSt8ios_basewl
PUBLIC 7bce5 0 _ZNKSt7num_putIwSt19ostreambuf_iteratorIwSt11char_traitsIwEEE6do_putES3_RSt8ios_basewb
PUBLIC 7bf45 0 _ZNKSt8time_getIwSt19istreambuf_iteratorIwSt11char_traitsIwEEE14_M_extract_numES3_S3_RiiijRSt8ios_baseRSt12_Ios_Iostate
PUBLIC 7c06d 0 _ZNKSt8time_getIwSt19istreambuf_iteratorIwSt11char_traitsIwEEE11do_get_yearES3_S3_RSt8ios_baseRSt12_Ios_IostateP2tm
PUBLIC 7c13d 0 _ZNKSt9money_getIwSt19istreambuf_iteratorIwSt11char_traitsIwEEE10_M_extractILb1EEES3_S3_S3_RSt8ios_baseRSt12_Ios_IostateRSs
PUBLIC 7cc31 0 _ZNKSt9money_getIwSt19istreambuf_iteratorIwSt11char_traitsIwEEE10_M_extractILb0EEES3_S3_S3_RSt8ios_baseRSt12_Ios_IostateRSs
PUBLIC 7d721 0 _ZNKSt9money_getIwSt19istreambuf_iteratorIwSt11char_traitsIwEEE6do_getES3_S3_bRSt8ios_baseRSt12_Ios_IostateRSbIwS2_SaIwEE
PUBLIC 7d85d 0 _ZNKSt9money_getIwSt19istreambuf_iteratorIwSt11char_traitsIwEEE6do_getES3_S3_bRSt8ios_baseRSt12_Ios_IostateRe
PUBLIC 7d969 0 _ZNKSt8time_getIwSt19istreambuf_iteratorIwSt11char_traitsIwEEE24_M_extract_wday_or_monthES3_S3_RiPPKwjRSt8ios_baseRSt12_Ios_Iostate
PUBLIC 7dc91 0 _ZNKSt8time_getIwSt19istreambuf_iteratorIwSt11char_traitsIwEEE16do_get_monthnameES3_S3_RSt8ios_baseRSt12_Ios_IostateP2tm
PUBLIC 7ddf1 0 _ZNKSt8time_getIwSt19istreambuf_iteratorIwSt11char_traitsIwEEE14do_get_weekdayES3_S3_RSt8ios_baseRSt12_Ios_IostateP2tm
PUBLIC 7df01 0 _ZNKSt8time_getIwSt19istreambuf_iteratorIwSt11char_traitsIwEEE15_M_extract_nameES3_S3_RiPPKwjRSt8ios_baseRSt12_Ios_Iostate
PUBLIC 7e249 0 _ZNKSt8time_getIwSt19istreambuf_iteratorIwSt11char_traitsIwEEE21_M_extract_via_formatES3_S3_RSt8ios_baseRSt12_Ios_IostateP2tmPKw
PUBLIC 7eb75 0 _ZNKSt8time_getIwSt19istreambuf_iteratorIwSt11char_traitsIwEEE11do_get_dateES3_S3_RSt8ios_baseRSt12_Ios_IostateP2tm
PUBLIC 7ec0d 0 _ZNKSt8time_getIwSt19istreambuf_iteratorIwSt11char_traitsIwEEE11do_get_timeES3_S3_RSt8ios_baseRSt12_Ios_IostateP2tm
PUBLIC 7eca5 0 _ZNKSt7num_getIwSt19istreambuf_iteratorIwSt11char_traitsIwEEE16_M_extract_floatES3_S3_RSt8ios_baseRSt12_Ios_IostateRSs
PUBLIC 7f635 0 _ZNKSt7num_getIwSt19istreambuf_iteratorIwSt11char_traitsIwEEE6do_getES3_S3_RSt8ios_baseRSt12_Ios_IostateRe
PUBLIC 7f751 0 _ZNKSt7num_getIwSt19istreambuf_iteratorIwSt11char_traitsIwEEE6do_getES3_S3_RSt8ios_baseRSt12_Ios_IostateRd
PUBLIC 7f869 0 _ZNKSt7num_getIwSt19istreambuf_iteratorIwSt11char_traitsIwEEE6do_getES3_S3_RSt8ios_baseRSt12_Ios_IostateRf
PUBLIC 7f985 0 _ZNKSt7num_getIwSt19istreambuf_iteratorIwSt11char_traitsIwEEE14_M_extract_intIyEES3_S3_S3_RSt8ios_baseRSt12_Ios_IostateRT_
PUBLIC 8001d 0 _ZNKSt7num_getIwSt19istreambuf_iteratorIwSt11char_traitsIwEEE6do_getES3_S3_RSt8ios_baseRSt12_Ios_IostateRy
PUBLIC 80055 0 _ZNKSt7num_getIwSt19istreambuf_iteratorIwSt11char_traitsIwEEE14_M_extract_intIxEES3_S3_S3_RSt8ios_baseRSt12_Ios_IostateRT_
PUBLIC 80725 0 _ZNKSt7num_getIwSt19istreambuf_iteratorIwSt11char_traitsIwEEE6do_getES3_S3_RSt8ios_baseRSt12_Ios_IostateRx
PUBLIC 8075d 0 _ZNKSt7num_getIwSt19istreambuf_iteratorIwSt11char_traitsIwEEE14_M_extract_intImEES3_S3_S3_RSt8ios_baseRSt12_Ios_IostateRT_
PUBLIC 80d3d 0 _ZNKSt7num_getIwSt19istreambuf_iteratorIwSt11char_traitsIwEEE6do_getES3_S3_RSt8ios_baseRSt12_Ios_IostateRPv
PUBLIC 80d99 0 _ZNKSt7num_getIwSt19istreambuf_iteratorIwSt11char_traitsIwEEE6do_getES3_S3_RSt8ios_baseRSt12_Ios_IostateRm
PUBLIC 80dd1 0 _ZNKSt7num_getIwSt19istreambuf_iteratorIwSt11char_traitsIwEEE14_M_extract_intIjEES3_S3_S3_RSt8ios_baseRSt12_Ios_IostateRT_
PUBLIC 813b1 0 _ZNKSt7num_getIwSt19istreambuf_iteratorIwSt11char_traitsIwEEE6do_getES3_S3_RSt8ios_baseRSt12_Ios_IostateRj
PUBLIC 813e9 0 _ZNKSt7num_getIwSt19istreambuf_iteratorIwSt11char_traitsIwEEE14_M_extract_intItEES3_S3_S3_RSt8ios_baseRSt12_Ios_IostateRT_
PUBLIC 819e9 0 _ZNKSt7num_getIwSt19istreambuf_iteratorIwSt11char_traitsIwEEE6do_getES3_S3_RSt8ios_baseRSt12_Ios_IostateRt
PUBLIC 81a21 0 _ZNKSt7num_getIwSt19istreambuf_iteratorIwSt11char_traitsIwEEE14_M_extract_intIlEES3_S3_S3_RSt8ios_baseRSt12_Ios_IostateRT_
PUBLIC 82029 0 _ZNKSt7num_getIwSt19istreambuf_iteratorIwSt11char_traitsIwEEE6do_getES3_S3_RSt8ios_baseRSt12_Ios_IostateRl
PUBLIC 82061 0 _ZNKSt7num_getIwSt19istreambuf_iteratorIwSt11char_traitsIwEEE6do_getES3_S3_RSt8ios_baseRSt12_Ios_IostateRb
PUBLIC 823cd 0 _ZNKSbIwSt11char_traitsIwESaIwEE5c_strEv
PUBLIC 823d1 0 _ZNSbIwSt11char_traitsIwESaIwEEC1EOS2_
PUBLIC 823ed 0 _ZNKSbIwSt11char_traitsIwESaIwEE4dataEv
PUBLIC 823f1 0 _ZNKSbIwSt11char_traitsIwESaIwEE6lengthEv
PUBLIC 823f9 0 _ZNKSbIwSt11char_traitsIwESaIwEE7_M_dataEv
PUBLIC 823fd 0 _ZNSbIwSt11char_traitsIwESaIwEE7_M_dataEPw
PUBLIC 82405 0 _ZNKSbIwSt11char_traitsIwESaIwEE6_M_repEv
PUBLIC 8240d 0 _ZNKSbIwSt11char_traitsIwESaIwEE9_M_ibeginEv
PUBLIC 82411 0 _ZNKSbIwSt11char_traitsIwESaIwEE7_M_iendEv
PUBLIC 8241d 0 _ZNKSbIwSt11char_traitsIwESaIwEE8_M_checkEjPKc
PUBLIC 82435 0 _ZNKSbIwSt11char_traitsIwESaIwEE8_M_limitEjj
PUBLIC 82445 0 _ZNSbIwSt11char_traitsIwESaIwEE13_S_copy_charsEPwN9__gnu_cxx17__normal_iteratorIS3_S2_EES6_
PUBLIC 82461 0 _ZNSbIwSt11char_traitsIwESaIwEE13_S_copy_charsEPwN9__gnu_cxx17__normal_iteratorIPKwS2_EES8_
PUBLIC 8247d 0 _ZNSbIwSt11char_traitsIwESaIwEE13_S_copy_charsEPwS3_S3_
PUBLIC 82499 0 _ZNSbIwSt11char_traitsIwESaIwEE13_S_copy_charsEPwPKwS5_
PUBLIC 824b9 0 _ZNSbIwSt11char_traitsIwESaIwEE12_S_empty_repEv
PUBLIC 824cd 0 _ZNSbIwSt11char_traitsIwESaIwEEC1Ev
PUBLIC 824e5 0 _ZNKSbIwSt11char_traitsIwESaIwEE5beginEv
PUBLIC 824e9 0 _ZNKSbIwSt11char_traitsIwESaIwEE3endEv
PUBLIC 824f5 0 _ZNKSbIwSt11char_traitsIwESaIwEE6rbeginEv
PUBLIC 82505 0 _ZNKSbIwSt11char_traitsIwESaIwEE4rendEv
PUBLIC 8250d 0 _ZNKSbIwSt11char_traitsIwESaIwEE6cbeginEv
PUBLIC 82511 0 _ZNKSbIwSt11char_traitsIwESaIwEE4cendEv
PUBLIC 8251d 0 _ZNKSbIwSt11char_traitsIwESaIwEE7crbeginEv
PUBLIC 8252d 0 _ZNKSbIwSt11char_traitsIwESaIwEE5crendEv
PUBLIC 82535 0 _ZNKSbIwSt11char_traitsIwESaIwEE4sizeEv
PUBLIC 8253d 0 _ZNKSbIwSt11char_traitsIwESaIwEE8max_sizeEv
PUBLIC 82549 0 _ZNKSbIwSt11char_traitsIwESaIwEE8capacityEv
PUBLIC 82551 0 _ZNKSbIwSt11char_traitsIwESaIwEE5emptyEv
PUBLIC 82561 0 _ZNKSbIwSt11char_traitsIwESaIwEEixEj
PUBLIC 82569 0 _ZNKSbIwSt11char_traitsIwESaIwEE2atEj
PUBLIC 82589 0 _ZNKSbIwSt11char_traitsIwESaIwEE4copyEPwjj
PUBLIC 825d1 0 _ZNSbIwSt11char_traitsIwESaIwEE4swapERS2_
PUBLIC 82611 0 _ZNSbIwSt11char_traitsIwESaIwEE6assignEOS2_
PUBLIC 8261d 0 _ZNSbIwSt11char_traitsIwESaIwEEaSEOS2_
PUBLIC 82629 0 _ZNKSbIwSt11char_traitsIwESaIwEE13get_allocatorEv
PUBLIC 8262d 0 _ZNKSbIwSt11char_traitsIwESaIwEE4findEPKwjj
PUBLIC 826fd 0 _ZNKSbIwSt11char_traitsIwESaIwEE4findERKS2_j
PUBLIC 82709 0 _ZNKSbIwSt11char_traitsIwESaIwEE4findEPKwj
PUBLIC 82729 0 _ZNKSbIwSt11char_traitsIwESaIwEE4findEwj
PUBLIC 82755 0 _ZNKSbIwSt11char_traitsIwESaIwEE5rfindEPKwjj
PUBLIC 827d5 0 _ZNKSbIwSt11char_traitsIwESaIwEE5rfindERKS2_j
PUBLIC 827e1 0 _ZNKSbIwSt11char_traitsIwESaIwEE5rfindEPKwj
PUBLIC 82801 0 _ZNKSbIwSt11char_traitsIwESaIwEE5rfindEwj
PUBLIC 82851 0 _ZNKSbIwSt11char_traitsIwESaIwEE13find_first_ofEPKwjj
PUBLIC 828cd 0 _ZNKSbIwSt11char_traitsIwESaIwEE13find_first_ofERKS2_j
PUBLIC 828d9 0 _ZNKSbIwSt11char_traitsIwESaIwEE13find_first_ofEPKwj
PUBLIC 828f9 0 _ZNKSbIwSt11char_traitsIwESaIwEE13find_first_ofEwj
PUBLIC 828fd 0 _ZNKSbIwSt11char_traitsIwESaIwEE12find_last_ofEPKwjj
PUBLIC 8296d 0 _ZNKSbIwSt11char_traitsIwESaIwEE12find_last_ofERKS2_j
PUBLIC 82979 0 _ZNKSbIwSt11char_traitsIwESaIwEE12find_last_ofEPKwj
PUBLIC 82999 0 _ZNKSbIwSt11char_traitsIwESaIwEE12find_last_ofEwj
PUBLIC 8299d 0 _ZNKSbIwSt11char_traitsIwESaIwEE17find_first_not_ofEPKwjj
PUBLIC 82a15 0 _ZNKSbIwSt11char_traitsIwESaIwEE17find_first_not_ofERKS2_j
PUBLIC 82a21 0 _ZNKSbIwSt11char_traitsIwESaIwEE17find_first_not_ofEPKwj
PUBLIC 82a41 0 _ZNKSbIwSt11char_traitsIwESaIwEE17find_first_not_ofEwj
PUBLIC 82a9d 0 _ZNKSbIwSt11char_traitsIwESaIwEE16find_last_not_ofEPKwjj
PUBLIC 82afd 0 _ZNKSbIwSt11char_traitsIwESaIwEE16find_last_not_ofERKS2_j
PUBLIC 82b09 0 _ZNKSbIwSt11char_traitsIwESaIwEE16find_last_not_ofEPKwj
PUBLIC 82b29 0 _ZNKSbIwSt11char_traitsIwESaIwEE16find_last_not_ofEwj
PUBLIC 82b71 0 _ZNKSbIwSt11char_traitsIwESaIwEE7compareERKS2_
PUBLIC 82b95 0 _ZNKSbIwSt11char_traitsIwESaIwEE7compareEjjRKS2_
PUBLIC 82bd5 0 _ZNKSbIwSt11char_traitsIwESaIwEE7compareEjjRKS2_jj
PUBLIC 82c31 0 _ZNKSbIwSt11char_traitsIwESaIwEE7compareEPKw
PUBLIC 82c59 0 _ZNKSbIwSt11char_traitsIwESaIwEE7compareEjjPKw
PUBLIC 82ca1 0 _ZNKSbIwSt11char_traitsIwESaIwEE7compareEjjPKwj
PUBLIC 82cdd 0 _ZNSbIwSt11char_traitsIwESaIwEE12_Alloc_hiderC2EPwRKS1_
PUBLIC 82ce1 0 _ZNSbIwSt11char_traitsIwESaIwEE4_Rep12_S_empty_repEv
PUBLIC 82cf5 0 _ZNKSbIwSt11char_traitsIwESaIwEE4_Rep12_M_is_leakedEv
PUBLIC 82cfd 0 _ZNKSbIwSt11char_traitsIwESaIwEE4_Rep12_M_is_sharedEv
PUBLIC 82d09 0 _ZNSbIwSt11char_traitsIwESaIwEE4_Rep13_M_set_leakedEv
PUBLIC 82d11 0 _ZNSbIwSt11char_traitsIwESaIwEE4_Rep15_M_set_sharableEv
PUBLIC 82d19 0 _ZNSbIwSt11char_traitsIwESaIwEE4_Rep10_M_refdataEv
PUBLIC 82d1d 0 _ZNSbIwSt11char_traitsIwESaIwEE4_Rep9_S_createEjjRKS1_
PUBLIC 82d89 0 _ZNSbIwSt11char_traitsIwESaIwEE12_S_constructEjwRKS1_
PUBLIC 82de1 0 _ZNSbIwSt11char_traitsIwESaIwEE18_S_construct_aux_2EjwRKS1_
PUBLIC 82de5 0 _ZNSbIwSt11char_traitsIwESaIwEEC1EjwRKS1_
PUBLIC 82df9 0 _ZNSbIwSt11char_traitsIwESaIwEEC1ERKS1_
PUBLIC 82e0d 0 _ZNSbIwSt11char_traitsIwESaIwEE4_Rep10_M_destroyERKS1_
PUBLIC 82e11 0 _ZNSbIwSt11char_traitsIwESaIwEE4_Rep10_M_disposeERKS1_
PUBLIC 82e6d 0 _ZNSbIwSt11char_traitsIwESaIwEED2Ev
PUBLIC 82ed5 0 _ZNSbIwSt11char_traitsIwESaIwEE9_M_mutateEjjj
PUBLIC 83041 0 _ZNSbIwSt11char_traitsIwESaIwEE15_M_replace_safeEjjPKwj
PUBLIC 83079 0 _ZNSbIwSt11char_traitsIwESaIwEE6assignEPKwj
PUBLIC 8312d 0 _ZNSbIwSt11char_traitsIwESaIwEE6assignESt16initializer_listIwE
PUBLIC 8313d 0 _ZNSbIwSt11char_traitsIwESaIwEE6assignEPKw
PUBLIC 83159 0 _ZNSbIwSt11char_traitsIwESaIwEE6assignERKS2_jj
PUBLIC 83189 0 _ZNSbIwSt11char_traitsIwESaIwEEaSESt16initializer_listIwE
PUBLIC 831a1 0 _ZNSbIwSt11char_traitsIwESaIwEEaSEPKw
PUBLIC 831bd 0 _ZNSbIwSt11char_traitsIwESaIwEE14_M_replace_auxEjjjw
PUBLIC 83215 0 _ZNSbIwSt11char_traitsIwESaIwEE7replaceEN9__gnu_cxx17__normal_iteratorIPwS2_EES6_jw
PUBLIC 83229 0 _ZNSbIwSt11char_traitsIwESaIwEE7replaceEjjjw
PUBLIC 83255 0 _ZNSbIwSt11char_traitsIwESaIwEE6insertEN9__gnu_cxx17__normal_iteratorIPwS2_EEw
PUBLIC 83281 0 _ZNSbIwSt11char_traitsIwESaIwEE6insertEjjw
PUBLIC 832ad 0 _ZNSbIwSt11char_traitsIwESaIwEE6assignEjw
PUBLIC 832c9 0 _ZNSbIwSt11char_traitsIwESaIwEE6insertEN9__gnu_cxx17__normal_iteratorIPwS2_EEjw
PUBLIC 832e5 0 _ZNSbIwSt11char_traitsIwESaIwEEaSEw
PUBLIC 83301 0 _ZNSbIwSt11char_traitsIwESaIwEE5eraseEN9__gnu_cxx17__normal_iteratorIPwS2_EES6_
PUBLIC 8332d 0 _ZNSbIwSt11char_traitsIwESaIwEE5eraseEN9__gnu_cxx17__normal_iteratorIPwS2_EE
PUBLIC 83351 0 _ZNSbIwSt11char_traitsIwESaIwEE5eraseEjj
PUBLIC 8337d 0 _ZNSbIwSt11char_traitsIwESaIwEE6insertEjPKwj
PUBLIC 83485 0 _ZNSbIwSt11char_traitsIwESaIwEE6insertEjPKw
PUBLIC 834a5 0 _ZNSbIwSt11char_traitsIwESaIwEE6insertEjRKS2_jj
PUBLIC 834d5 0 _ZNSbIwSt11char_traitsIwESaIwEE6insertEN9__gnu_cxx17__normal_iteratorIPwS2_EESt16initializer_listIwE
PUBLIC 834ed 0 _ZNSbIwSt11char_traitsIwESaIwEE6insertEjRKS2_
PUBLIC 834f9 0 _ZNSbIwSt11char_traitsIwESaIwEE5clearEv
PUBLIC 83509 0 _ZNSbIwSt11char_traitsIwESaIwEE12_M_leak_hardEv
PUBLIC 83549 0 _ZNSbIwSt11char_traitsIwESaIwEE7_M_leakEv
PUBLIC 83559 0 _ZNSbIwSt11char_traitsIwESaIwEE4rendEv
PUBLIC 83579 0 _ZNSbIwSt11char_traitsIwESaIwEE2atEj
PUBLIC 835ad 0 _ZNSbIwSt11char_traitsIwESaIwEEixEj
PUBLIC 835c9 0 _ZNSbIwSt11char_traitsIwESaIwEE3endEv
PUBLIC 835ed 0 _ZNSbIwSt11char_traitsIwESaIwEE5beginEv
PUBLIC 83605 0 _ZNSbIwSt11char_traitsIwESaIwEE6rbeginEv
PUBLIC 83631 0 _ZNSbIwSt11char_traitsIwESaIwEE4_Rep10_M_refcopyEv
PUBLIC 83685 0 _ZNSbIwSt11char_traitsIwESaIwEE4_Rep8_M_cloneERKS1_j
PUBLIC 836e9 0 _ZNSbIwSt11char_traitsIwESaIwEE4_Rep7_M_grabERKS1_S5_
PUBLIC 8374d 0 _ZNSbIwSt11char_traitsIwESaIwEE7reserveEj
PUBLIC 837e5 0 _ZNSbIwSt11char_traitsIwESaIwEE9push_backEw
PUBLIC 83841 0 _ZNSbIwSt11char_traitsIwESaIwEE6appendEjw
PUBLIC 838e1 0 _ZNSbIwSt11char_traitsIwESaIwEE6resizeEjw
PUBLIC 83921 0 _ZNSbIwSt11char_traitsIwESaIwEE6resizeEj
PUBLIC 83929 0 _ZNSbIwSt11char_traitsIwESaIwEE6appendEPKwj
PUBLIC 839f5 0 _ZNSbIwSt11char_traitsIwESaIwEE6appendESt16initializer_listIwE
PUBLIC 83a05 0 _ZNSbIwSt11char_traitsIwESaIwEE6appendEPKw
PUBLIC 83a21 0 _ZNSbIwSt11char_traitsIwESaIwEEpLESt16initializer_listIwE
PUBLIC 83a31 0 _ZNSbIwSt11char_traitsIwESaIwEEpLEPKw
PUBLIC 83a4d 0 _ZNSbIwSt11char_traitsIwESaIwEE6appendERKS2_jj
PUBLIC 83b01 0 _ZNSbIwSt11char_traitsIwESaIwEE6appendERKS2_
PUBLIC 83b8d 0 _ZNSbIwSt11char_traitsIwESaIwEEpLERKS2_
PUBLIC 83b91 0 _ZNSbIwSt11char_traitsIwESaIwEE13shrink_to_fitEv
PUBLIC 83ba9 0 _ZNSbIwSt11char_traitsIwESaIwEEpLEw
PUBLIC 83c05 0 _ZNSbIwSt11char_traitsIwESaIwEEC2ERKS2_
PUBLIC 83c6d 0 _ZNSbIwSt11char_traitsIwESaIwEE6assignERKS2_
PUBLIC 83d31 0 _ZNSbIwSt11char_traitsIwESaIwEEaSERKS2_
PUBLIC 83d35 0 _ZStplIwSt11char_traitsIwESaIwEESbIT_T0_T1_EPKS3_RKS6_
PUBLIC 83d91 0 _ZStplIwSt11char_traitsIwESaIwEESbIT_T0_T1_ES3_RKS6_
PUBLIC 83ddd 0 _ZStplIwSt11char_traitsIwESaIwEESbIT_T0_T1_ERKS6_S8_
PUBLIC 83dfd 0 _ZNSbIwSt11char_traitsIwESaIwEE12_S_constructIN9__gnu_cxx17__normal_iteratorIPwS2_EEEES6_T_S8_RKS1_St20forward_iterator_tag
PUBLIC 83e5d 0 _ZNSbIwSt11char_traitsIwESaIwEEC1IN9__gnu_cxx17__normal_iteratorIPwS2_EEEET_S8_RKS1_
PUBLIC 83e75 0 _ZNSbIwSt11char_traitsIwESaIwEE12_S_constructIPwEES4_T_S5_RKS1_St20forward_iterator_tag
PUBLIC 83efd 0 _ZNSbIwSt11char_traitsIwESaIwEEC1ERKS2_jj
PUBLIC 83f41 0 _ZNKSbIwSt11char_traitsIwESaIwEE6substrEjj
PUBLIC 83f65 0 _ZNSbIwSt11char_traitsIwESaIwEEC1IPwEET_S5_RKS1_
PUBLIC 83f7d 0 _ZNSbIwSt11char_traitsIwESaIwEEC2ERKS2_jjRKS1_
PUBLIC 83fbd 0 _ZNSbIwSt11char_traitsIwESaIwEE12_S_constructIPKwEEPwT_S7_RKS1_St20forward_iterator_tag
PUBLIC 84045 0 _ZNSbIwSt11char_traitsIwESaIwEEC1EPKwjRKS1_
PUBLIC 8405d 0 _ZNSbIwSt11char_traitsIwESaIwEE7replaceEjjPKwj
PUBLIC 841bd 0 _ZNSbIwSt11char_traitsIwESaIwEE7replaceEN9__gnu_cxx17__normal_iteratorIPwS2_EES6_NS4_IPKwS2_EES9_
PUBLIC 841d9 0 _ZNSbIwSt11char_traitsIwESaIwEE7replaceEN9__gnu_cxx17__normal_iteratorIPwS2_EES6_S6_S6_
PUBLIC 841f5 0 _ZNSbIwSt11char_traitsIwESaIwEE7replaceEN9__gnu_cxx17__normal_iteratorIPwS2_EES6_PKwS8_
PUBLIC 84211 0 _ZNSbIwSt11char_traitsIwESaIwEE7replaceEN9__gnu_cxx17__normal_iteratorIPwS2_EES6_S5_S5_
PUBLIC 8422d 0 _ZNSbIwSt11char_traitsIwESaIwEE7replaceEN9__gnu_cxx17__normal_iteratorIPwS2_EES6_PKwj
PUBLIC 84241 0 _ZNSbIwSt11char_traitsIwESaIwEE7replaceEjjPKw
PUBLIC 84265 0 _ZNSbIwSt11char_traitsIwESaIwEE7replaceEjjRKS2_jj
PUBLIC 84299 0 _ZNSbIwSt11char_traitsIwESaIwEE7replaceEjjRKS2_
PUBLIC 842b1 0 _ZNSbIwSt11char_traitsIwESaIwEE7replaceEN9__gnu_cxx17__normal_iteratorIPwS2_EES6_PKw
PUBLIC 842dd 0 _ZNSbIwSt11char_traitsIwESaIwEE7replaceEN9__gnu_cxx17__normal_iteratorIPwS2_EES6_RKS2_
PUBLIC 842fd 0 _ZNSbIwSt11char_traitsIwESaIwEE7replaceEN9__gnu_cxx17__normal_iteratorIPwS2_EES6_St16initializer_listIwE
PUBLIC 8431d 0 _ZNSbIwSt11char_traitsIwESaIwEEC2IPKwEET_S6_RKS1_
PUBLIC 84335 0 _ZNSbIwSt11char_traitsIwESaIwEEC2ESt16initializer_listIwERKS1_
PUBLIC 84359 0 _ZNSbIwSt11char_traitsIwESaIwEEC1EPKwRKS1_
PUBLIC 843a1 0 __once_proxy
PUBLIC 843c5 0 _ZNSt18condition_variableC2Ev
PUBLIC 84425 0 _ZNSt18condition_variableD1Ev
PUBLIC 84431 0 _ZNSt18condition_variable4waitERSt11unique_lockISt5mutexE
PUBLIC 84441 0 _ZNSt18condition_variable10notify_oneEv
PUBLIC 84451 0 _ZNSt18condition_variable10notify_allEv
PUBLIC 84461 0 _ZNSt22condition_variable_anyC2Ev
PUBLIC 8449d 0 _ZNSt22condition_variable_anyD1Ev
PUBLIC 844a9 0 _ZNSt6chrono12system_clock3nowEv
PUBLIC 84579 0 _ZNSt6thread4joinEv
PUBLIC 8459d 0 _ZNSt6thread6detachEv
PUBLIC 84721 0 _ZNSt6thread15_M_start_threadESt10shared_ptrINS_10_Impl_baseEE
PUBLIC 847b9 0 _ZNSt12future_errorD2Ev
PUBLIC 847d9 0 _ZNSt12future_errorD0Ev
PUBLIC 847ed 0 _ZNKSt12future_error4whatEv
PUBLIC 84955 0 _ZN9__gnu_cxx18__exchange_and_addEPVii
PUBLIC 84979 0 _ZN9__gnu_cxx12__atomic_addEPVii
PUBLIC 84995 0 _ZNKSt7codecvtIwc11__mbstate_tE6do_outERS0_PKwS4_RS4_PcS6_RS6_
PUBLIC 84af1 0 _ZNKSt7codecvtIwc11__mbstate_tE5do_inERS0_PKcS4_RS4_PwS6_RS6_
PUBLIC 84c1d 0 _ZNKSt7codecvtIwc11__mbstate_tE11do_encodingEv
PUBLIC 84c41 0 _ZNKSt7codecvtIwc11__mbstate_tE13do_max_lengthEv
PUBLIC 84c5d 0 _ZNKSt7codecvtIwc11__mbstate_tE9do_lengthERS0_PKcS4_j
PUBLIC 84d99 0 _ZNKSt7collateIcE10_M_compareEPKcS2_
PUBLIC 84db5 0 _ZNKSt7collateIcE12_M_transformEPcPKcj
PUBLIC 84dc9 0 _ZNKSt7collateIwE10_M_compareEPKwS2_
PUBLIC 84de5 0 _ZNKSt7collateIwE12_M_transformEPwPKwj
PUBLIC 84df9 0 _ZNSt12ctype_bynameIcED1Ev
PUBLIC 84e19 0 _ZNSt12ctype_bynameIcED0Ev
PUBLIC 84e2d 0 _ZNSt12ctype_bynameIcEC2EPKcj
PUBLIC 84ea5 0 _ZNKSt5ctypeIwE19_M_convert_to_wmaskEt
PUBLIC 84f89 0 _ZNKSt5ctypeIwE10do_toupperEw
PUBLIC 84f95 0 _ZNKSt5ctypeIwE10do_toupperEPwPKw
PUBLIC 84ff1 0 _ZNKSt5ctypeIwE10do_tolowerEw
PUBLIC 84ffd 0 _ZNKSt5ctypeIwE10do_tolowerEPwPKw
PUBLIC 85059 0 _ZNKSt5ctypeIwE5do_isEtw
PUBLIC 85289 0 _ZNKSt5ctypeIwE5do_isEPKwS2_Pt
PUBLIC 853e5 0 _ZNKSt5ctypeIwE10do_scan_isEtPKwS2_
PUBLIC 85465 0 _ZNKSt5ctypeIwE11do_scan_notEtPKwS2_
PUBLIC 854e5 0 _ZNKSt5ctypeIwE8do_widenEc
PUBLIC 854ed 0 _ZNKSt5ctypeIwE8do_widenEPKcS2_Pw
PUBLIC 85551 0 _ZNKSt5ctypeIwE9do_narrowEwc
PUBLIC 8559d 0 _ZNKSt5ctypeIwE9do_narrowEPKwS2_cPc
PUBLIC 856f1 0 _ZNSt5ctypeIwE19_M_initialize_ctypeEv
PUBLIC 8586d 0 _ZNKSt8messagesIcE6do_getEiiiRKSs
PUBLIC 8589d 0 _ZNKSt8messagesIwE6do_getEiiiRKSbIwSt11char_traitsIwESaIwEE
PUBLIC 858d1 0 _ZNSt10money_base20_S_construct_patternEccc
PUBLIC 859b9 0 _ZNSt10moneypunctIcLb1EE24_M_initialize_moneypunctEPiPKc
PUBLIC 85dbd 0 _ZNSt10moneypunctIcLb0EE24_M_initialize_moneypunctEP15__locale_structPKc
PUBLIC 861c5 0 _ZNSt10moneypunctIcLb1EED2Ev
PUBLIC 8624d 0 _ZNSt10moneypunctIcLb1EED0Ev
PUBLIC 86261 0 _ZNSt10moneypunctIcLb0EED1Ev
PUBLIC 862e9 0 _ZNSt10moneypunctIcLb0EED0Ev
PUBLIC 862fd 0 _ZNSt10moneypunctIwLb1EE24_M_initialize_moneypunctEPiPKc
PUBLIC 86711 0 _ZNSt10moneypunctIwLb0EE24_M_initialize_moneypunctEPiPKc
PUBLIC 86b25 0 _ZNSt10moneypunctIwLb1EED1Ev
PUBLIC 86bad 0 _ZNSt10moneypunctIwLb1EED0Ev
PUBLIC 86bc1 0 _ZNSt10moneypunctIwLb0EED2Ev
PUBLIC 86c49 0 _ZNSt10moneypunctIwLb0EED0Ev
PUBLIC 86c5d 0 _ZNSt8numpunctIcE22_M_initialize_numpunctEP15__locale_struct
PUBLIC 86ded 0 _ZNSt8numpunctIcED2Ev
PUBLIC 86e35 0 _ZNSt8numpunctIcED0Ev
PUBLIC 86e49 0 _ZNSt8numpunctIwE22_M_initialize_numpunctEP15__locale_struct
PUBLIC 86fb1 0 _ZNSt8numpunctIwED1Ev
PUBLIC 86ff9 0 _ZNSt8numpunctIwED0Ev
PUBLIC 8700d 0 _ZNKSt11__timepunctIcE6_M_putEPcjPKcPK2tm
PUBLIC 8702d 0 _ZNSt11__timepunctIcE23_M_initialize_timepunctEP15__locale_struct
PUBLIC 87701 0 _ZNKSt11__timepunctIwE6_M_putEPwjPKwPK2tm
PUBLIC 87721 0 _ZNSt11__timepunctIwE23_M_initialize_timepunctEP15__locale_struct
PUBLIC 87f19 0 _ZNSt12__basic_fileIcEC2EP15pthread_mutex_t
PUBLIC 87f21 0 _ZNKSt12__basic_fileIcE7is_openEv
PUBLIC 87f2d 0 _ZNSt12__basic_fileIcE4openEPKcSt13_Ios_Openmodei
PUBLIC 87f61 0 _ZNSt12__basic_fileIcE8sys_openEiSt13_Ios_Openmode
PUBLIC 87fa9 0 _ZNSt12__basic_fileIcE2fdEv
PUBLIC 87fb1 0 _ZNSt12__basic_fileIcE4fileEv
PUBLIC 87fb5 0 _ZNSt12__basic_fileIcE5closeEv
PUBLIC 87ff1 0 _ZNSt12__basic_fileIcED1Ev
PUBLIC 87ffd 0 _ZNSt12__basic_fileIcE6xsgetnEPci
PUBLIC 8802d 0 _ZNSt12__basic_fileIcE6xsputnEPKci
PUBLIC 88045 0 _ZNSt12__basic_fileIcE8xsputn_2EPKciS2_i
PUBLIC 880b5 0 _ZNSt12__basic_fileIcE7seekoffExSt12_Ios_Seekdir
PUBLIC 880cd 0 _ZNSt12__basic_fileIcE4syncEv
PUBLIC 880d5 0 _ZNSt12__basic_fileIcE8sys_openEP8_IO_FILESt13_Ios_Openmode
PUBLIC 88111 0 _ZNSt12__basic_fileIcE9showmanycEv
PUBLIC 881a5 0 _ZSt14__convert_to_vIfEvPKcRT_RSt12_Ios_IostateRKP15__locale_struct
PUBLIC 881f9 0 _ZSt14__convert_to_vIdEvPKcRT_RSt12_Ios_IostateRKP15__locale_struct
PUBLIC 88269 0 _ZSt14__convert_to_vIeEvPKcRT_RSt12_Ios_IostateRKP15__locale_struct
PUBLIC 882d9 0 _ZNSt6locale5facet18_S_create_c_localeERPiPKcS1_
PUBLIC 882f5 0 _ZNSt6locale5facet19_S_destroy_c_localeERPi
PUBLIC 88315 0 _ZNSt6locale5facet17_S_clone_c_localeERP15__locale_struct
PUBLIC 88355 0 _ZN10__cxxabiv117__array_type_infoD1Ev
PUBLIC 88375 0 _ZN10__cxxabiv117__array_type_infoD0Ev
PUBLIC 88389 0 __aeabi_atexit
PUBLIC 88395 0 _ZNKSt8bad_cast4whatEv
PUBLIC 883a1 0 _ZNSt8bad_castD2Ev
PUBLIC 883c1 0 _ZNSt8bad_castD0Ev
PUBLIC 883d5 0 _ZNKSt10bad_typeid4whatEv
PUBLIC 883e1 0 _ZNSt10bad_typeidD2Ev
PUBLIC 88401 0 _ZNSt10bad_typeidD0Ev
PUBLIC 88415 0 _ZNK10__cxxabiv117__class_type_info11__do_upcastEPKS0_PPv
PUBLIC 88449 0 _ZNK10__cxxabiv117__class_type_info20__do_find_public_srcEiPKvPKS0_S2_
PUBLIC 88455 0 _ZNK10__cxxabiv117__class_type_info11__do_upcastEPKS0_PKvRNS0_15__upcast_resultE
PUBLIC 88471 0 _ZNK10__cxxabiv117__class_type_info12__do_dyncastEiNS0_10__sub_kindEPKS0_PKvS3_S5_RNS0_16__dyncast_resultE
PUBLIC 884ad 0 _ZNK10__cxxabiv117__class_type_info10__do_catchEPKSt9type_infoPPvj
PUBLIC 884d5 0 _ZN10__cxxabiv117__class_type_infoD1Ev
PUBLIC 884f5 0 _ZN10__cxxabiv117__class_type_infoD0Ev
PUBLIC 88509 0 _ZdlPv
PUBLIC 88511 0 _ZdlPvRKSt9nothrow_t
PUBLIC 88519 0 _ZdaPv
PUBLIC 8851d 0 _ZdaPvRKSt9nothrow_t
PUBLIC 88521 0 __dynamic_cast
PUBLIC 885d9 0 __cxa_allocate_exception
PUBLIC 886f9 0 __cxa_free_exception
PUBLIC 88a35 0 __cxa_end_cleanup
PUBLIC 88a41 0 __cxa_type_match
PUBLIC 88b51 0 __cxa_begin_cleanup
PUBLIC 88c3d 0 __cxa_bad_cast
PUBLIC 88c71 0 __cxa_bad_typeid
PUBLIC 88cf5 0 __cxa_call_unexpected
PUBLIC 88e45 0 __cxa_get_exception_ptr
PUBLIC 88e49 0 __cxa_begin_catch
PUBLIC 88ee5 0 __cxa_end_catch
PUBLIC 88f7d 0 _ZSt18uncaught_exceptionv
PUBLIC 88f8d 0 _ZNSt9exceptionD1Ev
PUBLIC 88fa5 0 _ZNSt13bad_exceptionD2Ev
PUBLIC 88ff5 0 _ZNKSt9exception4whatEv
PUBLIC 89001 0 _ZNKSt13bad_exception4whatEv
PUBLIC 89035 0 _ZNSt13bad_exceptionD0Ev
PUBLIC 89049 0 _ZNSt9exceptionD0Ev
PUBLIC 8905d 0 __cxa_get_globals_fast
PUBLIC 89075 0 __cxa_get_globals
PUBLIC 8926d 0 __gxx_personality_v0
PUBLIC 8969d 0 _ZNSt15__exception_ptr13exception_ptrC1Ev
PUBLIC 896a5 0 _ZNSt15__exception_ptr13exception_ptrC1EMS0_FvvE
PUBLIC 896e1 0 _ZNSt15__exception_ptr13exception_ptrC2ERKS0_
PUBLIC 8974d 0 _ZNSt15__exception_ptr13exception_ptrD2Ev
PUBLIC 8975d 0 _ZNSt15__exception_ptr13exception_ptr4swapERS0_
PUBLIC 89769 0 _ZNSt15__exception_ptr13exception_ptraSERKS0_
PUBLIC 89789 0 _ZNKSt15__exception_ptr13exception_ptrntEv
PUBLIC 89795 0 _ZNKSt15__exception_ptr13exception_ptrcvMS0_FvvEEv
PUBLIC 897b9 0 _ZNKSt15__exception_ptr13exception_ptr20__cxa_exception_typeEv
PUBLIC 897c1 0 _ZNSt15__exception_ptreqERKNS_13exception_ptrES2_
PUBLIC 897d1 0 _ZNSt15__exception_ptrneERKNS_13exception_ptrES2_
PUBLIC 897e1 0 _ZSt17current_exceptionv
PUBLIC 89851 0 _ZSt17rethrow_exceptionNSt15__exception_ptr13exception_ptrE
PUBLIC 89905 0 _ZSt9terminatev
PUBLIC 89925 0 _ZSt10unexpectedv
PUBLIC 8993d 0 _ZSt13set_terminatePFvvE
PUBLIC 89955 0 _ZSt14set_unexpectedPFvvE
PUBLIC 899b9 0 __cxa_throw
PUBLIC 89a41 0 __cxa_rethrow
PUBLIC 89ab9 0 __cxa_current_exception_type
PUBLIC 89ad5 0 _ZN10__cxxabiv116__enum_type_infoD1Ev
PUBLIC 89af5 0 _ZN10__cxxabiv116__enum_type_infoD0Ev
PUBLIC 89b09 0 _ZNK10__cxxabiv120__function_type_info15__is_function_pEv
PUBLIC 89b0d 0 _ZN10__cxxabiv120__function_type_infoD1Ev
PUBLIC 89b2d 0 _ZN10__cxxabiv120__function_type_infoD0Ev
PUBLIC 89b41 0 _ZN10__cxxabiv123__fundamental_type_infoD1Ev
PUBLIC 89b61 0 _ZN10__cxxabiv123__fundamental_type_infoD0Ev
PUBLIC 89b75 0 __cxa_guard_acquire
PUBLIC 89c45 0 __cxa_guard_abort
PUBLIC 89c91 0 __cxa_guard_release
PUBLIC 89ce1 0 _ZNKSt9bad_alloc4whatEv
PUBLIC 89ced 0 _ZNSt9bad_allocD2Ev
PUBLIC 89d0d 0 _ZNSt9bad_allocD0Ev
PUBLIC 89d21 0 _ZSt15set_new_handlerPFvvE
PUBLIC 89d39 0 _Znwj
PUBLIC 89da5 0 _ZnwjRKSt9nothrow_t
PUBLIC 89e01 0 _Znaj
PUBLIC 89e19 0 _ZnajRKSt9nothrow_t
PUBLIC 89e1d 0 _ZNK10__cxxabiv117__pbase_type_info15__pointer_catchEPKS0_PPvj
PUBLIC 89e31 0 _ZNK10__cxxabiv117__pbase_type_info10__do_catchEPKSt9type_infoPPvj
PUBLIC 89ea1 0 _ZN10__cxxabiv117__pbase_type_infoD2Ev
PUBLIC 89ec1 0 _ZN10__cxxabiv117__pbase_type_infoD0Ev
PUBLIC 89ed5 0 _ZNK10__cxxabiv129__pointer_to_member_type_info15__pointer_catchEPKNS_17__pbase_type_infoEPPvj
PUBLIC 89efd 0 _ZN10__cxxabiv129__pointer_to_member_type_infoD2Ev
PUBLIC 89f1d 0 _ZN10__cxxabiv129__pointer_to_member_type_infoD0Ev
PUBLIC 89f31 0 _ZNK10__cxxabiv119__pointer_type_info14__is_pointer_pEv
PUBLIC 89f35 0 _ZNK10__cxxabiv119__pointer_type_info15__pointer_catchEPKNS_17__pbase_type_infoEPPvj
PUBLIC 89f89 0 _ZN10__cxxabiv119__pointer_type_infoD1Ev
PUBLIC 89fa9 0 _ZN10__cxxabiv119__pointer_type_infoD0Ev
PUBLIC 89ff1 0 _ZNK10__cxxabiv120__si_class_type_info11__do_upcastEPKNS_17__class_type_infoEPKvRNS1_15__upcast_resultE
PUBLIC 8a019 0 _ZNK10__cxxabiv120__si_class_type_info12__do_dyncastEiNS_17__class_type_info10__sub_kindEPKS1_PKvS4_S6_RNS1_16__dyncast_resultE
PUBLIC 8a0a9 0 _ZNK10__cxxabiv120__si_class_type_info20__do_find_public_srcEiPKvPKNS_17__class_type_infoES2_
PUBLIC 8a0e1 0 _ZN10__cxxabiv120__si_class_type_infoD2Ev
PUBLIC 8a101 0 _ZN10__cxxabiv120__si_class_type_infoD0Ev
PUBLIC 8a115 0 _ZNSt9type_infoD2Ev
PUBLIC 8a12d 0 _ZNKSt9type_info14__is_pointer_pEv
PUBLIC 8a131 0 _ZNKSt9type_info15__is_function_pEv
PUBLIC 8a135 0 _ZNKSt9type_info11__do_upcastEPKN10__cxxabiv117__class_type_infoEPPv
PUBLIC 8a139 0 _ZNSt9type_infoD0Ev
PUBLIC 8a14d 0 _ZNKSt9type_infoeqERKS_
PUBLIC 8a189 0 _ZNKSt9type_info10__do_catchEPKS_PPvj
PUBLIC 8a18d 0 _ZNKSt9type_info6beforeERKS_
PUBLIC 8a201 0 __cxa_vec_cleanup
PUBLIC 8a241 0 __cxa_vec_dtor
PUBLIC 8a2b1 0 __cxa_vec_cctor
PUBLIC 8a329 0 __cxa_vec_ctor
PUBLIC 8a395 0 __cxa_vec_new3
PUBLIC 8a405 0 __cxa_vec_new2
PUBLIC 8a471 0 __cxa_vec_new
PUBLIC 8a4a1 0 __cxa_vec_delete2
PUBLIC 8a4f1 0 __cxa_vec_delete
PUBLIC 8a511 0 __cxa_vec_delete3
PUBLIC 8a569 0 __aeabi_vec_ctor_nocookie_nodtor
PUBLIC 8a581 0 __aeabi_vec_ctor_cookie_nodtor
PUBLIC 8a5a5 0 __aeabi_vec_cctor_nocookie_nodtor
PUBLIC 8a5c1 0 __aeabi_vec_new_cookie_noctor
PUBLIC 8a5dd 0 __aeabi_vec_new_nocookie
PUBLIC 8a5f9 0 __aeabi_vec_new_cookie_nodtor
PUBLIC 8a615 0 __aeabi_vec_new_cookie
PUBLIC 8a631 0 __aeabi_vec_dtor
PUBLIC 8a645 0 __aeabi_vec_dtor_cookie
PUBLIC 8a661 0 __aeabi_vec_delete
PUBLIC 8a671 0 __aeabi_vec_delete3
PUBLIC 8a68d 0 __aeabi_vec_delete3_nodtor
PUBLIC 8a6a9 0 _ZNK10__cxxabiv121__vmi_class_type_info20__do_find_public_srcEiPKvPKNS_17__class_type_infoES2_
PUBLIC 8a77d 0 _ZNK10__cxxabiv121__vmi_class_type_info11__do_upcastEPKNS_17__class_type_infoEPKvRNS1_15__upcast_resultE
PUBLIC 8a8d1 0 _ZN10__cxxabiv121__vmi_class_type_infoD1Ev
PUBLIC 8a8f1 0 _ZN10__cxxabiv121__vmi_class_type_infoD0Ev
PUBLIC 8a905 0 _ZNK10__cxxabiv121__vmi_class_type_info12__do_dyncastEiNS_17__class_type_info10__sub_kindEPKS1_PKvS4_S6_RNS1_16__dyncast_resultE
PUBLIC 8ac65 0 _ZN9__gnu_cxx27__verbose_terminate_handlerEv
PUBLIC 8ad89 0 __cxa_pure_virtual
PUBLIC 93ee9 0 __cxa_demangle
STACK CFI INIT 4425c 60 .cfa: sp 0 + .ra: lr
STACK CFI 4425e .cfa: sp 20 +
STACK CFI 44260 .cfa: sp 48 +
STACK CFI 44262 .ra: .cfa -4 + ^ r4: .cfa -20 + ^ r5: .cfa -16 + ^ r6: .cfa -12 + ^ r7: .cfa -8 + ^
STACK CFI INIT 442bc 40 .cfa: sp 0 + .ra: lr
STACK CFI 442be .cfa: sp 16 +
STACK CFI 442c0 .ra: .cfa -4 + ^ r4: .cfa -16 + ^ r5: .cfa -12 + ^ r6: .cfa -8 + ^
STACK CFI INIT 442fc 38 .cfa: sp 0 + .ra: lr
STACK CFI 442fe .cfa: sp 16 +
STACK CFI 44300 .ra: .cfa -4 + ^ r4: .cfa -16 + ^ r5: .cfa -12 + ^ r6: .cfa -8 + ^
STACK CFI INIT 44334 34 .cfa: sp 0 + .ra: lr
STACK CFI INIT 44368 20 .cfa: sp 0 + .ra: lr
STACK CFI INIT 44388 14 .cfa: sp 0 + .ra: lr
STACK CFI 4438a .cfa: sp 16 +
STACK CFI 4438c .ra: .cfa -4 + ^ r3: .cfa -16 + ^ r4: .cfa -12 + ^ r5: .cfa -8 + ^
STACK CFI INIT 4439c 28 .cfa: sp 0 + .ra: lr
STACK CFI INIT 443c4 c .cfa: sp 0 + .ra: lr
STACK CFI INIT 443d0 c .cfa: sp 0 + .ra: lr
STACK CFI INIT 443dc 20 .cfa: sp 0 + .ra: lr
STACK CFI 443e4 .cfa: sp 8 +
STACK CFI 443e6 .ra: .cfa -4 + ^ r4: .cfa -8 + ^
STACK CFI INIT 443fc 28 .cfa: sp 0 + .ra: lr
STACK CFI 44404 .cfa: sp 8 +
STACK CFI 44406 .ra: .cfa -4 + ^ r4: .cfa -8 + ^
STACK CFI INIT 44424 20 .cfa: sp 0 + .ra: lr
STACK CFI 4442c .cfa: sp 8 +
STACK CFI 4442e .ra: .cfa -4 + ^ r4: .cfa -8 + ^
STACK CFI INIT 44444 28 .cfa: sp 0 + .ra: lr
STACK CFI 4444c .cfa: sp 8 +
STACK CFI 4444e .ra: .cfa -4 + ^ r4: .cfa -8 + ^
STACK CFI INIT 4446c 5c .cfa: sp 0 + .ra: lr
STACK CFI 4446e .cfa: sp 16 +
STACK CFI 44470 .ra: .cfa -4 + ^ r3: .cfa -16 + ^ r4: .cfa -12 + ^ r5: .cfa -8 + ^
STACK CFI INIT 444c8 150 .cfa: sp 0 + .ra: lr
STACK CFI 444cc .cfa: sp 24 +
STACK CFI 444ce .cfa: sp 48 +
STACK CFI 444d0 .ra: .cfa -4 + ^ r4: .cfa -24 + ^ r5: .cfa -20 + ^ r6: .cfa -16 + ^ r7: .cfa -12 + ^ r8: .cfa -8 + ^
STACK CFI INIT 44618 a .cfa: sp 0 + .ra: lr
STACK CFI INIT 44624 a .cfa: sp 0 + .ra: lr
STACK CFI INIT 44630 6 .cfa: sp 0 + .ra: lr
STACK CFI INIT 44638 8 .cfa: sp 0 + .ra: lr
STACK CFI INIT 44640 4 .cfa: sp 0 + .ra: lr
STACK CFI INIT 44644 4 .cfa: sp 0 + .ra: lr
STACK CFI INIT 44648 4a .cfa: sp 0 + .ra: lr
STACK CFI 4464a .cfa: sp 12 +
STACK CFI 4464e .cfa: sp 24 +
STACK CFI 44656 r4: .cfa -12 + ^ r5: .cfa -8 + ^ r6: .cfa -4 + ^
STACK CFI INIT 44694 15e .cfa: sp 0 + .ra: lr
STACK CFI 44698 .cfa: sp 32 +
STACK CFI 4469a .ra: .cfa -4 + ^ r10: .cfa -8 + ^ r4: .cfa -32 + ^ r5: .cfa -28 + ^ r6: .cfa -24 + ^ r7: .cfa -20 + ^ r8: .cfa -16 + ^ r9: .cfa -12 + ^
STACK CFI INIT 447f4 188 .cfa: sp 0 + .ra: lr
STACK CFI 447f8 .cfa: sp 24 +
STACK CFI 447fa .ra: .cfa -4 + ^ r4: .cfa -24 + ^ r5: .cfa -20 + ^ r6: .cfa -16 + ^ r7: .cfa -12 + ^ r8: .cfa -8 + ^
STACK CFI 447fe .cfa: sp 56 +
STACK CFI INIT 4497c a .cfa: sp 0 + .ra: lr
STACK CFI INIT 44988 6 .cfa: sp 0 + .ra: lr
STACK CFI INIT 44990 6 .cfa: sp 0 + .ra: lr
STACK CFI INIT 44998 a .cfa: sp 0 + .ra: lr
STACK CFI INIT 449a4 a .cfa: sp 0 + .ra: lr
STACK CFI INIT 449b0 4 .cfa: sp 0 + .ra: lr
STACK CFI INIT 449b4 4 .cfa: sp 0 + .ra: lr
STACK CFI INIT 449b8 6 .cfa: sp 0 + .ra: lr
STACK CFI INIT 449c0 8 .cfa: sp 0 + .ra: lr
STACK CFI INIT 449c8 1ac .cfa: sp 0 + .ra: lr
STACK CFI 449cc .cfa: sp 36 +
STACK CFI 449ce .ra: .cfa -4 + ^ r10: .cfa -12 + ^ r11: .cfa -8 + ^ r4: .cfa -36 + ^ r5: .cfa -32 + ^ r6: .cfa -28 + ^ r7: .cfa -24 + ^ r8: .cfa -20 + ^ r9: .cfa -16 + ^
STACK CFI 449d6 .cfa: sp 48 +
STACK CFI INIT 44b74 2a .cfa: sp 0 + .ra: lr
STACK CFI 44b7c .cfa: sp 4 +
STACK CFI 44b82 r4: .cfa -4 + ^
STACK CFI INIT 44ba0 8 .cfa: sp 0 + .ra: lr
STACK CFI INIT 44ba8 5c .cfa: sp 0 + .ra: lr
STACK CFI 44baa .cfa: sp 12 +
STACK CFI 44bb0 r4: .cfa -12 + ^ r5: .cfa -8 + ^ r6: .cfa -4 + ^
STACK CFI INIT 44c04 6 .cfa: sp 0 + .ra: lr
STACK CFI INIT 44c0c a .cfa: sp 0 + .ra: lr
STACK CFI INIT 44c18 6 .cfa: sp 0 + .ra: lr
STACK CFI INIT 44c20 6 .cfa: sp 0 + .ra: lr
STACK CFI INIT 44c28 a .cfa: sp 0 + .ra: lr
STACK CFI INIT 44c34 a .cfa: sp 0 + .ra: lr
STACK CFI INIT 44c40 4 .cfa: sp 0 + .ra: lr
STACK CFI INIT 44c44 4 .cfa: sp 0 + .ra: lr
STACK CFI INIT 44c48 6 .cfa: sp 0 + .ra: lr
STACK CFI INIT 44c50 8 .cfa: sp 0 + .ra: lr
STACK CFI INIT 44c58 1ac .cfa: sp 0 + .ra: lr
STACK CFI 44c5c .cfa: sp 36 +
STACK CFI 44c5e .ra: .cfa -4 + ^ r10: .cfa -12 + ^ r11: .cfa -8 + ^ r4: .cfa -36 + ^ r5: .cfa -32 + ^ r6: .cfa -28 + ^ r7: .cfa -24 + ^ r8: .cfa -20 + ^ r9: .cfa -16 + ^
STACK CFI 44c66 .cfa: sp 48 +
STACK CFI INIT 44e04 2a .cfa: sp 0 + .ra: lr
STACK CFI 44e0c .cfa: sp 4 +
STACK CFI 44e12 r4: .cfa -4 + ^
STACK CFI INIT 44e30 8 .cfa: sp 0 + .ra: lr
STACK CFI INIT 44e38 5c .cfa: sp 0 + .ra: lr
STACK CFI 44e3a .cfa: sp 12 +
STACK CFI 44e40 r4: .cfa -12 + ^ r5: .cfa -8 + ^ r6: .cfa -4 + ^
STACK CFI INIT 44e94 6 .cfa: sp 0 + .ra: lr
STACK CFI INIT 44e9c a .cfa: sp 0 + .ra: lr
STACK CFI INIT 44ea8 6 .cfa: sp 0 + .ra: lr
STACK CFI INIT 44eb0 6 .cfa: sp 0 + .ra: lr
STACK CFI INIT 44eb8 8 .cfa: sp 0 + .ra: lr
STACK CFI INIT 44ec0 20 .cfa: sp 0 + .ra: lr
STACK CFI 44ec2 .cfa: sp 4 +
STACK CFI 44ec6 r4: .cfa -4 + ^
STACK CFI INIT 44ee0 48 .cfa: sp 0 + .ra: lr
STACK CFI 44ee2 .cfa: sp 8 +
STACK CFI 44ee6 r4: .cfa -8 + ^ r5: .cfa -4 + ^
STACK CFI INIT 44f28 214 .cfa: sp 0 + .ra: lr
STACK CFI 44f2c .cfa: sp 28 +
STACK CFI 44f2e .cfa: sp 64 +
STACK CFI 44f30 .ra: .cfa -4 + ^ r4: .cfa -28 + ^ r5: .cfa -24 + ^ r6: .cfa -20 + ^ r7: .cfa -16 + ^ r8: .cfa -12 + ^ r9: .cfa -8 + ^
STACK CFI INIT 4513c 6 .cfa: sp 0 + .ra: lr
STACK CFI INIT 45144 bc .cfa: sp 0 + .ra: lr
STACK CFI 45146 .cfa: sp 20 +
STACK CFI 45148 .cfa: sp 32 +
STACK CFI 4514a .ra: .cfa -4 + ^ r4: .cfa -20 + ^ r5: .cfa -16 + ^ r6: .cfa -12 + ^ r7: .cfa -8 + ^
STACK CFI INIT 45200 2 .cfa: sp 0 + .ra: lr
STACK CFI INIT 45204 2 .cfa: sp 0 + .ra: lr
STACK CFI INIT 45208 2 .cfa: sp 0 + .ra: lr
STACK CFI INIT 4520c 4 .cfa: sp 0 + .ra: lr
STACK CFI INIT 45210 4 .cfa: sp 0 + .ra: lr
STACK CFI INIT 45214 6 .cfa: sp 0 + .ra: lr
STACK CFI INIT 4521c 8 .cfa: sp 0 + .ra: lr
STACK CFI INIT 45224 2 .cfa: sp 0 + .ra: lr
STACK CFI INIT 45228 bc .cfa: sp 0 + .ra: lr
STACK CFI 4522a .cfa: sp 20 +
STACK CFI 4522c .cfa: sp 32 +
STACK CFI 4522e .ra: .cfa -4 + ^ r4: .cfa -20 + ^ r5: .cfa -16 + ^ r6: .cfa -12 + ^ r7: .cfa -8 + ^
STACK CFI INIT 452e4 2 .cfa: sp 0 + .ra: lr
STACK CFI INIT 452e8 2 .cfa: sp 0 + .ra: lr
STACK CFI INIT 452ec 2 .cfa: sp 0 + .ra: lr
STACK CFI INIT 452f0 4 .cfa: sp 0 + .ra: lr
STACK CFI INIT 452f4 4 .cfa: sp 0 + .ra: lr
STACK CFI INIT 452f8 6 .cfa: sp 0 + .ra: lr
STACK CFI INIT 45300 8 .cfa: sp 0 + .ra: lr
STACK CFI INIT 45308 2 .cfa: sp 0 + .ra: lr
STACK CFI INIT 4530c 98 .cfa: sp 0 + .ra: lr
STACK CFI 45316 .cfa: sp 20 +
STACK CFI 45318 r4: .cfa -20 + ^ r5: .cfa -16 + ^ r6: .cfa -12 + ^ r7: .cfa -8 + ^ r8: .cfa -4 + ^
STACK CFI INIT 453a4 3a .cfa: sp 0 + .ra: lr
STACK CFI 453aa .cfa: sp 4 +
STACK CFI 453ac r4: .cfa -4 + ^
STACK CFI INIT 453e0 24c .cfa: sp 0 + .ra: lr
STACK CFI 453e4 .cfa: sp 36 +
STACK CFI 453e6 .ra: .cfa -4 + ^ r10: .cfa -12 + ^ r11: .cfa -8 + ^ r4: .cfa -36 + ^ r5: .cfa -32 + ^ r6: .cfa -28 + ^ r7: .cfa -24 + ^ r8: .cfa -20 + ^ r9: .cfa -16 + ^
STACK CFI 453ea .cfa: sp 48 +
STACK CFI INIT 4562c 208 .cfa: sp 0 + .ra: lr
STACK CFI 45630 .cfa: sp 28 +
STACK CFI 45632 .ra: .cfa -4 + ^ r4: .cfa -28 + ^ r5: .cfa -24 + ^ r6: .cfa -20 + ^ r7: .cfa -16 + ^ r8: .cfa -12 + ^ r9: .cfa -8 + ^
STACK CFI 45636 .cfa: sp 48 +
STACK CFI INIT 45834 260 .cfa: sp 0 + .ra: lr
STACK CFI 45838 .cfa: sp 36 +
STACK CFI 4583a .ra: .cfa -4 + ^ r10: .cfa -12 + ^ r11: .cfa -8 + ^ r4: .cfa -36 + ^ r5: .cfa -32 + ^ r6: .cfa -28 + ^ r7: .cfa -24 + ^ r8: .cfa -20 + ^ r9: .cfa -16 + ^
STACK CFI 4583e .cfa: sp 48 +
STACK CFI INIT 45a94 218 .cfa: sp 0 + .ra: lr
STACK CFI 45a98 .cfa: sp 28 +
STACK CFI 45a9c .ra: .cfa -4 + ^ r4: .cfa -28 + ^ r5: .cfa -24 + ^ r6: .cfa -20 + ^ r7: .cfa -16 + ^ r8: .cfa -12 + ^ r9: .cfa -8 + ^
STACK CFI 45a9e .cfa: sp 48 +
STACK CFI INIT 45cac 218 .cfa: sp 0 + .ra: lr
STACK CFI 45cb0 .cfa: sp 28 +
STACK CFI 45cb4 .ra: .cfa -4 + ^ r4: .cfa -28 + ^ r5: .cfa -24 + ^ r6: .cfa -20 + ^ r7: .cfa -16 + ^ r8: .cfa -12 + ^ r9: .cfa -8 + ^
STACK CFI 45cb6 .cfa: sp 48 +
STACK CFI INIT 45ec4 98 .cfa: sp 0 + .ra: lr
STACK CFI 45ece .cfa: sp 20 +
STACK CFI 45ed0 r4: .cfa -20 + ^ r5: .cfa -16 + ^ r6: .cfa -12 + ^ r7: .cfa -8 + ^ r8: .cfa -4 + ^
STACK CFI INIT 45f5c 3a .cfa: sp 0 + .ra: lr
STACK CFI 45f62 .cfa: sp 4 +
STACK CFI 45f64 r4: .cfa -4 + ^
STACK CFI INIT 45f98 24c .cfa: sp 0 + .ra: lr
STACK CFI 45f9c .cfa: sp 36 +
STACK CFI 45f9e .ra: .cfa -4 + ^ r10: .cfa -12 + ^ r11: .cfa -8 + ^ r4: .cfa -36 + ^ r5: .cfa -32 + ^ r6: .cfa -28 + ^ r7: .cfa -24 + ^ r8: .cfa -20 + ^ r9: .cfa -16 + ^
STACK CFI 45fa2 .cfa: sp 48 +
STACK CFI INIT 461e4 208 .cfa: sp 0 + .ra: lr
STACK CFI 461e8 .cfa: sp 28 +
STACK CFI 461ea .ra: .cfa -4 + ^ r4: .cfa -28 + ^ r5: .cfa -24 + ^ r6: .cfa -20 + ^ r7: .cfa -16 + ^ r8: .cfa -12 + ^ r9: .cfa -8 + ^
STACK CFI 461ee .cfa: sp 48 +
STACK CFI INIT 463ec 260 .cfa: sp 0 + .ra: lr
STACK CFI 463f0 .cfa: sp 36 +
STACK CFI 463f2 .ra: .cfa -4 + ^ r10: .cfa -12 + ^ r11: .cfa -8 + ^ r4: .cfa -36 + ^ r5: .cfa -32 + ^ r6: .cfa -28 + ^ r7: .cfa -24 + ^ r8: .cfa -20 + ^ r9: .cfa -16 + ^
STACK CFI 463f6 .cfa: sp 48 +
STACK CFI INIT 4664c 224 .cfa: sp 0 + .ra: lr
STACK CFI 46650 .cfa: sp 28 +
STACK CFI 46656 .ra: .cfa -4 + ^ r4: .cfa -28 + ^ r5: .cfa -24 + ^ r6: .cfa -20 + ^ r7: .cfa -16 + ^ r8: .cfa -12 + ^ r9: .cfa -8 + ^
STACK CFI 46658 .cfa: sp 48 +
STACK CFI INIT 46870 224 .cfa: sp 0 + .ra: lr
STACK CFI 46874 .cfa: sp 28 +
STACK CFI 4687a .ra: .cfa -4 + ^ r4: .cfa -28 + ^ r5: .cfa -24 + ^ r6: .cfa -20 + ^ r7: .cfa -16 + ^ r8: .cfa -12 + ^ r9: .cfa -8 + ^
STACK CFI 4687c .cfa: sp 48 +
STACK CFI INIT 46a94 164 .cfa: sp 0 + .ra: lr
STACK CFI 46a96 .cfa: sp 16 +
STACK CFI 46a98 .cfa: sp 64 +
STACK CFI 46a9a r4: .cfa -16 + ^ r5: .cfa -12 + ^ r6: .cfa -8 + ^ r7: .cfa -4 + ^
STACK CFI INIT 443c4 c .cfa: sp 0 + .ra: lr
STACK CFI INIT 443d0 c .cfa: sp 0 + .ra: lr
STACK CFI INIT 443dc 20 .cfa: sp 0 + .ra: lr
STACK CFI 443e4 .cfa: sp 8 +
STACK CFI 443e6 .ra: .cfa -4 + ^ r4: .cfa -8 + ^
STACK CFI INIT 443fc 28 .cfa: sp 0 + .ra: lr
STACK CFI 44404 .cfa: sp 8 +
STACK CFI 44406 .ra: .cfa -4 + ^ r4: .cfa -8 + ^
STACK CFI INIT 44424 20 .cfa: sp 0 + .ra: lr
STACK CFI 4442c .cfa: sp 8 +
STACK CFI 4442e .ra: .cfa -4 + ^ r4: .cfa -8 + ^
STACK CFI INIT 44444 28 .cfa: sp 0 + .ra: lr
STACK CFI 4444c .cfa: sp 8 +
STACK CFI 4444e .ra: .cfa -4 + ^ r4: .cfa -8 + ^
STACK CFI INIT 4446c 5c .cfa: sp 0 + .ra: lr
STACK CFI 4446e .cfa: sp 16 +
STACK CFI 44470 .ra: .cfa -4 + ^ r3: .cfa -16 + ^ r4: .cfa -12 + ^ r5: .cfa -8 + ^
STACK CFI INIT 46bf8 1c .cfa: sp 0 + .ra: lr
STACK CFI INIT 46c14 74 .cfa: sp 0 + .ra: lr
STACK CFI 46c18 .cfa: sp 20 +
STACK CFI 46c1c .ra: .cfa -4 + ^ r4: .cfa -20 + ^ r5: .cfa -16 + ^ r6: .cfa -12 + ^ r7: .cfa -8 + ^
STACK CFI 46c1e .cfa: sp 48 +
STACK CFI INIT 46c88 114 .cfa: sp 0 + .ra: lr
STACK CFI 46c8c .cfa: sp 40 +
STACK CFI 46c8e .ra: .cfa -4 + ^ r10: .cfa -12 + ^ r11: .cfa -8 + ^ r3: .cfa -40 + ^ r4: .cfa -36 + ^ r5: .cfa -32 + ^ r6: .cfa -28 + ^ r7: .cfa -24 + ^ r8: .cfa -20 + ^ r9: .cfa -16 + ^
STACK CFI INIT 46d9c 80 .cfa: sp 0 + .ra: lr
STACK CFI 46d9e .cfa: sp 20 +
STACK CFI 46da0 .cfa: sp 32 +
STACK CFI 46da6 .ra: .cfa -4 + ^ r4: .cfa -20 + ^ r5: .cfa -16 + ^ r6: .cfa -12 + ^ r7: .cfa -8 + ^
STACK CFI INIT 46e1c 2 .cfa: sp 0 + .ra: lr
STACK CFI INIT 46e20 2 .cfa: sp 0 + .ra: lr
STACK CFI INIT 46e24 2 .cfa: sp 0 + .ra: lr
STACK CFI INIT 46e28 4 .cfa: sp 0 + .ra: lr
STACK CFI INIT 46e2c 4 .cfa: sp 0 + .ra: lr
STACK CFI INIT 46e30 6 .cfa: sp 0 + .ra: lr
STACK CFI INIT 46e38 8 .cfa: sp 0 + .ra: lr
STACK CFI INIT 46e40 2 .cfa: sp 0 + .ra: lr
STACK CFI INIT 46e44 168 .cfa: sp 0 + .ra: lr
STACK CFI 46e48 .cfa: sp 24 +
STACK CFI 46e4a .ra: .cfa -4 + ^ r4: .cfa -24 + ^ r5: .cfa -20 + ^ r6: .cfa -16 + ^ r7: .cfa -12 + ^ r8: .cfa -8 + ^
STACK CFI 46e4e .cfa: sp 32 +
STACK CFI INIT 46fac e4 .cfa: sp 0 + .ra: lr
STACK CFI 46fb2 .cfa: sp 24 +
STACK CFI 46fb8 .ra: .cfa -4 + ^ r4: .cfa -24 + ^ r5: .cfa -20 + ^ r6: .cfa -16 + ^ r7: .cfa -12 + ^ r8: .cfa -8 + ^
STACK CFI INIT 47090 2 .cfa: sp 0 + .ra: lr
STACK CFI INIT 47094 2 .cfa: sp 0 + .ra: lr
STACK CFI INIT 47098 2 .cfa: sp 0 + .ra: lr
STACK CFI INIT 4709c 4 .cfa: sp 0 + .ra: lr
STACK CFI INIT 470a0 4 .cfa: sp 0 + .ra: lr
STACK CFI INIT 470a4 6 .cfa: sp 0 + .ra: lr
STACK CFI INIT 470ac 8 .cfa: sp 0 + .ra: lr
STACK CFI INIT 470b4 2 .cfa: sp 0 + .ra: lr
STACK CFI INIT 470b8 178 .cfa: sp 0 + .ra: lr
STACK CFI 470bc .cfa: sp 24 +
STACK CFI 470be .ra: .cfa -4 + ^ r4: .cfa -24 + ^ r5: .cfa -20 + ^ r6: .cfa -16 + ^ r7: .cfa -12 + ^ r8: .cfa -8 + ^
STACK CFI 470c2 .cfa: sp 32 +
STACK CFI INIT 47230 e4 .cfa: sp 0 + .ra: lr
STACK CFI 47236 .cfa: sp 24 +
STACK CFI 4723c .ra: .cfa -4 + ^ r4: .cfa -24 + ^ r5: .cfa -20 + ^ r6: .cfa -16 + ^ r7: .cfa -12 + ^ r8: .cfa -8 + ^
STACK CFI INIT 443c4 c .cfa: sp 0 + .ra: lr
STACK CFI INIT 443d0 c .cfa: sp 0 + .ra: lr
STACK CFI INIT 47314 74 .cfa: sp 0 + .ra: lr
STACK CFI 47318 .cfa: sp 20 +
STACK CFI 4731c .ra: .cfa -4 + ^ r4: .cfa -20 + ^ r5: .cfa -16 + ^ r6: .cfa -12 + ^ r7: .cfa -8 + ^
STACK CFI 4731e .cfa: sp 48 +
STACK CFI INIT 47388 18 .cfa: sp 0 + .ra: lr
STACK CFI 4738c .cfa: sp 8 +
STACK CFI 4738e .ra: .cfa -4 + ^ r4: .cfa -8 + ^
STACK CFI INIT 473a0 54 .cfa: sp 0 + .ra: lr
STACK CFI 473a2 .cfa: sp 16 +
STACK CFI 473a4 .ra: .cfa -4 + ^ r3: .cfa -16 + ^ r4: .cfa -12 + ^ r5: .cfa -8 + ^
STACK CFI INIT 443dc 20 .cfa: sp 0 + .ra: lr
STACK CFI 443e4 .cfa: sp 8 +
STACK CFI 443e6 .ra: .cfa -4 + ^ r4: .cfa -8 + ^
STACK CFI INIT 443fc 28 .cfa: sp 0 + .ra: lr
STACK CFI 44404 .cfa: sp 8 +
STACK CFI 44406 .ra: .cfa -4 + ^ r4: .cfa -8 + ^
STACK CFI INIT 44424 20 .cfa: sp 0 + .ra: lr
STACK CFI 4442c .cfa: sp 8 +
STACK CFI 4442e .ra: .cfa -4 + ^ r4: .cfa -8 + ^
STACK CFI INIT 44444 28 .cfa: sp 0 + .ra: lr
STACK CFI 4444c .cfa: sp 8 +
STACK CFI 4444e .ra: .cfa -4 + ^ r4: .cfa -8 + ^
STACK CFI INIT 473f4 b4 .cfa: sp 0 + .ra: lr
STACK CFI 473f6 .cfa: sp 24 +
STACK CFI 473f8 .ra: .cfa -4 + ^ r3: .cfa -24 + ^ r4: .cfa -20 + ^ r5: .cfa -16 + ^ r6: .cfa -12 + ^ r7: .cfa -8 + ^
STACK CFI INIT 4446c 5c .cfa: sp 0 + .ra: lr
STACK CFI 4446e .cfa: sp 16 +
STACK CFI 44470 .ra: .cfa -4 + ^ r3: .cfa -16 + ^ r4: .cfa -12 + ^ r5: .cfa -8 + ^
STACK CFI INIT 474a8 60 .cfa: sp 0 + .ra: lr
STACK CFI 474b0 .cfa: sp 32 +
STACK CFI 474b2 .ra: .cfa -4 + ^ r10: .cfa -8 + ^ r4: .cfa -32 + ^ r5: .cfa -28 + ^ r6: .cfa -24 + ^ r7: .cfa -20 + ^ r8: .cfa -16 + ^ r9: .cfa -12 + ^
STACK CFI INIT 47508 1e .cfa: sp 0 + .ra: lr
STACK CFI 4750a .cfa: sp 4 +
STACK CFI 4750c r4: .cfa -4 + ^
STACK CFI INIT 47528 b6 .cfa: sp 0 + .ra: lr
STACK CFI 4752c .cfa: sp 40 +
STACK CFI 4752e .ra: .cfa -4 + ^ r10: .cfa -12 + ^ r11: .cfa -8 + ^ r3: .cfa -40 + ^ r4: .cfa -36 + ^ r5: .cfa -32 + ^ r6: .cfa -28 + ^ r7: .cfa -24 + ^ r8: .cfa -20 + ^ r9: .cfa -16 + ^
STACK CFI INIT 475e0 c6 .cfa: sp 0 + .ra: lr
STACK CFI 475e6 .cfa: sp 24 +
STACK CFI 475e8 .ra: .cfa -4 + ^ r4: .cfa -24 + ^ r5: .cfa -20 + ^ r6: .cfa -16 + ^ r7: .cfa -12 + ^ r8: .cfa -8 + ^
STACK CFI INIT 476a8 b4 .cfa: sp 0 + .ra: lr
STACK CFI 476b2 .cfa: sp 24 +
STACK CFI 476b6 .ra: .cfa -4 + ^ r4: .cfa -24 + ^ r5: .cfa -20 + ^ r6: .cfa -16 + ^ r7: .cfa -12 + ^ r8: .cfa -8 + ^
STACK CFI INIT 4775c 1d8 .cfa: sp 0 + .ra: lr
STACK CFI 47760 .cfa: sp 36 +
STACK CFI 47762 .ra: .cfa -4 + ^ r10: .cfa -12 + ^ r11: .cfa -8 + ^ r4: .cfa -36 + ^ r5: .cfa -32 + ^ r6: .cfa -28 + ^ r7: .cfa -24 + ^ r8: .cfa -20 + ^ r9: .cfa -16 + ^
STACK CFI 4776a .cfa: sp 48 +
STACK CFI INIT 47934 33c .cfa: sp 0 + .ra: lr
STACK CFI 47938 .cfa: sp 36 +
STACK CFI 4793a .ra: .cfa -4 + ^ r10: .cfa -12 + ^ r11: .cfa -8 + ^ r4: .cfa -36 + ^ r5: .cfa -32 + ^ r6: .cfa -28 + ^ r7: .cfa -24 + ^ r8: .cfa -20 + ^ r9: .cfa -16 + ^
STACK CFI 4793e .cfa: sp 88 +
STACK CFI INIT 47c70 c .cfa: sp 0 + .ra: lr
STACK CFI INIT 47c7c 8c .cfa: sp 0 + .ra: lr
STACK CFI 47c7e .cfa: sp 16 +
STACK CFI 47c80 .ra: .cfa -4 + ^ r4: .cfa -16 + ^ r5: .cfa -12 + ^ r6: .cfa -8 + ^
STACK CFI INIT 47d08 d4 .cfa: sp 0 + .ra: lr
STACK CFI 47d0c .cfa: sp 24 +
STACK CFI 47d0e .ra: .cfa -4 + ^ r4: .cfa -24 + ^ r5: .cfa -20 + ^ r6: .cfa -16 + ^ r7: .cfa -12 + ^ r8: .cfa -8 + ^
STACK CFI INIT 47ddc 1c4 .cfa: sp 0 + .ra: lr
STACK CFI 47de0 .cfa: sp 36 +
STACK CFI 47de2 .cfa: sp 96 +
STACK CFI 47de4 .ra: .cfa -4 + ^ r10: .cfa -12 + ^ r11: .cfa -8 + ^ r4: .cfa -36 + ^ r5: .cfa -32 + ^ r6: .cfa -28 + ^ r7: .cfa -24 + ^ r8: .cfa -20 + ^ r9: .cfa -16 + ^
STACK CFI INIT 47fa0 2 .cfa: sp 0 + .ra: lr
STACK CFI INIT 47fa4 33c .cfa: sp 0 + .ra: lr
STACK CFI 47fa8 .cfa: sp 36 +
STACK CFI 47faa .ra: .cfa -4 + ^ r10: .cfa -12 + ^ r11: .cfa -8 + ^ r4: .cfa -36 + ^ r5: .cfa -32 + ^ r6: .cfa -28 + ^ r7: .cfa -24 + ^ r8: .cfa -20 + ^ r9: .cfa -16 + ^
STACK CFI 47fae .cfa: sp 88 +
STACK CFI INIT 482e0 2 .cfa: sp 0 + .ra: lr
STACK CFI INIT 482e4 2 .cfa: sp 0 + .ra: lr
STACK CFI INIT 482e8 2 .cfa: sp 0 + .ra: lr
STACK CFI INIT 482ec b0 .cfa: sp 0 + .ra: lr
STACK CFI 482f0 .cfa: sp 24 +
STACK CFI 482f2 .ra: .cfa -4 + ^ r4: .cfa -24 + ^ r5: .cfa -20 + ^ r6: .cfa -16 + ^ r7: .cfa -12 + ^ r8: .cfa -8 + ^
STACK CFI INIT 4839c 8c .cfa: sp 0 + .ra: lr
STACK CFI 4839e .cfa: sp 24 +
STACK CFI 483a0 .ra: .cfa -4 + ^ r3: .cfa -24 + ^ r4: .cfa -20 + ^ r5: .cfa -16 + ^ r6: .cfa -12 + ^ r7: .cfa -8 + ^
STACK CFI INIT 48428 b8 .cfa: sp 0 + .ra: lr
STACK CFI 4842a .cfa: sp 16 +
STACK CFI 48430 .cfa: sp 40 +
STACK CFI 48432 .cfa: sp 72 +
STACK CFI 48434 .ra: .cfa -20 + ^ r4: .cfa -40 + ^ r5: .cfa -36 + ^ r6: .cfa -32 + ^ r7: .cfa -28 + ^ r8: .cfa -24 + ^
STACK CFI INIT 484e0 2 .cfa: sp 0 + .ra: lr
STACK CFI INIT 484e4 2 .cfa: sp 0 + .ra: lr
STACK CFI INIT 484e8 2 .cfa: sp 0 + .ra: lr
STACK CFI INIT 484ec b0 .cfa: sp 0 + .ra: lr
STACK CFI 484f0 .cfa: sp 24 +
STACK CFI 484f2 .ra: .cfa -4 + ^ r4: .cfa -24 + ^ r5: .cfa -20 + ^ r6: .cfa -16 + ^ r7: .cfa -12 + ^ r8: .cfa -8 + ^
STACK CFI INIT 4859c 8c .cfa: sp 0 + .ra: lr
STACK CFI 4859e .cfa: sp 24 +
STACK CFI 485a0 .ra: .cfa -4 + ^ r3: .cfa -24 + ^ r4: .cfa -20 + ^ r5: .cfa -16 + ^ r6: .cfa -12 + ^ r7: .cfa -8 + ^
STACK CFI INIT 48628 b8 .cfa: sp 0 + .ra: lr
STACK CFI 4862a .cfa: sp 16 +
STACK CFI 48630 .cfa: sp 40 +
STACK CFI 48632 .cfa: sp 72 +
STACK CFI 48634 .ra: .cfa -20 + ^ r4: .cfa -40 + ^ r5: .cfa -36 + ^ r6: .cfa -32 + ^ r7: .cfa -28 + ^ r8: .cfa -24 + ^
STACK CFI INIT 486e0 80 .cfa: sp 0 + .ra: lr
STACK CFI 486e2 .cfa: sp 16 +
STACK CFI 486e4 .ra: .cfa -4 + ^ r4: .cfa -16 + ^ r5: .cfa -12 + ^ r6: .cfa -8 + ^
STACK CFI INIT 48760 148 .cfa: sp 0 + .ra: lr
STACK CFI 48764 .cfa: sp 24 +
STACK CFI 4876a .ra: .cfa -4 + ^ r4: .cfa -24 + ^ r5: .cfa -20 + ^ r6: .cfa -16 + ^ r7: .cfa -12 + ^ r8: .cfa -8 + ^
STACK CFI INIT 488a8 13c .cfa: sp 0 + .ra: lr
STACK CFI 488ac .cfa: sp 24 +
STACK CFI 488ae .ra: .cfa -4 + ^ r4: .cfa -24 + ^ r5: .cfa -20 + ^ r6: .cfa -16 + ^ r7: .cfa -12 + ^ r8: .cfa -8 + ^
STACK CFI INIT 489e4 e .cfa: sp 0 + .ra: lr
STACK CFI INIT 489f4 8 .cfa: sp 0 + .ra: lr
STACK CFI INIT 489fc e .cfa: sp 0 + .ra: lr
STACK CFI INIT 48a0c 4 .cfa: sp 0 + .ra: lr
STACK CFI INIT 48a10 4 .cfa: sp 0 + .ra: lr
STACK CFI INIT 48a14 e .cfa: sp 0 + .ra: lr
STACK CFI INIT 48a24 4 .cfa: sp 0 + .ra: lr
STACK CFI INIT 48a28 8 .cfa: sp 0 + .ra: lr
STACK CFI INIT 48a30 4 .cfa: sp 0 + .ra: lr
STACK CFI INIT 48a34 50 .cfa: sp 0 + .ra: lr
STACK CFI 48a36 .cfa: sp 16 +
STACK CFI 48a38 .ra: .cfa -4 + ^ r3: .cfa -16 + ^ r4: .cfa -12 + ^ r5: .cfa -8 + ^
STACK CFI INIT 48a84 12 .cfa: sp 0 + .ra: lr
STACK CFI 48a86 .cfa: sp 8 +
STACK CFI 48a88 .ra: .cfa -4 + ^ r4: .cfa -8 + ^
STACK CFI INIT 48a98 50 .cfa: sp 0 + .ra: lr
STACK CFI 48a9a .cfa: sp 16 +
STACK CFI 48a9c .ra: .cfa -4 + ^ r3: .cfa -16 + ^ r4: .cfa -12 + ^ r5: .cfa -8 + ^
STACK CFI INIT 48ae8 12 .cfa: sp 0 + .ra: lr
STACK CFI 48aea .cfa: sp 8 +
STACK CFI 48aec .ra: .cfa -4 + ^ r4: .cfa -8 + ^
STACK CFI INIT 48afc 44 .cfa: sp 0 + .ra: lr
STACK CFI 48afe .cfa: sp 16 +
STACK CFI 48b02 .ra: .cfa -4 + ^ r3: .cfa -16 + ^ r4: .cfa -12 + ^ r5: .cfa -8 + ^
STACK CFI INIT 48b40 34 .cfa: sp 0 + .ra: lr
STACK CFI 48b42 .cfa: sp 8 +
STACK CFI 48b44 .ra: .cfa -4 + ^ r4: .cfa -8 + ^
STACK CFI 48b4e .cfa: sp 16 +
STACK CFI INIT 48b74 44 .cfa: sp 0 + .ra: lr
STACK CFI 48b76 .cfa: sp 16 +
STACK CFI 48b7a .ra: .cfa -4 + ^ r3: .cfa -16 + ^ r4: .cfa -12 + ^ r5: .cfa -8 + ^
STACK CFI INIT 48bb8 34 .cfa: sp 0 + .ra: lr
STACK CFI 48bba .cfa: sp 8 +
STACK CFI 48bbc .ra: .cfa -4 + ^ r4: .cfa -8 + ^
STACK CFI 48bc6 .cfa: sp 16 +
STACK CFI INIT 48bec 2 .cfa: sp 0 + .ra: lr
STACK CFI INIT 48bf0 e .cfa: sp 0 + .ra: lr
STACK CFI INIT 48c00 e .cfa: sp 0 + .ra: lr
STACK CFI INIT 48c10 54 .cfa: sp 0 + .ra: lr
STACK CFI 48c14 .cfa: sp 8 +
STACK CFI 48c18 r4: .cfa -8 + ^ r5: .cfa -4 + ^
STACK CFI INIT 48c64 1e .cfa: sp 0 + .ra: lr
STACK CFI 48c68 .cfa: sp 12 +
STACK CFI 48c6a r4: .cfa -12 + ^ r5: .cfa -8 + ^ r6: .cfa -4 + ^
STACK CFI INIT 48c84 12 .cfa: sp 0 + .ra: lr
STACK CFI INIT 48c98 e .cfa: sp 0 + .ra: lr
STACK CFI INIT 48ca8 a .cfa: sp 0 + .ra: lr
STACK CFI INIT 48cb4 4 .cfa: sp 0 + .ra: lr
STACK CFI INIT 48cb8 4 .cfa: sp 0 + .ra: lr
STACK CFI INIT 48cbc 4 .cfa: sp 0 + .ra: lr
STACK CFI INIT 48cc0 4 .cfa: sp 0 + .ra: lr
STACK CFI INIT 48cc4 4 .cfa: sp 0 + .ra: lr
STACK CFI INIT 48cc8 4 .cfa: sp 0 + .ra: lr
STACK CFI INIT 48ccc 4 .cfa: sp 0 + .ra: lr
STACK CFI INIT 48cd0 4 .cfa: sp 0 + .ra: lr
STACK CFI INIT 48cd4 4 .cfa: sp 0 + .ra: lr
STACK CFI INIT 48cd8 4 .cfa: sp 0 + .ra: lr
STACK CFI INIT 48cdc 4 .cfa: sp 0 + .ra: lr
STACK CFI INIT 48ce0 4 .cfa: sp 0 + .ra: lr
STACK CFI INIT 48ce4 4 .cfa: sp 0 + .ra: lr
STACK CFI INIT 48ce8 4 .cfa: sp 0 + .ra: lr
STACK CFI INIT 48cec 4 .cfa: sp 0 + .ra: lr
STACK CFI INIT 48cf0 4 .cfa: sp 0 + .ra: lr
STACK CFI INIT 48cf4 4 .cfa: sp 0 + .ra: lr
STACK CFI INIT 48cf8 4 .cfa: sp 0 + .ra: lr
STACK CFI INIT 48cfc 4 .cfa: sp 0 + .ra: lr
STACK CFI INIT 48d00 4 .cfa: sp 0 + .ra: lr
STACK CFI INIT 48d04 4 .cfa: sp 0 + .ra: lr
STACK CFI INIT 48d08 4 .cfa: sp 0 + .ra: lr
STACK CFI INIT 48d0c 26 .cfa: sp 0 + .ra: lr
STACK CFI 48d0e .cfa: sp 8 +
STACK CFI 48d10 .ra: .cfa -4 + ^ r4: .cfa -8 + ^
STACK CFI INIT 48d34 26 .cfa: sp 0 + .ra: lr
STACK CFI 48d36 .cfa: sp 8 +
STACK CFI 48d38 .ra: .cfa -4 + ^ r4: .cfa -8 + ^
STACK CFI INIT 48d5c 16 .cfa: sp 0 + .ra: lr
STACK CFI 48d60 .cfa: sp 4 +
STACK CFI 48d62 r4: .cfa -4 + ^
STACK CFI INIT 48d74 16 .cfa: sp 0 + .ra: lr
STACK CFI 48d78 .cfa: sp 4 +
STACK CFI 48d7a r4: .cfa -4 + ^
STACK CFI INIT 48d8c 1a .cfa: sp 0 + .ra: lr
STACK CFI 48d92 .cfa: sp 4 +
STACK CFI 48d94 r4: .cfa -4 + ^
STACK CFI INIT 48da8 1a .cfa: sp 0 + .ra: lr
STACK CFI INIT 48dc4 20 .cfa: sp 0 + .ra: lr
STACK CFI 48dc6 .cfa: sp 16 +
STACK CFI 48dca .ra: .cfa -4 + ^ r3: .cfa -16 + ^ r4: .cfa -12 + ^ r5: .cfa -8 + ^
STACK CFI INIT 48de4 28 .cfa: sp 0 + .ra: lr
STACK CFI INIT 48e0c c6 .cfa: sp 0 + .ra: lr
STACK CFI 48e0e .cfa: sp 8 +
STACK CFI 48e10 .ra: .cfa -4 + ^ r4: .cfa -8 + ^
STACK CFI 48e12 .cfa: sp 16 +
STACK CFI INIT 48ed4 178 .cfa: sp 0 + .ra: lr
STACK CFI 48eda .cfa: sp 28 +
STACK CFI 48edc .ra: .cfa -4 + ^ r4: .cfa -28 + ^ r5: .cfa -24 + ^ r6: .cfa -20 + ^ r7: .cfa -16 + ^ r8: .cfa -12 + ^ r9: .cfa -8 + ^
STACK CFI 48ede .cfa: sp 40 +
STACK CFI INIT 4904c 6 .cfa: sp 0 + .ra: lr
STACK CFI INIT 49054 6 .cfa: sp 0 + .ra: lr
STACK CFI INIT 4905c 6 .cfa: sp 0 + .ra: lr
STACK CFI INIT 49064 16 .cfa: sp 0 + .ra: lr
STACK CFI 49068 .cfa: sp 4 +
STACK CFI 4906a r4: .cfa -4 + ^
STACK CFI INIT 4907c 16 .cfa: sp 0 + .ra: lr
STACK CFI 49080 .cfa: sp 4 +
STACK CFI 49082 r4: .cfa -4 + ^
STACK CFI INIT 49094 1a .cfa: sp 0 + .ra: lr
STACK CFI 4909a .cfa: sp 4 +
STACK CFI 4909c r4: .cfa -4 + ^
STACK CFI INIT 490b0 1c .cfa: sp 0 + .ra: lr
STACK CFI INIT 490cc 20 .cfa: sp 0 + .ra: lr
STACK CFI 490ce .cfa: sp 16 +
STACK CFI 490d2 .ra: .cfa -4 + ^ r3: .cfa -16 + ^ r4: .cfa -12 + ^ r5: .cfa -8 + ^
STACK CFI INIT 490ec 28 .cfa: sp 0 + .ra: lr
STACK CFI INIT 49114 cc .cfa: sp 0 + .ra: lr
STACK CFI 49116 .cfa: sp 8 +
STACK CFI 49118 .ra: .cfa -4 + ^ r4: .cfa -8 + ^
STACK CFI 4911a .cfa: sp 16 +
STACK CFI INIT 491e0 180 .cfa: sp 0 + .ra: lr
STACK CFI 491e6 .cfa: sp 28 +
STACK CFI 491e8 .ra: .cfa -4 + ^ r4: .cfa -28 + ^ r5: .cfa -24 + ^ r6: .cfa -20 + ^ r7: .cfa -16 + ^ r8: .cfa -12 + ^ r9: .cfa -8 + ^
STACK CFI 491ea .cfa: sp 40 +
STACK CFI INIT 49360 6 .cfa: sp 0 + .ra: lr
STACK CFI INIT 49368 6 .cfa: sp 0 + .ra: lr
STACK CFI INIT 49370 6 .cfa: sp 0 + .ra: lr
STACK CFI INIT 49378 c .cfa: sp 0 + .ra: lr
STACK CFI INIT 49384 20 .cfa: sp 0 + .ra: lr
STACK CFI 4938c .cfa: sp 8 +
STACK CFI 4938e .ra: .cfa -4 + ^ r4: .cfa -8 + ^
STACK CFI INIT 493a4 28 .cfa: sp 0 + .ra: lr
STACK CFI 493ac .cfa: sp 8 +
STACK CFI 493ae .ra: .cfa -4 + ^ r4: .cfa -8 + ^
STACK CFI INIT 493cc 6c .cfa: sp 0 + .ra: lr
STACK CFI 493d4 .cfa: sp 8 +
STACK CFI 493de r4: .cfa -8 + ^ r5: .cfa -4 + ^
STACK CFI INIT 49438 6c .cfa: sp 0 + .ra: lr
STACK CFI 49440 .cfa: sp 8 +
STACK CFI 4944a r4: .cfa -8 + ^ r5: .cfa -4 + ^
STACK CFI INIT 494a4 70 .cfa: sp 0 + .ra: lr
STACK CFI 494a8 .cfa: sp 8 +
STACK CFI 494ba r4: .cfa -8 + ^ r5: .cfa -4 + ^
STACK CFI INIT 49514 70 .cfa: sp 0 + .ra: lr
STACK CFI 49518 .cfa: sp 8 +
STACK CFI 4952a r4: .cfa -8 + ^ r5: .cfa -4 + ^
STACK CFI INIT 49584 84 .cfa: sp 0 + .ra: lr
STACK CFI 49588 .cfa: sp 20 +
STACK CFI 4958a .cfa: sp 32 +
STACK CFI 49590 r4: .cfa -20 + ^ r5: .cfa -16 + ^ r6: .cfa -12 + ^ r7: .cfa -8 + ^ r8: .cfa -4 + ^
STACK CFI INIT 49608 1e .cfa: sp 0 + .ra: lr
STACK CFI 4960c .cfa: sp 12 +
STACK CFI 4960e r4: .cfa -12 + ^ r5: .cfa -8 + ^ r6: .cfa -4 + ^
STACK CFI INIT 49628 12 .cfa: sp 0 + .ra: lr
STACK CFI INIT 4963c e .cfa: sp 0 + .ra: lr
STACK CFI INIT 4964c a .cfa: sp 0 + .ra: lr
STACK CFI INIT 49658 1e .cfa: sp 0 + .ra: lr
STACK CFI 4965c .cfa: sp 12 +
STACK CFI 4965e r4: .cfa -12 + ^ r5: .cfa -8 + ^ r6: .cfa -4 + ^
STACK CFI INIT 49678 12 .cfa: sp 0 + .ra: lr
STACK CFI INIT 4968c e .cfa: sp 0 + .ra: lr
STACK CFI INIT 4969c a .cfa: sp 0 + .ra: lr
STACK CFI INIT 496a8 90 .cfa: sp 0 + .ra: lr
STACK CFI 496aa .cfa: sp 12 +
STACK CFI 496ac .cfa: sp 32 +
STACK CFI 496ae .ra: .cfa -4 + ^ r4: .cfa -12 + ^ r5: .cfa -8 + ^
STACK CFI INIT 49738 9c .cfa: sp 0 + .ra: lr
STACK CFI 4973a .cfa: sp 12 +
STACK CFI 4973c .cfa: sp 40 +
STACK CFI 4973e .ra: .cfa -4 + ^ r4: .cfa -12 + ^ r5: .cfa -8 + ^
STACK CFI INIT 497d4 9c .cfa: sp 0 + .ra: lr
STACK CFI 497d6 .cfa: sp 12 +
STACK CFI 497d8 .cfa: sp 40 +
STACK CFI 497da .ra: .cfa -4 + ^ r4: .cfa -12 + ^ r5: .cfa -8 + ^
STACK CFI INIT 49870 84 .cfa: sp 0 + .ra: lr
STACK CFI 49872 .cfa: sp 12 +
STACK CFI 49874 .cfa: sp 32 +
STACK CFI 49876 .ra: .cfa -4 + ^ r4: .cfa -12 + ^ r5: .cfa -8 + ^
STACK CFI INIT 498f4 90 .cfa: sp 0 + .ra: lr
STACK CFI 498f6 .cfa: sp 12 +
STACK CFI 498f8 .cfa: sp 40 +
STACK CFI 498fa .ra: .cfa -4 + ^ r4: .cfa -12 + ^ r5: .cfa -8 + ^
STACK CFI INIT 49984 90 .cfa: sp 0 + .ra: lr
STACK CFI 49986 .cfa: sp 12 +
STACK CFI 49988 .cfa: sp 40 +
STACK CFI 4998a .ra: .cfa -4 + ^ r4: .cfa -12 + ^ r5: .cfa -8 + ^
STACK CFI INIT 49a14 90 .cfa: sp 0 + .ra: lr
STACK CFI 49a16 .cfa: sp 20 +
STACK CFI 49a18 .ra: .cfa -4 + ^ r4: .cfa -20 + ^ r5: .cfa -16 + ^ r6: .cfa -12 + ^ r7: .cfa -8 + ^
STACK CFI 49a1c .cfa: sp 32 +
STACK CFI INIT 49aa4 3b8 .cfa: sp 0 + .ra: lr
STACK CFI 49aa8 .cfa: sp 36 +
STACK CFI 49aaa .cfa: sp 288 +
STACK CFI 49aac .ra: .cfa -4 + ^ r10: .cfa -12 + ^ r11: .cfa -8 + ^ r4: .cfa -36 + ^ r5: .cfa -32 + ^ r6: .cfa -28 + ^ r7: .cfa -24 + ^ r8: .cfa -20 + ^ r9: .cfa -16 + ^
STACK CFI INIT 49e5c 3b8 .cfa: sp 0 + .ra: lr
STACK CFI 49e60 .cfa: sp 36 +
STACK CFI 49e62 .cfa: sp 288 +
STACK CFI 49e64 .ra: .cfa -4 + ^ r10: .cfa -12 + ^ r11: .cfa -8 + ^ r4: .cfa -36 + ^ r5: .cfa -32 + ^ r6: .cfa -28 + ^ r7: .cfa -24 + ^ r8: .cfa -20 + ^ r9: .cfa -16 + ^
STACK CFI INIT 4a214 3cc .cfa: sp 0 + .ra: lr
STACK CFI 4a218 .cfa: sp 36 +
STACK CFI 4a21a .cfa: sp 288 +
STACK CFI 4a21c .ra: .cfa -4 + ^ r10: .cfa -12 + ^ r11: .cfa -8 + ^ r4: .cfa -36 + ^ r5: .cfa -32 + ^ r6: .cfa -28 + ^ r7: .cfa -24 + ^ r8: .cfa -20 + ^ r9: .cfa -16 + ^
STACK CFI INIT 4a5e0 94 .cfa: sp 0 + .ra: lr
STACK CFI 4a5e2 .cfa: sp 20 +
STACK CFI 4a5e4 .ra: .cfa -4 + ^ r4: .cfa -20 + ^ r5: .cfa -16 + ^ r6: .cfa -12 + ^ r7: .cfa -8 + ^
STACK CFI 4a5e8 .cfa: sp 32 +
STACK CFI INIT 4a674 90 .cfa: sp 0 + .ra: lr
STACK CFI 4a676 .cfa: sp 20 +
STACK CFI 4a678 .ra: .cfa -4 + ^ r4: .cfa -20 + ^ r5: .cfa -16 + ^ r6: .cfa -12 + ^ r7: .cfa -8 + ^
STACK CFI 4a67c .cfa: sp 32 +
STACK CFI INIT 4a704 414 .cfa: sp 0 + .ra: lr
STACK CFI 4a708 .cfa: sp 36 +
STACK CFI 4a70a .cfa: sp 288 +
STACK CFI 4a70c .ra: .cfa -4 + ^ r10: .cfa -12 + ^ r11: .cfa -8 + ^ r4: .cfa -36 + ^ r5: .cfa -32 + ^ r6: .cfa -28 + ^ r7: .cfa -24 + ^ r8: .cfa -20 + ^ r9: .cfa -16 + ^
STACK CFI INIT 4ab18 414 .cfa: sp 0 + .ra: lr
STACK CFI 4ab1c .cfa: sp 36 +
STACK CFI 4ab1e .cfa: sp 288 +
STACK CFI 4ab20 .ra: .cfa -4 + ^ r10: .cfa -12 + ^ r11: .cfa -8 + ^ r4: .cfa -36 + ^ r5: .cfa -32 + ^ r6: .cfa -28 + ^ r7: .cfa -24 + ^ r8: .cfa -20 + ^ r9: .cfa -16 + ^
STACK CFI INIT 4af2c 428 .cfa: sp 0 + .ra: lr
STACK CFI 4af30 .cfa: sp 36 +
STACK CFI 4af32 .cfa: sp 288 +
STACK CFI 4af34 .ra: .cfa -4 + ^ r10: .cfa -12 + ^ r11: .cfa -8 + ^ r4: .cfa -36 + ^ r5: .cfa -32 + ^ r6: .cfa -28 + ^ r7: .cfa -24 + ^ r8: .cfa -20 + ^ r9: .cfa -16 + ^
STACK CFI INIT 4b354 94 .cfa: sp 0 + .ra: lr
STACK CFI 4b356 .cfa: sp 20 +
STACK CFI 4b358 .ra: .cfa -4 + ^ r4: .cfa -20 + ^ r5: .cfa -16 + ^ r6: .cfa -12 + ^ r7: .cfa -8 + ^
STACK CFI 4b35c .cfa: sp 32 +
STACK CFI INIT 4b3e8 4 .cfa: sp 0 + .ra: lr
STACK CFI INIT 4b3ec 4 .cfa: sp 0 + .ra: lr
STACK CFI INIT 4b3f0 8 .cfa: sp 0 + .ra: lr
STACK CFI INIT 4b3f8 4a .cfa: sp 0 + .ra: lr
STACK CFI 4b3fc .cfa: sp 8 +
STACK CFI 4b3fe r4: .cfa -8 + ^ r5: .cfa -4 + ^
STACK CFI INIT 4b444 8 .cfa: sp 0 + .ra: lr
STACK CFI INIT 4b44c 4a .cfa: sp 0 + .ra: lr
STACK CFI 4b450 .cfa: sp 8 +
STACK CFI 4b452 r4: .cfa -8 + ^ r5: .cfa -4 + ^
STACK CFI INIT 4b498 10 .cfa: sp 0 + .ra: lr
STACK CFI 4b49a .cfa: sp 8 +
STACK CFI 4b49c .ra: .cfa -4 + ^ r4: .cfa -8 + ^
STACK CFI INIT 4b4a8 10 .cfa: sp 0 + .ra: lr
STACK CFI 4b4aa .cfa: sp 8 +
STACK CFI 4b4ae .ra: .cfa -4 + ^ r4: .cfa -8 + ^
STACK CFI INIT 4b4b8 50 .cfa: sp 0 + .ra: lr
STACK CFI 4b4ba .cfa: sp 16 +
STACK CFI 4b4bc .ra: .cfa -4 + ^ r3: .cfa -16 + ^ r4: .cfa -12 + ^ r5: .cfa -8 + ^
STACK CFI INIT 4b508 20 .cfa: sp 0 + .ra: lr
STACK CFI 4b510 .cfa: sp 8 +
STACK CFI 4b512 .ra: .cfa -4 + ^ r4: .cfa -8 + ^
STACK CFI INIT 4b528 12 .cfa: sp 0 + .ra: lr
STACK CFI 4b52a .cfa: sp 8 +
STACK CFI 4b52c .ra: .cfa -4 + ^ r4: .cfa -8 + ^
STACK CFI INIT 4b53c 12 .cfa: sp 0 + .ra: lr
STACK CFI 4b53e .cfa: sp 8 +
STACK CFI 4b540 .ra: .cfa -4 + ^ r4: .cfa -8 + ^
STACK CFI INIT 4b550 40 .cfa: sp 0 + .ra: lr
STACK CFI 4b558 .cfa: sp 8 +
STACK CFI 4b55a .ra: .cfa -4 + ^ r4: .cfa -8 + ^
STACK CFI INIT 4b590 12 .cfa: sp 0 + .ra: lr
STACK CFI 4b592 .cfa: sp 8 +
STACK CFI 4b594 .ra: .cfa -4 + ^ r4: .cfa -8 + ^
STACK CFI INIT 4b5a4 18 .cfa: sp 0 + .ra: lr
STACK CFI 4b5a6 .cfa: sp 8 + .ra: .cfa -4 + ^ r3: .cfa -8 + ^
STACK CFI INIT 4b5bc 90 .cfa: sp 0 + .ra: lr
STACK CFI 4b5be .cfa: sp 16 +
STACK CFI 4b5c0 .cfa: sp 24 +
STACK CFI 4b5c2 .ra: .cfa -4 + ^ r4: .cfa -16 + ^ r5: .cfa -12 + ^ r6: .cfa -8 + ^
STACK CFI INIT 4b64c 8c .cfa: sp 0 + .ra: lr
STACK CFI 4b64e .cfa: sp 24 +
STACK CFI 4b650 .ra: .cfa -4 + ^ r3: .cfa -24 + ^ r4: .cfa -20 + ^ r5: .cfa -16 + ^ r6: .cfa -12 + ^ r7: .cfa -8 + ^
STACK CFI INIT 4b6d8 72 .cfa: sp 0 + .ra: lr
STACK CFI 4b6dc .cfa: sp 24 +
STACK CFI 4b6de .cfa: sp 296 +
STACK CFI 4b6e0 .ra: .cfa -4 + ^ r4: .cfa -24 + ^ r5: .cfa -20 + ^ r6: .cfa -16 + ^ r7: .cfa -12 + ^ r8: .cfa -8 + ^
STACK CFI INIT 4b74c 44 .cfa: sp 0 + .ra: lr
STACK CFI 4b74e .cfa: sp 20 +
STACK CFI 4b750 .ra: .cfa -4 + ^ r4: .cfa -20 + ^ r5: .cfa -16 + ^ r6: .cfa -12 + ^ r7: .cfa -8 + ^
STACK CFI 4b752 .cfa: sp 280 +
STACK CFI INIT 4b790 50 .cfa: sp 0 + .ra: lr
STACK CFI 4b792 .cfa: sp 16 +
STACK CFI 4b796 .ra: .cfa -4 + ^ r3: .cfa -16 + ^ r4: .cfa -12 + ^ r5: .cfa -8 + ^
STACK CFI INIT 4b7e0 40 .cfa: sp 0 + .ra: lr
STACK CFI 4b7e2 .cfa: sp 8 +
STACK CFI 4b7e4 .ra: .cfa -4 + ^ r4: .cfa -8 + ^
STACK CFI 4b7ee .cfa: sp 16 +
STACK CFI INIT 4b820 6c .cfa: sp 0 + .ra: lr
STACK CFI 4b822 .cfa: sp 16 +
STACK CFI 4b824 .ra: .cfa -4 + ^ r4: .cfa -16 + ^ r5: .cfa -12 + ^ r6: .cfa -8 + ^
STACK CFI INIT 4b88c 2 .cfa: sp 0 + .ra: lr
STACK CFI INIT 443c4 c .cfa: sp 0 + .ra: lr
STACK CFI INIT 443d0 c .cfa: sp 0 + .ra: lr
STACK CFI INIT 4b890 74 .cfa: sp 0 + .ra: lr
STACK CFI 4b894 .cfa: sp 20 +
STACK CFI 4b898 .ra: .cfa -4 + ^ r4: .cfa -20 + ^ r5: .cfa -16 + ^ r6: .cfa -12 + ^ r7: .cfa -8 + ^
STACK CFI 4b89a .cfa: sp 48 +
STACK CFI INIT 443dc 20 .cfa: sp 0 + .ra: lr
STACK CFI 443e4 .cfa: sp 8 +
STACK CFI 443e6 .ra: .cfa -4 + ^ r4: .cfa -8 + ^
STACK CFI INIT 443fc 28 .cfa: sp 0 + .ra: lr
STACK CFI 44404 .cfa: sp 8 +
STACK CFI 44406 .ra: .cfa -4 + ^ r4: .cfa -8 + ^
STACK CFI INIT 44424 20 .cfa: sp 0 + .ra: lr
STACK CFI 4442c .cfa: sp 8 +
STACK CFI 4442e .ra: .cfa -4 + ^ r4: .cfa -8 + ^
STACK CFI INIT 44444 28 .cfa: sp 0 + .ra: lr
STACK CFI 4444c .cfa: sp 8 +
STACK CFI 4444e .ra: .cfa -4 + ^ r4: .cfa -8 + ^
STACK CFI INIT 4b904 4 .cfa: sp 0 + .ra: lr
STACK CFI INIT 4b908 a8 .cfa: sp 0 + .ra: lr
STACK CFI 4b90a .cfa: sp 24 +
STACK CFI 4b90c .ra: .cfa -4 + ^ r3: .cfa -24 + ^ r4: .cfa -20 + ^ r5: .cfa -16 + ^ r6: .cfa -12 + ^ r7: .cfa -8 + ^
STACK CFI INIT 4b9b0 e4 .cfa: sp 0 + .ra: lr
STACK CFI 4b9b4 .cfa: sp 32 +
STACK CFI 4b9b6 .ra: .cfa -4 + ^ r3: .cfa -32 + ^ r4: .cfa -28 + ^ r5: .cfa -24 + ^ r6: .cfa -20 + ^ r7: .cfa -16 + ^ r8: .cfa -12 + ^ r9: .cfa -8 + ^
STACK CFI INIT 4ba94 2e .cfa: sp 0 + .ra: lr
STACK CFI INIT 4bac4 32 .cfa: sp 0 + .ra: lr
STACK CFI 4bac6 .cfa: sp 16 +
STACK CFI 4bac8 .ra: .cfa -4 + ^ r4: .cfa -16 + ^ r5: .cfa -12 + ^ r6: .cfa -8 + ^
STACK CFI INIT 4baf8 b8 .cfa: sp 0 + .ra: lr
STACK CFI 4bafc .cfa: sp 24 +
STACK CFI 4bafe .ra: .cfa -4 + ^ r4: .cfa -24 + ^ r5: .cfa -20 + ^ r6: .cfa -16 + ^ r7: .cfa -12 + ^ r8: .cfa -8 + ^
STACK CFI INIT 4bbb0 14 .cfa: sp 0 + .ra: lr
STACK CFI INIT 4bbc4 ec .cfa: sp 0 + .ra: lr
STACK CFI 4bbc8 .cfa: sp 32 +
STACK CFI 4bbca .ra: .cfa -4 + ^ r3: .cfa -32 + ^ r4: .cfa -28 + ^ r5: .cfa -24 + ^ r6: .cfa -20 + ^ r7: .cfa -16 + ^ r8: .cfa -12 + ^ r9: .cfa -8 + ^
STACK CFI INIT 4bcb0 2c .cfa: sp 0 + .ra: lr
STACK CFI 4bcb2 .cfa: sp 16 +
STACK CFI 4bcb4 .ra: .cfa -4 + ^ r4: .cfa -16 + ^ r5: .cfa -12 + ^ r6: .cfa -8 + ^
STACK CFI INIT 4bcdc 4 .cfa: sp 0 + .ra: lr
STACK CFI INIT 4bce0 9c .cfa: sp 0 + .ra: lr
STACK CFI 4bce2 .cfa: sp 16 +
STACK CFI 4bce4 .ra: .cfa -4 + ^ r4: .cfa -16 + ^ r5: .cfa -12 + ^ r6: .cfa -8 + ^
STACK CFI INIT 4bd7c b0 .cfa: sp 0 + .ra: lr
STACK CFI 4bd80 .cfa: sp 24 +
STACK CFI 4bd82 .ra: .cfa -4 + ^ r4: .cfa -24 + ^ r5: .cfa -20 + ^ r6: .cfa -16 + ^ r7: .cfa -12 + ^ r8: .cfa -8 + ^
STACK CFI INIT 4be2c 20 .cfa: sp 0 + .ra: lr
STACK CFI INIT 4be4c dc .cfa: sp 0 + .ra: lr
STACK CFI 4be4e .cfa: sp 20 +
STACK CFI 4be50 .ra: .cfa -4 + ^ r4: .cfa -20 + ^ r5: .cfa -16 + ^ r6: .cfa -12 + ^ r7: .cfa -8 + ^
STACK CFI 4be54 .cfa: sp 32 +
STACK CFI INIT 4bf28 30 .cfa: sp 0 + .ra: lr
STACK CFI 4bf2a .cfa: sp 12 +
STACK CFI 4bf2c .ra: .cfa -4 + ^ r4: .cfa -12 + ^ r5: .cfa -8 + ^
STACK CFI 4bf30 .cfa: sp 24 +
STACK CFI INIT 4bf58 c .cfa: sp 0 + .ra: lr
STACK CFI INIT 4bf64 378 .cfa: sp 0 + .ra: lr
STACK CFI 4bf68 .cfa: sp 16 +
STACK CFI 4bf6a .ra: .cfa -4 + ^ r4: .cfa -16 + ^ r5: .cfa -12 + ^ r6: .cfa -8 + ^
STACK CFI 4bf6c .cfa: sp 88 +
STACK CFI INIT 4c2dc c .cfa: sp 0 + .ra: lr
STACK CFI INIT 4c2e8 200 .cfa: sp 0 + .ra: lr
STACK CFI 4c2ec .cfa: sp 20 +
STACK CFI 4c2f0 .cfa: sp 160 +
STACK CFI 4c2f2 .ra: .cfa -4 + ^ r4: .cfa -20 + ^ r5: .cfa -16 + ^ r6: .cfa -12 + ^ r7: .cfa -8 + ^
STACK CFI INIT 4c4e8 c .cfa: sp 0 + .ra: lr
STACK CFI INIT 4c4f4 c .cfa: sp 0 + .ra: lr
STACK CFI INIT 4c500 3ac .cfa: sp 0 + .ra: lr
STACK CFI 4c504 .cfa: sp 32 +
STACK CFI 4c506 .ra: .cfa -4 + ^ r10: .cfa -8 + ^ r4: .cfa -32 + ^ r5: .cfa -28 + ^ r6: .cfa -24 + ^ r7: .cfa -20 + ^ r8: .cfa -16 + ^ r9: .cfa -12 + ^
STACK CFI 4c50c .cfa: sp 184 +
STACK CFI INIT 4c8ac 12c .cfa: sp 0 + .ra: lr
STACK CFI 4c8b0 .cfa: sp 28 +
STACK CFI 4c8b4 .ra: .cfa -4 + ^ r4: .cfa -28 + ^ r5: .cfa -24 + ^ r6: .cfa -20 + ^ r7: .cfa -16 + ^ r8: .cfa -12 + ^ r9: .cfa -8 + ^
STACK CFI 4c8b8 .cfa: sp 168 +
STACK CFI INIT 4c9d8 20 .cfa: sp 0 + .ra: lr
STACK CFI 4c9e0 .cfa: sp 8 +
STACK CFI 4c9e2 .ra: .cfa -4 + ^ r4: .cfa -8 + ^
STACK CFI INIT 4c9f8 28 .cfa: sp 0 + .ra: lr
STACK CFI 4ca00 .cfa: sp 8 +
STACK CFI 4ca02 .ra: .cfa -4 + ^ r4: .cfa -8 + ^
STACK CFI INIT 4ca20 20 .cfa: sp 0 + .ra: lr
STACK CFI 4ca28 .cfa: sp 8 +
STACK CFI 4ca2a .ra: .cfa -4 + ^ r4: .cfa -8 + ^
STACK CFI INIT 4ca40 28 .cfa: sp 0 + .ra: lr
STACK CFI 4ca48 .cfa: sp 8 +
STACK CFI 4ca4a .ra: .cfa -4 + ^ r4: .cfa -8 + ^
STACK CFI INIT 4ca68 20 .cfa: sp 0 + .ra: lr
STACK CFI 4ca70 .cfa: sp 8 +
STACK CFI 4ca72 .ra: .cfa -4 + ^ r4: .cfa -8 + ^
STACK CFI INIT 4ca88 28 .cfa: sp 0 + .ra: lr
STACK CFI 4ca90 .cfa: sp 8 +
STACK CFI 4ca92 .ra: .cfa -4 + ^ r4: .cfa -8 + ^
STACK CFI INIT 4cab0 20 .cfa: sp 0 + .ra: lr
STACK CFI 4cab8 .cfa: sp 8 +
STACK CFI 4caba .ra: .cfa -4 + ^ r4: .cfa -8 + ^
STACK CFI INIT 4cad0 28 .cfa: sp 0 + .ra: lr
STACK CFI 4cad8 .cfa: sp 8 +
STACK CFI 4cada .ra: .cfa -4 + ^ r4: .cfa -8 + ^
STACK CFI INIT 4caf8 20 .cfa: sp 0 + .ra: lr
STACK CFI 4cb00 .cfa: sp 8 +
STACK CFI 4cb02 .ra: .cfa -4 + ^ r4: .cfa -8 + ^
STACK CFI INIT 4cb18 28 .cfa: sp 0 + .ra: lr
STACK CFI 4cb20 .cfa: sp 8 +
STACK CFI 4cb22 .ra: .cfa -4 + ^ r4: .cfa -8 + ^
STACK CFI INIT 4cb40 20 .cfa: sp 0 + .ra: lr
STACK CFI 4cb48 .cfa: sp 8 +
STACK CFI 4cb4a .ra: .cfa -4 + ^ r4: .cfa -8 + ^
STACK CFI INIT 4cb60 28 .cfa: sp 0 + .ra: lr
STACK CFI 4cb68 .cfa: sp 8 +
STACK CFI 4cb6a .ra: .cfa -4 + ^ r4: .cfa -8 + ^
STACK CFI INIT 4cb88 20 .cfa: sp 0 + .ra: lr
STACK CFI 4cb90 .cfa: sp 8 +
STACK CFI 4cb92 .ra: .cfa -4 + ^ r4: .cfa -8 + ^
STACK CFI INIT 4cba8 28 .cfa: sp 0 + .ra: lr
STACK CFI 4cbb0 .cfa: sp 8 +
STACK CFI 4cbb2 .ra: .cfa -4 + ^ r4: .cfa -8 + ^
STACK CFI INIT 4cbd0 20 .cfa: sp 0 + .ra: lr
STACK CFI 4cbd8 .cfa: sp 8 +
STACK CFI 4cbda .ra: .cfa -4 + ^ r4: .cfa -8 + ^
STACK CFI INIT 4cbf0 28 .cfa: sp 0 + .ra: lr
STACK CFI 4cbf8 .cfa: sp 8 +
STACK CFI 4cbfa .ra: .cfa -4 + ^ r4: .cfa -8 + ^
STACK CFI INIT 4cc18 34 .cfa: sp 0 + .ra: lr
STACK CFI 4cc1a .cfa: sp 8 +
STACK CFI 4cc1c .ra: .cfa -4 + ^ r4: .cfa -8 + ^
STACK CFI INIT 4cc4c 34 .cfa: sp 0 + .ra: lr
STACK CFI 4cc4e .cfa: sp 8 +
STACK CFI 4cc50 .ra: .cfa -4 + ^ r4: .cfa -8 + ^
STACK CFI INIT 4cc80 34 .cfa: sp 0 + .ra: lr
STACK CFI 4cc82 .cfa: sp 8 +
STACK CFI 4cc84 .ra: .cfa -4 + ^ r4: .cfa -8 + ^
STACK CFI INIT 4ccb4 34 .cfa: sp 0 + .ra: lr
STACK CFI 4ccb6 .cfa: sp 8 +
STACK CFI 4ccb8 .ra: .cfa -4 + ^ r4: .cfa -8 + ^
STACK CFI INIT 4cce8 9c .cfa: sp 0 + .ra: lr
STACK CFI 4ccea .cfa: sp 20 +
STACK CFI 4ccec .cfa: sp 40 +
STACK CFI 4ccf4 .ra: .cfa -4 + ^ r4: .cfa -20 + ^ r5: .cfa -16 + ^ r6: .cfa -12 + ^ r7: .cfa -8 + ^
STACK CFI INIT 4cd84 9c .cfa: sp 0 + .ra: lr
STACK CFI 4cd86 .cfa: sp 20 +
STACK CFI 4cd88 .cfa: sp 40 +
STACK CFI 4cd90 .ra: .cfa -4 + ^ r4: .cfa -20 + ^ r5: .cfa -16 + ^ r6: .cfa -12 + ^ r7: .cfa -8 + ^
STACK CFI INIT 4ce20 9c .cfa: sp 0 + .ra: lr
STACK CFI 4ce22 .cfa: sp 20 +
STACK CFI 4ce24 .cfa: sp 40 +
STACK CFI 4ce2c .ra: .cfa -4 + ^ r4: .cfa -20 + ^ r5: .cfa -16 + ^ r6: .cfa -12 + ^ r7: .cfa -8 + ^
STACK CFI INIT 4cebc 9c .cfa: sp 0 + .ra: lr
STACK CFI 4cebe .cfa: sp 20 +
STACK CFI 4cec0 .cfa: sp 40 +
STACK CFI 4cec8 .ra: .cfa -4 + ^ r4: .cfa -20 + ^ r5: .cfa -16 + ^ r6: .cfa -12 + ^ r7: .cfa -8 + ^
STACK CFI INIT 4cf58 9c .cfa: sp 0 + .ra: lr
STACK CFI 4cf5a .cfa: sp 20 +
STACK CFI 4cf5c .cfa: sp 40 +
STACK CFI 4cf64 .ra: .cfa -4 + ^ r4: .cfa -20 + ^ r5: .cfa -16 + ^ r6: .cfa -12 + ^ r7: .cfa -8 + ^
STACK CFI INIT 4cff4 9c .cfa: sp 0 + .ra: lr
STACK CFI 4cff6 .cfa: sp 20 +
STACK CFI 4cff8 .cfa: sp 40 +
STACK CFI 4d000 .ra: .cfa -4 + ^ r4: .cfa -20 + ^ r5: .cfa -16 + ^ r6: .cfa -12 + ^ r7: .cfa -8 + ^
STACK CFI INIT 4d090 9c .cfa: sp 0 + .ra: lr
STACK CFI 4d092 .cfa: sp 20 +
STACK CFI 4d094 .cfa: sp 40 +
STACK CFI 4d09c .ra: .cfa -4 + ^ r4: .cfa -20 + ^ r5: .cfa -16 + ^ r6: .cfa -12 + ^ r7: .cfa -8 + ^
STACK CFI INIT 4d12c 9c .cfa: sp 0 + .ra: lr
STACK CFI 4d12e .cfa: sp 20 +
STACK CFI 4d130 .cfa: sp 40 +
STACK CFI 4d138 .ra: .cfa -4 + ^ r4: .cfa -20 + ^ r5: .cfa -16 + ^ r6: .cfa -12 + ^ r7: .cfa -8 + ^
STACK CFI INIT 4d1c8 9c .cfa: sp 0 + .ra: lr
STACK CFI 4d1ca .cfa: sp 20 +
STACK CFI 4d1cc .cfa: sp 40 +
STACK CFI 4d1d4 .ra: .cfa -4 + ^ r4: .cfa -20 + ^ r5: .cfa -16 + ^ r6: .cfa -12 + ^ r7: .cfa -8 + ^
STACK CFI INIT 4d264 8c .cfa: sp 0 + .ra: lr
STACK CFI 4d266 .cfa: sp 20 +
STACK CFI 4d268 .cfa: sp 40 +
STACK CFI 4d270 .ra: .cfa -4 + ^ r4: .cfa -20 + ^ r5: .cfa -16 + ^ r6: .cfa -12 + ^ r7: .cfa -8 + ^
STACK CFI INIT 4d2f0 c8 .cfa: sp 0 + .ra: lr
STACK CFI 4d2f2 .cfa: sp 20 +
STACK CFI 4d2f4 .cfa: sp 40 +
STACK CFI 4d2f6 .ra: .cfa -4 + ^ r4: .cfa -20 + ^ r5: .cfa -16 + ^ r6: .cfa -12 + ^ r7: .cfa -8 + ^
STACK CFI INIT 4d3b8 cc .cfa: sp 0 + .ra: lr
STACK CFI 4d3ba .cfa: sp 20 +
STACK CFI 4d3bc .ra: .cfa -4 + ^ r4: .cfa -20 + ^ r5: .cfa -16 + ^ r6: .cfa -12 + ^ r7: .cfa -8 + ^
STACK CFI 4d3c0 .cfa: sp 40 +
STACK CFI INIT 4d484 34 .cfa: sp 0 + .ra: lr
STACK CFI 4d486 .cfa: sp 8 +
STACK CFI 4d488 .ra: .cfa -4 + ^ r4: .cfa -8 + ^
STACK CFI INIT 4d4b8 90 .cfa: sp 0 + .ra: lr
STACK CFI 4d4ba .cfa: sp 20 +
STACK CFI 4d4bc .ra: .cfa -4 + ^ r4: .cfa -20 + ^ r5: .cfa -16 + ^ r6: .cfa -12 + ^ r7: .cfa -8 + ^
STACK CFI 4d4c0 .cfa: sp 32 +
STACK CFI INIT 4d548 90 .cfa: sp 0 + .ra: lr
STACK CFI 4d54a .cfa: sp 20 +
STACK CFI 4d54c .ra: .cfa -4 + ^ r4: .cfa -20 + ^ r5: .cfa -16 + ^ r6: .cfa -12 + ^ r7: .cfa -8 + ^
STACK CFI 4d550 .cfa: sp 32 +
STACK CFI INIT 4d5d8 6c .cfa: sp 0 + .ra: lr
STACK CFI 4d5e0 .cfa: sp 8 +
STACK CFI 4d5ea r4: .cfa -8 + ^ r5: .cfa -4 + ^
STACK CFI INIT 4d644 6c .cfa: sp 0 + .ra: lr
STACK CFI 4d64c .cfa: sp 8 +
STACK CFI 4d656 r4: .cfa -8 + ^ r5: .cfa -4 + ^
STACK CFI INIT 4d6b0 70 .cfa: sp 0 + .ra: lr
STACK CFI 4d6b4 .cfa: sp 8 +
STACK CFI 4d6c6 r4: .cfa -8 + ^ r5: .cfa -4 + ^
STACK CFI INIT 4d720 70 .cfa: sp 0 + .ra: lr
STACK CFI 4d724 .cfa: sp 8 +
STACK CFI 4d736 r4: .cfa -8 + ^ r5: .cfa -4 + ^
STACK CFI INIT 4d790 60 .cfa: sp 0 + .ra: lr
STACK CFI 4d798 .cfa: sp 16 +
STACK CFI 4d79c .ra: .cfa -4 + ^ r3: .cfa -16 + ^ r4: .cfa -12 + ^ r5: .cfa -8 + ^
STACK CFI INIT 4d7f0 50 .cfa: sp 0 + .ra: lr
STACK CFI 4d7f8 .cfa: sp 4 +
STACK CFI 4d7fc r4: .cfa -4 + ^
STACK CFI INIT 4d840 1e .cfa: sp 0 + .ra: lr
STACK CFI 4d842 .cfa: sp 16 +
STACK CFI 4d844 .ra: .cfa -4 + ^ r4: .cfa -16 + ^ r5: .cfa -12 + ^ r6: .cfa -8 + ^
STACK CFI INIT 4d860 194 .cfa: sp 0 + .ra: lr
STACK CFI 4d866 .cfa: sp 36 +
STACK CFI 4d868 .ra: .cfa -4 + ^ r10: .cfa -12 + ^ r11: .cfa -8 + ^ r4: .cfa -36 + ^ r5: .cfa -32 + ^ r6: .cfa -28 + ^ r7: .cfa -24 + ^ r8: .cfa -20 + ^ r9: .cfa -16 + ^
STACK CFI 4d86a .cfa: sp 56 +
STACK CFI INIT 4d9f4 36 .cfa: sp 0 + .ra: lr
STACK CFI 4d9f6 .cfa: sp 16 +
STACK CFI 4d9f8 .ra: .cfa -4 + ^ r4: .cfa -16 + ^ r5: .cfa -12 + ^ r6: .cfa -8 + ^
STACK CFI INIT 4da2c 60 .cfa: sp 0 + .ra: lr
STACK CFI 4da2e .cfa: sp 24 +
STACK CFI 4da30 .ra: .cfa -4 + ^ r3: .cfa -24 + ^ r4: .cfa -20 + ^ r5: .cfa -16 + ^ r6: .cfa -12 + ^ r7: .cfa -8 + ^
STACK CFI INIT 4da8c 48 .cfa: sp 0 + .ra: lr
STACK CFI 4da98 .cfa: sp 8 +
STACK CFI 4da9a .ra: .cfa -4 + ^ r4: .cfa -8 + ^
STACK CFI INIT 4dad4 12 .cfa: sp 0 + .ra: lr
STACK CFI 4dad6 .cfa: sp 8 +
STACK CFI 4dad8 .ra: .cfa -4 + ^ r4: .cfa -8 + ^
STACK CFI INIT 4dae8 4 .cfa: sp 0 + .ra: lr
STACK CFI INIT 4daec 80 .cfa: sp 0 + .ra: lr
STACK CFI 4daf0 .cfa: sp 16 +
STACK CFI 4daf2 .ra: .cfa -4 + ^ r4: .cfa -16 + ^ r5: .cfa -12 + ^ r6: .cfa -8 + ^
STACK CFI 4dafa .cfa: sp 24 +
STACK CFI INIT 4db6c 12 .cfa: sp 0 + .ra: lr
STACK CFI 4db6e .cfa: sp 8 +
STACK CFI 4db70 .ra: .cfa -4 + ^ r4: .cfa -8 + ^
STACK CFI INIT 4db80 3c .cfa: sp 0 + .ra: lr
STACK CFI 4db88 .cfa: sp 16 +
STACK CFI 4db8a .ra: .cfa -4 + ^ r4: .cfa -16 + ^ r5: .cfa -12 + ^ r6: .cfa -8 + ^
STACK CFI INIT 4dbbc 74 .cfa: sp 0 + .ra: lr
STACK CFI 4dbc0 .cfa: sp 24 +
STACK CFI 4dbc2 .ra: .cfa -4 + ^ r4: .cfa -24 + ^ r5: .cfa -20 + ^ r6: .cfa -16 + ^ r7: .cfa -12 + ^ r8: .cfa -8 + ^
STACK CFI INIT 4dc30 74 .cfa: sp 0 + .ra: lr
STACK CFI 4dc34 .cfa: sp 24 +
STACK CFI 4dc36 .ra: .cfa -4 + ^ r4: .cfa -24 + ^ r5: .cfa -20 + ^ r6: .cfa -16 + ^ r7: .cfa -12 + ^ r8: .cfa -8 + ^
STACK CFI INIT 4dca4 5e0 .cfa: sp 0 + .ra: lr
STACK CFI 4dca8 .cfa: sp 36 +
STACK CFI 4dcaa .cfa: sp 72 +
STACK CFI 4dcae .ra: .cfa -4 + ^ r10: .cfa -12 + ^ r11: .cfa -8 + ^ r4: .cfa -36 + ^ r5: .cfa -32 + ^ r6: .cfa -28 + ^ r7: .cfa -24 + ^ r8: .cfa -20 + ^ r9: .cfa -16 + ^
STACK CFI INIT 4e284 b8 .cfa: sp 0 + .ra: lr
STACK CFI 4e286 .cfa: sp 16 +
STACK CFI 4e288 .ra: .cfa -4 + ^ r4: .cfa -16 + ^ r5: .cfa -12 + ^ r6: .cfa -8 + ^
STACK CFI INIT 4e33c 1f8 .cfa: sp 0 + .ra: lr
STACK CFI 4e340 .cfa: sp 24 +
STACK CFI 4e342 .ra: .cfa -4 + ^ r4: .cfa -24 + ^ r5: .cfa -20 + ^ r6: .cfa -16 + ^ r7: .cfa -12 + ^ r8: .cfa -8 + ^
STACK CFI 4e346 .cfa: sp 32 +
STACK CFI INIT 4e534 2e .cfa: sp 0 + .ra: lr
STACK CFI 4e536 .cfa: sp 8 +
STACK CFI 4e538 .ra: .cfa -4 + ^ r4: .cfa -8 + ^
STACK CFI 4e53a .cfa: sp 16 +
STACK CFI INIT 4e564 26 .cfa: sp 0 + .ra: lr
STACK CFI 4e566 .cfa: sp 24 +
STACK CFI 4e56a .ra: .cfa -4 + ^ r3: .cfa -24 + ^ r4: .cfa -20 + ^ r5: .cfa -16 + ^ r6: .cfa -12 + ^ r7: .cfa -8 + ^
STACK CFI INIT 4e58c 54 .cfa: sp 0 + .ra: lr
STACK CFI 4e590 .cfa: sp 8 +
STACK CFI 4e594 r4: .cfa -8 + ^ r5: .cfa -4 + ^
STACK CFI INIT 4e5e0 1e .cfa: sp 0 + .ra: lr
STACK CFI 4e5e4 .cfa: sp 12 +
STACK CFI 4e5e6 r4: .cfa -12 + ^ r5: .cfa -8 + ^ r6: .cfa -4 + ^
STACK CFI INIT 4e600 12 .cfa: sp 0 + .ra: lr
STACK CFI INIT 4e614 e .cfa: sp 0 + .ra: lr
STACK CFI INIT 4e624 a .cfa: sp 0 + .ra: lr
STACK CFI INIT 4e630 54 .cfa: sp 0 + .ra: lr
STACK CFI 4e634 .cfa: sp 8 +
STACK CFI 4e638 r4: .cfa -8 + ^ r5: .cfa -4 + ^
STACK CFI INIT 4e684 1e .cfa: sp 0 + .ra: lr
STACK CFI 4e688 .cfa: sp 12 +
STACK CFI 4e68a r4: .cfa -12 + ^ r5: .cfa -8 + ^ r6: .cfa -4 + ^
STACK CFI INIT 4e6a4 12 .cfa: sp 0 + .ra: lr
STACK CFI INIT 4e6b8 e .cfa: sp 0 + .ra: lr
STACK CFI INIT 4e6c8 a .cfa: sp 0 + .ra: lr
STACK CFI INIT 443c4 c .cfa: sp 0 + .ra: lr
STACK CFI INIT 443d0 c .cfa: sp 0 + .ra: lr
STACK CFI INIT 4e6d4 18 .cfa: sp 0 + .ra: lr
STACK CFI INIT 4e6ec 12 .cfa: sp 0 + .ra: lr
STACK CFI 4e6ee .cfa: sp 8 +
STACK CFI 4e6f0 .ra: .cfa -4 + ^ r4: .cfa -8 + ^
STACK CFI INIT 443dc 20 .cfa: sp 0 + .ra: lr
STACK CFI 443e4 .cfa: sp 8 +
STACK CFI 443e6 .ra: .cfa -4 + ^ r4: .cfa -8 + ^
STACK CFI INIT 443fc 28 .cfa: sp 0 + .ra: lr
STACK CFI 44404 .cfa: sp 8 +
STACK CFI 44406 .ra: .cfa -4 + ^ r4: .cfa -8 + ^
STACK CFI INIT 44424 20 .cfa: sp 0 + .ra: lr
STACK CFI 4442c .cfa: sp 8 +
STACK CFI 4442e .ra: .cfa -4 + ^ r4: .cfa -8 + ^
STACK CFI INIT 44444 28 .cfa: sp 0 + .ra: lr
STACK CFI 4444c .cfa: sp 8 +
STACK CFI 4444e .ra: .cfa -4 + ^ r4: .cfa -8 + ^
STACK CFI INIT 4446c 5c .cfa: sp 0 + .ra: lr
STACK CFI 4446e .cfa: sp 16 +
STACK CFI 44470 .ra: .cfa -4 + ^ r3: .cfa -16 + ^ r4: .cfa -12 + ^ r5: .cfa -8 + ^
STACK CFI INIT 4e700 40 .cfa: sp 0 + .ra: lr
STACK CFI 4e70a .cfa: sp 4 +
STACK CFI 4e710 r4: .cfa -4 + ^
STACK CFI INIT 4e740 4 .cfa: sp 0 + .ra: lr
STACK CFI INIT 4e744 28c .cfa: sp 0 + .ra: lr
STACK CFI 4e748 .cfa: sp 36 +
STACK CFI 4e74a .ra: .cfa -4 + ^ r10: .cfa -12 + ^ r11: .cfa -8 + ^ r4: .cfa -36 + ^ r5: .cfa -32 + ^ r6: .cfa -28 + ^ r7: .cfa -24 + ^ r8: .cfa -20 + ^ r9: .cfa -16 + ^
STACK CFI 4e74e .cfa: sp 48 +
STACK CFI INIT 4e9d0 158 .cfa: sp 0 + .ra: lr
STACK CFI 4e9d8 .cfa: sp 24 +
STACK CFI 4e9dc .ra: .cfa -4 + ^ r4: .cfa -24 + ^ r5: .cfa -20 + ^ r6: .cfa -16 + ^ r7: .cfa -12 + ^ r8: .cfa -8 + ^
STACK CFI 4e9de .cfa: sp 48 +
STACK CFI INIT 4eb28 4c .cfa: sp 0 + .ra: lr
STACK CFI 4eb2a .cfa: sp 8 +
STACK CFI 4eb2c .ra: .cfa -4 + ^ r3: .cfa -8 + ^
STACK CFI INIT 4eb74 20 .cfa: sp 0 + .ra: lr
STACK CFI INIT 4eb94 20 .cfa: sp 0 + .ra: lr
STACK CFI 4eb9c .cfa: sp 8 +
STACK CFI 4eb9e .ra: .cfa -4 + ^ r4: .cfa -8 + ^
STACK CFI INIT 4ebb4 14 .cfa: sp 0 + .ra: lr
STACK CFI INIT 4ebc8 190 .cfa: sp 0 + .ra: lr
STACK CFI 4ebca .cfa: sp 24 +
STACK CFI 4ebcc .ra: .cfa -4 + ^ r3: .cfa -24 + ^ r4: .cfa -20 + ^ r5: .cfa -16 + ^ r6: .cfa -12 + ^ r7: .cfa -8 + ^
STACK CFI INIT 4ed58 5c .cfa: sp 0 + .ra: lr
STACK CFI 4ed5a .cfa: sp 16 +
STACK CFI 4ed5c .ra: .cfa -4 + ^ r3: .cfa -16 + ^ r4: .cfa -12 + ^ r5: .cfa -8 + ^
STACK CFI INIT 4edb4 8c .cfa: sp 0 + .ra: lr
STACK CFI 4edb8 .cfa: sp 16 +
STACK CFI 4edba .ra: .cfa -4 + ^ r4: .cfa -16 + ^ r5: .cfa -12 + ^ r6: .cfa -8 + ^
STACK CFI INIT 4ee40 2dc .cfa: sp 0 + .ra: lr
STACK CFI 4ee42 .cfa: sp 24 +
STACK CFI 4ee44 .ra: .cfa -4 + ^ r3: .cfa -24 + ^ r4: .cfa -20 + ^ r5: .cfa -16 + ^ r6: .cfa -12 + ^ r7: .cfa -8 + ^
STACK CFI INIT 4f11c 160 .cfa: sp 0 + .ra: lr
STACK CFI 4f122 .cfa: sp 32 +
STACK CFI 4f126 .ra: .cfa -4 + ^ r10: .cfa -8 + ^ r4: .cfa -32 + ^ r5: .cfa -28 + ^ r6: .cfa -24 + ^ r7: .cfa -20 + ^ r8: .cfa -16 + ^ r9: .cfa -12 + ^
STACK CFI 4f12c .cfa: sp 64 +
STACK CFI INIT 4f27c 5c .cfa: sp 0 + .ra: lr
STACK CFI 4f282 .cfa: sp 8 +
STACK CFI 4f286 r4: .cfa -8 + ^ r5: .cfa -4 + ^
STACK CFI INIT 4f2d8 2a8 .cfa: sp 0 + .ra: lr
STACK CFI 4f2dc .cfa: sp 36 +
STACK CFI 4f2de .ra: .cfa -4 + ^ r10: .cfa -12 + ^ r11: .cfa -8 + ^ r4: .cfa -36 + ^ r5: .cfa -32 + ^ r6: .cfa -28 + ^ r7: .cfa -24 + ^ r8: .cfa -20 + ^ r9: .cfa -16 + ^
STACK CFI 4f2e2 .cfa: sp 48 +
STACK CFI INIT 4f580 38 .cfa: sp 0 + .ra: lr
STACK CFI 4f582 .cfa: sp 16 +
STACK CFI 4f584 .ra: .cfa -4 + ^ r4: .cfa -16 + ^ r5: .cfa -12 + ^ r6: .cfa -8 + ^
STACK CFI INIT 4f5b8 1e .cfa: sp 0 + .ra: lr
STACK CFI 4f5ba .cfa: sp 16 +
STACK CFI 4f5bc .ra: .cfa -4 + ^ r4: .cfa -16 + ^ r5: .cfa -12 + ^ r6: .cfa -8 + ^
STACK CFI INIT 443c4 c .cfa: sp 0 + .ra: lr
STACK CFI INIT 443d0 c .cfa: sp 0 + .ra: lr
STACK CFI INIT 4f5d8 74 .cfa: sp 0 + .ra: lr
STACK CFI 4f5dc .cfa: sp 20 +
STACK CFI 4f5e0 .ra: .cfa -4 + ^ r4: .cfa -20 + ^ r5: .cfa -16 + ^ r6: .cfa -12 + ^ r7: .cfa -8 + ^
STACK CFI 4f5e2 .cfa: sp 48 +
STACK CFI INIT 443dc 20 .cfa: sp 0 + .ra: lr
STACK CFI 443e4 .cfa: sp 8 +
STACK CFI 443e6 .ra: .cfa -4 + ^ r4: .cfa -8 + ^
STACK CFI INIT 443fc 28 .cfa: sp 0 + .ra: lr
STACK CFI 44404 .cfa: sp 8 +
STACK CFI 44406 .ra: .cfa -4 + ^ r4: .cfa -8 + ^
STACK CFI INIT 44424 20 .cfa: sp 0 + .ra: lr
STACK CFI 4442c .cfa: sp 8 +
STACK CFI 4442e .ra: .cfa -4 + ^ r4: .cfa -8 + ^
STACK CFI INIT 44444 28 .cfa: sp 0 + .ra: lr
STACK CFI 4444c .cfa: sp 8 +
STACK CFI 4444e .ra: .cfa -4 + ^ r4: .cfa -8 + ^
STACK CFI INIT 4446c 5c .cfa: sp 0 + .ra: lr
STACK CFI 4446e .cfa: sp 16 +
STACK CFI 44470 .ra: .cfa -4 + ^ r3: .cfa -16 + ^ r4: .cfa -12 + ^ r5: .cfa -8 + ^
STACK CFI INIT 4f64c b48 .cfa: sp 0 + .ra: lr
STACK CFI 4f650 .cfa: sp 36 +
STACK CFI 4f654 .ra: .cfa -4 + ^ r10: .cfa -12 + ^ r11: .cfa -8 + ^ r4: .cfa -36 + ^ r5: .cfa -32 + ^ r6: .cfa -28 + ^ r7: .cfa -24 + ^ r8: .cfa -20 + ^ r9: .cfa -16 + ^
STACK CFI 4f660 .cfa: sp 88 +
STACK CFI INIT 50194 30 .cfa: sp 0 + .ra: lr
STACK CFI 50196 .cfa: sp 16 +
STACK CFI 5019a .ra: .cfa -4 + ^ r3: .cfa -16 + ^ r4: .cfa -12 + ^ r5: .cfa -8 + ^
STACK CFI INIT 501c4 44 .cfa: sp 0 + .ra: lr
STACK CFI 501c6 .cfa: sp 8 +
STACK CFI 501c8 .ra: .cfa -4 + ^ r4: .cfa -8 + ^
STACK CFI INIT 50208 2c .cfa: sp 0 + .ra: lr
STACK CFI 5020a .cfa: sp 16 + .ra: .cfa -4 + ^ r3: .cfa -16 + ^ r4: .cfa -12 + ^ r5: .cfa -8 + ^
STACK CFI INIT 50234 114 .cfa: sp 0 + .ra: lr
STACK CFI 50236 .cfa: sp 24 +
STACK CFI 50238 .ra: .cfa -4 + ^ r3: .cfa -24 + ^ r4: .cfa -20 + ^ r5: .cfa -16 + ^ r6: .cfa -12 + ^ r7: .cfa -8 + ^
STACK CFI INIT 50348 16c .cfa: sp 0 + .ra: lr
STACK CFI 5034c .cfa: sp 24 +
STACK CFI 5034e .cfa: sp 40 +
STACK CFI 50350 .ra: .cfa -4 + ^ r4: .cfa -24 + ^ r5: .cfa -20 + ^ r6: .cfa -16 + ^ r7: .cfa -12 + ^ r8: .cfa -8 + ^
STACK CFI INIT 504b4 7e .cfa: sp 0 + .ra: lr
STACK CFI 504ba .cfa: sp 8 +
STACK CFI 504bc r4: .cfa -8 + ^ r5: .cfa -4 + ^
STACK CFI INIT 50534 de .cfa: sp 0 + .ra: lr
STACK CFI 5053a .cfa: sp 16 +
STACK CFI 5053e r4: .cfa -16 + ^ r5: .cfa -12 + ^ r6: .cfa -8 + ^ r7: .cfa -4 + ^
STACK CFI INIT 50614 58 .cfa: sp 0 + .ra: lr
STACK CFI 5061c .cfa: sp 8 +
STACK CFI 5061e .ra: .cfa -4 + ^ r4: .cfa -8 + ^
STACK CFI INIT 5066c dc8 .cfa: sp 0 + .ra: lr
STACK CFI 50670 .cfa: sp 36 +
STACK CFI 50672 .ra: .cfa -4 + ^ r10: .cfa -12 + ^ r11: .cfa -8 + ^ r4: .cfa -36 + ^ r5: .cfa -32 + ^ r6: .cfa -28 + ^ r7: .cfa -24 + ^ r8: .cfa -20 + ^ r9: .cfa -16 + ^
STACK CFI 50674 .cfa: sp 80 +
STACK CFI INIT 51434 af6 .cfa: sp 0 + .ra: lr
STACK CFI 51438 .cfa: sp 36 +
STACK CFI 5143a .cfa: sp 80 +
STACK CFI 51444 .ra: .cfa -4 + ^ r10: .cfa -12 + ^ r11: .cfa -8 + ^ r4: .cfa -36 + ^ r5: .cfa -32 + ^ r6: .cfa -28 + ^ r7: .cfa -24 + ^ r8: .cfa -20 + ^ r9: .cfa -16 + ^
STACK CFI INIT 51f2c 71c .cfa: sp 0 + .ra: lr
STACK CFI 51f30 .cfa: sp 32 +
STACK CFI 51f32 .ra: .cfa -4 + ^ r10: .cfa -8 + ^ r4: .cfa -32 + ^ r5: .cfa -28 + ^ r6: .cfa -24 + ^ r7: .cfa -20 + ^ r8: .cfa -16 + ^ r9: .cfa -12 + ^
STACK CFI 51f38 .cfa: sp 40 +
STACK CFI INIT 52648 54 .cfa: sp 0 + .ra: lr
STACK CFI 5264c .cfa: sp 24 +
STACK CFI 5264e .ra: .cfa -4 + ^ r4: .cfa -24 + ^ r5: .cfa -20 + ^ r6: .cfa -16 + ^ r7: .cfa -12 + ^ r8: .cfa -8 + ^
STACK CFI INIT 5269c 10 .cfa: sp 0 + .ra: lr
STACK CFI 5269e .cfa: sp 16 +
STACK CFI 526a0 .ra: .cfa -4 + ^ r3: .cfa -16 + ^ r4: .cfa -12 + ^ r5: .cfa -8 + ^
STACK CFI INIT 526ac 38 .cfa: sp 0 + .ra: lr
STACK CFI 526ae .cfa: sp 16 +
STACK CFI 526b0 .ra: .cfa -4 + ^ r4: .cfa -16 + ^ r5: .cfa -12 + ^ r6: .cfa -8 + ^
STACK CFI 526b2 .cfa: sp 24 +
STACK CFI INIT 526e4 4 .cfa: sp 0 + .ra: lr
STACK CFI INIT 526e8 4 .cfa: sp 0 + .ra: lr
STACK CFI INIT 526ec 80 .cfa: sp 0 + .ra: lr
STACK CFI 526f0 .cfa: sp 16 +
STACK CFI 526f2 .ra: .cfa -4 + ^ r4: .cfa -16 + ^ r5: .cfa -12 + ^ r6: .cfa -8 + ^
STACK CFI 526fa .cfa: sp 24 +
STACK CFI INIT 4ca20 20 .cfa: sp 0 + .ra: lr
STACK CFI 4ca28 .cfa: sp 8 +
STACK CFI 4ca2a .ra: .cfa -4 + ^ r4: .cfa -8 + ^
STACK CFI INIT 4ca40 28 .cfa: sp 0 + .ra: lr
STACK CFI 4ca48 .cfa: sp 8 +
STACK CFI 4ca4a .ra: .cfa -4 + ^ r4: .cfa -8 + ^
STACK CFI INIT 4ca68 20 .cfa: sp 0 + .ra: lr
STACK CFI 4ca70 .cfa: sp 8 +
STACK CFI 4ca72 .ra: .cfa -4 + ^ r4: .cfa -8 + ^
STACK CFI INIT 4ca88 28 .cfa: sp 0 + .ra: lr
STACK CFI 4ca90 .cfa: sp 8 +
STACK CFI 4ca92 .ra: .cfa -4 + ^ r4: .cfa -8 + ^
STACK CFI INIT 4cab0 20 .cfa: sp 0 + .ra: lr
STACK CFI 4cab8 .cfa: sp 8 +
STACK CFI 4caba .ra: .cfa -4 + ^ r4: .cfa -8 + ^
STACK CFI INIT 4cad0 28 .cfa: sp 0 + .ra: lr
STACK CFI 4cad8 .cfa: sp 8 +
STACK CFI 4cada .ra: .cfa -4 + ^ r4: .cfa -8 + ^
STACK CFI INIT 5276c 12 .cfa: sp 0 + .ra: lr
STACK CFI 5276e .cfa: sp 8 +
STACK CFI 52770 .ra: .cfa -4 + ^ r4: .cfa -8 + ^
STACK CFI INIT 52780 80 .cfa: sp 0 + .ra: lr
STACK CFI 52784 .cfa: sp 16 +
STACK CFI 52786 .ra: .cfa -4 + ^ r4: .cfa -16 + ^ r5: .cfa -12 + ^ r6: .cfa -8 + ^
STACK CFI 5278e .cfa: sp 24 +
STACK CFI INIT 4caf8 20 .cfa: sp 0 + .ra: lr
STACK CFI 4cb00 .cfa: sp 8 +
STACK CFI 4cb02 .ra: .cfa -4 + ^ r4: .cfa -8 + ^
STACK CFI INIT 4cb18 28 .cfa: sp 0 + .ra: lr
STACK CFI 4cb20 .cfa: sp 8 +
STACK CFI 4cb22 .ra: .cfa -4 + ^ r4: .cfa -8 + ^
STACK CFI INIT 4cb40 20 .cfa: sp 0 + .ra: lr
STACK CFI 4cb48 .cfa: sp 8 +
STACK CFI 4cb4a .ra: .cfa -4 + ^ r4: .cfa -8 + ^
STACK CFI INIT 4cb60 28 .cfa: sp 0 + .ra: lr
STACK CFI 4cb68 .cfa: sp 8 +
STACK CFI 4cb6a .ra: .cfa -4 + ^ r4: .cfa -8 + ^
STACK CFI INIT 4cb88 20 .cfa: sp 0 + .ra: lr
STACK CFI 4cb90 .cfa: sp 8 +
STACK CFI 4cb92 .ra: .cfa -4 + ^ r4: .cfa -8 + ^
STACK CFI INIT 4cba8 28 .cfa: sp 0 + .ra: lr
STACK CFI 4cbb0 .cfa: sp 8 +
STACK CFI 4cbb2 .ra: .cfa -4 + ^ r4: .cfa -8 + ^
STACK CFI INIT 4cbd0 20 .cfa: sp 0 + .ra: lr
STACK CFI 4cbd8 .cfa: sp 8 +
STACK CFI 4cbda .ra: .cfa -4 + ^ r4: .cfa -8 + ^
STACK CFI INIT 4cbf0 28 .cfa: sp 0 + .ra: lr
STACK CFI 4cbf8 .cfa: sp 8 +
STACK CFI 4cbfa .ra: .cfa -4 + ^ r4: .cfa -8 + ^
STACK CFI INIT 52800 12 .cfa: sp 0 + .ra: lr
STACK CFI 52802 .cfa: sp 8 +
STACK CFI 52804 .ra: .cfa -4 + ^ r4: .cfa -8 + ^
STACK CFI INIT 52814 2c .cfa: sp 0 + .ra: lr
STACK CFI 5281c .cfa: sp 8 +
STACK CFI 5281e .ra: .cfa -4 + ^ r4: .cfa -8 + ^
STACK CFI INIT 52840 20 .cfa: sp 0 + .ra: lr
STACK CFI 52842 .cfa: sp 16 +
STACK CFI 52844 .ra: .cfa -4 + ^ r3: .cfa -16 + ^ r4: .cfa -12 + ^ r5: .cfa -8 + ^
STACK CFI INIT 52860 20 .cfa: sp 0 + .ra: lr
STACK CFI 52862 .cfa: sp 16 +
STACK CFI 52864 .ra: .cfa -4 + ^ r3: .cfa -16 + ^ r4: .cfa -12 + ^ r5: .cfa -8 + ^
STACK CFI INIT 52880 20 .cfa: sp 0 + .ra: lr
STACK CFI 52882 .cfa: sp 16 +
STACK CFI 52884 .ra: .cfa -4 + ^ r3: .cfa -16 + ^ r4: .cfa -12 + ^ r5: .cfa -8 + ^
STACK CFI INIT 528a0 20 .cfa: sp 0 + .ra: lr
STACK CFI 528a2 .cfa: sp 16 +
STACK CFI 528a4 .ra: .cfa -4 + ^ r3: .cfa -16 + ^ r4: .cfa -12 + ^ r5: .cfa -8 + ^
STACK CFI INIT 528c0 2c .cfa: sp 0 + .ra: lr
STACK CFI 528c8 .cfa: sp 8 +
STACK CFI 528ca .ra: .cfa -4 + ^ r4: .cfa -8 + ^
STACK CFI INIT 528ec 20 .cfa: sp 0 + .ra: lr
STACK CFI 528ee .cfa: sp 16 +
STACK CFI 528f0 .ra: .cfa -4 + ^ r3: .cfa -16 + ^ r4: .cfa -12 + ^ r5: .cfa -8 + ^
STACK CFI INIT 5290c 20 .cfa: sp 0 + .ra: lr
STACK CFI 5290e .cfa: sp 16 +
STACK CFI 52910 .ra: .cfa -4 + ^ r3: .cfa -16 + ^ r4: .cfa -12 + ^ r5: .cfa -8 + ^
STACK CFI INIT 5292c 20 .cfa: sp 0 + .ra: lr
STACK CFI 5292e .cfa: sp 16 +
STACK CFI 52930 .ra: .cfa -4 + ^ r3: .cfa -16 + ^ r4: .cfa -12 + ^ r5: .cfa -8 + ^
STACK CFI INIT 5294c 46 .cfa: sp 0 + .ra: lr
STACK CFI 52954 .cfa: sp 4 +
STACK CFI 52958 r4: .cfa -4 + ^
STACK CFI INIT 52994 24 .cfa: sp 0 + .ra: lr
STACK CFI INIT 529b8 2 .cfa: sp 0 + .ra: lr
STACK CFI INIT 529bc 13c .cfa: sp 0 + .ra: lr
STACK CFI 529c0 .cfa: sp 32 +
STACK CFI 529c2 r10: .cfa -8 + ^ r11: .cfa -4 + ^ r4: .cfa -32 + ^ r5: .cfa -28 + ^ r6: .cfa -24 + ^ r7: .cfa -20 + ^ r8: .cfa -16 + ^ r9: .cfa -12 + ^
STACK CFI INIT 52af8 2e .cfa: sp 0 + .ra: lr
STACK CFI 52afa .cfa: sp 8 +
STACK CFI 52afc .cfa: sp 24 +
STACK CFI 52afe .cfa: sp 32 +
STACK CFI 52b00 .ra: .cfa -12 + ^ r4: .cfa -24 + ^ r5: .cfa -20 + ^ r6: .cfa -16 + ^
STACK CFI INIT 52b28 14 .cfa: sp 0 + .ra: lr
STACK CFI INIT 52b3c e .cfa: sp 0 + .ra: lr
STACK CFI 52b3e .cfa: sp 8 +
STACK CFI 52b40 .ra: .cfa -4 + ^ r4: .cfa -8 + ^
STACK CFI INIT 52b4c e .cfa: sp 0 + .ra: lr
STACK CFI INIT 52b5c 16 .cfa: sp 0 + .ra: lr
STACK CFI 52b60 .cfa: sp 8 +
STACK CFI 52b62 .ra: .cfa -4 + ^ r4: .cfa -8 + ^
STACK CFI INIT 52b74 94 .cfa: sp 0 + .ra: lr
STACK CFI 52b78 .cfa: sp 32 +
STACK CFI 52b7a .ra: .cfa -4 + ^ r10: .cfa -8 + ^ r4: .cfa -32 + ^ r5: .cfa -28 + ^ r6: .cfa -24 + ^ r7: .cfa -20 + ^ r8: .cfa -16 + ^ r9: .cfa -12 + ^
STACK CFI INIT 52c08 a4 .cfa: sp 0 + .ra: lr
STACK CFI 52c0c .cfa: sp 32 +
STACK CFI 52c0e .ra: .cfa -4 + ^ r3: .cfa -32 + ^ r4: .cfa -28 + ^ r5: .cfa -24 + ^ r6: .cfa -20 + ^ r7: .cfa -16 + ^ r8: .cfa -12 + ^ r9: .cfa -8 + ^
STACK CFI INIT 52cac 1a .cfa: sp 0 + .ra: lr
STACK CFI 52cae .cfa: sp 8 +
STACK CFI 52cb0 .ra: .cfa -4 + ^ r4: .cfa -8 + ^
STACK CFI INIT 52cc8 60 .cfa: sp 0 + .ra: lr
STACK CFI 52cca .cfa: sp 16 +
STACK CFI 52ccc .ra: .cfa -4 + ^ r3: .cfa -16 + ^ r4: .cfa -12 + ^ r5: .cfa -8 + ^
STACK CFI INIT 52d28 ac .cfa: sp 0 + .ra: lr
STACK CFI 52d2c .cfa: sp 32 +
STACK CFI 52d2e .ra: .cfa -4 + ^ r10: .cfa -8 + ^ r4: .cfa -32 + ^ r5: .cfa -28 + ^ r6: .cfa -24 + ^ r7: .cfa -20 + ^ r8: .cfa -16 + ^ r9: .cfa -12 + ^
STACK CFI INIT 52ddc 12 .cfa: sp 0 + .ra: lr
STACK CFI 52dde .cfa: sp 8 +
STACK CFI 52de0 .ra: .cfa -4 + ^ r4: .cfa -8 + ^
STACK CFI INIT 52df8 80 .cfa: sp 0 + .ra: lr
STACK CFI 52dfa .cfa: sp 16 +
STACK CFI 52dfc .ra: .cfa -4 + ^ r4: .cfa -16 + ^ r5: .cfa -12 + ^ r6: .cfa -8 + ^
STACK CFI INIT 52e78 12 .cfa: sp 0 + .ra: lr
STACK CFI 52e7a .cfa: sp 8 +
STACK CFI 52e7c .ra: .cfa -4 + ^ r4: .cfa -8 + ^
STACK CFI INIT 52e8c 88 .cfa: sp 0 + .ra: lr
STACK CFI 52e8e .cfa: sp 16 +
STACK CFI 52e90 .ra: .cfa -4 + ^ r4: .cfa -16 + ^ r5: .cfa -12 + ^ r6: .cfa -8 + ^
STACK CFI INIT 52f14 12 .cfa: sp 0 + .ra: lr
STACK CFI 52f16 .cfa: sp 8 +
STACK CFI 52f18 .ra: .cfa -4 + ^ r4: .cfa -8 + ^
STACK CFI INIT 52f28 12 .cfa: sp 0 + .ra: lr
STACK CFI 52f2a .cfa: sp 8 +
STACK CFI 52f2c .ra: .cfa -4 + ^ r4: .cfa -8 + ^
STACK CFI INIT 52f3c b2 .cfa: sp 0 + .ra: lr
STACK CFI 52f44 .cfa: sp 24 +
STACK CFI 52f46 .ra: .cfa -4 + ^ r4: .cfa -24 + ^ r5: .cfa -20 + ^ r6: .cfa -16 + ^ r7: .cfa -12 + ^ r8: .cfa -8 + ^
STACK CFI INIT 52ff0 46 .cfa: sp 0 + .ra: lr
STACK CFI 52ff2 .cfa: sp 8 +
STACK CFI 52ff4 .ra: .cfa -4 + ^ r4: .cfa -8 + ^
STACK CFI 52ff6 .cfa: sp 16 +
STACK CFI INIT 53038 68 .cfa: sp 0 + .ra: lr
STACK CFI 5303c .cfa: sp 24 +
STACK CFI 5303e .ra: .cfa -4 + ^ r4: .cfa -24 + ^ r5: .cfa -20 + ^ r6: .cfa -16 + ^ r7: .cfa -12 + ^ r8: .cfa -8 + ^
STACK CFI INIT 530a0 68 .cfa: sp 0 + .ra: lr
STACK CFI 530a4 .cfa: sp 24 +
STACK CFI 530a6 .ra: .cfa -4 + ^ r4: .cfa -24 + ^ r5: .cfa -20 + ^ r6: .cfa -16 + ^ r7: .cfa -12 + ^ r8: .cfa -8 + ^
STACK CFI INIT 53108 68 .cfa: sp 0 + .ra: lr
STACK CFI 5310c .cfa: sp 24 +
STACK CFI 5310e .ra: .cfa -4 + ^ r4: .cfa -24 + ^ r5: .cfa -20 + ^ r6: .cfa -16 + ^ r7: .cfa -12 + ^ r8: .cfa -8 + ^
STACK CFI INIT 53170 70 .cfa: sp 0 + .ra: lr
STACK CFI 53174 .cfa: sp 32 +
STACK CFI 53176 .ra: .cfa -4 + ^ r3: .cfa -32 + ^ r4: .cfa -28 + ^ r5: .cfa -24 + ^ r6: .cfa -20 + ^ r7: .cfa -16 + ^ r8: .cfa -12 + ^ r9: .cfa -8 + ^
STACK CFI INIT 531e0 70 .cfa: sp 0 + .ra: lr
STACK CFI 531e4 .cfa: sp 32 +
STACK CFI 531e6 .ra: .cfa -4 + ^ r3: .cfa -32 + ^ r4: .cfa -28 + ^ r5: .cfa -24 + ^ r6: .cfa -20 + ^ r7: .cfa -16 + ^ r8: .cfa -12 + ^ r9: .cfa -8 + ^
STACK CFI INIT 53250 70 .cfa: sp 0 + .ra: lr
STACK CFI 53254 .cfa: sp 32 +
STACK CFI 53256 .ra: .cfa -4 + ^ r3: .cfa -32 + ^ r4: .cfa -28 + ^ r5: .cfa -24 + ^ r6: .cfa -20 + ^ r7: .cfa -16 + ^ r8: .cfa -12 + ^ r9: .cfa -8 + ^
STACK CFI INIT 532c0 7e .cfa: sp 0 + .ra: lr
STACK CFI 532c6 .cfa: sp 32 +
STACK CFI 532c8 .ra: .cfa -4 + ^ r10: .cfa -8 + ^ r4: .cfa -32 + ^ r5: .cfa -28 + ^ r6: .cfa -24 + ^ r7: .cfa -20 + ^ r8: .cfa -16 + ^ r9: .cfa -12 + ^
STACK CFI INIT 53340 c8 .cfa: sp 0 + .ra: lr
STACK CFI 53344 .cfa: sp 40 +
STACK CFI 53348 .ra: .cfa -4 + ^ r10: .cfa -12 + ^ r11: .cfa -8 + ^ r3: .cfa -40 + ^ r4: .cfa -36 + ^ r5: .cfa -32 + ^ r6: .cfa -28 + ^ r7: .cfa -24 + ^ r8: .cfa -20 + ^ r9: .cfa -16 + ^
STACK CFI INIT 53408 78 .cfa: sp 0 + .ra: lr
STACK CFI 5340c .cfa: sp 32 +
STACK CFI 5340e .ra: .cfa -4 + ^ r3: .cfa -32 + ^ r4: .cfa -28 + ^ r5: .cfa -24 + ^ r6: .cfa -20 + ^ r7: .cfa -16 + ^ r8: .cfa -12 + ^ r9: .cfa -8 + ^
STACK CFI INIT 53480 c4 .cfa: sp 0 + .ra: lr
STACK CFI 53484 .cfa: sp 40 +
STACK CFI 53488 .ra: .cfa -4 + ^ r10: .cfa -12 + ^ r11: .cfa -8 + ^ r3: .cfa -40 + ^ r4: .cfa -36 + ^ r5: .cfa -32 + ^ r6: .cfa -28 + ^ r7: .cfa -24 + ^ r8: .cfa -20 + ^ r9: .cfa -16 + ^
STACK CFI INIT 53544 84 .cfa: sp 0 + .ra: lr
STACK CFI 53548 .cfa: sp 40 +
STACK CFI 5354a .ra: .cfa -4 + ^ r10: .cfa -12 + ^ r11: .cfa -8 + ^ r3: .cfa -40 + ^ r4: .cfa -36 + ^ r5: .cfa -32 + ^ r6: .cfa -28 + ^ r7: .cfa -24 + ^ r8: .cfa -20 + ^ r9: .cfa -16 + ^
STACK CFI INIT 535c8 cc .cfa: sp 0 + .ra: lr
STACK CFI 535cc .cfa: sp 36 +
STACK CFI 535d0 .ra: .cfa -4 + ^ r10: .cfa -12 + ^ r11: .cfa -8 + ^ r4: .cfa -36 + ^ r5: .cfa -32 + ^ r6: .cfa -28 + ^ r7: .cfa -24 + ^ r8: .cfa -20 + ^ r9: .cfa -16 + ^
STACK CFI 535d4 .cfa: sp 48 +
STACK CFI INIT 53694 7e .cfa: sp 0 + .ra: lr
STACK CFI 53698 .cfa: sp 32 +
STACK CFI 5369a .ra: .cfa -4 + ^ r3: .cfa -32 + ^ r4: .cfa -28 + ^ r5: .cfa -24 + ^ r6: .cfa -20 + ^ r7: .cfa -16 + ^ r8: .cfa -12 + ^ r9: .cfa -8 + ^
STACK CFI INIT 53714 c8 .cfa: sp 0 + .ra: lr
STACK CFI 53718 .cfa: sp 36 +
STACK CFI 5371c .ra: .cfa -4 + ^ r10: .cfa -12 + ^ r11: .cfa -8 + ^ r4: .cfa -36 + ^ r5: .cfa -32 + ^ r6: .cfa -28 + ^ r7: .cfa -24 + ^ r8: .cfa -20 + ^ r9: .cfa -16 + ^
STACK CFI 53720 .cfa: sp 48 +
STACK CFI INIT 537dc 40 .cfa: sp 0 + .ra: lr
STACK CFI 537de .cfa: sp 16 +
STACK CFI 537e0 .ra: .cfa -4 + ^ r3: .cfa -16 + ^ r4: .cfa -12 + ^ r5: .cfa -8 + ^
STACK CFI INIT 5381c 4 .cfa: sp 0 + .ra: lr
STACK CFI INIT 53820 6 .cfa: sp 0 + .ra: lr
STACK CFI INIT 53828 60 .cfa: sp 0 + .ra: lr
STACK CFI 5382a .cfa: sp 24 +
STACK CFI 5382c .ra: .cfa -4 + ^ r3: .cfa -24 + ^ r4: .cfa -20 + ^ r5: .cfa -16 + ^ r6: .cfa -12 + ^ r7: .cfa -8 + ^
STACK CFI INIT 53888 b8 .cfa: sp 0 + .ra: lr
STACK CFI 5388c .cfa: sp 32 +
STACK CFI 53890 .ra: .cfa -4 + ^ r10: .cfa -8 + ^ r4: .cfa -32 + ^ r5: .cfa -28 + ^ r6: .cfa -24 + ^ r7: .cfa -20 + ^ r8: .cfa -16 + ^ r9: .cfa -12 + ^
STACK CFI INIT 53940 7a .cfa: sp 0 + .ra: lr
STACK CFI 53944 .cfa: sp 32 +
STACK CFI 53946 .ra: .cfa -4 + ^ r3: .cfa -32 + ^ r4: .cfa -28 + ^ r5: .cfa -24 + ^ r6: .cfa -20 + ^ r7: .cfa -16 + ^ r8: .cfa -12 + ^ r9: .cfa -8 + ^
STACK CFI INIT 539bc dc .cfa: sp 0 + .ra: lr
STACK CFI 539c0 .cfa: sp 36 +
STACK CFI 539c4 .ra: .cfa -4 + ^ r10: .cfa -12 + ^ r11: .cfa -8 + ^ r4: .cfa -36 + ^ r5: .cfa -32 + ^ r6: .cfa -28 + ^ r7: .cfa -24 + ^ r8: .cfa -20 + ^ r9: .cfa -16 + ^
STACK CFI 539c8 .cfa: sp 48 +
STACK CFI INIT 53a98 38 .cfa: sp 0 + .ra: lr
STACK CFI 53a9a .cfa: sp 16 +
STACK CFI 53a9c .ra: .cfa -4 + ^ r3: .cfa -16 + ^ r4: .cfa -12 + ^ r5: .cfa -8 + ^
STACK CFI INIT 53ad0 4 .cfa: sp 0 + .ra: lr
STACK CFI INIT 53ad4 6 .cfa: sp 0 + .ra: lr
STACK CFI INIT 53adc 6 .cfa: sp 0 + .ra: lr
STACK CFI INIT 53ae4 6 .cfa: sp 0 + .ra: lr
STACK CFI INIT 53aec b2 .cfa: sp 0 + .ra: lr
STACK CFI 53af0 .cfa: sp 32 +
STACK CFI 53af2 .ra: .cfa -4 + ^ r3: .cfa -32 + ^ r4: .cfa -28 + ^ r5: .cfa -24 + ^ r6: .cfa -20 + ^ r7: .cfa -16 + ^ r8: .cfa -12 + ^ r9: .cfa -8 + ^
STACK CFI INIT 53ba0 100 .cfa: sp 0 + .ra: lr
STACK CFI 53ba4 .cfa: sp 32 +
STACK CFI 53ba8 .ra: .cfa -4 + ^ r10: .cfa -8 + ^ r4: .cfa -32 + ^ r5: .cfa -28 + ^ r6: .cfa -24 + ^ r7: .cfa -20 + ^ r8: .cfa -16 + ^ r9: .cfa -12 + ^
STACK CFI INIT 53ca0 c8 .cfa: sp 0 + .ra: lr
STACK CFI 53ca4 .cfa: sp 32 +
STACK CFI 53ca6 .ra: .cfa -4 + ^ r10: .cfa -8 + ^ r4: .cfa -32 + ^ r5: .cfa -28 + ^ r6: .cfa -24 + ^ r7: .cfa -20 + ^ r8: .cfa -16 + ^ r9: .cfa -12 + ^
STACK CFI INIT 53d68 118 .cfa: sp 0 + .ra: lr
STACK CFI 53d6c .cfa: sp 36 +
STACK CFI 53d70 .ra: .cfa -4 + ^ r10: .cfa -12 + ^ r11: .cfa -8 + ^ r4: .cfa -36 + ^ r5: .cfa -32 + ^ r6: .cfa -28 + ^ r7: .cfa -24 + ^ r8: .cfa -20 + ^ r9: .cfa -16 + ^
STACK CFI 53d74 .cfa: sp 48 +
STACK CFI INIT 53e80 64 .cfa: sp 0 + .ra: lr
STACK CFI 53e84 .cfa: sp 32 +
STACK CFI 53e86 .ra: .cfa -4 + ^ r3: .cfa -32 + ^ r4: .cfa -28 + ^ r5: .cfa -24 + ^ r6: .cfa -20 + ^ r7: .cfa -16 + ^ r8: .cfa -12 + ^ r9: .cfa -8 + ^
STACK CFI INIT 53ee4 4 .cfa: sp 0 + .ra: lr
STACK CFI INIT 53ee8 6 .cfa: sp 0 + .ra: lr
STACK CFI INIT 53ef0 6 .cfa: sp 0 + .ra: lr
STACK CFI INIT 53ef8 6 .cfa: sp 0 + .ra: lr
STACK CFI INIT 53f00 c .cfa: sp 0 + .ra: lr
STACK CFI INIT 53f0c c .cfa: sp 0 + .ra: lr
STACK CFI INIT 53f18 c .cfa: sp 0 + .ra: lr
STACK CFI INIT 53f24 c .cfa: sp 0 + .ra: lr
STACK CFI INIT 53f30 c .cfa: sp 0 + .ra: lr
STACK CFI INIT 53f3c c .cfa: sp 0 + .ra: lr
STACK CFI INIT 53f48 18 .cfa: sp 0 + .ra: lr
STACK CFI INIT 53f60 c .cfa: sp 0 + .ra: lr
STACK CFI INIT 53f6c c .cfa: sp 0 + .ra: lr
STACK CFI INIT 53f78 6 .cfa: sp 0 + .ra: lr
STACK CFI INIT 53f80 34 .cfa: sp 0 + .ra: lr
STACK CFI 53f84 .cfa: sp 16 +
STACK CFI 53f86 .ra: .cfa -4 + ^ r4: .cfa -16 + ^ r5: .cfa -12 + ^ r6: .cfa -8 + ^
STACK CFI 53f8c .cfa: sp 24 +
STACK CFI INIT 53fb4 16 .cfa: sp 0 + .ra: lr
STACK CFI INIT 53fcc 18 .cfa: sp 0 + .ra: lr
STACK CFI INIT 53fe4 18 .cfa: sp 0 + .ra: lr
STACK CFI INIT 53ffc 20 .cfa: sp 0 + .ra: lr
STACK CFI 54004 .cfa: sp 8 +
STACK CFI 54006 .ra: .cfa -4 + ^ r4: .cfa -8 + ^
STACK CFI INIT 5401c 20 .cfa: sp 0 + .ra: lr
STACK CFI 54024 .cfa: sp 8 +
STACK CFI 54026 .ra: .cfa -4 + ^ r4: .cfa -8 + ^
STACK CFI INIT 5403c 20 .cfa: sp 0 + .ra: lr
STACK CFI 54044 .cfa: sp 8 +
STACK CFI 54046 .ra: .cfa -4 + ^ r4: .cfa -8 + ^
STACK CFI INIT 5405c 1c .cfa: sp 0 + .ra: lr
STACK CFI 5405e .cfa: sp 8 +
STACK CFI 54060 .ra: .cfa -4 + ^ r4: .cfa -8 + ^
STACK CFI 54062 .cfa: sp 16 +
STACK CFI INIT 54078 1c .cfa: sp 0 + .ra: lr
STACK CFI 5407a .cfa: sp 8 +
STACK CFI 5407c .ra: .cfa -4 + ^ r4: .cfa -8 + ^
STACK CFI 5407e .cfa: sp 16 +
STACK CFI INIT 54094 20 .cfa: sp 0 + .ra: lr
STACK CFI 5409c .cfa: sp 8 +
STACK CFI 5409e .ra: .cfa -4 + ^ r4: .cfa -8 + ^
STACK CFI INIT 540b4 12 .cfa: sp 0 + .ra: lr
STACK CFI 540b6 .cfa: sp 8 +
STACK CFI 540b8 .ra: .cfa -4 + ^ r4: .cfa -8 + ^
STACK CFI INIT 540c8 c .cfa: sp 0 + .ra: lr
STACK CFI INIT 540d4 c .cfa: sp 0 + .ra: lr
STACK CFI INIT 540e0 14 .cfa: sp 0 + .ra: lr
STACK CFI 540ea .cfa: sp 8 +
STACK CFI 540ec .ra: .cfa -4 + ^ r4: .cfa -8 + ^
STACK CFI INIT 540f4 60 .cfa: sp 0 + .ra: lr
STACK CFI 54102 .cfa: sp 8 +
STACK CFI 5410c .ra: .cfa -4 + ^ r4: .cfa -8 + ^
STACK CFI INIT 54154 2a .cfa: sp 0 + .ra: lr
STACK CFI INIT 54180 2a .cfa: sp 0 + .ra: lr
STACK CFI INIT 541ac 3a .cfa: sp 0 + .ra: lr
STACK CFI INIT 541e8 4 .cfa: sp 0 + .ra: lr
STACK CFI INIT 541ec 3c .cfa: sp 0 + .ra: lr
STACK CFI INIT 54228 4 .cfa: sp 0 + .ra: lr
STACK CFI INIT 5422c 4 .cfa: sp 0 + .ra: lr
STACK CFI INIT 54230 4 .cfa: sp 0 + .ra: lr
STACK CFI INIT 54234 cc .cfa: sp 0 + .ra: lr
STACK CFI 54238 .cfa: sp 32 +
STACK CFI 5423a .ra: .cfa -4 + ^ r10: .cfa -8 + ^ r4: .cfa -32 + ^ r5: .cfa -28 + ^ r6: .cfa -24 + ^ r7: .cfa -20 + ^ r8: .cfa -16 + ^ r9: .cfa -12 + ^
STACK CFI INIT 54300 1da .cfa: sp 0 + .ra: lr
STACK CFI 54306 .cfa: sp 32 +
STACK CFI 54308 .ra: .cfa -4 + ^ r10: .cfa -8 + ^ r4: .cfa -32 + ^ r5: .cfa -28 + ^ r6: .cfa -24 + ^ r7: .cfa -20 + ^ r8: .cfa -16 + ^ r9: .cfa -12 + ^
STACK CFI INIT 544dc 18 .cfa: sp 0 + .ra: lr
STACK CFI INIT 544f4 2 .cfa: sp 0 + .ra: lr
STACK CFI INIT 544f8 2 .cfa: sp 0 + .ra: lr
STACK CFI INIT 544fc 2 .cfa: sp 0 + .ra: lr
STACK CFI INIT 54500 2 .cfa: sp 0 + .ra: lr
STACK CFI INIT 54504 2 .cfa: sp 0 + .ra: lr
STACK CFI INIT 54508 2 .cfa: sp 0 + .ra: lr
STACK CFI INIT 5450c 2 .cfa: sp 0 + .ra: lr
STACK CFI INIT 54510 8 .cfa: sp 0 + .ra: lr
STACK CFI INIT 54518 8 .cfa: sp 0 + .ra: lr
STACK CFI INIT 54520 8 .cfa: sp 0 + .ra: lr
STACK CFI INIT 54528 8 .cfa: sp 0 + .ra: lr
STACK CFI INIT 54530 10 .cfa: sp 0 + .ra: lr
STACK CFI INIT 54540 10 .cfa: sp 0 + .ra: lr
STACK CFI INIT 54550 10 .cfa: sp 0 + .ra: lr
STACK CFI INIT 54560 10 .cfa: sp 0 + .ra: lr
STACK CFI INIT 54570 14 .cfa: sp 0 + .ra: lr
STACK CFI INIT 54584 14 .cfa: sp 0 + .ra: lr
STACK CFI INIT 54598 14 .cfa: sp 0 + .ra: lr
STACK CFI INIT 545ac 14 .cfa: sp 0 + .ra: lr
STACK CFI INIT 545c0 2 .cfa: sp 0 + .ra: lr
STACK CFI INIT 545c4 2 .cfa: sp 0 + .ra: lr
STACK CFI INIT 545c8 2 .cfa: sp 0 + .ra: lr
STACK CFI INIT 545cc 2 .cfa: sp 0 + .ra: lr
STACK CFI INIT 545d0 2 .cfa: sp 0 + .ra: lr
STACK CFI INIT 545d4 8 .cfa: sp 0 + .ra: lr
STACK CFI INIT 545dc 2 .cfa: sp 0 + .ra: lr
STACK CFI INIT 545e0 8 .cfa: sp 0 + .ra: lr
STACK CFI INIT 545e8 8 .cfa: sp 0 + .ra: lr
STACK CFI INIT 545f0 8 .cfa: sp 0 + .ra: lr
STACK CFI INIT 545f8 8 .cfa: sp 0 + .ra: lr
STACK CFI INIT 54600 8 .cfa: sp 0 + .ra: lr
STACK CFI INIT 54608 8 .cfa: sp 0 + .ra: lr
STACK CFI INIT 54610 8 .cfa: sp 0 + .ra: lr
STACK CFI INIT 54618 2 .cfa: sp 0 + .ra: lr
STACK CFI INIT 5461c 2 .cfa: sp 0 + .ra: lr
STACK CFI INIT 54620 2 .cfa: sp 0 + .ra: lr
STACK CFI INIT 54624 2 .cfa: sp 0 + .ra: lr
STACK CFI INIT 54628 2 .cfa: sp 0 + .ra: lr
STACK CFI INIT 5462c 2 .cfa: sp 0 + .ra: lr
STACK CFI INIT 54630 2 .cfa: sp 0 + .ra: lr
STACK CFI INIT 54634 2 .cfa: sp 0 + .ra: lr
STACK CFI INIT 54638 2 .cfa: sp 0 + .ra: lr
STACK CFI INIT 5463c 2 .cfa: sp 0 + .ra: lr
STACK CFI INIT 54640 2 .cfa: sp 0 + .ra: lr
STACK CFI INIT 54644 2 .cfa: sp 0 + .ra: lr
STACK CFI INIT 54648 2 .cfa: sp 0 + .ra: lr
STACK CFI INIT 5464c 2 .cfa: sp 0 + .ra: lr
STACK CFI INIT 54650 2 .cfa: sp 0 + .ra: lr
STACK CFI INIT 54654 2 .cfa: sp 0 + .ra: lr
STACK CFI INIT 54658 8 .cfa: sp 0 + .ra: lr
STACK CFI INIT 54660 2 .cfa: sp 0 + .ra: lr
STACK CFI INIT 54664 8 .cfa: sp 0 + .ra: lr
STACK CFI INIT 5466c 2 .cfa: sp 0 + .ra: lr
STACK CFI INIT 54670 8 .cfa: sp 0 + .ra: lr
STACK CFI INIT 54678 2 .cfa: sp 0 + .ra: lr
STACK CFI INIT 5467c 8 .cfa: sp 0 + .ra: lr
STACK CFI INIT 54684 2 .cfa: sp 0 + .ra: lr
STACK CFI INIT 54688 2 .cfa: sp 0 + .ra: lr
STACK CFI INIT 5468c 2 .cfa: sp 0 + .ra: lr
STACK CFI INIT 54690 2 .cfa: sp 0 + .ra: lr
STACK CFI INIT 54694 2 .cfa: sp 0 + .ra: lr
STACK CFI INIT 54698 2 .cfa: sp 0 + .ra: lr
STACK CFI INIT 5469c 2 .cfa: sp 0 + .ra: lr
STACK CFI INIT 546a0 2 .cfa: sp 0 + .ra: lr
STACK CFI INIT 546a4 2 .cfa: sp 0 + .ra: lr
STACK CFI INIT 546a8 2 .cfa: sp 0 + .ra: lr
STACK CFI INIT 546ac 2 .cfa: sp 0 + .ra: lr
STACK CFI INIT 546b0 2 .cfa: sp 0 + .ra: lr
STACK CFI INIT 546b4 2 .cfa: sp 0 + .ra: lr
STACK CFI INIT 546b8 30 .cfa: sp 0 + .ra: lr
STACK CFI 546bc .cfa: sp 8 +
STACK CFI 546be .ra: .cfa -4 + ^ r4: .cfa -8 + ^
STACK CFI INIT 546e8 34 .cfa: sp 0 + .ra: lr
STACK CFI 546ec .cfa: sp 8 +
STACK CFI 546ee .ra: .cfa -4 + ^ r4: .cfa -8 + ^
STACK CFI INIT 5471c 2 .cfa: sp 0 + .ra: lr
STACK CFI INIT 54720 62 .cfa: sp 0 + .ra: lr
STACK CFI 54722 .cfa: sp 8 +
STACK CFI 54724 .ra: .cfa -4 + ^ r4: .cfa -8 + ^
STACK CFI 54726 .cfa: sp 16 +
STACK CFI INIT 54784 62 .cfa: sp 0 + .ra: lr
STACK CFI 54786 .cfa: sp 8 +
STACK CFI 54788 .ra: .cfa -4 + ^ r4: .cfa -8 + ^
STACK CFI 5478a .cfa: sp 16 +
STACK CFI INIT 547e8 62 .cfa: sp 0 + .ra: lr
STACK CFI 547ea .cfa: sp 8 +
STACK CFI 547ec .ra: .cfa -4 + ^ r4: .cfa -8 + ^
STACK CFI 547ee .cfa: sp 16 +
STACK CFI INIT 5484c 62 .cfa: sp 0 + .ra: lr
STACK CFI 5484e .cfa: sp 8 +
STACK CFI 54850 .ra: .cfa -4 + ^ r4: .cfa -8 + ^
STACK CFI 54852 .cfa: sp 16 +
STACK CFI INIT 548b0 20 .cfa: sp 0 + .ra: lr
STACK CFI 548b4 .cfa: sp 4 +
STACK CFI 548b6 .cfa: sp 16 +
STACK CFI 548c8 .ra: .cfa -4 + ^
STACK CFI INIT 548d0 28 .cfa: sp 0 + .ra: lr
STACK CFI 548d2 .cfa: sp 12 +
STACK CFI 548d4 .cfa: sp 24 +
STACK CFI 548de .ra: .cfa -4 + ^ r4: .cfa -12 + ^ r5: .cfa -8 + ^
STACK CFI INIT 548f8 20 .cfa: sp 0 + .ra: lr
STACK CFI 548fc .cfa: sp 4 +
STACK CFI 548fe .cfa: sp 16 +
STACK CFI 54910 .ra: .cfa -4 + ^
STACK CFI INIT 54918 20 .cfa: sp 0 + .ra: lr
STACK CFI 5491c .cfa: sp 4 +
STACK CFI 5491e .cfa: sp 16 +
STACK CFI 54930 .ra: .cfa -4 + ^
STACK CFI INIT 54938 20 .cfa: sp 0 + .ra: lr
STACK CFI 5493c .cfa: sp 4 +
STACK CFI 5493e .cfa: sp 16 +
STACK CFI 54950 .ra: .cfa -4 + ^
STACK CFI INIT 54958 20 .cfa: sp 0 + .ra: lr
STACK CFI 5495c .cfa: sp 4 +
STACK CFI 5495e .cfa: sp 16 +
STACK CFI 54970 .ra: .cfa -4 + ^
STACK CFI INIT 54978 20 .cfa: sp 0 + .ra: lr
STACK CFI 5497e .cfa: sp 4 +
STACK CFI 54980 .cfa: sp 16 +
STACK CFI 54990 .ra: .cfa -4 + ^
STACK CFI INIT 54998 20 .cfa: sp 0 + .ra: lr
STACK CFI 5499e .cfa: sp 4 +
STACK CFI 549a0 .cfa: sp 16 +
STACK CFI 549b0 .ra: .cfa -4 + ^
STACK CFI INIT 549b8 24 .cfa: sp 0 + .ra: lr
STACK CFI 549be .cfa: sp 4 +
STACK CFI 549c0 .cfa: sp 16 +
STACK CFI 549c6 .ra: .cfa -4 + ^
STACK CFI INIT 549dc 24 .cfa: sp 0 + .ra: lr
STACK CFI 549e2 .cfa: sp 4 +
STACK CFI 549e4 .cfa: sp 16 +
STACK CFI 549f8 .ra: .cfa -4 + ^
STACK CFI INIT 54a00 62 .cfa: sp 0 + .ra: lr
STACK CFI 54a02 .cfa: sp 8 +
STACK CFI 54a04 .ra: .cfa -4 + ^ r4: .cfa -8 + ^
STACK CFI 54a06 .cfa: sp 16 +
STACK CFI INIT 54a64 62 .cfa: sp 0 + .ra: lr
STACK CFI 54a66 .cfa: sp 8 +
STACK CFI 54a68 .ra: .cfa -4 + ^ r4: .cfa -8 + ^
STACK CFI 54a6a .cfa: sp 16 +
STACK CFI INIT 54ac8 62 .cfa: sp 0 + .ra: lr
STACK CFI 54aca .cfa: sp 8 +
STACK CFI 54acc .ra: .cfa -4 + ^ r4: .cfa -8 + ^
STACK CFI 54ace .cfa: sp 16 +
STACK CFI INIT 54b2c 62 .cfa: sp 0 + .ra: lr
STACK CFI 54b2e .cfa: sp 8 +
STACK CFI 54b30 .ra: .cfa -4 + ^ r4: .cfa -8 + ^
STACK CFI 54b32 .cfa: sp 16 +
STACK CFI INIT 54b90 20 .cfa: sp 0 + .ra: lr
STACK CFI 54b96 .cfa: sp 4 +
STACK CFI 54b98 .cfa: sp 16 +
STACK CFI 54ba8 .ra: .cfa -4 + ^
STACK CFI INIT 54bb0 20 .cfa: sp 0 + .ra: lr
STACK CFI 54bb6 .cfa: sp 4 +
STACK CFI 54bb8 .cfa: sp 16 +
STACK CFI 54bc8 .ra: .cfa -4 + ^
STACK CFI INIT 54bd0 24 .cfa: sp 0 + .ra: lr
STACK CFI 54bd6 .cfa: sp 4 +
STACK CFI 54bd8 .cfa: sp 16 +
STACK CFI 54bde .ra: .cfa -4 + ^
STACK CFI INIT 54bf4 24 .cfa: sp 0 + .ra: lr
STACK CFI 54bfa .cfa: sp 4 +
STACK CFI 54bfc .cfa: sp 16 +
STACK CFI 54c10 .ra: .cfa -4 + ^
STACK CFI INIT 54c18 2 .cfa: sp 0 + .ra: lr
STACK CFI INIT 54c1c 2 .cfa: sp 0 + .ra: lr
STACK CFI INIT 54c20 2 .cfa: sp 0 + .ra: lr
STACK CFI INIT 54c24 2 .cfa: sp 0 + .ra: lr
STACK CFI INIT 54c28 2 .cfa: sp 0 + .ra: lr
STACK CFI INIT 54c2c 2 .cfa: sp 0 + .ra: lr
STACK CFI INIT 54c30 2 .cfa: sp 0 + .ra: lr
STACK CFI INIT 54c34 2 .cfa: sp 0 + .ra: lr
STACK CFI INIT 54c38 2 .cfa: sp 0 + .ra: lr
STACK CFI INIT 54c3c 2 .cfa: sp 0 + .ra: lr
STACK CFI INIT 54c40 2 .cfa: sp 0 + .ra: lr
STACK CFI INIT 54c44 2 .cfa: sp 0 + .ra: lr
STACK CFI INIT 54c48 2 .cfa: sp 0 + .ra: lr
STACK CFI INIT 54c4c 2 .cfa: sp 0 + .ra: lr
STACK CFI INIT 54c50 2 .cfa: sp 0 + .ra: lr
STACK CFI INIT 54c54 2 .cfa: sp 0 + .ra: lr
STACK CFI INIT 54c58 2 .cfa: sp 0 + .ra: lr
STACK CFI INIT 54c5c 2 .cfa: sp 0 + .ra: lr
STACK CFI INIT 54c60 2 .cfa: sp 0 + .ra: lr
STACK CFI INIT 54c64 2 .cfa: sp 0 + .ra: lr
STACK CFI INIT 54c68 2 .cfa: sp 0 + .ra: lr
STACK CFI INIT 54c6c b4 .cfa: sp 0 + .ra: lr
STACK CFI 54c70 .cfa: sp 20 +
STACK CFI 54c76 .cfa: sp 48 +
STACK CFI 54c78 .ra: .cfa -4 + ^ r4: .cfa -20 + ^ r5: .cfa -16 + ^ r6: .cfa -12 + ^ r7: .cfa -8 + ^
STACK CFI INIT 54d20 26 .cfa: sp 0 + .ra: lr
STACK CFI 54d26 .cfa: sp 8 +
STACK CFI 54d2a .ra: .cfa -4 + ^ r3: .cfa -8 + ^
STACK CFI INIT 54d48 b2 .cfa: sp 0 + .ra: lr
STACK CFI 54d4c .cfa: sp 20 +
STACK CFI 54d52 .cfa: sp 48 +
STACK CFI 54d54 .ra: .cfa -4 + ^ r4: .cfa -20 + ^ r5: .cfa -16 + ^ r6: .cfa -12 + ^ r7: .cfa -8 + ^
STACK CFI INIT 54dfc 26 .cfa: sp 0 + .ra: lr
STACK CFI 54e02 .cfa: sp 8 +
STACK CFI 54e06 .ra: .cfa -4 + ^ r3: .cfa -8 + ^
STACK CFI INIT 54e24 46 .cfa: sp 0 + .ra: lr
STACK CFI 54e26 .cfa: sp 16 +
STACK CFI 54e28 .ra: .cfa -4 + ^ r4: .cfa -16 + ^ r5: .cfa -12 + ^ r6: .cfa -8 + ^
STACK CFI INIT 54e6c 46 .cfa: sp 0 + .ra: lr
STACK CFI 54e6e .cfa: sp 16 +
STACK CFI 54e70 .ra: .cfa -4 + ^ r4: .cfa -16 + ^ r5: .cfa -12 + ^ r6: .cfa -8 + ^
STACK CFI INIT 54eb4 58 .cfa: sp 0 + .ra: lr
STACK CFI 54eb8 .cfa: sp 16 +
STACK CFI 54ebe .ra: .cfa -4 + ^ r4: .cfa -16 + ^ r5: .cfa -12 + ^ r6: .cfa -8 + ^
STACK CFI INIT 54f0c 5a .cfa: sp 0 + .ra: lr
STACK CFI 54f10 .cfa: sp 16 +
STACK CFI 54f16 .ra: .cfa -4 + ^ r4: .cfa -16 + ^ r5: .cfa -12 + ^ r6: .cfa -8 + ^
STACK CFI INIT 54f68 1a4 .cfa: sp 0 + .ra: lr
STACK CFI 54f6c .cfa: sp 32 +
STACK CFI 54f6e .ra: .cfa -4 + ^ r3: .cfa -32 + ^ r4: .cfa -28 + ^ r5: .cfa -24 + ^ r6: .cfa -20 + ^ r7: .cfa -16 + ^ r8: .cfa -12 + ^ r9: .cfa -8 + ^
STACK CFI INIT 5510c 198 .cfa: sp 0 + .ra: lr
STACK CFI 55110 .cfa: sp 24 +
STACK CFI 55112 .ra: .cfa -4 + ^ r4: .cfa -24 + ^ r5: .cfa -20 + ^ r6: .cfa -16 + ^ r7: .cfa -12 + ^ r8: .cfa -8 + ^
STACK CFI INIT 552a4 b8 .cfa: sp 0 + .ra: lr
STACK CFI 552a6 .cfa: sp 20 +
STACK CFI 552a8 .ra: .cfa -4 + ^ r4: .cfa -20 + ^ r5: .cfa -16 + ^ r6: .cfa -12 + ^ r7: .cfa -8 + ^
STACK CFI 552ac .cfa: sp 32 +
STACK CFI INIT 5535c be .cfa: sp 0 + .ra: lr
STACK CFI 5535e .cfa: sp 20 +
STACK CFI 55360 .ra: .cfa -4 + ^ r4: .cfa -20 + ^ r5: .cfa -16 + ^ r6: .cfa -12 + ^ r7: .cfa -8 + ^
STACK CFI 55364 .cfa: sp 32 +
STACK CFI INIT 5541c 2dc .cfa: sp 0 + .ra: lr
STACK CFI 55422 .cfa: sp 28 +
STACK CFI 55428 .cfa: sp 56 +
STACK CFI 5542a .ra: .cfa -4 + ^ r4: .cfa -28 + ^ r5: .cfa -24 + ^ r6: .cfa -20 + ^ r7: .cfa -16 + ^ r8: .cfa -12 + ^ r9: .cfa -8 + ^
STACK CFI INIT 556f8 2f0 .cfa: sp 0 + .ra: lr
STACK CFI 556fe .cfa: sp 32 +
STACK CFI 55704 .cfa: sp 56 +
STACK CFI 55706 .ra: .cfa -4 + ^ r10: .cfa -8 + ^ r4: .cfa -32 + ^ r5: .cfa -28 + ^ r6: .cfa -24 + ^ r7: .cfa -20 + ^ r8: .cfa -16 + ^ r9: .cfa -12 + ^
STACK CFI INIT 559e8 28 .cfa: sp 0 + .ra: lr
STACK CFI 559ee .cfa: sp 4 +
STACK CFI 559f0 r4: .cfa -4 + ^
STACK CFI INIT 55a10 2c .cfa: sp 0 + .ra: lr
STACK CFI 55a16 .cfa: sp 8 +
STACK CFI 55a18 r4: .cfa -8 + ^ r5: .cfa -4 + ^
STACK CFI INIT 55a3c d8 .cfa: sp 0 + .ra: lr
STACK CFI 55a40 .cfa: sp 24 +
STACK CFI 55a42 .ra: .cfa -4 + ^ r4: .cfa -24 + ^ r5: .cfa -20 + ^ r6: .cfa -16 + ^ r7: .cfa -12 + ^ r8: .cfa -8 + ^
STACK CFI 55a48 .cfa: sp 32 +
STACK CFI INIT 55b14 6 .cfa: sp 0 + .ra: lr
STACK CFI INIT 55b1c 20 .cfa: sp 0 + .ra: lr
STACK CFI 55b22 .cfa: sp 8 +
STACK CFI 55b24 .ra: .cfa -4 + ^ r4: .cfa -8 + ^
STACK CFI INIT 55b3c 32 .cfa: sp 0 + .ra: lr
STACK CFI 55b42 .cfa: sp 8 +
STACK CFI 55b44 .ra: .cfa -4 + ^ r4: .cfa -8 + ^
STACK CFI INIT 55b70 11c .cfa: sp 0 + .ra: lr
STACK CFI 55b74 .cfa: sp 36 +
STACK CFI 55b76 .cfa: sp 72 +
STACK CFI 55b78 .ra: .cfa -4 + ^ r10: .cfa -12 + ^ r11: .cfa -8 + ^ r4: .cfa -36 + ^ r5: .cfa -32 + ^ r6: .cfa -28 + ^ r7: .cfa -24 + ^ r8: .cfa -20 + ^ r9: .cfa -16 + ^
STACK CFI 55b7a .cfa: r7 56 +
STACK CFI INIT 55c8c d4 .cfa: sp 0 + .ra: lr
STACK CFI 55c90 .cfa: sp 12 +
STACK CFI 55c96 .cfa: sp 24 +
STACK CFI 55c98 .ra: .cfa -4 + ^ r4: .cfa -12 + ^ r5: .cfa -8 + ^
STACK CFI INIT 55d60 e6 .cfa: sp 0 + .ra: lr
STACK CFI 55d68 .cfa: sp 36 +
STACK CFI 55d6c .cfa: sp 192 +
STACK CFI 55d6e .ra: .cfa -4 + ^ r10: .cfa -12 + ^ r11: .cfa -8 + ^ r4: .cfa -36 + ^ r5: .cfa -32 + ^ r6: .cfa -28 + ^ r7: .cfa -24 + ^ r8: .cfa -20 + ^ r9: .cfa -16 + ^
STACK CFI INIT 55e48 13c .cfa: sp 0 + .ra: lr
STACK CFI 55e4c .cfa: sp 24 +
STACK CFI 55e4e .ra: .cfa -4 + ^ r4: .cfa -24 + ^ r5: .cfa -20 + ^ r6: .cfa -16 + ^ r7: .cfa -12 + ^ r8: .cfa -8 + ^
STACK CFI 55e50 .cfa: sp 48 +
STACK CFI INIT 55f84 ae .cfa: sp 0 + .ra: lr
STACK CFI 55f88 .cfa: sp 32 +
STACK CFI 55f8a .ra: .cfa -4 + ^ r10: .cfa -12 + ^ r11: .cfa -8 + ^ r4: .cfa -32 + ^ r5: .cfa -28 + ^ r6: .cfa -24 + ^ r7: .cfa -20 + ^ r8: .cfa -16 + ^
STACK CFI 55f9a .cfa: sp 64 +
STACK CFI INIT 56034 8c .cfa: sp 0 + .ra: lr
STACK CFI 56036 .cfa: sp 8 +
STACK CFI 56038 .cfa: sp 28 +
STACK CFI 5603a .ra: .cfa -12 + ^ r4: .cfa -28 + ^ r5: .cfa -24 + ^ r6: .cfa -20 + ^ r7: .cfa -16 + ^
STACK CFI 5603c .cfa: sp 64 +
STACK CFI INIT 560c0 13e .cfa: sp 0 + .ra: lr
STACK CFI 560c4 .cfa: sp 36 +
STACK CFI 560c6 .ra: .cfa -4 + ^ r10: .cfa -12 + ^ r11: .cfa -8 + ^ r4: .cfa -36 + ^ r5: .cfa -32 + ^ r6: .cfa -28 + ^ r7: .cfa -24 + ^ r8: .cfa -20 + ^ r9: .cfa -16 + ^
STACK CFI 560c8 .cfa: sp 64 +
STACK CFI INIT 56200 cc .cfa: sp 0 + .ra: lr
STACK CFI 56202 .cfa: sp 24 +
STACK CFI 56206 .ra: .cfa -4 + ^ r3: .cfa -24 + ^ r4: .cfa -20 + ^ r5: .cfa -16 + ^ r6: .cfa -12 + ^ r7: .cfa -8 + ^
STACK CFI INIT 562cc a4 .cfa: sp 0 + .ra: lr
STACK CFI 562d0 .cfa: sp 24 +
STACK CFI 562d4 .ra: .cfa -4 + ^ r4: .cfa -24 + ^ r5: .cfa -20 + ^ r6: .cfa -16 + ^ r7: .cfa -12 + ^ r8: .cfa -8 + ^
STACK CFI 562d6 .cfa: sp 48 +
STACK CFI INIT 56370 6 .cfa: sp 0 + .ra: lr
STACK CFI INIT 56378 60 .cfa: sp 0 + .ra: lr
STACK CFI 5637a .cfa: sp 16 +
STACK CFI 5637c .ra: .cfa -4 + ^ r3: .cfa -16 + ^ r4: .cfa -12 + ^ r5: .cfa -8 + ^
STACK CFI INIT 563d8 68 .cfa: sp 0 + .ra: lr
STACK CFI 563da .cfa: sp 16 +
STACK CFI 563dc .ra: .cfa -4 + ^ r3: .cfa -16 + ^ r4: .cfa -12 + ^ r5: .cfa -8 + ^
STACK CFI INIT 56440 100 .cfa: sp 0 + .ra: lr
STACK CFI 56444 .cfa: sp 32 +
STACK CFI 56446 .ra: .cfa -4 + ^ r10: .cfa -8 + ^ r4: .cfa -32 + ^ r5: .cfa -28 + ^ r6: .cfa -24 + ^ r7: .cfa -20 + ^ r8: .cfa -16 + ^ r9: .cfa -12 + ^
STACK CFI INIT 56554 d4 .cfa: sp 0 + .ra: lr
STACK CFI 56556 .cfa: sp 24 +
STACK CFI 56558 .ra: .cfa -4 + ^ r3: .cfa -24 + ^ r4: .cfa -20 + ^ r5: .cfa -16 + ^ r6: .cfa -12 + ^ r7: .cfa -8 + ^
STACK CFI INIT 56634 dc .cfa: sp 0 + .ra: lr
STACK CFI 56636 .cfa: sp 24 +
STACK CFI 56638 .ra: .cfa -4 + ^ r3: .cfa -24 + ^ r4: .cfa -20 + ^ r5: .cfa -16 + ^ r6: .cfa -12 + ^ r7: .cfa -8 + ^
STACK CFI INIT 5671c 108 .cfa: sp 0 + .ra: lr
STACK CFI 56720 .cfa: sp 32 +
STACK CFI 56722 .ra: .cfa -4 + ^ r10: .cfa -8 + ^ r4: .cfa -32 + ^ r5: .cfa -28 + ^ r6: .cfa -24 + ^ r7: .cfa -20 + ^ r8: .cfa -16 + ^ r9: .cfa -12 + ^
STACK CFI INIT 56838 d8 .cfa: sp 0 + .ra: lr
STACK CFI 5683a .cfa: sp 24 +
STACK CFI 5683c .ra: .cfa -4 + ^ r3: .cfa -24 + ^ r4: .cfa -20 + ^ r5: .cfa -16 + ^ r6: .cfa -12 + ^ r7: .cfa -8 + ^
STACK CFI INIT 5691c e4 .cfa: sp 0 + .ra: lr
STACK CFI 5691e .cfa: sp 24 +
STACK CFI 56920 .ra: .cfa -4 + ^ r3: .cfa -24 + ^ r4: .cfa -20 + ^ r5: .cfa -16 + ^ r6: .cfa -12 + ^ r7: .cfa -8 + ^
STACK CFI INIT 56a0c 48 .cfa: sp 0 + .ra: lr
STACK CFI 56a10 .cfa: sp 4 +
STACK CFI 56a1a r4: .cfa -4 + ^
STACK CFI INIT 56a54 6c .cfa: sp 0 + .ra: lr
STACK CFI 56a56 .cfa: sp 24 +
STACK CFI 56a58 .ra: .cfa -4 + ^ r3: .cfa -24 + ^ r4: .cfa -20 + ^ r5: .cfa -16 + ^ r6: .cfa -12 + ^ r7: .cfa -8 + ^
STACK CFI INIT 56ac0 c4 .cfa: sp 0 + .ra: lr
STACK CFI 56ac4 .cfa: sp 32 +
STACK CFI 56ac8 .ra: .cfa -4 + ^ r10: .cfa -8 + ^ r4: .cfa -32 + ^ r5: .cfa -28 + ^ r6: .cfa -24 + ^ r7: .cfa -20 + ^ r8: .cfa -16 + ^ r9: .cfa -12 + ^
STACK CFI INIT 56b84 b2 .cfa: sp 0 + .ra: lr
STACK CFI 56b88 .cfa: sp 32 +
STACK CFI 56b8a .ra: .cfa -4 + ^ r3: .cfa -32 + ^ r4: .cfa -28 + ^ r5: .cfa -24 + ^ r6: .cfa -20 + ^ r7: .cfa -16 + ^ r8: .cfa -12 + ^ r9: .cfa -8 + ^
STACK CFI INIT 56c38 104 .cfa: sp 0 + .ra: lr
STACK CFI 56c3c .cfa: sp 40 +
STACK CFI 56c40 .ra: .cfa -4 + ^ r10: .cfa -12 + ^ r11: .cfa -8 + ^ r3: .cfa -40 + ^ r4: .cfa -36 + ^ r5: .cfa -32 + ^ r6: .cfa -28 + ^ r7: .cfa -24 + ^ r8: .cfa -20 + ^ r9: .cfa -16 + ^
STACK CFI INIT 56d3c b4 .cfa: sp 0 + .ra: lr
STACK CFI 56d40 .cfa: sp 32 +
STACK CFI 56d42 .ra: .cfa -4 + ^ r3: .cfa -32 + ^ r4: .cfa -28 + ^ r5: .cfa -24 + ^ r6: .cfa -20 + ^ r7: .cfa -16 + ^ r8: .cfa -12 + ^ r9: .cfa -8 + ^
STACK CFI INIT 56df0 104 .cfa: sp 0 + .ra: lr
STACK CFI 56df4 .cfa: sp 40 +
STACK CFI 56df8 .ra: .cfa -4 + ^ r10: .cfa -12 + ^ r11: .cfa -8 + ^ r3: .cfa -40 + ^ r4: .cfa -36 + ^ r5: .cfa -32 + ^ r6: .cfa -28 + ^ r7: .cfa -24 + ^ r8: .cfa -20 + ^ r9: .cfa -16 + ^
STACK CFI INIT 56ef4 98 .cfa: sp 0 + .ra: lr
STACK CFI 56ef6 .cfa: sp 24 +
STACK CFI 56ef8 .ra: .cfa -4 + ^ r3: .cfa -24 + ^ r4: .cfa -20 + ^ r5: .cfa -16 + ^ r6: .cfa -12 + ^ r7: .cfa -8 + ^
STACK CFI INIT 56f8c 4 .cfa: sp 0 + .ra: lr
STACK CFI INIT 56f90 6 .cfa: sp 0 + .ra: lr
STACK CFI INIT 0 6 .cfa: sp 0 + .ra: lr
STACK CFI INIT 56f98 3a .cfa: sp 0 + .ra: lr
STACK CFI 56f9a .cfa: sp 8 +
STACK CFI 56fa0 .ra: .cfa -4 + ^ r4: .cfa -8 + ^
STACK CFI INIT 56fd4 3c .cfa: sp 0 + .ra: lr
STACK CFI 56fd6 .cfa: sp 8 +
STACK CFI 56fdc .ra: .cfa -4 + ^ r4: .cfa -8 + ^
STACK CFI INIT 57010 26 .cfa: sp 0 + .ra: lr
STACK CFI 57012 .cfa: sp 8 +
STACK CFI 57014 .ra: .cfa -4 + ^ r4: .cfa -8 + ^
STACK CFI INIT 57038 5a .cfa: sp 0 + .ra: lr
STACK CFI 5703a .cfa: sp 24 +
STACK CFI 5703c .ra: .cfa -4 + ^ r3: .cfa -24 + ^ r4: .cfa -20 + ^ r5: .cfa -16 + ^ r6: .cfa -12 + ^ r7: .cfa -8 + ^
STACK CFI INIT 57094 bc .cfa: sp 0 + .ra: lr
STACK CFI 57098 .cfa: sp 32 +
STACK CFI 5709c .ra: .cfa -4 + ^ r10: .cfa -8 + ^ r4: .cfa -32 + ^ r5: .cfa -28 + ^ r6: .cfa -24 + ^ r7: .cfa -20 + ^ r8: .cfa -16 + ^ r9: .cfa -12 + ^
STACK CFI INIT 57150 9c .cfa: sp 0 + .ra: lr
STACK CFI 57154 .cfa: sp 32 +
STACK CFI 57156 .ra: .cfa -4 + ^ r3: .cfa -32 + ^ r4: .cfa -28 + ^ r5: .cfa -24 + ^ r6: .cfa -20 + ^ r7: .cfa -16 + ^ r8: .cfa -12 + ^ r9: .cfa -8 + ^
STACK CFI INIT 571ec f4 .cfa: sp 0 + .ra: lr
STACK CFI 571f0 .cfa: sp 40 +
STACK CFI 571f4 .ra: .cfa -4 + ^ r10: .cfa -12 + ^ r11: .cfa -8 + ^ r3: .cfa -40 + ^ r4: .cfa -36 + ^ r5: .cfa -32 + ^ r6: .cfa -28 + ^ r7: .cfa -24 + ^ r8: .cfa -20 + ^ r9: .cfa -16 + ^
STACK CFI INIT 572e0 9e .cfa: sp 0 + .ra: lr
STACK CFI 572e4 .cfa: sp 32 +
STACK CFI 572e6 .ra: .cfa -4 + ^ r3: .cfa -32 + ^ r4: .cfa -28 + ^ r5: .cfa -24 + ^ r6: .cfa -20 + ^ r7: .cfa -16 + ^ r8: .cfa -12 + ^ r9: .cfa -8 + ^
STACK CFI INIT 57380 f8 .cfa: sp 0 + .ra: lr
STACK CFI 57384 .cfa: sp 40 +
STACK CFI 57388 .ra: .cfa -4 + ^ r10: .cfa -12 + ^ r11: .cfa -8 + ^ r3: .cfa -40 + ^ r4: .cfa -36 + ^ r5: .cfa -32 + ^ r6: .cfa -28 + ^ r7: .cfa -24 + ^ r8: .cfa -20 + ^ r9: .cfa -16 + ^
STACK CFI INIT 57478 8c .cfa: sp 0 + .ra: lr
STACK CFI 5747a .cfa: sp 24 +
STACK CFI 5747c .ra: .cfa -4 + ^ r3: .cfa -24 + ^ r4: .cfa -20 + ^ r5: .cfa -16 + ^ r6: .cfa -12 + ^ r7: .cfa -8 + ^
STACK CFI INIT 57504 4 .cfa: sp 0 + .ra: lr
STACK CFI INIT 57508 6 .cfa: sp 0 + .ra: lr
STACK CFI INIT 0 6 .cfa: sp 0 + .ra: lr
STACK CFI INIT 57510 3a .cfa: sp 0 + .ra: lr
STACK CFI 57512 .cfa: sp 8 +
STACK CFI 57518 .ra: .cfa -4 + ^ r4: .cfa -8 + ^
STACK CFI INIT 5754c 3c .cfa: sp 0 + .ra: lr
STACK CFI 5754e .cfa: sp 8 +
STACK CFI 57554 .ra: .cfa -4 + ^ r4: .cfa -8 + ^
STACK CFI INIT 57588 26 .cfa: sp 0 + .ra: lr
STACK CFI 5758a .cfa: sp 8 +
STACK CFI 5758c .ra: .cfa -4 + ^ r4: .cfa -8 + ^
STACK CFI INIT 575b0 b0 .cfa: sp 0 + .ra: lr
STACK CFI 575b4 .cfa: sp 24 +
STACK CFI 575b6 .ra: .cfa -4 + ^ r4: .cfa -24 + ^ r5: .cfa -20 + ^ r6: .cfa -16 + ^ r7: .cfa -12 + ^ r8: .cfa -8 + ^
STACK CFI INIT 57660 104 .cfa: sp 0 + .ra: lr
STACK CFI 57664 .cfa: sp 32 +
STACK CFI 57668 .ra: .cfa -4 + ^ r10: .cfa -8 + ^ r4: .cfa -32 + ^ r5: .cfa -28 + ^ r6: .cfa -24 + ^ r7: .cfa -20 + ^ r8: .cfa -16 + ^ r9: .cfa -12 + ^
STACK CFI INIT 57764 ec .cfa: sp 0 + .ra: lr
STACK CFI 57768 .cfa: sp 32 +
STACK CFI 5776a .ra: .cfa -4 + ^ r10: .cfa -8 + ^ r4: .cfa -32 + ^ r5: .cfa -28 + ^ r6: .cfa -24 + ^ r7: .cfa -20 + ^ r8: .cfa -16 + ^ r9: .cfa -12 + ^
STACK CFI INIT 57850 13c .cfa: sp 0 + .ra: lr
STACK CFI 57854 .cfa: sp 36 +
STACK CFI 57858 .ra: .cfa -4 + ^ r10: .cfa -12 + ^ r11: .cfa -8 + ^ r4: .cfa -36 + ^ r5: .cfa -32 + ^ r6: .cfa -28 + ^ r7: .cfa -24 + ^ r8: .cfa -20 + ^ r9: .cfa -16 + ^
STACK CFI 5785c .cfa: sp 48 +
STACK CFI INIT 5798c ee .cfa: sp 0 + .ra: lr
STACK CFI 57990 .cfa: sp 32 +
STACK CFI 57992 .ra: .cfa -4 + ^ r10: .cfa -8 + ^ r4: .cfa -32 + ^ r5: .cfa -28 + ^ r6: .cfa -24 + ^ r7: .cfa -20 + ^ r8: .cfa -16 + ^ r9: .cfa -12 + ^
STACK CFI INIT 57a7c 13c .cfa: sp 0 + .ra: lr
STACK CFI 57a80 .cfa: sp 36 +
STACK CFI 57a84 .ra: .cfa -4 + ^ r10: .cfa -12 + ^ r11: .cfa -8 + ^ r4: .cfa -36 + ^ r5: .cfa -32 + ^ r6: .cfa -28 + ^ r7: .cfa -24 + ^ r8: .cfa -20 + ^ r9: .cfa -16 + ^
STACK CFI 57a88 .cfa: sp 48 +
STACK CFI INIT 57bb8 c0 .cfa: sp 0 + .ra: lr
STACK CFI 57bbc .cfa: sp 32 +
STACK CFI 57bbe .ra: .cfa -4 + ^ r3: .cfa -32 + ^ r4: .cfa -28 + ^ r5: .cfa -24 + ^ r6: .cfa -20 + ^ r7: .cfa -16 + ^ r8: .cfa -12 + ^ r9: .cfa -8 + ^
STACK CFI INIT 57c78 4 .cfa: sp 0 + .ra: lr
STACK CFI INIT 57c7c 6 .cfa: sp 0 + .ra: lr
STACK CFI INIT 0 6 .cfa: sp 0 + .ra: lr
STACK CFI INIT 57c84 36 .cfa: sp 0 + .ra: lr
STACK CFI 57c86 .cfa: sp 8 +
STACK CFI 57c88 .ra: .cfa -4 + ^ r4: .cfa -8 + ^
STACK CFI INIT 57cbc 38 .cfa: sp 0 + .ra: lr
STACK CFI 57cbe .cfa: sp 8 +
STACK CFI 57cc0 .ra: .cfa -4 + ^ r4: .cfa -8 + ^
STACK CFI INIT 57cf4 26 .cfa: sp 0 + .ra: lr
STACK CFI 57cf6 .cfa: sp 8 +
STACK CFI 57cf8 .ra: .cfa -4 + ^ r4: .cfa -8 + ^
STACK CFI INIT 57d1c 28 .cfa: sp 0 + .ra: lr
STACK CFI 57d22 .cfa: sp 4 +
STACK CFI 57d24 r4: .cfa -4 + ^
STACK CFI INIT 57d44 34 .cfa: sp 0 + .ra: lr
STACK CFI 57d4a .cfa: sp 4 +
STACK CFI 57d4c r4: .cfa -4 + ^
STACK CFI INIT 57d78 d8 .cfa: sp 0 + .ra: lr
STACK CFI 57d7c .cfa: sp 24 +
STACK CFI 57d7e .ra: .cfa -4 + ^ r4: .cfa -24 + ^ r5: .cfa -20 + ^ r6: .cfa -16 + ^ r7: .cfa -12 + ^ r8: .cfa -8 + ^
STACK CFI 57d84 .cfa: sp 32 +
STACK CFI INIT 57e50 6 .cfa: sp 0 + .ra: lr
STACK CFI INIT 57e58 22 .cfa: sp 0 + .ra: lr
STACK CFI 57e5e .cfa: sp 8 +
STACK CFI 57e60 .ra: .cfa -4 + ^ r4: .cfa -8 + ^
STACK CFI INIT 57e7c 34 .cfa: sp 0 + .ra: lr
STACK CFI 57e82 .cfa: sp 8 +
STACK CFI 57e84 .ra: .cfa -4 + ^ r4: .cfa -8 + ^
STACK CFI INIT 57eb0 124 .cfa: sp 0 + .ra: lr
STACK CFI 57eb4 .cfa: sp 36 +
STACK CFI 57eb6 .cfa: sp 72 +
STACK CFI 57eb8 .ra: .cfa -4 + ^ r10: .cfa -12 + ^ r11: .cfa -8 + ^ r4: .cfa -36 + ^ r5: .cfa -32 + ^ r6: .cfa -28 + ^ r7: .cfa -24 + ^ r8: .cfa -20 + ^ r9: .cfa -16 + ^
STACK CFI 57eba .cfa: r7 56 +
STACK CFI INIT 57fd4 ce .cfa: sp 0 + .ra: lr
STACK CFI 57fd8 .cfa: sp 16 +
STACK CFI 57fde .cfa: sp 24 +
STACK CFI 57fe0 .ra: .cfa -4 + ^ r4: .cfa -16 + ^ r5: .cfa -12 + ^ r6: .cfa -8 + ^
STACK CFI INIT 580a4 e6 .cfa: sp 0 + .ra: lr
STACK CFI 580ac .cfa: sp 36 +
STACK CFI 580b0 .cfa: sp 192 +
STACK CFI 580b2 .ra: .cfa -4 + ^ r10: .cfa -12 + ^ r11: .cfa -8 + ^ r4: .cfa -36 + ^ r5: .cfa -32 + ^ r6: .cfa -28 + ^ r7: .cfa -24 + ^ r8: .cfa -20 + ^ r9: .cfa -16 + ^
STACK CFI INIT 5818c 13e .cfa: sp 0 + .ra: lr
STACK CFI 58190 .cfa: sp 24 +
STACK CFI 58192 .ra: .cfa -4 + ^ r4: .cfa -24 + ^ r5: .cfa -20 + ^ r6: .cfa -16 + ^ r7: .cfa -12 + ^ r8: .cfa -8 + ^
STACK CFI 58194 .cfa: sp 48 +
STACK CFI INIT 582cc ae .cfa: sp 0 + .ra: lr
STACK CFI 582d0 .cfa: sp 32 +
STACK CFI 582d2 .ra: .cfa -4 + ^ r10: .cfa -12 + ^ r11: .cfa -8 + ^ r4: .cfa -32 + ^ r5: .cfa -28 + ^ r6: .cfa -24 + ^ r7: .cfa -20 + ^ r8: .cfa -16 + ^
STACK CFI 582e2 .cfa: sp 64 +
STACK CFI INIT 5837c 8e .cfa: sp 0 + .ra: lr
STACK CFI 5837e .cfa: sp 8 +
STACK CFI 58380 .cfa: sp 28 +
STACK CFI 58382 .ra: .cfa -12 + ^ r4: .cfa -28 + ^ r5: .cfa -24 + ^ r6: .cfa -20 + ^ r7: .cfa -16 + ^
STACK CFI 58384 .cfa: sp 64 +
STACK CFI INIT 5840c 144 .cfa: sp 0 + .ra: lr
STACK CFI 58410 .cfa: sp 36 +
STACK CFI 58412 .ra: .cfa -4 + ^ r10: .cfa -12 + ^ r11: .cfa -8 + ^ r4: .cfa -36 + ^ r5: .cfa -32 + ^ r6: .cfa -28 + ^ r7: .cfa -24 + ^ r8: .cfa -20 + ^ r9: .cfa -16 + ^
STACK CFI 58414 .cfa: sp 64 +
STACK CFI INIT 58550 cc .cfa: sp 0 + .ra: lr
STACK CFI 58552 .cfa: sp 24 +
STACK CFI 58556 .ra: .cfa -4 + ^ r3: .cfa -24 + ^ r4: .cfa -20 + ^ r5: .cfa -16 + ^ r6: .cfa -12 + ^ r7: .cfa -8 + ^
STACK CFI INIT 5861c a4 .cfa: sp 0 + .ra: lr
STACK CFI 58620 .cfa: sp 24 +
STACK CFI 58624 .ra: .cfa -4 + ^ r4: .cfa -24 + ^ r5: .cfa -20 + ^ r6: .cfa -16 + ^ r7: .cfa -12 + ^ r8: .cfa -8 + ^
STACK CFI 58626 .cfa: sp 48 +
STACK CFI INIT 586c0 6 .cfa: sp 0 + .ra: lr
STACK CFI INIT 586c8 60 .cfa: sp 0 + .ra: lr
STACK CFI 586ca .cfa: sp 16 +
STACK CFI 586cc .ra: .cfa -4 + ^ r3: .cfa -16 + ^ r4: .cfa -12 + ^ r5: .cfa -8 + ^
STACK CFI INIT 58728 100 .cfa: sp 0 + .ra: lr
STACK CFI 5872c .cfa: sp 32 +
STACK CFI 5872e .ra: .cfa -4 + ^ r10: .cfa -8 + ^ r4: .cfa -32 + ^ r5: .cfa -28 + ^ r6: .cfa -24 + ^ r7: .cfa -20 + ^ r8: .cfa -16 + ^ r9: .cfa -12 + ^
STACK CFI INIT 5883c d4 .cfa: sp 0 + .ra: lr
STACK CFI 5883e .cfa: sp 24 +
STACK CFI 58840 .ra: .cfa -4 + ^ r3: .cfa -24 + ^ r4: .cfa -20 + ^ r5: .cfa -16 + ^ r6: .cfa -12 + ^ r7: .cfa -8 + ^
STACK CFI INIT 5891c dc .cfa: sp 0 + .ra: lr
STACK CFI 5891e .cfa: sp 24 +
STACK CFI 58920 .ra: .cfa -4 + ^ r3: .cfa -24 + ^ r4: .cfa -20 + ^ r5: .cfa -16 + ^ r6: .cfa -12 + ^ r7: .cfa -8 + ^
STACK CFI INIT 58a04 68 .cfa: sp 0 + .ra: lr
STACK CFI 58a06 .cfa: sp 16 +
STACK CFI 58a08 .ra: .cfa -4 + ^ r3: .cfa -16 + ^ r4: .cfa -12 + ^ r5: .cfa -8 + ^
STACK CFI INIT 58a6c 108 .cfa: sp 0 + .ra: lr
STACK CFI 58a70 .cfa: sp 32 +
STACK CFI 58a72 .ra: .cfa -4 + ^ r10: .cfa -8 + ^ r4: .cfa -32 + ^ r5: .cfa -28 + ^ r6: .cfa -24 + ^ r7: .cfa -20 + ^ r8: .cfa -16 + ^ r9: .cfa -12 + ^
STACK CFI INIT 58b88 d8 .cfa: sp 0 + .ra: lr
STACK CFI 58b8a .cfa: sp 24 +
STACK CFI 58b8c .ra: .cfa -4 + ^ r3: .cfa -24 + ^ r4: .cfa -20 + ^ r5: .cfa -16 + ^ r6: .cfa -12 + ^ r7: .cfa -8 + ^
STACK CFI INIT 58c6c e4 .cfa: sp 0 + .ra: lr
STACK CFI 58c6e .cfa: sp 24 +
STACK CFI 58c70 .ra: .cfa -4 + ^ r3: .cfa -24 + ^ r4: .cfa -20 + ^ r5: .cfa -16 + ^ r6: .cfa -12 + ^ r7: .cfa -8 + ^
STACK CFI INIT 58d5c 4c .cfa: sp 0 + .ra: lr
STACK CFI 58d60 .cfa: sp 4 +
STACK CFI 58d6a r4: .cfa -4 + ^
STACK CFI INIT 58da8 6c .cfa: sp 0 + .ra: lr
STACK CFI 58daa .cfa: sp 24 +
STACK CFI 58dac .ra: .cfa -4 + ^ r3: .cfa -24 + ^ r4: .cfa -20 + ^ r5: .cfa -16 + ^ r6: .cfa -12 + ^ r7: .cfa -8 + ^
STACK CFI INIT 58e14 c4 .cfa: sp 0 + .ra: lr
STACK CFI 58e18 .cfa: sp 32 +
STACK CFI 58e1c .ra: .cfa -4 + ^ r10: .cfa -8 + ^ r4: .cfa -32 + ^ r5: .cfa -28 + ^ r6: .cfa -24 + ^ r7: .cfa -20 + ^ r8: .cfa -16 + ^ r9: .cfa -12 + ^
STACK CFI INIT 58ed8 b2 .cfa: sp 0 + .ra: lr
STACK CFI 58edc .cfa: sp 32 +
STACK CFI 58ede .ra: .cfa -4 + ^ r3: .cfa -32 + ^ r4: .cfa -28 + ^ r5: .cfa -24 + ^ r6: .cfa -20 + ^ r7: .cfa -16 + ^ r8: .cfa -12 + ^ r9: .cfa -8 + ^
STACK CFI INIT 58f8c 104 .cfa: sp 0 + .ra: lr
STACK CFI 58f90 .cfa: sp 40 +
STACK CFI 58f94 .ra: .cfa -4 + ^ r10: .cfa -12 + ^ r11: .cfa -8 + ^ r3: .cfa -40 + ^ r4: .cfa -36 + ^ r5: .cfa -32 + ^ r6: .cfa -28 + ^ r7: .cfa -24 + ^ r8: .cfa -20 + ^ r9: .cfa -16 + ^
STACK CFI INIT 59090 b4 .cfa: sp 0 + .ra: lr
STACK CFI 59094 .cfa: sp 32 +
STACK CFI 59096 .ra: .cfa -4 + ^ r3: .cfa -32 + ^ r4: .cfa -28 + ^ r5: .cfa -24 + ^ r6: .cfa -20 + ^ r7: .cfa -16 + ^ r8: .cfa -12 + ^ r9: .cfa -8 + ^
STACK CFI INIT 59144 104 .cfa: sp 0 + .ra: lr
STACK CFI 59148 .cfa: sp 40 +
STACK CFI 5914c .ra: .cfa -4 + ^ r10: .cfa -12 + ^ r11: .cfa -8 + ^ r3: .cfa -40 + ^ r4: .cfa -36 + ^ r5: .cfa -32 + ^ r6: .cfa -28 + ^ r7: .cfa -24 + ^ r8: .cfa -20 + ^ r9: .cfa -16 + ^
STACK CFI INIT 59248 98 .cfa: sp 0 + .ra: lr
STACK CFI 5924a .cfa: sp 24 +
STACK CFI 5924c .ra: .cfa -4 + ^ r3: .cfa -24 + ^ r4: .cfa -20 + ^ r5: .cfa -16 + ^ r6: .cfa -12 + ^ r7: .cfa -8 + ^
STACK CFI INIT 592e0 4 .cfa: sp 0 + .ra: lr
STACK CFI INIT 592e4 6 .cfa: sp 0 + .ra: lr
STACK CFI INIT 0 6 .cfa: sp 0 + .ra: lr
STACK CFI INIT 592ec 3a .cfa: sp 0 + .ra: lr
STACK CFI 592ee .cfa: sp 8 +
STACK CFI 592f4 .ra: .cfa -4 + ^ r4: .cfa -8 + ^
STACK CFI INIT 59328 3c .cfa: sp 0 + .ra: lr
STACK CFI 5932a .cfa: sp 8 +
STACK CFI 59330 .ra: .cfa -4 + ^ r4: .cfa -8 + ^
STACK CFI INIT 59364 26 .cfa: sp 0 + .ra: lr
STACK CFI 59366 .cfa: sp 8 +
STACK CFI 59368 .ra: .cfa -4 + ^ r4: .cfa -8 + ^
STACK CFI INIT 5938c 5a .cfa: sp 0 + .ra: lr
STACK CFI 5938e .cfa: sp 24 +
STACK CFI 59390 .ra: .cfa -4 + ^ r3: .cfa -24 + ^ r4: .cfa -20 + ^ r5: .cfa -16 + ^ r6: .cfa -12 + ^ r7: .cfa -8 + ^
STACK CFI INIT 593e8 bc .cfa: sp 0 + .ra: lr
STACK CFI 593ec .cfa: sp 32 +
STACK CFI 593f0 .ra: .cfa -4 + ^ r10: .cfa -8 + ^ r4: .cfa -32 + ^ r5: .cfa -28 + ^ r6: .cfa -24 + ^ r7: .cfa -20 + ^ r8: .cfa -16 + ^ r9: .cfa -12 + ^
STACK CFI INIT 594a4 9c .cfa: sp 0 + .ra: lr
STACK CFI 594a8 .cfa: sp 32 +
STACK CFI 594aa .ra: .cfa -4 + ^ r3: .cfa -32 + ^ r4: .cfa -28 + ^ r5: .cfa -24 + ^ r6: .cfa -20 + ^ r7: .cfa -16 + ^ r8: .cfa -12 + ^ r9: .cfa -8 + ^
STACK CFI INIT 59540 f4 .cfa: sp 0 + .ra: lr
STACK CFI 59544 .cfa: sp 40 +
STACK CFI 59548 .ra: .cfa -4 + ^ r10: .cfa -12 + ^ r11: .cfa -8 + ^ r3: .cfa -40 + ^ r4: .cfa -36 + ^ r5: .cfa -32 + ^ r6: .cfa -28 + ^ r7: .cfa -24 + ^ r8: .cfa -20 + ^ r9: .cfa -16 + ^
STACK CFI INIT 59634 9e .cfa: sp 0 + .ra: lr
STACK CFI 59638 .cfa: sp 32 +
STACK CFI 5963a .ra: .cfa -4 + ^ r3: .cfa -32 + ^ r4: .cfa -28 + ^ r5: .cfa -24 + ^ r6: .cfa -20 + ^ r7: .cfa -16 + ^ r8: .cfa -12 + ^ r9: .cfa -8 + ^
STACK CFI INIT 596d4 f8 .cfa: sp 0 + .ra: lr
STACK CFI 596d8 .cfa: sp 40 +
STACK CFI 596dc .ra: .cfa -4 + ^ r10: .cfa -12 + ^ r11: .cfa -8 + ^ r3: .cfa -40 + ^ r4: .cfa -36 + ^ r5: .cfa -32 + ^ r6: .cfa -28 + ^ r7: .cfa -24 + ^ r8: .cfa -20 + ^ r9: .cfa -16 + ^
STACK CFI INIT 597cc 8c .cfa: sp 0 + .ra: lr
STACK CFI 597ce .cfa: sp 24 +
STACK CFI 597d0 .ra: .cfa -4 + ^ r3: .cfa -24 + ^ r4: .cfa -20 + ^ r5: .cfa -16 + ^ r6: .cfa -12 + ^ r7: .cfa -8 + ^
STACK CFI INIT 59858 4 .cfa: sp 0 + .ra: lr
STACK CFI INIT 5985c 6 .cfa: sp 0 + .ra: lr
STACK CFI INIT 0 6 .cfa: sp 0 + .ra: lr
STACK CFI INIT 59864 3a .cfa: sp 0 + .ra: lr
STACK CFI 59866 .cfa: sp 8 +
STACK CFI 5986c .ra: .cfa -4 + ^ r4: .cfa -8 + ^
STACK CFI INIT 598a0 3c .cfa: sp 0 + .ra: lr
STACK CFI 598a2 .cfa: sp 8 +
STACK CFI 598a8 .ra: .cfa -4 + ^ r4: .cfa -8 + ^
STACK CFI INIT 598dc 26 .cfa: sp 0 + .ra: lr
STACK CFI 598de .cfa: sp 8 +
STACK CFI 598e0 .ra: .cfa -4 + ^ r4: .cfa -8 + ^
STACK CFI INIT 59904 b0 .cfa: sp 0 + .ra: lr
STACK CFI 59908 .cfa: sp 24 +
STACK CFI 5990a .ra: .cfa -4 + ^ r4: .cfa -24 + ^ r5: .cfa -20 + ^ r6: .cfa -16 + ^ r7: .cfa -12 + ^ r8: .cfa -8 + ^
STACK CFI INIT 599b4 104 .cfa: sp 0 + .ra: lr
STACK CFI 599b8 .cfa: sp 32 +
STACK CFI 599bc .ra: .cfa -4 + ^ r10: .cfa -8 + ^ r4: .cfa -32 + ^ r5: .cfa -28 + ^ r6: .cfa -24 + ^ r7: .cfa -20 + ^ r8: .cfa -16 + ^ r9: .cfa -12 + ^
STACK CFI INIT 59ab8 ec .cfa: sp 0 + .ra: lr
STACK CFI 59abc .cfa: sp 32 +
STACK CFI 59abe .ra: .cfa -4 + ^ r10: .cfa -8 + ^ r4: .cfa -32 + ^ r5: .cfa -28 + ^ r6: .cfa -24 + ^ r7: .cfa -20 + ^ r8: .cfa -16 + ^ r9: .cfa -12 + ^
STACK CFI INIT 59ba4 13c .cfa: sp 0 + .ra: lr
STACK CFI 59ba8 .cfa: sp 36 +
STACK CFI 59bac .ra: .cfa -4 + ^ r10: .cfa -12 + ^ r11: .cfa -8 + ^ r4: .cfa -36 + ^ r5: .cfa -32 + ^ r6: .cfa -28 + ^ r7: .cfa -24 + ^ r8: .cfa -20 + ^ r9: .cfa -16 + ^
STACK CFI 59bb0 .cfa: sp 48 +
STACK CFI INIT 59ce0 ee .cfa: sp 0 + .ra: lr
STACK CFI 59ce4 .cfa: sp 32 +
STACK CFI 59ce6 .ra: .cfa -4 + ^ r10: .cfa -8 + ^ r4: .cfa -32 + ^ r5: .cfa -28 + ^ r6: .cfa -24 + ^ r7: .cfa -20 + ^ r8: .cfa -16 + ^ r9: .cfa -12 + ^
STACK CFI INIT 59dd0 13c .cfa: sp 0 + .ra: lr
STACK CFI 59dd4 .cfa: sp 36 +
STACK CFI 59dd8 .ra: .cfa -4 + ^ r10: .cfa -12 + ^ r11: .cfa -8 + ^ r4: .cfa -36 + ^ r5: .cfa -32 + ^ r6: .cfa -28 + ^ r7: .cfa -24 + ^ r8: .cfa -20 + ^ r9: .cfa -16 + ^
STACK CFI 59ddc .cfa: sp 48 +
STACK CFI INIT 59f0c c0 .cfa: sp 0 + .ra: lr
STACK CFI 59f10 .cfa: sp 32 +
STACK CFI 59f12 .ra: .cfa -4 + ^ r3: .cfa -32 + ^ r4: .cfa -28 + ^ r5: .cfa -24 + ^ r6: .cfa -20 + ^ r7: .cfa -16 + ^ r8: .cfa -12 + ^ r9: .cfa -8 + ^
STACK CFI INIT 59fcc 4 .cfa: sp 0 + .ra: lr
STACK CFI INIT 59fd0 6 .cfa: sp 0 + .ra: lr
STACK CFI INIT 0 6 .cfa: sp 0 + .ra: lr
STACK CFI INIT 59fd8 36 .cfa: sp 0 + .ra: lr
STACK CFI 59fda .cfa: sp 8 +
STACK CFI 59fdc .ra: .cfa -4 + ^ r4: .cfa -8 + ^
STACK CFI INIT 5a010 38 .cfa: sp 0 + .ra: lr
STACK CFI 5a012 .cfa: sp 8 +
STACK CFI 5a014 .ra: .cfa -4 + ^ r4: .cfa -8 + ^
STACK CFI INIT 5a048 26 .cfa: sp 0 + .ra: lr
STACK CFI 5a04a .cfa: sp 8 +
STACK CFI 5a04c .ra: .cfa -4 + ^ r4: .cfa -8 + ^
STACK CFI INIT 58d50 a .cfa: sp 0 + .ra: lr
STACK CFI INIT 58c60 a .cfa: sp 0 + .ra: lr
STACK CFI INIT 58b7c a .cfa: sp 0 + .ra: lr
STACK CFI INIT 589f8 a .cfa: sp 0 + .ra: lr
STACK CFI INIT 58910 a .cfa: sp 0 + .ra: lr
STACK CFI INIT 58830 a .cfa: sp 0 + .ra: lr
STACK CFI INIT 56a00 a .cfa: sp 0 + .ra: lr
STACK CFI INIT 56910 a .cfa: sp 0 + .ra: lr
STACK CFI INIT 5682c a .cfa: sp 0 + .ra: lr
STACK CFI INIT 56710 a .cfa: sp 0 + .ra: lr
STACK CFI INIT 56628 a .cfa: sp 0 + .ra: lr
STACK CFI INIT 56548 a .cfa: sp 0 + .ra: lr
STACK CFI INIT 5a070 60 .cfa: sp 0 + .ra: lr
STACK CFI 5a072 .cfa: sp 16 +
STACK CFI 5a074 .ra: .cfa -4 + ^ r3: .cfa -16 + ^ r4: .cfa -12 + ^ r5: .cfa -8 + ^
STACK CFI INIT 5a0d0 12 .cfa: sp 0 + .ra: lr
STACK CFI 5a0d2 .cfa: sp 8 +
STACK CFI 5a0d4 .ra: .cfa -4 + ^ r4: .cfa -8 + ^
STACK CFI INIT 5a0e4 60 .cfa: sp 0 + .ra: lr
STACK CFI 5a0e6 .cfa: sp 16 +
STACK CFI 5a0e8 .ra: .cfa -4 + ^ r3: .cfa -16 + ^ r4: .cfa -12 + ^ r5: .cfa -8 + ^
STACK CFI INIT 5a144 12 .cfa: sp 0 + .ra: lr
STACK CFI 5a146 .cfa: sp 8 +
STACK CFI 5a148 .ra: .cfa -4 + ^ r4: .cfa -8 + ^
STACK CFI INIT 5a158 5a .cfa: sp 0 + .ra: lr
STACK CFI 5a15c .cfa: sp 8 +
STACK CFI 5a15e .cfa: sp 16 +
STACK CFI 5a160 .ra: .cfa -4 + ^ r4: .cfa -8 + ^
STACK CFI INIT 5a1b4 20 .cfa: sp 0 + .ra: lr
STACK CFI 5a1b6 .cfa: sp 16 +
STACK CFI 5a1b8 .ra: .cfa -4 + ^ r3: .cfa -16 + ^ r4: .cfa -12 + ^ r5: .cfa -8 + ^
STACK CFI INIT 5a1d4 74 .cfa: sp 0 + .ra: lr
STACK CFI 5a1d8 .cfa: sp 32 +
STACK CFI 5a1da .ra: .cfa -4 + ^ r3: .cfa -32 + ^ r4: .cfa -28 + ^ r5: .cfa -24 + ^ r6: .cfa -20 + ^ r7: .cfa -16 + ^ r8: .cfa -12 + ^ r9: .cfa -8 + ^
STACK CFI INIT 5a248 74 .cfa: sp 0 + .ra: lr
STACK CFI 5a24c .cfa: sp 32 +
STACK CFI 5a24e .ra: .cfa -4 + ^ r3: .cfa -32 + ^ r4: .cfa -28 + ^ r5: .cfa -24 + ^ r6: .cfa -20 + ^ r7: .cfa -16 + ^ r8: .cfa -12 + ^ r9: .cfa -8 + ^
STACK CFI INIT 5a2bc 6 .cfa: sp 0 + .ra: lr
STACK CFI INIT 5a2c4 6 .cfa: sp 0 + .ra: lr
STACK CFI INIT 5a2cc 5a .cfa: sp 0 + .ra: lr
STACK CFI 5a2d0 .cfa: sp 8 +
STACK CFI 5a2d2 .cfa: sp 16 +
STACK CFI 5a2d4 .ra: .cfa -4 + ^ r4: .cfa -8 + ^
STACK CFI INIT 5a328 20 .cfa: sp 0 + .ra: lr
STACK CFI 5a32a .cfa: sp 16 +
STACK CFI 5a32c .ra: .cfa -4 + ^ r3: .cfa -16 + ^ r4: .cfa -12 + ^ r5: .cfa -8 + ^
STACK CFI INIT 5a348 74 .cfa: sp 0 + .ra: lr
STACK CFI 5a34c .cfa: sp 32 +
STACK CFI 5a34e .ra: .cfa -4 + ^ r3: .cfa -32 + ^ r4: .cfa -28 + ^ r5: .cfa -24 + ^ r6: .cfa -20 + ^ r7: .cfa -16 + ^ r8: .cfa -12 + ^ r9: .cfa -8 + ^
STACK CFI INIT 5a3bc 74 .cfa: sp 0 + .ra: lr
STACK CFI 5a3c0 .cfa: sp 32 +
STACK CFI 5a3c2 .ra: .cfa -4 + ^ r3: .cfa -32 + ^ r4: .cfa -28 + ^ r5: .cfa -24 + ^ r6: .cfa -20 + ^ r7: .cfa -16 + ^ r8: .cfa -12 + ^ r9: .cfa -8 + ^
STACK CFI INIT 5a430 6 .cfa: sp 0 + .ra: lr
STACK CFI INIT 5a438 6 .cfa: sp 0 + .ra: lr
STACK CFI INIT 5a440 20 .cfa: sp 0 + .ra: lr
STACK CFI 5a448 .cfa: sp 8 +
STACK CFI 5a44a .ra: .cfa -4 + ^ r4: .cfa -8 + ^
STACK CFI INIT 5a460 28 .cfa: sp 0 + .ra: lr
STACK CFI 5a468 .cfa: sp 8 +
STACK CFI 5a46a .ra: .cfa -4 + ^ r4: .cfa -8 + ^
STACK CFI INIT 5a488 20 .cfa: sp 0 + .ra: lr
STACK CFI 5a490 .cfa: sp 8 +
STACK CFI 5a492 .ra: .cfa -4 + ^ r4: .cfa -8 + ^
STACK CFI INIT 5a4a8 28 .cfa: sp 0 + .ra: lr
STACK CFI 5a4b0 .cfa: sp 8 +
STACK CFI 5a4b2 .ra: .cfa -4 + ^ r4: .cfa -8 + ^
STACK CFI INIT 5a4d0 c .cfa: sp 0 + .ra: lr
STACK CFI INIT 5a4dc e .cfa: sp 0 + .ra: lr
STACK CFI INIT 5a4ec 4 .cfa: sp 0 + .ra: lr
STACK CFI INIT 5a4f0 24 .cfa: sp 0 + .ra: lr
STACK CFI 5a4f2 .cfa: sp 8 +
STACK CFI 5a4f4 .ra: .cfa -4 + ^ r3: .cfa -8 + ^
STACK CFI INIT 5a514 8 .cfa: sp 0 + .ra: lr
STACK CFI INIT 5a51c 16 .cfa: sp 0 + .ra: lr
STACK CFI 5a51e .cfa: sp 8 +
STACK CFI 5a520 .ra: .cfa -4 + ^ r3: .cfa -8 + ^
STACK CFI INIT 5a534 c .cfa: sp 0 + .ra: lr
STACK CFI INIT 5a540 8 .cfa: sp 0 + .ra: lr
STACK CFI INIT 5a548 e .cfa: sp 0 + .ra: lr
STACK CFI INIT 5a558 8 .cfa: sp 0 + .ra: lr
STACK CFI INIT 5a560 4 .cfa: sp 0 + .ra: lr
STACK CFI INIT 5a564 8 .cfa: sp 0 + .ra: lr
STACK CFI INIT 5a56c 4 .cfa: sp 0 + .ra: lr
STACK CFI INIT 5a570 8 .cfa: sp 0 + .ra: lr
STACK CFI INIT 5a578 4 .cfa: sp 0 + .ra: lr
STACK CFI INIT 5a57c 10 .cfa: sp 0 + .ra: lr
STACK CFI 5a57e .cfa: sp 8 +
STACK CFI 5a580 .ra: .cfa -4 + ^ r4: .cfa -8 + ^
STACK CFI INIT 5a58c 48 .cfa: sp 0 + .ra: lr
STACK CFI 5a58e .cfa: sp 16 +
STACK CFI 5a590 .ra: .cfa -4 + ^ r3: .cfa -16 + ^ r4: .cfa -12 + ^ r5: .cfa -8 + ^
STACK CFI INIT 5a5d4 44 .cfa: sp 0 + .ra: lr
STACK CFI 5a5da .cfa: sp 16 +
STACK CFI 5a5dc .ra: .cfa -4 + ^ r4: .cfa -16 + ^ r5: .cfa -12 + ^ r6: .cfa -8 + ^
STACK CFI INIT 5a618 26 .cfa: sp 0 + .ra: lr
STACK CFI 5a61c .cfa: sp 16 +
STACK CFI 5a61e .ra: .cfa -4 + ^ r4: .cfa -16 + ^ r5: .cfa -12 + ^ r6: .cfa -8 + ^
STACK CFI INIT 5a640 28 .cfa: sp 0 + .ra: lr
STACK CFI 5a642 .cfa: sp 16 +
STACK CFI 5a644 .ra: .cfa -4 + ^ r3: .cfa -16 + ^ r4: .cfa -12 + ^ r5: .cfa -8 + ^
STACK CFI INIT 5a668 38 .cfa: sp 0 + .ra: lr
STACK CFI 5a66a .cfa: sp 16 +
STACK CFI 5a66c .ra: .cfa -4 + ^ r3: .cfa -16 + ^ r4: .cfa -12 + ^ r5: .cfa -8 + ^
STACK CFI INIT 5a6a0 4c .cfa: sp 0 + .ra: lr
STACK CFI 5a6a2 .cfa: sp 16 +
STACK CFI 5a6a4 .ra: .cfa -4 + ^ r3: .cfa -16 + ^ r4: .cfa -12 + ^ r5: .cfa -8 + ^
STACK CFI INIT 5a6ec 30 .cfa: sp 0 + .ra: lr
STACK CFI 5a6ee .cfa: sp 16 +
STACK CFI 5a6f0 .ra: .cfa -4 + ^ r3: .cfa -16 + ^ r4: .cfa -12 + ^ r5: .cfa -8 + ^
STACK CFI INIT 5a71c 50 .cfa: sp 0 + .ra: lr
STACK CFI 5a71e .cfa: sp 16 +
STACK CFI 5a720 .ra: .cfa -4 + ^ r4: .cfa -16 + ^ r5: .cfa -12 + ^ r6: .cfa -8 + ^
STACK CFI INIT 5a76c 68 .cfa: sp 0 + .ra: lr
STACK CFI 5a76e .cfa: sp 20 +
STACK CFI 5a770 .ra: .cfa -4 + ^ r4: .cfa -20 + ^ r5: .cfa -16 + ^ r6: .cfa -12 + ^ r7: .cfa -8 + ^
STACK CFI 5a772 .cfa: sp 32 +
STACK CFI INIT 5a7d4 220 .cfa: sp 0 + .ra: lr
STACK CFI 5a7d8 .cfa: sp 32 +
STACK CFI 5a7dc .ra: .cfa -4 + ^ r10: .cfa -8 + ^ r4: .cfa -32 + ^ r5: .cfa -28 + ^ r6: .cfa -24 + ^ r7: .cfa -20 + ^ r8: .cfa -16 + ^ r9: .cfa -12 + ^
STACK CFI 5a7de .cfa: sp 40 +
STACK CFI INIT 5a9f4 c .cfa: sp 0 + .ra: lr
STACK CFI INIT 5aa00 e .cfa: sp 0 + .ra: lr
STACK CFI INIT 5aa10 4 .cfa: sp 0 + .ra: lr
STACK CFI INIT 5aa14 24 .cfa: sp 0 + .ra: lr
STACK CFI 5aa16 .cfa: sp 8 +
STACK CFI 5aa18 .ra: .cfa -4 + ^ r3: .cfa -8 + ^
STACK CFI INIT 5aa38 8 .cfa: sp 0 + .ra: lr
STACK CFI INIT 5aa40 16 .cfa: sp 0 + .ra: lr
STACK CFI 5aa42 .cfa: sp 8 +
STACK CFI 5aa44 .ra: .cfa -4 + ^ r3: .cfa -8 + ^
STACK CFI INIT 5aa58 c .cfa: sp 0 + .ra: lr
STACK CFI INIT 5aa64 8 .cfa: sp 0 + .ra: lr
STACK CFI INIT 5aa6c e .cfa: sp 0 + .ra: lr
STACK CFI INIT 5aa7c 8 .cfa: sp 0 + .ra: lr
STACK CFI INIT 5aa84 4 .cfa: sp 0 + .ra: lr
STACK CFI INIT 5aa88 8 .cfa: sp 0 + .ra: lr
STACK CFI INIT 5aa90 4 .cfa: sp 0 + .ra: lr
STACK CFI INIT 5aa94 8 .cfa: sp 0 + .ra: lr
STACK CFI INIT 5aa9c 4 .cfa: sp 0 + .ra: lr
STACK CFI INIT 5aaa0 10 .cfa: sp 0 + .ra: lr
STACK CFI 5aaa2 .cfa: sp 8 +
STACK CFI 5aaa4 .ra: .cfa -4 + ^ r4: .cfa -8 + ^
STACK CFI INIT 5aab0 2a .cfa: sp 0 + .ra: lr
STACK CFI 5aab6 .cfa: sp 8 +
STACK CFI 5aab8 .ra: .cfa -4 + ^ r4: .cfa -8 + ^
STACK CFI INIT 5aadc 2e .cfa: sp 0 + .ra: lr
STACK CFI 5aade .cfa: sp 16 +
STACK CFI 5aae0 .ra: .cfa -4 + ^ r3: .cfa -16 + ^ r4: .cfa -12 + ^ r5: .cfa -8 + ^
STACK CFI INIT 5ab0c 14 .cfa: sp 0 + .ra: lr
STACK CFI 5ab12 .cfa: sp 8 +
STACK CFI 5ab14 .ra: .cfa -4 + ^ r3: .cfa -8 + ^
STACK CFI INIT 5ab20 14 .cfa: sp 0 + .ra: lr
STACK CFI 5ab26 .cfa: sp 8 +
STACK CFI 5ab28 .ra: .cfa -4 + ^ r3: .cfa -8 + ^
STACK CFI INIT 5ab34 38 .cfa: sp 0 + .ra: lr
STACK CFI 5ab36 .cfa: sp 16 +
STACK CFI 5ab38 .ra: .cfa -4 + ^ r3: .cfa -16 + ^ r4: .cfa -12 + ^ r5: .cfa -8 + ^
STACK CFI INIT 5ab6c 50 .cfa: sp 0 + .ra: lr
STACK CFI 5ab6e .cfa: sp 16 +
STACK CFI 5ab70 .ra: .cfa -4 + ^ r3: .cfa -16 + ^ r4: .cfa -12 + ^ r5: .cfa -8 + ^
STACK CFI INIT 5abbc 2e .cfa: sp 0 + .ra: lr
STACK CFI 5abbe .cfa: sp 16 +
STACK CFI 5abc0 .ra: .cfa -4 + ^ r3: .cfa -16 + ^ r4: .cfa -12 + ^ r5: .cfa -8 + ^
STACK CFI INIT 5abec 50 .cfa: sp 0 + .ra: lr
STACK CFI 5abee .cfa: sp 16 +
STACK CFI 5abf0 .ra: .cfa -4 + ^ r4: .cfa -16 + ^ r5: .cfa -12 + ^ r6: .cfa -8 + ^
STACK CFI INIT 5ac3c 68 .cfa: sp 0 + .ra: lr
STACK CFI 5ac3e .cfa: sp 20 +
STACK CFI 5ac40 .ra: .cfa -4 + ^ r4: .cfa -20 + ^ r5: .cfa -16 + ^ r6: .cfa -12 + ^ r7: .cfa -8 + ^
STACK CFI 5ac42 .cfa: sp 32 +
STACK CFI INIT 5aca4 200 .cfa: sp 0 + .ra: lr
STACK CFI 5aca8 .cfa: sp 32 +
STACK CFI 5acac .ra: .cfa -4 + ^ r10: .cfa -8 + ^ r4: .cfa -32 + ^ r5: .cfa -28 + ^ r6: .cfa -24 + ^ r7: .cfa -20 + ^ r8: .cfa -16 + ^ r9: .cfa -12 + ^
STACK CFI 5acae .cfa: sp 40 +
STACK CFI INIT 5aea4 50 .cfa: sp 0 + .ra: lr
STACK CFI 5aea6 .cfa: sp 24 +
STACK CFI 5aea8 .ra: .cfa -4 + ^ r3: .cfa -24 + ^ r4: .cfa -20 + ^ r5: .cfa -16 + ^ r6: .cfa -12 + ^ r7: .cfa -8 + ^
STACK CFI INIT 5af08 50 .cfa: sp 0 + .ra: lr
STACK CFI 5af0a .cfa: sp 24 +
STACK CFI 5af0c .ra: .cfa -4 + ^ r3: .cfa -24 + ^ r4: .cfa -20 + ^ r5: .cfa -16 + ^ r6: .cfa -12 + ^ r7: .cfa -8 + ^
STACK CFI INIT 5af6c 54 .cfa: sp 0 + .ra: lr
STACK CFI 5af6e .cfa: sp 24 +
STACK CFI 5af70 .ra: .cfa -4 + ^ r3: .cfa -24 + ^ r4: .cfa -20 + ^ r5: .cfa -16 + ^ r6: .cfa -12 + ^ r7: .cfa -8 + ^
STACK CFI INIT 5afd4 54 .cfa: sp 0 + .ra: lr
STACK CFI 5afd6 .cfa: sp 24 +
STACK CFI 5afd8 .ra: .cfa -4 + ^ r3: .cfa -24 + ^ r4: .cfa -20 + ^ r5: .cfa -16 + ^ r6: .cfa -12 + ^ r7: .cfa -8 + ^
STACK CFI INIT 5b03c 2 .cfa: sp 0 + .ra: lr
STACK CFI INIT 5b040 6a .cfa: sp 0 + .ra: lr
STACK CFI 5b042 .cfa: sp 24 +
STACK CFI 5b044 .ra: .cfa -4 + ^ r3: .cfa -24 + ^ r4: .cfa -20 + ^ r5: .cfa -16 + ^ r6: .cfa -12 + ^ r7: .cfa -8 + ^
STACK CFI INIT 5b0ac d0 .cfa: sp 0 + .ra: lr
STACK CFI 5b0b0 .cfa: sp 40 +
STACK CFI 5b0b4 .ra: .cfa -4 + ^ r10: .cfa -12 + ^ r11: .cfa -8 + ^ r3: .cfa -40 + ^ r4: .cfa -36 + ^ r5: .cfa -32 + ^ r6: .cfa -28 + ^ r7: .cfa -24 + ^ r8: .cfa -20 + ^ r9: .cfa -16 + ^
STACK CFI INIT 5b17c 3c .cfa: sp 0 + .ra: lr
STACK CFI 5b182 .cfa: sp 24 +
STACK CFI 5b186 r4: .cfa -24 + ^ r5: .cfa -20 + ^ r6: .cfa -16 + ^ r7: .cfa -12 + ^ r8: .cfa -8 + ^ r9: .cfa -4 + ^
STACK CFI INIT 5b1b8 68 .cfa: sp 0 + .ra: lr
STACK CFI 5b1ba .cfa: sp 24 +
STACK CFI 5b1bc .ra: .cfa -4 + ^ r3: .cfa -24 + ^ r4: .cfa -20 + ^ r5: .cfa -16 + ^ r6: .cfa -12 + ^ r7: .cfa -8 + ^
STACK CFI INIT 5b220 cc .cfa: sp 0 + .ra: lr
STACK CFI 5b224 .cfa: sp 32 +
STACK CFI 5b228 .ra: .cfa -4 + ^ r10: .cfa -8 + ^ r4: .cfa -32 + ^ r5: .cfa -28 + ^ r6: .cfa -24 + ^ r7: .cfa -20 + ^ r8: .cfa -16 + ^ r9: .cfa -12 + ^
STACK CFI INIT 5b2ec 2 .cfa: sp 0 + .ra: lr
STACK CFI INIT 5b2f0 6a .cfa: sp 0 + .ra: lr
STACK CFI 5b2f2 .cfa: sp 24 +
STACK CFI 5b2f4 .ra: .cfa -4 + ^ r3: .cfa -24 + ^ r4: .cfa -20 + ^ r5: .cfa -16 + ^ r6: .cfa -12 + ^ r7: .cfa -8 + ^
STACK CFI INIT 5b35c d0 .cfa: sp 0 + .ra: lr
STACK CFI 5b360 .cfa: sp 40 +
STACK CFI 5b364 .ra: .cfa -4 + ^ r10: .cfa -12 + ^ r11: .cfa -8 + ^ r3: .cfa -40 + ^ r4: .cfa -36 + ^ r5: .cfa -32 + ^ r6: .cfa -28 + ^ r7: .cfa -24 + ^ r8: .cfa -20 + ^ r9: .cfa -16 + ^
STACK CFI INIT 5b42c 3c .cfa: sp 0 + .ra: lr
STACK CFI 5b432 .cfa: sp 24 +
STACK CFI 5b436 r4: .cfa -24 + ^ r5: .cfa -20 + ^ r6: .cfa -16 + ^ r7: .cfa -12 + ^ r8: .cfa -8 + ^ r9: .cfa -4 + ^
STACK CFI INIT 5b468 68 .cfa: sp 0 + .ra: lr
STACK CFI 5b46a .cfa: sp 24 +
STACK CFI 5b46c .ra: .cfa -4 + ^ r3: .cfa -24 + ^ r4: .cfa -20 + ^ r5: .cfa -16 + ^ r6: .cfa -12 + ^ r7: .cfa -8 + ^
STACK CFI INIT 5b4d0 cc .cfa: sp 0 + .ra: lr
STACK CFI 5b4d4 .cfa: sp 32 +
STACK CFI 5b4d8 .ra: .cfa -4 + ^ r10: .cfa -8 + ^ r4: .cfa -32 + ^ r5: .cfa -28 + ^ r6: .cfa -24 + ^ r7: .cfa -20 + ^ r8: .cfa -16 + ^ r9: .cfa -12 + ^
STACK CFI INIT 5b030 a .cfa: sp 0 + .ra: lr
STACK CFI INIT 5afc8 a .cfa: sp 0 + .ra: lr
STACK CFI INIT 5af60 a .cfa: sp 0 + .ra: lr
STACK CFI INIT 5aefc a .cfa: sp 0 + .ra: lr
STACK CFI INIT 5b59c 38 .cfa: sp 0 + .ra: lr
STACK CFI 5b5a8 .cfa: sp 8 +
STACK CFI 5b5aa .ra: .cfa -4 + ^ r4: .cfa -8 + ^
STACK CFI INIT 5b5e0 38 .cfa: sp 0 + .ra: lr
STACK CFI 5b5ec .cfa: sp 8 +
STACK CFI 5b5ee .ra: .cfa -4 + ^ r4: .cfa -8 + ^
STACK CFI INIT 5b624 14 .cfa: sp 0 + .ra: lr
STACK CFI 5b626 .cfa: sp 8 +
STACK CFI 5b62a .ra: .cfa -4 + ^ r3: .cfa -8 + ^
STACK CFI INIT 5b638 14 .cfa: sp 0 + .ra: lr
STACK CFI 5b63a .cfa: sp 8 +
STACK CFI 5b63e .ra: .cfa -4 + ^ r3: .cfa -8 + ^
STACK CFI INIT 5b64c 3c .cfa: sp 0 + .ra: lr
STACK CFI 5b658 .cfa: sp 8 +
STACK CFI 5b65a .ra: .cfa -4 + ^ r4: .cfa -8 + ^
STACK CFI INIT 5b694 3c .cfa: sp 0 + .ra: lr
STACK CFI 5b6a0 .cfa: sp 8 +
STACK CFI 5b6a2 .ra: .cfa -4 + ^ r4: .cfa -8 + ^
STACK CFI INIT 5b6dc 2a .cfa: sp 0 + .ra: lr
STACK CFI 5b6e2 .cfa: sp 8 +
STACK CFI 5b6e4 .ra: .cfa -4 + ^ r4: .cfa -8 + ^
STACK CFI INIT 5b708 70 .cfa: sp 0 + .ra: lr
STACK CFI 5b70a .cfa: sp 24 +
STACK CFI 5b70e .ra: .cfa -4 + ^ r3: .cfa -24 + ^ r4: .cfa -20 + ^ r5: .cfa -16 + ^ r6: .cfa -12 + ^ r7: .cfa -8 + ^
STACK CFI INIT 5b778 16 .cfa: sp 0 + .ra: lr
STACK CFI 5b77c .cfa: sp 4 +
STACK CFI 5b77e r4: .cfa -4 + ^
STACK CFI INIT 5b790 6 .cfa: sp 0 + .ra: lr
STACK CFI 5b792 .cfa: sp 8 + .ra: .cfa -4 + ^ r3: .cfa -8 + ^
STACK CFI INIT 5b798 12 .cfa: sp 0 + .ra: lr
STACK CFI 5b79c .cfa: sp 8 +
STACK CFI 5b79e .ra: .cfa -4 + ^ r4: .cfa -8 + ^
STACK CFI INIT 5b7ac 12 .cfa: sp 0 + .ra: lr
STACK CFI 5b7b0 .cfa: sp 8 +
STACK CFI 5b7b2 .ra: .cfa -4 + ^ r4: .cfa -8 + ^
STACK CFI INIT 5b7c0 4 .cfa: sp 0 + .ra: lr
STACK CFI INIT 5b7c4 46 .cfa: sp 0 + .ra: lr
STACK CFI 5b7c6 .cfa: sp 16 +
STACK CFI 5b7c8 .ra: .cfa -4 + ^ r4: .cfa -16 + ^ r5: .cfa -12 + ^ r6: .cfa -8 + ^
STACK CFI 5b7ce .cfa: sp 24 +
STACK CFI INIT 5b80c ac .cfa: sp 0 + .ra: lr
STACK CFI 5b80e .cfa: sp 20 +
STACK CFI 5b810 .ra: .cfa -4 + ^ r4: .cfa -20 + ^ r5: .cfa -16 + ^ r6: .cfa -12 + ^ r7: .cfa -8 + ^
STACK CFI 5b824 .cfa: sp 48 +
STACK CFI INIT 5b8b8 ce .cfa: sp 0 + .ra: lr
STACK CFI 5b8ba .cfa: sp 8 +
STACK CFI 5b8bc .cfa: sp 28 +
STACK CFI 5b8be .ra: .cfa -12 + ^ r4: .cfa -28 + ^ r5: .cfa -24 + ^ r6: .cfa -20 + ^ r7: .cfa -16 + ^
STACK CFI 5b8c0 .cfa: sp 80 +
STACK CFI INIT 5b988 ac .cfa: sp 0 + .ra: lr
STACK CFI 5b98a .cfa: sp 16 +
STACK CFI 5b98c .ra: .cfa -4 + ^ r4: .cfa -16 + ^ r5: .cfa -12 + ^ r6: .cfa -8 + ^
STACK CFI 5b990 .cfa: sp 40 +
STACK CFI INIT 5ba34 26 .cfa: sp 0 + .ra: lr
STACK CFI 5ba38 .cfa: sp 16 +
STACK CFI 5ba3a .ra: .cfa -4 + ^ r3: .cfa -16 + ^ r4: .cfa -12 + ^ r5: .cfa -8 + ^
STACK CFI INIT 5ba5c 70 .cfa: sp 0 + .ra: lr
STACK CFI 5ba5e .cfa: sp 16 +
STACK CFI 5ba62 .ra: .cfa -4 + ^ r4: .cfa -16 + ^ r5: .cfa -12 + ^ r6: .cfa -8 + ^
STACK CFI INIT 5bacc 102 .cfa: sp 0 + .ra: lr
STACK CFI 5bace .cfa: sp 24 +
STACK CFI 5bad0 .ra: .cfa -4 + ^ r3: .cfa -24 + ^ r4: .cfa -20 + ^ r5: .cfa -16 + ^ r6: .cfa -12 + ^ r7: .cfa -8 + ^
STACK CFI INIT 5bbd0 a8 .cfa: sp 0 + .ra: lr
STACK CFI 5bbd2 .cfa: sp 12 +
STACK CFI 5bbd4 .ra: .cfa -4 + ^ r4: .cfa -12 + ^ r5: .cfa -8 + ^
STACK CFI 5bbd6 .cfa: sp 24 +
STACK CFI INIT 5bc78 b2 .cfa: sp 0 + .ra: lr
STACK CFI 5bc7a .cfa: sp 12 +
STACK CFI 5bc7c .ra: .cfa -4 + ^ r4: .cfa -12 + ^ r5: .cfa -8 + ^
STACK CFI 5bc7e .cfa: sp 24 +
STACK CFI INIT 5bd2c ba .cfa: sp 0 + .ra: lr
STACK CFI 5bd2e .cfa: sp 12 +
STACK CFI 5bd30 .ra: .cfa -4 + ^ r4: .cfa -12 + ^ r5: .cfa -8 + ^
STACK CFI 5bd32 .cfa: sp 24 +
STACK CFI INIT 5bde8 da .cfa: sp 0 + .ra: lr
STACK CFI 5bdea .cfa: sp 16 +
STACK CFI 5bdec .ra: .cfa -4 + ^ r4: .cfa -16 + ^ r5: .cfa -12 + ^ r6: .cfa -8 + ^
STACK CFI 5bdee .cfa: sp 24 +
STACK CFI INIT 5bec4 ae .cfa: sp 0 + .ra: lr
STACK CFI 5bec6 .cfa: sp 16 +
STACK CFI 5bec8 .ra: .cfa -4 + ^ r4: .cfa -16 + ^ r5: .cfa -12 + ^ r6: .cfa -8 + ^
STACK CFI 5beca .cfa: sp 24 +
STACK CFI INIT 5bf74 b4 .cfa: sp 0 + .ra: lr
STACK CFI 5bf76 .cfa: sp 12 +
STACK CFI 5bf78 .ra: .cfa -4 + ^ r4: .cfa -12 + ^ r5: .cfa -8 + ^
STACK CFI 5bf7a .cfa: sp 24 +
STACK CFI INIT 0 b4 .cfa: sp 0 + .ra: lr
STACK CFI 2 .cfa: sp 12 +
STACK CFI 4 .ra: .cfa -4 + ^ r4: .cfa -12 + ^ r5: .cfa -8 + ^
STACK CFI 6 .cfa: sp 24 +
STACK CFI INIT 5c028 13a .cfa: sp 0 + .ra: lr
STACK CFI 5c02c .cfa: sp 24 +
STACK CFI 5c02e .ra: .cfa -4 + ^ r4: .cfa -24 + ^ r5: .cfa -20 + ^ r6: .cfa -16 + ^ r7: .cfa -12 + ^ r8: .cfa -8 + ^
STACK CFI 5c030 .cfa: sp 32 +
STACK CFI INIT 5c164 3e .cfa: sp 0 + .ra: lr
STACK CFI 5c166 .cfa: sp 16 +
STACK CFI 5c168 .ra: .cfa -4 + ^ r4: .cfa -16 + ^ r5: .cfa -12 + ^ r6: .cfa -8 + ^
STACK CFI INIT 5c1a4 12e .cfa: sp 0 + .ra: lr
STACK CFI 5c1a8 .cfa: sp 28 +
STACK CFI 5c1aa .ra: .cfa -4 + ^ r4: .cfa -28 + ^ r5: .cfa -24 + ^ r6: .cfa -20 + ^ r7: .cfa -16 + ^ r8: .cfa -12 + ^ r9: .cfa -8 + ^
STACK CFI 5c1ac .cfa: sp 40 +
STACK CFI INIT 5c2d4 46 .cfa: sp 0 + .ra: lr
STACK CFI 5c2d6 .cfa: sp 16 +
STACK CFI 5c2d8 .ra: .cfa -4 + ^ r4: .cfa -16 + ^ r5: .cfa -12 + ^ r6: .cfa -8 + ^
STACK CFI 5c2de .cfa: sp 24 +
STACK CFI INIT 5c31c ce .cfa: sp 0 + .ra: lr
STACK CFI 5c31e .cfa: sp 12 +
STACK CFI 5c320 .ra: .cfa -4 + ^ r4: .cfa -12 + ^ r5: .cfa -8 + ^
STACK CFI 5c322 .cfa: sp 24 +
STACK CFI INIT 5c3ec ca .cfa: sp 0 + .ra: lr
STACK CFI 5c3ee .cfa: sp 12 +
STACK CFI 5c3f0 .ra: .cfa -4 + ^ r4: .cfa -12 + ^ r5: .cfa -8 + ^
STACK CFI 5c3f2 .cfa: sp 24 +
STACK CFI INIT 5c4b8 ba .cfa: sp 0 + .ra: lr
STACK CFI 5c4ba .cfa: sp 12 +
STACK CFI 5c4bc .ra: .cfa -4 + ^ r4: .cfa -12 + ^ r5: .cfa -8 + ^
STACK CFI 5c4be .cfa: sp 24 +
STACK CFI INIT 5c574 e4 .cfa: sp 0 + .ra: lr
STACK CFI 5c576 .cfa: sp 20 +
STACK CFI 5c578 .ra: .cfa -4 + ^ r4: .cfa -20 + ^ r5: .cfa -16 + ^ r6: .cfa -12 + ^ r7: .cfa -8 + ^
STACK CFI 5c57a .cfa: sp 88 +
STACK CFI INIT 5c658 118 .cfa: sp 0 + .ra: lr
STACK CFI 5c65a .cfa: sp 20 +
STACK CFI 5c65c .ra: .cfa -4 + ^ r4: .cfa -20 + ^ r5: .cfa -16 + ^ r6: .cfa -12 + ^ r7: .cfa -8 + ^
STACK CFI 5c65e .cfa: sp 88 +
STACK CFI INIT 5c770 4 .cfa: sp 0 + .ra: lr
STACK CFI INIT 5c774 a6 .cfa: sp 0 + .ra: lr
STACK CFI 5c776 .cfa: sp 16 +
STACK CFI 5c778 .ra: .cfa -4 + ^ r4: .cfa -16 + ^ r5: .cfa -12 + ^ r6: .cfa -8 + ^
STACK CFI 5c77a .cfa: sp 24 +
STACK CFI INIT 5c81c b4 .cfa: sp 0 + .ra: lr
STACK CFI 5c81e .cfa: sp 12 +
STACK CFI 5c820 .ra: .cfa -4 + ^ r4: .cfa -12 + ^ r5: .cfa -8 + ^
STACK CFI 5c822 .cfa: sp 24 +
STACK CFI INIT 5c8d0 4 .cfa: sp 0 + .ra: lr
STACK CFI INIT 5c8d4 4 .cfa: sp 0 + .ra: lr
STACK CFI INIT 5c8d8 4 .cfa: sp 0 + .ra: lr
STACK CFI INIT 5c8dc 4 .cfa: sp 0 + .ra: lr
STACK CFI INIT 5c8e0 46 .cfa: sp 0 + .ra: lr
STACK CFI 5c8e2 .cfa: sp 24 +
STACK CFI 5c8e4 .ra: .cfa -4 + ^ r3: .cfa -24 + ^ r4: .cfa -20 + ^ r5: .cfa -16 + ^ r6: .cfa -12 + ^ r7: .cfa -8 + ^
STACK CFI INIT 5c928 10 .cfa: sp 0 + .ra: lr
STACK CFI INIT 5c938 12 .cfa: sp 0 + .ra: lr
STACK CFI INIT 5c94c 46 .cfa: sp 0 + .ra: lr
STACK CFI INIT 5c994 c .cfa: sp 0 + .ra: lr
STACK CFI INIT 5c9a0 c .cfa: sp 0 + .ra: lr
STACK CFI INIT 5c9ac d8 .cfa: sp 0 + .ra: lr
STACK CFI 5c9ae .cfa: sp 20 +
STACK CFI 5c9b0 .ra: .cfa -4 + ^ r4: .cfa -20 + ^ r5: .cfa -16 + ^ r6: .cfa -12 + ^ r7: .cfa -8 + ^
STACK CFI 5c9b2 .cfa: sp 80 +
STACK CFI INIT 5ca84 4 .cfa: sp 0 + .ra: lr
STACK CFI INIT 5ca88 d8 .cfa: sp 0 + .ra: lr
STACK CFI 5ca8a .cfa: sp 20 +
STACK CFI 5ca8c .ra: .cfa -4 + ^ r4: .cfa -20 + ^ r5: .cfa -16 + ^ r6: .cfa -12 + ^ r7: .cfa -8 + ^
STACK CFI 5ca8e .cfa: sp 80 +
STACK CFI INIT 5cb60 4 .cfa: sp 0 + .ra: lr
STACK CFI INIT 5cb64 d8 .cfa: sp 0 + .ra: lr
STACK CFI 5cb66 .cfa: sp 20 +
STACK CFI 5cb68 .ra: .cfa -4 + ^ r4: .cfa -20 + ^ r5: .cfa -16 + ^ r6: .cfa -12 + ^ r7: .cfa -8 + ^
STACK CFI 5cb6a .cfa: sp 80 +
STACK CFI INIT 5cc3c 4 .cfa: sp 0 + .ra: lr
STACK CFI INIT 5cc40 d8 .cfa: sp 0 + .ra: lr
STACK CFI 5cc42 .cfa: sp 20 +
STACK CFI 5cc44 .ra: .cfa -4 + ^ r4: .cfa -20 + ^ r5: .cfa -16 + ^ r6: .cfa -12 + ^ r7: .cfa -8 + ^
STACK CFI 5cc46 .cfa: sp 80 +
STACK CFI INIT 5cd18 4 .cfa: sp 0 + .ra: lr
STACK CFI INIT 5cd1c d8 .cfa: sp 0 + .ra: lr
STACK CFI 5cd1e .cfa: sp 20 +
STACK CFI 5cd20 .ra: .cfa -4 + ^ r4: .cfa -20 + ^ r5: .cfa -16 + ^ r6: .cfa -12 + ^ r7: .cfa -8 + ^
STACK CFI 5cd22 .cfa: sp 80 +
STACK CFI INIT 5cdf4 4 .cfa: sp 0 + .ra: lr
STACK CFI INIT 5cdf8 d8 .cfa: sp 0 + .ra: lr
STACK CFI 5cdfa .cfa: sp 20 +
STACK CFI 5cdfc .ra: .cfa -4 + ^ r4: .cfa -20 + ^ r5: .cfa -16 + ^ r6: .cfa -12 + ^ r7: .cfa -8 + ^
STACK CFI 5cdfe .cfa: sp 80 +
STACK CFI INIT 5ced0 4 .cfa: sp 0 + .ra: lr
STACK CFI INIT 5ced4 d8 .cfa: sp 0 + .ra: lr
STACK CFI 5ced6 .cfa: sp 20 +
STACK CFI 5ced8 .ra: .cfa -4 + ^ r4: .cfa -20 + ^ r5: .cfa -16 + ^ r6: .cfa -12 + ^ r7: .cfa -8 + ^
STACK CFI 5ceda .cfa: sp 80 +
STACK CFI INIT 5cfac 4 .cfa: sp 0 + .ra: lr
STACK CFI INIT 5cfb0 d8 .cfa: sp 0 + .ra: lr
STACK CFI 5cfb2 .cfa: sp 20 +
STACK CFI 5cfb4 .ra: .cfa -4 + ^ r4: .cfa -20 + ^ r5: .cfa -16 + ^ r6: .cfa -12 + ^ r7: .cfa -8 + ^
STACK CFI 5cfb6 .cfa: sp 80 +
STACK CFI INIT 5d088 4 .cfa: sp 0 + .ra: lr
STACK CFI INIT 5d08c d8 .cfa: sp 0 + .ra: lr
STACK CFI 5d08e .cfa: sp 20 +
STACK CFI 5d090 .ra: .cfa -4 + ^ r4: .cfa -20 + ^ r5: .cfa -16 + ^ r6: .cfa -12 + ^ r7: .cfa -8 + ^
STACK CFI 5d092 .cfa: sp 80 +
STACK CFI INIT 5d164 4 .cfa: sp 0 + .ra: lr
STACK CFI INIT 5d168 d8 .cfa: sp 0 + .ra: lr
STACK CFI 5d16a .cfa: sp 20 +
STACK CFI 5d16c .ra: .cfa -4 + ^ r4: .cfa -20 + ^ r5: .cfa -16 + ^ r6: .cfa -12 + ^ r7: .cfa -8 + ^
STACK CFI 5d16e .cfa: sp 80 +
STACK CFI INIT 5d240 4 .cfa: sp 0 + .ra: lr
STACK CFI INIT 5d244 d8 .cfa: sp 0 + .ra: lr
STACK CFI 5d246 .cfa: sp 20 +
STACK CFI 5d248 .ra: .cfa -4 + ^ r4: .cfa -20 + ^ r5: .cfa -16 + ^ r6: .cfa -12 + ^ r7: .cfa -8 + ^
STACK CFI 5d24a .cfa: sp 80 +
STACK CFI INIT 5d31c 4 .cfa: sp 0 + .ra: lr
STACK CFI INIT 5d320 2a .cfa: sp 0 + .ra: lr
STACK CFI 5d326 .cfa: sp 8 +
STACK CFI 5d328 .ra: .cfa -4 + ^ r4: .cfa -8 + ^
STACK CFI INIT 5d34c 6c .cfa: sp 0 + .ra: lr
STACK CFI 5d34e .cfa: sp 24 +
STACK CFI 5d352 .ra: .cfa -4 + ^ r3: .cfa -24 + ^ r4: .cfa -20 + ^ r5: .cfa -16 + ^ r6: .cfa -12 + ^ r7: .cfa -8 + ^
STACK CFI INIT 5d3b8 16 .cfa: sp 0 + .ra: lr
STACK CFI 5d3bc .cfa: sp 4 +
STACK CFI 5d3be r4: .cfa -4 + ^
STACK CFI INIT 5d3d0 6 .cfa: sp 0 + .ra: lr
STACK CFI 5d3d2 .cfa: sp 8 + .ra: .cfa -4 + ^ r3: .cfa -8 + ^
STACK CFI INIT 5d3d8 12 .cfa: sp 0 + .ra: lr
STACK CFI 5d3dc .cfa: sp 8 +
STACK CFI 5d3de .ra: .cfa -4 + ^ r4: .cfa -8 + ^
STACK CFI INIT 5d3ec 12 .cfa: sp 0 + .ra: lr
STACK CFI 5d3f0 .cfa: sp 8 +
STACK CFI 5d3f2 .ra: .cfa -4 + ^ r4: .cfa -8 + ^
STACK CFI INIT 5d400 4 .cfa: sp 0 + .ra: lr
STACK CFI INIT 5d404 32 .cfa: sp 0 + .ra: lr
STACK CFI 5d406 .cfa: sp 16 +
STACK CFI 5d408 .ra: .cfa -4 + ^ r4: .cfa -16 + ^ r5: .cfa -12 + ^ r6: .cfa -8 + ^
STACK CFI INIT 5d438 ac .cfa: sp 0 + .ra: lr
STACK CFI 5d43a .cfa: sp 20 +
STACK CFI 5d43c .ra: .cfa -4 + ^ r4: .cfa -20 + ^ r5: .cfa -16 + ^ r6: .cfa -12 + ^ r7: .cfa -8 + ^
STACK CFI 5d450 .cfa: sp 48 +
STACK CFI INIT 5d4e4 ce .cfa: sp 0 + .ra: lr
STACK CFI 5d4e6 .cfa: sp 8 +
STACK CFI 5d4e8 .cfa: sp 28 +
STACK CFI 5d4ea .ra: .cfa -12 + ^ r4: .cfa -28 + ^ r5: .cfa -24 + ^ r6: .cfa -20 + ^ r7: .cfa -16 + ^
STACK CFI 5d4ec .cfa: sp 80 +
STACK CFI INIT 5d5b4 ac .cfa: sp 0 + .ra: lr
STACK CFI 5d5b6 .cfa: sp 16 +
STACK CFI 5d5b8 .ra: .cfa -4 + ^ r4: .cfa -16 + ^ r5: .cfa -12 + ^ r6: .cfa -8 + ^
STACK CFI 5d5bc .cfa: sp 40 +
STACK CFI INIT 5d660 26 .cfa: sp 0 + .ra: lr
STACK CFI 5d664 .cfa: sp 16 +
STACK CFI 5d666 .ra: .cfa -4 + ^ r3: .cfa -16 + ^ r4: .cfa -12 + ^ r5: .cfa -8 + ^
STACK CFI INIT 5d688 70 .cfa: sp 0 + .ra: lr
STACK CFI 5d68a .cfa: sp 16 +
STACK CFI 5d68e .ra: .cfa -4 + ^ r4: .cfa -16 + ^ r5: .cfa -12 + ^ r6: .cfa -8 + ^
STACK CFI INIT 5d6f8 100 .cfa: sp 0 + .ra: lr
STACK CFI 5d6fc .cfa: sp 24 +
STACK CFI 5d6fe .ra: .cfa -4 + ^ r4: .cfa -24 + ^ r5: .cfa -20 + ^ r6: .cfa -16 + ^ r7: .cfa -12 + ^ r8: .cfa -8 + ^
STACK CFI INIT 5d7f8 a8 .cfa: sp 0 + .ra: lr
STACK CFI 5d7fa .cfa: sp 12 +
STACK CFI 5d7fc .ra: .cfa -4 + ^ r4: .cfa -12 + ^ r5: .cfa -8 + ^
STACK CFI 5d7fe .cfa: sp 24 +
STACK CFI INIT 5d8a0 b8 .cfa: sp 0 + .ra: lr
STACK CFI 5d8a2 .cfa: sp 12 +
STACK CFI 5d8a4 .ra: .cfa -4 + ^ r4: .cfa -12 + ^ r5: .cfa -8 + ^
STACK CFI 5d8a6 .cfa: sp 24 +
STACK CFI INIT 5d958 be .cfa: sp 0 + .ra: lr
STACK CFI 5d95a .cfa: sp 12 +
STACK CFI 5d95c .ra: .cfa -4 + ^ r4: .cfa -12 + ^ r5: .cfa -8 + ^
STACK CFI 5d95e .cfa: sp 24 +
STACK CFI INIT 5da18 dc .cfa: sp 0 + .ra: lr
STACK CFI 5da1a .cfa: sp 16 +
STACK CFI 5da1c .ra: .cfa -4 + ^ r4: .cfa -16 + ^ r5: .cfa -12 + ^ r6: .cfa -8 + ^
STACK CFI 5da1e .cfa: sp 24 +
STACK CFI INIT 5daf4 ae .cfa: sp 0 + .ra: lr
STACK CFI 5daf6 .cfa: sp 16 +
STACK CFI 5daf8 .ra: .cfa -4 + ^ r4: .cfa -16 + ^ r5: .cfa -12 + ^ r6: .cfa -8 + ^
STACK CFI 5dafa .cfa: sp 24 +
STACK CFI INIT 5dba4 b6 .cfa: sp 0 + .ra: lr
STACK CFI 5dba6 .cfa: sp 12 +
STACK CFI 5dba8 .ra: .cfa -4 + ^ r4: .cfa -12 + ^ r5: .cfa -8 + ^
STACK CFI 5dbaa .cfa: sp 24 +
STACK CFI INIT 0 b6 .cfa: sp 0 + .ra: lr
STACK CFI 2 .cfa: sp 12 +
STACK CFI 4 .ra: .cfa -4 + ^ r4: .cfa -12 + ^ r5: .cfa -8 + ^
STACK CFI 6 .cfa: sp 24 +
STACK CFI INIT 5dc5c 13a .cfa: sp 0 + .ra: lr
STACK CFI 5dc60 .cfa: sp 24 +
STACK CFI 5dc62 .ra: .cfa -4 + ^ r4: .cfa -24 + ^ r5: .cfa -20 + ^ r6: .cfa -16 + ^ r7: .cfa -12 + ^ r8: .cfa -8 + ^
STACK CFI 5dc64 .cfa: sp 32 +
STACK CFI INIT 5dd98 2e .cfa: sp 0 + .ra: lr
STACK CFI 5dd9a .cfa: sp 16 +
STACK CFI 5dd9c .ra: .cfa -4 + ^ r4: .cfa -16 + ^ r5: .cfa -12 + ^ r6: .cfa -8 + ^
STACK CFI INIT 5ddc8 130 .cfa: sp 0 + .ra: lr
STACK CFI 5ddcc .cfa: sp 28 +
STACK CFI 5ddce .ra: .cfa -4 + ^ r4: .cfa -28 + ^ r5: .cfa -24 + ^ r6: .cfa -20 + ^ r7: .cfa -16 + ^ r8: .cfa -12 + ^ r9: .cfa -8 + ^
STACK CFI 5ddd0 .cfa: sp 40 +
STACK CFI INIT 5def8 32 .cfa: sp 0 + .ra: lr
STACK CFI 5defa .cfa: sp 16 +
STACK CFI 5defc .ra: .cfa -4 + ^ r4: .cfa -16 + ^ r5: .cfa -12 + ^ r6: .cfa -8 + ^
STACK CFI INIT 5df2c d0 .cfa: sp 0 + .ra: lr
STACK CFI 5df2e .cfa: sp 12 +
STACK CFI 5df30 .ra: .cfa -4 + ^ r4: .cfa -12 + ^ r5: .cfa -8 + ^
STACK CFI 5df32 .cfa: sp 24 +
STACK CFI INIT 5dffc d2 .cfa: sp 0 + .ra: lr
STACK CFI 5dffe .cfa: sp 12 +
STACK CFI 5e000 .ra: .cfa -4 + ^ r4: .cfa -12 + ^ r5: .cfa -8 + ^
STACK CFI 5e002 .cfa: sp 24 +
STACK CFI INIT 5e0d0 ba .cfa: sp 0 + .ra: lr
STACK CFI 5e0d2 .cfa: sp 12 +
STACK CFI 5e0d4 .ra: .cfa -4 + ^ r4: .cfa -12 + ^ r5: .cfa -8 + ^
STACK CFI 5e0d6 .cfa: sp 24 +
STACK CFI INIT 5e18c e4 .cfa: sp 0 + .ra: lr
STACK CFI 5e18e .cfa: sp 20 +
STACK CFI 5e190 .ra: .cfa -4 + ^ r4: .cfa -20 + ^ r5: .cfa -16 + ^ r6: .cfa -12 + ^ r7: .cfa -8 + ^
STACK CFI 5e192 .cfa: sp 88 +
STACK CFI INIT 5e270 118 .cfa: sp 0 + .ra: lr
STACK CFI 5e272 .cfa: sp 20 +
STACK CFI 5e274 .ra: .cfa -4 + ^ r4: .cfa -20 + ^ r5: .cfa -16 + ^ r6: .cfa -12 + ^ r7: .cfa -8 + ^
STACK CFI 5e276 .cfa: sp 88 +
STACK CFI INIT 5e388 4 .cfa: sp 0 + .ra: lr
STACK CFI INIT 5e38c b0 .cfa: sp 0 + .ra: lr
STACK CFI 5e38e .cfa: sp 20 +
STACK CFI 5e390 .ra: .cfa -4 + ^ r4: .cfa -20 + ^ r5: .cfa -16 + ^ r6: .cfa -12 + ^ r7: .cfa -8 + ^
STACK CFI 5e392 .cfa: sp 32 +
STACK CFI INIT 5e43c b6 .cfa: sp 0 + .ra: lr
STACK CFI 5e43e .cfa: sp 12 +
STACK CFI 5e440 .ra: .cfa -4 + ^ r4: .cfa -12 + ^ r5: .cfa -8 + ^
STACK CFI 5e442 .cfa: sp 24 +
STACK CFI INIT 5e4f4 226 .cfa: sp 0 + .ra: lr
STACK CFI 5e4f8 .cfa: sp 36 +
STACK CFI 5e4fa .ra: .cfa -4 + ^ r10: .cfa -12 + ^ r11: .cfa -8 + ^ r4: .cfa -36 + ^ r5: .cfa -32 + ^ r6: .cfa -28 + ^ r7: .cfa -24 + ^ r8: .cfa -20 + ^ r9: .cfa -16 + ^
STACK CFI 5e4fc .cfa: sp 56 +
STACK CFI INIT 5e71c 38 .cfa: sp 0 + .ra: lr
STACK CFI 5e71e .cfa: sp 16 +
STACK CFI 5e720 .ra: .cfa -4 + ^ r4: .cfa -16 + ^ r5: .cfa -12 + ^ r6: .cfa -8 + ^
STACK CFI INIT 5e754 10 .cfa: sp 0 + .ra: lr
STACK CFI INIT 5e764 12 .cfa: sp 0 + .ra: lr
STACK CFI INIT 5e778 46 .cfa: sp 0 + .ra: lr
STACK CFI INIT 5e7c0 c .cfa: sp 0 + .ra: lr
STACK CFI INIT 5e7cc c .cfa: sp 0 + .ra: lr
STACK CFI INIT 5e7d8 d8 .cfa: sp 0 + .ra: lr
STACK CFI 5e7da .cfa: sp 20 +
STACK CFI 5e7dc .ra: .cfa -4 + ^ r4: .cfa -20 + ^ r5: .cfa -16 + ^ r6: .cfa -12 + ^ r7: .cfa -8 + ^
STACK CFI 5e7de .cfa: sp 80 +
STACK CFI INIT 5e8b0 4 .cfa: sp 0 + .ra: lr
STACK CFI INIT 5e8b4 d8 .cfa: sp 0 + .ra: lr
STACK CFI 5e8b6 .cfa: sp 20 +
STACK CFI 5e8b8 .ra: .cfa -4 + ^ r4: .cfa -20 + ^ r5: .cfa -16 + ^ r6: .cfa -12 + ^ r7: .cfa -8 + ^
STACK CFI 5e8ba .cfa: sp 80 +
STACK CFI INIT 5e98c 4 .cfa: sp 0 + .ra: lr
STACK CFI INIT 5e990 d8 .cfa: sp 0 + .ra: lr
STACK CFI 5e992 .cfa: sp 20 +
STACK CFI 5e994 .ra: .cfa -4 + ^ r4: .cfa -20 + ^ r5: .cfa -16 + ^ r6: .cfa -12 + ^ r7: .cfa -8 + ^
STACK CFI 5e996 .cfa: sp 80 +
STACK CFI INIT 5ea68 4 .cfa: sp 0 + .ra: lr
STACK CFI INIT 5ea6c d8 .cfa: sp 0 + .ra: lr
STACK CFI 5ea6e .cfa: sp 20 +
STACK CFI 5ea70 .ra: .cfa -4 + ^ r4: .cfa -20 + ^ r5: .cfa -16 + ^ r6: .cfa -12 + ^ r7: .cfa -8 + ^
STACK CFI 5ea72 .cfa: sp 80 +
STACK CFI INIT 5eb44 4 .cfa: sp 0 + .ra: lr
STACK CFI INIT 5eb48 d8 .cfa: sp 0 + .ra: lr
STACK CFI 5eb4a .cfa: sp 20 +
STACK CFI 5eb4c .ra: .cfa -4 + ^ r4: .cfa -20 + ^ r5: .cfa -16 + ^ r6: .cfa -12 + ^ r7: .cfa -8 + ^
STACK CFI 5eb4e .cfa: sp 80 +
STACK CFI INIT 5ec20 4 .cfa: sp 0 + .ra: lr
STACK CFI INIT 5ec24 d8 .cfa: sp 0 + .ra: lr
STACK CFI 5ec26 .cfa: sp 20 +
STACK CFI 5ec28 .ra: .cfa -4 + ^ r4: .cfa -20 + ^ r5: .cfa -16 + ^ r6: .cfa -12 + ^ r7: .cfa -8 + ^
STACK CFI 5ec2a .cfa: sp 80 +
STACK CFI INIT 5ecfc 4 .cfa: sp 0 + .ra: lr
STACK CFI INIT 5ed00 d8 .cfa: sp 0 + .ra: lr
STACK CFI 5ed02 .cfa: sp 20 +
STACK CFI 5ed04 .ra: .cfa -4 + ^ r4: .cfa -20 + ^ r5: .cfa -16 + ^ r6: .cfa -12 + ^ r7: .cfa -8 + ^
STACK CFI 5ed06 .cfa: sp 80 +
STACK CFI INIT 5edd8 4 .cfa: sp 0 + .ra: lr
STACK CFI INIT 5eddc d8 .cfa: sp 0 + .ra: lr
STACK CFI 5edde .cfa: sp 20 +
STACK CFI 5ede0 .ra: .cfa -4 + ^ r4: .cfa -20 + ^ r5: .cfa -16 + ^ r6: .cfa -12 + ^ r7: .cfa -8 + ^
STACK CFI 5ede2 .cfa: sp 80 +
STACK CFI INIT 5eeb4 4 .cfa: sp 0 + .ra: lr
STACK CFI INIT 5eeb8 d8 .cfa: sp 0 + .ra: lr
STACK CFI 5eeba .cfa: sp 20 +
STACK CFI 5eebc .ra: .cfa -4 + ^ r4: .cfa -20 + ^ r5: .cfa -16 + ^ r6: .cfa -12 + ^ r7: .cfa -8 + ^
STACK CFI 5eebe .cfa: sp 80 +
STACK CFI INIT 5ef90 4 .cfa: sp 0 + .ra: lr
STACK CFI INIT 5ef94 d8 .cfa: sp 0 + .ra: lr
STACK CFI 5ef96 .cfa: sp 20 +
STACK CFI 5ef98 .ra: .cfa -4 + ^ r4: .cfa -20 + ^ r5: .cfa -16 + ^ r6: .cfa -12 + ^ r7: .cfa -8 + ^
STACK CFI 5ef9a .cfa: sp 80 +
STACK CFI INIT 5f06c 4 .cfa: sp 0 + .ra: lr
STACK CFI INIT 5f070 d8 .cfa: sp 0 + .ra: lr
STACK CFI 5f072 .cfa: sp 20 +
STACK CFI 5f074 .ra: .cfa -4 + ^ r4: .cfa -20 + ^ r5: .cfa -16 + ^ r6: .cfa -12 + ^ r7: .cfa -8 + ^
STACK CFI 5f076 .cfa: sp 80 +
STACK CFI INIT 5f148 4 .cfa: sp 0 + .ra: lr
STACK CFI INIT 5b6d0 a .cfa: sp 0 + .ra: lr
STACK CFI INIT 5b688 a .cfa: sp 0 + .ra: lr
STACK CFI INIT 5b618 a .cfa: sp 0 + .ra: lr
STACK CFI INIT 5b5d4 a .cfa: sp 0 + .ra: lr
STACK CFI INIT 5f14c 16 .cfa: sp 0 + .ra: lr
STACK CFI 5f154 .cfa: sp 8 +
STACK CFI 5f158 .ra: .cfa -4 + ^ r3: .cfa -8 + ^
STACK CFI INIT 5f164 188 .cfa: sp 0 + .ra: lr
STACK CFI 5f168 .cfa: sp 32 +
STACK CFI 5f16a .ra: .cfa -4 + ^ r10: .cfa -8 + ^ r4: .cfa -32 + ^ r5: .cfa -28 + ^ r6: .cfa -24 + ^ r7: .cfa -20 + ^ r8: .cfa -16 + ^ r9: .cfa -12 + ^
STACK CFI 5f16c .cfa: sp 40 +
STACK CFI INIT 5f2ec 1da .cfa: sp 0 + .ra: lr
STACK CFI 5f2f0 .cfa: sp 36 +
STACK CFI 5f2f6 .cfa: sp 64 +
STACK CFI 5f2f8 .ra: .cfa -4 + ^ r10: .cfa -12 + ^ r11: .cfa -8 + ^ r4: .cfa -36 + ^ r5: .cfa -32 + ^ r6: .cfa -28 + ^ r7: .cfa -24 + ^ r8: .cfa -20 + ^ r9: .cfa -16 + ^
STACK CFI INIT 5f4c8 24a .cfa: sp 0 + .ra: lr
STACK CFI 5f4cc .cfa: sp 32 +
STACK CFI 5f4ce .ra: .cfa -4 + ^ r10: .cfa -8 + ^ r4: .cfa -32 + ^ r5: .cfa -28 + ^ r6: .cfa -24 + ^ r7: .cfa -20 + ^ r8: .cfa -16 + ^ r9: .cfa -12 + ^
STACK CFI 5f4d0 .cfa: sp 40 +
STACK CFI INIT 5f714 2d0 .cfa: sp 0 + .ra: lr
STACK CFI 5f71c .cfa: sp 36 +
STACK CFI 5f71e .ra: .cfa -4 + ^ r10: .cfa -12 + ^ r11: .cfa -8 + ^ r4: .cfa -36 + ^ r5: .cfa -32 + ^ r6: .cfa -28 + ^ r7: .cfa -24 + ^ r8: .cfa -20 + ^ r9: .cfa -16 + ^
STACK CFI 5f720 .cfa: sp 56 +
STACK CFI INIT 5f9e4 238 .cfa: sp 0 + .ra: lr
STACK CFI 5f9e8 .cfa: sp 36 +
STACK CFI 5f9ea .cfa: sp 56 +
STACK CFI 5f9ee .ra: .cfa -4 + ^ r10: .cfa -12 + ^ r11: .cfa -8 + ^ r4: .cfa -36 + ^ r5: .cfa -32 + ^ r6: .cfa -28 + ^ r7: .cfa -24 + ^ r8: .cfa -20 + ^ r9: .cfa -16 + ^
STACK CFI INIT 5fc1c 1ae .cfa: sp 0 + .ra: lr
STACK CFI 5fc20 .cfa: sp 32 +
STACK CFI 5fc22 .ra: .cfa -4 + ^ r10: .cfa -8 + ^ r4: .cfa -32 + ^ r5: .cfa -28 + ^ r6: .cfa -24 + ^ r7: .cfa -20 + ^ r8: .cfa -16 + ^ r9: .cfa -12 + ^
STACK CFI 5fc24 .cfa: sp 40 +
STACK CFI INIT 5fdcc 1e8 .cfa: sp 0 + .ra: lr
STACK CFI 5fdd4 .cfa: sp 36 +
STACK CFI 5fdd6 .ra: .cfa -4 + ^ r10: .cfa -12 + ^ r11: .cfa -8 + ^ r4: .cfa -36 + ^ r5: .cfa -32 + ^ r6: .cfa -28 + ^ r7: .cfa -24 + ^ r8: .cfa -20 + ^ r9: .cfa -16 + ^
STACK CFI 5fdd8 .cfa: sp 56 +
STACK CFI INIT 5ffb4 258 .cfa: sp 0 + .ra: lr
STACK CFI 5ffb8 .cfa: sp 36 +
STACK CFI 5ffba .cfa: sp 64 +
STACK CFI 5ffbc .ra: .cfa -4 + ^ r10: .cfa -12 + ^ r11: .cfa -8 + ^ r4: .cfa -36 + ^ r5: .cfa -32 + ^ r6: .cfa -28 + ^ r7: .cfa -24 + ^ r8: .cfa -20 + ^ r9: .cfa -16 + ^
STACK CFI INIT 6020c 6 .cfa: sp 0 + .ra: lr
STACK CFI INIT 60214 6 .cfa: sp 0 + .ra: lr
STACK CFI INIT 6021c 6 .cfa: sp 0 + .ra: lr
STACK CFI INIT 60224 2c .cfa: sp 0 + .ra: lr
STACK CFI 60226 .cfa: sp 4 +
STACK CFI 60228 .cfa: sp 16 +
STACK CFI 6022a r4: .cfa -4 + ^
STACK CFI INIT 60250 2c .cfa: sp 0 + .ra: lr
STACK CFI 60252 .cfa: sp 4 +
STACK CFI 60254 .cfa: sp 16 +
STACK CFI 60256 r4: .cfa -4 + ^
STACK CFI INIT 6027c 6 .cfa: sp 0 + .ra: lr
STACK CFI INIT 60284 6 .cfa: sp 0 + .ra: lr
STACK CFI INIT 6028c 6 .cfa: sp 0 + .ra: lr
STACK CFI INIT 60294 2c .cfa: sp 0 + .ra: lr
STACK CFI 60296 .cfa: sp 4 +
STACK CFI 60298 .cfa: sp 16 +
STACK CFI 6029a r4: .cfa -4 + ^
STACK CFI INIT 602c0 2c .cfa: sp 0 + .ra: lr
STACK CFI 602c2 .cfa: sp 4 +
STACK CFI 602c4 .cfa: sp 16 +
STACK CFI 602c6 r4: .cfa -4 + ^
STACK CFI INIT 602ec 8 .cfa: sp 0 + .ra: lr
STACK CFI INIT 602f4 8 .cfa: sp 0 + .ra: lr
STACK CFI INIT 602fc 4 .cfa: sp 0 + .ra: lr
STACK CFI INIT 60300 2 .cfa: sp 0 + .ra: lr
STACK CFI INIT 60304 44 .cfa: sp 0 + .ra: lr
STACK CFI 60308 .cfa: sp 4 +
STACK CFI 6030a r4: .cfa -4 + ^
STACK CFI INIT 60348 20 .cfa: sp 0 + .ra: lr
STACK CFI 60350 .cfa: sp 8 +
STACK CFI 60352 .ra: .cfa -4 + ^ r4: .cfa -8 + ^
STACK CFI INIT 60368 28 .cfa: sp 0 + .ra: lr
STACK CFI 60370 .cfa: sp 8 +
STACK CFI 60372 .ra: .cfa -4 + ^ r4: .cfa -8 + ^
STACK CFI INIT 60390 20 .cfa: sp 0 + .ra: lr
STACK CFI 60398 .cfa: sp 8 +
STACK CFI 6039a .ra: .cfa -4 + ^ r4: .cfa -8 + ^
STACK CFI INIT 603b0 28 .cfa: sp 0 + .ra: lr
STACK CFI 603b8 .cfa: sp 8 +
STACK CFI 603ba .ra: .cfa -4 + ^ r4: .cfa -8 + ^
STACK CFI INIT 603d8 20 .cfa: sp 0 + .ra: lr
STACK CFI 603e0 .cfa: sp 8 +
STACK CFI 603e2 .ra: .cfa -4 + ^ r4: .cfa -8 + ^
STACK CFI INIT 603f8 20 .cfa: sp 0 + .ra: lr
STACK CFI 60400 .cfa: sp 8 +
STACK CFI 60402 .ra: .cfa -4 + ^ r4: .cfa -8 + ^
STACK CFI INIT 60418 28 .cfa: sp 0 + .ra: lr
STACK CFI 60420 .cfa: sp 8 +
STACK CFI 60422 .ra: .cfa -4 + ^ r4: .cfa -8 + ^
STACK CFI INIT 60440 20 .cfa: sp 0 + .ra: lr
STACK CFI 60448 .cfa: sp 8 +
STACK CFI 6044a .ra: .cfa -4 + ^ r4: .cfa -8 + ^
STACK CFI INIT 60460 20 .cfa: sp 0 + .ra: lr
STACK CFI 60468 .cfa: sp 8 +
STACK CFI 6046a .ra: .cfa -4 + ^ r4: .cfa -8 + ^
STACK CFI INIT 60480 28 .cfa: sp 0 + .ra: lr
STACK CFI 60488 .cfa: sp 8 +
STACK CFI 6048a .ra: .cfa -4 + ^ r4: .cfa -8 + ^
STACK CFI INIT 604a8 20 .cfa: sp 0 + .ra: lr
STACK CFI 604b0 .cfa: sp 8 +
STACK CFI 604b2 .ra: .cfa -4 + ^ r4: .cfa -8 + ^
STACK CFI INIT 604c8 12 .cfa: sp 0 + .ra: lr
STACK CFI 604ca .cfa: sp 8 +
STACK CFI 604cc .ra: .cfa -4 + ^ r4: .cfa -8 + ^
STACK CFI INIT 604dc 20 .cfa: sp 0 + .ra: lr
STACK CFI 604e4 .cfa: sp 8 +
STACK CFI 604e6 .ra: .cfa -4 + ^ r4: .cfa -8 + ^
STACK CFI INIT 604fc 28 .cfa: sp 0 + .ra: lr
STACK CFI 60504 .cfa: sp 8 +
STACK CFI 60506 .ra: .cfa -4 + ^ r4: .cfa -8 + ^
STACK CFI INIT 60524 20 .cfa: sp 0 + .ra: lr
STACK CFI 6052c .cfa: sp 8 +
STACK CFI 6052e .ra: .cfa -4 + ^ r4: .cfa -8 + ^
STACK CFI INIT 60544 28 .cfa: sp 0 + .ra: lr
STACK CFI 6054c .cfa: sp 8 +
STACK CFI 6054e .ra: .cfa -4 + ^ r4: .cfa -8 + ^
STACK CFI INIT 6056c 20 .cfa: sp 0 + .ra: lr
STACK CFI 60574 .cfa: sp 8 +
STACK CFI 60576 .ra: .cfa -4 + ^ r4: .cfa -8 + ^
STACK CFI INIT 6058c 28 .cfa: sp 0 + .ra: lr
STACK CFI 60594 .cfa: sp 8 +
STACK CFI 60596 .ra: .cfa -4 + ^ r4: .cfa -8 + ^
STACK CFI INIT 605b4 20 .cfa: sp 0 + .ra: lr
STACK CFI 605bc .cfa: sp 8 +
STACK CFI 605be .ra: .cfa -4 + ^ r4: .cfa -8 + ^
STACK CFI INIT 605d4 28 .cfa: sp 0 + .ra: lr
STACK CFI 605dc .cfa: sp 8 +
STACK CFI 605de .ra: .cfa -4 + ^ r4: .cfa -8 + ^
STACK CFI INIT 605fc 34 .cfa: sp 0 + .ra: lr
STACK CFI 60604 .cfa: sp 8 +
STACK CFI 60606 .ra: .cfa -4 + ^ r4: .cfa -8 + ^
STACK CFI INIT 60630 40 .cfa: sp 0 + .ra: lr
STACK CFI 6063c .cfa: sp 8 +
STACK CFI 6063e .ra: .cfa -4 + ^ r4: .cfa -8 + ^
STACK CFI INIT 60670 12 .cfa: sp 0 + .ra: lr
STACK CFI 60672 .cfa: sp 8 +
STACK CFI 60674 .ra: .cfa -4 + ^ r4: .cfa -8 + ^
STACK CFI INIT 60684 48 .cfa: sp 0 + .ra: lr
STACK CFI 60690 .cfa: sp 8 +
STACK CFI 60692 .ra: .cfa -4 + ^ r4: .cfa -8 + ^
STACK CFI INIT 606cc 12 .cfa: sp 0 + .ra: lr
STACK CFI 606ce .cfa: sp 8 +
STACK CFI 606d0 .ra: .cfa -4 + ^ r4: .cfa -8 + ^
STACK CFI INIT 606e0 48 .cfa: sp 0 + .ra: lr
STACK CFI 606ec .cfa: sp 8 +
STACK CFI 606ee .ra: .cfa -4 + ^ r4: .cfa -8 + ^
STACK CFI INIT 60728 12 .cfa: sp 0 + .ra: lr
STACK CFI 6072a .cfa: sp 8 +
STACK CFI 6072c .ra: .cfa -4 + ^ r4: .cfa -8 + ^
STACK CFI INIT 6073c 9c .cfa: sp 0 + .ra: lr
STACK CFI 60740 .cfa: sp 28 +
STACK CFI 60742 .cfa: sp 48 +
STACK CFI 60744 .ra: .cfa -4 + ^ r4: .cfa -28 + ^ r5: .cfa -24 + ^ r6: .cfa -20 + ^ r7: .cfa -16 + ^ r8: .cfa -12 + ^ r9: .cfa -8 + ^
STACK CFI INIT 607d8 20 .cfa: sp 0 + .ra: lr
STACK CFI 607e0 .cfa: sp 8 +
STACK CFI 607e2 .ra: .cfa -4 + ^ r4: .cfa -8 + ^
STACK CFI INIT 607f8 28 .cfa: sp 0 + .ra: lr
STACK CFI 60800 .cfa: sp 8 +
STACK CFI 60802 .ra: .cfa -4 + ^ r4: .cfa -8 + ^
STACK CFI INIT 60820 48 .cfa: sp 0 + .ra: lr
STACK CFI 60822 .cfa: sp 16 +
STACK CFI 60824 .ra: .cfa -4 + ^ r3: .cfa -16 + ^ r4: .cfa -12 + ^ r5: .cfa -8 + ^
STACK CFI INIT 60868 20 .cfa: sp 0 + .ra: lr
STACK CFI 60870 .cfa: sp 8 +
STACK CFI 60872 .ra: .cfa -4 + ^ r4: .cfa -8 + ^
STACK CFI INIT 60888 28 .cfa: sp 0 + .ra: lr
STACK CFI 60890 .cfa: sp 8 +
STACK CFI 60892 .ra: .cfa -4 + ^ r4: .cfa -8 + ^
STACK CFI INIT 608b0 12 .cfa: sp 0 + .ra: lr
STACK CFI 608b2 .cfa: sp 8 +
STACK CFI 608b4 .ra: .cfa -4 + ^ r4: .cfa -8 + ^
STACK CFI INIT 608c4 50 .cfa: sp 0 + .ra: lr
STACK CFI 608c6 .cfa: sp 16 +
STACK CFI 608c8 .ra: .cfa -4 + ^ r3: .cfa -16 + ^ r4: .cfa -12 + ^ r5: .cfa -8 + ^
STACK CFI INIT 60914 12 .cfa: sp 0 + .ra: lr
STACK CFI 60916 .cfa: sp 8 +
STACK CFI 60918 .ra: .cfa -4 + ^ r4: .cfa -8 + ^
STACK CFI INIT 60928 c .cfa: sp 0 + .ra: lr
STACK CFI 6092a .cfa: sp 8 +
STACK CFI 6092c .ra: .cfa -4 + ^ r3: .cfa -8 + ^
STACK CFI INIT 60934 20 .cfa: sp 0 + .ra: lr
STACK CFI 6093c .cfa: sp 8 +
STACK CFI 6093e .ra: .cfa -4 + ^ r4: .cfa -8 + ^
STACK CFI INIT 60954 28 .cfa: sp 0 + .ra: lr
STACK CFI 6095c .cfa: sp 8 +
STACK CFI 6095e .ra: .cfa -4 + ^ r4: .cfa -8 + ^
STACK CFI INIT 6097c 16 .cfa: sp 0 + .ra: lr
STACK CFI 60980 .cfa: sp 8 +
STACK CFI 60982 .cfa: sp 16 +
STACK CFI 60984 .ra: .cfa -4 + ^ r4: .cfa -8 + ^
STACK CFI INIT 60994 16 .cfa: sp 0 + .ra: lr
STACK CFI 60998 .cfa: sp 8 +
STACK CFI 6099a .cfa: sp 16 +
STACK CFI 6099c .ra: .cfa -4 + ^ r4: .cfa -8 + ^
STACK CFI INIT 609ac 16 .cfa: sp 0 + .ra: lr
STACK CFI 609b0 .cfa: sp 8 +
STACK CFI 609b2 .cfa: sp 16 +
STACK CFI 609b4 .ra: .cfa -4 + ^ r4: .cfa -8 + ^
STACK CFI INIT 609c4 16 .cfa: sp 0 + .ra: lr
STACK CFI 609c8 .cfa: sp 8 +
STACK CFI 609ca .cfa: sp 16 +
STACK CFI 609cc .ra: .cfa -4 + ^ r4: .cfa -8 + ^
STACK CFI INIT 609dc 16 .cfa: sp 0 + .ra: lr
STACK CFI 609e0 .cfa: sp 8 +
STACK CFI 609e2 .cfa: sp 16 +
STACK CFI 609e4 .ra: .cfa -4 + ^ r4: .cfa -8 + ^
STACK CFI INIT 609f4 16 .cfa: sp 0 + .ra: lr
STACK CFI 609f8 .cfa: sp 8 +
STACK CFI 609fa .cfa: sp 16 +
STACK CFI 609fc .ra: .cfa -4 + ^ r4: .cfa -8 + ^
STACK CFI INIT 60a0c 16 .cfa: sp 0 + .ra: lr
STACK CFI 60a10 .cfa: sp 8 +
STACK CFI 60a12 .cfa: sp 16 +
STACK CFI 60a14 .ra: .cfa -4 + ^ r4: .cfa -8 + ^
STACK CFI INIT 60a24 16 .cfa: sp 0 + .ra: lr
STACK CFI 60a28 .cfa: sp 8 +
STACK CFI 60a2a .cfa: sp 16 +
STACK CFI 60a2c .ra: .cfa -4 + ^ r4: .cfa -8 + ^
STACK CFI INIT 60a3c 16 .cfa: sp 0 + .ra: lr
STACK CFI 60a40 .cfa: sp 8 +
STACK CFI 60a42 .cfa: sp 16 +
STACK CFI 60a44 .ra: .cfa -4 + ^ r4: .cfa -8 + ^
STACK CFI INIT 60a54 16 .cfa: sp 0 + .ra: lr
STACK CFI 60a58 .cfa: sp 8 +
STACK CFI 60a5a .cfa: sp 16 +
STACK CFI 60a5c .ra: .cfa -4 + ^ r4: .cfa -8 + ^
STACK CFI INIT 60a6c 16 .cfa: sp 0 + .ra: lr
STACK CFI 60a70 .cfa: sp 8 +
STACK CFI 60a72 .cfa: sp 16 +
STACK CFI 60a74 .ra: .cfa -4 + ^ r4: .cfa -8 + ^
STACK CFI INIT 60a84 20 .cfa: sp 0 + .ra: lr
STACK CFI 60a8c .cfa: sp 8 +
STACK CFI 60a8e .ra: .cfa -4 + ^ r4: .cfa -8 + ^
STACK CFI INIT 60aa4 28 .cfa: sp 0 + .ra: lr
STACK CFI 60aac .cfa: sp 8 +
STACK CFI 60aae .ra: .cfa -4 + ^ r4: .cfa -8 + ^
STACK CFI INIT 60acc 20 .cfa: sp 0 + .ra: lr
STACK CFI 60ad4 .cfa: sp 8 +
STACK CFI 60ad6 .ra: .cfa -4 + ^ r4: .cfa -8 + ^
STACK CFI INIT 60aec 28 .cfa: sp 0 + .ra: lr
STACK CFI 60af4 .cfa: sp 8 +
STACK CFI 60af6 .ra: .cfa -4 + ^ r4: .cfa -8 + ^
STACK CFI INIT 60b14 28 .cfa: sp 0 + .ra: lr
STACK CFI 60b1c .cfa: sp 8 +
STACK CFI 60b1e .ra: .cfa -4 + ^ r4: .cfa -8 + ^
STACK CFI INIT 60b3c 28 .cfa: sp 0 + .ra: lr
STACK CFI 60b44 .cfa: sp 8 +
STACK CFI 60b46 .ra: .cfa -4 + ^ r4: .cfa -8 + ^
STACK CFI INIT 60b64 38 .cfa: sp 0 + .ra: lr
STACK CFI 60b6c .cfa: sp 8 +
STACK CFI 60b6e .ra: .cfa -4 + ^ r4: .cfa -8 + ^
STACK CFI INIT 60b9c 34 .cfa: sp 0 + .ra: lr
STACK CFI 60ba4 .cfa: sp 8 +
STACK CFI 60ba6 .ra: .cfa -4 + ^ r4: .cfa -8 + ^
STACK CFI INIT 60bd0 38 .cfa: sp 0 + .ra: lr
STACK CFI 60bd8 .cfa: sp 8 +
STACK CFI 60bda .ra: .cfa -4 + ^ r4: .cfa -8 + ^
STACK CFI INIT 60c08 124 .cfa: sp 0 + .ra: lr
STACK CFI 60c0c .cfa: sp 36 +
STACK CFI 60c0e .ra: .cfa -4 + ^ r10: .cfa -12 + ^ r11: .cfa -8 + ^ r4: .cfa -36 + ^ r5: .cfa -32 + ^ r6: .cfa -28 + ^ r7: .cfa -24 + ^ r8: .cfa -20 + ^ r9: .cfa -16 + ^
STACK CFI 60c16 .cfa: sp 48 +
STACK CFI INIT 60d2c 3c .cfa: sp 0 + .ra: lr
STACK CFI 60d2e .cfa: sp 4 +
STACK CFI 60d32 .cfa: sp 28 +
STACK CFI 60d34 .cfa: sp 40 +
STACK CFI 60d36 .ra: .cfa -8 + ^ r3: .cfa -4 + ^ r4: .cfa -28 + ^ r5: .cfa -24 + ^ r6: .cfa -20 + ^ r7: .cfa -16 + ^ r8: .cfa -12 + ^
STACK CFI INIT 60d68 3c .cfa: sp 0 + .ra: lr
STACK CFI 60d76 .cfa: sp 16 +
STACK CFI 60d78 .ra: .cfa -4 + ^ r4: .cfa -16 + ^ r5: .cfa -12 + ^ r6: .cfa -8 + ^
STACK CFI INIT 60da4 38 .cfa: sp 0 + .ra: lr
STACK CFI 60daa .cfa: sp 8 +
STACK CFI 60db6 .ra: .cfa -4 + ^ r4: .cfa -8 + ^
STACK CFI INIT 60ddc 3c .cfa: sp 0 + .ra: lr
STACK CFI 60dde .cfa: sp 16 +
STACK CFI 60de0 .ra: .cfa -4 + ^ r3: .cfa -16 + ^ r4: .cfa -12 + ^ r5: .cfa -8 + ^
STACK CFI INIT 60e18 a .cfa: sp 0 + .ra: lr
STACK CFI 60e1c .cfa: sp 8 +
STACK CFI 60e1e .ra: .cfa -4 + ^ r3: .cfa -8 + ^
STACK CFI INIT 60e24 a .cfa: sp 0 + .ra: lr
STACK CFI 60e28 .cfa: sp 8 +
STACK CFI 60e2a .ra: .cfa -4 + ^ r3: .cfa -8 + ^
STACK CFI INIT 60e30 e .cfa: sp 0 + .ra: lr
STACK CFI 60e34 .cfa: sp 8 +
STACK CFI 60e36 .ra: .cfa -4 + ^ r4: .cfa -8 + ^
STACK CFI INIT 60e40 e .cfa: sp 0 + .ra: lr
STACK CFI 60e44 .cfa: sp 8 +
STACK CFI 60e46 .ra: .cfa -4 + ^ r4: .cfa -8 + ^
STACK CFI INIT 60e50 e .cfa: sp 0 + .ra: lr
STACK CFI 60e54 .cfa: sp 8 +
STACK CFI 60e56 .ra: .cfa -4 + ^ r4: .cfa -8 + ^
STACK CFI INIT 60e60 e .cfa: sp 0 + .ra: lr
STACK CFI 60e64 .cfa: sp 8 +
STACK CFI 60e66 .ra: .cfa -4 + ^ r4: .cfa -8 + ^
STACK CFI INIT 60e70 a .cfa: sp 0 + .ra: lr
STACK CFI 60e74 .cfa: sp 8 +
STACK CFI 60e76 .ra: .cfa -4 + ^ r3: .cfa -8 + ^
STACK CFI INIT 60e7c 4c .cfa: sp 0 + .ra: lr
STACK CFI 60e80 .cfa: sp 8 +
STACK CFI 60e82 .cfa: sp 24 +
STACK CFI 60e84 .ra: .cfa -4 + ^ r4: .cfa -8 + ^
STACK CFI INIT 60ec8 4c .cfa: sp 0 + .ra: lr
STACK CFI 60ecc .cfa: sp 8 +
STACK CFI 60ece .cfa: sp 24 +
STACK CFI 60ed0 .ra: .cfa -4 + ^ r4: .cfa -8 + ^
STACK CFI INIT 60f14 3c .cfa: sp 0 + .ra: lr
STACK CFI 60f22 .cfa: sp 16 +
STACK CFI 60f24 .ra: .cfa -4 + ^ r4: .cfa -16 + ^ r5: .cfa -12 + ^ r6: .cfa -8 + ^
STACK CFI INIT 60f50 38 .cfa: sp 0 + .ra: lr
STACK CFI 60f56 .cfa: sp 8 +
STACK CFI 60f62 .ra: .cfa -4 + ^ r4: .cfa -8 + ^
STACK CFI INIT 60f88 3c .cfa: sp 0 + .ra: lr
STACK CFI 60f8a .cfa: sp 16 +
STACK CFI 60f8c .ra: .cfa -4 + ^ r3: .cfa -16 + ^ r4: .cfa -12 + ^ r5: .cfa -8 + ^
STACK CFI INIT 60fc4 a .cfa: sp 0 + .ra: lr
STACK CFI 60fc8 .cfa: sp 8 +
STACK CFI 60fca .ra: .cfa -4 + ^ r3: .cfa -8 + ^
STACK CFI INIT 60fd0 a .cfa: sp 0 + .ra: lr
STACK CFI 60fd4 .cfa: sp 8 +
STACK CFI 60fd6 .ra: .cfa -4 + ^ r3: .cfa -8 + ^
STACK CFI INIT 60fdc e .cfa: sp 0 + .ra: lr
STACK CFI 60fe0 .cfa: sp 8 +
STACK CFI 60fe2 .ra: .cfa -4 + ^ r4: .cfa -8 + ^
STACK CFI INIT 60fec e .cfa: sp 0 + .ra: lr
STACK CFI 60ff0 .cfa: sp 8 +
STACK CFI 60ff2 .ra: .cfa -4 + ^ r4: .cfa -8 + ^
STACK CFI INIT 60ffc e .cfa: sp 0 + .ra: lr
STACK CFI 61000 .cfa: sp 8 +
STACK CFI 61002 .ra: .cfa -4 + ^ r4: .cfa -8 + ^
STACK CFI INIT 6100c e .cfa: sp 0 + .ra: lr
STACK CFI 61010 .cfa: sp 8 +
STACK CFI 61012 .ra: .cfa -4 + ^ r4: .cfa -8 + ^
STACK CFI INIT 6101c a .cfa: sp 0 + .ra: lr
STACK CFI 61020 .cfa: sp 8 +
STACK CFI 61022 .ra: .cfa -4 + ^ r3: .cfa -8 + ^
STACK CFI INIT 61028 4c .cfa: sp 0 + .ra: lr
STACK CFI 6102c .cfa: sp 8 +
STACK CFI 6102e .cfa: sp 24 +
STACK CFI 61030 .ra: .cfa -4 + ^ r4: .cfa -8 + ^
STACK CFI INIT 61074 4c .cfa: sp 0 + .ra: lr
STACK CFI 61078 .cfa: sp 8 +
STACK CFI 6107a .cfa: sp 24 +
STACK CFI 6107c .ra: .cfa -4 + ^ r4: .cfa -8 + ^
STACK CFI INIT 610c0 60 .cfa: sp 0 + .ra: lr
STACK CFI 610c2 .cfa: sp 4 +
STACK CFI 610c4 r4: .cfa -4 + ^
STACK CFI INIT 61120 60 .cfa: sp 0 + .ra: lr
STACK CFI 61122 .cfa: sp 4 +
STACK CFI 61124 r4: .cfa -4 + ^
STACK CFI INIT 61180 98 .cfa: sp 0 + .ra: lr
STACK CFI 61182 .cfa: sp 20 +
STACK CFI 61184 .ra: .cfa -4 + ^ r4: .cfa -20 + ^ r5: .cfa -16 + ^ r6: .cfa -12 + ^ r7: .cfa -8 + ^
STACK CFI 61196 .cfa: sp 32 +
STACK CFI INIT 61218 98 .cfa: sp 0 + .ra: lr
STACK CFI 6121a .cfa: sp 20 +
STACK CFI 6121c .ra: .cfa -4 + ^ r4: .cfa -20 + ^ r5: .cfa -16 + ^ r6: .cfa -12 + ^ r7: .cfa -8 + ^
STACK CFI 6122e .cfa: sp 32 +
STACK CFI INIT 612b0 20 .cfa: sp 0 + .ra: lr
STACK CFI INIT 612d0 42 .cfa: sp 0 + .ra: lr
STACK CFI 612d2 .cfa: sp 20 +
STACK CFI 612d4 .cfa: sp 56 +
STACK CFI 612d6 .ra: .cfa -4 + ^ r4: .cfa -20 + ^ r5: .cfa -16 + ^ r6: .cfa -12 + ^ r7: .cfa -8 + ^
STACK CFI INIT 61314 42 .cfa: sp 0 + .ra: lr
STACK CFI 61316 .cfa: sp 20 +
STACK CFI 61318 .cfa: sp 56 +
STACK CFI 6131a .ra: .cfa -4 + ^ r4: .cfa -20 + ^ r5: .cfa -16 + ^ r6: .cfa -12 + ^ r7: .cfa -8 + ^
STACK CFI INIT 61358 20 .cfa: sp 0 + .ra: lr
STACK CFI INIT 61378 36 .cfa: sp 0 + .ra: lr
STACK CFI 6137a .cfa: sp 20 +
STACK CFI 6137c .cfa: sp 56 +
STACK CFI 6137e .ra: .cfa -4 + ^ r4: .cfa -20 + ^ r5: .cfa -16 + ^ r6: .cfa -12 + ^ r7: .cfa -8 + ^
STACK CFI INIT 613b0 32 .cfa: sp 0 + .ra: lr
STACK CFI 613b2 .cfa: sp 20 +
STACK CFI 613b4 .cfa: sp 48 +
STACK CFI 613b6 .ra: .cfa -4 + ^ r4: .cfa -20 + ^ r5: .cfa -16 + ^ r6: .cfa -12 + ^ r7: .cfa -8 + ^
STACK CFI INIT 613e4 38 .cfa: sp 0 + .ra: lr
STACK CFI 613f2 .cfa: sp 8 +
STACK CFI 613f4 .ra: .cfa -4 + ^ r4: .cfa -8 + ^
STACK CFI INIT 6141c 38 .cfa: sp 0 + .ra: lr
STACK CFI 61422 .cfa: sp 8 +
STACK CFI 6142e .ra: .cfa -4 + ^ r4: .cfa -8 + ^
STACK CFI INIT 61454 3c .cfa: sp 0 + .ra: lr
STACK CFI 61464 .cfa: sp 8 +
STACK CFI 61466 .ra: .cfa -4 + ^ r4: .cfa -8 + ^
STACK CFI INIT 61490 a .cfa: sp 0 + .ra: lr
STACK CFI 61494 .cfa: sp 8 +
STACK CFI 61496 .ra: .cfa -4 + ^ r3: .cfa -8 + ^
STACK CFI INIT 6149c a .cfa: sp 0 + .ra: lr
STACK CFI 614a0 .cfa: sp 8 +
STACK CFI 614a2 .ra: .cfa -4 + ^ r3: .cfa -8 + ^
STACK CFI INIT 614a8 e .cfa: sp 0 + .ra: lr
STACK CFI 614ac .cfa: sp 8 +
STACK CFI 614ae .ra: .cfa -4 + ^ r4: .cfa -8 + ^
STACK CFI INIT 614b8 e .cfa: sp 0 + .ra: lr
STACK CFI 614bc .cfa: sp 8 +
STACK CFI 614be .ra: .cfa -4 + ^ r4: .cfa -8 + ^
STACK CFI INIT 614c8 e .cfa: sp 0 + .ra: lr
STACK CFI 614cc .cfa: sp 8 +
STACK CFI 614ce .ra: .cfa -4 + ^ r4: .cfa -8 + ^
STACK CFI INIT 614d8 40 .cfa: sp 0 + .ra: lr
STACK CFI 614da .cfa: sp 4 +
STACK CFI 614dc r4: .cfa -4 + ^
STACK CFI INIT 61518 94 .cfa: sp 0 + .ra: lr
STACK CFI 6151a .cfa: sp 16 +
STACK CFI 6151c .ra: .cfa -4 + ^ r4: .cfa -16 + ^ r5: .cfa -12 + ^ r6: .cfa -8 + ^
STACK CFI 6152e .cfa: sp 24 +
STACK CFI INIT 615ac 20 .cfa: sp 0 + .ra: lr
STACK CFI INIT 615cc 3a .cfa: sp 0 + .ra: lr
STACK CFI 615ce .cfa: sp 20 +
STACK CFI 615d0 .cfa: sp 56 +
STACK CFI 615d2 .ra: .cfa -4 + ^ r4: .cfa -20 + ^ r5: .cfa -16 + ^ r6: .cfa -12 + ^ r7: .cfa -8 + ^
STACK CFI INIT 61608 3a .cfa: sp 0 + .ra: lr
STACK CFI 6160a .cfa: sp 20 +
STACK CFI 6160c .cfa: sp 56 +
STACK CFI 6160e .ra: .cfa -4 + ^ r4: .cfa -20 + ^ r5: .cfa -16 + ^ r6: .cfa -12 + ^ r7: .cfa -8 + ^
STACK CFI INIT 61644 3a .cfa: sp 0 + .ra: lr
STACK CFI 61646 .cfa: sp 20 +
STACK CFI 61648 .cfa: sp 56 +
STACK CFI 6164a .ra: .cfa -4 + ^ r4: .cfa -20 + ^ r5: .cfa -16 + ^ r6: .cfa -12 + ^ r7: .cfa -8 + ^
STACK CFI INIT 61680 3a .cfa: sp 0 + .ra: lr
STACK CFI 61682 .cfa: sp 20 +
STACK CFI 61684 .cfa: sp 56 +
STACK CFI 61686 .ra: .cfa -4 + ^ r4: .cfa -20 + ^ r5: .cfa -16 + ^ r6: .cfa -12 + ^ r7: .cfa -8 + ^
STACK CFI INIT 616bc 3a .cfa: sp 0 + .ra: lr
STACK CFI 616be .cfa: sp 20 +
STACK CFI 616c0 .cfa: sp 56 +
STACK CFI 616c2 .ra: .cfa -4 + ^ r4: .cfa -20 + ^ r5: .cfa -16 + ^ r6: .cfa -12 + ^ r7: .cfa -8 + ^
STACK CFI INIT 616f8 3a .cfa: sp 0 + .ra: lr
STACK CFI 616fa .cfa: sp 20 +
STACK CFI 616fc .cfa: sp 56 +
STACK CFI 616fe .ra: .cfa -4 + ^ r4: .cfa -20 + ^ r5: .cfa -16 + ^ r6: .cfa -12 + ^ r7: .cfa -8 + ^
STACK CFI INIT 61734 3a .cfa: sp 0 + .ra: lr
STACK CFI 61736 .cfa: sp 20 +
STACK CFI 61738 .cfa: sp 56 +
STACK CFI 6173a .ra: .cfa -4 + ^ r4: .cfa -20 + ^ r5: .cfa -16 + ^ r6: .cfa -12 + ^ r7: .cfa -8 + ^
STACK CFI INIT 61770 3a .cfa: sp 0 + .ra: lr
STACK CFI 61772 .cfa: sp 20 +
STACK CFI 61774 .cfa: sp 56 +
STACK CFI 61776 .ra: .cfa -4 + ^ r4: .cfa -20 + ^ r5: .cfa -16 + ^ r6: .cfa -12 + ^ r7: .cfa -8 + ^
STACK CFI INIT 617ac 3a .cfa: sp 0 + .ra: lr
STACK CFI 617ae .cfa: sp 20 +
STACK CFI 617b0 .cfa: sp 56 +
STACK CFI 617b2 .ra: .cfa -4 + ^ r4: .cfa -20 + ^ r5: .cfa -16 + ^ r6: .cfa -12 + ^ r7: .cfa -8 + ^
STACK CFI INIT 617e8 3a .cfa: sp 0 + .ra: lr
STACK CFI 617ea .cfa: sp 20 +
STACK CFI 617ec .cfa: sp 56 +
STACK CFI 617ee .ra: .cfa -4 + ^ r4: .cfa -20 + ^ r5: .cfa -16 + ^ r6: .cfa -12 + ^ r7: .cfa -8 + ^
STACK CFI INIT 61824 3a .cfa: sp 0 + .ra: lr
STACK CFI 61826 .cfa: sp 20 +
STACK CFI 61828 .cfa: sp 56 +
STACK CFI 6182a .ra: .cfa -4 + ^ r4: .cfa -20 + ^ r5: .cfa -16 + ^ r6: .cfa -12 + ^ r7: .cfa -8 + ^
STACK CFI INIT 61860 20 .cfa: sp 0 + .ra: lr
STACK CFI INIT 61880 2e .cfa: sp 0 + .ra: lr
STACK CFI 61882 .cfa: sp 20 +
STACK CFI 61884 .cfa: sp 48 +
STACK CFI 61886 .ra: .cfa -4 + ^ r4: .cfa -20 + ^ r5: .cfa -16 + ^ r6: .cfa -12 + ^ r7: .cfa -8 + ^
STACK CFI INIT 618b0 2a .cfa: sp 0 + .ra: lr
STACK CFI 618b2 .cfa: sp 20 +
STACK CFI 618b4 .cfa: sp 48 +
STACK CFI 618b6 .ra: .cfa -4 + ^ r4: .cfa -20 + ^ r5: .cfa -16 + ^ r6: .cfa -12 + ^ r7: .cfa -8 + ^
STACK CFI INIT 618dc 2a .cfa: sp 0 + .ra: lr
STACK CFI 618de .cfa: sp 20 +
STACK CFI 618e0 .cfa: sp 48 +
STACK CFI 618e2 .ra: .cfa -4 + ^ r4: .cfa -20 + ^ r5: .cfa -16 + ^ r6: .cfa -12 + ^ r7: .cfa -8 + ^
STACK CFI INIT 61908 32 .cfa: sp 0 + .ra: lr
STACK CFI 6190c .cfa: sp 28 +
STACK CFI 6190e .cfa: sp 56 +
STACK CFI 61910 .ra: .cfa -4 + ^ r4: .cfa -28 + ^ r5: .cfa -24 + ^ r6: .cfa -20 + ^ r7: .cfa -16 + ^ r8: .cfa -12 + ^ r9: .cfa -8 + ^
STACK CFI INIT 6193c 32 .cfa: sp 0 + .ra: lr
STACK CFI 61940 .cfa: sp 28 +
STACK CFI 61942 .cfa: sp 56 +
STACK CFI 61944 .ra: .cfa -4 + ^ r4: .cfa -28 + ^ r5: .cfa -24 + ^ r6: .cfa -20 + ^ r7: .cfa -16 + ^ r8: .cfa -12 + ^ r9: .cfa -8 + ^
STACK CFI INIT 61970 2e .cfa: sp 0 + .ra: lr
STACK CFI 61972 .cfa: sp 20 +
STACK CFI 61974 .cfa: sp 48 +
STACK CFI 61976 .ra: .cfa -4 + ^ r4: .cfa -20 + ^ r5: .cfa -16 + ^ r6: .cfa -12 + ^ r7: .cfa -8 + ^
STACK CFI INIT 619a0 2e .cfa: sp 0 + .ra: lr
STACK CFI 619a2 .cfa: sp 20 +
STACK CFI 619a4 .cfa: sp 48 +
STACK CFI 619a6 .ra: .cfa -4 + ^ r4: .cfa -20 + ^ r5: .cfa -16 + ^ r6: .cfa -12 + ^ r7: .cfa -8 + ^
STACK CFI INIT 619d0 2a .cfa: sp 0 + .ra: lr
STACK CFI 619d2 .cfa: sp 20 +
STACK CFI 619d4 .cfa: sp 48 +
STACK CFI 619d6 .ra: .cfa -4 + ^ r4: .cfa -20 + ^ r5: .cfa -16 + ^ r6: .cfa -12 + ^ r7: .cfa -8 + ^
STACK CFI INIT 619fc 44 .cfa: sp 0 + .ra: lr
STACK CFI 619fe .cfa: sp 16 +
STACK CFI 61a02 .ra: .cfa -4 + ^ r3: .cfa -16 + ^ r4: .cfa -12 + ^ r5: .cfa -8 + ^
STACK CFI INIT 61a40 44 .cfa: sp 0 + .ra: lr
STACK CFI 61a42 .cfa: sp 16 +
STACK CFI 61a44 .ra: .cfa -4 + ^ r3: .cfa -16 + ^ r4: .cfa -12 + ^ r5: .cfa -8 + ^
STACK CFI INIT 61a84 d0 .cfa: sp 0 + .ra: lr
STACK CFI 61a88 .cfa: sp 32 +
STACK CFI 61a8a .ra: .cfa -4 + ^ r10: .cfa -8 + ^ r4: .cfa -32 + ^ r5: .cfa -28 + ^ r6: .cfa -24 + ^ r7: .cfa -20 + ^ r8: .cfa -16 + ^ r9: .cfa -12 + ^
STACK CFI INIT 61b54 c .cfa: sp 0 + .ra: lr
STACK CFI INIT 61b60 c .cfa: sp 0 + .ra: lr
STACK CFI INIT 61b6c c .cfa: sp 0 + .ra: lr
STACK CFI INIT 61b78 2 .cfa: sp 0 + .ra: lr
STACK CFI INIT 61b7c c .cfa: sp 0 + .ra: lr
STACK CFI INIT 61b88 20 .cfa: sp 0 + .ra: lr
STACK CFI INIT 61ba8 20 .cfa: sp 0 + .ra: lr
STACK CFI INIT 61bc8 3e .cfa: sp 0 + .ra: lr
STACK CFI INIT 61c08 4c .cfa: sp 0 + .ra: lr
STACK CFI INIT 61c54 a8 .cfa: sp 0 + .ra: lr
STACK CFI 61c56 .cfa: sp 4 +
STACK CFI 61c58 r4: .cfa -4 + ^
STACK CFI INIT 61cfc 20 .cfa: sp 0 + .ra: lr
STACK CFI INIT 61d1c 3a .cfa: sp 0 + .ra: lr
STACK CFI 61d1e .cfa: sp 20 +
STACK CFI 61d20 .cfa: sp 56 +
STACK CFI 61d22 .ra: .cfa -4 + ^ r4: .cfa -20 + ^ r5: .cfa -16 + ^ r6: .cfa -12 + ^ r7: .cfa -8 + ^
STACK CFI INIT 61d58 20 .cfa: sp 0 + .ra: lr
STACK CFI INIT 61d78 20 .cfa: sp 0 + .ra: lr
STACK CFI INIT 61d98 a .cfa: sp 0 + .ra: lr
STACK CFI 61d9c .cfa: sp 8 +
STACK CFI 61d9e .ra: .cfa -4 + ^ r3: .cfa -8 + ^
STACK CFI INIT 61da4 3a .cfa: sp 0 + .ra: lr
STACK CFI 61da6 .cfa: sp 20 +
STACK CFI 61da8 .cfa: sp 56 +
STACK CFI 61daa .ra: .cfa -4 + ^ r4: .cfa -20 + ^ r5: .cfa -16 + ^ r6: .cfa -12 + ^ r7: .cfa -8 + ^
STACK CFI INIT 61de0 3a .cfa: sp 0 + .ra: lr
STACK CFI 61de2 .cfa: sp 20 +
STACK CFI 61de4 .cfa: sp 56 +
STACK CFI 61de6 .ra: .cfa -4 + ^ r4: .cfa -20 + ^ r5: .cfa -16 + ^ r6: .cfa -12 + ^ r7: .cfa -8 + ^
STACK CFI INIT 61e1c 3a .cfa: sp 0 + .ra: lr
STACK CFI 61e1e .cfa: sp 20 +
STACK CFI 61e20 .cfa: sp 56 +
STACK CFI 61e22 .ra: .cfa -4 + ^ r4: .cfa -20 + ^ r5: .cfa -16 + ^ r6: .cfa -12 + ^ r7: .cfa -8 + ^
STACK CFI INIT 61e58 3a .cfa: sp 0 + .ra: lr
STACK CFI 61e5a .cfa: sp 20 +
STACK CFI 61e5c .cfa: sp 56 +
STACK CFI 61e5e .ra: .cfa -4 + ^ r4: .cfa -20 + ^ r5: .cfa -16 + ^ r6: .cfa -12 + ^ r7: .cfa -8 + ^
STACK CFI INIT 61e94 3a .cfa: sp 0 + .ra: lr
STACK CFI 61e96 .cfa: sp 20 +
STACK CFI 61e98 .cfa: sp 56 +
STACK CFI 61e9a .ra: .cfa -4 + ^ r4: .cfa -20 + ^ r5: .cfa -16 + ^ r6: .cfa -12 + ^ r7: .cfa -8 + ^
STACK CFI INIT 61ed0 20 .cfa: sp 0 + .ra: lr
STACK CFI INIT 61ef0 3c .cfa: sp 0 + .ra: lr
STACK CFI 61efe .cfa: sp 8 +
STACK CFI 61f00 .ra: .cfa -4 + ^ r4: .cfa -8 + ^
STACK CFI INIT 61f2c b4 .cfa: sp 0 + .ra: lr
STACK CFI 61f30 .cfa: sp 24 +
STACK CFI 61f32 .ra: .cfa -4 + ^ r4: .cfa -24 + ^ r5: .cfa -20 + ^ r6: .cfa -16 + ^ r7: .cfa -12 + ^ r8: .cfa -8 + ^
STACK CFI 61f42 .cfa: sp 32 +
STACK CFI INIT 61fe0 a .cfa: sp 0 + .ra: lr
STACK CFI 61fe2 .cfa: sp 8 +
STACK CFI 61fe4 .ra: .cfa -4 + ^ r3: .cfa -8 + ^
STACK CFI INIT 61fec 1e .cfa: sp 0 + .ra: lr
STACK CFI 61fee .cfa: sp 16 +
STACK CFI 61ff0 .ra: .cfa -4 + ^ r4: .cfa -16 + ^ r5: .cfa -12 + ^ r6: .cfa -8 + ^
STACK CFI INIT 6200c 1a .cfa: sp 0 + .ra: lr
STACK CFI 6200e .cfa: sp 16 +
STACK CFI 62010 .cfa: sp 24 +
STACK CFI 62012 .ra: .cfa -4 + ^ r4: .cfa -16 + ^ r5: .cfa -12 + ^ r6: .cfa -8 + ^
STACK CFI INIT 62028 a .cfa: sp 0 + .ra: lr
STACK CFI 6202c .cfa: sp 8 +
STACK CFI 6202e .ra: .cfa -4 + ^ r3: .cfa -8 + ^
STACK CFI INIT 62034 4 .cfa: sp 0 + .ra: lr
STACK CFI INIT 62038 18 .cfa: sp 0 + .ra: lr
STACK CFI INIT 62050 e4 .cfa: sp 0 + .ra: lr
STACK CFI 62054 .cfa: sp 24 +
STACK CFI 62056 .ra: .cfa -4 + ^ r4: .cfa -24 + ^ r5: .cfa -20 + ^ r6: .cfa -16 + ^ r7: .cfa -12 + ^ r8: .cfa -8 + ^
STACK CFI INIT 62134 68 .cfa: sp 0 + .ra: lr
STACK CFI 62136 .cfa: sp 16 +
STACK CFI 62138 .ra: .cfa -4 + ^ r4: .cfa -16 + ^ r5: .cfa -12 + ^ r6: .cfa -8 + ^
STACK CFI INIT 6219c 34 .cfa: sp 0 + .ra: lr
STACK CFI 621aa .cfa: sp 8 +
STACK CFI 621ac .ra: .cfa -4 + ^ r4: .cfa -8 + ^
STACK CFI INIT 621d0 34 .cfa: sp 0 + .ra: lr
STACK CFI 621d2 .cfa: sp 8 +
STACK CFI 621d4 .ra: .cfa -4 + ^ r4: .cfa -8 + ^
STACK CFI 621de .cfa: sp 16 +
STACK CFI INIT 62204 12 .cfa: sp 0 + .ra: lr
STACK CFI 62206 .cfa: sp 12 +
STACK CFI 62208 .cfa: sp 24 +
STACK CFI 6220a .ra: .cfa -4 + ^ r4: .cfa -12 + ^ r5: .cfa -8 + ^
STACK CFI INIT 62218 e .cfa: sp 0 + .ra: lr
STACK CFI 6221a .cfa: sp 16 +
STACK CFI 6221c .ra: .cfa -4 + ^ r3: .cfa -16 + ^ r4: .cfa -12 + ^ r5: .cfa -8 + ^
STACK CFI INIT 62228 a .cfa: sp 0 + .ra: lr
STACK CFI 6222a .cfa: sp 8 +
STACK CFI 6222c .ra: .cfa -4 + ^ r3: .cfa -8 + ^
STACK CFI INIT 62234 84 .cfa: sp 0 + .ra: lr
STACK CFI 62236 .cfa: sp 16 +
STACK CFI 6223a .ra: .cfa -4 + ^ r4: .cfa -16 + ^ r5: .cfa -12 + ^ r6: .cfa -8 + ^
STACK CFI INIT 622b8 50 .cfa: sp 0 + .ra: lr
STACK CFI 622ba .cfa: sp 16 +
STACK CFI 622bc .ra: .cfa -4 + ^ r3: .cfa -16 + ^ r4: .cfa -12 + ^ r5: .cfa -8 + ^
STACK CFI INIT 62308 15a .cfa: sp 0 + .ra: lr
STACK CFI 6230c .cfa: sp 36 +
STACK CFI 6230e .cfa: sp 88 +
STACK CFI 62310 .ra: .cfa -4 + ^ r10: .cfa -12 + ^ r11: .cfa -8 + ^ r4: .cfa -36 + ^ r5: .cfa -32 + ^ r6: .cfa -28 + ^ r7: .cfa -24 + ^ r8: .cfa -20 + ^ r9: .cfa -16 + ^
STACK CFI INIT 62464 50 .cfa: sp 0 + .ra: lr
STACK CFI 62466 .cfa: sp 16 +
STACK CFI 62468 .ra: .cfa -4 + ^ r3: .cfa -16 + ^ r4: .cfa -12 + ^ r5: .cfa -8 + ^
STACK CFI INIT 624b4 50 .cfa: sp 0 + .ra: lr
STACK CFI 624b6 .cfa: sp 16 +
STACK CFI 624b8 .ra: .cfa -4 + ^ r3: .cfa -16 + ^ r4: .cfa -12 + ^ r5: .cfa -8 + ^
STACK CFI INIT 62504 50 .cfa: sp 0 + .ra: lr
STACK CFI 62506 .cfa: sp 16 +
STACK CFI 62508 .ra: .cfa -4 + ^ r3: .cfa -16 + ^ r4: .cfa -12 + ^ r5: .cfa -8 + ^
STACK CFI INIT 62554 258 .cfa: sp 0 + .ra: lr
STACK CFI 62558 .cfa: sp 36 +
STACK CFI 6255a .ra: .cfa -4 + ^ r10: .cfa -12 + ^ r11: .cfa -8 + ^ r4: .cfa -36 + ^ r5: .cfa -32 + ^ r6: .cfa -28 + ^ r7: .cfa -24 + ^ r8: .cfa -20 + ^ r9: .cfa -16 + ^
STACK CFI 6255c .cfa: sp 72 +
STACK CFI INIT 627ac 50 .cfa: sp 0 + .ra: lr
STACK CFI 627ae .cfa: sp 16 +
STACK CFI 627b0 .ra: .cfa -4 + ^ r3: .cfa -16 + ^ r4: .cfa -12 + ^ r5: .cfa -8 + ^
STACK CFI INIT 627fc 50 .cfa: sp 0 + .ra: lr
STACK CFI 627fe .cfa: sp 16 +
STACK CFI 62800 .ra: .cfa -4 + ^ r3: .cfa -16 + ^ r4: .cfa -12 + ^ r5: .cfa -8 + ^
STACK CFI INIT 6284c 50 .cfa: sp 0 + .ra: lr
STACK CFI 6284e .cfa: sp 16 +
STACK CFI 62850 .ra: .cfa -4 + ^ r3: .cfa -16 + ^ r4: .cfa -12 + ^ r5: .cfa -8 + ^
STACK CFI INIT 6289c 2d0 .cfa: sp 0 + .ra: lr
STACK CFI 628a0 .cfa: sp 36 +
STACK CFI 628a2 .ra: .cfa -4 + ^ r10: .cfa -12 + ^ r11: .cfa -8 + ^ r4: .cfa -36 + ^ r5: .cfa -32 + ^ r6: .cfa -28 + ^ r7: .cfa -24 + ^ r8: .cfa -20 + ^ r9: .cfa -16 + ^
STACK CFI 628a4 .cfa: sp 96 +
STACK CFI INIT 62b6c 50 .cfa: sp 0 + .ra: lr
STACK CFI 62b6e .cfa: sp 16 +
STACK CFI 62b70 .ra: .cfa -4 + ^ r3: .cfa -16 + ^ r4: .cfa -12 + ^ r5: .cfa -8 + ^
STACK CFI INIT 62bbc 2d0 .cfa: sp 0 + .ra: lr
STACK CFI 62bc0 .cfa: sp 36 +
STACK CFI 62bc2 .ra: .cfa -4 + ^ r10: .cfa -12 + ^ r11: .cfa -8 + ^ r4: .cfa -36 + ^ r5: .cfa -32 + ^ r6: .cfa -28 + ^ r7: .cfa -24 + ^ r8: .cfa -20 + ^ r9: .cfa -16 + ^
STACK CFI 62bc4 .cfa: sp 96 +
STACK CFI INIT 62e8c 50 .cfa: sp 0 + .ra: lr
STACK CFI 62e8e .cfa: sp 16 +
STACK CFI 62e90 .ra: .cfa -4 + ^ r3: .cfa -16 + ^ r4: .cfa -12 + ^ r5: .cfa -8 + ^
STACK CFI INIT 62edc 50 .cfa: sp 0 + .ra: lr
STACK CFI 62ede .cfa: sp 16 +
STACK CFI 62ee0 .ra: .cfa -4 + ^ r3: .cfa -16 + ^ r4: .cfa -12 + ^ r5: .cfa -8 + ^
STACK CFI INIT 62f2c 50 .cfa: sp 0 + .ra: lr
STACK CFI 62f2e .cfa: sp 16 +
STACK CFI 62f30 .ra: .cfa -4 + ^ r3: .cfa -16 + ^ r4: .cfa -12 + ^ r5: .cfa -8 + ^
STACK CFI INIT 62f7c c0 .cfa: sp 0 + .ra: lr
STACK CFI 62f80 .cfa: sp 32 +
STACK CFI 62f82 .cfa: sp 192 +
STACK CFI 62f84 .ra: .cfa -4 + ^ r10: .cfa -8 + ^ r4: .cfa -32 + ^ r5: .cfa -28 + ^ r6: .cfa -24 + ^ r7: .cfa -20 + ^ r8: .cfa -16 + ^ r9: .cfa -12 + ^
STACK CFI INIT 6303c 50 .cfa: sp 0 + .ra: lr
STACK CFI 6303e .cfa: sp 16 +
STACK CFI 63040 .ra: .cfa -4 + ^ r3: .cfa -16 + ^ r4: .cfa -12 + ^ r5: .cfa -8 + ^
STACK CFI INIT 6308c 50 .cfa: sp 0 + .ra: lr
STACK CFI 6308e .cfa: sp 16 +
STACK CFI 63090 .ra: .cfa -4 + ^ r3: .cfa -16 + ^ r4: .cfa -12 + ^ r5: .cfa -8 + ^
STACK CFI INIT 630dc 50 .cfa: sp 0 + .ra: lr
STACK CFI 630de .cfa: sp 16 +
STACK CFI 630e0 .ra: .cfa -4 + ^ r3: .cfa -16 + ^ r4: .cfa -12 + ^ r5: .cfa -8 + ^
STACK CFI INIT 6312c 50 .cfa: sp 0 + .ra: lr
STACK CFI 6312e .cfa: sp 16 +
STACK CFI 63130 .ra: .cfa -4 + ^ r3: .cfa -16 + ^ r4: .cfa -12 + ^ r5: .cfa -8 + ^
STACK CFI INIT 6317c 50 .cfa: sp 0 + .ra: lr
STACK CFI 6317e .cfa: sp 16 +
STACK CFI 63180 .ra: .cfa -4 + ^ r3: .cfa -16 + ^ r4: .cfa -12 + ^ r5: .cfa -8 + ^
STACK CFI INIT 631cc 50 .cfa: sp 0 + .ra: lr
STACK CFI 631ce .cfa: sp 16 +
STACK CFI 631d0 .ra: .cfa -4 + ^ r3: .cfa -16 + ^ r4: .cfa -12 + ^ r5: .cfa -8 + ^
STACK CFI INIT 6321c 50 .cfa: sp 0 + .ra: lr
STACK CFI 6321e .cfa: sp 16 +
STACK CFI 63220 .ra: .cfa -4 + ^ r3: .cfa -16 + ^ r4: .cfa -12 + ^ r5: .cfa -8 + ^
STACK CFI INIT 6326c 50 .cfa: sp 0 + .ra: lr
STACK CFI 6326e .cfa: sp 16 +
STACK CFI 63270 .ra: .cfa -4 + ^ r3: .cfa -16 + ^ r4: .cfa -12 + ^ r5: .cfa -8 + ^
STACK CFI INIT 632bc 50 .cfa: sp 0 + .ra: lr
STACK CFI 632be .cfa: sp 16 +
STACK CFI 632c0 .ra: .cfa -4 + ^ r3: .cfa -16 + ^ r4: .cfa -12 + ^ r5: .cfa -8 + ^
STACK CFI INIT 6330c 50 .cfa: sp 0 + .ra: lr
STACK CFI 6330e .cfa: sp 16 +
STACK CFI 63310 .ra: .cfa -4 + ^ r3: .cfa -16 + ^ r4: .cfa -12 + ^ r5: .cfa -8 + ^
STACK CFI INIT 6335c 50 .cfa: sp 0 + .ra: lr
STACK CFI 6335e .cfa: sp 16 +
STACK CFI 63360 .ra: .cfa -4 + ^ r3: .cfa -16 + ^ r4: .cfa -12 + ^ r5: .cfa -8 + ^
STACK CFI INIT 633ac 50 .cfa: sp 0 + .ra: lr
STACK CFI 633ae .cfa: sp 16 +
STACK CFI 633b0 .ra: .cfa -4 + ^ r3: .cfa -16 + ^ r4: .cfa -12 + ^ r5: .cfa -8 + ^
STACK CFI INIT 633fc 50 .cfa: sp 0 + .ra: lr
STACK CFI 633fe .cfa: sp 16 +
STACK CFI 63400 .ra: .cfa -4 + ^ r3: .cfa -16 + ^ r4: .cfa -12 + ^ r5: .cfa -8 + ^
STACK CFI INIT 6344c 50 .cfa: sp 0 + .ra: lr
STACK CFI 6344e .cfa: sp 16 +
STACK CFI 63450 .ra: .cfa -4 + ^ r3: .cfa -16 + ^ r4: .cfa -12 + ^ r5: .cfa -8 + ^
STACK CFI INIT 6349c 50 .cfa: sp 0 + .ra: lr
STACK CFI 6349e .cfa: sp 16 +
STACK CFI 634a0 .ra: .cfa -4 + ^ r3: .cfa -16 + ^ r4: .cfa -12 + ^ r5: .cfa -8 + ^
STACK CFI INIT 634ec 50 .cfa: sp 0 + .ra: lr
STACK CFI 634ee .cfa: sp 16 +
STACK CFI 634f0 .ra: .cfa -4 + ^ r3: .cfa -16 + ^ r4: .cfa -12 + ^ r5: .cfa -8 + ^
STACK CFI INIT 6353c 18e .cfa: sp 0 + .ra: lr
STACK CFI 63540 .cfa: sp 32 +
STACK CFI 63542 .cfa: sp 40 +
STACK CFI 63544 r10: .cfa -8 + ^ r11: .cfa -4 + ^ r4: .cfa -32 + ^ r5: .cfa -28 + ^ r6: .cfa -24 + ^ r7: .cfa -20 + ^ r8: .cfa -16 + ^ r9: .cfa -12 + ^
STACK CFI INIT 636cc 2a .cfa: sp 0 + .ra: lr
STACK CFI 636ce .cfa: sp 20 +
STACK CFI 636d0 .cfa: sp 32 +
STACK CFI 636d4 .ra: .cfa -4 + ^ r4: .cfa -20 + ^ r5: .cfa -16 + ^ r6: .cfa -12 + ^ r7: .cfa -8 + ^
STACK CFI INIT 636f8 62 .cfa: sp 0 + .ra: lr
STACK CFI 636fc .cfa: sp 24 +
STACK CFI 636fe .cfa: sp 32 +
STACK CFI 63702 .ra: .cfa -4 + ^ r4: .cfa -24 + ^ r5: .cfa -20 + ^ r6: .cfa -16 + ^ r7: .cfa -12 + ^ r8: .cfa -8 + ^
STACK CFI INIT 6375c 574 .cfa: sp 0 + .ra: lr
STACK CFI 63760 .cfa: sp 36 +
STACK CFI 63762 .cfa: sp 112 +
STACK CFI 63766 .ra: .cfa -4 + ^ r10: .cfa -12 + ^ r11: .cfa -8 + ^ r4: .cfa -36 + ^ r5: .cfa -32 + ^ r6: .cfa -28 + ^ r7: .cfa -24 + ^ r8: .cfa -20 + ^ r9: .cfa -16 + ^
STACK CFI INIT 63cd0 574 .cfa: sp 0 + .ra: lr
STACK CFI 63cd4 .cfa: sp 36 +
STACK CFI 63cd6 .cfa: sp 112 +
STACK CFI 63cda .ra: .cfa -4 + ^ r10: .cfa -12 + ^ r11: .cfa -8 + ^ r4: .cfa -36 + ^ r5: .cfa -32 + ^ r6: .cfa -28 + ^ r7: .cfa -24 + ^ r8: .cfa -20 + ^ r9: .cfa -16 + ^
STACK CFI INIT 64244 48 .cfa: sp 0 + .ra: lr
STACK CFI 64246 .cfa: sp 20 +
STACK CFI 64248 .cfa: sp 48 +
STACK CFI 6424a .ra: .cfa -4 + ^ r4: .cfa -20 + ^ r5: .cfa -16 + ^ r6: .cfa -12 + ^ r7: .cfa -8 + ^
STACK CFI INIT 6428c 168 .cfa: sp 0 + .ra: lr
STACK CFI 64290 .cfa: sp 36 +
STACK CFI 64292 .cfa: sp 104 +
STACK CFI 64294 .cfa: r7 88 + .ra: .cfa -4 + ^ r10: .cfa -12 + ^ r11: .cfa -8 + ^ r4: .cfa -36 + ^ r5: .cfa -32 + ^ r6: .cfa -28 + ^ r7: .cfa -24 + ^ r8: .cfa -20 + ^ r9: .cfa -16 + ^
STACK CFI INIT 643f4 148 .cfa: sp 0 + .ra: lr
STACK CFI 643f8 .cfa: sp 32 +
STACK CFI 643fa .ra: .cfa -4 + ^ r10: .cfa -8 + ^ r4: .cfa -32 + ^ r5: .cfa -28 + ^ r6: .cfa -24 + ^ r7: .cfa -20 + ^ r8: .cfa -16 + ^ r9: .cfa -12 + ^
STACK CFI INIT 6453c 1e .cfa: sp 0 + .ra: lr
STACK CFI 6453e .cfa: sp 16 +
STACK CFI 64540 .cfa: sp 24 +
STACK CFI 64542 .ra: .cfa -4 + ^ r4: .cfa -16 + ^ r5: .cfa -12 + ^ r6: .cfa -8 + ^
STACK CFI INIT 6455c 2fc .cfa: sp 0 + .ra: lr
STACK CFI 64560 .cfa: sp 36 +
STACK CFI 64562 .cfa: sp 144 +
STACK CFI 64564 .cfa: r7 128 + .ra: .cfa -4 + ^ r10: .cfa -12 + ^ r11: .cfa -8 + ^ r4: .cfa -36 + ^ r5: .cfa -32 + ^ r6: .cfa -28 + ^ r7: .cfa -24 + ^ r8: .cfa -20 + ^ r9: .cfa -16 + ^
STACK CFI INIT 64858 32 .cfa: sp 0 + .ra: lr
STACK CFI 6485a .cfa: sp 16 +
STACK CFI 6485c .cfa: sp 48 +
STACK CFI 64862 .ra: .cfa -4 + ^ r4: .cfa -16 + ^ r5: .cfa -12 + ^ r6: .cfa -8 + ^
STACK CFI INIT 6488c 2fc .cfa: sp 0 + .ra: lr
STACK CFI 64890 .cfa: sp 36 +
STACK CFI 64892 .cfa: sp 144 +
STACK CFI 64894 .cfa: r7 128 + .ra: .cfa -4 + ^ r10: .cfa -12 + ^ r11: .cfa -8 + ^ r4: .cfa -36 + ^ r5: .cfa -32 + ^ r6: .cfa -28 + ^ r7: .cfa -24 + ^ r8: .cfa -20 + ^ r9: .cfa -16 + ^
STACK CFI INIT 64b88 32 .cfa: sp 0 + .ra: lr
STACK CFI 64b8a .cfa: sp 16 +
STACK CFI 64b8c .cfa: sp 48 +
STACK CFI 64b92 .ra: .cfa -4 + ^ r4: .cfa -16 + ^ r5: .cfa -12 + ^ r6: .cfa -8 + ^
STACK CFI INIT 64bbc 82 .cfa: sp 0 + .ra: lr
STACK CFI 64bbe .cfa: sp 16 +
STACK CFI 64bc2 r4: .cfa -16 + ^ r5: .cfa -12 + ^ r6: .cfa -8 + ^ r7: .cfa -4 + ^
STACK CFI INIT 64c40 214 .cfa: sp 0 + .ra: lr
STACK CFI 64c44 .cfa: sp 36 +
STACK CFI 64c46 .cfa: sp 96 +
STACK CFI 64c4a .ra: .cfa -4 + ^ r10: .cfa -12 + ^ r11: .cfa -8 + ^ r4: .cfa -36 + ^ r5: .cfa -32 + ^ r6: .cfa -28 + ^ r7: .cfa -24 + ^ r8: .cfa -20 + ^ r9: .cfa -16 + ^
STACK CFI 64c4c .cfa: r7 80 +
STACK CFI INIT 64e54 5c .cfa: sp 0 + .ra: lr
STACK CFI 64e58 .cfa: sp 24 +
STACK CFI 64e5a .cfa: sp 56 +
STACK CFI 64e5c .ra: .cfa -4 + ^ r4: .cfa -24 + ^ r5: .cfa -20 + ^ r6: .cfa -16 + ^ r7: .cfa -12 + ^ r8: .cfa -8 + ^
STACK CFI INIT 64eb0 2a .cfa: sp 0 + .ra: lr
STACK CFI 64eb2 .cfa: sp 16 +
STACK CFI 64eb4 .cfa: sp 40 +
STACK CFI 64eba .ra: .cfa -4 + ^ r4: .cfa -16 + ^ r5: .cfa -12 + ^ r6: .cfa -8 + ^
STACK CFI INIT 64edc 244 .cfa: sp 0 + .ra: lr
STACK CFI 64ee0 .cfa: sp 36 +
STACK CFI 64ee2 .cfa: sp 96 +
STACK CFI 64ee4 .ra: .cfa -4 + ^ r10: .cfa -12 + ^ r11: .cfa -8 + ^ r4: .cfa -36 + ^ r5: .cfa -32 + ^ r6: .cfa -28 + ^ r7: .cfa -24 + ^ r8: .cfa -20 + ^ r9: .cfa -16 + ^
STACK CFI 64ee6 .cfa: r7 80 +
STACK CFI INIT 65120 2a .cfa: sp 0 + .ra: lr
STACK CFI 65122 .cfa: sp 16 +
STACK CFI 65124 .cfa: sp 40 +
STACK CFI 6512a .ra: .cfa -4 + ^ r4: .cfa -16 + ^ r5: .cfa -12 + ^ r6: .cfa -8 + ^
STACK CFI INIT 6514c 2dc .cfa: sp 0 + .ra: lr
STACK CFI 65150 .cfa: sp 36 +
STACK CFI 65152 .cfa: sp 136 +
STACK CFI 65154 .cfa: r7 120 + .ra: .cfa -4 + ^ r10: .cfa -12 + ^ r11: .cfa -8 + ^ r4: .cfa -36 + ^ r5: .cfa -32 + ^ r6: .cfa -28 + ^ r7: .cfa -24 + ^ r8: .cfa -20 + ^ r9: .cfa -16 + ^
STACK CFI INIT 65428 ce .cfa: sp 0 + .ra: lr
STACK CFI 6542c .cfa: sp 36 +
STACK CFI 6542e .cfa: sp 56 +
STACK CFI 65430 .ra: .cfa -4 + ^ r10: .cfa -12 + ^ r11: .cfa -8 + ^ r4: .cfa -36 + ^ r5: .cfa -32 + ^ r6: .cfa -28 + ^ r7: .cfa -24 + ^ r8: .cfa -20 + ^ r9: .cfa -16 + ^
STACK CFI INIT 654f8 210 .cfa: sp 0 + .ra: lr
STACK CFI 654fc .cfa: sp 36 +
STACK CFI 654fe .cfa: sp 96 +
STACK CFI 65502 .ra: .cfa -4 + ^ r10: .cfa -12 + ^ r11: .cfa -8 + ^ r4: .cfa -36 + ^ r5: .cfa -32 + ^ r6: .cfa -28 + ^ r7: .cfa -24 + ^ r8: .cfa -20 + ^ r9: .cfa -16 + ^
STACK CFI 65504 .cfa: r7 80 +
STACK CFI INIT 65708 2c .cfa: sp 0 + .ra: lr
STACK CFI 6570a .cfa: sp 16 +
STACK CFI 6570c .cfa: sp 40 +
STACK CFI 6570e .ra: .cfa -4 + ^ r4: .cfa -16 + ^ r5: .cfa -12 + ^ r6: .cfa -8 + ^
STACK CFI INIT 65734 264 .cfa: sp 0 + .ra: lr
STACK CFI 65738 .cfa: sp 36 +
STACK CFI 6573a .cfa: sp 96 +
STACK CFI 6573c .cfa: r7 80 + .ra: .cfa -4 + ^ r10: .cfa -12 + ^ r11: .cfa -8 + ^ r4: .cfa -36 + ^ r5: .cfa -32 + ^ r6: .cfa -28 + ^ r7: .cfa -24 + ^ r8: .cfa -20 + ^ r9: .cfa -16 + ^
STACK CFI INIT 65998 2c .cfa: sp 0 + .ra: lr
STACK CFI 6599a .cfa: sp 16 +
STACK CFI 6599c .cfa: sp 40 +
STACK CFI 6599e .ra: .cfa -4 + ^ r4: .cfa -16 + ^ r5: .cfa -12 + ^ r6: .cfa -8 + ^
STACK CFI INIT 659c4 3c .cfa: sp 0 + .ra: lr
STACK CFI 659c8 .cfa: sp 8 +
STACK CFI 659ca .ra: .cfa -4 + ^ r4: .cfa -8 + ^
STACK CFI INIT 65a00 13e .cfa: sp 0 + .ra: lr
STACK CFI 65a04 .cfa: sp 36 +
STACK CFI 65a06 .cfa: sp 56 +
STACK CFI 65a08 .ra: .cfa -4 + ^ r10: .cfa -12 + ^ r11: .cfa -8 + ^ r4: .cfa -36 + ^ r5: .cfa -32 + ^ r6: .cfa -28 + ^ r7: .cfa -24 + ^ r8: .cfa -20 + ^ r9: .cfa -16 + ^
STACK CFI INIT 65b40 ce .cfa: sp 0 + .ra: lr
STACK CFI 65b44 .cfa: sp 28 +
STACK CFI 65b46 .cfa: sp 88 +
STACK CFI 65b48 .ra: .cfa -4 + ^ r4: .cfa -28 + ^ r5: .cfa -24 + ^ r6: .cfa -20 + ^ r7: .cfa -16 + ^ r8: .cfa -12 + ^ r9: .cfa -8 + ^
STACK CFI INIT 65c10 980 .cfa: sp 0 + .ra: lr
STACK CFI 65c14 .cfa: sp 36 +
STACK CFI 65c16 .cfa: sp 136 +
STACK CFI 65c1a .ra: .cfa -4 + ^ r10: .cfa -12 + ^ r11: .cfa -8 + ^ r4: .cfa -36 + ^ r5: .cfa -32 + ^ r6: .cfa -28 + ^ r7: .cfa -24 + ^ r8: .cfa -20 + ^ r9: .cfa -16 + ^
STACK CFI INIT 66590 980 .cfa: sp 0 + .ra: lr
STACK CFI 66594 .cfa: sp 36 +
STACK CFI 66596 .cfa: sp 136 +
STACK CFI 6659a .ra: .cfa -4 + ^ r10: .cfa -12 + ^ r11: .cfa -8 + ^ r4: .cfa -36 + ^ r5: .cfa -32 + ^ r6: .cfa -28 + ^ r7: .cfa -24 + ^ r8: .cfa -20 + ^ r9: .cfa -16 + ^
STACK CFI INIT 66f10 108 .cfa: sp 0 + .ra: lr
STACK CFI 66f14 .cfa: sp 36 +
STACK CFI 66f16 .cfa: sp 80 +
STACK CFI 66f18 .ra: .cfa -4 + ^ r10: .cfa -12 + ^ r11: .cfa -8 + ^ r4: .cfa -36 + ^ r5: .cfa -32 + ^ r6: .cfa -28 + ^ r7: .cfa -24 + ^ r8: .cfa -20 + ^ r9: .cfa -16 + ^
STACK CFI INIT 67018 b0 .cfa: sp 0 + .ra: lr
STACK CFI 6701c .cfa: sp 24 +
STACK CFI 6701e .ra: .cfa -4 + ^ r4: .cfa -24 + ^ r5: .cfa -20 + ^ r6: .cfa -16 + ^ r7: .cfa -12 + ^ r8: .cfa -8 + ^
STACK CFI 67022 .cfa: sp 64 +
STACK CFI INIT 670c8 324 .cfa: sp 0 + .ra: lr
STACK CFI 670cc .cfa: sp 36 +
STACK CFI 670ce .cfa: sp 72 +
STACK CFI 670d0 .cfa: r7 72 + .ra: .cfa -4 + ^ r10: .cfa -12 + ^ r11: .cfa -8 + ^ r4: .cfa -36 + ^ r5: .cfa -32 + ^ r6: .cfa -28 + ^ r7: .cfa -24 + ^ r8: .cfa -20 + ^ r9: .cfa -16 + ^
STACK CFI INIT 673ec 15e .cfa: sp 0 + .ra: lr
STACK CFI 673f0 .cfa: sp 36 +
STACK CFI 673f2 .cfa: sp 200 +
STACK CFI 673f4 .ra: .cfa -4 + ^ r10: .cfa -12 + ^ r11: .cfa -8 + ^ r4: .cfa -36 + ^ r5: .cfa -32 + ^ r6: .cfa -28 + ^ r7: .cfa -24 + ^ r8: .cfa -20 + ^ r9: .cfa -16 + ^
STACK CFI INIT 6754c 110 .cfa: sp 0 + .ra: lr
STACK CFI 67550 .cfa: sp 36 +
STACK CFI 67552 .cfa: sp 152 +
STACK CFI 67554 .ra: .cfa -4 + ^ r10: .cfa -12 + ^ r11: .cfa -8 + ^ r4: .cfa -36 + ^ r5: .cfa -32 + ^ r6: .cfa -28 + ^ r7: .cfa -24 + ^ r8: .cfa -20 + ^ r9: .cfa -16 + ^
STACK CFI INIT 6765c 344 .cfa: sp 0 + .ra: lr
STACK CFI 67660 .cfa: sp 36 +
STACK CFI 67662 .cfa: sp 72 +
STACK CFI 67664 .cfa: r7 72 + .ra: .cfa -4 + ^ r10: .cfa -12 + ^ r11: .cfa -8 + ^ r4: .cfa -36 + ^ r5: .cfa -32 + ^ r6: .cfa -28 + ^ r7: .cfa -24 + ^ r8: .cfa -20 + ^ r9: .cfa -16 + ^
STACK CFI INIT 679a0 a00 .cfa: sp 0 + .ra: lr
STACK CFI 679a4 .cfa: sp 36 +
STACK CFI 679a6 .cfa: sp 304 +
STACK CFI 679a8 .ra: .cfa -4 + ^ r10: .cfa -12 + ^ r11: .cfa -8 + ^ r4: .cfa -36 + ^ r5: .cfa -32 + ^ r6: .cfa -28 + ^ r7: .cfa -24 + ^ r8: .cfa -20 + ^ r9: .cfa -16 + ^
STACK CFI INIT 683a0 96 .cfa: sp 0 + .ra: lr
STACK CFI 683a4 .cfa: sp 28 +
STACK CFI 683a6 .cfa: sp 72 +
STACK CFI 683a8 .ra: .cfa -4 + ^ r4: .cfa -28 + ^ r5: .cfa -24 + ^ r6: .cfa -20 + ^ r7: .cfa -16 + ^ r8: .cfa -12 + ^ r9: .cfa -8 + ^
STACK CFI INIT 68438 96 .cfa: sp 0 + .ra: lr
STACK CFI 6843c .cfa: sp 28 +
STACK CFI 6843e .cfa: sp 72 +
STACK CFI 68440 .ra: .cfa -4 + ^ r4: .cfa -28 + ^ r5: .cfa -24 + ^ r6: .cfa -20 + ^ r7: .cfa -16 + ^ r8: .cfa -12 + ^ r9: .cfa -8 + ^
STACK CFI INIT 684d0 878 .cfa: sp 0 + .ra: lr
STACK CFI 684d4 .cfa: sp 36 +
STACK CFI 684d6 .cfa: sp 80 +
STACK CFI 684da .ra: .cfa -4 + ^ r10: .cfa -12 + ^ r11: .cfa -8 + ^ r4: .cfa -36 + ^ r5: .cfa -32 + ^ r6: .cfa -28 + ^ r7: .cfa -24 + ^ r8: .cfa -20 + ^ r9: .cfa -16 + ^
STACK CFI INIT 68d48 c4 .cfa: sp 0 + .ra: lr
STACK CFI 68d4c .cfa: sp 28 +
STACK CFI 68d4e .ra: .cfa -4 + ^ r4: .cfa -28 + ^ r5: .cfa -24 + ^ r6: .cfa -20 + ^ r7: .cfa -16 + ^ r8: .cfa -12 + ^ r9: .cfa -8 + ^
STACK CFI 68d52 .cfa: sp 80 +
STACK CFI INIT 68e0c c8 .cfa: sp 0 + .ra: lr
STACK CFI 68e10 .cfa: sp 28 +
STACK CFI 68e12 .ra: .cfa -4 + ^ r4: .cfa -28 + ^ r5: .cfa -24 + ^ r6: .cfa -20 + ^ r7: .cfa -16 + ^ r8: .cfa -12 + ^ r9: .cfa -8 + ^
STACK CFI 68e16 .cfa: sp 80 +
STACK CFI INIT 68ed4 c4 .cfa: sp 0 + .ra: lr
STACK CFI 68ed8 .cfa: sp 28 +
STACK CFI 68eda .ra: .cfa -4 + ^ r4: .cfa -28 + ^ r5: .cfa -24 + ^ r6: .cfa -20 + ^ r7: .cfa -16 + ^ r8: .cfa -12 + ^ r9: .cfa -8 + ^
STACK CFI 68ede .cfa: sp 80 +
STACK CFI INIT 68f98 660 .cfa: sp 0 + .ra: lr
STACK CFI 68f9c .cfa: sp 36 +
STACK CFI 68f9e .cfa: sp 120 +
STACK CFI 68fa2 .ra: .cfa -4 + ^ r10: .cfa -12 + ^ r11: .cfa -8 + ^ r4: .cfa -36 + ^ r5: .cfa -32 + ^ r6: .cfa -28 + ^ r7: .cfa -24 + ^ r8: .cfa -20 + ^ r9: .cfa -16 + ^
STACK CFI INIT 695f8 38 .cfa: sp 0 + .ra: lr
STACK CFI 695fa .cfa: sp 20 +
STACK CFI 695fc .cfa: sp 56 +
STACK CFI 695fe .ra: .cfa -4 + ^ r4: .cfa -20 + ^ r5: .cfa -16 + ^ r6: .cfa -12 + ^ r7: .cfa -8 + ^
STACK CFI INIT 69630 69c .cfa: sp 0 + .ra: lr
STACK CFI 69634 .cfa: sp 36 +
STACK CFI 69636 .cfa: sp 128 +
STACK CFI 6963a .ra: .cfa -4 + ^ r10: .cfa -12 + ^ r11: .cfa -8 + ^ r4: .cfa -36 + ^ r5: .cfa -32 + ^ r6: .cfa -28 + ^ r7: .cfa -24 + ^ r8: .cfa -20 + ^ r9: .cfa -16 + ^
STACK CFI INIT 69ccc 38 .cfa: sp 0 + .ra: lr
STACK CFI 69cce .cfa: sp 20 +
STACK CFI 69cd0 .cfa: sp 56 +
STACK CFI 69cd2 .ra: .cfa -4 + ^ r4: .cfa -20 + ^ r5: .cfa -16 + ^ r6: .cfa -12 + ^ r7: .cfa -8 + ^
STACK CFI INIT 69d04 5bc .cfa: sp 0 + .ra: lr
STACK CFI 69d08 .cfa: sp 36 +
STACK CFI 69d0a .cfa: sp 88 +
STACK CFI 69d0e .ra: .cfa -4 + ^ r10: .cfa -12 + ^ r11: .cfa -8 + ^ r4: .cfa -36 + ^ r5: .cfa -32 + ^ r6: .cfa -28 + ^ r7: .cfa -24 + ^ r8: .cfa -20 + ^ r9: .cfa -16 + ^
STACK CFI INIT 6a2c0 5c .cfa: sp 0 + .ra: lr
STACK CFI 6a2c2 .cfa: sp 20 +
STACK CFI 6a2c4 .cfa: sp 64 +
STACK CFI 6a2c6 .ra: .cfa -4 + ^ r4: .cfa -20 + ^ r5: .cfa -16 + ^ r6: .cfa -12 + ^ r7: .cfa -8 + ^
STACK CFI INIT 6a31c 38 .cfa: sp 0 + .ra: lr
STACK CFI 6a31e .cfa: sp 20 +
STACK CFI 6a320 .cfa: sp 56 +
STACK CFI 6a322 .ra: .cfa -4 + ^ r4: .cfa -20 + ^ r5: .cfa -16 + ^ r6: .cfa -12 + ^ r7: .cfa -8 + ^
STACK CFI INIT 6a354 5bc .cfa: sp 0 + .ra: lr
STACK CFI 6a358 .cfa: sp 36 +
STACK CFI 6a35a .cfa: sp 88 +
STACK CFI 6a35e .ra: .cfa -4 + ^ r10: .cfa -12 + ^ r11: .cfa -8 + ^ r4: .cfa -36 + ^ r5: .cfa -32 + ^ r6: .cfa -28 + ^ r7: .cfa -24 + ^ r8: .cfa -20 + ^ r9: .cfa -16 + ^
STACK CFI INIT 6a910 38 .cfa: sp 0 + .ra: lr
STACK CFI 6a912 .cfa: sp 20 +
STACK CFI 6a914 .cfa: sp 56 +
STACK CFI 6a916 .ra: .cfa -4 + ^ r4: .cfa -20 + ^ r5: .cfa -16 + ^ r6: .cfa -12 + ^ r7: .cfa -8 + ^
STACK CFI INIT 6a948 5dc .cfa: sp 0 + .ra: lr
STACK CFI 6a94c .cfa: sp 36 +
STACK CFI 6a94e .cfa: sp 88 +
STACK CFI 6a952 .ra: .cfa -4 + ^ r10: .cfa -12 + ^ r11: .cfa -8 + ^ r4: .cfa -36 + ^ r5: .cfa -32 + ^ r6: .cfa -28 + ^ r7: .cfa -24 + ^ r8: .cfa -20 + ^ r9: .cfa -16 + ^
STACK CFI INIT 6af24 38 .cfa: sp 0 + .ra: lr
STACK CFI 6af26 .cfa: sp 20 +
STACK CFI 6af28 .cfa: sp 56 +
STACK CFI 6af2a .ra: .cfa -4 + ^ r4: .cfa -20 + ^ r5: .cfa -16 + ^ r6: .cfa -12 + ^ r7: .cfa -8 + ^
STACK CFI INIT 6af5c 5e4 .cfa: sp 0 + .ra: lr
STACK CFI 6af60 .cfa: sp 36 +
STACK CFI 6af62 .cfa: sp 96 +
STACK CFI 6af66 .ra: .cfa -4 + ^ r10: .cfa -12 + ^ r11: .cfa -8 + ^ r4: .cfa -36 + ^ r5: .cfa -32 + ^ r6: .cfa -28 + ^ r7: .cfa -24 + ^ r8: .cfa -20 + ^ r9: .cfa -16 + ^
STACK CFI INIT 6b540 38 .cfa: sp 0 + .ra: lr
STACK CFI 6b542 .cfa: sp 20 +
STACK CFI 6b544 .cfa: sp 56 +
STACK CFI 6b546 .ra: .cfa -4 + ^ r4: .cfa -20 + ^ r5: .cfa -16 + ^ r6: .cfa -12 + ^ r7: .cfa -8 + ^
STACK CFI INIT 6b578 2f4 .cfa: sp 0 + .ra: lr
STACK CFI 6b57c .cfa: sp 36 +
STACK CFI 6b57e .cfa: sp 96 +
STACK CFI 6b580 .ra: .cfa -4 + ^ r10: .cfa -12 + ^ r11: .cfa -8 + ^ r4: .cfa -36 + ^ r5: .cfa -32 + ^ r6: .cfa -28 + ^ r7: .cfa -24 + ^ r8: .cfa -20 + ^ r9: .cfa -16 + ^
STACK CFI INIT 6b86c 114 .cfa: sp 0 + .ra: lr
STACK CFI INIT 6b980 2c .cfa: sp 0 + .ra: lr
STACK CFI 6b982 .cfa: sp 8 +
STACK CFI 6b984 .cfa: sp 24 +
STACK CFI 6b986 .cfa: sp 32 +
STACK CFI 6b988 .ra: .cfa -12 + ^ r4: .cfa -24 + ^ r5: .cfa -20 + ^ r6: .cfa -16 + ^
STACK CFI INIT 6b9ac 2c .cfa: sp 0 + .ra: lr
STACK CFI 6b9ae .cfa: sp 8 +
STACK CFI 6b9b0 .cfa: sp 24 +
STACK CFI 6b9b2 .cfa: sp 32 +
STACK CFI 6b9b4 .ra: .cfa -12 + ^ r4: .cfa -24 + ^ r5: .cfa -20 + ^ r6: .cfa -16 + ^
STACK CFI INIT 6b9d8 a .cfa: sp 0 + .ra: lr
STACK CFI INIT 6b9e4 26 .cfa: sp 0 + .ra: lr
STACK CFI 6b9e6 .cfa: sp 16 +
STACK CFI 6b9e8 .ra: .cfa -4 + ^ r3: .cfa -16 + ^ r4: .cfa -12 + ^ r5: .cfa -8 + ^
STACK CFI INIT 6ba0c 24 .cfa: sp 0 + .ra: lr
STACK CFI 6ba14 .cfa: sp 8 +
STACK CFI 6ba16 .ra: .cfa -4 + ^ r4: .cfa -8 + ^
STACK CFI INIT 6ba30 24 .cfa: sp 0 + .ra: lr
STACK CFI 6ba38 .cfa: sp 8 +
STACK CFI 6ba3a .ra: .cfa -4 + ^ r4: .cfa -8 + ^
STACK CFI INIT 6ba54 78 .cfa: sp 0 + .ra: lr
STACK CFI 6ba58 .cfa: sp 24 +
STACK CFI 6ba5a .ra: .cfa -4 + ^ r4: .cfa -24 + ^ r5: .cfa -20 + ^ r6: .cfa -16 + ^ r7: .cfa -12 + ^ r8: .cfa -8 + ^
STACK CFI INIT 6bacc 92 .cfa: sp 0 + .ra: lr
STACK CFI 6bad0 .cfa: sp 32 +
STACK CFI 6bad2 .ra: .cfa -4 + ^ r3: .cfa -32 + ^ r4: .cfa -28 + ^ r5: .cfa -24 + ^ r6: .cfa -20 + ^ r7: .cfa -16 + ^ r8: .cfa -12 + ^ r9: .cfa -8 + ^
STACK CFI INIT 6bb60 e .cfa: sp 0 + .ra: lr
STACK CFI 6bb62 .cfa: sp 8 +
STACK CFI 6bb64 .ra: .cfa -4 + ^ r4: .cfa -8 + ^
STACK CFI INIT 6bb70 58 .cfa: sp 0 + .ra: lr
STACK CFI 6bb74 .cfa: sp 28 +
STACK CFI 6bb76 .cfa: sp 56 +
STACK CFI 6bb78 .ra: .cfa -4 + ^ r4: .cfa -28 + ^ r5: .cfa -24 + ^ r6: .cfa -20 + ^ r7: .cfa -16 + ^ r8: .cfa -12 + ^ r9: .cfa -8 + ^
STACK CFI INIT 6bbc8 58 .cfa: sp 0 + .ra: lr
STACK CFI 6bbcc .cfa: sp 28 +
STACK CFI 6bbce .cfa: sp 56 +
STACK CFI 6bbd0 .ra: .cfa -4 + ^ r4: .cfa -28 + ^ r5: .cfa -24 + ^ r6: .cfa -20 + ^ r7: .cfa -16 + ^ r8: .cfa -12 + ^ r9: .cfa -8 + ^
STACK CFI INIT 6bc20 6 .cfa: sp 0 + .ra: lr
STACK CFI INIT 6bc28 6 .cfa: sp 0 + .ra: lr
STACK CFI INIT 6bc30 28 .cfa: sp 0 + .ra: lr
STACK CFI 6bc38 .cfa: sp 8 +
STACK CFI 6bc3a .ra: .cfa -4 + ^ r4: .cfa -8 + ^
STACK CFI INIT 6bc58 2c .cfa: sp 0 + .ra: lr
STACK CFI 6bc5e .cfa: sp 8 +
STACK CFI 6bc60 .ra: .cfa -4 + ^ r4: .cfa -8 + ^
STACK CFI INIT 6bc84 14 .cfa: sp 0 + .ra: lr
STACK CFI 6bc86 .cfa: sp 8 +
STACK CFI 6bc88 .ra: .cfa -4 + ^ r4: .cfa -8 + ^
STACK CFI INIT 6bc98 28 .cfa: sp 0 + .ra: lr
STACK CFI 6bca0 .cfa: sp 8 +
STACK CFI 6bca2 .ra: .cfa -4 + ^ r4: .cfa -8 + ^
STACK CFI INIT 6bcc0 2c .cfa: sp 0 + .ra: lr
STACK CFI 6bcc6 .cfa: sp 8 +
STACK CFI 6bcc8 .ra: .cfa -4 + ^ r4: .cfa -8 + ^
STACK CFI INIT 6bcec e .cfa: sp 0 + .ra: lr
STACK CFI 6bcee .cfa: sp 8 +
STACK CFI 6bcf0 .ra: .cfa -4 + ^ r4: .cfa -8 + ^
STACK CFI INIT 6bcfc 14 .cfa: sp 0 + .ra: lr
STACK CFI 6bcfe .cfa: sp 8 +
STACK CFI 6bd00 .ra: .cfa -4 + ^ r4: .cfa -8 + ^
STACK CFI INIT 6bd10 28 .cfa: sp 0 + .ra: lr
STACK CFI 6bd18 .cfa: sp 8 +
STACK CFI 6bd1a .ra: .cfa -4 + ^ r4: .cfa -8 + ^
STACK CFI INIT 6bd38 28 .cfa: sp 0 + .ra: lr
STACK CFI 6bd40 .cfa: sp 8 +
STACK CFI 6bd42 .ra: .cfa -4 + ^ r4: .cfa -8 + ^
STACK CFI INIT 6bd60 a .cfa: sp 0 + .ra: lr
STACK CFI INIT 6bd6c 3e .cfa: sp 0 + .ra: lr
STACK CFI 6bd6e .cfa: sp 16 +
STACK CFI 6bd70 .ra: .cfa -4 + ^ r4: .cfa -16 + ^ r5: .cfa -12 + ^ r6: .cfa -8 + ^
STACK CFI INIT 6bdac 1f8 .cfa: sp 0 + .ra: lr
STACK CFI 6bdb0 .cfa: sp 36 +
STACK CFI 6bdb2 .ra: .cfa -4 + ^ r10: .cfa -12 + ^ r11: .cfa -8 + ^ r4: .cfa -36 + ^ r5: .cfa -32 + ^ r6: .cfa -28 + ^ r7: .cfa -24 + ^ r8: .cfa -20 + ^ r9: .cfa -16 + ^
STACK CFI 6bdb6 .cfa: sp 560 +
STACK CFI INIT 6bfa4 a .cfa: sp 0 + .ra: lr
STACK CFI INIT 6bfb0 2e .cfa: sp 0 + .ra: lr
STACK CFI 6bfb2 .cfa: sp 16 +
STACK CFI 6bfb4 .ra: .cfa -4 + ^ r4: .cfa -16 + ^ r5: .cfa -12 + ^ r6: .cfa -8 + ^
STACK CFI INIT 6bfe0 4c .cfa: sp 0 + .ra: lr
STACK CFI 6bfe2 .cfa: sp 16 +
STACK CFI 6bfe4 .ra: .cfa -4 + ^ r4: .cfa -16 + ^ r5: .cfa -12 + ^ r6: .cfa -8 + ^
STACK CFI INIT 6c02c 4 .cfa: sp 0 + .ra: lr
STACK CFI INIT 6c030 4c .cfa: sp 0 + .ra: lr
STACK CFI 6c032 .cfa: sp 16 +
STACK CFI 6c034 .ra: .cfa -4 + ^ r4: .cfa -16 + ^ r5: .cfa -12 + ^ r6: .cfa -8 + ^
STACK CFI INIT 6c07c 4 .cfa: sp 0 + .ra: lr
STACK CFI INIT 6c080 34 .cfa: sp 0 + .ra: lr
STACK CFI 6c08c .cfa: sp 8 +
STACK CFI 6c08e .ra: .cfa -4 + ^ r4: .cfa -8 + ^
STACK CFI INIT 6c0c0 34 .cfa: sp 0 + .ra: lr
STACK CFI 6c0cc .cfa: sp 8 +
STACK CFI 6c0ce .ra: .cfa -4 + ^ r4: .cfa -8 + ^
STACK CFI INIT 6c100 14 .cfa: sp 0 + .ra: lr
STACK CFI 6c102 .cfa: sp 8 +
STACK CFI 6c106 .ra: .cfa -4 + ^ r3: .cfa -8 + ^
STACK CFI INIT 6c114 14 .cfa: sp 0 + .ra: lr
STACK CFI 6c116 .cfa: sp 8 +
STACK CFI 6c11a .ra: .cfa -4 + ^ r3: .cfa -8 + ^
STACK CFI INIT 6c128 38 .cfa: sp 0 + .ra: lr
STACK CFI 6c134 .cfa: sp 8 +
STACK CFI 6c136 .ra: .cfa -4 + ^ r4: .cfa -8 + ^
STACK CFI INIT 6c16c 38 .cfa: sp 0 + .ra: lr
STACK CFI 6c178 .cfa: sp 8 +
STACK CFI 6c17a .ra: .cfa -4 + ^ r4: .cfa -8 + ^
STACK CFI INIT 6c1b0 22 .cfa: sp 0 + .ra: lr
STACK CFI 6c1b6 .cfa: sp 8 +
STACK CFI 6c1b8 .ra: .cfa -4 + ^ r4: .cfa -8 + ^
STACK CFI INIT 6c1d4 68 .cfa: sp 0 + .ra: lr
STACK CFI 6c1d6 .cfa: sp 24 +
STACK CFI 6c1d8 .ra: .cfa -4 + ^ r3: .cfa -24 + ^ r4: .cfa -20 + ^ r5: .cfa -16 + ^ r6: .cfa -12 + ^ r7: .cfa -8 + ^
STACK CFI INIT 6c23c 12 .cfa: sp 0 + .ra: lr
STACK CFI 6c240 .cfa: sp 4 +
STACK CFI 6c242 r4: .cfa -4 + ^
STACK CFI INIT 6c250 6 .cfa: sp 0 + .ra: lr
STACK CFI 6c252 .cfa: sp 8 + .ra: .cfa -4 + ^ r3: .cfa -8 + ^
STACK CFI INIT 6c258 12 .cfa: sp 0 + .ra: lr
STACK CFI 6c25c .cfa: sp 8 +
STACK CFI 6c25e .ra: .cfa -4 + ^ r4: .cfa -8 + ^
STACK CFI INIT 6c26c 12 .cfa: sp 0 + .ra: lr
STACK CFI 6c270 .cfa: sp 8 +
STACK CFI 6c272 .ra: .cfa -4 + ^ r4: .cfa -8 + ^
STACK CFI INIT 6c280 36 .cfa: sp 0 + .ra: lr
STACK CFI 6c282 .cfa: sp 16 +
STACK CFI 6c284 .ra: .cfa -4 + ^ r4: .cfa -16 + ^ r5: .cfa -12 + ^ r6: .cfa -8 + ^
STACK CFI INIT 6c2b8 8c .cfa: sp 0 + .ra: lr
STACK CFI 6c2bc .cfa: sp 16 +
STACK CFI 6c2be .ra: .cfa -4 + ^ r3: .cfa -16 + ^ r4: .cfa -12 + ^ r5: .cfa -8 + ^
STACK CFI INIT 6c344 ac .cfa: sp 0 + .ra: lr
STACK CFI 6c346 .cfa: sp 20 +
STACK CFI 6c348 .ra: .cfa -4 + ^ r4: .cfa -20 + ^ r5: .cfa -16 + ^ r6: .cfa -12 + ^ r7: .cfa -8 + ^
STACK CFI 6c35c .cfa: sp 48 +
STACK CFI INIT 6c3f0 ce .cfa: sp 0 + .ra: lr
STACK CFI 6c3f2 .cfa: sp 8 +
STACK CFI 6c3f4 .cfa: sp 28 +
STACK CFI 6c3f6 .ra: .cfa -12 + ^ r4: .cfa -28 + ^ r5: .cfa -24 + ^ r6: .cfa -20 + ^ r7: .cfa -16 + ^
STACK CFI 6c3f8 .cfa: sp 80 +
STACK CFI INIT 6c4c0 ac .cfa: sp 0 + .ra: lr
STACK CFI 6c4c2 .cfa: sp 16 +
STACK CFI 6c4c4 .ra: .cfa -4 + ^ r4: .cfa -16 + ^ r5: .cfa -12 + ^ r6: .cfa -8 + ^
STACK CFI 6c4c8 .cfa: sp 40 +
STACK CFI INIT 6c56c 22 .cfa: sp 0 + .ra: lr
STACK CFI 6c572 .cfa: sp 8 +
STACK CFI 6c574 .ra: .cfa -4 + ^ r4: .cfa -8 + ^
STACK CFI INIT 6c590 6c .cfa: sp 0 + .ra: lr
STACK CFI 6c592 .cfa: sp 16 +
STACK CFI 6c594 .ra: .cfa -4 + ^ r4: .cfa -16 + ^ r5: .cfa -12 + ^ r6: .cfa -8 + ^
STACK CFI INIT 6c5fc 42 .cfa: sp 0 + .ra: lr
STACK CFI 6c5fe .cfa: sp 16 +
STACK CFI 6c600 .ra: .cfa -4 + ^ r3: .cfa -16 + ^ r4: .cfa -12 + ^ r5: .cfa -8 + ^
STACK CFI INIT 6c640 4e .cfa: sp 0 + .ra: lr
STACK CFI 6c642 .cfa: sp 16 +
STACK CFI 6c644 .ra: .cfa -4 + ^ r3: .cfa -16 + ^ r4: .cfa -12 + ^ r5: .cfa -8 + ^
STACK CFI INIT 6c690 ea .cfa: sp 0 + .ra: lr
STACK CFI 6c692 .cfa: sp 16 +
STACK CFI 6c694 .ra: .cfa -4 + ^ r4: .cfa -16 + ^ r5: .cfa -12 + ^ r6: .cfa -8 + ^
STACK CFI 6c696 .cfa: sp 24 +
STACK CFI INIT 6c77c fc .cfa: sp 0 + .ra: lr
STACK CFI 6c77e .cfa: sp 12 +
STACK CFI 6c780 .ra: .cfa -4 + ^ r4: .cfa -12 + ^ r5: .cfa -8 + ^
STACK CFI 6c782 .cfa: sp 24 +
STACK CFI INIT 6c878 f8 .cfa: sp 0 + .ra: lr
STACK CFI 6c87a .cfa: sp 12 +
STACK CFI 6c87c .ra: .cfa -4 + ^ r4: .cfa -12 + ^ r5: .cfa -8 + ^
STACK CFI 6c87e .cfa: sp 32 +
STACK CFI INIT 6c970 4 .cfa: sp 0 + .ra: lr
STACK CFI INIT 6c974 3e .cfa: sp 0 + .ra: lr
STACK CFI 6c978 .cfa: sp 16 +
STACK CFI 6c97a .ra: .cfa -4 + ^ r4: .cfa -16 + ^ r5: .cfa -12 + ^ r6: .cfa -8 + ^
STACK CFI INIT 6c9b4 6 .cfa: sp 0 + .ra: lr
STACK CFI INIT 6c9bc 4 .cfa: sp 0 + .ra: lr
STACK CFI INIT 6c9c0 40 .cfa: sp 0 + .ra: lr
STACK CFI 6c9c2 .cfa: sp 24 +
STACK CFI 6c9c4 .ra: .cfa -4 + ^ r3: .cfa -24 + ^ r4: .cfa -20 + ^ r5: .cfa -16 + ^ r6: .cfa -12 + ^ r7: .cfa -8 + ^
STACK CFI INIT 6ca00 10 .cfa: sp 0 + .ra: lr
STACK CFI INIT 6ca10 12 .cfa: sp 0 + .ra: lr
STACK CFI INIT 6ca24 46 .cfa: sp 0 + .ra: lr
STACK CFI INIT 6ca6c c .cfa: sp 0 + .ra: lr
STACK CFI INIT 6ca78 c .cfa: sp 0 + .ra: lr
STACK CFI INIT 6ca84 3c6 .cfa: sp 0 + .ra: lr
STACK CFI 6ca88 .cfa: sp 36 +
STACK CFI 6ca8a .ra: .cfa -4 + ^ r10: .cfa -12 + ^ r11: .cfa -8 + ^ r4: .cfa -36 + ^ r5: .cfa -32 + ^ r6: .cfa -28 + ^ r7: .cfa -24 + ^ r8: .cfa -20 + ^ r9: .cfa -16 + ^
STACK CFI 6ca8c .cfa: sp 48 +
STACK CFI INIT 6ce4c 34 .cfa: sp 0 + .ra: lr
STACK CFI 6ce4e .cfa: sp 16 +
STACK CFI 6ce50 .ra: .cfa -4 + ^ r3: .cfa -16 + ^ r4: .cfa -12 + ^ r5: .cfa -8 + ^
STACK CFI INIT 6ce80 16 .cfa: sp 0 + .ra: lr
STACK CFI 6ce82 .cfa: sp 4 +
STACK CFI 6ce84 .cfa: sp 16 +
STACK CFI 6ce8e .ra: .cfa -4 + ^
STACK CFI INIT 6ce98 16 .cfa: sp 0 + .ra: lr
STACK CFI 6ce9a .cfa: sp 4 +
STACK CFI 6ce9c .cfa: sp 16 +
STACK CFI 6cea6 .ra: .cfa -4 + ^
STACK CFI INIT 6ceb0 16 .cfa: sp 0 + .ra: lr
STACK CFI 6ceb2 .cfa: sp 4 +
STACK CFI 6ceb4 .cfa: sp 16 +
STACK CFI 6cebe .ra: .cfa -4 + ^
STACK CFI INIT 6cec8 34 .cfa: sp 0 + .ra: lr
STACK CFI 6ceca .cfa: sp 16 +
STACK CFI 6cecc .ra: .cfa -4 + ^ r3: .cfa -16 + ^ r4: .cfa -12 + ^ r5: .cfa -8 + ^
STACK CFI INIT 6cefc 34 .cfa: sp 0 + .ra: lr
STACK CFI 6cefe .cfa: sp 16 +
STACK CFI 6cf00 .ra: .cfa -4 + ^ r3: .cfa -16 + ^ r4: .cfa -12 + ^ r5: .cfa -8 + ^
STACK CFI INIT 6cf30 168 .cfa: sp 0 + .ra: lr
STACK CFI 6cf34 .cfa: sp 28 +
STACK CFI 6cf36 .ra: .cfa -4 + ^ r4: .cfa -28 + ^ r5: .cfa -24 + ^ r6: .cfa -20 + ^ r7: .cfa -16 + ^ r8: .cfa -12 + ^ r9: .cfa -8 + ^
STACK CFI 6cf38 .cfa: sp 72 +
STACK CFI INIT 6d098 4 .cfa: sp 0 + .ra: lr
STACK CFI INIT 6d09c 38 .cfa: sp 0 + .ra: lr
STACK CFI 6d0a0 .cfa: sp 4 +
STACK CFI 6d0a2 r4: .cfa -4 + ^
STACK CFI INIT 6d0d4 4 .cfa: sp 0 + .ra: lr
STACK CFI INIT 6d0d8 168 .cfa: sp 0 + .ra: lr
STACK CFI 6d0dc .cfa: sp 28 +
STACK CFI 6d0de .ra: .cfa -4 + ^ r4: .cfa -28 + ^ r5: .cfa -24 + ^ r6: .cfa -20 + ^ r7: .cfa -16 + ^ r8: .cfa -12 + ^ r9: .cfa -8 + ^
STACK CFI 6d0e0 .cfa: sp 72 +
STACK CFI INIT 6d240 4 .cfa: sp 0 + .ra: lr
STACK CFI INIT 6d244 4 .cfa: sp 0 + .ra: lr
STACK CFI INIT 6d248 4 .cfa: sp 0 + .ra: lr
STACK CFI INIT 6d24c 168 .cfa: sp 0 + .ra: lr
STACK CFI 6d250 .cfa: sp 28 +
STACK CFI 6d252 .ra: .cfa -4 + ^ r4: .cfa -28 + ^ r5: .cfa -24 + ^ r6: .cfa -20 + ^ r7: .cfa -16 + ^ r8: .cfa -12 + ^ r9: .cfa -8 + ^
STACK CFI 6d254 .cfa: sp 72 +
STACK CFI INIT 6d3b4 4 .cfa: sp 0 + .ra: lr
STACK CFI INIT 6d3b8 16a .cfa: sp 0 + .ra: lr
STACK CFI 6d3bc .cfa: sp 32 +
STACK CFI 6d3be .ra: .cfa -4 + ^ r10: .cfa -12 + ^ r11: .cfa -8 + ^ r4: .cfa -32 + ^ r5: .cfa -28 + ^ r6: .cfa -24 + ^ r7: .cfa -20 + ^ r8: .cfa -16 + ^
STACK CFI 6d3c0 .cfa: sp 72 +
STACK CFI INIT 6d524 4 .cfa: sp 0 + .ra: lr
STACK CFI INIT 6d528 16a .cfa: sp 0 + .ra: lr
STACK CFI 6d52c .cfa: sp 32 +
STACK CFI 6d52e .ra: .cfa -4 + ^ r10: .cfa -12 + ^ r11: .cfa -8 + ^ r4: .cfa -32 + ^ r5: .cfa -28 + ^ r6: .cfa -24 + ^ r7: .cfa -20 + ^ r8: .cfa -16 + ^
STACK CFI 6d530 .cfa: sp 72 +
STACK CFI INIT 6d694 4 .cfa: sp 0 + .ra: lr
STACK CFI INIT 6d698 16a .cfa: sp 0 + .ra: lr
STACK CFI 6d69c .cfa: sp 32 +
STACK CFI 6d69e .ra: .cfa -4 + ^ r10: .cfa -12 + ^ r11: .cfa -8 + ^ r4: .cfa -32 + ^ r5: .cfa -28 + ^ r6: .cfa -24 + ^ r7: .cfa -20 + ^ r8: .cfa -16 + ^
STACK CFI 6d6a0 .cfa: sp 72 +
STACK CFI INIT 6d804 18 .cfa: sp 0 + .ra: lr
STACK CFI 6d806 .cfa: sp 8 +
STACK CFI 6d808 .ra: .cfa -4 + ^ r4: .cfa -8 + ^
STACK CFI INIT 6d81c 4 .cfa: sp 0 + .ra: lr
STACK CFI INIT 6d820 16a .cfa: sp 0 + .ra: lr
STACK CFI 6d824 .cfa: sp 32 +
STACK CFI 6d826 .ra: .cfa -4 + ^ r10: .cfa -12 + ^ r11: .cfa -8 + ^ r4: .cfa -32 + ^ r5: .cfa -28 + ^ r6: .cfa -24 + ^ r7: .cfa -20 + ^ r8: .cfa -16 + ^
STACK CFI 6d828 .cfa: sp 72 +
STACK CFI INIT 6d98c 4 .cfa: sp 0 + .ra: lr
STACK CFI INIT 6d990 168 .cfa: sp 0 + .ra: lr
STACK CFI 6d994 .cfa: sp 28 +
STACK CFI 6d996 .ra: .cfa -4 + ^ r4: .cfa -28 + ^ r5: .cfa -24 + ^ r6: .cfa -20 + ^ r7: .cfa -16 + ^ r8: .cfa -12 + ^ r9: .cfa -8 + ^
STACK CFI 6d998 .cfa: sp 72 +
STACK CFI INIT 6daf8 4 .cfa: sp 0 + .ra: lr
STACK CFI INIT 6dafc 22 .cfa: sp 0 + .ra: lr
STACK CFI 6db02 .cfa: sp 8 +
STACK CFI 6db04 .ra: .cfa -4 + ^ r4: .cfa -8 + ^
STACK CFI INIT 6db20 68 .cfa: sp 0 + .ra: lr
STACK CFI 6db22 .cfa: sp 24 +
STACK CFI 6db24 .ra: .cfa -4 + ^ r3: .cfa -24 + ^ r4: .cfa -20 + ^ r5: .cfa -16 + ^ r6: .cfa -12 + ^ r7: .cfa -8 + ^
STACK CFI INIT 6db88 12 .cfa: sp 0 + .ra: lr
STACK CFI 6db8c .cfa: sp 4 +
STACK CFI 6db8e r4: .cfa -4 + ^
STACK CFI INIT 6db9c 6 .cfa: sp 0 + .ra: lr
STACK CFI 6db9e .cfa: sp 8 + .ra: .cfa -4 + ^ r3: .cfa -8 + ^
STACK CFI INIT 6dba4 12 .cfa: sp 0 + .ra: lr
STACK CFI 6dba8 .cfa: sp 8 +
STACK CFI 6dbaa .ra: .cfa -4 + ^ r4: .cfa -8 + ^
STACK CFI INIT 6dbb8 12 .cfa: sp 0 + .ra: lr
STACK CFI 6dbbc .cfa: sp 8 +
STACK CFI 6dbbe .ra: .cfa -4 + ^ r4: .cfa -8 + ^
STACK CFI INIT 6dbcc 36 .cfa: sp 0 + .ra: lr
STACK CFI 6dbce .cfa: sp 16 +
STACK CFI 6dbd0 .ra: .cfa -4 + ^ r4: .cfa -16 + ^ r5: .cfa -12 + ^ r6: .cfa -8 + ^
STACK CFI INIT 6dc04 8c .cfa: sp 0 + .ra: lr
STACK CFI 6dc08 .cfa: sp 16 +
STACK CFI 6dc0a .ra: .cfa -4 + ^ r3: .cfa -16 + ^ r4: .cfa -12 + ^ r5: .cfa -8 + ^
STACK CFI INIT 6dc90 ac .cfa: sp 0 + .ra: lr
STACK CFI 6dc92 .cfa: sp 20 +
STACK CFI 6dc94 .ra: .cfa -4 + ^ r4: .cfa -20 + ^ r5: .cfa -16 + ^ r6: .cfa -12 + ^ r7: .cfa -8 + ^
STACK CFI 6dca8 .cfa: sp 48 +
STACK CFI INIT 6dd3c ce .cfa: sp 0 + .ra: lr
STACK CFI 6dd3e .cfa: sp 8 +
STACK CFI 6dd40 .cfa: sp 28 +
STACK CFI 6dd42 .ra: .cfa -12 + ^ r4: .cfa -28 + ^ r5: .cfa -24 + ^ r6: .cfa -20 + ^ r7: .cfa -16 + ^
STACK CFI 6dd44 .cfa: sp 80 +
STACK CFI INIT 6de0c ac .cfa: sp 0 + .ra: lr
STACK CFI 6de0e .cfa: sp 16 +
STACK CFI 6de10 .ra: .cfa -4 + ^ r4: .cfa -16 + ^ r5: .cfa -12 + ^ r6: .cfa -8 + ^
STACK CFI 6de14 .cfa: sp 40 +
STACK CFI INIT 6deb8 22 .cfa: sp 0 + .ra: lr
STACK CFI 6debe .cfa: sp 8 +
STACK CFI 6dec0 .ra: .cfa -4 + ^ r4: .cfa -8 + ^
STACK CFI INIT 6dedc 6c .cfa: sp 0 + .ra: lr
STACK CFI 6dede .cfa: sp 16 +
STACK CFI 6dee0 .ra: .cfa -4 + ^ r4: .cfa -16 + ^ r5: .cfa -12 + ^ r6: .cfa -8 + ^
STACK CFI INIT 6df48 42 .cfa: sp 0 + .ra: lr
STACK CFI 6df4a .cfa: sp 16 +
STACK CFI 6df4c .ra: .cfa -4 + ^ r3: .cfa -16 + ^ r4: .cfa -12 + ^ r5: .cfa -8 + ^
STACK CFI INIT 6df8c 4e .cfa: sp 0 + .ra: lr
STACK CFI 6df8e .cfa: sp 16 +
STACK CFI 6df90 .ra: .cfa -4 + ^ r3: .cfa -16 + ^ r4: .cfa -12 + ^ r5: .cfa -8 + ^
STACK CFI INIT 6dfdc ea .cfa: sp 0 + .ra: lr
STACK CFI 6dfde .cfa: sp 16 +
STACK CFI 6dfe0 .ra: .cfa -4 + ^ r4: .cfa -16 + ^ r5: .cfa -12 + ^ r6: .cfa -8 + ^
STACK CFI 6dfe2 .cfa: sp 24 +
STACK CFI INIT 6e0c8 100 .cfa: sp 0 + .ra: lr
STACK CFI 6e0ca .cfa: sp 12 +
STACK CFI 6e0cc .ra: .cfa -4 + ^ r4: .cfa -12 + ^ r5: .cfa -8 + ^
STACK CFI 6e0ce .cfa: sp 24 +
STACK CFI INIT 6e1c8 f8 .cfa: sp 0 + .ra: lr
STACK CFI 6e1ca .cfa: sp 12 +
STACK CFI 6e1cc .ra: .cfa -4 + ^ r4: .cfa -12 + ^ r5: .cfa -8 + ^
STACK CFI 6e1ce .cfa: sp 32 +
STACK CFI INIT 6e2c0 4 .cfa: sp 0 + .ra: lr
STACK CFI INIT 6e2c4 2e .cfa: sp 0 + .ra: lr
STACK CFI 6e2c8 .cfa: sp 8 +
STACK CFI 6e2ca .ra: .cfa -4 + ^ r4: .cfa -8 + ^
STACK CFI INIT 6e2f4 6 .cfa: sp 0 + .ra: lr
STACK CFI INIT 6e2fc 4 .cfa: sp 0 + .ra: lr
STACK CFI INIT 6e300 38 .cfa: sp 0 + .ra: lr
STACK CFI 6e302 .cfa: sp 16 +
STACK CFI 6e304 .ra: .cfa -4 + ^ r4: .cfa -16 + ^ r5: .cfa -12 + ^ r6: .cfa -8 + ^
STACK CFI INIT 6e338 10 .cfa: sp 0 + .ra: lr
STACK CFI INIT 6e348 12 .cfa: sp 0 + .ra: lr
STACK CFI INIT 6e35c 46 .cfa: sp 0 + .ra: lr
STACK CFI INIT 6e3a4 c .cfa: sp 0 + .ra: lr
STACK CFI INIT 6e3b0 c .cfa: sp 0 + .ra: lr
STACK CFI INIT 6e3bc 3c8 .cfa: sp 0 + .ra: lr
STACK CFI 6e3c0 .cfa: sp 36 +
STACK CFI 6e3c2 .ra: .cfa -4 + ^ r10: .cfa -12 + ^ r11: .cfa -8 + ^ r4: .cfa -36 + ^ r5: .cfa -32 + ^ r6: .cfa -28 + ^ r7: .cfa -24 + ^ r8: .cfa -20 + ^ r9: .cfa -16 + ^
STACK CFI 6e3c4 .cfa: sp 48 +
STACK CFI INIT 6e784 34 .cfa: sp 0 + .ra: lr
STACK CFI 6e786 .cfa: sp 16 +
STACK CFI 6e788 .ra: .cfa -4 + ^ r3: .cfa -16 + ^ r4: .cfa -12 + ^ r5: .cfa -8 + ^
STACK CFI INIT 6e7b8 16 .cfa: sp 0 + .ra: lr
STACK CFI 6e7ba .cfa: sp 4 +
STACK CFI 6e7bc .cfa: sp 16 +
STACK CFI 6e7c6 .ra: .cfa -4 + ^
STACK CFI INIT 6e7d0 14e .cfa: sp 0 + .ra: lr
STACK CFI 6e7d4 .cfa: sp 32 +
STACK CFI 6e7d6 .ra: .cfa -4 + ^ r10: .cfa -8 + ^ r4: .cfa -32 + ^ r5: .cfa -28 + ^ r6: .cfa -24 + ^ r7: .cfa -20 + ^ r8: .cfa -16 + ^ r9: .cfa -12 + ^
STACK CFI INIT 6e920 30 .cfa: sp 0 + .ra: lr
STACK CFI 6e924 .cfa: sp 8 +
STACK CFI 6e926 .ra: .cfa -4 + ^ r4: .cfa -8 + ^
STACK CFI 6e92c .cfa: sp 16 +
STACK CFI INIT 6e950 148 .cfa: sp 0 + .ra: lr
STACK CFI 6e954 .cfa: sp 24 +
STACK CFI 6e956 .ra: .cfa -4 + ^ r4: .cfa -24 + ^ r5: .cfa -20 + ^ r6: .cfa -16 + ^ r7: .cfa -12 + ^ r8: .cfa -8 + ^
STACK CFI 6e958 .cfa: sp 64 +
STACK CFI INIT 6ea98 4 .cfa: sp 0 + .ra: lr
STACK CFI INIT 6ea9c 38 .cfa: sp 0 + .ra: lr
STACK CFI 6eaa0 .cfa: sp 4 +
STACK CFI 6eaa2 r4: .cfa -4 + ^
STACK CFI INIT 6ead4 4 .cfa: sp 0 + .ra: lr
STACK CFI INIT 6ead8 148 .cfa: sp 0 + .ra: lr
STACK CFI 6eadc .cfa: sp 24 +
STACK CFI 6eade .ra: .cfa -4 + ^ r4: .cfa -24 + ^ r5: .cfa -20 + ^ r6: .cfa -16 + ^ r7: .cfa -12 + ^ r8: .cfa -8 + ^
STACK CFI 6eae0 .cfa: sp 64 +
STACK CFI INIT 6ec20 4 .cfa: sp 0 + .ra: lr
STACK CFI INIT 6ec24 4 .cfa: sp 0 + .ra: lr
STACK CFI INIT 6ec28 4 .cfa: sp 0 + .ra: lr
STACK CFI INIT 6ec2c 148 .cfa: sp 0 + .ra: lr
STACK CFI 6ec30 .cfa: sp 24 +
STACK CFI 6ec32 .ra: .cfa -4 + ^ r4: .cfa -24 + ^ r5: .cfa -20 + ^ r6: .cfa -16 + ^ r7: .cfa -12 + ^ r8: .cfa -8 + ^
STACK CFI 6ec34 .cfa: sp 64 +
STACK CFI INIT 6ed74 4 .cfa: sp 0 + .ra: lr
STACK CFI INIT 6ed78 14a .cfa: sp 0 + .ra: lr
STACK CFI 6ed7c .cfa: sp 28 +
STACK CFI 6ed7e .ra: .cfa -4 + ^ r4: .cfa -28 + ^ r5: .cfa -24 + ^ r6: .cfa -20 + ^ r7: .cfa -16 + ^ r8: .cfa -12 + ^ r9: .cfa -8 + ^
STACK CFI 6ed80 .cfa: sp 72 +
STACK CFI INIT 6eec4 4 .cfa: sp 0 + .ra: lr
STACK CFI INIT 6eec8 14a .cfa: sp 0 + .ra: lr
STACK CFI 6eecc .cfa: sp 28 +
STACK CFI 6eece .ra: .cfa -4 + ^ r4: .cfa -28 + ^ r5: .cfa -24 + ^ r6: .cfa -20 + ^ r7: .cfa -16 + ^ r8: .cfa -12 + ^ r9: .cfa -8 + ^
STACK CFI 6eed0 .cfa: sp 72 +
STACK CFI INIT 6f014 4 .cfa: sp 0 + .ra: lr
STACK CFI INIT 6f018 14a .cfa: sp 0 + .ra: lr
STACK CFI 6f01c .cfa: sp 28 +
STACK CFI 6f01e .ra: .cfa -4 + ^ r4: .cfa -28 + ^ r5: .cfa -24 + ^ r6: .cfa -20 + ^ r7: .cfa -16 + ^ r8: .cfa -12 + ^ r9: .cfa -8 + ^
STACK CFI 6f020 .cfa: sp 72 +
STACK CFI INIT 6f164 18 .cfa: sp 0 + .ra: lr
STACK CFI 6f166 .cfa: sp 8 +
STACK CFI 6f168 .ra: .cfa -4 + ^ r4: .cfa -8 + ^
STACK CFI INIT 6f17c 4 .cfa: sp 0 + .ra: lr
STACK CFI INIT 6f180 14a .cfa: sp 0 + .ra: lr
STACK CFI 6f184 .cfa: sp 28 +
STACK CFI 6f186 .ra: .cfa -4 + ^ r4: .cfa -28 + ^ r5: .cfa -24 + ^ r6: .cfa -20 + ^ r7: .cfa -16 + ^ r8: .cfa -12 + ^ r9: .cfa -8 + ^
STACK CFI 6f188 .cfa: sp 72 +
STACK CFI INIT 6f2cc 4 .cfa: sp 0 + .ra: lr
STACK CFI INIT 6f2d0 148 .cfa: sp 0 + .ra: lr
STACK CFI 6f2d4 .cfa: sp 24 +
STACK CFI 6f2d6 .ra: .cfa -4 + ^ r4: .cfa -24 + ^ r5: .cfa -20 + ^ r6: .cfa -16 + ^ r7: .cfa -12 + ^ r8: .cfa -8 + ^
STACK CFI 6f2d8 .cfa: sp 64 +
STACK CFI INIT 6f418 4 .cfa: sp 0 + .ra: lr
STACK CFI INIT 6c1a4 a .cfa: sp 0 + .ra: lr
STACK CFI INIT 6c160 a .cfa: sp 0 + .ra: lr
STACK CFI INIT 6c0f4 a .cfa: sp 0 + .ra: lr
STACK CFI INIT 6c0b4 a .cfa: sp 0 + .ra: lr
STACK CFI INIT 6f41c 26 .cfa: sp 0 + .ra: lr
STACK CFI INIT 6f444 30 .cfa: sp 0 + .ra: lr
STACK CFI INIT 6f474 48 .cfa: sp 0 + .ra: lr
STACK CFI 6f47c .cfa: sp 12 +
STACK CFI 6f480 r4: .cfa -12 + ^ r5: .cfa -8 + ^ r6: .cfa -4 + ^
STACK CFI INIT 6f4bc 18e .cfa: sp 0 + .ra: lr
STACK CFI 6f4c0 .cfa: sp 32 +
STACK CFI 6f4c2 r10: .cfa -8 + ^ r11: .cfa -4 + ^ r4: .cfa -32 + ^ r5: .cfa -28 + ^ r6: .cfa -24 + ^ r7: .cfa -20 + ^ r8: .cfa -16 + ^ r9: .cfa -12 + ^
STACK CFI 6f4c4 .cfa: sp 72 +
STACK CFI INIT 6f64c c2 .cfa: sp 0 + .ra: lr
STACK CFI 6f64e .cfa: sp 8 +
STACK CFI 6f656 .cfa: sp 28 +
STACK CFI 6f658 r4: .cfa -28 + ^ r5: .cfa -24 + ^ r6: .cfa -20 + ^ r7: .cfa -16 + ^ r8: .cfa -12 + ^
STACK CFI INIT 6f710 28 .cfa: sp 0 + .ra: lr
STACK CFI INIT 6f738 30 .cfa: sp 0 + .ra: lr
STACK CFI INIT 6f768 44 .cfa: sp 0 + .ra: lr
STACK CFI 6f770 .cfa: sp 4 +
STACK CFI 6f774 r4: .cfa -4 + ^
STACK CFI INIT 6f7ac 1da .cfa: sp 0 + .ra: lr
STACK CFI 6f7b0 .cfa: sp 32 +
STACK CFI 6f7b2 r10: .cfa -8 + ^ r11: .cfa -4 + ^ r4: .cfa -32 + ^ r5: .cfa -28 + ^ r6: .cfa -24 + ^ r7: .cfa -20 + ^ r8: .cfa -16 + ^ r9: .cfa -12 + ^
STACK CFI 6f7b4 .cfa: sp 88 +
STACK CFI INIT 6f988 e8 .cfa: sp 0 + .ra: lr
STACK CFI 6f98a .cfa: sp 8 +
STACK CFI 6f992 .cfa: sp 32 +
STACK CFI 6f994 r4: .cfa -32 + ^ r5: .cfa -28 + ^ r6: .cfa -24 + ^ r7: .cfa -20 + ^ r8: .cfa -16 + ^ r9: .cfa -12 + ^
STACK CFI INIT 49a14 90 .cfa: sp 0 + .ra: lr
STACK CFI 49a16 .cfa: sp 20 +
STACK CFI 49a18 .ra: .cfa -4 + ^ r4: .cfa -20 + ^ r5: .cfa -16 + ^ r6: .cfa -12 + ^ r7: .cfa -8 + ^
STACK CFI 49a1c .cfa: sp 32 +
STACK CFI INIT 4a674 90 .cfa: sp 0 + .ra: lr
STACK CFI 4a676 .cfa: sp 20 +
STACK CFI 4a678 .ra: .cfa -4 + ^ r4: .cfa -20 + ^ r5: .cfa -16 + ^ r6: .cfa -12 + ^ r7: .cfa -8 + ^
STACK CFI 4a67c .cfa: sp 32 +
STACK CFI INIT 6fa70 10c .cfa: sp 0 + .ra: lr
STACK CFI 6fa74 .cfa: sp 32 +
STACK CFI 6fa76 .ra: .cfa -4 + ^ r10: .cfa -8 + ^ r4: .cfa -32 + ^ r5: .cfa -28 + ^ r6: .cfa -24 + ^ r7: .cfa -20 + ^ r8: .cfa -16 + ^ r9: .cfa -12 + ^
STACK CFI 6fa88 .cfa: sp 40 +
STACK CFI INIT 4b354 94 .cfa: sp 0 + .ra: lr
STACK CFI 4b356 .cfa: sp 20 +
STACK CFI 4b358 .ra: .cfa -4 + ^ r4: .cfa -20 + ^ r5: .cfa -16 + ^ r6: .cfa -12 + ^ r7: .cfa -8 + ^
STACK CFI 4b35c .cfa: sp 32 +
STACK CFI INIT 6fb90 104 .cfa: sp 0 + .ra: lr
STACK CFI 6fb94 .cfa: sp 32 +
STACK CFI 6fb96 .ra: .cfa -4 + ^ r10: .cfa -8 + ^ r4: .cfa -32 + ^ r5: .cfa -28 + ^ r6: .cfa -24 + ^ r7: .cfa -20 + ^ r8: .cfa -16 + ^ r9: .cfa -12 + ^
STACK CFI 6fba8 .cfa: sp 40 +
STACK CFI INIT 6fca8 d8 .cfa: sp 0 + .ra: lr
STACK CFI 6fcaa .cfa: sp 20 +
STACK CFI 6fcac .ra: .cfa -4 + ^ r4: .cfa -20 + ^ r5: .cfa -16 + ^ r6: .cfa -12 + ^ r7: .cfa -8 + ^
STACK CFI 6fcbe .cfa: sp 32 +
STACK CFI INIT 6fd8c dc .cfa: sp 0 + .ra: lr
STACK CFI 6fd8e .cfa: sp 20 +
STACK CFI 6fd90 .ra: .cfa -4 + ^ r4: .cfa -20 + ^ r5: .cfa -16 + ^ r6: .cfa -12 + ^ r7: .cfa -8 + ^
STACK CFI 6fda4 .cfa: sp 32 +
STACK CFI INIT 6fe74 dc .cfa: sp 0 + .ra: lr
STACK CFI 6fe76 .cfa: sp 20 +
STACK CFI 6fe78 .ra: .cfa -4 + ^ r4: .cfa -20 + ^ r5: .cfa -16 + ^ r6: .cfa -12 + ^ r7: .cfa -8 + ^
STACK CFI 6fe8a .cfa: sp 32 +
STACK CFI INIT 6ff5c e4 .cfa: sp 0 + .ra: lr
STACK CFI 6ff5e .cfa: sp 20 +
STACK CFI 6ff60 .ra: .cfa -4 + ^ r4: .cfa -20 + ^ r5: .cfa -16 + ^ r6: .cfa -12 + ^ r7: .cfa -8 + ^
STACK CFI 6ff74 .cfa: sp 32 +
STACK CFI INIT 4a5e0 94 .cfa: sp 0 + .ra: lr
STACK CFI 4a5e2 .cfa: sp 20 +
STACK CFI 4a5e4 .ra: .cfa -4 + ^ r4: .cfa -20 + ^ r5: .cfa -16 + ^ r6: .cfa -12 + ^ r7: .cfa -8 + ^
STACK CFI 4a5e8 .cfa: sp 32 +
STACK CFI INIT 7004c 104 .cfa: sp 0 + .ra: lr
STACK CFI 70050 .cfa: sp 32 +
STACK CFI 70052 .ra: .cfa -4 + ^ r10: .cfa -8 + ^ r4: .cfa -32 + ^ r5: .cfa -28 + ^ r6: .cfa -24 + ^ r7: .cfa -20 + ^ r8: .cfa -16 + ^ r9: .cfa -12 + ^
STACK CFI 70064 .cfa: sp 40 +
STACK CFI INIT 70164 d8 .cfa: sp 0 + .ra: lr
STACK CFI 70166 .cfa: sp 20 +
STACK CFI 70168 .ra: .cfa -4 + ^ r4: .cfa -20 + ^ r5: .cfa -16 + ^ r6: .cfa -12 + ^ r7: .cfa -8 + ^
STACK CFI 7017a .cfa: sp 32 +
STACK CFI INIT 70248 dc .cfa: sp 0 + .ra: lr
STACK CFI 7024a .cfa: sp 20 +
STACK CFI 7024c .ra: .cfa -4 + ^ r4: .cfa -20 + ^ r5: .cfa -16 + ^ r6: .cfa -12 + ^ r7: .cfa -8 + ^
STACK CFI 70260 .cfa: sp 32 +
STACK CFI INIT 70330 10c .cfa: sp 0 + .ra: lr
STACK CFI 70334 .cfa: sp 32 +
STACK CFI 70336 .ra: .cfa -4 + ^ r10: .cfa -8 + ^ r4: .cfa -32 + ^ r5: .cfa -28 + ^ r6: .cfa -24 + ^ r7: .cfa -20 + ^ r8: .cfa -16 + ^ r9: .cfa -12 + ^
STACK CFI 70348 .cfa: sp 40 +
STACK CFI INIT 70450 dc .cfa: sp 0 + .ra: lr
STACK CFI 70452 .cfa: sp 20 +
STACK CFI 70454 .ra: .cfa -4 + ^ r4: .cfa -20 + ^ r5: .cfa -16 + ^ r6: .cfa -12 + ^ r7: .cfa -8 + ^
STACK CFI 70466 .cfa: sp 32 +
STACK CFI INIT 70538 e4 .cfa: sp 0 + .ra: lr
STACK CFI 7053a .cfa: sp 20 +
STACK CFI 7053c .ra: .cfa -4 + ^ r4: .cfa -20 + ^ r5: .cfa -16 + ^ r6: .cfa -12 + ^ r7: .cfa -8 + ^
STACK CFI 70550 .cfa: sp 32 +
STACK CFI INIT 70628 54 .cfa: sp 0 + .ra: lr
STACK CFI 7062a .cfa: sp 16 +
STACK CFI 7062c .ra: .cfa -4 + ^ r4: .cfa -16 + ^ r5: .cfa -12 + ^ r6: .cfa -8 + ^
STACK CFI INIT 7067c 114 .cfa: sp 0 + .ra: lr
STACK CFI 7067e .cfa: sp 16 +
STACK CFI 70680 .ra: .cfa -4 + ^ r4: .cfa -16 + ^ r5: .cfa -12 + ^ r6: .cfa -8 + ^
STACK CFI 70684 .cfa: sp 40 +
STACK CFI INIT 70790 48 .cfa: sp 0 + .ra: lr
STACK CFI 70792 .cfa: sp 16 +
STACK CFI 70794 r4: .cfa -16 + ^ r5: .cfa -12 + ^ r6: .cfa -8 + ^ r7: .cfa -4 + ^
STACK CFI INIT 707d8 3a .cfa: sp 0 + .ra: lr
STACK CFI 707ea .cfa: sp 16 +
STACK CFI 707ec .ra: .cfa -4 + ^ r4: .cfa -16 + ^ r5: .cfa -12 + ^ r6: .cfa -8 + ^
STACK CFI INIT 70814 14 .cfa: sp 0 + .ra: lr
STACK CFI INIT 70828 15c .cfa: sp 0 + .ra: lr
STACK CFI 7082e .cfa: sp 28 +
STACK CFI 70834 .ra: .cfa -4 + ^ r4: .cfa -28 + ^ r5: .cfa -24 + ^ r6: .cfa -20 + ^ r7: .cfa -16 + ^ r8: .cfa -12 + ^ r9: .cfa -8 + ^
STACK CFI 70836 .cfa: sp 40 +
STACK CFI INIT 70984 2a .cfa: sp 0 + .ra: lr
STACK CFI 70988 .cfa: sp 8 +
STACK CFI 7098a .ra: .cfa -4 + ^ r4: .cfa -8 + ^
STACK CFI INIT 709b0 9c .cfa: sp 0 + .ra: lr
STACK CFI 709b4 .cfa: sp 36 +
STACK CFI 709b6 .ra: .cfa -4 + ^ r10: .cfa -12 + ^ r11: .cfa -8 + ^ r4: .cfa -36 + ^ r5: .cfa -32 + ^ r6: .cfa -28 + ^ r7: .cfa -24 + ^ r8: .cfa -20 + ^ r9: .cfa -16 + ^
STACK CFI 709c6 .cfa: sp 48 +
STACK CFI INIT 70a4c 20 .cfa: sp 0 + .ra: lr
STACK CFI INIT 70a6c c8 .cfa: sp 0 + .ra: lr
STACK CFI 70a72 .cfa: sp 32 +
STACK CFI 70a74 .ra: .cfa -4 + ^ r10: .cfa -8 + ^ r4: .cfa -32 + ^ r5: .cfa -28 + ^ r6: .cfa -24 + ^ r7: .cfa -20 + ^ r8: .cfa -16 + ^ r9: .cfa -12 + ^
STACK CFI INIT 70b34 104 .cfa: sp 0 + .ra: lr
STACK CFI 70b38 .cfa: sp 40 +
STACK CFI 70b3c .ra: .cfa -4 + ^ r10: .cfa -12 + ^ r11: .cfa -8 + ^ r3: .cfa -40 + ^ r4: .cfa -36 + ^ r5: .cfa -32 + ^ r6: .cfa -28 + ^ r7: .cfa -24 + ^ r8: .cfa -20 + ^ r9: .cfa -16 + ^
STACK CFI INIT 70c38 100 .cfa: sp 0 + .ra: lr
STACK CFI 70c3c .cfa: sp 36 +
STACK CFI 70c3e .ra: .cfa -4 + ^ r10: .cfa -12 + ^ r11: .cfa -8 + ^ r4: .cfa -36 + ^ r5: .cfa -32 + ^ r6: .cfa -28 + ^ r7: .cfa -24 + ^ r8: .cfa -20 + ^ r9: .cfa -16 + ^
STACK CFI 70c42 .cfa: sp 56 +
STACK CFI INIT 70d38 158 .cfa: sp 0 + .ra: lr
STACK CFI 70d3c .cfa: sp 36 +
STACK CFI 70d40 .ra: .cfa -4 + ^ r10: .cfa -12 + ^ r11: .cfa -8 + ^ r4: .cfa -36 + ^ r5: .cfa -32 + ^ r6: .cfa -28 + ^ r7: .cfa -24 + ^ r8: .cfa -20 + ^ r9: .cfa -16 + ^
STACK CFI 70d44 .cfa: sp 64 +
STACK CFI INIT 70e90 b0 .cfa: sp 0 + .ra: lr
STACK CFI 70e94 .cfa: sp 20 +
STACK CFI 70e96 .ra: .cfa -4 + ^ r4: .cfa -20 + ^ r5: .cfa -16 + ^ r6: .cfa -12 + ^ r7: .cfa -8 + ^
STACK CFI 70ea6 .cfa: sp 32 +
STACK CFI INIT 70f40 4 .cfa: sp 0 + .ra: lr
STACK CFI INIT 70f44 114 .cfa: sp 0 + .ra: lr
STACK CFI 70f46 .cfa: sp 16 +
STACK CFI 70f48 .ra: .cfa -4 + ^ r4: .cfa -16 + ^ r5: .cfa -12 + ^ r6: .cfa -8 + ^
STACK CFI 70f4c .cfa: sp 40 +
STACK CFI INIT 71058 2e .cfa: sp 0 + .ra: lr
STACK CFI 7105c .cfa: sp 16 +
STACK CFI 7105e .ra: .cfa -4 + ^ r4: .cfa -16 + ^ r5: .cfa -12 + ^ r6: .cfa -8 + ^
STACK CFI INIT 71088 b4 .cfa: sp 0 + .ra: lr
STACK CFI 7108c .cfa: sp 32 +
STACK CFI 7108e .ra: .cfa -4 + ^ r3: .cfa -32 + ^ r4: .cfa -28 + ^ r5: .cfa -24 + ^ r6: .cfa -20 + ^ r7: .cfa -16 + ^ r8: .cfa -12 + ^ r9: .cfa -8 + ^
STACK CFI INIT 7113c f8 .cfa: sp 0 + .ra: lr
STACK CFI 71140 .cfa: sp 40 +
STACK CFI 71144 .ra: .cfa -4 + ^ r10: .cfa -12 + ^ r11: .cfa -8 + ^ r3: .cfa -40 + ^ r4: .cfa -36 + ^ r5: .cfa -32 + ^ r6: .cfa -28 + ^ r7: .cfa -24 + ^ r8: .cfa -20 + ^ r9: .cfa -16 + ^
STACK CFI INIT 71234 100 .cfa: sp 0 + .ra: lr
STACK CFI 71238 .cfa: sp 36 +
STACK CFI 7123a .ra: .cfa -4 + ^ r10: .cfa -12 + ^ r11: .cfa -8 + ^ r4: .cfa -36 + ^ r5: .cfa -32 + ^ r6: .cfa -28 + ^ r7: .cfa -24 + ^ r8: .cfa -20 + ^ r9: .cfa -16 + ^
STACK CFI 7123e .cfa: sp 56 +
STACK CFI INIT 71334 154 .cfa: sp 0 + .ra: lr
STACK CFI 71338 .cfa: sp 36 +
STACK CFI 7133c .ra: .cfa -4 + ^ r10: .cfa -12 + ^ r11: .cfa -8 + ^ r4: .cfa -36 + ^ r5: .cfa -32 + ^ r6: .cfa -28 + ^ r7: .cfa -24 + ^ r8: .cfa -20 + ^ r9: .cfa -16 + ^
STACK CFI 71340 .cfa: sp 64 +
STACK CFI INIT 71488 ac .cfa: sp 0 + .ra: lr
STACK CFI 7148c .cfa: sp 20 +
STACK CFI 7148e .ra: .cfa -4 + ^ r4: .cfa -20 + ^ r5: .cfa -16 + ^ r6: .cfa -12 + ^ r7: .cfa -8 + ^
STACK CFI 7149c .cfa: sp 32 +
STACK CFI INIT 71534 4 .cfa: sp 0 + .ra: lr
STACK CFI INIT 71538 114 .cfa: sp 0 + .ra: lr
STACK CFI 7153a .cfa: sp 16 +
STACK CFI 7153c .ra: .cfa -4 + ^ r4: .cfa -16 + ^ r5: .cfa -12 + ^ r6: .cfa -8 + ^
STACK CFI 71540 .cfa: sp 40 +
STACK CFI INIT 7164c 2c .cfa: sp 0 + .ra: lr
STACK CFI 71650 .cfa: sp 16 +
STACK CFI 71652 .ra: .cfa -4 + ^ r4: .cfa -16 + ^ r5: .cfa -12 + ^ r6: .cfa -8 + ^
STACK CFI INIT 71678 fc .cfa: sp 0 + .ra: lr
STACK CFI 7167c .cfa: sp 32 +
STACK CFI 7167e .ra: .cfa -4 + ^ r10: .cfa -8 + ^ r4: .cfa -32 + ^ r5: .cfa -28 + ^ r6: .cfa -24 + ^ r7: .cfa -20 + ^ r8: .cfa -16 + ^ r9: .cfa -12 + ^
STACK CFI INIT 71774 144 .cfa: sp 0 + .ra: lr
STACK CFI 71778 .cfa: sp 40 +
STACK CFI 7177c .ra: .cfa -4 + ^ r10: .cfa -12 + ^ r11: .cfa -8 + ^ r3: .cfa -40 + ^ r4: .cfa -36 + ^ r5: .cfa -32 + ^ r6: .cfa -28 + ^ r7: .cfa -24 + ^ r8: .cfa -20 + ^ r9: .cfa -16 + ^
STACK CFI INIT 718b8 140 .cfa: sp 0 + .ra: lr
STACK CFI 718bc .cfa: sp 36 +
STACK CFI 718be .ra: .cfa -4 + ^ r10: .cfa -12 + ^ r11: .cfa -8 + ^ r4: .cfa -36 + ^ r5: .cfa -32 + ^ r6: .cfa -28 + ^ r7: .cfa -24 + ^ r8: .cfa -20 + ^ r9: .cfa -16 + ^
STACK CFI 718c2 .cfa: sp 56 +
STACK CFI INIT 719f8 194 .cfa: sp 0 + .ra: lr
STACK CFI 719fc .cfa: sp 36 +
STACK CFI 71a00 .ra: .cfa -4 + ^ r10: .cfa -12 + ^ r11: .cfa -8 + ^ r4: .cfa -36 + ^ r5: .cfa -32 + ^ r6: .cfa -28 + ^ r7: .cfa -24 + ^ r8: .cfa -20 + ^ r9: .cfa -16 + ^
STACK CFI 71a04 .cfa: sp 64 +
STACK CFI INIT 71b8c dc .cfa: sp 0 + .ra: lr
STACK CFI 71b92 .cfa: sp 28 +
STACK CFI 71b94 .ra: .cfa -4 + ^ r4: .cfa -28 + ^ r5: .cfa -24 + ^ r6: .cfa -20 + ^ r7: .cfa -16 + ^ r8: .cfa -12 + ^ r9: .cfa -8 + ^
STACK CFI 71b9c .cfa: sp 40 +
STACK CFI INIT 71c68 4 .cfa: sp 0 + .ra: lr
STACK CFI INIT 71c6c 114 .cfa: sp 0 + .ra: lr
STACK CFI 71c6e .cfa: sp 16 +
STACK CFI 71c70 .ra: .cfa -4 + ^ r4: .cfa -16 + ^ r5: .cfa -12 + ^ r6: .cfa -8 + ^
STACK CFI 71c74 .cfa: sp 40 +
STACK CFI INIT 71d80 2e .cfa: sp 0 + .ra: lr
STACK CFI 71d84 .cfa: sp 16 +
STACK CFI 71d86 .ra: .cfa -4 + ^ r4: .cfa -16 + ^ r5: .cfa -12 + ^ r6: .cfa -8 + ^
STACK CFI INIT 71db0 54 .cfa: sp 0 + .ra: lr
STACK CFI 71db2 .cfa: sp 16 +
STACK CFI 71db4 .ra: .cfa -4 + ^ r4: .cfa -16 + ^ r5: .cfa -12 + ^ r6: .cfa -8 + ^
STACK CFI INIT 71e04 114 .cfa: sp 0 + .ra: lr
STACK CFI 71e06 .cfa: sp 16 +
STACK CFI 71e08 .ra: .cfa -4 + ^ r4: .cfa -16 + ^ r5: .cfa -12 + ^ r6: .cfa -8 + ^
STACK CFI 71e0c .cfa: sp 40 +
STACK CFI INIT 71f18 50 .cfa: sp 0 + .ra: lr
STACK CFI 71f1a .cfa: sp 16 +
STACK CFI 71f1c r4: .cfa -16 + ^ r5: .cfa -12 + ^ r6: .cfa -8 + ^ r7: .cfa -4 + ^
STACK CFI INIT 71f68 3a .cfa: sp 0 + .ra: lr
STACK CFI 71f7a .cfa: sp 16 +
STACK CFI 71f7c .ra: .cfa -4 + ^ r4: .cfa -16 + ^ r5: .cfa -12 + ^ r6: .cfa -8 + ^
STACK CFI INIT 71fa4 14 .cfa: sp 0 + .ra: lr
STACK CFI INIT 71fb8 164 .cfa: sp 0 + .ra: lr
STACK CFI 71fbe .cfa: sp 28 +
STACK CFI 71fc4 .ra: .cfa -4 + ^ r4: .cfa -28 + ^ r5: .cfa -24 + ^ r6: .cfa -20 + ^ r7: .cfa -16 + ^ r8: .cfa -12 + ^ r9: .cfa -8 + ^
STACK CFI 71fc6 .cfa: sp 40 +
STACK CFI INIT 7211c 2a .cfa: sp 0 + .ra: lr
STACK CFI 72120 .cfa: sp 8 +
STACK CFI 72122 .ra: .cfa -4 + ^ r4: .cfa -8 + ^
STACK CFI INIT 72148 9c .cfa: sp 0 + .ra: lr
STACK CFI 7214c .cfa: sp 36 +
STACK CFI 7214e .ra: .cfa -4 + ^ r10: .cfa -12 + ^ r11: .cfa -8 + ^ r4: .cfa -36 + ^ r5: .cfa -32 + ^ r6: .cfa -28 + ^ r7: .cfa -24 + ^ r8: .cfa -20 + ^ r9: .cfa -16 + ^
STACK CFI 7215e .cfa: sp 48 +
STACK CFI INIT 721e4 20 .cfa: sp 0 + .ra: lr
STACK CFI INIT 72204 c8 .cfa: sp 0 + .ra: lr
STACK CFI 7220a .cfa: sp 32 +
STACK CFI 7220c .ra: .cfa -4 + ^ r10: .cfa -8 + ^ r4: .cfa -32 + ^ r5: .cfa -28 + ^ r6: .cfa -24 + ^ r7: .cfa -20 + ^ r8: .cfa -16 + ^ r9: .cfa -12 + ^
STACK CFI INIT 722cc 104 .cfa: sp 0 + .ra: lr
STACK CFI 722d0 .cfa: sp 40 +
STACK CFI 722d4 .ra: .cfa -4 + ^ r10: .cfa -12 + ^ r11: .cfa -8 + ^ r3: .cfa -40 + ^ r4: .cfa -36 + ^ r5: .cfa -32 + ^ r6: .cfa -28 + ^ r7: .cfa -24 + ^ r8: .cfa -20 + ^ r9: .cfa -16 + ^
STACK CFI INIT 723d0 100 .cfa: sp 0 + .ra: lr
STACK CFI 723d4 .cfa: sp 36 +
STACK CFI 723d6 .ra: .cfa -4 + ^ r10: .cfa -12 + ^ r11: .cfa -8 + ^ r4: .cfa -36 + ^ r5: .cfa -32 + ^ r6: .cfa -28 + ^ r7: .cfa -24 + ^ r8: .cfa -20 + ^ r9: .cfa -16 + ^
STACK CFI 723da .cfa: sp 56 +
STACK CFI INIT 724d0 150 .cfa: sp 0 + .ra: lr
STACK CFI 724d4 .cfa: sp 36 +
STACK CFI 724d8 .ra: .cfa -4 + ^ r10: .cfa -12 + ^ r11: .cfa -8 + ^ r4: .cfa -36 + ^ r5: .cfa -32 + ^ r6: .cfa -28 + ^ r7: .cfa -24 + ^ r8: .cfa -20 + ^ r9: .cfa -16 + ^
STACK CFI 724da .cfa: sp 64 +
STACK CFI INIT 72620 b0 .cfa: sp 0 + .ra: lr
STACK CFI 72624 .cfa: sp 20 +
STACK CFI 72626 .ra: .cfa -4 + ^ r4: .cfa -20 + ^ r5: .cfa -16 + ^ r6: .cfa -12 + ^ r7: .cfa -8 + ^
STACK CFI 72636 .cfa: sp 32 +
STACK CFI INIT 726d0 4 .cfa: sp 0 + .ra: lr
STACK CFI INIT 726d4 114 .cfa: sp 0 + .ra: lr
STACK CFI 726d6 .cfa: sp 16 +
STACK CFI 726d8 .ra: .cfa -4 + ^ r4: .cfa -16 + ^ r5: .cfa -12 + ^ r6: .cfa -8 + ^
STACK CFI 726dc .cfa: sp 40 +
STACK CFI INIT 727e8 2e .cfa: sp 0 + .ra: lr
STACK CFI 727ec .cfa: sp 16 +
STACK CFI 727ee .ra: .cfa -4 + ^ r4: .cfa -16 + ^ r5: .cfa -12 + ^ r6: .cfa -8 + ^
STACK CFI INIT 72818 b4 .cfa: sp 0 + .ra: lr
STACK CFI 7281c .cfa: sp 32 +
STACK CFI 7281e .ra: .cfa -4 + ^ r3: .cfa -32 + ^ r4: .cfa -28 + ^ r5: .cfa -24 + ^ r6: .cfa -20 + ^ r7: .cfa -16 + ^ r8: .cfa -12 + ^ r9: .cfa -8 + ^
STACK CFI INIT 728cc f8 .cfa: sp 0 + .ra: lr
STACK CFI 728d0 .cfa: sp 40 +
STACK CFI 728d4 .ra: .cfa -4 + ^ r10: .cfa -12 + ^ r11: .cfa -8 + ^ r3: .cfa -40 + ^ r4: .cfa -36 + ^ r5: .cfa -32 + ^ r6: .cfa -28 + ^ r7: .cfa -24 + ^ r8: .cfa -20 + ^ r9: .cfa -16 + ^
STACK CFI INIT 729c4 100 .cfa: sp 0 + .ra: lr
STACK CFI 729c8 .cfa: sp 36 +
STACK CFI 729ca .ra: .cfa -4 + ^ r10: .cfa -12 + ^ r11: .cfa -8 + ^ r4: .cfa -36 + ^ r5: .cfa -32 + ^ r6: .cfa -28 + ^ r7: .cfa -24 + ^ r8: .cfa -20 + ^ r9: .cfa -16 + ^
STACK CFI 729ce .cfa: sp 56 +
STACK CFI INIT 72ac4 150 .cfa: sp 0 + .ra: lr
STACK CFI 72ac8 .cfa: sp 36 +
STACK CFI 72acc .ra: .cfa -4 + ^ r10: .cfa -12 + ^ r11: .cfa -8 + ^ r4: .cfa -36 + ^ r5: .cfa -32 + ^ r6: .cfa -28 + ^ r7: .cfa -24 + ^ r8: .cfa -20 + ^ r9: .cfa -16 + ^
STACK CFI 72ace .cfa: sp 64 +
STACK CFI INIT 72c14 ac .cfa: sp 0 + .ra: lr
STACK CFI 72c18 .cfa: sp 20 +
STACK CFI 72c1a .ra: .cfa -4 + ^ r4: .cfa -20 + ^ r5: .cfa -16 + ^ r6: .cfa -12 + ^ r7: .cfa -8 + ^
STACK CFI 72c28 .cfa: sp 32 +
STACK CFI INIT 72cc0 4 .cfa: sp 0 + .ra: lr
STACK CFI INIT 72cc4 114 .cfa: sp 0 + .ra: lr
STACK CFI 72cc6 .cfa: sp 16 +
STACK CFI 72cc8 .ra: .cfa -4 + ^ r4: .cfa -16 + ^ r5: .cfa -12 + ^ r6: .cfa -8 + ^
STACK CFI 72ccc .cfa: sp 40 +
STACK CFI INIT 72dd8 2c .cfa: sp 0 + .ra: lr
STACK CFI 72ddc .cfa: sp 16 +
STACK CFI 72dde .ra: .cfa -4 + ^ r4: .cfa -16 + ^ r5: .cfa -12 + ^ r6: .cfa -8 + ^
STACK CFI INIT 72e04 fc .cfa: sp 0 + .ra: lr
STACK CFI 72e08 .cfa: sp 32 +
STACK CFI 72e0a .ra: .cfa -4 + ^ r10: .cfa -8 + ^ r4: .cfa -32 + ^ r5: .cfa -28 + ^ r6: .cfa -24 + ^ r7: .cfa -20 + ^ r8: .cfa -16 + ^ r9: .cfa -12 + ^
STACK CFI INIT 72f00 144 .cfa: sp 0 + .ra: lr
STACK CFI 72f04 .cfa: sp 40 +
STACK CFI 72f08 .ra: .cfa -4 + ^ r10: .cfa -12 + ^ r11: .cfa -8 + ^ r3: .cfa -40 + ^ r4: .cfa -36 + ^ r5: .cfa -32 + ^ r6: .cfa -28 + ^ r7: .cfa -24 + ^ r8: .cfa -20 + ^ r9: .cfa -16 + ^
STACK CFI INIT 73044 140 .cfa: sp 0 + .ra: lr
STACK CFI 73048 .cfa: sp 36 +
STACK CFI 7304a .ra: .cfa -4 + ^ r10: .cfa -12 + ^ r11: .cfa -8 + ^ r4: .cfa -36 + ^ r5: .cfa -32 + ^ r6: .cfa -28 + ^ r7: .cfa -24 + ^ r8: .cfa -20 + ^ r9: .cfa -16 + ^
STACK CFI 7304e .cfa: sp 56 +
STACK CFI INIT 73184 190 .cfa: sp 0 + .ra: lr
STACK CFI 73188 .cfa: sp 36 +
STACK CFI 7318c .ra: .cfa -4 + ^ r10: .cfa -12 + ^ r11: .cfa -8 + ^ r4: .cfa -36 + ^ r5: .cfa -32 + ^ r6: .cfa -28 + ^ r7: .cfa -24 + ^ r8: .cfa -20 + ^ r9: .cfa -16 + ^
STACK CFI 7318e .cfa: sp 64 +
STACK CFI INIT 73314 dc .cfa: sp 0 + .ra: lr
STACK CFI 7331a .cfa: sp 28 +
STACK CFI 7331c .ra: .cfa -4 + ^ r4: .cfa -28 + ^ r5: .cfa -24 + ^ r6: .cfa -20 + ^ r7: .cfa -16 + ^ r8: .cfa -12 + ^ r9: .cfa -8 + ^
STACK CFI 73324 .cfa: sp 40 +
STACK CFI INIT 733f0 4 .cfa: sp 0 + .ra: lr
STACK CFI INIT 733f4 114 .cfa: sp 0 + .ra: lr
STACK CFI 733f6 .cfa: sp 16 +
STACK CFI 733f8 .ra: .cfa -4 + ^ r4: .cfa -16 + ^ r5: .cfa -12 + ^ r6: .cfa -8 + ^
STACK CFI 733fc .cfa: sp 40 +
STACK CFI INIT 73508 2e .cfa: sp 0 + .ra: lr
STACK CFI 7350c .cfa: sp 16 +
STACK CFI 7350e .ra: .cfa -4 + ^ r4: .cfa -16 + ^ r5: .cfa -12 + ^ r6: .cfa -8 + ^
STACK CFI INIT 7061c a .cfa: sp 0 + .ra: lr
STACK CFI INIT 7052c a .cfa: sp 0 + .ra: lr
STACK CFI INIT 70444 a .cfa: sp 0 + .ra: lr
STACK CFI INIT 70324 a .cfa: sp 0 + .ra: lr
STACK CFI INIT 7023c a .cfa: sp 0 + .ra: lr
STACK CFI INIT 70158 a .cfa: sp 0 + .ra: lr
STACK CFI INIT 70040 a .cfa: sp 0 + .ra: lr
STACK CFI INIT 6ff50 a .cfa: sp 0 + .ra: lr
STACK CFI INIT 6fe68 a .cfa: sp 0 + .ra: lr
STACK CFI INIT 6fd80 a .cfa: sp 0 + .ra: lr
STACK CFI INIT 6fc9c a .cfa: sp 0 + .ra: lr
STACK CFI INIT 6fb84 a .cfa: sp 0 + .ra: lr
STACK CFI INIT 73538 2 .cfa: sp 0 + .ra: lr
STACK CFI INIT 7353c 2 .cfa: sp 0 + .ra: lr
STACK CFI INIT 73540 18 .cfa: sp 0 + .ra: lr
STACK CFI 73542 .cfa: sp 8 +
STACK CFI 73548 r4: .cfa -8 + ^ r5: .cfa -4 + ^
STACK CFI INIT 73558 22 .cfa: sp 0 + .ra: lr
STACK CFI 7355a .cfa: sp 8 +
STACK CFI 7355c .cfa: sp 16 +
STACK CFI 7355e r4: .cfa -16 + ^ r5: .cfa -12 + ^
STACK CFI INIT 7357c 4 .cfa: sp 0 + .ra: lr
STACK CFI INIT 73580 4 .cfa: sp 0 + .ra: lr
STACK CFI INIT 73584 6 .cfa: sp 0 + .ra: lr
STACK CFI INIT 7358c 1a .cfa: sp 0 + .ra: lr
STACK CFI 73590 .cfa: sp 8 +
STACK CFI 73592 .ra: .cfa -4 + ^ r4: .cfa -8 + ^
STACK CFI INIT 735a8 6 .cfa: sp 0 + .ra: lr
STACK CFI INIT 735b0 6 .cfa: sp 0 + .ra: lr
STACK CFI INIT 735b8 2 .cfa: sp 0 + .ra: lr
STACK CFI INIT 735bc 2 .cfa: sp 0 + .ra: lr
STACK CFI INIT 735c0 18 .cfa: sp 0 + .ra: lr
STACK CFI 735c2 .cfa: sp 8 +
STACK CFI 735c8 r4: .cfa -8 + ^ r5: .cfa -4 + ^
STACK CFI INIT 735d8 22 .cfa: sp 0 + .ra: lr
STACK CFI 735da .cfa: sp 8 +
STACK CFI 735dc .cfa: sp 16 +
STACK CFI 735de r4: .cfa -16 + ^ r5: .cfa -12 + ^
STACK CFI INIT 735fc 4 .cfa: sp 0 + .ra: lr
STACK CFI INIT 73600 4 .cfa: sp 0 + .ra: lr
STACK CFI INIT 73604 6 .cfa: sp 0 + .ra: lr
STACK CFI INIT 7360c 1a .cfa: sp 0 + .ra: lr
STACK CFI 73610 .cfa: sp 8 +
STACK CFI 73612 .ra: .cfa -4 + ^ r4: .cfa -8 + ^
STACK CFI INIT 73628 6 .cfa: sp 0 + .ra: lr
STACK CFI INIT 73630 6 .cfa: sp 0 + .ra: lr
STACK CFI INIT 73638 6a .cfa: sp 0 + .ra: lr
STACK CFI 7363c .cfa: sp 24 +
STACK CFI 7363e .ra: .cfa -4 + ^ r4: .cfa -24 + ^ r5: .cfa -20 + ^ r6: .cfa -16 + ^ r7: .cfa -12 + ^ r8: .cfa -8 + ^
STACK CFI INIT 736a4 6a .cfa: sp 0 + .ra: lr
STACK CFI 736a8 .cfa: sp 24 +
STACK CFI 736aa .ra: .cfa -4 + ^ r4: .cfa -24 + ^ r5: .cfa -20 + ^ r6: .cfa -16 + ^ r7: .cfa -12 + ^ r8: .cfa -8 + ^
STACK CFI INIT 73710 24 .cfa: sp 0 + .ra: lr
STACK CFI 73718 .cfa: sp 8 +
STACK CFI 7371a .ra: .cfa -4 + ^ r4: .cfa -8 + ^
STACK CFI INIT 73734 24 .cfa: sp 0 + .ra: lr
STACK CFI 7373c .cfa: sp 8 +
STACK CFI 7373e .ra: .cfa -4 + ^ r4: .cfa -8 + ^
STACK CFI INIT 73758 28 .cfa: sp 0 + .ra: lr
STACK CFI 73760 .cfa: sp 8 +
STACK CFI 73762 .ra: .cfa -4 + ^ r4: .cfa -8 + ^
STACK CFI INIT 73780 28 .cfa: sp 0 + .ra: lr
STACK CFI 73788 .cfa: sp 8 +
STACK CFI 7378a .ra: .cfa -4 + ^ r4: .cfa -8 + ^
STACK CFI INIT 737a8 66 .cfa: sp 0 + .ra: lr
STACK CFI 737ac .cfa: sp 24 +
STACK CFI 737ae .ra: .cfa -4 + ^ r4: .cfa -24 + ^ r5: .cfa -20 + ^ r6: .cfa -16 + ^ r7: .cfa -12 + ^ r8: .cfa -8 + ^
STACK CFI INIT 73810 66 .cfa: sp 0 + .ra: lr
STACK CFI 73814 .cfa: sp 24 +
STACK CFI 73816 .ra: .cfa -4 + ^ r4: .cfa -24 + ^ r5: .cfa -20 + ^ r6: .cfa -16 + ^ r7: .cfa -12 + ^ r8: .cfa -8 + ^
STACK CFI INIT 73878 32 .cfa: sp 0 + .ra: lr
STACK CFI 7387a .cfa: sp 24 +
STACK CFI 7387c .ra: .cfa -4 + ^ r3: .cfa -24 + ^ r4: .cfa -20 + ^ r5: .cfa -16 + ^ r6: .cfa -12 + ^ r7: .cfa -8 + ^
STACK CFI INIT 738ac e .cfa: sp 0 + .ra: lr
STACK CFI 738ae .cfa: sp 8 +
STACK CFI 738b2 .ra: .cfa -4 + ^ r4: .cfa -8 + ^
STACK CFI INIT 738bc a .cfa: sp 0 + .ra: lr
STACK CFI 738be .cfa: sp 8 +
STACK CFI 738c0 .ra: .cfa -4 + ^ r3: .cfa -8 + ^
STACK CFI INIT 738c8 1a .cfa: sp 0 + .ra: lr
STACK CFI 738ca .cfa: sp 16 +
STACK CFI 738cc .cfa: sp 24 +
STACK CFI 738ce .ra: .cfa -4 + ^ r4: .cfa -16 + ^ r5: .cfa -12 + ^ r6: .cfa -8 + ^
STACK CFI INIT 738e4 38 .cfa: sp 0 + .ra: lr
STACK CFI 738e6 .cfa: sp 8 +
STACK CFI 738e8 .cfa: sp 28 +
STACK CFI 738ea .cfa: sp 48 +
STACK CFI 738ec .ra: .cfa -12 + ^ r4: .cfa -28 + ^ r5: .cfa -24 + ^ r6: .cfa -20 + ^ r7: .cfa -16 + ^
STACK CFI INIT 7391c a .cfa: sp 0 + .ra: lr
STACK CFI 73920 .cfa: sp 8 +
STACK CFI 73922 .ra: .cfa -4 + ^ r3: .cfa -8 + ^
STACK CFI INIT 73928 16 .cfa: sp 0 + .ra: lr
STACK CFI 7392e .cfa: sp 8 +
STACK CFI 73932 .ra: .cfa -4 + ^ r3: .cfa -8 + ^
STACK CFI INIT 73940 36 .cfa: sp 0 + .ra: lr
STACK CFI 73946 .cfa: sp 8 +
STACK CFI 7394a .ra: .cfa -4 + ^ r4: .cfa -8 + ^
STACK CFI INIT 73978 1c .cfa: sp 0 + .ra: lr
STACK CFI 7397e .cfa: sp 8 +
STACK CFI 73982 .ra: .cfa -4 + ^ r3: .cfa -8 + ^
STACK CFI INIT 73994 16 .cfa: sp 0 + .ra: lr
STACK CFI 7399a .cfa: sp 8 +
STACK CFI 7399e .ra: .cfa -4 + ^ r3: .cfa -8 + ^
STACK CFI INIT 739ac a .cfa: sp 0 + .ra: lr
STACK CFI 739ae .cfa: sp 8 +
STACK CFI 739b0 .ra: .cfa -4 + ^ r3: .cfa -8 + ^
STACK CFI INIT 739b8 24 .cfa: sp 0 + .ra: lr
STACK CFI 739be .cfa: sp 8 +
STACK CFI 739c2 .ra: .cfa -4 + ^ r4: .cfa -8 + ^
STACK CFI INIT 739dc 22 .cfa: sp 0 + .ra: lr
STACK CFI 739e2 .cfa: sp 8 +
STACK CFI 739e6 .ra: .cfa -4 + ^ r3: .cfa -8 + ^
STACK CFI INIT 73a00 22 .cfa: sp 0 + .ra: lr
STACK CFI 73a02 .cfa: sp 16 +
STACK CFI 73a04 .ra: .cfa -4 + ^ r3: .cfa -16 + ^ r4: .cfa -12 + ^ r5: .cfa -8 + ^
STACK CFI INIT 73a24 a .cfa: sp 0 + .ra: lr
STACK CFI 73a26 .cfa: sp 8 +
STACK CFI 73a28 .ra: .cfa -4 + ^ r3: .cfa -8 + ^
STACK CFI INIT 73a30 30 .cfa: sp 0 + .ra: lr
STACK CFI 73a3a .cfa: sp 8 +
STACK CFI 73a3c .ra: .cfa -4 + ^ r4: .cfa -8 + ^
STACK CFI INIT 73a60 4 .cfa: sp 0 + .ra: lr
STACK CFI INIT 73a64 4 .cfa: sp 0 + .ra: lr
STACK CFI INIT 73a68 4 .cfa: sp 0 + .ra: lr
STACK CFI INIT 73a6c 8 .cfa: sp 0 + .ra: lr
STACK CFI INIT 73a74 8 .cfa: sp 0 + .ra: lr
STACK CFI INIT 73a7c 4 .cfa: sp 0 + .ra: lr
STACK CFI INIT 73a80 4 .cfa: sp 0 + .ra: lr
STACK CFI INIT 73a84 4 .cfa: sp 0 + .ra: lr
STACK CFI INIT 73a88 8 .cfa: sp 0 + .ra: lr
STACK CFI INIT 73a90 8 .cfa: sp 0 + .ra: lr
STACK CFI INIT 73a98 18 .cfa: sp 0 + .ra: lr
STACK CFI 73a9e .cfa: sp 8 +
STACK CFI 73aa2 .ra: .cfa -4 + ^ r3: .cfa -8 + ^
STACK CFI INIT 73ab0 4c .cfa: sp 0 + .ra: lr
STACK CFI 73ab4 .cfa: sp 24 +
STACK CFI 73ab6 .ra: .cfa -4 + ^ r3: .cfa -24 + ^ r4: .cfa -20 + ^ r5: .cfa -16 + ^ r6: .cfa -12 + ^ r7: .cfa -8 + ^
STACK CFI INIT 73afc 2 .cfa: sp 0 + .ra: lr
STACK CFI INIT 73b00 10 .cfa: sp 0 + .ra: lr
STACK CFI 73b02 .cfa: sp 4 +
STACK CFI 73b04 .cfa: sp 16 +
STACK CFI 73b08 .ra: .cfa -4 + ^
STACK CFI INIT 73b10 32 .cfa: sp 0 + .ra: lr
STACK CFI 73b12 .cfa: sp 24 +
STACK CFI 73b14 .ra: .cfa -4 + ^ r3: .cfa -24 + ^ r4: .cfa -20 + ^ r5: .cfa -16 + ^ r6: .cfa -12 + ^ r7: .cfa -8 + ^
STACK CFI INIT 73b44 e .cfa: sp 0 + .ra: lr
STACK CFI 73b46 .cfa: sp 8 +
STACK CFI 73b4a .ra: .cfa -4 + ^ r4: .cfa -8 + ^
STACK CFI INIT 73b54 a .cfa: sp 0 + .ra: lr
STACK CFI 73b56 .cfa: sp 8 +
STACK CFI 73b58 .ra: .cfa -4 + ^ r3: .cfa -8 + ^
STACK CFI INIT 73b60 1a .cfa: sp 0 + .ra: lr
STACK CFI 73b62 .cfa: sp 16 +
STACK CFI 73b64 .cfa: sp 24 +
STACK CFI 73b66 .ra: .cfa -4 + ^ r4: .cfa -16 + ^ r5: .cfa -12 + ^ r6: .cfa -8 + ^
STACK CFI INIT 73b7c 38 .cfa: sp 0 + .ra: lr
STACK CFI 73b7e .cfa: sp 8 +
STACK CFI 73b80 .cfa: sp 28 +
STACK CFI 73b82 .cfa: sp 48 +
STACK CFI 73b84 .ra: .cfa -12 + ^ r4: .cfa -28 + ^ r5: .cfa -24 + ^ r6: .cfa -20 + ^ r7: .cfa -16 + ^
STACK CFI INIT 73bb4 a .cfa: sp 0 + .ra: lr
STACK CFI 73bb8 .cfa: sp 8 +
STACK CFI 73bba .ra: .cfa -4 + ^ r3: .cfa -8 + ^
STACK CFI INIT 73bc0 18 .cfa: sp 0 + .ra: lr
STACK CFI 73bc6 .cfa: sp 8 +
STACK CFI 73bcc .ra: .cfa -4 + ^ r3: .cfa -8 + ^
STACK CFI INIT 73bd8 36 .cfa: sp 0 + .ra: lr
STACK CFI 73bde .cfa: sp 8 +
STACK CFI 73be2 .ra: .cfa -4 + ^ r4: .cfa -8 + ^
STACK CFI INIT 73c10 1c .cfa: sp 0 + .ra: lr
STACK CFI 73c16 .cfa: sp 8 +
STACK CFI 73c1a .ra: .cfa -4 + ^ r3: .cfa -8 + ^
STACK CFI INIT 73c2c 16 .cfa: sp 0 + .ra: lr
STACK CFI 73c32 .cfa: sp 8 +
STACK CFI 73c36 .ra: .cfa -4 + ^ r3: .cfa -8 + ^
STACK CFI INIT 73c44 a .cfa: sp 0 + .ra: lr
STACK CFI 73c46 .cfa: sp 8 +
STACK CFI 73c48 .ra: .cfa -4 + ^ r3: .cfa -8 + ^
STACK CFI INIT 73c50 24 .cfa: sp 0 + .ra: lr
STACK CFI 73c54 .cfa: sp 8 +
STACK CFI 73c56 .ra: .cfa -4 + ^ r3: .cfa -8 + ^
STACK CFI INIT 73c74 22 .cfa: sp 0 + .ra: lr
STACK CFI 73c7a .cfa: sp 8 +
STACK CFI 73c7e .ra: .cfa -4 + ^ r3: .cfa -8 + ^
STACK CFI INIT 73c98 20 .cfa: sp 0 + .ra: lr
STACK CFI 73c9a .cfa: sp 16 +
STACK CFI 73c9c .ra: .cfa -4 + ^ r3: .cfa -16 + ^ r4: .cfa -12 + ^ r5: .cfa -8 + ^
STACK CFI INIT 73cb8 a .cfa: sp 0 + .ra: lr
STACK CFI 73cba .cfa: sp 8 +
STACK CFI 73cbc .ra: .cfa -4 + ^ r3: .cfa -8 + ^
STACK CFI INIT 73cc4 30 .cfa: sp 0 + .ra: lr
STACK CFI 73cce .cfa: sp 8 +
STACK CFI 73cd0 .ra: .cfa -4 + ^ r4: .cfa -8 + ^
STACK CFI INIT 73cf4 4 .cfa: sp 0 + .ra: lr
STACK CFI INIT 73cf8 4 .cfa: sp 0 + .ra: lr
STACK CFI INIT 73cfc 4 .cfa: sp 0 + .ra: lr
STACK CFI INIT 73d00 a .cfa: sp 0 + .ra: lr
STACK CFI INIT 73d0c 8 .cfa: sp 0 + .ra: lr
STACK CFI INIT 73d14 4 .cfa: sp 0 + .ra: lr
STACK CFI INIT 73d18 4 .cfa: sp 0 + .ra: lr
STACK CFI INIT 73d1c 4 .cfa: sp 0 + .ra: lr
STACK CFI INIT 73d20 a .cfa: sp 0 + .ra: lr
STACK CFI INIT 73d2c 8 .cfa: sp 0 + .ra: lr
STACK CFI INIT 73d34 18 .cfa: sp 0 + .ra: lr
STACK CFI 73d3a .cfa: sp 8 +
STACK CFI 73d3e .ra: .cfa -4 + ^ r3: .cfa -8 + ^
STACK CFI INIT 73d4c 4c .cfa: sp 0 + .ra: lr
STACK CFI 73d50 .cfa: sp 24 +
STACK CFI 73d52 .ra: .cfa -4 + ^ r3: .cfa -24 + ^ r4: .cfa -20 + ^ r5: .cfa -16 + ^ r6: .cfa -12 + ^ r7: .cfa -8 + ^
STACK CFI INIT 73d98 2 .cfa: sp 0 + .ra: lr
STACK CFI INIT 73d9c 10 .cfa: sp 0 + .ra: lr
STACK CFI 73d9e .cfa: sp 4 +
STACK CFI 73da0 .cfa: sp 16 +
STACK CFI 73da4 .ra: .cfa -4 + ^
STACK CFI INIT 73dac c6 .cfa: sp 0 + .ra: lr
STACK CFI 73db0 .cfa: sp 24 +
STACK CFI 73db2 .ra: .cfa -4 + ^ r4: .cfa -24 + ^ r5: .cfa -20 + ^ r6: .cfa -16 + ^ r7: .cfa -12 + ^ r8: .cfa -8 + ^
STACK CFI INIT 73e74 cc .cfa: sp 0 + .ra: lr
STACK CFI 73e78 .cfa: sp 24 +
STACK CFI 73e7a .ra: .cfa -4 + ^ r4: .cfa -24 + ^ r5: .cfa -20 + ^ r6: .cfa -16 + ^ r7: .cfa -12 + ^ r8: .cfa -8 + ^
STACK CFI INIT 73f40 4 .cfa: sp 0 + .ra: lr
STACK CFI INIT 73f44 1c .cfa: sp 0 + .ra: lr
STACK CFI INIT 73f60 4 .cfa: sp 0 + .ra: lr
STACK CFI INIT 73f64 8 .cfa: sp 0 + .ra: lr
STACK CFI INIT 73f6c 4 .cfa: sp 0 + .ra: lr
STACK CFI INIT 73f70 6 .cfa: sp 0 + .ra: lr
STACK CFI INIT 73f78 6 .cfa: sp 0 + .ra: lr
STACK CFI INIT 73f80 4 .cfa: sp 0 + .ra: lr
STACK CFI INIT 73f84 a .cfa: sp 0 + .ra: lr
STACK CFI INIT 73f90 16 .cfa: sp 0 + .ra: lr
STACK CFI 73f94 .cfa: sp 8 +
STACK CFI 73f98 .ra: .cfa -4 + ^ r3: .cfa -8 + ^
STACK CFI INIT 0 20 .cfa: sp 0 + .ra: lr
STACK CFI 2 .cfa: sp 16 +
STACK CFI 6 .ra: .cfa -4 + ^ r3: .cfa -16 + ^ r4: .cfa -12 + ^ r5: .cfa -8 + ^
STACK CFI INIT 73fa8 10 .cfa: sp 0 + .ra: lr
STACK CFI INIT 0 1a .cfa: sp 0 + .ra: lr
STACK CFI INIT 0 16 .cfa: sp 0 + .ra: lr
STACK CFI 4 .cfa: sp 4 +
STACK CFI 6 r4: .cfa -4 + ^
STACK CFI INIT 0 16 .cfa: sp 0 + .ra: lr
STACK CFI 4 .cfa: sp 4 +
STACK CFI 6 r4: .cfa -4 + ^
STACK CFI INIT 0 1a .cfa: sp 0 + .ra: lr
STACK CFI 6 .cfa: sp 4 +
STACK CFI 8 r4: .cfa -4 + ^
STACK CFI INIT 73fb8 18 .cfa: sp 0 + .ra: lr
STACK CFI 73fbe .cfa: sp 4 +
STACK CFI 73fc0 r4: .cfa -4 + ^
STACK CFI INIT 73fd0 18 .cfa: sp 0 + .ra: lr
STACK CFI 73fd6 .cfa: sp 4 +
STACK CFI 73fd8 r4: .cfa -4 + ^
STACK CFI INIT 73fe8 18 .cfa: sp 0 + .ra: lr
STACK CFI 73fee .cfa: sp 4 +
STACK CFI 73ff0 r4: .cfa -4 + ^
STACK CFI INIT 74000 18 .cfa: sp 0 + .ra: lr
STACK CFI 74006 .cfa: sp 4 +
STACK CFI 74008 r4: .cfa -4 + ^
STACK CFI INIT 74018 4 .cfa: sp 0 + .ra: lr
STACK CFI INIT 7401c 14 .cfa: sp 0 + .ra: lr
STACK CFI INIT 74030 18 .cfa: sp 0 + .ra: lr
STACK CFI INIT 74048 4 .cfa: sp 0 + .ra: lr
STACK CFI INIT 7404c a .cfa: sp 0 + .ra: lr
STACK CFI INIT 74058 c .cfa: sp 0 + .ra: lr
STACK CFI INIT 74064 6 .cfa: sp 0 + .ra: lr
STACK CFI INIT 7406c 4 .cfa: sp 0 + .ra: lr
STACK CFI INIT 74070 a .cfa: sp 0 + .ra: lr
STACK CFI INIT 7407c c .cfa: sp 0 + .ra: lr
STACK CFI INIT 74088 6 .cfa: sp 0 + .ra: lr
STACK CFI INIT 74090 8 .cfa: sp 0 + .ra: lr
STACK CFI INIT 74098 a .cfa: sp 0 + .ra: lr
STACK CFI INIT 740a4 8 .cfa: sp 0 + .ra: lr
STACK CFI INIT 740ac 10 .cfa: sp 0 + .ra: lr
STACK CFI INIT 740bc 6 .cfa: sp 0 + .ra: lr
STACK CFI INIT 740c4 1c .cfa: sp 0 + .ra: lr
STACK CFI 740c6 .cfa: sp 8 +
STACK CFI 740c8 .ra: .cfa -4 + ^ r3: .cfa -8 + ^
STACK CFI INIT 740e0 44 .cfa: sp 0 + .ra: lr
STACK CFI 740e2 .cfa: sp 16 +
STACK CFI 740e4 .ra: .cfa -4 + ^ r3: .cfa -16 + ^ r4: .cfa -12 + ^ r5: .cfa -8 + ^
STACK CFI INIT 74124 3e .cfa: sp 0 + .ra: lr
STACK CFI 74128 .cfa: sp 8 +
STACK CFI 7412c r4: .cfa -8 + ^ r5: .cfa -4 + ^
STACK CFI INIT 74164 c .cfa: sp 0 + .ra: lr
STACK CFI 74166 .cfa: sp 8 +
STACK CFI 74168 .ra: .cfa -4 + ^ r4: .cfa -8 + ^
STACK CFI INIT 74170 c .cfa: sp 0 + .ra: lr
STACK CFI 74172 .cfa: sp 8 +
STACK CFI 74174 .ra: .cfa -4 + ^ r4: .cfa -8 + ^
STACK CFI INIT 7417c 2 .cfa: sp 0 + .ra: lr
STACK CFI INIT 74180 cc .cfa: sp 0 + .ra: lr
STACK CFI 74184 .cfa: sp 40 +
STACK CFI 74186 .ra: .cfa -4 + ^ r10: .cfa -12 + ^ r11: .cfa -8 + ^ r3: .cfa -40 + ^ r4: .cfa -36 + ^ r5: .cfa -32 + ^ r6: .cfa -28 + ^ r7: .cfa -24 + ^ r8: .cfa -20 + ^ r9: .cfa -16 + ^
STACK CFI INIT 7424c a .cfa: sp 0 + .ra: lr
STACK CFI INIT 74258 1e .cfa: sp 0 + .ra: lr
STACK CFI 7425a .cfa: sp 16 +
STACK CFI 7425c .ra: .cfa -4 + ^ r4: .cfa -16 + ^ r5: .cfa -12 + ^ r6: .cfa -8 + ^
STACK CFI INIT 74278 26 .cfa: sp 0 + .ra: lr
STACK CFI 7427a .cfa: sp 8 +
STACK CFI 7427c .ra: .cfa -4 + ^ r4: .cfa -8 + ^
STACK CFI INIT 742a0 56 .cfa: sp 0 + .ra: lr
STACK CFI 742a2 .cfa: sp 24 +
STACK CFI 742a4 .ra: .cfa -4 + ^ r3: .cfa -24 + ^ r4: .cfa -20 + ^ r5: .cfa -16 + ^ r6: .cfa -12 + ^ r7: .cfa -8 + ^
STACK CFI INIT 742f8 a .cfa: sp 0 + .ra: lr
STACK CFI INIT 74304 1e .cfa: sp 0 + .ra: lr
STACK CFI 74306 .cfa: sp 16 +
STACK CFI 74308 .ra: .cfa -4 + ^ r4: .cfa -16 + ^ r5: .cfa -12 + ^ r6: .cfa -8 + ^
STACK CFI INIT 74324 46 .cfa: sp 0 + .ra: lr
STACK CFI INIT 7436c 72 .cfa: sp 0 + .ra: lr
STACK CFI 74370 .cfa: sp 32 +
STACK CFI 74372 .ra: .cfa -4 + ^ r3: .cfa -32 + ^ r4: .cfa -28 + ^ r5: .cfa -24 + ^ r6: .cfa -20 + ^ r7: .cfa -16 + ^ r8: .cfa -12 + ^ r9: .cfa -8 + ^
STACK CFI INIT 743e0 a .cfa: sp 0 + .ra: lr
STACK CFI INIT 743ec 1e .cfa: sp 0 + .ra: lr
STACK CFI 743ee .cfa: sp 16 +
STACK CFI 743f0 .ra: .cfa -4 + ^ r4: .cfa -16 + ^ r5: .cfa -12 + ^ r6: .cfa -8 + ^
STACK CFI INIT 7440c 4 .cfa: sp 0 + .ra: lr
STACK CFI INIT 74410 66 .cfa: sp 0 + .ra: lr
STACK CFI 74412 .cfa: sp 24 +
STACK CFI 74414 .ra: .cfa -4 + ^ r3: .cfa -24 + ^ r4: .cfa -20 + ^ r5: .cfa -16 + ^ r6: .cfa -12 + ^ r7: .cfa -8 + ^
STACK CFI INIT 74478 a .cfa: sp 0 + .ra: lr
STACK CFI INIT 74484 1e .cfa: sp 0 + .ra: lr
STACK CFI 74486 .cfa: sp 16 +
STACK CFI 74488 .ra: .cfa -4 + ^ r4: .cfa -16 + ^ r5: .cfa -12 + ^ r6: .cfa -8 + ^
STACK CFI INIT 744a4 4 .cfa: sp 0 + .ra: lr
STACK CFI INIT 744a8 6e .cfa: sp 0 + .ra: lr
STACK CFI 744ac .cfa: sp 32 +
STACK CFI 744ae .ra: .cfa -4 + ^ r3: .cfa -32 + ^ r4: .cfa -28 + ^ r5: .cfa -24 + ^ r6: .cfa -20 + ^ r7: .cfa -16 + ^ r8: .cfa -12 + ^ r9: .cfa -8 + ^
STACK CFI INIT 74518 a .cfa: sp 0 + .ra: lr
STACK CFI INIT 74524 1e .cfa: sp 0 + .ra: lr
STACK CFI 74526 .cfa: sp 16 +
STACK CFI 74528 .ra: .cfa -4 + ^ r4: .cfa -16 + ^ r5: .cfa -12 + ^ r6: .cfa -8 + ^
STACK CFI INIT 74544 46 .cfa: sp 0 + .ra: lr
STACK CFI 74548 .cfa: sp 4 +
STACK CFI 7454c r4: .cfa -4 + ^
STACK CFI INIT 7458c 56 .cfa: sp 0 + .ra: lr
STACK CFI 7458e .cfa: sp 24 +
STACK CFI 74590 .ra: .cfa -4 + ^ r3: .cfa -24 + ^ r4: .cfa -20 + ^ r5: .cfa -16 + ^ r6: .cfa -12 + ^ r7: .cfa -8 + ^
STACK CFI INIT 745e4 a .cfa: sp 0 + .ra: lr
STACK CFI INIT 745f0 1e .cfa: sp 0 + .ra: lr
STACK CFI 745f2 .cfa: sp 16 +
STACK CFI 745f4 .ra: .cfa -4 + ^ r4: .cfa -16 + ^ r5: .cfa -12 + ^ r6: .cfa -8 + ^
STACK CFI INIT 74610 3e .cfa: sp 0 + .ra: lr
STACK CFI 74614 .cfa: sp 4 +
STACK CFI 74618 r4: .cfa -4 + ^
STACK CFI INIT 74650 24 .cfa: sp 0 + .ra: lr
STACK CFI 74652 .cfa: sp 16 +
STACK CFI 74656 .ra: .cfa -4 + ^ r3: .cfa -16 + ^ r4: .cfa -12 + ^ r5: .cfa -8 + ^
STACK CFI INIT 74674 3c .cfa: sp 0 + .ra: lr
STACK CFI 74678 .cfa: sp 16 +
STACK CFI 7467c .ra: .cfa -4 + ^ r3: .cfa -16 + ^ r4: .cfa -12 + ^ r5: .cfa -8 + ^
STACK CFI INIT 746b0 58 .cfa: sp 0 + .ra: lr
STACK CFI 746b4 .cfa: sp 16 +
STACK CFI 746b8 .ra: .cfa -4 + ^ r4: .cfa -16 + ^ r5: .cfa -12 + ^ r6: .cfa -8 + ^
STACK CFI INIT 74708 28 .cfa: sp 0 + .ra: lr
STACK CFI 7470a .cfa: sp 16 +
STACK CFI 7470c .ra: .cfa -4 + ^ r4: .cfa -16 + ^ r5: .cfa -12 + ^ r6: .cfa -8 + ^
STACK CFI INIT 74730 48 .cfa: sp 0 + .ra: lr
STACK CFI 74734 .cfa: sp 24 +
STACK CFI 74736 .ra: .cfa -4 + ^ r4: .cfa -24 + ^ r5: .cfa -20 + ^ r6: .cfa -16 + ^ r7: .cfa -12 + ^ r8: .cfa -8 + ^
STACK CFI INIT 74778 38 .cfa: sp 0 + .ra: lr
STACK CFI 7477c .cfa: sp 16 +
STACK CFI 74780 .ra: .cfa -4 + ^ r3: .cfa -16 + ^ r4: .cfa -12 + ^ r5: .cfa -8 + ^
STACK CFI INIT 747b0 4 .cfa: sp 0 + .ra: lr
STACK CFI INIT 747b4 14 .cfa: sp 0 + .ra: lr
STACK CFI INIT 747c8 6 .cfa: sp 0 + .ra: lr
STACK CFI INIT 747d0 c .cfa: sp 0 + .ra: lr
STACK CFI INIT 747dc 8 .cfa: sp 0 + .ra: lr
STACK CFI INIT 747e4 6 .cfa: sp 0 + .ra: lr
STACK CFI INIT 0 28 .cfa: sp 0 + .ra: lr
STACK CFI INIT 747ec 4 .cfa: sp 0 + .ra: lr
STACK CFI INIT 747f0 68 .cfa: sp 0 + .ra: lr
STACK CFI 747fc .cfa: sp 8 +
STACK CFI 747fe .ra: .cfa -4 + ^ r4: .cfa -8 + ^
STACK CFI INIT 74858 54 .cfa: sp 0 + .ra: lr
STACK CFI 7485c .cfa: sp 24 +
STACK CFI 7485e .ra: .cfa -4 + ^ r4: .cfa -24 + ^ r5: .cfa -20 + ^ r6: .cfa -16 + ^ r7: .cfa -12 + ^ r8: .cfa -8 + ^
STACK CFI INIT 748ac 4 .cfa: sp 0 + .ra: lr
STACK CFI INIT 748b0 14 .cfa: sp 0 + .ra: lr
STACK CFI 748b2 .cfa: sp 8 +
STACK CFI 748b4 .ra: .cfa -4 + ^ r4: .cfa -8 + ^
STACK CFI INIT 748c4 14 .cfa: sp 0 + .ra: lr
STACK CFI 748c6 .cfa: sp 8 +
STACK CFI 748c8 .ra: .cfa -4 + ^ r4: .cfa -8 + ^
STACK CFI INIT 748d8 4 .cfa: sp 0 + .ra: lr
STACK CFI INIT 748dc 5c .cfa: sp 0 + .ra: lr
STACK CFI 748e6 .cfa: sp 12 +
STACK CFI 748ee r4: .cfa -12 + ^ r5: .cfa -8 + ^ r6: .cfa -4 + ^
STACK CFI INIT 74938 68 .cfa: sp 0 + .ra: lr
STACK CFI 7493c .cfa: sp 16 +
STACK CFI 7493e .ra: .cfa -4 + ^ r4: .cfa -16 + ^ r5: .cfa -12 + ^ r6: .cfa -8 + ^
STACK CFI 74946 .cfa: sp 24 +
STACK CFI INIT 749a0 164 .cfa: sp 0 + .ra: lr
STACK CFI 749a4 .cfa: sp 36 +
STACK CFI 749a6 .ra: .cfa -4 + ^ r10: .cfa -12 + ^ r11: .cfa -8 + ^ r4: .cfa -36 + ^ r5: .cfa -32 + ^ r6: .cfa -28 + ^ r7: .cfa -24 + ^ r8: .cfa -20 + ^ r9: .cfa -16 + ^
STACK CFI 749bc .cfa: sp 48 +
STACK CFI INIT 74b04 34 .cfa: sp 0 + .ra: lr
STACK CFI 74b06 .cfa: sp 24 +
STACK CFI 74b08 .ra: .cfa -4 + ^ r3: .cfa -24 + ^ r4: .cfa -20 + ^ r5: .cfa -16 + ^ r6: .cfa -12 + ^ r7: .cfa -8 + ^
STACK CFI INIT 74b38 b8 .cfa: sp 0 + .ra: lr
STACK CFI 74b42 .cfa: sp 24 +
STACK CFI 74b48 .ra: .cfa -4 + ^ r4: .cfa -24 + ^ r5: .cfa -20 + ^ r6: .cfa -16 + ^ r7: .cfa -12 + ^ r8: .cfa -8 + ^
STACK CFI 74b50 .cfa: sp 32 +
STACK CFI INIT 74bf0 e .cfa: sp 0 + .ra: lr
STACK CFI 74bf2 .cfa: sp 8 +
STACK CFI INIT 74c00 1a .cfa: sp 0 + .ra: lr
STACK CFI 74c02 .cfa: sp 16 +
STACK CFI 74c04 .ra: .cfa -4 + ^ r4: .cfa -16 + ^ r5: .cfa -12 + ^ r6: .cfa -8 + ^
STACK CFI INIT 74c1c 2c .cfa: sp 0 + .ra: lr
STACK CFI 74c20 .cfa: sp 8 +
STACK CFI 74c24 .ra: .cfa -4 + ^ r4: .cfa -8 + ^
STACK CFI INIT 74c48 16 .cfa: sp 0 + .ra: lr
STACK CFI 74c4a .cfa: sp 8 +
STACK CFI 74c4c .cfa: sp 16 +
STACK CFI 74c50 .ra: .cfa -4 + ^ r4: .cfa -8 + ^
STACK CFI INIT 74c60 1a .cfa: sp 0 + .ra: lr
STACK CFI 74c62 .cfa: sp 16 +
STACK CFI 74c64 .ra: .cfa -4 + ^ r4: .cfa -16 + ^ r5: .cfa -12 + ^ r6: .cfa -8 + ^
STACK CFI INIT 74c7c 60 .cfa: sp 0 + .ra: lr
STACK CFI 74c84 .cfa: sp 24 +
STACK CFI 74c88 .ra: .cfa -4 + ^ r4: .cfa -24 + ^ r5: .cfa -20 + ^ r6: .cfa -16 + ^ r7: .cfa -12 + ^ r8: .cfa -8 + ^
STACK CFI INIT 74cdc 14 .cfa: sp 0 + .ra: lr
STACK CFI 74cde .cfa: sp 8 +
STACK CFI 74ce4 r4: .cfa -8 + ^ r5: .cfa -4 + ^
STACK CFI INIT 74cf0 30 .cfa: sp 0 + .ra: lr
STACK CFI 74cf2 .cfa: sp 16 +
STACK CFI 74cf4 .ra: .cfa -4 + ^ r4: .cfa -16 + ^ r5: .cfa -12 + ^ r6: .cfa -8 + ^
STACK CFI INIT 74d20 26 .cfa: sp 0 + .ra: lr
STACK CFI 74d22 .cfa: sp 12 +
STACK CFI 74d24 .cfa: sp 24 +
STACK CFI 74d26 .ra: .cfa -4 + ^ r4: .cfa -12 + ^ r5: .cfa -8 + ^
STACK CFI INIT 74d48 2c .cfa: sp 0 + .ra: lr
STACK CFI 74d4a .cfa: sp 16 +
STACK CFI 74d4c .ra: .cfa -4 + ^ r4: .cfa -16 + ^ r5: .cfa -12 + ^ r6: .cfa -8 + ^
STACK CFI 74d50 .cfa: sp 24 +
STACK CFI INIT 74d74 1a .cfa: sp 0 + .ra: lr
STACK CFI 74d76 .cfa: sp 8 +
STACK CFI 74d78 .cfa: sp 16 +
STACK CFI 74d7a .ra: .cfa -4 + ^ r4: .cfa -8 + ^
STACK CFI INIT 74d90 18 .cfa: sp 0 + .ra: lr
STACK CFI 74d92 .cfa: sp 12 +
STACK CFI 74d94 .cfa: sp 24 +
STACK CFI 74d96 .ra: .cfa -4 + ^ r4: .cfa -12 + ^ r5: .cfa -8 + ^
STACK CFI INIT 74da8 1c .cfa: sp 0 + .ra: lr
STACK CFI 74dae .cfa: sp 8 +
STACK CFI 74db0 .cfa: sp 16 +
STACK CFI 74db2 .ra: .cfa -4 + ^ r4: .cfa -8 + ^
STACK CFI INIT 74dc4 24 .cfa: sp 0 + .ra: lr
STACK CFI 74dc8 .cfa: sp 16 +
STACK CFI 74dca .ra: .cfa -4 + ^ r3: .cfa -16 + ^ r4: .cfa -12 + ^ r5: .cfa -8 + ^
STACK CFI INIT 74de8 20 .cfa: sp 0 + .ra: lr
STACK CFI 74dea .cfa: sp 16 +
STACK CFI 74dec .ra: .cfa -4 + ^ r3: .cfa -16 + ^ r4: .cfa -12 + ^ r5: .cfa -8 + ^
STACK CFI INIT 74e08 2c .cfa: sp 0 + .ra: lr
STACK CFI 74e0a .cfa: sp 16 +
STACK CFI 74e0c .ra: .cfa -4 + ^ r3: .cfa -16 + ^ r4: .cfa -12 + ^ r5: .cfa -8 + ^
STACK CFI INIT 74e34 ec .cfa: sp 0 + .ra: lr
STACK CFI 74e38 .cfa: sp 28 +
STACK CFI 74e3a .ra: .cfa -4 + ^ r4: .cfa -28 + ^ r5: .cfa -24 + ^ r6: .cfa -20 + ^ r7: .cfa -16 + ^ r8: .cfa -12 + ^ r9: .cfa -8 + ^
STACK CFI 74e3e .cfa: sp 40 +
STACK CFI INIT 74f20 1e .cfa: sp 0 + .ra: lr
STACK CFI 74f22 .cfa: sp 16 +
STACK CFI 74f24 .ra: .cfa -4 + ^ r4: .cfa -16 + ^ r5: .cfa -12 + ^ r6: .cfa -8 + ^
STACK CFI INIT 74f40 30 .cfa: sp 0 + .ra: lr
STACK CFI 74f44 .cfa: sp 16 +
STACK CFI 74f48 .ra: .cfa -4 + ^ r4: .cfa -16 + ^ r5: .cfa -12 + ^ r6: .cfa -8 + ^
STACK CFI INIT 74f70 16 .cfa: sp 0 + .ra: lr
STACK CFI 74f72 .cfa: sp 8 +
STACK CFI 74f74 .cfa: sp 16 +
STACK CFI 74f76 r4: .cfa -8 + ^ r5: .cfa -4 + ^
STACK CFI INIT 74f88 a .cfa: sp 0 + .ra: lr
STACK CFI INIT 74f94 e .cfa: sp 0 + .ra: lr
STACK CFI INIT 74fa4 40 .cfa: sp 0 + .ra: lr
STACK CFI 74fb0 .cfa: sp 8 +
STACK CFI 74fb2 .ra: .cfa -4 + ^ r4: .cfa -8 + ^
STACK CFI INIT 74fe4 10 .cfa: sp 0 + .ra: lr
STACK CFI INIT 74ff4 18 .cfa: sp 0 + .ra: lr
STACK CFI 74ff8 .cfa: sp 8 +
STACK CFI 74ffa .ra: .cfa -4 + ^ r4: .cfa -8 + ^
STACK CFI INIT 7500c 30 .cfa: sp 0 + .ra: lr
STACK CFI 7500e .cfa: sp 16 +
STACK CFI 75010 .ra: .cfa -4 + ^ r3: .cfa -16 + ^ r4: .cfa -12 + ^ r5: .cfa -8 + ^
STACK CFI INIT 7503c 1a .cfa: sp 0 + .ra: lr
STACK CFI 7503e .cfa: sp 16 +
STACK CFI 75040 .ra: .cfa -4 + ^ r3: .cfa -16 + ^ r4: .cfa -12 + ^ r5: .cfa -8 + ^
STACK CFI INIT 75058 20 .cfa: sp 0 + .ra: lr
STACK CFI 7505c .cfa: sp 8 +
STACK CFI 75062 .ra: .cfa -4 + ^ r4: .cfa -8 + ^
STACK CFI INIT 75078 1e .cfa: sp 0 + .ra: lr
STACK CFI 7507a .cfa: sp 16 +
STACK CFI 7507c .ra: .cfa -4 + ^ r3: .cfa -16 + ^ r4: .cfa -12 + ^ r5: .cfa -8 + ^
STACK CFI INIT 75098 28 .cfa: sp 0 + .ra: lr
STACK CFI 7509a .cfa: sp 16 +
STACK CFI 7509c .ra: .cfa -4 + ^ r3: .cfa -16 + ^ r4: .cfa -12 + ^ r5: .cfa -8 + ^
STACK CFI INIT 750c0 54 .cfa: sp 0 + .ra: lr
STACK CFI 750c8 .cfa: sp 4 +
STACK CFI 750ce r4: .cfa -4 + ^
STACK CFI INIT 75114 60 .cfa: sp 0 + .ra: lr
STACK CFI 75116 .cfa: sp 24 +
STACK CFI 75118 .ra: .cfa -4 + ^ r3: .cfa -24 + ^ r4: .cfa -20 + ^ r5: .cfa -16 + ^ r6: .cfa -12 + ^ r7: .cfa -8 + ^
STACK CFI INIT 75174 64 .cfa: sp 0 + .ra: lr
STACK CFI 75176 .cfa: sp 4 +
STACK CFI 7517a r4: .cfa -4 + ^
STACK CFI INIT 751d8 98 .cfa: sp 0 + .ra: lr
STACK CFI 751de .cfa: sp 20 +
STACK CFI 751e0 .ra: .cfa -4 + ^ r4: .cfa -20 + ^ r5: .cfa -16 + ^ r6: .cfa -12 + ^ r7: .cfa -8 + ^
STACK CFI 751e8 .cfa: sp 32 +
STACK CFI INIT 75270 60 .cfa: sp 0 + .ra: lr
STACK CFI 75272 .cfa: sp 24 +
STACK CFI 75274 .ra: .cfa -4 + ^ r3: .cfa -24 + ^ r4: .cfa -20 + ^ r5: .cfa -16 + ^ r6: .cfa -12 + ^ r7: .cfa -8 + ^
STACK CFI INIT 752d0 9c .cfa: sp 0 + .ra: lr
STACK CFI 752d2 .cfa: sp 20 +
STACK CFI 752d4 .ra: .cfa -4 + ^ r4: .cfa -20 + ^ r5: .cfa -16 + ^ r6: .cfa -12 + ^ r7: .cfa -8 + ^
STACK CFI 752d8 .cfa: sp 32 +
STACK CFI INIT 7536c 40 .cfa: sp 0 + .ra: lr
STACK CFI 7536e .cfa: sp 16 +
STACK CFI 75372 .ra: .cfa -4 + ^ r4: .cfa -16 + ^ r5: .cfa -12 + ^ r6: .cfa -8 + ^
STACK CFI INIT 753ac 6 .cfa: sp 0 + .ra: lr
STACK CFI INIT 753b4 bc .cfa: sp 0 + .ra: lr
STACK CFI 753b6 .cfa: sp 20 +
STACK CFI 753b8 .ra: .cfa -4 + ^ r4: .cfa -20 + ^ r5: .cfa -16 + ^ r6: .cfa -12 + ^ r7: .cfa -8 + ^
STACK CFI 753bc .cfa: sp 32 +
STACK CFI INIT 75470 e .cfa: sp 0 + .ra: lr
STACK CFI 75472 .cfa: sp 8 +
STACK CFI INIT 75480 1a .cfa: sp 0 + .ra: lr
STACK CFI 75482 .cfa: sp 16 +
STACK CFI 75484 .ra: .cfa -4 + ^ r4: .cfa -16 + ^ r5: .cfa -12 + ^ r6: .cfa -8 + ^
STACK CFI INIT 7549c e .cfa: sp 0 + .ra: lr
STACK CFI 7549e .cfa: sp 8 +
STACK CFI INIT 754ac 1a .cfa: sp 0 + .ra: lr
STACK CFI 754ae .cfa: sp 16 +
STACK CFI 754b0 .ra: .cfa -4 + ^ r4: .cfa -16 + ^ r5: .cfa -12 + ^ r6: .cfa -8 + ^
STACK CFI INIT 754c8 ac .cfa: sp 0 + .ra: lr
STACK CFI 754cc .cfa: sp 32 +
STACK CFI 754ce .ra: .cfa -4 + ^ r3: .cfa -32 + ^ r4: .cfa -28 + ^ r5: .cfa -24 + ^ r6: .cfa -20 + ^ r7: .cfa -16 + ^ r8: .cfa -12 + ^ r9: .cfa -8 + ^
STACK CFI INIT 75574 84 .cfa: sp 0 + .ra: lr
STACK CFI 75578 .cfa: sp 24 +
STACK CFI 7557a .ra: .cfa -4 + ^ r4: .cfa -24 + ^ r5: .cfa -20 + ^ r6: .cfa -16 + ^ r7: .cfa -12 + ^ r8: .cfa -8 + ^
STACK CFI INIT 755f8 4 .cfa: sp 0 + .ra: lr
STACK CFI INIT 755fc 16 .cfa: sp 0 + .ra: lr
STACK CFI 755fe .cfa: sp 8 +
STACK CFI 75600 .ra: .cfa -4 + ^ r4: .cfa -8 + ^
STACK CFI INIT 75614 60 .cfa: sp 0 + .ra: lr
STACK CFI 75616 .cfa: sp 24 +
STACK CFI 75618 .ra: .cfa -4 + ^ r3: .cfa -24 + ^ r4: .cfa -20 + ^ r5: .cfa -16 + ^ r6: .cfa -12 + ^ r7: .cfa -8 + ^
STACK CFI INIT 75674 68 .cfa: sp 0 + .ra: lr
STACK CFI 75678 .cfa: sp 12 +
STACK CFI 7567a .ra: .cfa -4 + ^ r4: .cfa -12 + ^ r5: .cfa -8 + ^
STACK CFI 75682 .cfa: sp 24 +
STACK CFI INIT 756dc c4 .cfa: sp 0 + .ra: lr
STACK CFI 756e2 .cfa: sp 20 +
STACK CFI 756e6 .ra: .cfa -4 + ^ r4: .cfa -20 + ^ r5: .cfa -16 + ^ r6: .cfa -12 + ^ r7: .cfa -8 + ^
STACK CFI 756e8 .cfa: sp 32 +
STACK CFI INIT 757a0 4 .cfa: sp 0 + .ra: lr
STACK CFI INIT 757a4 5c .cfa: sp 0 + .ra: lr
STACK CFI 757a8 .cfa: sp 24 +
STACK CFI 757aa .ra: .cfa -4 + ^ r4: .cfa -24 + ^ r5: .cfa -20 + ^ r6: .cfa -16 + ^ r7: .cfa -12 + ^ r8: .cfa -8 + ^
STACK CFI INIT 75800 4c .cfa: sp 0 + .ra: lr
STACK CFI 7580a .cfa: sp 16 +
STACK CFI 7580c .ra: .cfa -4 + ^ r4: .cfa -16 + ^ r5: .cfa -12 + ^ r6: .cfa -8 + ^
STACK CFI INIT 7584c 20 .cfa: sp 0 + .ra: lr
STACK CFI 7584e .cfa: sp 16 +
STACK CFI 75850 .ra: .cfa -4 + ^ r3: .cfa -16 + ^ r4: .cfa -12 + ^ r5: .cfa -8 + ^
STACK CFI INIT 7586c 60 .cfa: sp 0 + .ra: lr
STACK CFI 75870 .cfa: sp 24 +
STACK CFI 75874 .ra: .cfa -4 + ^ r4: .cfa -24 + ^ r5: .cfa -20 + ^ r6: .cfa -16 + ^ r7: .cfa -12 + ^ r8: .cfa -8 + ^
STACK CFI INIT 758cc 16 .cfa: sp 0 + .ra: lr
STACK CFI 758ce .cfa: sp 8 +
STACK CFI 758d0 .ra: .cfa -4 + ^ r4: .cfa -8 + ^
STACK CFI INIT 758e4 84 .cfa: sp 0 + .ra: lr
STACK CFI 758e8 .cfa: sp 24 +
STACK CFI 758ec .ra: .cfa -4 + ^ r4: .cfa -24 + ^ r5: .cfa -20 + ^ r6: .cfa -16 + ^ r7: .cfa -12 + ^ r8: .cfa -8 + ^
STACK CFI INIT 75968 40 .cfa: sp 0 + .ra: lr
STACK CFI 7596a .cfa: sp 12 +
STACK CFI 7596c .ra: .cfa -4 + ^ r4: .cfa -12 + ^ r5: .cfa -8 + ^
STACK CFI 75970 .cfa: sp 24 +
STACK CFI INIT 759a8 24 .cfa: sp 0 + .ra: lr
STACK CFI 759aa .cfa: sp 16 +
STACK CFI 759ac .ra: .cfa -4 + ^ r3: .cfa -16 + ^ r4: .cfa -12 + ^ r5: .cfa -8 + ^
STACK CFI INIT 759cc 16 .cfa: sp 0 + .ra: lr
STACK CFI 759ce .cfa: sp 8 +
STACK CFI 759d0 .ra: .cfa -4 + ^ r4: .cfa -8 + ^
STACK CFI INIT 759e4 3c .cfa: sp 0 + .ra: lr
STACK CFI 759e6 .cfa: sp 16 +
STACK CFI 759e8 .ra: .cfa -4 + ^ r3: .cfa -16 + ^ r4: .cfa -12 + ^ r5: .cfa -8 + ^
STACK CFI INIT 75a20 84 .cfa: sp 0 + .ra: lr
STACK CFI 75a24 .cfa: sp 24 +
STACK CFI 75a28 .ra: .cfa -4 + ^ r4: .cfa -24 + ^ r5: .cfa -20 + ^ r6: .cfa -16 + ^ r7: .cfa -12 + ^ r8: .cfa -8 + ^
STACK CFI INIT 75aa4 16 .cfa: sp 0 + .ra: lr
STACK CFI 75aa6 .cfa: sp 8 +
STACK CFI 75aa8 .ra: .cfa -4 + ^ r4: .cfa -8 + ^
STACK CFI INIT 75abc 14c .cfa: sp 0 + .ra: lr
STACK CFI 75ac0 .cfa: sp 24 +
STACK CFI 75ac2 .ra: .cfa -4 + ^ r4: .cfa -24 + ^ r5: .cfa -20 + ^ r6: .cfa -16 + ^ r7: .cfa -12 + ^ r8: .cfa -8 + ^
STACK CFI 75ac6 .cfa: sp 48 +
STACK CFI INIT 75c08 14 .cfa: sp 0 + .ra: lr
STACK CFI 75c0a .cfa: sp 4 +
STACK CFI 75c0e r4: .cfa -4 + ^
STACK CFI INIT 75c1c 14 .cfa: sp 0 + .ra: lr
STACK CFI 75c1e .cfa: sp 4 +
STACK CFI 75c22 r4: .cfa -4 + ^
STACK CFI INIT 75c30 14 .cfa: sp 0 + .ra: lr
STACK CFI 75c32 .cfa: sp 4 +
STACK CFI 75c36 r4: .cfa -4 + ^
STACK CFI INIT 75c44 14 .cfa: sp 0 + .ra: lr
STACK CFI 75c46 .cfa: sp 4 +
STACK CFI 75c4a r4: .cfa -4 + ^
STACK CFI INIT 75c58 e .cfa: sp 0 + .ra: lr
STACK CFI 75c5a .cfa: sp 4 +
STACK CFI 75c5e r4: .cfa -4 + ^
STACK CFI INIT 75c68 24 .cfa: sp 0 + .ra: lr
STACK CFI 75c6a .cfa: sp 20 +
STACK CFI 75c6c .ra: .cfa -4 + ^ r4: .cfa -20 + ^ r5: .cfa -16 + ^ r6: .cfa -12 + ^ r7: .cfa -8 + ^
STACK CFI 75c6e .cfa: sp 32 +
STACK CFI INIT 75c8c 30 .cfa: sp 0 + .ra: lr
STACK CFI 75c90 .cfa: sp 16 +
STACK CFI 75c92 .ra: .cfa -4 + ^ r4: .cfa -16 + ^ r5: .cfa -12 + ^ r6: .cfa -8 + ^
STACK CFI INIT 75cbc 16 .cfa: sp 0 + .ra: lr
STACK CFI 75cbe .cfa: sp 8 +
STACK CFI 75cc0 .cfa: sp 16 +
STACK CFI 75cc2 .ra: .cfa -4 + ^ r4: .cfa -8 + ^
STACK CFI INIT 75cd4 14 .cfa: sp 0 + .ra: lr
STACK CFI 75cd6 .cfa: sp 8 +
STACK CFI 75cda .cfa: sp 12 +
STACK CFI 75cdc r4: .cfa -12 + ^
STACK CFI INIT 75ce8 26 .cfa: sp 0 + .ra: lr
STACK CFI 75cea .cfa: sp 20 +
STACK CFI 75cec .ra: .cfa -4 + ^ r4: .cfa -20 + ^ r5: .cfa -16 + ^ r6: .cfa -12 + ^ r7: .cfa -8 + ^
STACK CFI 75cee .cfa: sp 32 +
STACK CFI INIT 75d10 1c .cfa: sp 0 + .ra: lr
STACK CFI 75d12 .cfa: sp 12 +
STACK CFI 75d14 .cfa: sp 24 +
STACK CFI 75d16 .ra: .cfa -4 + ^ r4: .cfa -12 + ^ r5: .cfa -8 + ^
STACK CFI INIT 75d2c 16 .cfa: sp 0 + .ra: lr
STACK CFI 75d2e .cfa: sp 8 +
STACK CFI 75d30 .ra: .cfa -4 + ^ r4: .cfa -8 + ^
STACK CFI INIT 75d44 22 .cfa: sp 0 + .ra: lr
STACK CFI 75d46 .cfa: sp 12 +
STACK CFI 75d48 .cfa: sp 24 +
STACK CFI 75d4a .ra: .cfa -4 + ^ r4: .cfa -12 + ^ r5: .cfa -8 + ^
STACK CFI INIT 75d68 26 .cfa: sp 0 + .ra: lr
STACK CFI 75d6a .cfa: sp 16 +
STACK CFI 75d6c .ra: .cfa -4 + ^ r4: .cfa -16 + ^ r5: .cfa -12 + ^ r6: .cfa -8 + ^
STACK CFI INIT 75d90 e .cfa: sp 0 + .ra: lr
STACK CFI INIT 75da0 e .cfa: sp 0 + .ra: lr
STACK CFI INIT 75db0 148 .cfa: sp 0 + .ra: lr
STACK CFI 75db4 .cfa: sp 36 +
STACK CFI 75db6 .cfa: sp 80 +
STACK CFI 75db8 .ra: .cfa -4 + ^ r10: .cfa -12 + ^ r11: .cfa -8 + ^ r4: .cfa -36 + ^ r5: .cfa -32 + ^ r6: .cfa -28 + ^ r7: .cfa -24 + ^ r8: .cfa -20 + ^ r9: .cfa -16 + ^
STACK CFI INIT 75ef8 d2 .cfa: sp 0 + .ra: lr
STACK CFI 75efc .cfa: sp 24 +
STACK CFI 75efe .ra: .cfa -4 + ^ r4: .cfa -24 + ^ r5: .cfa -20 + ^ r6: .cfa -16 + ^ r7: .cfa -12 + ^ r8: .cfa -8 + ^
STACK CFI INIT 75fcc e .cfa: sp 0 + .ra: lr
STACK CFI 75fce .cfa: sp 8 +
STACK CFI 75fd0 .ra: .cfa -4 + ^ r4: .cfa -8 + ^
STACK CFI INIT 75fdc 22 .cfa: sp 0 + .ra: lr
STACK CFI 75fde .cfa: sp 16 +
STACK CFI 75fe0 .ra: .cfa -4 + ^ r3: .cfa -16 + ^ r4: .cfa -12 + ^ r5: .cfa -8 + ^
STACK CFI INIT 76000 36 .cfa: sp 0 + .ra: lr
STACK CFI 76002 .cfa: sp 4 +
STACK CFI 76004 r4: .cfa -4 + ^
STACK CFI INIT 76038 12 .cfa: sp 0 + .ra: lr
STACK CFI 7603c .cfa: sp 4 +
STACK CFI 7603e r4: .cfa -4 + ^
STACK CFI INIT 7604c 1c .cfa: sp 0 + .ra: lr
STACK CFI 7604e .cfa: sp 16 +
STACK CFI 76050 .ra: .cfa -4 + ^ r3: .cfa -16 + ^ r4: .cfa -12 + ^ r5: .cfa -8 + ^
STACK CFI INIT 76068 4 .cfa: sp 0 + .ra: lr
STACK CFI INIT 7606c 8 .cfa: sp 0 + .ra: lr
STACK CFI INIT 76074 6 .cfa: sp 0 + .ra: lr
STACK CFI INIT 7607c 6 .cfa: sp 0 + .ra: lr
STACK CFI INIT 76084 6 .cfa: sp 0 + .ra: lr
STACK CFI INIT 7608c 2c .cfa: sp 0 + .ra: lr
STACK CFI 7608e .cfa: sp 4 +
STACK CFI 76090 .cfa: sp 16 +
STACK CFI 76092 r4: .cfa -4 + ^
STACK CFI INIT 760b8 2c .cfa: sp 0 + .ra: lr
STACK CFI 760ba .cfa: sp 4 +
STACK CFI 760bc .cfa: sp 16 +
STACK CFI 760be r4: .cfa -4 + ^
STACK CFI INIT 760e4 6 .cfa: sp 0 + .ra: lr
STACK CFI INIT 760ec 6 .cfa: sp 0 + .ra: lr
STACK CFI INIT 760f4 6 .cfa: sp 0 + .ra: lr
STACK CFI INIT 760fc 2c .cfa: sp 0 + .ra: lr
STACK CFI 760fe .cfa: sp 4 +
STACK CFI 76100 .cfa: sp 16 +
STACK CFI 76102 r4: .cfa -4 + ^
STACK CFI INIT 76128 2c .cfa: sp 0 + .ra: lr
STACK CFI 7612a .cfa: sp 4 +
STACK CFI 7612c .cfa: sp 16 +
STACK CFI 7612e r4: .cfa -4 + ^
STACK CFI INIT 76154 6 .cfa: sp 0 + .ra: lr
STACK CFI INIT 7615c 6 .cfa: sp 0 + .ra: lr
STACK CFI INIT 76164 4 .cfa: sp 0 + .ra: lr
STACK CFI INIT 76168 2 .cfa: sp 0 + .ra: lr
STACK CFI INIT 7616c 44 .cfa: sp 0 + .ra: lr
STACK CFI 76170 .cfa: sp 4 +
STACK CFI 76172 r4: .cfa -4 + ^
STACK CFI INIT 761b0 20 .cfa: sp 0 + .ra: lr
STACK CFI 761b8 .cfa: sp 8 +
STACK CFI 761ba .ra: .cfa -4 + ^ r4: .cfa -8 + ^
STACK CFI INIT 761d0 28 .cfa: sp 0 + .ra: lr
STACK CFI 761d8 .cfa: sp 8 +
STACK CFI 761da .ra: .cfa -4 + ^ r4: .cfa -8 + ^
STACK CFI INIT 761f8 20 .cfa: sp 0 + .ra: lr
STACK CFI 76200 .cfa: sp 8 +
STACK CFI 76202 .ra: .cfa -4 + ^ r4: .cfa -8 + ^
STACK CFI INIT 76218 28 .cfa: sp 0 + .ra: lr
STACK CFI 76220 .cfa: sp 8 +
STACK CFI 76222 .ra: .cfa -4 + ^ r4: .cfa -8 + ^
STACK CFI INIT 76240 20 .cfa: sp 0 + .ra: lr
STACK CFI 76248 .cfa: sp 8 +
STACK CFI 7624a .ra: .cfa -4 + ^ r4: .cfa -8 + ^
STACK CFI INIT 76260 20 .cfa: sp 0 + .ra: lr
STACK CFI 76268 .cfa: sp 8 +
STACK CFI 7626a .ra: .cfa -4 + ^ r4: .cfa -8 + ^
STACK CFI INIT 76280 28 .cfa: sp 0 + .ra: lr
STACK CFI 76288 .cfa: sp 8 +
STACK CFI 7628a .ra: .cfa -4 + ^ r4: .cfa -8 + ^
STACK CFI INIT 762a8 20 .cfa: sp 0 + .ra: lr
STACK CFI 762b0 .cfa: sp 8 +
STACK CFI 762b2 .ra: .cfa -4 + ^ r4: .cfa -8 + ^
STACK CFI INIT 762c8 20 .cfa: sp 0 + .ra: lr
STACK CFI 762d0 .cfa: sp 8 +
STACK CFI 762d2 .ra: .cfa -4 + ^ r4: .cfa -8 + ^
STACK CFI INIT 762e8 28 .cfa: sp 0 + .ra: lr
STACK CFI 762f0 .cfa: sp 8 +
STACK CFI 762f2 .ra: .cfa -4 + ^ r4: .cfa -8 + ^
STACK CFI INIT 76310 20 .cfa: sp 0 + .ra: lr
STACK CFI 76318 .cfa: sp 8 +
STACK CFI 7631a .ra: .cfa -4 + ^ r4: .cfa -8 + ^
STACK CFI INIT 76330 12 .cfa: sp 0 + .ra: lr
STACK CFI 76332 .cfa: sp 8 +
STACK CFI 76334 .ra: .cfa -4 + ^ r4: .cfa -8 + ^
STACK CFI INIT 76344 20 .cfa: sp 0 + .ra: lr
STACK CFI 7634c .cfa: sp 8 +
STACK CFI 7634e .ra: .cfa -4 + ^ r4: .cfa -8 + ^
STACK CFI INIT 76364 28 .cfa: sp 0 + .ra: lr
STACK CFI 7636c .cfa: sp 8 +
STACK CFI 7636e .ra: .cfa -4 + ^ r4: .cfa -8 + ^
STACK CFI INIT 7638c 20 .cfa: sp 0 + .ra: lr
STACK CFI 76394 .cfa: sp 8 +
STACK CFI 76396 .ra: .cfa -4 + ^ r4: .cfa -8 + ^
STACK CFI INIT 763ac 28 .cfa: sp 0 + .ra: lr
STACK CFI 763b4 .cfa: sp 8 +
STACK CFI 763b6 .ra: .cfa -4 + ^ r4: .cfa -8 + ^
STACK CFI INIT 763d4 20 .cfa: sp 0 + .ra: lr
STACK CFI 763dc .cfa: sp 8 +
STACK CFI 763de .ra: .cfa -4 + ^ r4: .cfa -8 + ^
STACK CFI INIT 763f4 28 .cfa: sp 0 + .ra: lr
STACK CFI 763fc .cfa: sp 8 +
STACK CFI 763fe .ra: .cfa -4 + ^ r4: .cfa -8 + ^
STACK CFI INIT 7641c 20 .cfa: sp 0 + .ra: lr
STACK CFI 76424 .cfa: sp 8 +
STACK CFI 76426 .ra: .cfa -4 + ^ r4: .cfa -8 + ^
STACK CFI INIT 7643c 28 .cfa: sp 0 + .ra: lr
STACK CFI 76444 .cfa: sp 8 +
STACK CFI 76446 .ra: .cfa -4 + ^ r4: .cfa -8 + ^
STACK CFI INIT 76464 34 .cfa: sp 0 + .ra: lr
STACK CFI 7646c .cfa: sp 8 +
STACK CFI 7646e .ra: .cfa -4 + ^ r4: .cfa -8 + ^
STACK CFI INIT 76498 40 .cfa: sp 0 + .ra: lr
STACK CFI 764a4 .cfa: sp 8 +
STACK CFI 764a6 .ra: .cfa -4 + ^ r4: .cfa -8 + ^
STACK CFI INIT 764d8 12 .cfa: sp 0 + .ra: lr
STACK CFI 764da .cfa: sp 8 +
STACK CFI 764dc .ra: .cfa -4 + ^ r4: .cfa -8 + ^
STACK CFI INIT 764ec 48 .cfa: sp 0 + .ra: lr
STACK CFI 764f8 .cfa: sp 8 +
STACK CFI 764fa .ra: .cfa -4 + ^ r4: .cfa -8 + ^
STACK CFI INIT 76534 12 .cfa: sp 0 + .ra: lr
STACK CFI 76536 .cfa: sp 8 +
STACK CFI 76538 .ra: .cfa -4 + ^ r4: .cfa -8 + ^
STACK CFI INIT 76548 48 .cfa: sp 0 + .ra: lr
STACK CFI 76554 .cfa: sp 8 +
STACK CFI 76556 .ra: .cfa -4 + ^ r4: .cfa -8 + ^
STACK CFI INIT 76590 12 .cfa: sp 0 + .ra: lr
STACK CFI 76592 .cfa: sp 8 +
STACK CFI 76594 .ra: .cfa -4 + ^ r4: .cfa -8 + ^
STACK CFI INIT 765a4 20 .cfa: sp 0 + .ra: lr
STACK CFI 765ac .cfa: sp 8 +
STACK CFI 765ae .ra: .cfa -4 + ^ r4: .cfa -8 + ^
STACK CFI INIT 765c4 28 .cfa: sp 0 + .ra: lr
STACK CFI 765cc .cfa: sp 8 +
STACK CFI 765ce .ra: .cfa -4 + ^ r4: .cfa -8 + ^
STACK CFI INIT 765ec 48 .cfa: sp 0 + .ra: lr
STACK CFI 765ee .cfa: sp 16 +
STACK CFI 765f0 .ra: .cfa -4 + ^ r3: .cfa -16 + ^ r4: .cfa -12 + ^ r5: .cfa -8 + ^
STACK CFI INIT 76634 20 .cfa: sp 0 + .ra: lr
STACK CFI 7663c .cfa: sp 8 +
STACK CFI 7663e .ra: .cfa -4 + ^ r4: .cfa -8 + ^
STACK CFI INIT 76654 28 .cfa: sp 0 + .ra: lr
STACK CFI 7665c .cfa: sp 8 +
STACK CFI 7665e .ra: .cfa -4 + ^ r4: .cfa -8 + ^
STACK CFI INIT 7667c 12 .cfa: sp 0 + .ra: lr
STACK CFI 7667e .cfa: sp 8 +
STACK CFI 76680 .ra: .cfa -4 + ^ r4: .cfa -8 + ^
STACK CFI INIT 76690 50 .cfa: sp 0 + .ra: lr
STACK CFI 76692 .cfa: sp 16 +
STACK CFI 76694 .ra: .cfa -4 + ^ r3: .cfa -16 + ^ r4: .cfa -12 + ^ r5: .cfa -8 + ^
STACK CFI INIT 766e0 12 .cfa: sp 0 + .ra: lr
STACK CFI 766e2 .cfa: sp 8 +
STACK CFI 766e4 .ra: .cfa -4 + ^ r4: .cfa -8 + ^
STACK CFI INIT 766f4 c .cfa: sp 0 + .ra: lr
STACK CFI 766f6 .cfa: sp 8 +
STACK CFI 766f8 .ra: .cfa -4 + ^ r3: .cfa -8 + ^
STACK CFI INIT 76700 20 .cfa: sp 0 + .ra: lr
STACK CFI 76708 .cfa: sp 8 +
STACK CFI 7670a .ra: .cfa -4 + ^ r4: .cfa -8 + ^
STACK CFI INIT 76720 28 .cfa: sp 0 + .ra: lr
STACK CFI 76728 .cfa: sp 8 +
STACK CFI 7672a .ra: .cfa -4 + ^ r4: .cfa -8 + ^
STACK CFI INIT 76748 16 .cfa: sp 0 + .ra: lr
STACK CFI 7674c .cfa: sp 8 +
STACK CFI 7674e .cfa: sp 16 +
STACK CFI 76750 .ra: .cfa -4 + ^ r4: .cfa -8 + ^
STACK CFI INIT 76760 16 .cfa: sp 0 + .ra: lr
STACK CFI 76764 .cfa: sp 8 +
STACK CFI 76766 .cfa: sp 16 +
STACK CFI 76768 .ra: .cfa -4 + ^ r4: .cfa -8 + ^
STACK CFI INIT 76778 16 .cfa: sp 0 + .ra: lr
STACK CFI 7677c .cfa: sp 8 +
STACK CFI 7677e .cfa: sp 16 +
STACK CFI 76780 .ra: .cfa -4 + ^ r4: .cfa -8 + ^
STACK CFI INIT 76790 16 .cfa: sp 0 + .ra: lr
STACK CFI 76794 .cfa: sp 8 +
STACK CFI 76796 .cfa: sp 16 +
STACK CFI 76798 .ra: .cfa -4 + ^ r4: .cfa -8 + ^
STACK CFI INIT 767a8 16 .cfa: sp 0 + .ra: lr
STACK CFI 767ac .cfa: sp 8 +
STACK CFI 767ae .cfa: sp 16 +
STACK CFI 767b0 .ra: .cfa -4 + ^ r4: .cfa -8 + ^
STACK CFI INIT 767c0 16 .cfa: sp 0 + .ra: lr
STACK CFI 767c4 .cfa: sp 8 +
STACK CFI 767c6 .cfa: sp 16 +
STACK CFI 767c8 .ra: .cfa -4 + ^ r4: .cfa -8 + ^
STACK CFI INIT 767d8 16 .cfa: sp 0 + .ra: lr
STACK CFI 767dc .cfa: sp 8 +
STACK CFI 767de .cfa: sp 16 +
STACK CFI 767e0 .ra: .cfa -4 + ^ r4: .cfa -8 + ^
STACK CFI INIT 767f0 16 .cfa: sp 0 + .ra: lr
STACK CFI 767f4 .cfa: sp 8 +
STACK CFI 767f6 .cfa: sp 16 +
STACK CFI 767f8 .ra: .cfa -4 + ^ r4: .cfa -8 + ^
STACK CFI INIT 76808 16 .cfa: sp 0 + .ra: lr
STACK CFI 7680c .cfa: sp 8 +
STACK CFI 7680e .cfa: sp 16 +
STACK CFI 76810 .ra: .cfa -4 + ^ r4: .cfa -8 + ^
STACK CFI INIT 76820 16 .cfa: sp 0 + .ra: lr
STACK CFI 76824 .cfa: sp 8 +
STACK CFI 76826 .cfa: sp 16 +
STACK CFI 76828 .ra: .cfa -4 + ^ r4: .cfa -8 + ^
STACK CFI INIT 76838 16 .cfa: sp 0 + .ra: lr
STACK CFI 7683c .cfa: sp 8 +
STACK CFI 7683e .cfa: sp 16 +
STACK CFI 76840 .ra: .cfa -4 + ^ r4: .cfa -8 + ^
STACK CFI INIT 76850 20 .cfa: sp 0 + .ra: lr
STACK CFI 76858 .cfa: sp 8 +
STACK CFI 7685a .ra: .cfa -4 + ^ r4: .cfa -8 + ^
STACK CFI INIT 76870 28 .cfa: sp 0 + .ra: lr
STACK CFI 76878 .cfa: sp 8 +
STACK CFI 7687a .ra: .cfa -4 + ^ r4: .cfa -8 + ^
STACK CFI INIT 76898 20 .cfa: sp 0 + .ra: lr
STACK CFI 768a0 .cfa: sp 8 +
STACK CFI 768a2 .ra: .cfa -4 + ^ r4: .cfa -8 + ^
STACK CFI INIT 768b8 28 .cfa: sp 0 + .ra: lr
STACK CFI 768c0 .cfa: sp 8 +
STACK CFI 768c2 .ra: .cfa -4 + ^ r4: .cfa -8 + ^
STACK CFI INIT 768e0 28 .cfa: sp 0 + .ra: lr
STACK CFI 768e8 .cfa: sp 8 +
STACK CFI 768ea .ra: .cfa -4 + ^ r4: .cfa -8 + ^
STACK CFI INIT 76908 28 .cfa: sp 0 + .ra: lr
STACK CFI 76910 .cfa: sp 8 +
STACK CFI 76912 .ra: .cfa -4 + ^ r4: .cfa -8 + ^
STACK CFI INIT 76930 34 .cfa: sp 0 + .ra: lr
STACK CFI 76938 .cfa: sp 8 +
STACK CFI 7693a .ra: .cfa -4 + ^ r4: .cfa -8 + ^
STACK CFI INIT 76964 38 .cfa: sp 0 + .ra: lr
STACK CFI 7696c .cfa: sp 8 +
STACK CFI 7696e .ra: .cfa -4 + ^ r4: .cfa -8 + ^
STACK CFI INIT 7699c 38 .cfa: sp 0 + .ra: lr
STACK CFI 769a4 .cfa: sp 8 +
STACK CFI 769a6 .ra: .cfa -4 + ^ r4: .cfa -8 + ^
STACK CFI INIT 769d4 16c .cfa: sp 0 + .ra: lr
STACK CFI 769d8 .cfa: sp 36 +
STACK CFI 769da .ra: .cfa -4 + ^ r10: .cfa -12 + ^ r11: .cfa -8 + ^ r4: .cfa -36 + ^ r5: .cfa -32 + ^ r6: .cfa -28 + ^ r7: .cfa -24 + ^ r8: .cfa -20 + ^ r9: .cfa -16 + ^
STACK CFI 769de .cfa: sp 64 +
STACK CFI INIT 76b40 144 .cfa: sp 0 + .ra: lr
STACK CFI 76b44 .cfa: sp 32 +
STACK CFI 76b46 .cfa: sp 56 +
STACK CFI 76b48 .ra: .cfa -4 + ^ r10: .cfa -8 + ^ r4: .cfa -32 + ^ r5: .cfa -28 + ^ r6: .cfa -24 + ^ r7: .cfa -20 + ^ r8: .cfa -16 + ^ r9: .cfa -12 + ^
STACK CFI INIT 60d2c 3c .cfa: sp 0 + .ra: lr
STACK CFI 60d2e .cfa: sp 4 +
STACK CFI 60d32 .cfa: sp 28 +
STACK CFI 60d34 .cfa: sp 40 +
STACK CFI 60d36 .ra: .cfa -8 + ^ r3: .cfa -4 + ^ r4: .cfa -28 + ^ r5: .cfa -24 + ^ r6: .cfa -20 + ^ r7: .cfa -16 + ^ r8: .cfa -12 + ^
STACK CFI INIT 76c84 3c .cfa: sp 0 + .ra: lr
STACK CFI 76c92 .cfa: sp 16 +
STACK CFI 76c94 .ra: .cfa -4 + ^ r4: .cfa -16 + ^ r5: .cfa -12 + ^ r6: .cfa -8 + ^
STACK CFI INIT 76cc0 38 .cfa: sp 0 + .ra: lr
STACK CFI 76cc6 .cfa: sp 8 +
STACK CFI 76cd2 .ra: .cfa -4 + ^ r4: .cfa -8 + ^
STACK CFI INIT 76cf8 3c .cfa: sp 0 + .ra: lr
STACK CFI 76cfa .cfa: sp 16 +
STACK CFI 76cfc .ra: .cfa -4 + ^ r3: .cfa -16 + ^ r4: .cfa -12 + ^ r5: .cfa -8 + ^
STACK CFI INIT 76d34 a .cfa: sp 0 + .ra: lr
STACK CFI 76d38 .cfa: sp 8 +
STACK CFI 76d3a .ra: .cfa -4 + ^ r3: .cfa -8 + ^
STACK CFI INIT 76d40 a .cfa: sp 0 + .ra: lr
STACK CFI 76d44 .cfa: sp 8 +
STACK CFI 76d46 .ra: .cfa -4 + ^ r3: .cfa -8 + ^
STACK CFI INIT 76d4c e .cfa: sp 0 + .ra: lr
STACK CFI 76d50 .cfa: sp 8 +
STACK CFI 76d52 .ra: .cfa -4 + ^ r4: .cfa -8 + ^
STACK CFI INIT 76d5c e .cfa: sp 0 + .ra: lr
STACK CFI 76d60 .cfa: sp 8 +
STACK CFI 76d62 .ra: .cfa -4 + ^ r4: .cfa -8 + ^
STACK CFI INIT 76d6c e .cfa: sp 0 + .ra: lr
STACK CFI 76d70 .cfa: sp 8 +
STACK CFI 76d72 .ra: .cfa -4 + ^ r4: .cfa -8 + ^
STACK CFI INIT 76d7c e .cfa: sp 0 + .ra: lr
STACK CFI 76d80 .cfa: sp 8 +
STACK CFI 76d82 .ra: .cfa -4 + ^ r4: .cfa -8 + ^
STACK CFI INIT 76d8c a .cfa: sp 0 + .ra: lr
STACK CFI 76d90 .cfa: sp 8 +
STACK CFI 76d92 .ra: .cfa -4 + ^ r3: .cfa -8 + ^
STACK CFI INIT 76d98 4c .cfa: sp 0 + .ra: lr
STACK CFI 76d9c .cfa: sp 8 +
STACK CFI 76d9e .cfa: sp 24 +
STACK CFI 76da0 .ra: .cfa -4 + ^ r4: .cfa -8 + ^
STACK CFI INIT 76de4 4c .cfa: sp 0 + .ra: lr
STACK CFI 76de8 .cfa: sp 8 +
STACK CFI 76dea .cfa: sp 24 +
STACK CFI 76dec .ra: .cfa -4 + ^ r4: .cfa -8 + ^
STACK CFI INIT 76e30 3c .cfa: sp 0 + .ra: lr
STACK CFI 76e3e .cfa: sp 16 +
STACK CFI 76e40 .ra: .cfa -4 + ^ r4: .cfa -16 + ^ r5: .cfa -12 + ^ r6: .cfa -8 + ^
STACK CFI INIT 76e6c 38 .cfa: sp 0 + .ra: lr
STACK CFI 76e72 .cfa: sp 8 +
STACK CFI 76e7e .ra: .cfa -4 + ^ r4: .cfa -8 + ^
STACK CFI INIT 76ea4 3c .cfa: sp 0 + .ra: lr
STACK CFI 76ea6 .cfa: sp 16 +
STACK CFI 76ea8 .ra: .cfa -4 + ^ r3: .cfa -16 + ^ r4: .cfa -12 + ^ r5: .cfa -8 + ^
STACK CFI INIT 76ee0 a .cfa: sp 0 + .ra: lr
STACK CFI 76ee4 .cfa: sp 8 +
STACK CFI 76ee6 .ra: .cfa -4 + ^ r3: .cfa -8 + ^
STACK CFI INIT 76eec a .cfa: sp 0 + .ra: lr
STACK CFI 76ef0 .cfa: sp 8 +
STACK CFI 76ef2 .ra: .cfa -4 + ^ r3: .cfa -8 + ^
STACK CFI INIT 76ef8 e .cfa: sp 0 + .ra: lr
STACK CFI 76efc .cfa: sp 8 +
STACK CFI 76efe .ra: .cfa -4 + ^ r4: .cfa -8 + ^
STACK CFI INIT 76f08 e .cfa: sp 0 + .ra: lr
STACK CFI 76f0c .cfa: sp 8 +
STACK CFI 76f0e .ra: .cfa -4 + ^ r4: .cfa -8 + ^
STACK CFI INIT 76f18 e .cfa: sp 0 + .ra: lr
STACK CFI 76f1c .cfa: sp 8 +
STACK CFI 76f1e .ra: .cfa -4 + ^ r4: .cfa -8 + ^
STACK CFI INIT 76f28 e .cfa: sp 0 + .ra: lr
STACK CFI 76f2c .cfa: sp 8 +
STACK CFI 76f2e .ra: .cfa -4 + ^ r4: .cfa -8 + ^
STACK CFI INIT 76f38 a .cfa: sp 0 + .ra: lr
STACK CFI 76f3c .cfa: sp 8 +
STACK CFI 76f3e .ra: .cfa -4 + ^ r3: .cfa -8 + ^
STACK CFI INIT 76f44 4c .cfa: sp 0 + .ra: lr
STACK CFI 76f48 .cfa: sp 8 +
STACK CFI 76f4a .cfa: sp 24 +
STACK CFI 76f4c .ra: .cfa -4 + ^ r4: .cfa -8 + ^
STACK CFI INIT 76f90 4c .cfa: sp 0 + .ra: lr
STACK CFI 76f94 .cfa: sp 8 +
STACK CFI 76f96 .cfa: sp 24 +
STACK CFI 76f98 .ra: .cfa -4 + ^ r4: .cfa -8 + ^
STACK CFI INIT 76fdc 60 .cfa: sp 0 + .ra: lr
STACK CFI 76fde .cfa: sp 4 +
STACK CFI 76fe0 r4: .cfa -4 + ^
STACK CFI INIT 7703c 60 .cfa: sp 0 + .ra: lr
STACK CFI 7703e .cfa: sp 4 +
STACK CFI 77040 r4: .cfa -4 + ^
STACK CFI INIT 7709c 98 .cfa: sp 0 + .ra: lr
STACK CFI 7709e .cfa: sp 20 +
STACK CFI 770a0 .ra: .cfa -4 + ^ r4: .cfa -20 + ^ r5: .cfa -16 + ^ r6: .cfa -12 + ^ r7: .cfa -8 + ^
STACK CFI 770b2 .cfa: sp 32 +
STACK CFI INIT 77134 98 .cfa: sp 0 + .ra: lr
STACK CFI 77136 .cfa: sp 20 +
STACK CFI 77138 .ra: .cfa -4 + ^ r4: .cfa -20 + ^ r5: .cfa -16 + ^ r6: .cfa -12 + ^ r7: .cfa -8 + ^
STACK CFI 7714a .cfa: sp 32 +
STACK CFI INIT 771cc 20 .cfa: sp 0 + .ra: lr
STACK CFI INIT 771ec 42 .cfa: sp 0 + .ra: lr
STACK CFI 771ee .cfa: sp 20 +
STACK CFI 771f0 .cfa: sp 56 +
STACK CFI 771f2 .ra: .cfa -4 + ^ r4: .cfa -20 + ^ r5: .cfa -16 + ^ r6: .cfa -12 + ^ r7: .cfa -8 + ^
STACK CFI INIT 77230 42 .cfa: sp 0 + .ra: lr
STACK CFI 77232 .cfa: sp 20 +
STACK CFI 77234 .cfa: sp 56 +
STACK CFI 77236 .ra: .cfa -4 + ^ r4: .cfa -20 + ^ r5: .cfa -16 + ^ r6: .cfa -12 + ^ r7: .cfa -8 + ^
STACK CFI INIT 77274 20 .cfa: sp 0 + .ra: lr
STACK CFI INIT 77294 32 .cfa: sp 0 + .ra: lr
STACK CFI 77296 .cfa: sp 20 +
STACK CFI 77298 .cfa: sp 56 +
STACK CFI 7729a .ra: .cfa -4 + ^ r4: .cfa -20 + ^ r5: .cfa -16 + ^ r6: .cfa -12 + ^ r7: .cfa -8 + ^
STACK CFI INIT 772c8 2e .cfa: sp 0 + .ra: lr
STACK CFI 772ca .cfa: sp 20 +
STACK CFI 772cc .cfa: sp 48 +
STACK CFI 772ce .ra: .cfa -4 + ^ r4: .cfa -20 + ^ r5: .cfa -16 + ^ r6: .cfa -12 + ^ r7: .cfa -8 + ^
STACK CFI INIT 772f8 38 .cfa: sp 0 + .ra: lr
STACK CFI 77306 .cfa: sp 8 +
STACK CFI 77308 .ra: .cfa -4 + ^ r4: .cfa -8 + ^
STACK CFI INIT 77330 38 .cfa: sp 0 + .ra: lr
STACK CFI 77336 .cfa: sp 8 +
STACK CFI 77342 .ra: .cfa -4 + ^ r4: .cfa -8 + ^
STACK CFI INIT 77368 3c .cfa: sp 0 + .ra: lr
STACK CFI 77378 .cfa: sp 8 +
STACK CFI 7737a .ra: .cfa -4 + ^ r4: .cfa -8 + ^
STACK CFI INIT 773a4 a .cfa: sp 0 + .ra: lr
STACK CFI 773a8 .cfa: sp 8 +
STACK CFI 773aa .ra: .cfa -4 + ^ r3: .cfa -8 + ^
STACK CFI INIT 773b0 a .cfa: sp 0 + .ra: lr
STACK CFI 773b4 .cfa: sp 8 +
STACK CFI 773b6 .ra: .cfa -4 + ^ r3: .cfa -8 + ^
STACK CFI INIT 773bc e .cfa: sp 0 + .ra: lr
STACK CFI 773c0 .cfa: sp 8 +
STACK CFI 773c2 .ra: .cfa -4 + ^ r4: .cfa -8 + ^
STACK CFI INIT 773cc e .cfa: sp 0 + .ra: lr
STACK CFI 773d0 .cfa: sp 8 +
STACK CFI 773d2 .ra: .cfa -4 + ^ r4: .cfa -8 + ^
STACK CFI INIT 773dc e .cfa: sp 0 + .ra: lr
STACK CFI 773e0 .cfa: sp 8 +
STACK CFI 773e2 .ra: .cfa -4 + ^ r4: .cfa -8 + ^
STACK CFI INIT 773ec 3c .cfa: sp 0 + .ra: lr
STACK CFI 773ee .cfa: sp 4 +
STACK CFI 773f0 r4: .cfa -4 + ^
STACK CFI INIT 77428 94 .cfa: sp 0 + .ra: lr
STACK CFI 7742a .cfa: sp 16 +
STACK CFI 7742c .ra: .cfa -4 + ^ r4: .cfa -16 + ^ r5: .cfa -12 + ^ r6: .cfa -8 + ^
STACK CFI 7743e .cfa: sp 24 +
STACK CFI INIT 774bc 20 .cfa: sp 0 + .ra: lr
STACK CFI INIT 774dc 3a .cfa: sp 0 + .ra: lr
STACK CFI 774de .cfa: sp 20 +
STACK CFI 774e0 .cfa: sp 56 +
STACK CFI 774e2 .ra: .cfa -4 + ^ r4: .cfa -20 + ^ r5: .cfa -16 + ^ r6: .cfa -12 + ^ r7: .cfa -8 + ^
STACK CFI INIT 77518 3a .cfa: sp 0 + .ra: lr
STACK CFI 7751a .cfa: sp 20 +
STACK CFI 7751c .cfa: sp 56 +
STACK CFI 7751e .ra: .cfa -4 + ^ r4: .cfa -20 + ^ r5: .cfa -16 + ^ r6: .cfa -12 + ^ r7: .cfa -8 + ^
STACK CFI INIT 77554 3a .cfa: sp 0 + .ra: lr
STACK CFI 77556 .cfa: sp 20 +
STACK CFI 77558 .cfa: sp 56 +
STACK CFI 7755a .ra: .cfa -4 + ^ r4: .cfa -20 + ^ r5: .cfa -16 + ^ r6: .cfa -12 + ^ r7: .cfa -8 + ^
STACK CFI INIT 77590 3a .cfa: sp 0 + .ra: lr
STACK CFI 77592 .cfa: sp 20 +
STACK CFI 77594 .cfa: sp 56 +
STACK CFI 77596 .ra: .cfa -4 + ^ r4: .cfa -20 + ^ r5: .cfa -16 + ^ r6: .cfa -12 + ^ r7: .cfa -8 + ^
STACK CFI INIT 775cc 3a .cfa: sp 0 + .ra: lr
STACK CFI 775ce .cfa: sp 20 +
STACK CFI 775d0 .cfa: sp 56 +
STACK CFI 775d2 .ra: .cfa -4 + ^ r4: .cfa -20 + ^ r5: .cfa -16 + ^ r6: .cfa -12 + ^ r7: .cfa -8 + ^
STACK CFI INIT 77608 3a .cfa: sp 0 + .ra: lr
STACK CFI 7760a .cfa: sp 20 +
STACK CFI 7760c .cfa: sp 56 +
STACK CFI 7760e .ra: .cfa -4 + ^ r4: .cfa -20 + ^ r5: .cfa -16 + ^ r6: .cfa -12 + ^ r7: .cfa -8 + ^
STACK CFI INIT 77644 3a .cfa: sp 0 + .ra: lr
STACK CFI 77646 .cfa: sp 20 +
STACK CFI 77648 .cfa: sp 56 +
STACK CFI 7764a .ra: .cfa -4 + ^ r4: .cfa -20 + ^ r5: .cfa -16 + ^ r6: .cfa -12 + ^ r7: .cfa -8 + ^
STACK CFI INIT 77680 3a .cfa: sp 0 + .ra: lr
STACK CFI 77682 .cfa: sp 20 +
STACK CFI 77684 .cfa: sp 56 +
STACK CFI 77686 .ra: .cfa -4 + ^ r4: .cfa -20 + ^ r5: .cfa -16 + ^ r6: .cfa -12 + ^ r7: .cfa -8 + ^
STACK CFI INIT 776bc 3a .cfa: sp 0 + .ra: lr
STACK CFI 776be .cfa: sp 20 +
STACK CFI 776c0 .cfa: sp 56 +
STACK CFI 776c2 .ra: .cfa -4 + ^ r4: .cfa -20 + ^ r5: .cfa -16 + ^ r6: .cfa -12 + ^ r7: .cfa -8 + ^
STACK CFI INIT 776f8 3a .cfa: sp 0 + .ra: lr
STACK CFI 776fa .cfa: sp 20 +
STACK CFI 776fc .cfa: sp 56 +
STACK CFI 776fe .ra: .cfa -4 + ^ r4: .cfa -20 + ^ r5: .cfa -16 + ^ r6: .cfa -12 + ^ r7: .cfa -8 + ^
STACK CFI INIT 77734 3a .cfa: sp 0 + .ra: lr
STACK CFI 77736 .cfa: sp 20 +
STACK CFI 77738 .cfa: sp 56 +
STACK CFI 7773a .ra: .cfa -4 + ^ r4: .cfa -20 + ^ r5: .cfa -16 + ^ r6: .cfa -12 + ^ r7: .cfa -8 + ^
STACK CFI INIT 77770 20 .cfa: sp 0 + .ra: lr
STACK CFI INIT 77790 2a .cfa: sp 0 + .ra: lr
STACK CFI 77792 .cfa: sp 20 +
STACK CFI 77794 .cfa: sp 48 +
STACK CFI 77796 .ra: .cfa -4 + ^ r4: .cfa -20 + ^ r5: .cfa -16 + ^ r6: .cfa -12 + ^ r7: .cfa -8 + ^
STACK CFI INIT 777bc 28 .cfa: sp 0 + .ra: lr
STACK CFI 777be .cfa: sp 16 +
STACK CFI 777c0 .cfa: sp 40 +
STACK CFI 777c2 .ra: .cfa -4 + ^ r4: .cfa -16 + ^ r5: .cfa -12 + ^ r6: .cfa -8 + ^
STACK CFI INIT 777e4 28 .cfa: sp 0 + .ra: lr
STACK CFI 777e6 .cfa: sp 16 +
STACK CFI 777e8 .cfa: sp 40 +
STACK CFI 777ea .ra: .cfa -4 + ^ r4: .cfa -16 + ^ r5: .cfa -12 + ^ r6: .cfa -8 + ^
STACK CFI INIT 7780c 2c .cfa: sp 0 + .ra: lr
STACK CFI 7780e .cfa: sp 20 +
STACK CFI 77810 .cfa: sp 48 +
STACK CFI 77812 .ra: .cfa -4 + ^ r4: .cfa -20 + ^ r5: .cfa -16 + ^ r6: .cfa -12 + ^ r7: .cfa -8 + ^
STACK CFI INIT 77838 2c .cfa: sp 0 + .ra: lr
STACK CFI 7783a .cfa: sp 20 +
STACK CFI 7783c .cfa: sp 48 +
STACK CFI 7783e .ra: .cfa -4 + ^ r4: .cfa -20 + ^ r5: .cfa -16 + ^ r6: .cfa -12 + ^ r7: .cfa -8 + ^
STACK CFI INIT 77864 2c .cfa: sp 0 + .ra: lr
STACK CFI 77866 .cfa: sp 16 +
STACK CFI 77868 .cfa: sp 40 +
STACK CFI 7786a .ra: .cfa -4 + ^ r4: .cfa -16 + ^ r5: .cfa -12 + ^ r6: .cfa -8 + ^
STACK CFI INIT 77890 2c .cfa: sp 0 + .ra: lr
STACK CFI 77892 .cfa: sp 16 +
STACK CFI 77894 .cfa: sp 40 +
STACK CFI 77896 .ra: .cfa -4 + ^ r4: .cfa -16 + ^ r5: .cfa -12 + ^ r6: .cfa -8 + ^
STACK CFI INIT 778bc 28 .cfa: sp 0 + .ra: lr
STACK CFI 778be .cfa: sp 16 +
STACK CFI 778c0 .cfa: sp 40 +
STACK CFI 778c2 .ra: .cfa -4 + ^ r4: .cfa -16 + ^ r5: .cfa -12 + ^ r6: .cfa -8 + ^
STACK CFI INIT 778e4 44 .cfa: sp 0 + .ra: lr
STACK CFI 778e6 .cfa: sp 16 +
STACK CFI 778ea .ra: .cfa -4 + ^ r3: .cfa -16 + ^ r4: .cfa -12 + ^ r5: .cfa -8 + ^
STACK CFI INIT 77928 44 .cfa: sp 0 + .ra: lr
STACK CFI 7792a .cfa: sp 16 +
STACK CFI 7792c .ra: .cfa -4 + ^ r3: .cfa -16 + ^ r4: .cfa -12 + ^ r5: .cfa -8 + ^
STACK CFI INIT 7796c d0 .cfa: sp 0 + .ra: lr
STACK CFI 77970 .cfa: sp 32 +
STACK CFI 77972 .ra: .cfa -4 + ^ r10: .cfa -8 + ^ r4: .cfa -32 + ^ r5: .cfa -28 + ^ r6: .cfa -24 + ^ r7: .cfa -20 + ^ r8: .cfa -16 + ^ r9: .cfa -12 + ^
STACK CFI INIT 77a3c c .cfa: sp 0 + .ra: lr
STACK CFI INIT 77a48 c .cfa: sp 0 + .ra: lr
STACK CFI INIT 77a54 c .cfa: sp 0 + .ra: lr
STACK CFI INIT 77a60 2 .cfa: sp 0 + .ra: lr
STACK CFI INIT 77a64 c .cfa: sp 0 + .ra: lr
STACK CFI INIT 77a70 20 .cfa: sp 0 + .ra: lr
STACK CFI INIT 77a90 20 .cfa: sp 0 + .ra: lr
STACK CFI INIT 77ab0 3e .cfa: sp 0 + .ra: lr
STACK CFI INIT 77af0 4c .cfa: sp 0 + .ra: lr
STACK CFI INIT 77b3c a8 .cfa: sp 0 + .ra: lr
STACK CFI 77b3e .cfa: sp 4 +
STACK CFI 77b40 r4: .cfa -4 + ^
STACK CFI INIT 77be4 20 .cfa: sp 0 + .ra: lr
STACK CFI INIT 77c04 36 .cfa: sp 0 + .ra: lr
STACK CFI 77c06 .cfa: sp 20 +
STACK CFI 77c08 .cfa: sp 56 +
STACK CFI 77c0a .ra: .cfa -4 + ^ r4: .cfa -20 + ^ r5: .cfa -16 + ^ r6: .cfa -12 + ^ r7: .cfa -8 + ^
STACK CFI INIT 77c3c 20 .cfa: sp 0 + .ra: lr
STACK CFI INIT 77c5c 20 .cfa: sp 0 + .ra: lr
STACK CFI INIT 77c7c a .cfa: sp 0 + .ra: lr
STACK CFI 77c80 .cfa: sp 8 +
STACK CFI 77c82 .ra: .cfa -4 + ^ r3: .cfa -8 + ^
STACK CFI INIT 77c88 3a .cfa: sp 0 + .ra: lr
STACK CFI 77c8a .cfa: sp 20 +
STACK CFI 77c8c .cfa: sp 56 +
STACK CFI 77c8e .ra: .cfa -4 + ^ r4: .cfa -20 + ^ r5: .cfa -16 + ^ r6: .cfa -12 + ^ r7: .cfa -8 + ^
STACK CFI INIT 77cc4 3a .cfa: sp 0 + .ra: lr
STACK CFI 77cc6 .cfa: sp 20 +
STACK CFI 77cc8 .cfa: sp 56 +
STACK CFI 77cca .ra: .cfa -4 + ^ r4: .cfa -20 + ^ r5: .cfa -16 + ^ r6: .cfa -12 + ^ r7: .cfa -8 + ^
STACK CFI INIT 77d00 3a .cfa: sp 0 + .ra: lr
STACK CFI 77d02 .cfa: sp 20 +
STACK CFI 77d04 .cfa: sp 56 +
STACK CFI 77d06 .ra: .cfa -4 + ^ r4: .cfa -20 + ^ r5: .cfa -16 + ^ r6: .cfa -12 + ^ r7: .cfa -8 + ^
STACK CFI INIT 77d3c 3a .cfa: sp 0 + .ra: lr
STACK CFI 77d3e .cfa: sp 20 +
STACK CFI 77d40 .cfa: sp 56 +
STACK CFI 77d42 .ra: .cfa -4 + ^ r4: .cfa -20 + ^ r5: .cfa -16 + ^ r6: .cfa -12 + ^ r7: .cfa -8 + ^
STACK CFI INIT 77d78 3a .cfa: sp 0 + .ra: lr
STACK CFI 77d7a .cfa: sp 20 +
STACK CFI 77d7c .cfa: sp 56 +
STACK CFI 77d7e .ra: .cfa -4 + ^ r4: .cfa -20 + ^ r5: .cfa -16 + ^ r6: .cfa -12 + ^ r7: .cfa -8 + ^
STACK CFI INIT 77db4 20 .cfa: sp 0 + .ra: lr
STACK CFI INIT 77dd4 3c .cfa: sp 0 + .ra: lr
STACK CFI 77de2 .cfa: sp 8 +
STACK CFI 77de4 .ra: .cfa -4 + ^ r4: .cfa -8 + ^
STACK CFI INIT 77e10 b4 .cfa: sp 0 + .ra: lr
STACK CFI 77e14 .cfa: sp 24 +
STACK CFI 77e16 .ra: .cfa -4 + ^ r4: .cfa -24 + ^ r5: .cfa -20 + ^ r6: .cfa -16 + ^ r7: .cfa -12 + ^ r8: .cfa -8 + ^
STACK CFI 77e26 .cfa: sp 32 +
STACK CFI INIT 77ec4 a .cfa: sp 0 + .ra: lr
STACK CFI 77ec6 .cfa: sp 8 +
STACK CFI 77ec8 .ra: .cfa -4 + ^ r3: .cfa -8 + ^
STACK CFI INIT 77ed0 1e .cfa: sp 0 + .ra: lr
STACK CFI 77ed2 .cfa: sp 16 +
STACK CFI 77ed4 .ra: .cfa -4 + ^ r4: .cfa -16 + ^ r5: .cfa -12 + ^ r6: .cfa -8 + ^
STACK CFI INIT 77ef0 1a .cfa: sp 0 + .ra: lr
STACK CFI 77ef2 .cfa: sp 16 +
STACK CFI 77ef4 .cfa: sp 24 +
STACK CFI 77ef6 .ra: .cfa -4 + ^ r4: .cfa -16 + ^ r5: .cfa -12 + ^ r6: .cfa -8 + ^
STACK CFI INIT 77f0c a .cfa: sp 0 + .ra: lr
STACK CFI 77f10 .cfa: sp 8 +
STACK CFI 77f12 .ra: .cfa -4 + ^ r3: .cfa -8 + ^
STACK CFI INIT 77f18 4 .cfa: sp 0 + .ra: lr
STACK CFI INIT 77f1c 18 .cfa: sp 0 + .ra: lr
STACK CFI INIT 77f34 e4 .cfa: sp 0 + .ra: lr
STACK CFI 77f38 .cfa: sp 24 +
STACK CFI 77f3a .ra: .cfa -4 + ^ r4: .cfa -24 + ^ r5: .cfa -20 + ^ r6: .cfa -16 + ^ r7: .cfa -12 + ^ r8: .cfa -8 + ^
STACK CFI INIT 78018 68 .cfa: sp 0 + .ra: lr
STACK CFI 7801a .cfa: sp 16 +
STACK CFI 7801c .ra: .cfa -4 + ^ r4: .cfa -16 + ^ r5: .cfa -12 + ^ r6: .cfa -8 + ^
STACK CFI INIT 78080 34 .cfa: sp 0 + .ra: lr
STACK CFI 7808e .cfa: sp 8 +
STACK CFI 78090 .ra: .cfa -4 + ^ r4: .cfa -8 + ^
STACK CFI INIT 780b4 34 .cfa: sp 0 + .ra: lr
STACK CFI 780b6 .cfa: sp 8 +
STACK CFI 780b8 .ra: .cfa -4 + ^ r4: .cfa -8 + ^
STACK CFI 780c2 .cfa: sp 16 +
STACK CFI INIT 780e8 12 .cfa: sp 0 + .ra: lr
STACK CFI 780ea .cfa: sp 12 +
STACK CFI 780ec .cfa: sp 24 +
STACK CFI 780ee .ra: .cfa -4 + ^ r4: .cfa -12 + ^ r5: .cfa -8 + ^
STACK CFI INIT 780fc e .cfa: sp 0 + .ra: lr
STACK CFI 780fe .cfa: sp 16 +
STACK CFI 78100 .ra: .cfa -4 + ^ r3: .cfa -16 + ^ r4: .cfa -12 + ^ r5: .cfa -8 + ^
STACK CFI INIT 7810c a .cfa: sp 0 + .ra: lr
STACK CFI 7810e .cfa: sp 8 +
STACK CFI 78110 .ra: .cfa -4 + ^ r3: .cfa -8 + ^
STACK CFI INIT 78118 84 .cfa: sp 0 + .ra: lr
STACK CFI 7811a .cfa: sp 16 +
STACK CFI 7811e .ra: .cfa -4 + ^ r4: .cfa -16 + ^ r5: .cfa -12 + ^ r6: .cfa -8 + ^
STACK CFI INIT 7819c 50 .cfa: sp 0 + .ra: lr
STACK CFI 7819e .cfa: sp 16 +
STACK CFI 781a0 .ra: .cfa -4 + ^ r3: .cfa -16 + ^ r4: .cfa -12 + ^ r5: .cfa -8 + ^
STACK CFI INIT 781ec 104 .cfa: sp 0 + .ra: lr
STACK CFI 781f0 .cfa: sp 36 +
STACK CFI 781f2 .cfa: sp 88 +
STACK CFI 781f6 .ra: .cfa -4 + ^ r10: .cfa -12 + ^ r11: .cfa -8 + ^ r4: .cfa -36 + ^ r5: .cfa -32 + ^ r6: .cfa -28 + ^ r7: .cfa -24 + ^ r8: .cfa -20 + ^ r9: .cfa -16 + ^
STACK CFI INIT 782f0 50 .cfa: sp 0 + .ra: lr
STACK CFI 782f2 .cfa: sp 16 +
STACK CFI 782f4 .ra: .cfa -4 + ^ r3: .cfa -16 + ^ r4: .cfa -12 + ^ r5: .cfa -8 + ^
STACK CFI INIT 78340 50 .cfa: sp 0 + .ra: lr
STACK CFI 78342 .cfa: sp 16 +
STACK CFI 78344 .ra: .cfa -4 + ^ r3: .cfa -16 + ^ r4: .cfa -12 + ^ r5: .cfa -8 + ^
STACK CFI INIT 78390 50 .cfa: sp 0 + .ra: lr
STACK CFI 78392 .cfa: sp 16 +
STACK CFI 78394 .ra: .cfa -4 + ^ r3: .cfa -16 + ^ r4: .cfa -12 + ^ r5: .cfa -8 + ^
STACK CFI INIT 783e0 3cc .cfa: sp 0 + .ra: lr
STACK CFI 783e4 .cfa: sp 36 +
STACK CFI 783e6 .ra: .cfa -4 + ^ r10: .cfa -12 + ^ r11: .cfa -8 + ^ r4: .cfa -36 + ^ r5: .cfa -32 + ^ r6: .cfa -28 + ^ r7: .cfa -24 + ^ r8: .cfa -20 + ^ r9: .cfa -16 + ^
STACK CFI 783e8 .cfa: sp 88 +
STACK CFI INIT 787ac 50 .cfa: sp 0 + .ra: lr
STACK CFI 787ae .cfa: sp 16 +
STACK CFI 787b0 .ra: .cfa -4 + ^ r3: .cfa -16 + ^ r4: .cfa -12 + ^ r5: .cfa -8 + ^
STACK CFI INIT 787fc 50 .cfa: sp 0 + .ra: lr
STACK CFI 787fe .cfa: sp 16 +
STACK CFI 78800 .ra: .cfa -4 + ^ r3: .cfa -16 + ^ r4: .cfa -12 + ^ r5: .cfa -8 + ^
STACK CFI INIT 7884c 50 .cfa: sp 0 + .ra: lr
STACK CFI 7884e .cfa: sp 16 +
STACK CFI 78850 .ra: .cfa -4 + ^ r3: .cfa -16 + ^ r4: .cfa -12 + ^ r5: .cfa -8 + ^
STACK CFI INIT 7889c 50c .cfa: sp 0 + .ra: lr
STACK CFI 788a0 .cfa: sp 36 +
STACK CFI 788a2 .ra: .cfa -4 + ^ r10: .cfa -12 + ^ r11: .cfa -8 + ^ r4: .cfa -36 + ^ r5: .cfa -32 + ^ r6: .cfa -28 + ^ r7: .cfa -24 + ^ r8: .cfa -20 + ^ r9: .cfa -16 + ^
STACK CFI 788a4 .cfa: sp 136 +
STACK CFI INIT 78da8 50 .cfa: sp 0 + .ra: lr
STACK CFI 78daa .cfa: sp 16 +
STACK CFI 78dac .ra: .cfa -4 + ^ r3: .cfa -16 + ^ r4: .cfa -12 + ^ r5: .cfa -8 + ^
STACK CFI INIT 78df8 50c .cfa: sp 0 + .ra: lr
STACK CFI 78dfc .cfa: sp 36 +
STACK CFI 78dfe .ra: .cfa -4 + ^ r10: .cfa -12 + ^ r11: .cfa -8 + ^ r4: .cfa -36 + ^ r5: .cfa -32 + ^ r6: .cfa -28 + ^ r7: .cfa -24 + ^ r8: .cfa -20 + ^ r9: .cfa -16 + ^
STACK CFI 78e00 .cfa: sp 136 +
STACK CFI INIT 79304 50 .cfa: sp 0 + .ra: lr
STACK CFI 79306 .cfa: sp 16 +
STACK CFI 79308 .ra: .cfa -4 + ^ r3: .cfa -16 + ^ r4: .cfa -12 + ^ r5: .cfa -8 + ^
STACK CFI INIT 79354 50 .cfa: sp 0 + .ra: lr
STACK CFI 79356 .cfa: sp 16 +
STACK CFI 79358 .ra: .cfa -4 + ^ r3: .cfa -16 + ^ r4: .cfa -12 + ^ r5: .cfa -8 + ^
STACK CFI INIT 793a4 50 .cfa: sp 0 + .ra: lr
STACK CFI 793a6 .cfa: sp 16 +
STACK CFI 793a8 .ra: .cfa -4 + ^ r3: .cfa -16 + ^ r4: .cfa -12 + ^ r5: .cfa -8 + ^
STACK CFI INIT 793f4 9e .cfa: sp 0 + .ra: lr
STACK CFI 793f8 .cfa: sp 28 +
STACK CFI 793fc .cfa: sp 584 +
STACK CFI 793fe .ra: .cfa -4 + ^ r4: .cfa -28 + ^ r5: .cfa -24 + ^ r6: .cfa -20 + ^ r7: .cfa -16 + ^ r8: .cfa -12 + ^ r9: .cfa -8 + ^
STACK CFI INIT 79494 50 .cfa: sp 0 + .ra: lr
STACK CFI 79496 .cfa: sp 16 +
STACK CFI 79498 .ra: .cfa -4 + ^ r3: .cfa -16 + ^ r4: .cfa -12 + ^ r5: .cfa -8 + ^
STACK CFI INIT 794e4 50 .cfa: sp 0 + .ra: lr
STACK CFI 794e6 .cfa: sp 16 +
STACK CFI 794e8 .ra: .cfa -4 + ^ r3: .cfa -16 + ^ r4: .cfa -12 + ^ r5: .cfa -8 + ^
STACK CFI INIT 79534 50 .cfa: sp 0 + .ra: lr
STACK CFI 79536 .cfa: sp 16 +
STACK CFI 79538 .ra: .cfa -4 + ^ r3: .cfa -16 + ^ r4: .cfa -12 + ^ r5: .cfa -8 + ^
STACK CFI INIT 79584 50 .cfa: sp 0 + .ra: lr
STACK CFI 79586 .cfa: sp 16 +
STACK CFI 79588 .ra: .cfa -4 + ^ r3: .cfa -16 + ^ r4: .cfa -12 + ^ r5: .cfa -8 + ^
STACK CFI INIT 795d4 50 .cfa: sp 0 + .ra: lr
STACK CFI 795d6 .cfa: sp 16 +
STACK CFI 795d8 .ra: .cfa -4 + ^ r3: .cfa -16 + ^ r4: .cfa -12 + ^ r5: .cfa -8 + ^
STACK CFI INIT 79624 50 .cfa: sp 0 + .ra: lr
STACK CFI 79626 .cfa: sp 16 +
STACK CFI 79628 .ra: .cfa -4 + ^ r3: .cfa -16 + ^ r4: .cfa -12 + ^ r5: .cfa -8 + ^
STACK CFI INIT 79674 50 .cfa: sp 0 + .ra: lr
STACK CFI 79676 .cfa: sp 16 +
STACK CFI 79678 .ra: .cfa -4 + ^ r3: .cfa -16 + ^ r4: .cfa -12 + ^ r5: .cfa -8 + ^
STACK CFI INIT 796c4 50 .cfa: sp 0 + .ra: lr
STACK CFI 796c6 .cfa: sp 16 +
STACK CFI 796c8 .ra: .cfa -4 + ^ r3: .cfa -16 + ^ r4: .cfa -12 + ^ r5: .cfa -8 + ^
STACK CFI INIT 79714 50 .cfa: sp 0 + .ra: lr
STACK CFI 79716 .cfa: sp 16 +
STACK CFI 79718 .ra: .cfa -4 + ^ r3: .cfa -16 + ^ r4: .cfa -12 + ^ r5: .cfa -8 + ^
STACK CFI INIT 79764 50 .cfa: sp 0 + .ra: lr
STACK CFI 79766 .cfa: sp 16 +
STACK CFI 79768 .ra: .cfa -4 + ^ r3: .cfa -16 + ^ r4: .cfa -12 + ^ r5: .cfa -8 + ^
STACK CFI INIT 797b4 50 .cfa: sp 0 + .ra: lr
STACK CFI 797b6 .cfa: sp 16 +
STACK CFI 797b8 .ra: .cfa -4 + ^ r3: .cfa -16 + ^ r4: .cfa -12 + ^ r5: .cfa -8 + ^
STACK CFI INIT 79804 50 .cfa: sp 0 + .ra: lr
STACK CFI 79806 .cfa: sp 16 +
STACK CFI 79808 .ra: .cfa -4 + ^ r3: .cfa -16 + ^ r4: .cfa -12 + ^ r5: .cfa -8 + ^
STACK CFI INIT 79854 50 .cfa: sp 0 + .ra: lr
STACK CFI 79856 .cfa: sp 16 +
STACK CFI 79858 .ra: .cfa -4 + ^ r3: .cfa -16 + ^ r4: .cfa -12 + ^ r5: .cfa -8 + ^
STACK CFI INIT 798a4 50 .cfa: sp 0 + .ra: lr
STACK CFI 798a6 .cfa: sp 16 +
STACK CFI 798a8 .ra: .cfa -4 + ^ r3: .cfa -16 + ^ r4: .cfa -12 + ^ r5: .cfa -8 + ^
STACK CFI INIT 798f4 50 .cfa: sp 0 + .ra: lr
STACK CFI 798f6 .cfa: sp 16 +
STACK CFI 798f8 .ra: .cfa -4 + ^ r3: .cfa -16 + ^ r4: .cfa -12 + ^ r5: .cfa -8 + ^
STACK CFI INIT 79944 50 .cfa: sp 0 + .ra: lr
STACK CFI 79946 .cfa: sp 16 +
STACK CFI 79948 .ra: .cfa -4 + ^ r3: .cfa -16 + ^ r4: .cfa -12 + ^ r5: .cfa -8 + ^
STACK CFI INIT 79994 1a8 .cfa: sp 0 + .ra: lr
STACK CFI 79998 .cfa: sp 32 +
STACK CFI 7999a .cfa: sp 40 +
STACK CFI 7999c r10: .cfa -8 + ^ r11: .cfa -4 + ^ r4: .cfa -32 + ^ r5: .cfa -28 + ^ r6: .cfa -24 + ^ r7: .cfa -20 + ^ r8: .cfa -16 + ^ r9: .cfa -12 + ^
STACK CFI INIT 79b3c 2e .cfa: sp 0 + .ra: lr
STACK CFI 79b3e .cfa: sp 20 +
STACK CFI 79b40 .cfa: sp 32 +
STACK CFI 79b44 .ra: .cfa -4 + ^ r4: .cfa -20 + ^ r5: .cfa -16 + ^ r6: .cfa -12 + ^ r7: .cfa -8 + ^
STACK CFI INIT 79b6c 6e .cfa: sp 0 + .ra: lr
STACK CFI 79b70 .cfa: sp 24 +
STACK CFI 79b72 .cfa: sp 32 +
STACK CFI 79b74 .ra: .cfa -4 + ^ r4: .cfa -24 + ^ r5: .cfa -20 + ^ r6: .cfa -16 + ^ r7: .cfa -12 + ^ r8: .cfa -8 + ^
STACK CFI INIT 79bdc 804 .cfa: sp 0 + .ra: lr
STACK CFI 79be0 .cfa: sp 36 +
STACK CFI 79be2 .cfa: sp 128 +
STACK CFI 79be8 .ra: .cfa -4 + ^ r10: .cfa -12 + ^ r11: .cfa -8 + ^ r4: .cfa -36 + ^ r5: .cfa -32 + ^ r6: .cfa -28 + ^ r7: .cfa -24 + ^ r8: .cfa -20 + ^ r9: .cfa -16 + ^
STACK CFI INIT 7a3e0 804 .cfa: sp 0 + .ra: lr
STACK CFI 7a3e4 .cfa: sp 36 +
STACK CFI 7a3e6 .cfa: sp 128 +
STACK CFI 7a3ec .ra: .cfa -4 + ^ r10: .cfa -12 + ^ r11: .cfa -8 + ^ r4: .cfa -36 + ^ r5: .cfa -32 + ^ r6: .cfa -28 + ^ r7: .cfa -24 + ^ r8: .cfa -20 + ^ r9: .cfa -16 + ^
STACK CFI INIT 7abe4 46 .cfa: sp 0 + .ra: lr
STACK CFI 7abe6 .cfa: sp 20 +
STACK CFI 7abe8 .cfa: sp 48 +
STACK CFI 7abea .ra: .cfa -4 + ^ r4: .cfa -20 + ^ r5: .cfa -16 + ^ r6: .cfa -12 + ^ r7: .cfa -8 + ^
STACK CFI INIT 7ac2c 1a0 .cfa: sp 0 + .ra: lr
STACK CFI 7ac30 .cfa: sp 36 +
STACK CFI 7ac32 .cfa: sp 104 +
STACK CFI 7ac34 .cfa: r7 88 + .ra: .cfa -4 + ^ r10: .cfa -12 + ^ r11: .cfa -8 + ^ r4: .cfa -36 + ^ r5: .cfa -32 + ^ r6: .cfa -28 + ^ r7: .cfa -24 + ^ r8: .cfa -20 + ^ r9: .cfa -16 + ^
STACK CFI INIT 7adcc f2 .cfa: sp 0 + .ra: lr
STACK CFI 7add0 .cfa: sp 32 +
STACK CFI 7add2 .ra: .cfa -4 + ^ r10: .cfa -8 + ^ r4: .cfa -32 + ^ r5: .cfa -28 + ^ r6: .cfa -24 + ^ r7: .cfa -20 + ^ r8: .cfa -16 + ^ r9: .cfa -12 + ^
STACK CFI INIT 7aec0 1e .cfa: sp 0 + .ra: lr
STACK CFI 7aec2 .cfa: sp 16 +
STACK CFI 7aec4 .cfa: sp 24 +
STACK CFI 7aec6 .ra: .cfa -4 + ^ r4: .cfa -16 + ^ r5: .cfa -12 + ^ r6: .cfa -8 + ^
STACK CFI INIT 7aee0 86 .cfa: sp 0 + .ra: lr
STACK CFI 7aee2 .cfa: sp 16 +
STACK CFI 7aee6 r4: .cfa -16 + ^ r5: .cfa -12 + ^ r6: .cfa -8 + ^ r7: .cfa -4 + ^
STACK CFI INIT 7af68 c8 .cfa: sp 0 + .ra: lr
STACK CFI 7af6c .cfa: sp 36 +
STACK CFI 7af6e .cfa: sp 56 +
STACK CFI 7af70 .ra: .cfa -4 + ^ r10: .cfa -12 + ^ r11: .cfa -8 + ^ r4: .cfa -36 + ^ r5: .cfa -32 + ^ r6: .cfa -28 + ^ r7: .cfa -24 + ^ r8: .cfa -20 + ^ r9: .cfa -16 + ^
STACK CFI INIT 7b030 9c .cfa: sp 0 + .ra: lr
STACK CFI 7b034 .cfa: sp 24 +
STACK CFI 7b036 .ra: .cfa -4 + ^ r4: .cfa -24 + ^ r5: .cfa -20 + ^ r6: .cfa -16 + ^ r7: .cfa -12 + ^ r8: .cfa -8 + ^
STACK CFI INIT 7b0cc 224 .cfa: sp 0 + .ra: lr
STACK CFI 7b0d0 .cfa: sp 36 +
STACK CFI 7b0d2 .cfa: sp 128 +
STACK CFI 7b0d4 .cfa: r7 112 + .ra: .cfa -4 + ^ r10: .cfa -12 + ^ r11: .cfa -8 + ^ r4: .cfa -36 + ^ r5: .cfa -32 + ^ r6: .cfa -28 + ^ r7: .cfa -24 + ^ r8: .cfa -20 + ^ r9: .cfa -16 + ^
STACK CFI INIT 7b2f0 30 .cfa: sp 0 + .ra: lr
STACK CFI 7b2f2 .cfa: sp 16 +
STACK CFI 7b2f4 .cfa: sp 48 +
STACK CFI 7b2fa .ra: .cfa -4 + ^ r4: .cfa -16 + ^ r5: .cfa -12 + ^ r6: .cfa -8 + ^
STACK CFI INIT 7b320 224 .cfa: sp 0 + .ra: lr
STACK CFI 7b324 .cfa: sp 36 +
STACK CFI 7b326 .cfa: sp 128 +
STACK CFI 7b328 .cfa: r7 112 + .ra: .cfa -4 + ^ r10: .cfa -12 + ^ r11: .cfa -8 + ^ r4: .cfa -36 + ^ r5: .cfa -32 + ^ r6: .cfa -28 + ^ r7: .cfa -24 + ^ r8: .cfa -20 + ^ r9: .cfa -16 + ^
STACK CFI INIT 7b544 30 .cfa: sp 0 + .ra: lr
STACK CFI 7b546 .cfa: sp 16 +
STACK CFI 7b548 .cfa: sp 48 +
STACK CFI 7b54e .ra: .cfa -4 + ^ r4: .cfa -16 + ^ r5: .cfa -12 + ^ r6: .cfa -8 + ^
STACK CFI INIT 7b574 178 .cfa: sp 0 + .ra: lr
STACK CFI 7b578 .cfa: sp 36 +
STACK CFI 7b57a .cfa: sp 96 +
STACK CFI 7b57c .cfa: r7 80 + .ra: .cfa -4 + ^ r10: .cfa -12 + ^ r11: .cfa -8 + ^ r4: .cfa -36 + ^ r5: .cfa -32 + ^ r6: .cfa -28 + ^ r7: .cfa -24 + ^ r8: .cfa -20 + ^ r9: .cfa -16 + ^
STACK CFI INIT 7b6ec 2a .cfa: sp 0 + .ra: lr
STACK CFI 7b6ee .cfa: sp 12 +
STACK CFI 7b6f0 .cfa: sp 40 +
STACK CFI 7b6f2 .ra: .cfa -4 + ^ r4: .cfa -12 + ^ r5: .cfa -8 + ^
STACK CFI INIT 7b718 1cc .cfa: sp 0 + .ra: lr
STACK CFI 7b71c .cfa: sp 36 +
STACK CFI 7b71e .cfa: sp 96 +
STACK CFI 7b720 .cfa: r7 80 + .ra: .cfa -4 + ^ r10: .cfa -12 + ^ r11: .cfa -8 + ^ r4: .cfa -36 + ^ r5: .cfa -32 + ^ r6: .cfa -28 + ^ r7: .cfa -24 + ^ r8: .cfa -20 + ^ r9: .cfa -16 + ^
STACK CFI INIT 7b8e4 2a .cfa: sp 0 + .ra: lr
STACK CFI 7b8e6 .cfa: sp 12 +
STACK CFI 7b8e8 .cfa: sp 40 +
STACK CFI 7b8ea .ra: .cfa -4 + ^ r4: .cfa -12 + ^ r5: .cfa -8 + ^
STACK CFI INIT 7b910 176 .cfa: sp 0 + .ra: lr
STACK CFI 7b914 .cfa: sp 36 +
STACK CFI 7b916 .cfa: sp 96 +
STACK CFI 7b918 .cfa: r7 80 + .ra: .cfa -4 + ^ r10: .cfa -12 + ^ r11: .cfa -8 + ^ r4: .cfa -36 + ^ r5: .cfa -32 + ^ r6: .cfa -28 + ^ r7: .cfa -24 + ^ r8: .cfa -20 + ^ r9: .cfa -16 + ^
STACK CFI INIT 7ba88 5c .cfa: sp 0 + .ra: lr
STACK CFI 7ba8c .cfa: sp 24 +
STACK CFI 7ba8e .cfa: sp 56 +
STACK CFI 7ba90 .ra: .cfa -4 + ^ r4: .cfa -24 + ^ r5: .cfa -20 + ^ r6: .cfa -16 + ^ r7: .cfa -12 + ^ r8: .cfa -8 + ^
STACK CFI INIT 7bae4 28 .cfa: sp 0 + .ra: lr
STACK CFI 7bae6 .cfa: sp 12 +
STACK CFI 7bae8 .cfa: sp 40 +
STACK CFI 7baee .ra: .cfa -4 + ^ r4: .cfa -12 + ^ r5: .cfa -8 + ^
STACK CFI INIT 7bb0c 1b0 .cfa: sp 0 + .ra: lr
STACK CFI 7bb10 .cfa: sp 36 +
STACK CFI 7bb12 .cfa: sp 96 +
STACK CFI 7bb14 .cfa: r7 80 + .ra: .cfa -4 + ^ r10: .cfa -12 + ^ r11: .cfa -8 + ^ r4: .cfa -36 + ^ r5: .cfa -32 + ^ r6: .cfa -28 + ^ r7: .cfa -24 + ^ r8: .cfa -20 + ^ r9: .cfa -16 + ^
STACK CFI INIT 7bcbc 28 .cfa: sp 0 + .ra: lr
STACK CFI 7bcbe .cfa: sp 12 +
STACK CFI 7bcc0 .cfa: sp 40 +
STACK CFI 7bcc6 .ra: .cfa -4 + ^ r4: .cfa -12 + ^ r5: .cfa -8 + ^
STACK CFI INIT 7bce4 220 .cfa: sp 0 + .ra: lr
STACK CFI 7bce8 .cfa: sp 36 +
STACK CFI 7bcea .cfa: sp 136 +
STACK CFI 7bcec .cfa: r7 120 + .ra: .cfa -4 + ^ r10: .cfa -12 + ^ r11: .cfa -8 + ^ r4: .cfa -36 + ^ r5: .cfa -32 + ^ r6: .cfa -28 + ^ r7: .cfa -24 + ^ r8: .cfa -20 + ^ r9: .cfa -16 + ^
STACK CFI INIT 7bf04 3e .cfa: sp 0 + .ra: lr
STACK CFI 7bf08 .cfa: sp 8 +
STACK CFI 7bf0a .ra: .cfa -4 + ^ r4: .cfa -8 + ^
STACK CFI INIT 7bf44 126 .cfa: sp 0 + .ra: lr
STACK CFI 7bf48 .cfa: sp 36 +
STACK CFI 7bf4a .cfa: sp 64 +
STACK CFI 7bf4c .ra: .cfa -4 + ^ r10: .cfa -12 + ^ r11: .cfa -8 + ^ r4: .cfa -36 + ^ r5: .cfa -32 + ^ r6: .cfa -28 + ^ r7: .cfa -24 + ^ r8: .cfa -20 + ^ r9: .cfa -16 + ^
STACK CFI INIT 7c06c ce .cfa: sp 0 + .ra: lr
STACK CFI 7c070 .cfa: sp 28 +
STACK CFI 7c072 .cfa: sp 88 +
STACK CFI 7c074 .ra: .cfa -4 + ^ r4: .cfa -28 + ^ r5: .cfa -24 + ^ r6: .cfa -20 + ^ r7: .cfa -16 + ^ r8: .cfa -12 + ^ r9: .cfa -8 + ^
STACK CFI INIT 7c13c af4 .cfa: sp 0 + .ra: lr
STACK CFI 7c140 .cfa: sp 36 +
STACK CFI 7c142 .cfa: sp 144 +
STACK CFI 7c148 .ra: .cfa -4 + ^ r10: .cfa -12 + ^ r11: .cfa -8 + ^ r4: .cfa -36 + ^ r5: .cfa -32 + ^ r6: .cfa -28 + ^ r7: .cfa -24 + ^ r8: .cfa -20 + ^ r9: .cfa -16 + ^
STACK CFI INIT 7cc30 af0 .cfa: sp 0 + .ra: lr
STACK CFI 7cc34 .cfa: sp 36 +
STACK CFI 7cc36 .cfa: sp 144 +
STACK CFI 7cc3c .ra: .cfa -4 + ^ r10: .cfa -12 + ^ r11: .cfa -8 + ^ r4: .cfa -36 + ^ r5: .cfa -32 + ^ r6: .cfa -28 + ^ r7: .cfa -24 + ^ r8: .cfa -20 + ^ r9: .cfa -16 + ^
STACK CFI INIT 7d720 13c .cfa: sp 0 + .ra: lr
STACK CFI 7d724 .cfa: sp 36 +
STACK CFI 7d726 .cfa: sp 88 +
STACK CFI 7d728 .ra: .cfa -4 + ^ r10: .cfa -12 + ^ r11: .cfa -8 + ^ r4: .cfa -36 + ^ r5: .cfa -32 + ^ r6: .cfa -28 + ^ r7: .cfa -24 + ^ r8: .cfa -20 + ^ r9: .cfa -16 + ^
STACK CFI INIT 7d85c 10c .cfa: sp 0 + .ra: lr
STACK CFI 7d860 .cfa: sp 32 +
STACK CFI 7d862 .ra: .cfa -4 + ^ r10: .cfa -8 + ^ r4: .cfa -32 + ^ r5: .cfa -28 + ^ r6: .cfa -24 + ^ r7: .cfa -20 + ^ r8: .cfa -16 + ^ r9: .cfa -12 + ^
STACK CFI 7d866 .cfa: sp 80 +
STACK CFI INIT 7d968 326 .cfa: sp 0 + .ra: lr
STACK CFI 7d96c .cfa: sp 36 +
STACK CFI 7d96e .cfa: sp 72 +
STACK CFI 7d970 .cfa: r7 72 + .ra: .cfa -4 + ^ r10: .cfa -12 + ^ r11: .cfa -8 + ^ r4: .cfa -36 + ^ r5: .cfa -32 + ^ r6: .cfa -28 + ^ r7: .cfa -24 + ^ r8: .cfa -20 + ^ r9: .cfa -16 + ^
STACK CFI INIT 7dc90 15e .cfa: sp 0 + .ra: lr
STACK CFI 7dc94 .cfa: sp 36 +
STACK CFI 7dc96 .cfa: sp 200 +
STACK CFI 7dc98 .ra: .cfa -4 + ^ r10: .cfa -12 + ^ r11: .cfa -8 + ^ r4: .cfa -36 + ^ r5: .cfa -32 + ^ r6: .cfa -28 + ^ r7: .cfa -24 + ^ r8: .cfa -20 + ^ r9: .cfa -16 + ^
STACK CFI INIT 7ddf0 110 .cfa: sp 0 + .ra: lr
STACK CFI 7ddf4 .cfa: sp 36 +
STACK CFI 7ddf6 .cfa: sp 152 +
STACK CFI 7ddf8 .ra: .cfa -4 + ^ r10: .cfa -12 + ^ r11: .cfa -8 + ^ r4: .cfa -36 + ^ r5: .cfa -32 + ^ r6: .cfa -28 + ^ r7: .cfa -24 + ^ r8: .cfa -20 + ^ r9: .cfa -16 + ^
STACK CFI INIT 7df00 346 .cfa: sp 0 + .ra: lr
STACK CFI 7df04 .cfa: sp 36 +
STACK CFI 7df06 .cfa: sp 72 +
STACK CFI 7df08 .cfa: r7 72 + .ra: .cfa -4 + ^ r10: .cfa -12 + ^ r11: .cfa -8 + ^ r4: .cfa -36 + ^ r5: .cfa -32 + ^ r6: .cfa -28 + ^ r7: .cfa -24 + ^ r8: .cfa -20 + ^ r9: .cfa -16 + ^
STACK CFI INIT 7e248 92c .cfa: sp 0 + .ra: lr
STACK CFI 7e24c .cfa: sp 36 +
STACK CFI 7e24e .cfa: sp 336 +
STACK CFI 7e250 .ra: .cfa -4 + ^ r10: .cfa -12 + ^ r11: .cfa -8 + ^ r4: .cfa -36 + ^ r5: .cfa -32 + ^ r6: .cfa -28 + ^ r7: .cfa -24 + ^ r8: .cfa -20 + ^ r9: .cfa -16 + ^
STACK CFI INIT 7eb74 96 .cfa: sp 0 + .ra: lr
STACK CFI 7eb78 .cfa: sp 28 +
STACK CFI 7eb7a .cfa: sp 72 +
STACK CFI 7eb7c .ra: .cfa -4 + ^ r4: .cfa -28 + ^ r5: .cfa -24 + ^ r6: .cfa -20 + ^ r7: .cfa -16 + ^ r8: .cfa -12 + ^ r9: .cfa -8 + ^
STACK CFI INIT 7ec0c 96 .cfa: sp 0 + .ra: lr
STACK CFI 7ec10 .cfa: sp 28 +
STACK CFI 7ec12 .cfa: sp 72 +
STACK CFI 7ec14 .ra: .cfa -4 + ^ r4: .cfa -28 + ^ r5: .cfa -24 + ^ r6: .cfa -20 + ^ r7: .cfa -16 + ^ r8: .cfa -12 + ^ r9: .cfa -8 + ^
STACK CFI INIT 7eca4 990 .cfa: sp 0 + .ra: lr
STACK CFI 7eca8 .cfa: sp 36 +
STACK CFI 7ecaa .cfa: sp 96 +
STACK CFI 7ecae .ra: .cfa -4 + ^ r10: .cfa -12 + ^ r11: .cfa -8 + ^ r4: .cfa -36 + ^ r5: .cfa -32 + ^ r6: .cfa -28 + ^ r7: .cfa -24 + ^ r8: .cfa -20 + ^ r9: .cfa -16 + ^
STACK CFI INIT 7f634 11c .cfa: sp 0 + .ra: lr
STACK CFI 7f638 .cfa: sp 36 +
STACK CFI 7f63a .ra: .cfa -4 + ^ r10: .cfa -12 + ^ r11: .cfa -8 + ^ r4: .cfa -36 + ^ r5: .cfa -32 + ^ r6: .cfa -28 + ^ r7: .cfa -24 + ^ r8: .cfa -20 + ^ r9: .cfa -16 + ^
STACK CFI 7f63e .cfa: sp 96 +
STACK CFI INIT 7f750 118 .cfa: sp 0 + .ra: lr
STACK CFI 7f754 .cfa: sp 36 +
STACK CFI 7f756 .ra: .cfa -4 + ^ r10: .cfa -12 + ^ r11: .cfa -8 + ^ r4: .cfa -36 + ^ r5: .cfa -32 + ^ r6: .cfa -28 + ^ r7: .cfa -24 + ^ r8: .cfa -20 + ^ r9: .cfa -16 + ^
STACK CFI 7f75a .cfa: sp 96 +
STACK CFI INIT 7f868 11c .cfa: sp 0 + .ra: lr
STACK CFI 7f86c .cfa: sp 36 +
STACK CFI 7f86e .ra: .cfa -4 + ^ r10: .cfa -12 + ^ r11: .cfa -8 + ^ r4: .cfa -36 + ^ r5: .cfa -32 + ^ r6: .cfa -28 + ^ r7: .cfa -24 + ^ r8: .cfa -20 + ^ r9: .cfa -16 + ^
STACK CFI 7f872 .cfa: sp 96 +
STACK CFI INIT 7f984 698 .cfa: sp 0 + .ra: lr
STACK CFI 7f988 .cfa: sp 36 +
STACK CFI 7f98a .cfa: sp 152 +
STACK CFI 7f990 .ra: .cfa -4 + ^ r10: .cfa -12 + ^ r11: .cfa -8 + ^ r4: .cfa -36 + ^ r5: .cfa -32 + ^ r6: .cfa -28 + ^ r7: .cfa -24 + ^ r8: .cfa -20 + ^ r9: .cfa -16 + ^
STACK CFI INIT 8001c 38 .cfa: sp 0 + .ra: lr
STACK CFI 8001e .cfa: sp 20 +
STACK CFI 80020 .cfa: sp 56 +
STACK CFI 80022 .ra: .cfa -4 + ^ r4: .cfa -20 + ^ r5: .cfa -16 + ^ r6: .cfa -12 + ^ r7: .cfa -8 + ^
STACK CFI INIT 80054 6d0 .cfa: sp 0 + .ra: lr
STACK CFI 80058 .cfa: sp 36 +
STACK CFI 8005a .cfa: sp 160 +
STACK CFI 80060 .ra: .cfa -4 + ^ r10: .cfa -12 + ^ r11: .cfa -8 + ^ r4: .cfa -36 + ^ r5: .cfa -32 + ^ r6: .cfa -28 + ^ r7: .cfa -24 + ^ r8: .cfa -20 + ^ r9: .cfa -16 + ^
STACK CFI INIT 80724 38 .cfa: sp 0 + .ra: lr
STACK CFI 80726 .cfa: sp 20 +
STACK CFI 80728 .cfa: sp 56 +
STACK CFI 8072a .ra: .cfa -4 + ^ r4: .cfa -20 + ^ r5: .cfa -16 + ^ r6: .cfa -12 + ^ r7: .cfa -8 + ^
STACK CFI INIT 8075c 5e0 .cfa: sp 0 + .ra: lr
STACK CFI 80760 .cfa: sp 36 +
STACK CFI 80762 .cfa: sp 112 +
STACK CFI 80766 .ra: .cfa -4 + ^ r10: .cfa -12 + ^ r11: .cfa -8 + ^ r4: .cfa -36 + ^ r5: .cfa -32 + ^ r6: .cfa -28 + ^ r7: .cfa -24 + ^ r8: .cfa -20 + ^ r9: .cfa -16 + ^
STACK CFI INIT 80d3c 5c .cfa: sp 0 + .ra: lr
STACK CFI 80d3e .cfa: sp 20 +
STACK CFI 80d40 .cfa: sp 64 +
STACK CFI 80d42 .ra: .cfa -4 + ^ r4: .cfa -20 + ^ r5: .cfa -16 + ^ r6: .cfa -12 + ^ r7: .cfa -8 + ^
STACK CFI INIT 80d98 38 .cfa: sp 0 + .ra: lr
STACK CFI 80d9a .cfa: sp 20 +
STACK CFI 80d9c .cfa: sp 56 +
STACK CFI 80d9e .ra: .cfa -4 + ^ r4: .cfa -20 + ^ r5: .cfa -16 + ^ r6: .cfa -12 + ^ r7: .cfa -8 + ^
STACK CFI INIT 80dd0 5e0 .cfa: sp 0 + .ra: lr
STACK CFI 80dd4 .cfa: sp 36 +
STACK CFI 80dd6 .cfa: sp 112 +
STACK CFI 80dda .ra: .cfa -4 + ^ r10: .cfa -12 + ^ r11: .cfa -8 + ^ r4: .cfa -36 + ^ r5: .cfa -32 + ^ r6: .cfa -28 + ^ r7: .cfa -24 + ^ r8: .cfa -20 + ^ r9: .cfa -16 + ^
STACK CFI INIT 813b0 38 .cfa: sp 0 + .ra: lr
STACK CFI 813b2 .cfa: sp 20 +
STACK CFI 813b4 .cfa: sp 56 +
STACK CFI 813b6 .ra: .cfa -4 + ^ r4: .cfa -20 + ^ r5: .cfa -16 + ^ r6: .cfa -12 + ^ r7: .cfa -8 + ^
STACK CFI INIT 813e8 600 .cfa: sp 0 + .ra: lr
STACK CFI 813ec .cfa: sp 36 +
STACK CFI 813ee .cfa: sp 112 +
STACK CFI 813f2 .ra: .cfa -4 + ^ r10: .cfa -12 + ^ r11: .cfa -8 + ^ r4: .cfa -36 + ^ r5: .cfa -32 + ^ r6: .cfa -28 + ^ r7: .cfa -24 + ^ r8: .cfa -20 + ^ r9: .cfa -16 + ^
STACK CFI INIT 819e8 38 .cfa: sp 0 + .ra: lr
STACK CFI 819ea .cfa: sp 20 +
STACK CFI 819ec .cfa: sp 56 +
STACK CFI 819ee .ra: .cfa -4 + ^ r4: .cfa -20 + ^ r5: .cfa -16 + ^ r6: .cfa -12 + ^ r7: .cfa -8 + ^
STACK CFI INIT 81a20 608 .cfa: sp 0 + .ra: lr
STACK CFI 81a24 .cfa: sp 36 +
STACK CFI 81a26 .cfa: sp 112 +
STACK CFI 81a2a .ra: .cfa -4 + ^ r10: .cfa -12 + ^ r11: .cfa -8 + ^ r4: .cfa -36 + ^ r5: .cfa -32 + ^ r6: .cfa -28 + ^ r7: .cfa -24 + ^ r8: .cfa -20 + ^ r9: .cfa -16 + ^
STACK CFI INIT 82028 38 .cfa: sp 0 + .ra: lr
STACK CFI 8202a .cfa: sp 20 +
STACK CFI 8202c .cfa: sp 56 +
STACK CFI 8202e .ra: .cfa -4 + ^ r4: .cfa -20 + ^ r5: .cfa -16 + ^ r6: .cfa -12 + ^ r7: .cfa -8 + ^
STACK CFI INIT 82060 258 .cfa: sp 0 + .ra: lr
STACK CFI 82064 .cfa: sp 36 +
STACK CFI 82066 .cfa: sp 96 +
STACK CFI 82068 .ra: .cfa -4 + ^ r10: .cfa -12 + ^ r11: .cfa -8 + ^ r4: .cfa -36 + ^ r5: .cfa -32 + ^ r6: .cfa -28 + ^ r7: .cfa -24 + ^ r8: .cfa -20 + ^ r9: .cfa -16 + ^
STACK CFI INIT 822b8 114 .cfa: sp 0 + .ra: lr
STACK CFI INIT 823cc 4 .cfa: sp 0 + .ra: lr
STACK CFI INIT 823d0 1c .cfa: sp 0 + .ra: lr
STACK CFI INIT 823ec 4 .cfa: sp 0 + .ra: lr
STACK CFI INIT 823f0 8 .cfa: sp 0 + .ra: lr
STACK CFI INIT 823f8 4 .cfa: sp 0 + .ra: lr
STACK CFI INIT 823fc 6 .cfa: sp 0 + .ra: lr
STACK CFI INIT 82404 6 .cfa: sp 0 + .ra: lr
STACK CFI INIT 8240c 4 .cfa: sp 0 + .ra: lr
STACK CFI INIT 82410 c .cfa: sp 0 + .ra: lr
STACK CFI INIT 8241c 16 .cfa: sp 0 + .ra: lr
STACK CFI 82420 .cfa: sp 8 +
STACK CFI 82424 .ra: .cfa -4 + ^ r3: .cfa -8 + ^
STACK CFI INIT 0 20 .cfa: sp 0 + .ra: lr
STACK CFI 2 .cfa: sp 16 +
STACK CFI 6 .ra: .cfa -4 + ^ r3: .cfa -16 + ^ r4: .cfa -12 + ^ r5: .cfa -8 + ^
STACK CFI INIT 82434 10 .cfa: sp 0 + .ra: lr
STACK CFI INIT 0 1c .cfa: sp 0 + .ra: lr
STACK CFI INIT 0 16 .cfa: sp 0 + .ra: lr
STACK CFI 4 .cfa: sp 4 +
STACK CFI 6 r4: .cfa -4 + ^
STACK CFI INIT 0 16 .cfa: sp 0 + .ra: lr
STACK CFI 4 .cfa: sp 4 +
STACK CFI 6 r4: .cfa -4 + ^
STACK CFI INIT 0 1a .cfa: sp 0 + .ra: lr
STACK CFI 6 .cfa: sp 4 +
STACK CFI 8 r4: .cfa -4 + ^
STACK CFI INIT 82444 1a .cfa: sp 0 + .ra: lr
STACK CFI 82448 .cfa: sp 4 +
STACK CFI 8244e r4: .cfa -4 + ^
STACK CFI INIT 82460 1a .cfa: sp 0 + .ra: lr
STACK CFI 82464 .cfa: sp 4 +
STACK CFI 8246a r4: .cfa -4 + ^
STACK CFI INIT 8247c 1a .cfa: sp 0 + .ra: lr
STACK CFI 82480 .cfa: sp 4 +
STACK CFI 82486 r4: .cfa -4 + ^
STACK CFI INIT 82498 1a .cfa: sp 0 + .ra: lr
STACK CFI 8249c .cfa: sp 4 +
STACK CFI 824a2 r4: .cfa -4 + ^
STACK CFI INIT 824b4 4 .cfa: sp 0 + .ra: lr
STACK CFI INIT 824b8 14 .cfa: sp 0 + .ra: lr
STACK CFI INIT 824cc 18 .cfa: sp 0 + .ra: lr
STACK CFI INIT 824e4 4 .cfa: sp 0 + .ra: lr
STACK CFI INIT 824e8 c .cfa: sp 0 + .ra: lr
STACK CFI INIT 824f4 e .cfa: sp 0 + .ra: lr
STACK CFI INIT 82504 6 .cfa: sp 0 + .ra: lr
STACK CFI INIT 8250c 4 .cfa: sp 0 + .ra: lr
STACK CFI INIT 82510 c .cfa: sp 0 + .ra: lr
STACK CFI INIT 8251c e .cfa: sp 0 + .ra: lr
STACK CFI INIT 8252c 6 .cfa: sp 0 + .ra: lr
STACK CFI INIT 82534 8 .cfa: sp 0 + .ra: lr
STACK CFI INIT 8253c a .cfa: sp 0 + .ra: lr
STACK CFI INIT 82548 8 .cfa: sp 0 + .ra: lr
STACK CFI INIT 82550 10 .cfa: sp 0 + .ra: lr
STACK CFI INIT 82560 8 .cfa: sp 0 + .ra: lr
STACK CFI INIT 82568 20 .cfa: sp 0 + .ra: lr
STACK CFI 8256a .cfa: sp 8 +
STACK CFI 8256c .ra: .cfa -4 + ^ r3: .cfa -8 + ^
STACK CFI INIT 82588 48 .cfa: sp 0 + .ra: lr
STACK CFI 8258a .cfa: sp 16 +
STACK CFI 8258c .ra: .cfa -4 + ^ r3: .cfa -16 + ^ r4: .cfa -12 + ^ r5: .cfa -8 + ^
STACK CFI INIT 825d0 3e .cfa: sp 0 + .ra: lr
STACK CFI 825d4 .cfa: sp 8 +
STACK CFI 825d8 r4: .cfa -8 + ^ r5: .cfa -4 + ^
STACK CFI INIT 82610 c .cfa: sp 0 + .ra: lr
STACK CFI 82612 .cfa: sp 8 +
STACK CFI 82614 .ra: .cfa -4 + ^ r4: .cfa -8 + ^
STACK CFI INIT 8261c c .cfa: sp 0 + .ra: lr
STACK CFI 8261e .cfa: sp 8 +
STACK CFI 82620 .ra: .cfa -4 + ^ r4: .cfa -8 + ^
STACK CFI INIT 82628 2 .cfa: sp 0 + .ra: lr
STACK CFI INIT 8262c ce .cfa: sp 0 + .ra: lr
STACK CFI 82630 .cfa: sp 40 +
STACK CFI 82632 .ra: .cfa -4 + ^ r10: .cfa -12 + ^ r11: .cfa -8 + ^ r3: .cfa -40 + ^ r4: .cfa -36 + ^ r5: .cfa -32 + ^ r6: .cfa -28 + ^ r7: .cfa -24 + ^ r8: .cfa -20 + ^ r9: .cfa -16 + ^
STACK CFI INIT 826fc a .cfa: sp 0 + .ra: lr
STACK CFI INIT 82708 1e .cfa: sp 0 + .ra: lr
STACK CFI 8270a .cfa: sp 16 +
STACK CFI 8270c .ra: .cfa -4 + ^ r4: .cfa -16 + ^ r5: .cfa -12 + ^ r6: .cfa -8 + ^
STACK CFI INIT 82728 2a .cfa: sp 0 + .ra: lr
STACK CFI 8272a .cfa: sp 8 +
STACK CFI 8272c .ra: .cfa -4 + ^ r4: .cfa -8 + ^
STACK CFI INIT 82754 7e .cfa: sp 0 + .ra: lr
STACK CFI 82758 .cfa: sp 24 +
STACK CFI 8275a .ra: .cfa -4 + ^ r4: .cfa -24 + ^ r5: .cfa -20 + ^ r6: .cfa -16 + ^ r7: .cfa -12 + ^ r8: .cfa -8 + ^
STACK CFI INIT 827d4 a .cfa: sp 0 + .ra: lr
STACK CFI INIT 827e0 1e .cfa: sp 0 + .ra: lr
STACK CFI 827e2 .cfa: sp 16 +
STACK CFI 827e4 .ra: .cfa -4 + ^ r4: .cfa -16 + ^ r5: .cfa -12 + ^ r6: .cfa -8 + ^
STACK CFI INIT 82800 4e .cfa: sp 0 + .ra: lr
STACK CFI 82804 .cfa: sp 4 +
STACK CFI 8280a r4: .cfa -4 + ^
STACK CFI INIT 82850 7c .cfa: sp 0 + .ra: lr
STACK CFI 82854 .cfa: sp 32 +
STACK CFI 82856 .ra: .cfa -4 + ^ r3: .cfa -32 + ^ r4: .cfa -28 + ^ r5: .cfa -24 + ^ r6: .cfa -20 + ^ r7: .cfa -16 + ^ r8: .cfa -12 + ^ r9: .cfa -8 + ^
STACK CFI INIT 828cc a .cfa: sp 0 + .ra: lr
STACK CFI INIT 828d8 1e .cfa: sp 0 + .ra: lr
STACK CFI 828da .cfa: sp 16 +
STACK CFI 828dc .ra: .cfa -4 + ^ r4: .cfa -16 + ^ r5: .cfa -12 + ^ r6: .cfa -8 + ^
STACK CFI INIT 828f8 4 .cfa: sp 0 + .ra: lr
STACK CFI INIT 828fc 70 .cfa: sp 0 + .ra: lr
STACK CFI 828fe .cfa: sp 24 +
STACK CFI 82900 .ra: .cfa -4 + ^ r3: .cfa -24 + ^ r4: .cfa -20 + ^ r5: .cfa -16 + ^ r6: .cfa -12 + ^ r7: .cfa -8 + ^
STACK CFI INIT 8296c a .cfa: sp 0 + .ra: lr
STACK CFI INIT 82978 1e .cfa: sp 0 + .ra: lr
STACK CFI 8297a .cfa: sp 16 +
STACK CFI 8297c .ra: .cfa -4 + ^ r4: .cfa -16 + ^ r5: .cfa -12 + ^ r6: .cfa -8 + ^
STACK CFI INIT 82998 4 .cfa: sp 0 + .ra: lr
STACK CFI INIT 8299c 78 .cfa: sp 0 + .ra: lr
STACK CFI 829a0 .cfa: sp 32 +
STACK CFI 829a2 .ra: .cfa -4 + ^ r3: .cfa -32 + ^ r4: .cfa -28 + ^ r5: .cfa -24 + ^ r6: .cfa -20 + ^ r7: .cfa -16 + ^ r8: .cfa -12 + ^ r9: .cfa -8 + ^
STACK CFI INIT 82a14 a .cfa: sp 0 + .ra: lr
STACK CFI INIT 82a20 1e .cfa: sp 0 + .ra: lr
STACK CFI 82a22 .cfa: sp 16 +
STACK CFI 82a24 .ra: .cfa -4 + ^ r4: .cfa -16 + ^ r5: .cfa -12 + ^ r6: .cfa -8 + ^
STACK CFI INIT 82a40 5a .cfa: sp 0 + .ra: lr
STACK CFI 82a44 .cfa: sp 4 +
STACK CFI 82a48 r4: .cfa -4 + ^
STACK CFI INIT 82a9c 60 .cfa: sp 0 + .ra: lr
STACK CFI 82a9e .cfa: sp 24 +
STACK CFI 82aa0 .ra: .cfa -4 + ^ r3: .cfa -24 + ^ r4: .cfa -20 + ^ r5: .cfa -16 + ^ r6: .cfa -12 + ^ r7: .cfa -8 + ^
STACK CFI INIT 82afc a .cfa: sp 0 + .ra: lr
STACK CFI INIT 82b08 1e .cfa: sp 0 + .ra: lr
STACK CFI 82b0a .cfa: sp 16 +
STACK CFI 82b0c .ra: .cfa -4 + ^ r4: .cfa -16 + ^ r5: .cfa -12 + ^ r6: .cfa -8 + ^
STACK CFI INIT 82b28 46 .cfa: sp 0 + .ra: lr
STACK CFI 82b2c .cfa: sp 4 +
STACK CFI 82b30 r4: .cfa -4 + ^
STACK CFI INIT 82b70 24 .cfa: sp 0 + .ra: lr
STACK CFI 82b72 .cfa: sp 16 +
STACK CFI 82b76 .ra: .cfa -4 + ^ r3: .cfa -16 + ^ r4: .cfa -12 + ^ r5: .cfa -8 + ^
STACK CFI INIT 82b94 40 .cfa: sp 0 + .ra: lr
STACK CFI 82b98 .cfa: sp 16 +
STACK CFI 82b9c .ra: .cfa -4 + ^ r3: .cfa -16 + ^ r4: .cfa -12 + ^ r5: .cfa -8 + ^
STACK CFI INIT 82bd4 5c .cfa: sp 0 + .ra: lr
STACK CFI 82bd8 .cfa: sp 16 +
STACK CFI 82bdc .ra: .cfa -4 + ^ r4: .cfa -16 + ^ r5: .cfa -12 + ^ r6: .cfa -8 + ^
STACK CFI INIT 82c30 28 .cfa: sp 0 + .ra: lr
STACK CFI 82c32 .cfa: sp 16 +
STACK CFI 82c34 .ra: .cfa -4 + ^ r4: .cfa -16 + ^ r5: .cfa -12 + ^ r6: .cfa -8 + ^
STACK CFI INIT 82c58 48 .cfa: sp 0 + .ra: lr
STACK CFI 82c5c .cfa: sp 24 +
STACK CFI 82c5e .ra: .cfa -4 + ^ r4: .cfa -24 + ^ r5: .cfa -20 + ^ r6: .cfa -16 + ^ r7: .cfa -12 + ^ r8: .cfa -8 + ^
STACK CFI INIT 82ca0 3c .cfa: sp 0 + .ra: lr
STACK CFI 82ca4 .cfa: sp 16 +
STACK CFI 82ca8 .ra: .cfa -4 + ^ r3: .cfa -16 + ^ r4: .cfa -12 + ^ r5: .cfa -8 + ^
STACK CFI INIT 82cdc 4 .cfa: sp 0 + .ra: lr
STACK CFI INIT 82ce0 14 .cfa: sp 0 + .ra: lr
STACK CFI INIT 82cf4 6 .cfa: sp 0 + .ra: lr
STACK CFI INIT 82cfc c .cfa: sp 0 + .ra: lr
STACK CFI INIT 82d08 8 .cfa: sp 0 + .ra: lr
STACK CFI INIT 82d10 6 .cfa: sp 0 + .ra: lr
STACK CFI INIT 0 28 .cfa: sp 0 + .ra: lr
STACK CFI INIT 82d18 4 .cfa: sp 0 + .ra: lr
STACK CFI INIT 82d1c 6c .cfa: sp 0 + .ra: lr
STACK CFI 82d1e .cfa: sp 16 +
STACK CFI 82d22 .ra: .cfa -4 + ^ r3: .cfa -16 + ^ r4: .cfa -12 + ^ r5: .cfa -8 + ^
STACK CFI INIT 82d88 58 .cfa: sp 0 + .ra: lr
STACK CFI 82d8c .cfa: sp 24 +
STACK CFI 82d8e .ra: .cfa -4 + ^ r4: .cfa -24 + ^ r5: .cfa -20 + ^ r6: .cfa -16 + ^ r7: .cfa -12 + ^ r8: .cfa -8 + ^
STACK CFI INIT 82de0 4 .cfa: sp 0 + .ra: lr
STACK CFI INIT 82de4 14 .cfa: sp 0 + .ra: lr
STACK CFI 82de6 .cfa: sp 8 +
STACK CFI 82de8 .ra: .cfa -4 + ^ r4: .cfa -8 + ^
STACK CFI INIT 82df8 14 .cfa: sp 0 + .ra: lr
STACK CFI 82dfa .cfa: sp 8 +
STACK CFI 82dfc .ra: .cfa -4 + ^ r4: .cfa -8 + ^
STACK CFI INIT 82e0c 4 .cfa: sp 0 + .ra: lr
STACK CFI INIT 82e10 5c .cfa: sp 0 + .ra: lr
STACK CFI 82e1a .cfa: sp 12 +
STACK CFI 82e22 r4: .cfa -12 + ^ r5: .cfa -8 + ^ r6: .cfa -4 + ^
STACK CFI INIT 82e6c 68 .cfa: sp 0 + .ra: lr
STACK CFI 82e70 .cfa: sp 16 +
STACK CFI 82e72 .ra: .cfa -4 + ^ r4: .cfa -16 + ^ r5: .cfa -12 + ^ r6: .cfa -8 + ^
STACK CFI 82e7a .cfa: sp 24 +
STACK CFI INIT 82ed4 16c .cfa: sp 0 + .ra: lr
STACK CFI 82ed8 .cfa: sp 36 +
STACK CFI 82eda .ra: .cfa -4 + ^ r10: .cfa -12 + ^ r11: .cfa -8 + ^ r4: .cfa -36 + ^ r5: .cfa -32 + ^ r6: .cfa -28 + ^ r7: .cfa -24 + ^ r8: .cfa -20 + ^ r9: .cfa -16 + ^
STACK CFI 82ef0 .cfa: sp 48 +
STACK CFI INIT 83040 36 .cfa: sp 0 + .ra: lr
STACK CFI 83042 .cfa: sp 24 +
STACK CFI 83044 .ra: .cfa -4 + ^ r3: .cfa -24 + ^ r4: .cfa -20 + ^ r5: .cfa -16 + ^ r6: .cfa -12 + ^ r7: .cfa -8 + ^
STACK CFI INIT 83078 b4 .cfa: sp 0 + .ra: lr
STACK CFI 83082 .cfa: sp 24 +
STACK CFI 83088 .ra: .cfa -4 + ^ r4: .cfa -24 + ^ r5: .cfa -20 + ^ r6: .cfa -16 + ^ r7: .cfa -12 + ^ r8: .cfa -8 + ^
STACK CFI 83090 .cfa: sp 32 +
STACK CFI INIT 8312c e .cfa: sp 0 + .ra: lr
STACK CFI 8312e .cfa: sp 8 +
STACK CFI INIT 8313c 1a .cfa: sp 0 + .ra: lr
STACK CFI 8313e .cfa: sp 16 +
STACK CFI 83140 .ra: .cfa -4 + ^ r4: .cfa -16 + ^ r5: .cfa -12 + ^ r6: .cfa -8 + ^
STACK CFI INIT 83158 30 .cfa: sp 0 + .ra: lr
STACK CFI 8315c .cfa: sp 8 +
STACK CFI 83160 .ra: .cfa -4 + ^ r4: .cfa -8 + ^
STACK CFI INIT 83188 16 .cfa: sp 0 + .ra: lr
STACK CFI 8318a .cfa: sp 8 +
STACK CFI 8318c .cfa: sp 16 +
STACK CFI 83190 .ra: .cfa -4 + ^ r4: .cfa -8 + ^
STACK CFI INIT 831a0 1a .cfa: sp 0 + .ra: lr
STACK CFI 831a2 .cfa: sp 16 +
STACK CFI 831a4 .ra: .cfa -4 + ^ r4: .cfa -16 + ^ r5: .cfa -12 + ^ r6: .cfa -8 + ^
STACK CFI INIT 831bc 58 .cfa: sp 0 + .ra: lr
STACK CFI 831c2 .cfa: sp 24 +
STACK CFI 831c6 .ra: .cfa -4 + ^ r3: .cfa -24 + ^ r4: .cfa -20 + ^ r5: .cfa -16 + ^ r6: .cfa -12 + ^ r7: .cfa -8 + ^
STACK CFI INIT 83214 12 .cfa: sp 0 + .ra: lr
STACK CFI 83216 .cfa: sp 4 +
STACK CFI 8321a r4: .cfa -4 + ^
STACK CFI INIT 83228 2c .cfa: sp 0 + .ra: lr
STACK CFI 8322a .cfa: sp 16 +
STACK CFI 8322c .ra: .cfa -4 + ^ r4: .cfa -16 + ^ r5: .cfa -12 + ^ r6: .cfa -8 + ^
STACK CFI INIT 83254 2a .cfa: sp 0 + .ra: lr
STACK CFI 83256 .cfa: sp 12 +
STACK CFI 83258 .cfa: sp 24 +
STACK CFI 8325a .ra: .cfa -4 + ^ r4: .cfa -12 + ^ r5: .cfa -8 + ^
STACK CFI INIT 83280 2c .cfa: sp 0 + .ra: lr
STACK CFI 83282 .cfa: sp 16 +
STACK CFI 83284 .ra: .cfa -4 + ^ r4: .cfa -16 + ^ r5: .cfa -12 + ^ r6: .cfa -8 + ^
STACK CFI 83288 .cfa: sp 24 +
STACK CFI INIT 832ac 1a .cfa: sp 0 + .ra: lr
STACK CFI 832ae .cfa: sp 8 +
STACK CFI 832b0 .cfa: sp 16 +
STACK CFI 832b2 .ra: .cfa -4 + ^ r4: .cfa -8 + ^
STACK CFI INIT 832c8 1a .cfa: sp 0 + .ra: lr
STACK CFI 832ca .cfa: sp 12 +
STACK CFI 832cc .cfa: sp 24 +
STACK CFI 832ce .ra: .cfa -4 + ^ r4: .cfa -12 + ^ r5: .cfa -8 + ^
STACK CFI INIT 832e4 1c .cfa: sp 0 + .ra: lr
STACK CFI 832ea .cfa: sp 8 +
STACK CFI 832ec .cfa: sp 16 +
STACK CFI 832ee .ra: .cfa -4 + ^ r4: .cfa -8 + ^
STACK CFI INIT 83300 2a .cfa: sp 0 + .ra: lr
STACK CFI 83304 .cfa: sp 16 +
STACK CFI 83308 .ra: .cfa -4 + ^ r3: .cfa -16 + ^ r4: .cfa -12 + ^ r5: .cfa -8 + ^
STACK CFI INIT 8332c 24 .cfa: sp 0 + .ra: lr
STACK CFI 8332e .cfa: sp 16 +
STACK CFI 83330 .ra: .cfa -4 + ^ r3: .cfa -16 + ^ r4: .cfa -12 + ^ r5: .cfa -8 + ^
STACK CFI INIT 83350 2c .cfa: sp 0 + .ra: lr
STACK CFI 83352 .cfa: sp 16 +
STACK CFI 83354 .ra: .cfa -4 + ^ r3: .cfa -16 + ^ r4: .cfa -12 + ^ r5: .cfa -8 + ^
STACK CFI INIT 8337c 108 .cfa: sp 0 + .ra: lr
STACK CFI 83380 .cfa: sp 36 +
STACK CFI 83382 .ra: .cfa -4 + ^ r10: .cfa -12 + ^ r11: .cfa -8 + ^ r4: .cfa -36 + ^ r5: .cfa -32 + ^ r6: .cfa -28 + ^ r7: .cfa -24 + ^ r8: .cfa -20 + ^ r9: .cfa -16 + ^
STACK CFI 83386 .cfa: sp 48 +
STACK CFI INIT 83484 1e .cfa: sp 0 + .ra: lr
STACK CFI 83486 .cfa: sp 16 +
STACK CFI 83488 .ra: .cfa -4 + ^ r4: .cfa -16 + ^ r5: .cfa -12 + ^ r6: .cfa -8 + ^
STACK CFI INIT 834a4 30 .cfa: sp 0 + .ra: lr
STACK CFI 834a8 .cfa: sp 16 +
STACK CFI 834ac .ra: .cfa -4 + ^ r4: .cfa -16 + ^ r5: .cfa -12 + ^ r6: .cfa -8 + ^
STACK CFI INIT 834d4 18 .cfa: sp 0 + .ra: lr
STACK CFI 834d6 .cfa: sp 8 +
STACK CFI 834d8 .cfa: sp 16 +
STACK CFI 834da r4: .cfa -8 + ^ r5: .cfa -4 + ^
STACK CFI INIT 834ec a .cfa: sp 0 + .ra: lr
STACK CFI INIT 834f8 e .cfa: sp 0 + .ra: lr
STACK CFI INIT 83508 40 .cfa: sp 0 + .ra: lr
STACK CFI 83514 .cfa: sp 8 +
STACK CFI 83516 .ra: .cfa -4 + ^ r4: .cfa -8 + ^
STACK CFI INIT 83548 10 .cfa: sp 0 + .ra: lr
STACK CFI INIT 83558 1e .cfa: sp 0 + .ra: lr
STACK CFI 8355a .cfa: sp 16 +
STACK CFI 8355c .ra: .cfa -4 + ^ r3: .cfa -16 + ^ r4: .cfa -12 + ^ r5: .cfa -8 + ^
STACK CFI INIT 83578 34 .cfa: sp 0 + .ra: lr
STACK CFI 8357a .cfa: sp 16 +
STACK CFI 8357c .ra: .cfa -4 + ^ r3: .cfa -16 + ^ r4: .cfa -12 + ^ r5: .cfa -8 + ^
STACK CFI INIT 835ac 1c .cfa: sp 0 + .ra: lr
STACK CFI 835ae .cfa: sp 16 +
STACK CFI 835b0 .ra: .cfa -4 + ^ r3: .cfa -16 + ^ r4: .cfa -12 + ^ r5: .cfa -8 + ^
STACK CFI INIT 835c8 22 .cfa: sp 0 + .ra: lr
STACK CFI 835cc .cfa: sp 8 +
STACK CFI 835d2 .ra: .cfa -4 + ^ r4: .cfa -8 + ^
STACK CFI INIT 835ec 18 .cfa: sp 0 + .ra: lr
STACK CFI 835f0 .cfa: sp 8 +
STACK CFI 835f2 .ra: .cfa -4 + ^ r4: .cfa -8 + ^
STACK CFI INIT 83604 2a .cfa: sp 0 + .ra: lr
STACK CFI 83606 .cfa: sp 16 +
STACK CFI 83608 .ra: .cfa -4 + ^ r3: .cfa -16 + ^ r4: .cfa -12 + ^ r5: .cfa -8 + ^
STACK CFI INIT 83630 54 .cfa: sp 0 + .ra: lr
STACK CFI 83638 .cfa: sp 4 +
STACK CFI 8363e r4: .cfa -4 + ^
STACK CFI INIT 83684 64 .cfa: sp 0 + .ra: lr
STACK CFI 83686 .cfa: sp 24 +
STACK CFI 83688 .ra: .cfa -4 + ^ r3: .cfa -24 + ^ r4: .cfa -20 + ^ r5: .cfa -16 + ^ r6: .cfa -12 + ^ r7: .cfa -8 + ^
STACK CFI INIT 836e8 64 .cfa: sp 0 + .ra: lr
STACK CFI 836ea .cfa: sp 4 +
STACK CFI 836ee r4: .cfa -4 + ^
STACK CFI INIT 8374c 98 .cfa: sp 0 + .ra: lr
STACK CFI 83752 .cfa: sp 20 +
STACK CFI 83754 .ra: .cfa -4 + ^ r4: .cfa -20 + ^ r5: .cfa -16 + ^ r6: .cfa -12 + ^ r7: .cfa -8 + ^
STACK CFI 8375c .cfa: sp 32 +
STACK CFI INIT 837e4 5c .cfa: sp 0 + .ra: lr
STACK CFI 837e6 .cfa: sp 24 +
STACK CFI 837e8 .ra: .cfa -4 + ^ r3: .cfa -24 + ^ r4: .cfa -20 + ^ r5: .cfa -16 + ^ r6: .cfa -12 + ^ r7: .cfa -8 + ^
STACK CFI INIT 83840 a0 .cfa: sp 0 + .ra: lr
STACK CFI 83842 .cfa: sp 20 +
STACK CFI 83844 .ra: .cfa -4 + ^ r4: .cfa -20 + ^ r5: .cfa -16 + ^ r6: .cfa -12 + ^ r7: .cfa -8 + ^
STACK CFI 83848 .cfa: sp 32 +
STACK CFI INIT 838e0 40 .cfa: sp 0 + .ra: lr
STACK CFI 838e2 .cfa: sp 16 +
STACK CFI 838e6 .ra: .cfa -4 + ^ r4: .cfa -16 + ^ r5: .cfa -12 + ^ r6: .cfa -8 + ^
STACK CFI INIT 83920 6 .cfa: sp 0 + .ra: lr
STACK CFI INIT 83928 cc .cfa: sp 0 + .ra: lr
STACK CFI 8392a .cfa: sp 20 +
STACK CFI 8392c .ra: .cfa -4 + ^ r4: .cfa -20 + ^ r5: .cfa -16 + ^ r6: .cfa -12 + ^ r7: .cfa -8 + ^
STACK CFI 83930 .cfa: sp 32 +
STACK CFI INIT 839f4 e .cfa: sp 0 + .ra: lr
STACK CFI 839f6 .cfa: sp 8 +
STACK CFI INIT 83a04 1a .cfa: sp 0 + .ra: lr
STACK CFI 83a06 .cfa: sp 16 +
STACK CFI 83a08 .ra: .cfa -4 + ^ r4: .cfa -16 + ^ r5: .cfa -12 + ^ r6: .cfa -8 + ^
STACK CFI INIT 83a20 e .cfa: sp 0 + .ra: lr
STACK CFI 83a22 .cfa: sp 8 +
STACK CFI INIT 83a30 1a .cfa: sp 0 + .ra: lr
STACK CFI 83a32 .cfa: sp 16 +
STACK CFI 83a34 .ra: .cfa -4 + ^ r4: .cfa -16 + ^ r5: .cfa -12 + ^ r6: .cfa -8 + ^
STACK CFI INIT 83a4c b4 .cfa: sp 0 + .ra: lr
STACK CFI 83a50 .cfa: sp 32 +
STACK CFI 83a52 .ra: .cfa -4 + ^ r3: .cfa -32 + ^ r4: .cfa -28 + ^ r5: .cfa -24 + ^ r6: .cfa -20 + ^ r7: .cfa -16 + ^ r8: .cfa -12 + ^ r9: .cfa -8 + ^
STACK CFI INIT 83b00 8c .cfa: sp 0 + .ra: lr
STACK CFI 83b04 .cfa: sp 24 +
STACK CFI 83b06 .ra: .cfa -4 + ^ r4: .cfa -24 + ^ r5: .cfa -20 + ^ r6: .cfa -16 + ^ r7: .cfa -12 + ^ r8: .cfa -8 + ^
STACK CFI INIT 83b8c 4 .cfa: sp 0 + .ra: lr
STACK CFI INIT 83b90 16 .cfa: sp 0 + .ra: lr
STACK CFI 83b92 .cfa: sp 8 +
STACK CFI 83b94 .ra: .cfa -4 + ^ r4: .cfa -8 + ^
STACK CFI INIT 83ba8 5c .cfa: sp 0 + .ra: lr
STACK CFI 83baa .cfa: sp 24 +
STACK CFI 83bac .ra: .cfa -4 + ^ r3: .cfa -24 + ^ r4: .cfa -20 + ^ r5: .cfa -16 + ^ r6: .cfa -12 + ^ r7: .cfa -8 + ^
STACK CFI INIT 83c04 68 .cfa: sp 0 + .ra: lr
STACK CFI 83c08 .cfa: sp 12 +
STACK CFI 83c0a .ra: .cfa -4 + ^ r4: .cfa -12 + ^ r5: .cfa -8 + ^
STACK CFI 83c12 .cfa: sp 24 +
STACK CFI INIT 83c6c c4 .cfa: sp 0 + .ra: lr
STACK CFI 83c72 .cfa: sp 20 +
STACK CFI 83c76 .ra: .cfa -4 + ^ r4: .cfa -20 + ^ r5: .cfa -16 + ^ r6: .cfa -12 + ^ r7: .cfa -8 + ^
STACK CFI 83c78 .cfa: sp 32 +
STACK CFI INIT 83d30 4 .cfa: sp 0 + .ra: lr
STACK CFI INIT 83d34 5c .cfa: sp 0 + .ra: lr
STACK CFI 83d38 .cfa: sp 24 +
STACK CFI 83d3a .ra: .cfa -4 + ^ r4: .cfa -24 + ^ r5: .cfa -20 + ^ r6: .cfa -16 + ^ r7: .cfa -12 + ^ r8: .cfa -8 + ^
STACK CFI INIT 83d90 4c .cfa: sp 0 + .ra: lr
STACK CFI 83d9a .cfa: sp 16 +
STACK CFI 83d9c .ra: .cfa -4 + ^ r4: .cfa -16 + ^ r5: .cfa -12 + ^ r6: .cfa -8 + ^
STACK CFI INIT 83ddc 20 .cfa: sp 0 + .ra: lr
STACK CFI 83dde .cfa: sp 16 +
STACK CFI 83de0 .ra: .cfa -4 + ^ r3: .cfa -16 + ^ r4: .cfa -12 + ^ r5: .cfa -8 + ^
STACK CFI INIT 83dfc 60 .cfa: sp 0 + .ra: lr
STACK CFI 83e00 .cfa: sp 24 +
STACK CFI 83e04 .ra: .cfa -4 + ^ r4: .cfa -24 + ^ r5: .cfa -20 + ^ r6: .cfa -16 + ^ r7: .cfa -12 + ^ r8: .cfa -8 + ^
STACK CFI INIT 83e5c 16 .cfa: sp 0 + .ra: lr
STACK CFI 83e5e .cfa: sp 8 +
STACK CFI 83e60 .ra: .cfa -4 + ^ r4: .cfa -8 + ^
STACK CFI INIT 83e74 88 .cfa: sp 0 + .ra: lr
STACK CFI 83e78 .cfa: sp 24 +
STACK CFI 83e7c .ra: .cfa -4 + ^ r4: .cfa -24 + ^ r5: .cfa -20 + ^ r6: .cfa -16 + ^ r7: .cfa -12 + ^ r8: .cfa -8 + ^
STACK CFI INIT 83efc 44 .cfa: sp 0 + .ra: lr
STACK CFI 83efe .cfa: sp 12 +
STACK CFI 83f00 .ra: .cfa -4 + ^ r4: .cfa -12 + ^ r5: .cfa -8 + ^
STACK CFI 83f04 .cfa: sp 24 +
STACK CFI INIT 83f40 24 .cfa: sp 0 + .ra: lr
STACK CFI 83f42 .cfa: sp 16 +
STACK CFI 83f44 .ra: .cfa -4 + ^ r3: .cfa -16 + ^ r4: .cfa -12 + ^ r5: .cfa -8 + ^
STACK CFI INIT 83f64 16 .cfa: sp 0 + .ra: lr
STACK CFI 83f66 .cfa: sp 8 +
STACK CFI 83f68 .ra: .cfa -4 + ^ r4: .cfa -8 + ^
STACK CFI INIT 83f7c 40 .cfa: sp 0 + .ra: lr
STACK CFI 83f7e .cfa: sp 16 +
STACK CFI 83f80 .ra: .cfa -4 + ^ r3: .cfa -16 + ^ r4: .cfa -12 + ^ r5: .cfa -8 + ^
STACK CFI INIT 83fbc 88 .cfa: sp 0 + .ra: lr
STACK CFI 83fc0 .cfa: sp 24 +
STACK CFI 83fc4 .ra: .cfa -4 + ^ r4: .cfa -24 + ^ r5: .cfa -20 + ^ r6: .cfa -16 + ^ r7: .cfa -12 + ^ r8: .cfa -8 + ^
STACK CFI INIT 84044 18 .cfa: sp 0 + .ra: lr
STACK CFI 84046 .cfa: sp 8 +
STACK CFI 84048 .ra: .cfa -4 + ^ r4: .cfa -8 + ^
STACK CFI INIT 8405c 160 .cfa: sp 0 + .ra: lr
STACK CFI 84060 .cfa: sp 28 +
STACK CFI 84062 .ra: .cfa -4 + ^ r4: .cfa -28 + ^ r5: .cfa -24 + ^ r6: .cfa -20 + ^ r7: .cfa -16 + ^ r8: .cfa -12 + ^ r9: .cfa -8 + ^
STACK CFI 84066 .cfa: sp 56 +
STACK CFI INIT 841bc 1a .cfa: sp 0 + .ra: lr
STACK CFI 841be .cfa: sp 4 +
STACK CFI 841c2 r4: .cfa -4 + ^
STACK CFI INIT 841d8 1a .cfa: sp 0 + .ra: lr
STACK CFI 841da .cfa: sp 4 +
STACK CFI 841de r4: .cfa -4 + ^
STACK CFI INIT 841f4 1a .cfa: sp 0 + .ra: lr
STACK CFI 841f6 .cfa: sp 4 +
STACK CFI 841fa r4: .cfa -4 + ^
STACK CFI INIT 84210 1a .cfa: sp 0 + .ra: lr
STACK CFI 84212 .cfa: sp 4 +
STACK CFI 84216 r4: .cfa -4 + ^
STACK CFI INIT 8422c 12 .cfa: sp 0 + .ra: lr
STACK CFI 8422e .cfa: sp 4 +
STACK CFI 84232 r4: .cfa -4 + ^
STACK CFI INIT 84240 24 .cfa: sp 0 + .ra: lr
STACK CFI 84242 .cfa: sp 20 +
STACK CFI 84244 .ra: .cfa -4 + ^ r4: .cfa -20 + ^ r5: .cfa -16 + ^ r6: .cfa -12 + ^ r7: .cfa -8 + ^
STACK CFI 84246 .cfa: sp 32 +
STACK CFI INIT 84264 34 .cfa: sp 0 + .ra: lr
STACK CFI 84268 .cfa: sp 16 +
STACK CFI 8426a .ra: .cfa -4 + ^ r4: .cfa -16 + ^ r5: .cfa -12 + ^ r6: .cfa -8 + ^
STACK CFI INIT 84298 16 .cfa: sp 0 + .ra: lr
STACK CFI 8429a .cfa: sp 8 +
STACK CFI 8429c .cfa: sp 16 +
STACK CFI 8429e .ra: .cfa -4 + ^ r4: .cfa -8 + ^
STACK CFI INIT 842b0 2a .cfa: sp 0 + .ra: lr
STACK CFI 842b2 .cfa: sp 20 +
STACK CFI 842b4 .ra: .cfa -4 + ^ r4: .cfa -20 + ^ r5: .cfa -16 + ^ r6: .cfa -12 + ^ r7: .cfa -8 + ^
STACK CFI 842b6 .cfa: sp 32 +
STACK CFI INIT 842dc 20 .cfa: sp 0 + .ra: lr
STACK CFI 842de .cfa: sp 12 +
STACK CFI 842e2 .ra: .cfa -4 + ^ r4: .cfa -12 + ^ r5: .cfa -8 + ^
STACK CFI 842e4 .cfa: sp 24 +
STACK CFI INIT 842fc 20 .cfa: sp 0 + .ra: lr
STACK CFI 842fe .cfa: sp 8 +
STACK CFI 84302 .cfa: sp 12 +
STACK CFI 84306 r4: .cfa -12 + ^
STACK CFI INIT 8431c 16 .cfa: sp 0 + .ra: lr
STACK CFI 8431e .cfa: sp 8 +
STACK CFI 84320 .ra: .cfa -4 + ^ r4: .cfa -8 + ^
STACK CFI INIT 84334 24 .cfa: sp 0 + .ra: lr
STACK CFI 84336 .cfa: sp 12 +
STACK CFI 84338 .cfa: sp 24 +
STACK CFI 8433a .ra: .cfa -4 + ^ r4: .cfa -12 + ^ r5: .cfa -8 + ^
STACK CFI INIT 84358 28 .cfa: sp 0 + .ra: lr
STACK CFI 8435a .cfa: sp 16 +
STACK CFI 8435c .ra: .cfa -4 + ^ r4: .cfa -16 + ^ r5: .cfa -12 + ^ r6: .cfa -8 + ^
STACK CFI INIT 84380 e .cfa: sp 0 + .ra: lr
STACK CFI INIT 84390 e .cfa: sp 0 + .ra: lr
STACK CFI INIT 843a0 18 .cfa: sp 0 + .ra: lr
STACK CFI 843a4 .cfa: sp 8 +
STACK CFI 843a8 .ra: .cfa -4 + ^ r3: .cfa -8 + ^
STACK CFI INIT 843b8 c .cfa: sp 0 + .ra: lr
STACK CFI INIT 843c4 5e .cfa: sp 0 + .ra: lr
STACK CFI 843c8 .cfa: sp 20 +
STACK CFI 843ca .cfa: sp 72 +
STACK CFI 843cc r4: .cfa -20 + ^ r5: .cfa -16 + ^ r6: .cfa -12 + ^ r7: .cfa -8 + ^ r8: .cfa -4 + ^
STACK CFI INIT 84424 c .cfa: sp 0 + .ra: lr
STACK CFI 84426 .cfa: sp 8 +
STACK CFI 84428 .ra: .cfa -4 + ^ r4: .cfa -8 + ^
STACK CFI INIT 84430 10 .cfa: sp 0 + .ra: lr
STACK CFI 84432 .cfa: sp 8 +
STACK CFI 84434 .ra: .cfa -4 + ^ r3: .cfa -8 + ^
STACK CFI INIT 84440 e .cfa: sp 0 + .ra: lr
STACK CFI 84442 .cfa: sp 8 + .ra: .cfa -4 + ^ r3: .cfa -8 + ^
STACK CFI INIT 84450 e .cfa: sp 0 + .ra: lr
STACK CFI 84452 .cfa: sp 8 + .ra: .cfa -4 + ^ r3: .cfa -8 + ^
STACK CFI INIT 84460 3c .cfa: sp 0 + .ra: lr
STACK CFI 84462 .cfa: sp 20 +
STACK CFI 84464 .cfa: sp 48 +
STACK CFI 84466 .ra: .cfa -4 + ^ r4: .cfa -20 + ^ r5: .cfa -16 + ^ r6: .cfa -12 + ^ r7: .cfa -8 + ^
STACK CFI INIT 8449c c .cfa: sp 0 + .ra: lr
STACK CFI 8449e .cfa: sp 8 +
STACK CFI 844a0 .ra: .cfa -4 + ^ r4: .cfa -8 + ^
STACK CFI INIT 844a8 2a .cfa: sp 0 + .ra: lr
STACK CFI 844aa .cfa: sp 12 +
STACK CFI 844ac .cfa: sp 24 +
STACK CFI 844ae .ra: .cfa -4 + ^ r4: .cfa -12 + ^ r5: .cfa -8 + ^
STACK CFI INIT 844d4 a4 .cfa: sp 0 + .ra: lr
STACK CFI 844da .cfa: sp 16 +
STACK CFI 844dc .ra: .cfa -4 + ^ r4: .cfa -16 + ^ r5: .cfa -12 + ^ r6: .cfa -8 + ^
STACK CFI INIT 84578 24 .cfa: sp 0 + .ra: lr
STACK CFI 8457a .cfa: sp 8 +
STACK CFI 8457e .ra: .cfa -4 + ^ r4: .cfa -8 + ^
STACK CFI INIT 8459c 22 .cfa: sp 0 + .ra: lr
STACK CFI 8459e .cfa: sp 8 +
STACK CFI 845a2 .ra: .cfa -4 + ^ r4: .cfa -8 + ^
STACK CFI INIT 845c0 cc .cfa: sp 0 + .ra: lr
STACK CFI 845c2 .cfa: sp 24 +
STACK CFI 845c4 .ra: .cfa -4 + ^ r3: .cfa -24 + ^ r4: .cfa -20 + ^ r5: .cfa -16 + ^ r6: .cfa -12 + ^ r7: .cfa -8 + ^
STACK CFI INIT 8468c 94 .cfa: sp 0 + .ra: lr
STACK CFI 8468e .cfa: sp 16 +
STACK CFI 84694 .ra: .cfa -4 + ^ r4: .cfa -16 + ^ r5: .cfa -12 + ^ r6: .cfa -8 + ^
STACK CFI INIT 84720 54 .cfa: sp 0 + .ra: lr
STACK CFI 84722 .cfa: sp 16 +
STACK CFI 84724 .ra: .cfa -4 + ^ r4: .cfa -16 + ^ r5: .cfa -12 + ^ r6: .cfa -8 + ^
STACK CFI INIT 84774 c .cfa: sp 0 + .ra: lr
STACK CFI INIT 84780 18 .cfa: sp 0 + .ra: lr
STACK CFI INIT 84798 20 .cfa: sp 0 + .ra: lr
STACK CFI 847a0 .cfa: sp 8 +
STACK CFI 847a2 .ra: .cfa -4 + ^ r4: .cfa -8 + ^
STACK CFI INIT 847b8 20 .cfa: sp 0 + .ra: lr
STACK CFI 847c0 .cfa: sp 8 +
STACK CFI 847c2 .ra: .cfa -4 + ^ r4: .cfa -8 + ^
STACK CFI INIT 847d8 12 .cfa: sp 0 + .ra: lr
STACK CFI 847da .cfa: sp 8 +
STACK CFI 847dc .ra: .cfa -4 + ^ r4: .cfa -8 + ^
STACK CFI INIT 847ec 84 .cfa: sp 0 + .ra: lr
STACK CFI 847f0 .cfa: sp 16 +
STACK CFI 847f2 .cfa: sp 24 +
STACK CFI 847f8 .ra: .cfa -4 + ^ r4: .cfa -16 + ^ r5: .cfa -12 + ^ r6: .cfa -8 + ^
STACK CFI INIT 84870 74 .cfa: sp 0 + .ra: lr
STACK CFI 84878 .cfa: sp 8 +
STACK CFI 8487a .ra: .cfa -4 + ^ r4: .cfa -8 + ^
STACK CFI INIT 848e4 70 .cfa: sp 0 + .ra: lr
STACK CFI 848e6 .cfa: sp 16 +
STACK CFI 848e8 .ra: .cfa -4 + ^ r4: .cfa -16 + ^ r5: .cfa -12 + ^ r6: .cfa -8 + ^
STACK CFI INIT 84954 22 .cfa: sp 0 + .ra: lr
STACK CFI 84958 .cfa: sp 4 +
STACK CFI 84972 r4: .cfa -4 + ^
STACK CFI INIT 84978 1a .cfa: sp 0 + .ra: lr
STACK CFI INIT 84994 15a .cfa: sp 0 + .ra: lr
STACK CFI 84998 .cfa: sp 36 +
STACK CFI 8499a .cfa: sp 88 +
STACK CFI 8499c .ra: .cfa -4 + ^ r10: .cfa -12 + ^ r11: .cfa -8 + ^ r4: .cfa -36 + ^ r5: .cfa -32 + ^ r6: .cfa -28 + ^ r7: .cfa -24 + ^ r8: .cfa -20 + ^ r9: .cfa -16 + ^
STACK CFI INIT 84af0 12a .cfa: sp 0 + .ra: lr
STACK CFI 84af4 .cfa: sp 36 +
STACK CFI 84af6 .cfa: sp 72 +
STACK CFI 84af8 .ra: .cfa -4 + ^ r10: .cfa -12 + ^ r11: .cfa -8 + ^ r4: .cfa -36 + ^ r5: .cfa -32 + ^ r6: .cfa -28 + ^ r7: .cfa -24 + ^ r8: .cfa -20 + ^ r9: .cfa -16 + ^
STACK CFI INIT 84c1c 22 .cfa: sp 0 + .ra: lr
STACK CFI 84c1e .cfa: sp 16 +
STACK CFI 84c20 .ra: .cfa -4 + ^ r3: .cfa -16 + ^ r4: .cfa -12 + ^ r5: .cfa -8 + ^
STACK CFI INIT 84c40 1a .cfa: sp 0 + .ra: lr
STACK CFI 84c42 .cfa: sp 16 +
STACK CFI 84c44 .ra: .cfa -4 + ^ r3: .cfa -16 + ^ r4: .cfa -12 + ^ r5: .cfa -8 + ^
STACK CFI INIT 84c5c 13a .cfa: sp 0 + .ra: lr
STACK CFI 84c60 .cfa: sp 36 +
STACK CFI 84c62 .cfa: sp 96 +
STACK CFI 84c64 .cfa: r7 88 + .ra: .cfa -4 + ^ r10: .cfa -12 + ^ r11: .cfa -8 + ^ r4: .cfa -36 + ^ r5: .cfa -32 + ^ r6: .cfa -28 + ^ r7: .cfa -24 + ^ r8: .cfa -20 + ^ r9: .cfa -16 + ^
STACK CFI INIT 84d98 1c .cfa: sp 0 + .ra: lr
STACK CFI 84d9a .cfa: sp 8 +
STACK CFI 84d9c .ra: .cfa -4 + ^ r3: .cfa -8 + ^
STACK CFI INIT 84db4 12 .cfa: sp 0 + .ra: lr
STACK CFI 84db6 .cfa: sp 4 +
STACK CFI 84db8 r4: .cfa -4 + ^
STACK CFI INIT 84dc8 1c .cfa: sp 0 + .ra: lr
STACK CFI 84dca .cfa: sp 8 +
STACK CFI 84dcc .ra: .cfa -4 + ^ r3: .cfa -8 + ^
STACK CFI INIT 84de4 12 .cfa: sp 0 + .ra: lr
STACK CFI 84de6 .cfa: sp 4 +
STACK CFI 84de8 r4: .cfa -4 + ^
STACK CFI INIT 4b3e8 4 .cfa: sp 0 + .ra: lr
STACK CFI INIT 4b3ec 4 .cfa: sp 0 + .ra: lr
STACK CFI INIT 4b498 10 .cfa: sp 0 + .ra: lr
STACK CFI 4b49a .cfa: sp 8 +
STACK CFI 4b49c .ra: .cfa -4 + ^ r4: .cfa -8 + ^
STACK CFI INIT 4b4a8 10 .cfa: sp 0 + .ra: lr
STACK CFI 4b4aa .cfa: sp 8 +
STACK CFI 4b4ae .ra: .cfa -4 + ^ r4: .cfa -8 + ^
STACK CFI INIT 84df8 20 .cfa: sp 0 + .ra: lr
STACK CFI 84e00 .cfa: sp 8 +
STACK CFI 84e02 .ra: .cfa -4 + ^ r4: .cfa -8 + ^
STACK CFI INIT 84e18 12 .cfa: sp 0 + .ra: lr
STACK CFI 84e1a .cfa: sp 8 +
STACK CFI 84e1c .ra: .cfa -4 + ^ r4: .cfa -8 + ^
STACK CFI INIT 84e2c 78 .cfa: sp 0 + .ra: lr
STACK CFI 84e2e .cfa: sp 16 +
STACK CFI 84e30 .ra: .cfa -4 + ^ r4: .cfa -16 + ^ r5: .cfa -12 + ^ r6: .cfa -8 + ^
STACK CFI INIT 84ea4 e4 .cfa: sp 0 + .ra: lr
STACK CFI INIT 84f88 a .cfa: sp 0 + .ra: lr
STACK CFI INIT 84f94 5a .cfa: sp 0 + .ra: lr
STACK CFI 84f98 .cfa: sp 24 +
STACK CFI 84f9a .ra: .cfa -4 + ^ r3: .cfa -24 + ^ r4: .cfa -20 + ^ r5: .cfa -16 + ^ r6: .cfa -12 + ^ r7: .cfa -8 + ^
STACK CFI INIT 84ff0 a .cfa: sp 0 + .ra: lr
STACK CFI INIT 84ffc 5a .cfa: sp 0 + .ra: lr
STACK CFI 85000 .cfa: sp 24 +
STACK CFI 85002 .ra: .cfa -4 + ^ r3: .cfa -24 + ^ r4: .cfa -20 + ^ r5: .cfa -16 + ^ r6: .cfa -12 + ^ r7: .cfa -8 + ^
STACK CFI INIT 85058 230 .cfa: sp 0 + .ra: lr
STACK CFI 8505e .cfa: sp 16 +
STACK CFI 85062 .ra: .cfa -4 + ^ r4: .cfa -16 + ^ r5: .cfa -12 + ^ r6: .cfa -8 + ^
STACK CFI INIT 85288 15a .cfa: sp 0 + .ra: lr
STACK CFI 8528e .cfa: sp 24 +
STACK CFI 85290 .ra: .cfa -4 + ^ r4: .cfa -24 + ^ r5: .cfa -20 + ^ r6: .cfa -16 + ^ r7: .cfa -12 + ^ r8: .cfa -8 + ^
STACK CFI INIT 853e4 80 .cfa: sp 0 + .ra: lr
STACK CFI 853ea .cfa: sp 32 +
STACK CFI 853ec .ra: .cfa -4 + ^ r3: .cfa -32 + ^ r4: .cfa -28 + ^ r5: .cfa -24 + ^ r6: .cfa -20 + ^ r7: .cfa -16 + ^ r8: .cfa -12 + ^ r9: .cfa -8 + ^
STACK CFI INIT 85464 80 .cfa: sp 0 + .ra: lr
STACK CFI 8546a .cfa: sp 32 +
STACK CFI 8546c .ra: .cfa -4 + ^ r3: .cfa -32 + ^ r4: .cfa -28 + ^ r5: .cfa -24 + ^ r6: .cfa -20 + ^ r7: .cfa -16 + ^ r8: .cfa -12 + ^ r9: .cfa -8 + ^
STACK CFI INIT 854e4 8 .cfa: sp 0 + .ra: lr
STACK CFI INIT 854ec 62 .cfa: sp 0 + .ra: lr
STACK CFI 854f0 .cfa: sp 12 +
STACK CFI 854f2 r4: .cfa -12 + ^ r5: .cfa -8 + ^ r6: .cfa -4 + ^
STACK CFI INIT 85550 4a .cfa: sp 0 + .ra: lr
STACK CFI 85554 .cfa: sp 16 +
STACK CFI 85556 .ra: .cfa -4 + ^ r4: .cfa -16 + ^ r5: .cfa -12 + ^ r6: .cfa -8 + ^
STACK CFI INIT 8559c 154 .cfa: sp 0 + .ra: lr
STACK CFI 855a0 .cfa: sp 40 +
STACK CFI 855a2 .ra: .cfa -4 + ^ r10: .cfa -12 + ^ r11: .cfa -8 + ^ r3: .cfa -40 + ^ r4: .cfa -36 + ^ r5: .cfa -32 + ^ r6: .cfa -28 + ^ r7: .cfa -24 + ^ r8: .cfa -20 + ^ r9: .cfa -16 + ^
STACK CFI INIT 856f0 17a .cfa: sp 0 + .ra: lr
STACK CFI 856f4 .cfa: sp 24 +
STACK CFI 856f6 .ra: .cfa -4 + ^ r4: .cfa -24 + ^ r5: .cfa -20 + ^ r6: .cfa -16 + ^ r7: .cfa -12 + ^ r8: .cfa -8 + ^
STACK CFI INIT 8586c 2e .cfa: sp 0 + .ra: lr
STACK CFI 8586e .cfa: sp 16 +
STACK CFI 85870 .ra: .cfa -4 + ^ r4: .cfa -16 + ^ r5: .cfa -12 + ^ r6: .cfa -8 + ^
STACK CFI 85872 .cfa: sp 24 +
STACK CFI INIT 8589c 34 .cfa: sp 0 + .ra: lr
STACK CFI 8589e .cfa: sp 16 +
STACK CFI 858a0 .ra: .cfa -4 + ^ r3: .cfa -16 + ^ r4: .cfa -12 + ^ r5: .cfa -8 + ^
STACK CFI INIT 858d0 e8 .cfa: sp 0 + .ra: lr
STACK CFI 858d2 .cfa: sp 4 +
STACK CFI 858d4 .cfa: sp 16 +
STACK CFI 858dc r4: .cfa -4 + ^
STACK CFI INIT 859b8 404 .cfa: sp 0 + .ra: lr
STACK CFI 859bc .cfa: sp 36 +
STACK CFI 859be .ra: .cfa -4 + ^ r10: .cfa -12 + ^ r11: .cfa -8 + ^ r4: .cfa -36 + ^ r5: .cfa -32 + ^ r6: .cfa -28 + ^ r7: .cfa -24 + ^ r8: .cfa -20 + ^ r9: .cfa -16 + ^
STACK CFI 859c2 .cfa: sp 56 +
STACK CFI INIT 85dbc 408 .cfa: sp 0 + .ra: lr
STACK CFI 85dc0 .cfa: sp 36 +
STACK CFI 85dc2 .ra: .cfa -4 + ^ r10: .cfa -12 + ^ r11: .cfa -8 + ^ r4: .cfa -36 + ^ r5: .cfa -32 + ^ r6: .cfa -28 + ^ r7: .cfa -24 + ^ r8: .cfa -20 + ^ r9: .cfa -16 + ^
STACK CFI 85dc6 .cfa: sp 56 +
STACK CFI INIT 861c4 88 .cfa: sp 0 + .ra: lr
STACK CFI 861c8 .cfa: sp 16 +
STACK CFI 861ca .ra: .cfa -4 + ^ r4: .cfa -16 + ^ r5: .cfa -12 + ^ r6: .cfa -8 + ^
STACK CFI INIT 8624c 12 .cfa: sp 0 + .ra: lr
STACK CFI 8624e .cfa: sp 8 +
STACK CFI 86250 .ra: .cfa -4 + ^ r4: .cfa -8 + ^
STACK CFI INIT 86260 88 .cfa: sp 0 + .ra: lr
STACK CFI 86264 .cfa: sp 16 +
STACK CFI 86266 .ra: .cfa -4 + ^ r4: .cfa -16 + ^ r5: .cfa -12 + ^ r6: .cfa -8 + ^
STACK CFI INIT 862e8 12 .cfa: sp 0 + .ra: lr
STACK CFI 862ea .cfa: sp 8 +
STACK CFI 862ec .ra: .cfa -4 + ^ r4: .cfa -8 + ^
STACK CFI INIT 862fc 414 .cfa: sp 0 + .ra: lr
STACK CFI 86300 .cfa: sp 36 +
STACK CFI 86302 .ra: .cfa -4 + ^ r10: .cfa -12 + ^ r11: .cfa -8 + ^ r4: .cfa -36 + ^ r5: .cfa -32 + ^ r6: .cfa -28 + ^ r7: .cfa -24 + ^ r8: .cfa -20 + ^ r9: .cfa -16 + ^
STACK CFI 86306 .cfa: sp 64 +
STACK CFI INIT 86710 414 .cfa: sp 0 + .ra: lr
STACK CFI 86714 .cfa: sp 36 +
STACK CFI 86716 .ra: .cfa -4 + ^ r10: .cfa -12 + ^ r11: .cfa -8 + ^ r4: .cfa -36 + ^ r5: .cfa -32 + ^ r6: .cfa -28 + ^ r7: .cfa -24 + ^ r8: .cfa -20 + ^ r9: .cfa -16 + ^
STACK CFI 8671a .cfa: sp 64 +
STACK CFI INIT 86b24 88 .cfa: sp 0 + .ra: lr
STACK CFI 86b28 .cfa: sp 16 +
STACK CFI 86b2a .ra: .cfa -4 + ^ r4: .cfa -16 + ^ r5: .cfa -12 + ^ r6: .cfa -8 + ^
STACK CFI INIT 86bac 12 .cfa: sp 0 + .ra: lr
STACK CFI 86bae .cfa: sp 8 +
STACK CFI 86bb0 .ra: .cfa -4 + ^ r4: .cfa -8 + ^
STACK CFI INIT 86bc0 88 .cfa: sp 0 + .ra: lr
STACK CFI 86bc4 .cfa: sp 16 +
STACK CFI 86bc6 .ra: .cfa -4 + ^ r4: .cfa -16 + ^ r5: .cfa -12 + ^ r6: .cfa -8 + ^
STACK CFI INIT 86c48 12 .cfa: sp 0 + .ra: lr
STACK CFI 86c4a .cfa: sp 8 +
STACK CFI 86c4c .ra: .cfa -4 + ^ r4: .cfa -8 + ^
STACK CFI INIT 86c5c 190 .cfa: sp 0 + .ra: lr
STACK CFI 86c60 .cfa: sp 24 +
STACK CFI 86c62 .ra: .cfa -4 + ^ r4: .cfa -24 + ^ r5: .cfa -20 + ^ r6: .cfa -16 + ^ r7: .cfa -12 + ^ r8: .cfa -8 + ^
STACK CFI INIT 86dec 48 .cfa: sp 0 + .ra: lr
STACK CFI 86df0 .cfa: sp 8 +
STACK CFI 86df2 .ra: .cfa -4 + ^ r4: .cfa -8 + ^
STACK CFI INIT 86e34 12 .cfa: sp 0 + .ra: lr
STACK CFI 86e36 .cfa: sp 8 +
STACK CFI 86e38 .ra: .cfa -4 + ^ r4: .cfa -8 + ^
STACK CFI INIT 86e48 168 .cfa: sp 0 + .ra: lr
STACK CFI 86e4c .cfa: sp 24 +
STACK CFI 86e4e .ra: .cfa -4 + ^ r4: .cfa -24 + ^ r5: .cfa -20 + ^ r6: .cfa -16 + ^ r7: .cfa -12 + ^ r8: .cfa -8 + ^
STACK CFI INIT 86fb0 48 .cfa: sp 0 + .ra: lr
STACK CFI 86fb4 .cfa: sp 8 +
STACK CFI 86fb6 .ra: .cfa -4 + ^ r4: .cfa -8 + ^
STACK CFI INIT 86ff8 12 .cfa: sp 0 + .ra: lr
STACK CFI 86ffa .cfa: sp 8 +
STACK CFI 86ffc .ra: .cfa -4 + ^ r4: .cfa -8 + ^
STACK CFI INIT 8700c 1e .cfa: sp 0 + .ra: lr
STACK CFI 8700e .cfa: sp 12 +
STACK CFI 87010 .cfa: sp 24 +
STACK CFI 87012 .ra: .cfa -4 + ^ r4: .cfa -12 + ^ r5: .cfa -8 + ^
STACK CFI INIT 8702c 6d4 .cfa: sp 0 + .ra: lr
STACK CFI 87030 .cfa: sp 36 +
STACK CFI 87032 .cfa: sp 184 +
STACK CFI 87036 .ra: .cfa -4 + ^ r10: .cfa -12 + ^ r11: .cfa -8 + ^ r4: .cfa -36 + ^ r5: .cfa -32 + ^ r6: .cfa -28 + ^ r7: .cfa -24 + ^ r8: .cfa -20 + ^ r9: .cfa -16 + ^
STACK CFI INIT 87700 1e .cfa: sp 0 + .ra: lr
STACK CFI 87702 .cfa: sp 12 +
STACK CFI 87704 .cfa: sp 24 +
STACK CFI 87706 .ra: .cfa -4 + ^ r4: .cfa -12 + ^ r5: .cfa -8 + ^
STACK CFI INIT 87720 6d8 .cfa: sp 0 + .ra: lr
STACK CFI 87724 .cfa: sp 36 +
STACK CFI 87726 .cfa: sp 184 +
STACK CFI 8772a .ra: .cfa -4 + ^ r10: .cfa -12 + ^ r11: .cfa -8 + ^ r4: .cfa -36 + ^ r5: .cfa -32 + ^ r6: .cfa -28 + ^ r7: .cfa -24 + ^ r8: .cfa -20 + ^ r9: .cfa -16 + ^
STACK CFI INIT 87df8 f0 .cfa: sp 0 + .ra: lr
STACK CFI INIT 87ee8 30 .cfa: sp 0 + .ra: lr
STACK CFI 87eea .cfa: sp 24 +
STACK CFI 87eec .ra: .cfa -4 + ^ r3: .cfa -24 + ^ r4: .cfa -20 + ^ r5: .cfa -16 + ^ r6: .cfa -12 + ^ r7: .cfa -8 + ^
STACK CFI INIT 87f18 8 .cfa: sp 0 + .ra: lr
STACK CFI INIT 87f20 a .cfa: sp 0 + .ra: lr
STACK CFI INIT 87f2c 34 .cfa: sp 0 + .ra: lr
STACK CFI 87f2e .cfa: sp 16 +
STACK CFI 87f30 .ra: .cfa -4 + ^ r4: .cfa -16 + ^ r5: .cfa -12 + ^ r6: .cfa -8 + ^
STACK CFI INIT 87f60 46 .cfa: sp 0 + .ra: lr
STACK CFI 87f62 .cfa: sp 16 +
STACK CFI 87f64 .ra: .cfa -4 + ^ r4: .cfa -16 + ^ r5: .cfa -12 + ^ r6: .cfa -8 + ^
STACK CFI INIT 87fa8 6 .cfa: sp 0 + .ra: lr
STACK CFI INIT 87fb0 4 .cfa: sp 0 + .ra: lr
STACK CFI INIT 87fb4 3a .cfa: sp 0 + .ra: lr
STACK CFI 87fb6 .cfa: sp 16 +
STACK CFI 87fb8 .ra: .cfa -4 + ^ r3: .cfa -16 + ^ r4: .cfa -12 + ^ r5: .cfa -8 + ^
STACK CFI INIT 87ff0 c .cfa: sp 0 + .ra: lr
STACK CFI 87ff2 .cfa: sp 8 +
STACK CFI 87ff4 .ra: .cfa -4 + ^ r4: .cfa -8 + ^
STACK CFI INIT 87ffc 30 .cfa: sp 0 + .ra: lr
STACK CFI 87ffe .cfa: sp 24 +
STACK CFI 88000 .ra: .cfa -4 + ^ r3: .cfa -24 + ^ r4: .cfa -20 + ^ r5: .cfa -16 + ^ r6: .cfa -12 + ^ r7: .cfa -8 + ^
STACK CFI INIT 8802c 16 .cfa: sp 0 + .ra: lr
STACK CFI 8802e .cfa: sp 16 +
STACK CFI 88030 .ra: .cfa -4 + ^ r4: .cfa -16 + ^ r5: .cfa -12 + ^ r6: .cfa -8 + ^
STACK CFI INIT 88044 6e .cfa: sp 0 + .ra: lr
STACK CFI 88048 .cfa: sp 32 +
STACK CFI 8804a .cfa: sp 48 +
STACK CFI 8804c .ra: .cfa -4 + ^ r10: .cfa -8 + ^ r4: .cfa -32 + ^ r5: .cfa -28 + ^ r6: .cfa -24 + ^ r7: .cfa -20 + ^ r8: .cfa -16 + ^ r9: .cfa -12 + ^
STACK CFI INIT 880b4 16 .cfa: sp 0 + .ra: lr
STACK CFI 880b6 .cfa: sp 16 +
STACK CFI 880b8 .ra: .cfa -4 + ^ r4: .cfa -16 + ^ r5: .cfa -12 + ^ r6: .cfa -8 + ^
STACK CFI INIT 880cc 6 .cfa: sp 0 + .ra: lr
STACK CFI INIT 880d4 3a .cfa: sp 0 + .ra: lr
STACK CFI 880d6 .cfa: sp 24 +
STACK CFI 880d8 .ra: .cfa -4 + ^ r3: .cfa -24 + ^ r4: .cfa -20 + ^ r5: .cfa -16 + ^ r6: .cfa -12 + ^ r7: .cfa -8 + ^
STACK CFI INIT 88110 92 .cfa: sp 0 + .ra: lr
STACK CFI 88112 .cfa: sp 16 +
STACK CFI 88114 .cfa: sp 144 +
STACK CFI 88116 .ra: .cfa -4 + ^ r4: .cfa -16 + ^ r5: .cfa -12 + ^ r6: .cfa -8 + ^
STACK CFI INIT 881a4 52 .cfa: sp 0 + .ra: lr
STACK CFI 881a6 .cfa: sp 20 +
STACK CFI 881a8 .cfa: sp 32 +
STACK CFI 881aa .ra: .cfa -4 + ^ r4: .cfa -20 + ^ r5: .cfa -16 + ^ r6: .cfa -12 + ^ r7: .cfa -8 + ^
STACK CFI INIT 881f8 6e .cfa: sp 0 + .ra: lr
STACK CFI 881fc .cfa: sp 28 +
STACK CFI 881fe .cfa: sp 40 +
STACK CFI 88200 .ra: .cfa -4 + ^ r4: .cfa -28 + ^ r5: .cfa -24 + ^ r6: .cfa -20 + ^ r7: .cfa -16 + ^ r8: .cfa -12 + ^ r9: .cfa -8 + ^
STACK CFI INIT 88268 6e .cfa: sp 0 + .ra: lr
STACK CFI 8826c .cfa: sp 28 +
STACK CFI 8826e .cfa: sp 40 +
STACK CFI 88270 .ra: .cfa -4 + ^ r4: .cfa -28 + ^ r5: .cfa -24 + ^ r6: .cfa -20 + ^ r7: .cfa -16 + ^ r8: .cfa -12 + ^ r9: .cfa -8 + ^
STACK CFI INIT 882d8 1c .cfa: sp 0 + .ra: lr
STACK CFI 882da .cfa: sp 8 +
STACK CFI 882dc .ra: .cfa -4 + ^ r4: .cfa -8 + ^
STACK CFI INIT 882f4 1e .cfa: sp 0 + .ra: lr
STACK CFI 882f8 .cfa: sp 8 +
STACK CFI 882fa .ra: .cfa -4 + ^ r4: .cfa -8 + ^
STACK CFI INIT 88314 6 .cfa: sp 0 + .ra: lr
STACK CFI INIT 8831c 38 .cfa: sp 0 + .ra: lr
STACK CFI 8831e .cfa: sp 16 +
STACK CFI 88320 .ra: .cfa -4 + ^ r3: .cfa -16 + ^ r4: .cfa -12 + ^ r5: .cfa -8 + ^
STACK CFI INIT 88354 20 .cfa: sp 0 + .ra: lr
STACK CFI 8835c .cfa: sp 8 +
STACK CFI 8835e .ra: .cfa -4 + ^ r4: .cfa -8 + ^
STACK CFI INIT 88374 12 .cfa: sp 0 + .ra: lr
STACK CFI 88376 .cfa: sp 8 +
STACK CFI 88378 .ra: .cfa -4 + ^ r4: .cfa -8 + ^
STACK CFI INIT 88388 a .cfa: sp 0 + .ra: lr
STACK CFI INIT 88394 c .cfa: sp 0 + .ra: lr
STACK CFI INIT 883a0 20 .cfa: sp 0 + .ra: lr
STACK CFI 883a8 .cfa: sp 8 +
STACK CFI 883aa .ra: .cfa -4 + ^ r4: .cfa -8 + ^
STACK CFI INIT 883c0 12 .cfa: sp 0 + .ra: lr
STACK CFI 883c2 .cfa: sp 8 +
STACK CFI 883c4 .ra: .cfa -4 + ^ r4: .cfa -8 + ^
STACK CFI INIT 883d4 c .cfa: sp 0 + .ra: lr
STACK CFI INIT 883e0 20 .cfa: sp 0 + .ra: lr
STACK CFI 883e8 .cfa: sp 8 +
STACK CFI 883ea .ra: .cfa -4 + ^ r4: .cfa -8 + ^
STACK CFI INIT 88400 12 .cfa: sp 0 + .ra: lr
STACK CFI 88402 .cfa: sp 8 +
STACK CFI 88404 .ra: .cfa -4 + ^ r4: .cfa -8 + ^
STACK CFI INIT 88414 34 .cfa: sp 0 + .ra: lr
STACK CFI 88416 .cfa: sp 16 +
STACK CFI 88418 .ra: .cfa -4 + ^ r4: .cfa -16 + ^ r5: .cfa -12 + ^ r6: .cfa -8 + ^
STACK CFI 8841c .cfa: sp 32 +
STACK CFI INIT 88448 c .cfa: sp 0 + .ra: lr
STACK CFI INIT 88454 1a .cfa: sp 0 + .ra: lr
STACK CFI 88456 .cfa: sp 16 +
STACK CFI 88458 .ra: .cfa -4 + ^ r3: .cfa -16 + ^ r4: .cfa -12 + ^ r5: .cfa -8 + ^
STACK CFI INIT 88470 3c .cfa: sp 0 + .ra: lr
STACK CFI 88472 .cfa: sp 20 +
STACK CFI 88474 .cfa: sp 32 +
STACK CFI 88476 .ra: .cfa -4 + ^ r4: .cfa -20 + ^ r5: .cfa -16 + ^ r6: .cfa -12 + ^ r7: .cfa -8 + ^
STACK CFI INIT 884ac 28 .cfa: sp 0 + .ra: lr
STACK CFI 884ae .cfa: sp 24 +
STACK CFI 884b0 .ra: .cfa -4 + ^ r3: .cfa -24 + ^ r4: .cfa -20 + ^ r5: .cfa -16 + ^ r6: .cfa -12 + ^ r7: .cfa -8 + ^
STACK CFI INIT 884d4 20 .cfa: sp 0 + .ra: lr
STACK CFI 884dc .cfa: sp 8 +
STACK CFI 884de .ra: .cfa -4 + ^ r4: .cfa -8 + ^
STACK CFI INIT 884f4 12 .cfa: sp 0 + .ra: lr
STACK CFI 884f6 .cfa: sp 8 +
STACK CFI 884f8 .ra: .cfa -4 + ^ r4: .cfa -8 + ^
STACK CFI INIT 88508 8 .cfa: sp 0 + .ra: lr
STACK CFI INIT 88510 8 .cfa: sp 0 + .ra: lr
STACK CFI INIT 88518 4 .cfa: sp 0 + .ra: lr
STACK CFI INIT 8851c 4 .cfa: sp 0 + .ra: lr
STACK CFI INIT 88520 b6 .cfa: sp 0 + .ra: lr
STACK CFI 88524 .cfa: sp 28 +
STACK CFI 88526 .ra: .cfa -4 + ^ r4: .cfa -28 + ^ r5: .cfa -24 + ^ r6: .cfa -20 + ^ r7: .cfa -16 + ^ r8: .cfa -12 + ^ r9: .cfa -8 + ^
STACK CFI 8852a .cfa: sp 72 +
STACK CFI INIT 443c4 c .cfa: sp 0 + .ra: lr
STACK CFI INIT 443d0 c .cfa: sp 0 + .ra: lr
STACK CFI INIT 443dc 20 .cfa: sp 0 + .ra: lr
STACK CFI 443e4 .cfa: sp 8 +
STACK CFI 443e6 .ra: .cfa -4 + ^ r4: .cfa -8 + ^
STACK CFI INIT 443fc 28 .cfa: sp 0 + .ra: lr
STACK CFI 44404 .cfa: sp 8 +
STACK CFI 44406 .ra: .cfa -4 + ^ r4: .cfa -8 + ^
STACK CFI INIT 44424 20 .cfa: sp 0 + .ra: lr
STACK CFI 4442c .cfa: sp 8 +
STACK CFI 4442e .ra: .cfa -4 + ^ r4: .cfa -8 + ^
STACK CFI INIT 44444 28 .cfa: sp 0 + .ra: lr
STACK CFI 4444c .cfa: sp 8 +
STACK CFI 4444e .ra: .cfa -4 + ^ r4: .cfa -8 + ^
STACK CFI INIT 885d8 120 .cfa: sp 0 + .ra: lr
STACK CFI 885da .cfa: sp 24 +
STACK CFI 885de .ra: .cfa -4 + ^ r3: .cfa -24 + ^ r4: .cfa -20 + ^ r5: .cfa -16 + ^ r6: .cfa -12 + ^ r7: .cfa -8 + ^
STACK CFI INIT 886f8 ec .cfa: sp 0 + .ra: lr
STACK CFI 886fc .cfa: sp 16 +
STACK CFI 88700 .ra: .cfa -4 + ^ r4: .cfa -16 + ^ r5: .cfa -12 + ^ r6: .cfa -8 + ^
STACK CFI INIT 887e4 114 .cfa: sp 0 + .ra: lr
STACK CFI 887e6 .cfa: sp 24 +
STACK CFI 887e8 .ra: .cfa -4 + ^ r3: .cfa -24 + ^ r4: .cfa -20 + ^ r5: .cfa -16 + ^ r6: .cfa -12 + ^ r7: .cfa -8 + ^
STACK CFI INIT 888f8 f0 .cfa: sp 0 + .ra: lr
STACK CFI 888fc .cfa: sp 16 +
STACK CFI 88900 .ra: .cfa -4 + ^ r4: .cfa -16 + ^ r5: .cfa -12 + ^ r6: .cfa -8 + ^
STACK CFI INIT 889e8 4c .cfa: sp 0 + .ra: lr
STACK CFI 889f0 .cfa: sp 16 +
STACK CFI 889f2 .cfa: sp 40 +
STACK CFI 889f6 r4: .cfa -16 + ^ r5: .cfa -12 + ^ r6: .cfa -8 + ^ r7: .cfa -4 + ^
STACK CFI INIT 88a40 110 .cfa: sp 0 + .ra: lr
STACK CFI 88a44 .cfa: sp 24 +
STACK CFI 88a46 .ra: .cfa -4 + ^ r4: .cfa -24 + ^ r5: .cfa -20 + ^ r6: .cfa -16 + ^ r7: .cfa -12 + ^ r8: .cfa -8 + ^
STACK CFI 88a4a .cfa: sp 32 +
STACK CFI INIT 88b50 70 .cfa: sp 0 + .ra: lr
STACK CFI 88b52 .cfa: sp 8 +
STACK CFI 88b54 .ra: .cfa -4 + ^ r4: .cfa -8 + ^
STACK CFI INIT 88bc0 7a .cfa: sp 0 + .ra: lr
STACK CFI 88bc2 .cfa: sp 8 + .ra: .cfa -4 + ^ r3: .cfa -8 + ^
STACK CFI INIT 88c3c 34 .cfa: sp 0 + .ra: lr
STACK CFI 88c3e .cfa: sp 8 +
STACK CFI 88c40 .ra: .cfa -4 + ^ r4: .cfa -8 + ^
STACK CFI INIT 88c70 34 .cfa: sp 0 + .ra: lr
STACK CFI 88c72 .cfa: sp 8 +
STACK CFI 88c74 .ra: .cfa -4 + ^ r4: .cfa -8 + ^
STACK CFI INIT 88ca4 4e .cfa: sp 0 + .ra: lr
STACK CFI 88ca6 .cfa: sp 8 +
STACK CFI 88caa .ra: .cfa -4 + ^ r3: .cfa -8 + ^
STACK CFI INIT 88cf4 150 .cfa: sp 0 + .ra: lr
STACK CFI 88cf8 .cfa: sp 36 +
STACK CFI 88cfa .cfa: sp 64 +
STACK CFI 88cfe .ra: .cfa -4 + ^ r10: .cfa -12 + ^ r11: .cfa -8 + ^ r4: .cfa -36 + ^ r5: .cfa -32 + ^ r6: .cfa -28 + ^ r7: .cfa -24 + ^ r8: .cfa -20 + ^ r9: .cfa -16 + ^
STACK CFI INIT 88e44 4 .cfa: sp 0 + .ra: lr
STACK CFI INIT 88e48 9a .cfa: sp 0 + .ra: lr
STACK CFI 88e4a .cfa: sp 16 +
STACK CFI 88e4c .ra: .cfa -4 + ^ r3: .cfa -16 + ^ r4: .cfa -12 + ^ r5: .cfa -8 + ^
STACK CFI INIT 88ee4 96 .cfa: sp 0 + .ra: lr
STACK CFI 88ee6 .cfa: sp 8 + .ra: .cfa -4 + ^ r4: .cfa -8 + ^
STACK CFI INIT 88f7c 10 .cfa: sp 0 + .ra: lr
STACK CFI 88f7e .cfa: sp 8 + .ra: .cfa -4 + ^ r3: .cfa -8 + ^
STACK CFI INIT 88f8c 18 .cfa: sp 0 + .ra: lr
STACK CFI INIT 88fa4 20 .cfa: sp 0 + .ra: lr
STACK CFI 88fac .cfa: sp 8 +
STACK CFI 88fae .ra: .cfa -4 + ^ r4: .cfa -8 + ^
STACK CFI INIT 88fc4 18 .cfa: sp 0 + .ra: lr
STACK CFI INIT 88fdc 18 .cfa: sp 0 + .ra: lr
STACK CFI INIT 88ff4 c .cfa: sp 0 + .ra: lr
STACK CFI INIT 89000 c .cfa: sp 0 + .ra: lr
STACK CFI INIT 8900c 12 .cfa: sp 0 + .ra: lr
STACK CFI 8900e .cfa: sp 8 +
STACK CFI 89010 .ra: .cfa -4 + ^ r4: .cfa -8 + ^
STACK CFI INIT 89020 12 .cfa: sp 0 + .ra: lr
STACK CFI 89022 .cfa: sp 8 +
STACK CFI 89024 .ra: .cfa -4 + ^ r4: .cfa -8 + ^
STACK CFI INIT 89034 12 .cfa: sp 0 + .ra: lr
STACK CFI 89036 .cfa: sp 8 +
STACK CFI 89038 .ra: .cfa -4 + ^ r4: .cfa -8 + ^
STACK CFI INIT 89048 12 .cfa: sp 0 + .ra: lr
STACK CFI 8904a .cfa: sp 8 +
STACK CFI 8904c .ra: .cfa -4 + ^ r4: .cfa -8 + ^
STACK CFI INIT 8905c 18 .cfa: sp 0 + .ra: lr
STACK CFI 89060 .cfa: sp 4 +
STACK CFI 89064 .ra: .cfa -4 + ^
STACK CFI INIT 89074 18 .cfa: sp 0 + .ra: lr
STACK CFI 89078 .cfa: sp 4 +
STACK CFI 8907c .ra: .cfa -4 + ^
STACK CFI INIT 8908c 3c .cfa: sp 0 + .ra: lr
STACK CFI 89092 .cfa: sp 12 +
STACK CFI 89096 r4: .cfa -12 + ^ r5: .cfa -8 + ^ r6: .cfa -4 + ^
STACK CFI INIT 890c8 ca .cfa: sp 0 + .ra: lr
STACK CFI 890ce .cfa: sp 24 +
STACK CFI 890d0 .ra: .cfa -4 + ^ r4: .cfa -24 + ^ r5: .cfa -20 + ^ r6: .cfa -16 + ^ r7: .cfa -12 + ^ r8: .cfa -8 + ^
STACK CFI 890d2 .cfa: sp 40 +
STACK CFI INIT 89194 4c .cfa: sp 0 + .ra: lr
STACK CFI 89198 .cfa: sp 8 +
STACK CFI 8919a .ra: .cfa -4 + ^ r4: .cfa -8 + ^
STACK CFI INIT 891e0 8a .cfa: sp 0 + .ra: lr
STACK CFI 891e2 .cfa: sp 24 +
STACK CFI 891e4 .ra: .cfa -4 + ^ r3: .cfa -24 + ^ r4: .cfa -20 + ^ r5: .cfa -16 + ^ r6: .cfa -12 + ^ r7: .cfa -8 + ^
STACK CFI INIT 8926c 3dc .cfa: sp 0 + .ra: lr
STACK CFI 89274 .cfa: sp 36 +
STACK CFI 89276 .ra: .cfa -4 + ^ r10: .cfa -12 + ^ r11: .cfa -8 + ^ r4: .cfa -36 + ^ r5: .cfa -32 + ^ r6: .cfa -28 + ^ r7: .cfa -24 + ^ r8: .cfa -20 + ^ r9: .cfa -16 + ^
STACK CFI 89278 .cfa: sp 120 +
STACK CFI INIT 89648 2 .cfa: sp 0 + .ra: lr
STACK CFI INIT 8964c 50 .cfa: sp 0 + .ra: lr
STACK CFI 8964e .cfa: sp 16 +
STACK CFI 89654 .ra: .cfa -4 + ^ r4: .cfa -16 + ^ r5: .cfa -12 + ^ r6: .cfa -8 + ^
STACK CFI INIT 8969c 6 .cfa: sp 0 + .ra: lr
STACK CFI INIT 896a4 16 .cfa: sp 0 + .ra: lr
STACK CFI 896a6 .cfa: sp 4 +
STACK CFI 896a8 .cfa: sp 16 +
STACK CFI 896ae r4: .cfa -4 + ^
STACK CFI INIT 896bc 22 .cfa: sp 0 + .ra: lr
STACK CFI INIT 896e0 10 .cfa: sp 0 + .ra: lr
STACK CFI 896e4 .cfa: sp 8 +
STACK CFI 896e6 .ra: .cfa -4 + ^ r4: .cfa -8 + ^
STACK CFI INIT 896f0 e .cfa: sp 0 + .ra: lr
STACK CFI 896f2 .cfa: sp 8 +
STACK CFI 896f4 .ra: .cfa -4 + ^ r4: .cfa -8 + ^
STACK CFI INIT 89700 4c .cfa: sp 0 + .ra: lr
STACK CFI 89704 .cfa: sp 8 +
STACK CFI 89706 .ra: .cfa -4 + ^ r4: .cfa -8 + ^
STACK CFI INIT 8974c c .cfa: sp 0 + .ra: lr
STACK CFI 8974e .cfa: sp 8 +
STACK CFI 89750 .ra: .cfa -4 + ^ r4: .cfa -8 + ^
STACK CFI INIT 89758 4 .cfa: sp 0 + .ra: lr
STACK CFI INIT 8975c a .cfa: sp 0 + .ra: lr
STACK CFI INIT 89768 20 .cfa: sp 0 + .ra: lr
STACK CFI 8976a .cfa: sp 8 +
STACK CFI 8976c .cfa: sp 16 +
STACK CFI 8976e .ra: .cfa -4 + ^ r4: .cfa -8 + ^
STACK CFI INIT 89788 c .cfa: sp 0 + .ra: lr
STACK CFI INIT 89794 24 .cfa: sp 0 + .ra: lr
STACK CFI INIT 897b8 8 .cfa: sp 0 + .ra: lr
STACK CFI INIT 897c0 e .cfa: sp 0 + .ra: lr
STACK CFI INIT 897d0 e .cfa: sp 0 + .ra: lr
STACK CFI 897d2 .cfa: sp 8 + .ra: .cfa -4 + ^ r3: .cfa -8 + ^
STACK CFI INIT 897e0 6e .cfa: sp 0 + .ra: lr
STACK CFI 897e2 .cfa: sp 8 +
STACK CFI 897e4 .ra: .cfa -4 + ^ r4: .cfa -8 + ^
STACK CFI INIT 89850 a4 .cfa: sp 0 + .ra: lr
STACK CFI 89852 .cfa: sp 24 + .ra: .cfa -4 + ^ r3: .cfa -24 + ^ r4: .cfa -20 + ^ r5: .cfa -16 + ^ r6: .cfa -12 + ^ r7: .cfa -8 + ^
STACK CFI INIT 898f4 10 .cfa: sp 0 + .ra: lr
STACK CFI 898f6 .cfa: sp 8 + .ra: .cfa -4 + ^ r3: .cfa -8 + ^
STACK CFI INIT 89904 18 .cfa: sp 0 + .ra: lr
STACK CFI 89906 .cfa: sp 8 +
STACK CFI 89908 .ra: .cfa -4 + ^ r3: .cfa -8 + ^
STACK CFI INIT 8991c 8 .cfa: sp 0 + .ra: lr
STACK CFI 8991e .cfa: sp 8 + .ra: .cfa -4 + ^ r3: .cfa -8 + ^
STACK CFI INIT 89924 18 .cfa: sp 0 + .ra: lr
STACK CFI 89926 .cfa: sp 8 +
STACK CFI 89928 .ra: .cfa -4 + ^ r3: .cfa -8 + ^
STACK CFI INIT 8993c 18 .cfa: sp 0 + .ra: lr
STACK CFI INIT 89954 18 .cfa: sp 0 + .ra: lr
STACK CFI INIT 8996c 4a .cfa: sp 0 + .ra: lr
STACK CFI 89974 .cfa: sp 8 +
STACK CFI 89976 .ra: .cfa -4 + ^ r4: .cfa -8 + ^
STACK CFI INIT 899b8 88 .cfa: sp 0 + .ra: lr
STACK CFI 899ba .cfa: sp 24 +
STACK CFI 899be .ra: .cfa -4 + ^ r3: .cfa -24 + ^ r4: .cfa -20 + ^ r5: .cfa -16 + ^ r6: .cfa -12 + ^ r7: .cfa -8 + ^
STACK CFI INIT 89a40 76 .cfa: sp 0 + .ra: lr
STACK CFI 89a42 .cfa: sp 8 + .ra: .cfa -4 + ^ r4: .cfa -8 + ^
STACK CFI INIT 89ab8 1a .cfa: sp 0 + .ra: lr
STACK CFI 89aba .cfa: sp 8 + .ra: .cfa -4 + ^ r3: .cfa -8 + ^
STACK CFI INIT 89ad4 20 .cfa: sp 0 + .ra: lr
STACK CFI 89adc .cfa: sp 8 +
STACK CFI 89ade .ra: .cfa -4 + ^ r4: .cfa -8 + ^
STACK CFI INIT 89af4 12 .cfa: sp 0 + .ra: lr
STACK CFI 89af6 .cfa: sp 8 +
STACK CFI 89af8 .ra: .cfa -4 + ^ r4: .cfa -8 + ^
STACK CFI INIT 89b08 4 .cfa: sp 0 + .ra: lr
STACK CFI INIT 89b0c 20 .cfa: sp 0 + .ra: lr
STACK CFI 89b14 .cfa: sp 8 +
STACK CFI 89b16 .ra: .cfa -4 + ^ r4: .cfa -8 + ^
STACK CFI INIT 89b2c 12 .cfa: sp 0 + .ra: lr
STACK CFI 89b2e .cfa: sp 8 +
STACK CFI 89b30 .ra: .cfa -4 + ^ r4: .cfa -8 + ^
STACK CFI INIT 89b40 20 .cfa: sp 0 + .ra: lr
STACK CFI 89b48 .cfa: sp 8 +
STACK CFI 89b4a .ra: .cfa -4 + ^ r4: .cfa -8 + ^
STACK CFI INIT 89b60 12 .cfa: sp 0 + .ra: lr
STACK CFI 89b62 .cfa: sp 8 +
STACK CFI 89b64 .ra: .cfa -4 + ^ r4: .cfa -8 + ^
STACK CFI INIT 89b74 d0 .cfa: sp 0 + .ra: lr
STACK CFI 89b76 .cfa: sp 20 +
STACK CFI 89b78 .ra: .cfa -4 + ^ r4: .cfa -20 + ^ r5: .cfa -16 + ^ r6: .cfa -12 + ^ r7: .cfa -8 + ^
STACK CFI 89b7c .cfa: sp 32 +
STACK CFI INIT 89c44 4c .cfa: sp 0 + .ra: lr
STACK CFI 89c4e .cfa: sp 8 +
STACK CFI 89c54 r4: .cfa -8 + ^ r5: .cfa -4 + ^
STACK CFI INIT 89c90 50 .cfa: sp 0 + .ra: lr
STACK CFI 89c9a .cfa: sp 4 +
STACK CFI 89ca0 r4: .cfa -4 + ^
STACK CFI INIT 89ce0 c .cfa: sp 0 + .ra: lr
STACK CFI INIT 89cec 20 .cfa: sp 0 + .ra: lr
STACK CFI 89cf4 .cfa: sp 8 +
STACK CFI 89cf6 .ra: .cfa -4 + ^ r4: .cfa -8 + ^
STACK CFI INIT 89d0c 12 .cfa: sp 0 + .ra: lr
STACK CFI 89d0e .cfa: sp 8 +
STACK CFI 89d10 .ra: .cfa -4 + ^ r4: .cfa -8 + ^
STACK CFI INIT 89d20 18 .cfa: sp 0 + .ra: lr
STACK CFI INIT 89d38 6c .cfa: sp 0 + .ra: lr
STACK CFI 89d3a .cfa: sp 16 +
STACK CFI 89d42 .ra: .cfa -4 + ^ r4: .cfa -16 + ^ r5: .cfa -12 + ^ r6: .cfa -8 + ^
STACK CFI INIT 89da4 5c .cfa: sp 0 + .ra: lr
STACK CFI 89da6 .cfa: sp 16 +
STACK CFI 89dae .ra: .cfa -4 + ^ r3: .cfa -16 + ^ r4: .cfa -12 + ^ r5: .cfa -8 + ^
STACK CFI INIT 89e00 16 .cfa: sp 0 + .ra: lr
STACK CFI 89e02 .cfa: sp 8 + .ra: .cfa -4 + ^ r3: .cfa -8 + ^
STACK CFI INIT 89e18 4 .cfa: sp 0 + .ra: lr
STACK CFI INIT 89e1c 12 .cfa: sp 0 + .ra: lr
STACK CFI 89e1e .cfa: sp 8 +
STACK CFI 89e22 .ra: .cfa -4 + ^ r4: .cfa -8 + ^
STACK CFI INIT 89e30 6e .cfa: sp 0 + .ra: lr
STACK CFI 89e34 .cfa: sp 24 +
STACK CFI 89e36 .ra: .cfa -4 + ^ r4: .cfa -24 + ^ r5: .cfa -20 + ^ r6: .cfa -16 + ^ r7: .cfa -12 + ^ r8: .cfa -8 + ^
STACK CFI INIT 89ea0 20 .cfa: sp 0 + .ra: lr
STACK CFI 89ea8 .cfa: sp 8 +
STACK CFI 89eaa .ra: .cfa -4 + ^ r4: .cfa -8 + ^
STACK CFI INIT 89ec0 12 .cfa: sp 0 + .ra: lr
STACK CFI 89ec2 .cfa: sp 8 +
STACK CFI 89ec4 .ra: .cfa -4 + ^ r4: .cfa -8 + ^
STACK CFI INIT 89ed4 26 .cfa: sp 0 + .ra: lr
STACK CFI 89ed6 .cfa: sp 24 +
STACK CFI 89ed8 .ra: .cfa -4 + ^ r3: .cfa -24 + ^ r4: .cfa -20 + ^ r5: .cfa -16 + ^ r6: .cfa -12 + ^ r7: .cfa -8 + ^
STACK CFI INIT 89efc 20 .cfa: sp 0 + .ra: lr
STACK CFI 89f04 .cfa: sp 8 +
STACK CFI 89f06 .ra: .cfa -4 + ^ r4: .cfa -8 + ^
STACK CFI INIT 89f1c 12 .cfa: sp 0 + .ra: lr
STACK CFI 89f1e .cfa: sp 8 +
STACK CFI 89f20 .ra: .cfa -4 + ^ r4: .cfa -8 + ^
STACK CFI INIT 89f30 4 .cfa: sp 0 + .ra: lr
STACK CFI INIT 89f34 54 .cfa: sp 0 + .ra: lr
STACK CFI 89f36 .cfa: sp 16 +
STACK CFI 89f3a .ra: .cfa -4 + ^ r4: .cfa -16 + ^ r5: .cfa -12 + ^ r6: .cfa -8 + ^
STACK CFI 89f3c .cfa: sp 24 +
STACK CFI INIT 89f88 20 .cfa: sp 0 + .ra: lr
STACK CFI 89f90 .cfa: sp 8 +
STACK CFI 89f92 .ra: .cfa -4 + ^ r4: .cfa -8 + ^
STACK CFI INIT 89fa8 12 .cfa: sp 0 + .ra: lr
STACK CFI 89faa .cfa: sp 8 +
STACK CFI 89fac .ra: .cfa -4 + ^ r4: .cfa -8 + ^
STACK CFI INIT 89fbc 20 .cfa: sp 0 + .ra: lr
STACK CFI 89fc4 .cfa: sp 8 +
STACK CFI 89fc6 .ra: .cfa -4 + ^ r4: .cfa -8 + ^
STACK CFI INIT 89fdc 12 .cfa: sp 0 + .ra: lr
STACK CFI 89fde .cfa: sp 8 +
STACK CFI 89fe0 .ra: .cfa -4 + ^ r4: .cfa -8 + ^
STACK CFI INIT 89ff0 26 .cfa: sp 0 + .ra: lr
STACK CFI 89ff2 .cfa: sp 24 +
STACK CFI 89ff4 .ra: .cfa -4 + ^ r3: .cfa -24 + ^ r4: .cfa -20 + ^ r5: .cfa -16 + ^ r6: .cfa -12 + ^ r7: .cfa -8 + ^
STACK CFI INIT 8a018 90 .cfa: sp 0 + .ra: lr
STACK CFI 8a01c .cfa: sp 36 +
STACK CFI 8a01e .cfa: sp 64 +
STACK CFI 8a020 .ra: .cfa -4 + ^ r10: .cfa -12 + ^ r11: .cfa -8 + ^ r4: .cfa -36 + ^ r5: .cfa -32 + ^ r6: .cfa -28 + ^ r7: .cfa -24 + ^ r8: .cfa -20 + ^ r9: .cfa -16 + ^
STACK CFI INIT 8a0a8 36 .cfa: sp 0 + .ra: lr
STACK CFI 8a0aa .cfa: sp 16 +
STACK CFI 8a0ac .cfa: sp 32 +
STACK CFI 8a0ae .ra: .cfa -4 + ^ r4: .cfa -16 + ^ r5: .cfa -12 + ^ r6: .cfa -8 + ^
STACK CFI INIT 8a0e0 20 .cfa: sp 0 + .ra: lr
STACK CFI 8a0e8 .cfa: sp 8 +
STACK CFI 8a0ea .ra: .cfa -4 + ^ r4: .cfa -8 + ^
STACK CFI INIT 8a100 12 .cfa: sp 0 + .ra: lr
STACK CFI 8a102 .cfa: sp 8 +
STACK CFI 8a104 .ra: .cfa -4 + ^ r4: .cfa -8 + ^
STACK CFI INIT 8a114 18 .cfa: sp 0 + .ra: lr
STACK CFI INIT 8a12c 4 .cfa: sp 0 + .ra: lr
STACK CFI INIT 8a130 4 .cfa: sp 0 + .ra: lr
STACK CFI INIT 8a134 4 .cfa: sp 0 + .ra: lr
STACK CFI INIT 8a138 12 .cfa: sp 0 + .ra: lr
STACK CFI 8a13a .cfa: sp 8 +
STACK CFI 8a13c .ra: .cfa -4 + ^ r4: .cfa -8 + ^
STACK CFI INIT 8a14c 3a .cfa: sp 0 + .ra: lr
STACK CFI 8a150 .cfa: sp 8 +
STACK CFI 8a152 .ra: .cfa -4 + ^ r3: .cfa -8 + ^
STACK CFI INIT 8a188 4 .cfa: sp 0 + .ra: lr
STACK CFI INIT 8a18c 40 .cfa: sp 0 + .ra: lr
STACK CFI 8a190 .cfa: sp 8 +
STACK CFI 8a192 .ra: .cfa -4 + ^ r3: .cfa -8 + ^
STACK CFI INIT 8a1cc 22 .cfa: sp 0 + .ra: lr
STACK CFI 8a1ce .cfa: sp 16 +
STACK CFI 8a1d0 .ra: .cfa -4 + ^ r4: .cfa -16 + ^ r5: .cfa -12 + ^ r6: .cfa -8 + ^
STACK CFI INIT 8a1f0 10 .cfa: sp 0 + .ra: lr
STACK CFI 8a1f2 .cfa: sp 8 +
STACK CFI 8a1f4 .ra: .cfa -4 + ^ r4: .cfa -8 + ^
STACK CFI INIT 8a200 40 .cfa: sp 0 + .ra: lr
STACK CFI 8a202 .cfa: sp 24 +
STACK CFI 8a204 .ra: .cfa -4 + ^ r3: .cfa -24 + ^ r4: .cfa -20 + ^ r5: .cfa -16 + ^ r6: .cfa -12 + ^ r7: .cfa -8 + ^
STACK CFI INIT 8a240 6e .cfa: sp 0 + .ra: lr
STACK CFI 8a244 .cfa: sp 32 +
STACK CFI 8a246 .ra: .cfa -4 + ^ r10: .cfa -8 + ^ r4: .cfa -32 + ^ r5: .cfa -28 + ^ r6: .cfa -24 + ^ r7: .cfa -20 + ^ r8: .cfa -16 + ^ r9: .cfa -12 + ^
STACK CFI 8a248 .cfa: sp 40 +
STACK CFI INIT 8a2b0 78 .cfa: sp 0 + .ra: lr
STACK CFI 8a2b4 .cfa: sp 36 +
STACK CFI 8a2b6 .cfa: sp 48 +
STACK CFI 8a2b8 .ra: .cfa -4 + ^ r10: .cfa -12 + ^ r11: .cfa -8 + ^ r4: .cfa -36 + ^ r5: .cfa -32 + ^ r6: .cfa -28 + ^ r7: .cfa -24 + ^ r8: .cfa -20 + ^ r9: .cfa -16 + ^
STACK CFI INIT 8a328 6c .cfa: sp 0 + .ra: lr
STACK CFI 8a32c .cfa: sp 32 +
STACK CFI 8a32e .ra: .cfa -4 + ^ r10: .cfa -8 + ^ r4: .cfa -32 + ^ r5: .cfa -28 + ^ r6: .cfa -24 + ^ r7: .cfa -20 + ^ r8: .cfa -16 + ^ r9: .cfa -12 + ^
STACK CFI 8a330 .cfa: sp 40 +
STACK CFI INIT 8a394 70 .cfa: sp 0 + .ra: lr
STACK CFI 8a398 .cfa: sp 28 +
STACK CFI 8a39a .cfa: sp 48 +
STACK CFI 8a39e .ra: .cfa -4 + ^ r4: .cfa -28 + ^ r5: .cfa -24 + ^ r6: .cfa -20 + ^ r7: .cfa -16 + ^ r8: .cfa -12 + ^ r9: .cfa -8 + ^
STACK CFI INIT 8a404 6c .cfa: sp 0 + .ra: lr
STACK CFI 8a408 .cfa: sp 28 +
STACK CFI 8a40a .cfa: sp 48 +
STACK CFI 8a40c .ra: .cfa -4 + ^ r4: .cfa -28 + ^ r5: .cfa -24 + ^ r6: .cfa -20 + ^ r7: .cfa -16 + ^ r8: .cfa -12 + ^ r9: .cfa -8 + ^
STACK CFI INIT 8a470 30 .cfa: sp 0 + .ra: lr
STACK CFI 8a472 .cfa: sp 12 +
STACK CFI 8a474 .cfa: sp 32 +
STACK CFI 8a476 .ra: .cfa -4 + ^ r4: .cfa -12 + ^ r5: .cfa -8 + ^
STACK CFI INIT 8a4a0 4e .cfa: sp 0 + .ra: lr
STACK CFI 8a4a2 .cfa: sp 20 +
STACK CFI 8a4a4 .cfa: sp 32 +
STACK CFI 8a4a6 .ra: .cfa -4 + ^ r4: .cfa -20 + ^ r5: .cfa -16 + ^ r6: .cfa -12 + ^ r7: .cfa -8 + ^
STACK CFI INIT 8a4f0 20 .cfa: sp 0 + .ra: lr
STACK CFI 8a4f2 .cfa: sp 12 +
STACK CFI 8a4f4 .cfa: sp 24 +
STACK CFI 8a4f6 .ra: .cfa -4 + ^ r4: .cfa -12 + ^ r5: .cfa -8 + ^
STACK CFI INIT 8a510 58 .cfa: sp 0 + .ra: lr
STACK CFI 8a512 .cfa: sp 20 +
STACK CFI 8a514 .cfa: sp 32 +
STACK CFI 8a516 .ra: .cfa -4 + ^ r4: .cfa -20 + ^ r5: .cfa -16 + ^ r6: .cfa -12 + ^ r7: .cfa -8 + ^
STACK CFI INIT 8a568 16 .cfa: sp 0 + .ra: lr
STACK CFI 8a56a .cfa: sp 8 +
STACK CFI 8a56c .ra: .cfa -4 + ^ r4: .cfa -8 + ^
STACK CFI 8a56e .cfa: sp 16 +
STACK CFI INIT 8a580 24 .cfa: sp 0 + .ra: lr
STACK CFI 8a582 .cfa: sp 12 +
STACK CFI 8a584 .ra: .cfa -4 + ^ r4: .cfa -12 + ^ r5: .cfa -8 + ^
STACK CFI 8a586 .cfa: sp 24 +
STACK CFI INIT 8a5a4 1a .cfa: sp 0 + .ra: lr
STACK CFI 8a5a6 .cfa: sp 8 +
STACK CFI 8a5a8 .cfa: sp 16 +
STACK CFI 8a5aa .ra: .cfa -4 + ^ r4: .cfa -8 + ^
STACK CFI INIT 8a5c0 1a .cfa: sp 0 + .ra: lr
STACK CFI 8a5c2 .cfa: sp 8 +
STACK CFI 8a5c6 .ra: .cfa -4 + ^ r4: .cfa -8 + ^
STACK CFI 8a5c8 .cfa: sp 16 +
STACK CFI INIT 8a5dc 1a .cfa: sp 0 + .ra: lr
STACK CFI 8a5de .cfa: sp 12 +
STACK CFI 8a5e0 .ra: .cfa -4 + ^ r4: .cfa -12 + ^ r5: .cfa -8 + ^
STACK CFI 8a5e4 .cfa: sp 24 +
STACK CFI INIT 8a5f8 1a .cfa: sp 0 + .ra: lr
STACK CFI 8a5fa .cfa: sp 8 +
STACK CFI 8a5fc .ra: .cfa -4 + ^ r4: .cfa -8 + ^
STACK CFI 8a5fe .cfa: sp 16 +
STACK CFI INIT 8a614 1a .cfa: sp 0 + .ra: lr
STACK CFI 8a616 .cfa: sp 12 +
STACK CFI 8a618 .cfa: sp 24 +
STACK CFI 8a61a .ra: .cfa -4 + ^ r4: .cfa -12 + ^ r5: .cfa -8 + ^
STACK CFI INIT 8a630 14 .cfa: sp 0 + .ra: lr
STACK CFI 8a632 .cfa: sp 16 +
STACK CFI 8a634 .ra: .cfa -4 + ^ r3: .cfa -16 + ^ r4: .cfa -12 + ^ r5: .cfa -8 + ^
STACK CFI INIT 8a644 1c .cfa: sp 0 + .ra: lr
STACK CFI 8a646 .cfa: sp 8 +
STACK CFI 8a64a .ra: .cfa -4 + ^ r4: .cfa -8 + ^
STACK CFI INIT 8a660 10 .cfa: sp 0 + .ra: lr
STACK CFI INIT 8a670 1a .cfa: sp 0 + .ra: lr
STACK CFI 8a672 .cfa: sp 8 +
STACK CFI 8a676 .cfa: sp 16 +
STACK CFI 8a678 .ra: .cfa -4 + ^ r4: .cfa -8 + ^
STACK CFI INIT 8a68c 1a .cfa: sp 0 + .ra: lr
STACK CFI 8a68e .cfa: sp 8 +
STACK CFI 8a690 .cfa: sp 16 +
STACK CFI 8a692 .ra: .cfa -4 + ^ r4: .cfa -8 + ^
STACK CFI INIT 8a6a8 d2 .cfa: sp 0 + .ra: lr
STACK CFI 8a6ac .cfa: sp 36 +
STACK CFI 8a6ae .cfa: sp 48 +
STACK CFI 8a6b0 .ra: .cfa -4 + ^ r10: .cfa -12 + ^ r11: .cfa -8 + ^ r4: .cfa -36 + ^ r5: .cfa -32 + ^ r6: .cfa -28 + ^ r7: .cfa -24 + ^ r8: .cfa -20 + ^ r9: .cfa -16 + ^
STACK CFI INIT 8a77c 152 .cfa: sp 0 + .ra: lr
STACK CFI 8a780 .cfa: sp 36 +
STACK CFI 8a782 .cfa: sp 72 +
STACK CFI 8a784 .ra: .cfa -4 + ^ r10: .cfa -12 + ^ r11: .cfa -8 + ^ r4: .cfa -36 + ^ r5: .cfa -32 + ^ r6: .cfa -28 + ^ r7: .cfa -24 + ^ r8: .cfa -20 + ^ r9: .cfa -16 + ^
STACK CFI INIT 8a8d0 20 .cfa: sp 0 + .ra: lr
STACK CFI 8a8d8 .cfa: sp 8 +
STACK CFI 8a8da .ra: .cfa -4 + ^ r4: .cfa -8 + ^
STACK CFI INIT 8a8f0 12 .cfa: sp 0 + .ra: lr
STACK CFI 8a8f2 .cfa: sp 8 +
STACK CFI 8a8f4 .ra: .cfa -4 + ^ r4: .cfa -8 + ^
STACK CFI INIT 8a904 360 .cfa: sp 0 + .ra: lr
STACK CFI 8a908 .cfa: sp 36 +
STACK CFI 8a90a .cfa: sp 112 +
STACK CFI 8a90c .ra: .cfa -4 + ^ r10: .cfa -12 + ^ r11: .cfa -8 + ^ r4: .cfa -36 + ^ r5: .cfa -32 + ^ r6: .cfa -28 + ^ r7: .cfa -24 + ^ r8: .cfa -20 + ^ r9: .cfa -16 + ^
STACK CFI INIT 8ac64 124 .cfa: sp 0 + .ra: lr
STACK CFI 8ac68 .cfa: sp 16 +
STACK CFI 8ac6c .ra: .cfa -4 + ^ r4: .cfa -16 + ^ r5: .cfa -12 + ^ r6: .cfa -8 + ^
STACK CFI 8ac6e .cfa: sp 24 +
STACK CFI INIT 8ad88 18 .cfa: sp 0 + .ra: lr
STACK CFI 8ad8e .cfa: sp 8 +
STACK CFI 8ad92 .ra: .cfa -4 + ^ r3: .cfa -8 + ^
STACK CFI INIT 8ada0 a4 .cfa: sp 0 + .ra: lr
STACK CFI 8ada2 .cfa: sp 12 +
STACK CFI 8ada4 r4: .cfa -12 + ^ r5: .cfa -8 + ^ r6: .cfa -4 + ^
STACK CFI INIT 8ae44 4c .cfa: sp 0 + .ra: lr
STACK CFI 8ae46 .cfa: sp 8 +
STACK CFI 8ae4a r4: .cfa -8 + ^ r5: .cfa -4 + ^
STACK CFI INIT 8ae90 94 .cfa: sp 0 + .ra: lr
STACK CFI 8ae92 .cfa: sp 24 +
STACK CFI 8ae94 .ra: .cfa -4 + ^ r3: .cfa -24 + ^ r4: .cfa -20 + ^ r5: .cfa -16 + ^ r6: .cfa -12 + ^ r7: .cfa -8 + ^
STACK CFI INIT 8af24 1c0 .cfa: sp 0 + .ra: lr
STACK CFI 8af2c .cfa: sp 20 +
STACK CFI 8af32 r4: .cfa -20 + ^ r5: .cfa -16 + ^ r6: .cfa -12 + ^ r7: .cfa -8 + ^ r8: .cfa -4 + ^
STACK CFI INIT 8b0e4 f4 .cfa: sp 0 + .ra: lr
STACK CFI 8b0e6 .cfa: sp 16 +
STACK CFI 8b0e8 .ra: .cfa -4 + ^ r3: .cfa -16 + ^ r4: .cfa -12 + ^ r5: .cfa -8 + ^
STACK CFI INIT 8b1d8 86 .cfa: sp 0 + .ra: lr
STACK CFI 8b1da .cfa: sp 20 +
STACK CFI 8b1dc .ra: .cfa -4 + ^ r4: .cfa -20 + ^ r5: .cfa -16 + ^ r6: .cfa -12 + ^ r7: .cfa -8 + ^
STACK CFI 8b1e0 .cfa: sp 32 +
STACK CFI INIT 8b260 52 .cfa: sp 0 + .ra: lr
STACK CFI 8b264 .cfa: sp 8 +
STACK CFI 8b266 r4: .cfa -8 + ^ r5: .cfa -4 + ^
STACK CFI INIT 8b2b4 5a .cfa: sp 0 + .ra: lr
STACK CFI 8b2b6 .cfa: sp 16 +
STACK CFI 8b2b8 .ra: .cfa -4 + ^ r3: .cfa -16 + ^ r4: .cfa -12 + ^ r5: .cfa -8 + ^
STACK CFI INIT 8b310 36 .cfa: sp 0 + .ra: lr
STACK CFI 8b314 .cfa: sp 8 +
STACK CFI 8b316 .ra: .cfa -4 + ^ r4: .cfa -8 + ^
STACK CFI INIT 8b348 48 .cfa: sp 0 + .ra: lr
STACK CFI 8b34a .cfa: sp 16 +
STACK CFI 8b34c .ra: .cfa -4 + ^ r3: .cfa -16 + ^ r4: .cfa -12 + ^ r5: .cfa -8 + ^
STACK CFI INIT 8b390 1e .cfa: sp 0 + .ra: lr
STACK CFI 8b392 .cfa: sp 8 +
STACK CFI 8b394 .ra: .cfa -4 + ^ r3: .cfa -8 + ^
STACK CFI INIT 8b3b0 9c .cfa: sp 0 + .ra: lr
STACK CFI 8b3b2 .cfa: sp 16 +
STACK CFI 8b3b4 .ra: .cfa -4 + ^ r4: .cfa -16 + ^ r5: .cfa -12 + ^ r6: .cfa -8 + ^
STACK CFI INIT 8b44c 76c .cfa: sp 0 + .ra: lr
STACK CFI 8b450 .cfa: sp 20 +
STACK CFI 8b452 .ra: .cfa -4 + ^ r4: .cfa -20 + ^ r5: .cfa -16 + ^ r6: .cfa -12 + ^ r7: .cfa -8 + ^
STACK CFI 8b456 .cfa: sp 32 +
STACK CFI INIT 8bbb8 96 .cfa: sp 0 + .ra: lr
STACK CFI 8bbba .cfa: sp 16 +
STACK CFI 8bbbc .ra: .cfa -4 + ^ r4: .cfa -16 + ^ r5: .cfa -12 + ^ r6: .cfa -8 + ^
STACK CFI 8bbbe .cfa: sp 24 +
STACK CFI INIT 8bc50 3c .cfa: sp 0 + .ra: lr
STACK CFI 8bc54 .cfa: sp 16 +
STACK CFI 8bc56 .ra: .cfa -4 + ^ r4: .cfa -16 + ^ r5: .cfa -12 + ^ r6: .cfa -8 + ^
STACK CFI INIT 8bc8c 110 .cfa: sp 0 + .ra: lr
STACK CFI 8bc92 .cfa: sp 32 +
STACK CFI 8bc94 .ra: .cfa -4 + ^ r10: .cfa -8 + ^ r4: .cfa -32 + ^ r5: .cfa -28 + ^ r6: .cfa -24 + ^ r7: .cfa -20 + ^ r8: .cfa -16 + ^ r9: .cfa -12 + ^
STACK CFI INIT 8bd9c 22a .cfa: sp 0 + .ra: lr
STACK CFI 8bda2 .cfa: sp 24 +
STACK CFI 8bda4 .ra: .cfa -4 + ^ r4: .cfa -24 + ^ r5: .cfa -20 + ^ r6: .cfa -16 + ^ r7: .cfa -12 + ^ r8: .cfa -8 + ^
STACK CFI INIT 8bfc8 b0 .cfa: sp 0 + .ra: lr
STACK CFI 8bfcc .cfa: sp 16 +
STACK CFI 8bfce .ra: .cfa -4 + ^ r4: .cfa -16 + ^ r5: .cfa -12 + ^ r6: .cfa -8 + ^
STACK CFI 8bfd2 .cfa: sp 24 +
STACK CFI INIT 8c078 2ec .cfa: sp 0 + .ra: lr
STACK CFI 8c07c .cfa: sp 20 +
STACK CFI 8c07e .ra: .cfa -4 + ^ r4: .cfa -20 + ^ r5: .cfa -16 + ^ r6: .cfa -12 + ^ r7: .cfa -8 + ^
STACK CFI 8c082 .cfa: sp 32 +
STACK CFI INIT 8c364 566 .cfa: sp 0 + .ra: lr
STACK CFI 8c36a .cfa: sp 32 +
STACK CFI 8c36c .ra: .cfa -4 + ^ r10: .cfa -8 + ^ r4: .cfa -32 + ^ r5: .cfa -28 + ^ r6: .cfa -24 + ^ r7: .cfa -20 + ^ r8: .cfa -16 + ^ r9: .cfa -12 + ^
STACK CFI INIT 8c8cc 22 .cfa: sp 0 + .ra: lr
STACK CFI INIT 8c8f0 c6 .cfa: sp 0 + .ra: lr
STACK CFI 8c8f4 .cfa: sp 16 +
STACK CFI 8c8f6 .ra: .cfa -4 + ^ r4: .cfa -16 + ^ r5: .cfa -12 + ^ r6: .cfa -8 + ^
STACK CFI INIT 8c9b8 29e .cfa: sp 0 + .ra: lr
STACK CFI 8c9bc .cfa: sp 20 +
STACK CFI 8c9be .ra: .cfa -4 + ^ r4: .cfa -20 + ^ r5: .cfa -16 + ^ r6: .cfa -12 + ^ r7: .cfa -8 + ^
STACK CFI 8c9c2 .cfa: sp 32 +
STACK CFI INIT 8cc58 5c .cfa: sp 0 + .ra: lr
STACK CFI 8cc5e .cfa: sp 16 +
STACK CFI 8cc60 .cfa: sp 24 +
STACK CFI 8cc62 .ra: .cfa -4 + ^ r4: .cfa -16 + ^ r5: .cfa -12 + ^ r6: .cfa -8 + ^
STACK CFI INIT 8ccb4 152 .cfa: sp 0 + .ra: lr
STACK CFI 8ccb8 .cfa: sp 40 +
STACK CFI 8ccba .ra: .cfa -4 + ^ r10: .cfa -12 + ^ r11: .cfa -8 + ^ r3: .cfa -40 + ^ r4: .cfa -36 + ^ r5: .cfa -32 + ^ r6: .cfa -28 + ^ r7: .cfa -24 + ^ r8: .cfa -20 + ^ r9: .cfa -16 + ^
STACK CFI INIT 8ce08 528c .cfa: sp 0 + .ra: lr
STACK CFI 8ce0c .cfa: sp 36 +
STACK CFI 8ce0e .ra: .cfa -4 + ^ r10: .cfa -12 + ^ r11: .cfa -8 + ^ r4: .cfa -36 + ^ r5: .cfa -32 + ^ r6: .cfa -28 + ^ r7: .cfa -24 + ^ r8: .cfa -20 + ^ r9: .cfa -16 + ^
STACK CFI 8ce10 .cfa: sp 144 +
STACK CFI INIT 92094 eec .cfa: sp 0 + .ra: lr
STACK CFI 92096 .cfa: sp 16 +
STACK CFI 92098 .ra: .cfa -4 + ^ r4: .cfa -16 + ^ r5: .cfa -12 + ^ r6: .cfa -8 + ^
STACK CFI INIT 92f80 6a4 .cfa: sp 0 + .ra: lr
STACK CFI 92f84 .cfa: sp 36 +
STACK CFI 92f86 .ra: .cfa -4 + ^ r10: .cfa -12 + ^ r11: .cfa -8 + ^ r4: .cfa -36 + ^ r5: .cfa -32 + ^ r6: .cfa -28 + ^ r7: .cfa -24 + ^ r8: .cfa -20 + ^ r9: .cfa -16 + ^
STACK CFI 92f88 .cfa: sp 80 +
STACK CFI INIT 93624 1d4 .cfa: sp 0 + .ra: lr
STACK CFI 93626 .cfa: sp 24 +
STACK CFI 93628 .ra: .cfa -4 + ^ r3: .cfa -24 + ^ r4: .cfa -20 + ^ r5: .cfa -16 + ^ r6: .cfa -12 + ^ r7: .cfa -8 + ^
STACK CFI INIT 937f8 1e6 .cfa: sp 0 + .ra: lr
STACK CFI 937fc .cfa: sp 24 +
STACK CFI 937fe .ra: .cfa -4 + ^ r4: .cfa -24 + ^ r5: .cfa -20 + ^ r6: .cfa -16 + ^ r7: .cfa -12 + ^ r8: .cfa -8 + ^
STACK CFI INIT 939e0 162 .cfa: sp 0 + .ra: lr
STACK CFI 939e4 .cfa: sp 20 +
STACK CFI 939e6 .ra: .cfa -4 + ^ r4: .cfa -20 + ^ r5: .cfa -16 + ^ r6: .cfa -12 + ^ r7: .cfa -8 + ^
STACK CFI 939ea .cfa: sp 32 +
STACK CFI INIT 93b44 12c .cfa: sp 0 + .ra: lr
STACK CFI 93b4a .cfa: sp 36 +
STACK CFI 93b4e .cfa: sp 40 +
STACK CFI 93b50 .ra: .cfa -4 + ^ r10: .cfa -12 + ^ r11: .cfa -8 + ^ r4: .cfa -36 + ^ r5: .cfa -32 + ^ r6: .cfa -28 + ^ r7: .cfa -24 + ^ r8: .cfa -20 + ^ r9: .cfa -16 + ^
STACK CFI INIT 93c70 a6 .cfa: sp 0 + .ra: lr
STACK CFI 93c74 .cfa: sp 16 +
STACK CFI 93c7e .ra: .cfa -4 + ^ r4: .cfa -16 + ^ r5: .cfa -12 + ^ r6: .cfa -8 + ^
STACK CFI INIT 93d18 1d0 .cfa: sp 0 + .ra: lr
STACK CFI 93d1c .cfa: sp 28 +
STACK CFI 93d1e .cfa: sp 384 +
STACK CFI 93d20 .ra: .cfa -4 + ^ r4: .cfa -28 + ^ r5: .cfa -24 + ^ r6: .cfa -20 + ^ r7: .cfa -16 + ^ r8: .cfa -12 + ^ r9: .cfa -8 + ^
STACK CFI 93d22 .cfa: r7 384 +
STACK CFI INIT 93ee8 d8 .cfa: sp 0 + .ra: lr
STACK CFI 93eec .cfa: sp 24 +
STACK CFI 93eee .ra: .cfa -4 + ^ r4: .cfa -24 + ^ r5: .cfa -20 + ^ r6: .cfa -16 + ^ r7: .cfa -12 + ^ r8: .cfa -8 + ^
STACK CFI 93ef0 .cfa: sp 40 +
STACK CFI INIT 93fc0 2a .cfa: sp 0 + .ra: lr
STACK CFI 93fc2 .cfa: sp 8 +
STACK CFI 93fc6 .ra: .cfa -4 + ^ r3: .cfa -8 + ^
STACK CFI INIT 93ff0 8 .cfa: sp 0 + .ra: lr
