MODULE Linux arm 7E6C5B689A4D00A2324EC0A88325FF190 libxml2.so.2.7.8
FUNC 1a5fc 1a8 0 initxmlDefaultSAXHandler
FUNC 1a7a4 130 0 inithtmlDefaultSAXHandler
FUNC 1a8d4 160 0 initdocbDefaultSAXHandler
FUNC 1aa34 13c 0 xmlDumpEntityContent
FUNC 1ab70 30 0 xmlEntitiesErr
FUNC 1aba0 28 0 xmlEntitiesErrMemory
FUNC 1abc8 e4 0 xmlCopyEntity
FUNC 1acac 220 0 xmlFreeEntity
FUNC 1aecc c 0 xmlFreeEntityWrapper
FUNC 1aed8 174 0 xmlCreateEntity
FUNC 1b04c 140 0 xmlAddEntity
FUNC 1b18c 150 0 xmlGetPredefinedEntity__internal_alias
FUNC 1b2dc ac 0 xmlAddDtdEntity__internal_alias
FUNC 1b388 ac 0 xmlAddDocEntity__internal_alias
FUNC 1b434 6c 0 xmlNewEntity__internal_alias
FUNC 1b4a0 60 0 xmlGetParameterEntity__internal_alias
FUNC 1b500 24 0 xmlGetDtdEntity__internal_alias
FUNC 1b524 74 0 xmlGetDocEntity__internal_alias
FUNC 1b598 49c 0 xmlEncodeEntitiesReentrant__internal_alias
FUNC 1ba34 224 0 xmlEncodeSpecialChars__internal_alias
FUNC 1bc58 8 0 xmlCreateEntitiesTable__internal_alias
FUNC 1bc60 10 0 xmlFreeEntitiesTable__internal_alias
FUNC 1bc70 10 0 xmlCopyEntitiesTable__internal_alias
FUNC 1bc80 368 0 xmlDumpEntityDecl__internal_alias
FUNC 1bfe8 10 0 xmlDumpEntityDeclScan
FUNC 1bff8 18 0 xmlDumpEntitiesTable__internal_alias
FUNC 1c010 134 0 asciiToUTF8
FUNC 1c144 208 0 UTF8Toascii
FUNC 1c34c 1a8 0 isolat1ToUTF8
FUNC 1c4f4 210 0 UTF8Toisolat1
FUNC 1c704 27c 0 UTF16LEToUTF8
FUNC 1c980 2c0 0 UTF8ToUTF16LE
FUNC 1cc40 54 0 UTF8ToUTF16
FUNC 1cc94 28c 0 UTF16BEToUTF8
FUNC 1cf20 2c8 0 UTF8ToUTF16BE
FUNC 1d1e8 d8 0 xmlIconvWrapper
FUNC 1d2c0 68 0 xmlEncodingErr
FUNC 1d328 28 0 xmlEncodingErrMemory
FUNC 1d350 6c 0 UTF8ToUTF8
FUNC 1d3bc 1e4 0 xmlDetectCharEncoding__internal_alias
FUNC 1d5a0 dc 0 xmlCleanupEncodingAliases__internal_alias
FUNC 1d67c 16c 0 xmlGetEncodingAlias__internal_alias
FUNC 1d7e8 2ac 0 xmlAddEncodingAlias__internal_alias
FUNC 1da94 170 0 xmlDelEncodingAlias__internal_alias
FUNC 1dc04 3e0 0 xmlParseCharEncoding__internal_alias
FUNC 1dfe4 1bc 0 xmlGetCharEncodingName__internal_alias
FUNC 1e1a0 ec 0 xmlCleanupCharEncodingHandlers__internal_alias
FUNC 1e28c c0 0 xmlRegisterCharEncodingHandler__internal_alias
FUNC 1e34c 184 0 xmlNewCharEncodingHandler__internal_alias
FUNC 1e4d0 218 0 xmlInitCharEncodingHandlers__internal_alias
FUNC 1e6e8 34c 0 xmlFindCharEncodingHandler__internal_alias
FUNC 1ea34 334 0 xmlGetCharEncodingHandler__internal_alias
FUNC 1ed68 184 0 xmlCharEncFirstLineInt
FUNC 1eeec 8 0 xmlCharEncFirstLine__internal_alias
FUNC 1eef4 1b8 0 xmlCharEncInFunc__internal_alias
FUNC 1f0ac 2dc 0 xmlCharEncOutFunc__internal_alias
FUNC 1f388 d8 0 xmlCharEncCloseFunc__internal_alias
FUNC 1f460 1a8 0 xmlByteConsumed__internal_alias
FUNC 1f608 2a4 0 xmlParserPrintFileContextInternal
FUNC 1f8ac 6bc 0 xmlReportError
FUNC 1ff68 70 0 xmlGenericErrorDefaultFunc
FUNC 1ffd8 40 0 initGenericErrorDefaultFunc
FUNC 20018 4c 0 xmlSetGenericErrorFunc__internal_alias
FUNC 20064 20 0 xmlSetStructuredErrorFunc__internal_alias
FUNC 20084 6c 0 xmlParserPrintFileInfo__internal_alias
FUNC 200f0 28 0 xmlParserPrintFileContext__internal_alias
FUNC 20118 24c 0 xmlParserValidityWarning__internal_alias
FUNC 20364 2ac 0 xmlParserValidityError__internal_alias
FUNC 20610 274 0 xmlParserWarning__internal_alias
FUNC 20884 274 0 xmlParserError__internal_alias
FUNC 20af8 1c 0 xmlGetLastError__internal_alias
FUNC 20b14 f8 0 xmlResetError__internal_alias
FUNC 20c0c 20 0 xmlResetLastError__internal_alias
FUNC 20c2c 1c 0 xmlCtxtGetLastError__internal_alias
FUNC 20c48 24 0 xmlCtxtResetLastError__internal_alias
FUNC 20c6c 15c 0 xmlCopyError__internal_alias
FUNC 20dc8 738 0 __xmlRaiseError
FUNC 21500 13c 0 __xmlSimpleError
FUNC 2163c f0 0 xmlErrInternal
FUNC 2172c 290 0 xmlSwitchInputEncodingInt
FUNC 219bc 58 0 xmlSwitchToEncodingInt
FUNC 21a14 f8 0 xmlErrEncodingInt
FUNC 21b0c c8 0 xmlCheckVersion__internal_alias
FUNC 21bd4 114 0 xmlErrMemory__internal_alias
FUNC 21ce8 100 0 __xmlErrEncoding
FUNC 21de8 bc 0 xmlIsLetter__internal_alias
FUNC 21ea4 cc 0 xmlParserInputRead__internal_alias
FUNC 21f70 ac 0 xmlParserInputGrow__internal_alias
FUNC 2201c e8 0 xmlParserInputShrink__internal_alias
FUNC 22104 3e0 0 xmlNextChar__internal_alias
FUNC 224e4 3bc 0 xmlCurrentChar__internal_alias
FUNC 228a0 238 0 xmlStringCurrentChar__internal_alias
FUNC 22ad8 140 0 xmlCopyCharMultiByte__internal_alias
FUNC 22c18 24 0 xmlCopyChar__internal_alias
FUNC 22c3c 42c 0 xmlSwitchEncoding__internal_alias
FUNC 23068 8 0 xmlSwitchInputEncoding__internal_alias
FUNC 23070 8 0 xmlSwitchToEncoding__internal_alias
FUNC 23078 bc 0 xmlFreeInputStream__internal_alias
FUNC 23134 90 0 xmlNewInputStream__internal_alias
FUNC 231c4 9c 0 xmlNewIOInputStream__internal_alias
FUNC 23260 180 0 xmlNewEntityInputStream__internal_alias
FUNC 233e0 b0 0 xmlNewStringInputStream__internal_alias
FUNC 23490 198 0 xmlNewInputFromFile__internal_alias
FUNC 23628 428 0 xmlInitParserCtxt__internal_alias
FUNC 23a50 29c 0 xmlFreeParserCtxt__internal_alias
FUNC 23cec 78 0 xmlNewParserCtxt__internal_alias
FUNC 23d64 54 0 xmlClearParserCtxt__internal_alias
FUNC 23db8 18 0 xmlInitNodeInfoSeq__internal_alias
FUNC 23dd0 4c 0 xmlClearNodeInfoSeq__internal_alias
FUNC 23e1c c0 0 xmlParserFindNodeInfoIndex__internal_alias
FUNC 23edc 60 0 xmlParserFindNodeInfo__internal_alias
FUNC 23f3c 234 0 xmlParserAddNodeInfo__internal_alias
FUNC 24170 20 0 xmlPedanticParserDefault__internal_alias
FUNC 24190 20 0 xmlLineNumbersDefault__internal_alias
FUNC 241b0 20 0 xmlSubstituteEntitiesDefault__internal_alias
FUNC 241d0 34 0 xmlKeepBlanksDefault__internal_alias
FUNC 24204 98 0 xmlAttrNormalizeSpace
FUNC 2429c 44 0 spacePop
FUNC 242e0 28 0 deallocblankswrapper
FUNC 24308 b4 0 xmlGetNamespace
FUNC 243bc 284 0 xmlCheckCdataPush
FUNC 24640 2d8 0 xmlCtxtUseOptionsInternal
FUNC 24918 1c4 0 nsPush
FUNC 24adc 9c 0 spacePush
FUNC 24b78 f4 0 xmlCtxtGrowAttrs
FUNC 24c6c f4 0 xmlFatalErrMsgStr
FUNC 24d60 614 0 xmlFatalErr
FUNC 25374 e8 0 xmlParserEntityCheck
FUNC 2545c 108 0 xmlFatalErrMsg
FUNC 25564 118 0 xmlValidityError
FUNC 2567c 138 0 xmlErrAttributeDup
FUNC 257b4 104 0 xmlNsErr
FUNC 258b8 10c 0 xmlFatalErrMsgStrIntStr
FUNC 259c4 f4 0 xmlFatalErrMsgInt
FUNC 25ab8 98 0 xmlErrMsgStr
FUNC 25b50 d8 0 xmlDetectSAX2
FUNC 25c28 2bc 0 xmlParseGetLasts
FUNC 25ee4 4c 0 xmlCleanSpecialAttr
FUNC 25f30 1c 0 xmlCleanSpecialAttrCallback
FUNC 25f4c 140 0 xmlNewBlanksWrapperInputStream
FUNC 2608c 1dc 0 areBlanks
FUNC 26268 200 0 xmlParseLookupSequence
FUNC 26468 d0 0 nsPop
FUNC 26538 1d0 0 xmlIsNameStartChar
FUNC 26708 288 0 xmlIsNameChar
FUNC 26990 220 0 xmlParseStringName
FUNC 26bb0 a0 0 xmlNsWarn
FUNC 26c50 108 0 xmlWarningMsg
FUNC 26d58 28 0 xmlHasFeature__internal_alias
FUNC 26d80 320 0 xmlCheckLanguageID__internal_alias
FUNC 270a0 b4 0 inputPush__internal_alias
FUNC 27154 164 0 xmlCreateEntityParserCtxtInternal
FUNC 272b8 4c 0 inputPop__internal_alias
FUNC 27304 e0 0 nodePush__internal_alias
FUNC 273e4 4c 0 nodePop__internal_alias
FUNC 27430 b4 0 namePush__internal_alias
FUNC 274e4 4c 0 namePop__internal_alias
FUNC 27530 bc 0 xmlPopInput__internal_alias
FUNC 275ec 4c 0 xmlGROW
FUNC 27638 40 0 xmlSHRINK
FUNC 27678 e0 0 xmlPushInput__internal_alias
FUNC 27758 4d0 0 xmlSplitQName__internal_alias
FUNC 27c28 2d0 0 xmlParsePubidLiteral__internal_alias
FUNC 27ef8 198 0 xmlParseVersionNum__internal_alias
FUNC 28090 208 0 xmlParseEncName__internal_alias
FUNC 28298 348 0 xmlParseEncodingDecl__internal_alias
FUNC 285e0 2dc 0 xmlParseTextDecl__internal_alias
FUNC 288bc 3f4 0 xmlParserHandlePEReference__internal_alias
FUNC 28cb0 254 0 xmlParseNCName
FUNC 28f04 5c4 0 xmlParseCDSect__internal_alias
FUNC 294c8 c90 0 xmlParseComment__internal_alias
FUNC 2a158 484 0 xmlParseCharDataComplex
FUNC 2a5dc 498 0 xmlParseCharData__internal_alias
FUNC 2aa74 390 0 xmlParseSystemLiteral__internal_alias
FUNC 2ae04 30c 0 xmlParseNmtoken__internal_alias
FUNC 2b110 82c 0 xmlParseName__internal_alias
FUNC 2b93c 288 0 xmlParseQName
FUNC 2bbc4 e0 0 xmlParseNameAndCompare
FUNC 2bca4 304 0 xmlParseEntityRef__internal_alias
FUNC 2bfa8 148 0 xmlParsePITarget__internal_alias
FUNC 2c0f0 10a8 0 xmlStringLenDecodeEntities__internal_alias
FUNC 2d198 5c 0 xmlStringDecodeEntities__internal_alias
FUNC 2d1f4 4c4 0 xmlParseEntityValue__internal_alias
FUNC 2d6b8 4b8 0 xmlParseCharRef__internal_alias
FUNC 2db70 fb4 0 xmlParseAttValueInternal
FUNC 2eb24 30 0 xmlParseAttValue__internal_alias
FUNC 2eb54 1ac 0 xmlSkipBlankChars__internal_alias
FUNC 2ed00 162c 0 xmlParseStartTag2
FUNC 3032c 1c8 0 xmlParseAttribute__internal_alias
FUNC 304f4 604 0 xmlParseStartTag__internal_alias
FUNC 30af8 7d8 0 xmlParseElementChildrenContentDeclPriv
FUNC 312d0 8 0 xmlParseElementChildrenContentDecl__internal_alias
FUNC 312d8 1f0 0 xmlParseEnumerationType__internal_alias
FUNC 314c8 1e0 0 xmlParseNotationType__internal_alias
FUNC 316a8 404 0 xmlParseEndTag2
FUNC 31aac 234 0 xmlParseEndTag1
FUNC 31ce0 8 0 xmlParseEndTag__internal_alias
FUNC 31ce8 1d4 0 xmlParseVersionInfo__internal_alias
FUNC 31ebc 480 0 xmlParseElementMixedContentDecl__internal_alias
FUNC 3233c 144 0 xmlParseElementContentDecl__internal_alias
FUNC 32480 4a4 0 xmlParseElementDecl__internal_alias
FUNC 32924 15c 0 xmlParseEnumeratedType__internal_alias
FUNC 32a80 598 0 xmlParseAttributeType__internal_alias
FUNC 33018 2fc 0 xmlParseDefaultDecl__internal_alias
FUNC 33314 898 0 xmlParseAttributeListDecl__internal_alias
FUNC 33bac 7bc 0 xmlParsePI__internal_alias
FUNC 34368 398 0 xmlParseExternalID__internal_alias
FUNC 34700 180 0 xmlParseDocTypeDecl__internal_alias
FUNC 34880 978 0 xmlParseEntityDecl__internal_alias
FUNC 351f8 31c 0 xmlParseNotationDecl__internal_alias
FUNC 35514 244 0 xmlParsePEReference__internal_alias
FUNC 35758 7f8 0 xmlParseConditionalSections
FUNC 35f50 1dc 0 xmlParseMarkupDecl__internal_alias
FUNC 3612c 108 0 xmlParseInternalSubset
FUNC 36234 308 0 xmlParseExternalSubset__internal_alias
FUNC 3653c 444 0 xmlParseSDDecl__internal_alias
FUNC 36980 3c4 0 xmlParseXMLDecl__internal_alias
FUNC 36d44 ac 0 xmlParseMisc__internal_alias
FUNC 36df0 2c8 0 xmlCreatePushParserCtxt__internal_alias
FUNC 370b8 38 0 xmlStopParser__internal_alias
FUNC 370f0 150 0 xmlCreateIOParserCtxt__internal_alias
FUNC 37240 278 0 xmlIOParseDTD__internal_alias
FUNC 374b8 28c 0 xmlSAXParseDTD__internal_alias
FUNC 37744 14 0 xmlParseDTD__internal_alias
FUNC 37758 8 0 xmlCreateEntityParserCtxt__internal_alias
FUNC 37760 c8 0 xmlCreateURLParserCtxt__internal_alias
FUNC 37828 8 0 xmlCreateFileParserCtxt__internal_alias
FUNC 37830 88 0 xmlSetupParserForBuffer__internal_alias
FUNC 378b8 c4 0 xmlCreateMemoryParserCtxt__internal_alias
FUNC 3797c 484 0 xmlParseBalancedChunkMemoryInternal
FUNC 37e00 808 0 xmlParseReference__internal_alias
FUNC 38608 1a18 0 xmlParseTryOrFinish
FUNC 3a020 468 0 xmlParseChunk__internal_alias
FUNC 3a488 264 0 xmlParseContent__internal_alias
FUNC 3a6ec 490 0 xmlParseExternalEntityPrivate
FUNC 3ab7c 44 0 xmlParseExternalEntity__internal_alias
FUNC 3abc0 4cc 0 xmlParseCtxtExternalEntity__internal_alias
FUNC 3b08c 2ac 0 xmlParseExtParsedEnt__internal_alias
FUNC 3b338 a4 0 xmlSAXParseEntity__internal_alias
FUNC 3b3dc c 0 xmlParseEntity__internal_alias
FUNC 3b3e8 464 0 xmlParseElement__internal_alias
FUNC 3b84c 388 0 xmlParseBalancedChunkMemoryRecover__internal_alias
FUNC 3bbd4 2c 0 xmlParseBalancedChunkMemory__internal_alias
FUNC 3bc00 44c 0 xmlParseInNodeContext__internal_alias
FUNC 3c04c 20 0 xmlCreateDocParserCtxt__internal_alias
FUNC 3c06c 14 0 xmlSetEntityReferenceFunc__internal_alias
FUNC 3c080 b8 0 xmlInitParser__internal_alias
FUNC 3c138 510 0 xmlParseDocument__internal_alias
FUNC 3c648 cc 0 xmlDoRead
FUNC 3c714 9c 0 xmlSAXParseDoc__internal_alias
FUNC 3c7b0 10 0 xmlParseDoc__internal_alias
FUNC 3c7c0 10 0 xmlRecoverDoc__internal_alias
FUNC 3c7d0 c4 0 xmlSAXUserParseFile__internal_alias
FUNC 3c894 d4 0 xmlSAXUserParseMemory__internal_alias
FUNC 3c968 c8 0 xmlSAXParseMemoryWithData__internal_alias
FUNC 3ca30 1c 0 xmlSAXParseMemory__internal_alias
FUNC 3ca4c 18 0 xmlRecoverMemory__internal_alias
FUNC 3ca64 18 0 xmlParseMemory__internal_alias
FUNC 3ca7c fc 0 xmlSAXParseFileWithData__internal_alias
FUNC 3cb78 8 0 xmlSAXParseFile__internal_alias
FUNC 3cb80 10 0 xmlRecoverFile__internal_alias
FUNC 3cb90 10 0 xmlParseFile__internal_alias
FUNC 3cba0 54 0 xmlCleanupParser__internal_alias
FUNC 3cbf4 2b4 0 xmlCtxtReset__internal_alias
FUNC 3cea8 280 0 xmlCtxtResetPush__internal_alias
FUNC 3d128 8 0 xmlCtxtUseOptions__internal_alias
FUNC 3d130 50 0 xmlReadDoc__internal_alias
FUNC 3d180 44 0 xmlReadFile__internal_alias
FUNC 3d1c4 38 0 xmlReadMemory__internal_alias
FUNC 3d1fc b8 0 xmlReadFd__internal_alias
FUNC 3d2b4 bc 0 xmlReadIO__internal_alias
FUNC 3d370 8c 0 xmlCtxtReadDoc__internal_alias
FUNC 3d3fc 7c 0 xmlCtxtReadFile__internal_alias
FUNC 3d478 cc 0 xmlCtxtReadMemory__internal_alias
FUNC 3d544 c4 0 xmlCtxtReadFd__internal_alias
FUNC 3d608 c4 0 xmlCtxtReadIO__internal_alias
FUNC 3d6cc 88 0 xmlDOMWrapNsMapFree
FUNC 3d754 28 0 xmlTreeErrMemory
FUNC 3d77c 188 0 xmlDOMWrapNsMapAddItem
FUNC 3d904 114 0 xmlDOMWrapNSNormGatherInScopeNs
FUNC 3da18 bc 0 xmlTreeEnsureXMLDecl
FUNC 3dad4 124 0 xmlDOMWrapNSNormAddNsMapItem2
FUNC 3dbf8 a0 0 xmlTreeErr
FUNC 3dc98 ec 0 xmlNsInScope
FUNC 3dd84 e0 0 xmlBuildQName__internal_alias
FUNC 3de64 fc 0 xmlSplitQName2__internal_alias
FUNC 3df60 7c 0 xmlSplitQName3__internal_alias
FUNC 3dfdc 3dc 0 xmlValidateNCName__internal_alias
FUNC 3e3b8 674 0 xmlValidateQName__internal_alias
FUNC 3ea2c 3e4 0 xmlValidateName__internal_alias
FUNC 3ee10 48c 0 xmlValidateNMToken__internal_alias
FUNC 3f29c 1c 0 xmlSetBufferAllocationScheme__internal_alias
FUNC 3f2b8 10 0 xmlGetBufferAllocationScheme__internal_alias
FUNC 3f2c8 c 0 xmlSetNs__internal_alias
FUNC 3f2d4 68 0 xmlFreeNs__internal_alias
FUNC 3f33c 1a0 0 xmlNewNs__internal_alias
FUNC 3f4dc 9c 0 xmlDOMWrapStoreNs
FUNC 3f578 208 0 xmlDOMWrapNSNormDeclareNsForced
FUNC 3f780 278 0 xmlDOMWrapNSNormAquireNormalizedNs
FUNC 3f9f8 24 0 xmlFreeNsList__internal_alias
FUNC 3fa1c 10c 0 xmlNewDtd__internal_alias
FUNC 3fb28 40 0 xmlGetIntSubset__internal_alias
FUNC 3fb68 2c8 0 xmlCreateIntSubset__internal_alias
FUNC 3fe30 128 0 xmlNewDoc__internal_alias
FUNC 3ff58 140 0 xmlNodeListGetString__internal_alias
FUNC 40098 90 0 xmlGetPropNodeValueInternal
FUNC 40128 140 0 xmlNodeListGetRawString__internal_alias
FUNC 40268 100 0 xmlNewDocPI__internal_alias
FUNC 40368 14 0 xmlNewPI__internal_alias
FUNC 4037c c0 0 xmlNewNode__internal_alias
FUNC 4043c b4 0 xmlNewNodeEatName__internal_alias
FUNC 404f0 a8 0 xmlNewDocFragment__internal_alias
FUNC 40598 c8 0 xmlNewText__internal_alias
FUNC 40660 fc 0 xmlNewCharRef__internal_alias
FUNC 4075c 120 0 xmlNewReference__internal_alias
FUNC 4087c 1c 0 xmlNewDocText__internal_alias
FUNC 40898 300 0 xmlNewPropInternal
FUNC 40b98 28 0 xmlNewNsPropEatName__internal_alias
FUNC 40bc0 28 0 xmlNewNsProp__internal_alias
FUNC 40be8 34 0 xmlNewProp__internal_alias
FUNC 40c1c d0 0 xmlNewTextLen__internal_alias
FUNC 40cec 20 0 xmlNewDocTextLen__internal_alias
FUNC 40d0c c8 0 xmlNewComment__internal_alias
FUNC 40dd4 c8 0 xmlNewCDataBlock__internal_alias
FUNC 40e9c 1c 0 xmlNewDocComment__internal_alias
FUNC 40eb8 38 0 xmlSetListDoc__internal_alias
FUNC 40ef0 70 0 xmlSetTreeDoc__internal_alias
FUNC 40f60 c 0 xmlGetLastChild__internal_alias
FUNC 40f6c 6c 0 xmlChildElementCount__internal_alias
FUNC 40fd8 70 0 xmlFirstElementChild__internal_alias
FUNC 41048 70 0 xmlLastElementChild__internal_alias
FUNC 410b8 70 0 xmlPreviousElementSibling__internal_alias
FUNC 41128 70 0 xmlNextElementSibling__internal_alias
FUNC 41198 1ac 0 xmlUnlinkNode__internal_alias
FUNC 41344 20c 0 xmlFreeDoc__internal_alias
FUNC 41550 21c 0 xmlFreeNodeList__internal_alias
FUNC 4176c 100 0 xmlFreeProp__internal_alias
FUNC 4186c a4 0 xmlRemoveProp__internal_alias
FUNC 41910 24 0 xmlFreePropList__internal_alias
FUNC 41934 270 0 xmlFreeNode__internal_alias
FUNC 41ba4 1c0 0 xmlFreeDtd__internal_alias
FUNC 41d64 fc 0 xmlReplaceNode__internal_alias
FUNC 41e60 30 0 xmlCopyNamespace__internal_alias
FUNC 41e90 48 0 xmlCopyNamespaceList__internal_alias
FUNC 41ed8 8c 0 xmlGetLineNo__internal_alias
FUNC 41f64 838 0 xmlGetNodePath__internal_alias
FUNC 4279c 40 0 xmlDocGetRootElement__internal_alias
FUNC 427dc e0 0 xmlNodeSetName__internal_alias
FUNC 428bc 1dc 0 xmlGetNsList__internal_alias
FUNC 42a98 2c8 0 xmlGetPropNodeInternal
FUNC 42d60 238 0 xmlSearchNs__internal_alias
FUNC 42f98 248 0 xmlSearchNsByHref__internal_alias
FUNC 431e0 1b0 0 xmlNewReconciliedNs
FUNC 43390 4e8 0 xmlReconciliateNs__internal_alias
FUNC 43878 d8 0 xmlHasProp__internal_alias
FUNC 43950 8 0 xmlHasNsProp__internal_alias
FUNC 43958 1e8 0 xmlAddChild__internal_alias
FUNC 43b40 134 0 xmlNodeAddContentLen__internal_alias
FUNC 43c74 34 0 xmlNodeAddContent__internal_alias
FUNC 43ca8 6c 0 xmlTextMerge__internal_alias
FUNC 43d14 110 0 xmlAddChildList__internal_alias
FUNC 43e24 dc 0 xmlAddPropSibling
FUNC 43f00 144 0 xmlAddSibling__internal_alias
FUNC 44044 a4 0 xmlDocSetRootElement__internal_alias
FUNC 440e8 170 0 xmlAddNextSibling__internal_alias
FUNC 44258 424 0 xmlStringGetNodeList__internal_alias
FUNC 4467c 14c 0 xmlNodeSetContent__internal_alias
FUNC 447c8 d0 0 xmlNewDocNodeEatName__internal_alias
FUNC 44898 b8 0 xmlNewDocNode__internal_alias
FUNC 44950 ac 0 xmlNewChild__internal_alias
FUNC 449fc 80 0 xmlNewDocRawNode__internal_alias
FUNC 44a7c ac 0 xmlNewTextChild__internal_alias
FUNC 44b28 168 0 xmlNewDocProp__internal_alias
FUNC 44c90 240 0 xmlCopyPropInternal
FUNC 44ed0 14 0 xmlCopyProp__internal_alias
FUNC 44ee4 60 0 xmlCopyPropList__internal_alias
FUNC 44f44 404 0 xmlStaticCopyNode
FUNC 45348 c 0 xmlDocCopyNode__internal_alias
FUNC 45354 10 0 xmlCopyNode__internal_alias
FUNC 45364 1a8 0 xmlCopyDtd__internal_alias
FUNC 4550c cc 0 xmlStaticCopyNodeList
FUNC 455d8 134 0 xmlCopyDoc__internal_alias
FUNC 4570c c 0 xmlCopyNodeList__internal_alias
FUNC 45718 14 0 xmlDocCopyNodeList__internal_alias
FUNC 4572c 5a0 0 xmlStringLenGetNodeList__internal_alias
FUNC 45ccc 164 0 xmlNodeSetContentLen__internal_alias
FUNC 45e30 168 0 xmlAddPrevSibling__internal_alias
FUNC 45f98 18 0 xmlGetProp__internal_alias
FUNC 45fb0 20 0 xmlGetNoNsProp__internal_alias
FUNC 45fd0 1c 0 xmlGetNsProp__internal_alias
FUNC 45fec 2e0 0 xmlNodeGetBase__internal_alias
FUNC 462cc ec 0 xmlNodeGetSpacePreserve__internal_alias
FUNC 463b8 54 0 xmlNodeGetLang__internal_alias
FUNC 4640c 34 0 xmlUnsetProp__internal_alias
FUNC 46440 40 0 xmlUnsetNsProp__internal_alias
FUNC 46480 170 0 xmlSetNsProp__internal_alias
FUNC 465f0 dc 0 xmlSetProp__internal_alias
FUNC 466cc 11c 0 xmlNodeSetBase__internal_alias
FUNC 467e8 98 0 xmlNodeSetSpacePreserve__internal_alias
FUNC 46880 5c 0 xmlNodeSetLang__internal_alias
FUNC 468dc 1c 0 xmlNodeIsText__internal_alias
FUNC 468f8 68 0 xmlIsBlankNode__internal_alias
FUNC 46960 b8 0 xmlTextConcat__internal_alias
FUNC 46a18 cc 0 xmlBufferCreate__internal_alias
FUNC 46ae4 e8 0 xmlBufferCreateSize__internal_alias
FUNC 46bcc 80 0 xmlBufferCreateStatic__internal_alias
FUNC 46c4c 24 0 xmlBufferSetAllocationScheme__internal_alias
FUNC 46c70 84 0 xmlBufferFree__internal_alias
FUNC 46cf4 78 0 xmlBufferEmpty__internal_alias
FUNC 46d6c e4 0 xmlBufferShrink__internal_alias
FUNC 46e50 100 0 xmlBufferGrow__internal_alias
FUNC 46f50 54 0 xmlBufferDump__internal_alias
FUNC 46fa4 c 0 xmlBufferContent__internal_alias
FUNC 46fb0 c 0 xmlBufferLength__internal_alias
FUNC 46fbc 1fc 0 xmlBufferResize__internal_alias
FUNC 471b8 e0 0 xmlBufferAdd__internal_alias
FUNC 47298 148 0 xmlBufferAddHead__internal_alias
FUNC 473e0 2c 0 xmlBufferCat__internal_alias
FUNC 4740c 224 0 xmlNodeBufGetContent__internal_alias
FUNC 47630 164 0 xmlNodeGetContent__internal_alias
FUNC 47794 c0 0 xmlBufferCCat__internal_alias
FUNC 47854 18 0 xmlBufferWriteCHAR__internal_alias
FUNC 4786c 18 0 xmlBufferWriteChar__internal_alias
FUNC 47884 138 0 xmlBufferWriteQuotedString__internal_alias
FUNC 479bc 10 0 xmlGetDocCompressMode__internal_alias
FUNC 479cc 2c 0 xmlSetDocCompressMode__internal_alias
FUNC 479f8 10 0 xmlGetCompressMode__internal_alias
FUNC 47a08 54 0 xmlSetCompressMode__internal_alias
FUNC 47a5c 68 0 xmlDOMWrapNewCtxt__internal_alias
FUNC 47ac4 44 0 xmlDOMWrapFreeCtxt__internal_alias
FUNC 47b08 288 0 xmlDOMWrapRemoveNode__internal_alias
FUNC 47d90 5f4 0 xmlDOMWrapReconcileNamespaces__internal_alias
FUNC 48384 ab8 0 xmlDOMWrapCloneNode__internal_alias
FUNC 48e3c f7c 0 xmlDOMWrapAdoptNode__internal_alias
FUNC 49db8 14 0 stubHashScannerFull
FUNC 49dcc b4 0 xmlHashComputeKey
FUNC 49e80 a0 0 xmlHashCreate__internal_alias
FUNC 49f20 28 0 xmlHashCreateDict__internal_alias
FUNC 49f48 188 0 xmlHashFree__internal_alias
FUNC 4a0d0 4bc 0 xmlHashAddEntry3__internal_alias
FUNC 4a58c 1c 0 xmlHashAddEntry2__internal_alias
FUNC 4a5a8 20 0 xmlHashAddEntry__internal_alias
FUNC 4a5c8 2f8 0 xmlHashUpdateEntry3__internal_alias
FUNC 4a8c0 24 0 xmlHashUpdateEntry2__internal_alias
FUNC 4a8e4 24 0 xmlHashUpdateEntry__internal_alias
FUNC 4a908 f0 0 xmlHashLookup3__internal_alias
FUNC 4a9f8 8 0 xmlHashLookup2__internal_alias
FUNC 4aa00 c 0 xmlHashLookup__internal_alias
FUNC 4aa0c 234 0 xmlHashQLookup3__internal_alias
FUNC 4ac40 28 0 xmlHashQLookup2__internal_alias
FUNC 4ac68 28 0 xmlHashQLookup__internal_alias
FUNC 4ac90 e4 0 xmlHashScanFull__internal_alias
FUNC 4ad74 30 0 xmlHashScan__internal_alias
FUNC 4ada4 104 0 xmlHashScanFull3__internal_alias
FUNC 4aea8 4 0 xmlHashScan3__internal_alias
FUNC 4aeac f8 0 xmlHashCopy__internal_alias
FUNC 4afa4 10 0 xmlHashSize__internal_alias
FUNC 4afb4 1c0 0 xmlHashRemoveEntry3__internal_alias
FUNC 4b174 1c 0 xmlHashRemoveEntry2__internal_alias
FUNC 4b190 20 0 xmlHashRemoveEntry__internal_alias
FUNC 4b1b0 1c 0 xmlLinkCompare
FUNC 4b1cc 8c 0 xmlListLinkSearch
FUNC 4b258 8c 0 xmlListLinkReverseSearch
FUNC 4b2e4 10c 0 xmlListCreate__internal_alias
FUNC 4b3f0 24 0 xmlListSearch__internal_alias
FUNC 4b414 24 0 xmlListReverseSearch__internal_alias
FUNC 4b438 d0 0 xmlListInsert__internal_alias
FUNC 4b508 cc 0 xmlListAppend__internal_alias
FUNC 4b5d4 74 0 xmlListRemoveFirst__internal_alias
FUNC 4b648 74 0 xmlListRemoveLast__internal_alias
FUNC 4b6bc 44 0 xmlListRemoveAll__internal_alias
FUNC 4b700 7c 0 xmlListClear__internal_alias
FUNC 4b77c 44 0 xmlListDelete__internal_alias
FUNC 4b7c0 28 0 xmlListEmpty__internal_alias
FUNC 4b7e8 10 0 xmlListFront__internal_alias
FUNC 4b7f8 10 0 xmlListEnd__internal_alias
FUNC 4b808 3c 0 xmlListSize__internal_alias
FUNC 4b844 6c 0 xmlListPopFront__internal_alias
FUNC 4b8b0 70 0 xmlListPopBack__internal_alias
FUNC 4b920 94 0 xmlListPushFront__internal_alias
FUNC 4b9b4 90 0 xmlListPushBack__internal_alias
FUNC 4ba44 c 0 xmlLinkGetData__internal_alias
FUNC 4ba50 5c 0 xmlListReverse__internal_alias
FUNC 4baac 54 0 xmlListWalk__internal_alias
FUNC 4bb00 54 0 xmlListReverseWalk__internal_alias
FUNC 4bb54 74 0 xmlListCopy__internal_alias
FUNC 4bbc8 40 0 xmlListDup__internal_alias
FUNC 4bc08 18 0 xmlListMerge__internal_alias
FUNC 4bc20 48 0 xmlListSort__internal_alias
FUNC 4bc68 8 0 xmlNop
FUNC 4bc70 8 0 xmlFileMatch__internal_alias
FUNC 4bc78 8 0 endOfInput
FUNC 4bc80 1c8 0 xmlEscapeContent
FUNC 4be48 24 0 xmlIOFTPMatch__internal_alias
FUNC 4be6c 24 0 xmlIOHTTPMatch__internal_alias
FUNC 4be90 28 0 xmlIOErrMemory
FUNC 4beb8 1c 0 xmlBufferWrite
FUNC 4bed4 10 0 xmlIOHTTPClose__internal_alias
FUNC 4bee4 4 0 xmlIOFTPClose__internal_alias
FUNC 4bee8 1c 0 xmlIOFTPRead__internal_alias
FUNC 4bf04 4 0 xmlIOFTPOpen__internal_alias
FUNC 4bf08 1c 0 xmlIOHTTPRead__internal_alias
FUNC 4bf24 8 0 xmlIOHTTPOpen__internal_alias
FUNC 4bf2c 450 0 __xmlIOErr
FUNC 4c37c 14 0 xmlIOErr
FUNC 4c390 40 0 xmlFdWrite
FUNC 4c3d0 34 0 xmlFdClose
FUNC 4c404 34 0 xmlFdRead
FUNC 4c438 44 0 xmlFileFlush
FUNC 4c47c 70 0 xmlFileWrite
FUNC 4c4ec c8 0 xmlFileOpenW
FUNC 4c5b4 cc 0 xmlFileClose__internal_alias
FUNC 4c680 54 0 xmlFileRead__internal_alias
FUNC 4c6d4 e4 0 __xmlLoaderErr
FUNC 4c7b8 4 0 xmlNormalizeWindowsPath__internal_alias
FUNC 4c7bc cc 0 xmlCleanupInputCallbacks__internal_alias
FUNC 4c888 4c 0 xmlPopInputCallbacks__internal_alias
FUNC 4c8d4 cc 0 xmlCleanupOutputCallbacks__internal_alias
FUNC 4c9a0 48 0 xmlCheckFilename__internal_alias
FUNC 4c9e8 5c 0 xmlNoNetExists
FUNC 4ca44 160 0 xmlResolveResourceFromCatalog
FUNC 4cba4 108 0 xmlFileOpen_real
FUNC 4ccac 64 0 xmlFileOpen__internal_alias
FUNC 4cd10 4c 0 xmlRegisterInputCallbacks__internal_alias
FUNC 4cd5c 4c 0 xmlRegisterOutputCallbacks__internal_alias
FUNC 4cda8 c4 0 xmlRegisterDefaultInputCallbacks__internal_alias
FUNC 4ce6c 90 0 xmlRegisterDefaultOutputCallbacks__internal_alias
FUNC 4cefc 58 0 xmlRegisterHTTPPostCallbacks__internal_alias
FUNC 4cf54 10c 0 xmlAllocParserInputBuffer__internal_alias
FUNC 4d060 1c8 0 __xmlParserInputBufferCreateFilename
FUNC 4d228 124 0 xmlAllocOutputBuffer__internal_alias
FUNC 4d34c 128 0 xmlAllocOutputBufferInternal
FUNC 4d474 384 0 __xmlOutputBufferCreateFilename
FUNC 4d7f8 88 0 xmlFreeParserInputBuffer__internal_alias
FUNC 4d880 44 0 xmlParserInputBufferCreateFilename__internal_alias
FUNC 4d8c4 50 0 xmlOutputBufferCreateFilename__internal_alias
FUNC 4d914 70 0 xmlParserInputBufferCreateFile__internal_alias
FUNC 4d984 74 0 xmlOutputBufferCreateFile__internal_alias
FUNC 4d9f8 48 0 xmlParserInputBufferCreateFd__internal_alias
FUNC 4da40 94 0 xmlParserInputBufferCreateMem__internal_alias
FUNC 4dad4 120 0 xmlParserInputBufferCreateStatic__internal_alias
FUNC 4dbf4 40 0 xmlOutputBufferCreateFd__internal_alias
FUNC 4dc34 38 0 xmlParserInputBufferCreateIO__internal_alias
FUNC 4dc6c 38 0 xmlOutputBufferCreateIO__internal_alias
FUNC 4dca4 20 0 xmlOutputBufferCreateBuffer__internal_alias
FUNC 4dcc4 50 0 xmlParserInputBufferCreateFilenameDefault__internal_alias
FUNC 4dd14 50 0 xmlOutputBufferCreateFilenameDefault__internal_alias
FUNC 4dd64 f8 0 xmlParserInputBufferPush__internal_alias
FUNC 4de5c 1c0 0 xmlParserInputBufferGrow__internal_alias
FUNC 4e01c 54 0 xmlParserInputBufferRead__internal_alias
FUNC 4e070 1e0 0 xmlOutputBufferWrite__internal_alias
FUNC 4e250 a4 0 xmlIOHTTPWrite
FUNC 4e2f4 2ec 0 xmlOutputBufferWriteEscape__internal_alias
FUNC 4e5e0 58 0 xmlOutputBufferWriteString__internal_alias
FUNC 4e638 11c 0 xmlOutputBufferFlush__internal_alias
FUNC 4e754 e0 0 xmlOutputBufferClose__internal_alias
FUNC 4e834 60 0 xmlFreeHTTPWriteCtxt
FUNC 4e894 174 0 xmlIOHTTPCloseWrite
FUNC 4ea08 10 0 xmlIOHTTPClosePost
FUNC 4ea18 10 0 xmlIOHTTPClosePut
FUNC 4ea28 d0 0 xmlIOHTTPOpenW__internal_alias
FUNC 4eaf8 8 0 xmlIOHTTPDfltOpenW
FUNC 4eb00 144 0 xmlParserGetDirectory__internal_alias
FUNC 4ec44 1d0 0 xmlCheckHTTPInput__internal_alias
FUNC 4ee14 14 0 xmlSetExternalEntityLoader__internal_alias
FUNC 4ee28 10 0 xmlGetExternalEntityLoader__internal_alias
FUNC 4ee38 b8 0 xmlLoadExternalEntity__internal_alias
FUNC 4eef0 fc 0 xmlNoNetExternalEntityLoader__internal_alias
FUNC 4efec f8 0 xmlDefaultExternalEntityLoader
FUNC 4f0e4 30 0 debugmem_tag_error
FUNC 4f114 34 0 xmlMallocBreakpoint
FUNC 4f148 148 0 xmlMemFree__internal_alias
FUNC 4f290 14 0 xmlMemUsed__internal_alias
FUNC 4f2a4 14 0 xmlMemBlocks__internal_alias
FUNC 4f2b8 80 0 xmlMemDisplayLast__internal_alias
FUNC 4f338 74 0 xmlMemDisplay__internal_alias
FUNC 4f3ac 2c 0 xmlMemShow__internal_alias
FUNC 4f3d8 4 0 xmlMemoryDump__internal_alias
FUNC 4f3dc a4 0 xmlInitMemory__internal_alias
FUNC 4f480 154 0 xmlMemStrdupLoc__internal_alias
FUNC 4f5d4 14 0 xmlMemoryStrdup__internal_alias
FUNC 4f5e8 148 0 xmlMallocAtomicLoc__internal_alias
FUNC 4f730 148 0 xmlMallocLoc__internal_alias
FUNC 4f878 14 0 xmlMemMalloc__internal_alias
FUNC 4f88c 1ac 0 xmlReallocLoc__internal_alias
FUNC 4fa38 14 0 xmlMemRealloc__internal_alias
FUNC 4fa4c 34 0 xmlCleanupMemory__internal_alias
FUNC 4fa80 94 0 xmlMemSetup__internal_alias
FUNC 4fb14 7c 0 xmlMemGet__internal_alias
FUNC 4fb90 a0 0 xmlGcMemSetup__internal_alias
FUNC 4fc30 98 0 xmlGcMemGet__internal_alias
FUNC 4fcc8 84 0 xmlParse3986DecOctet
FUNC 4fd4c 248 0 xmlParse3986Segment
FUNC 4ff94 164 0 xmlCleanURI
FUNC 500f8 94 0 xmlCreateURI__internal_alias
FUNC 5018c 10cc 0 xmlSaveUri__internal_alias
FUNC 51258 48 0 xmlPrintURI__internal_alias
FUNC 512a0 f4 0 xmlFreeURI__internal_alias
FUNC 51394 350 0 xmlNormalizeURIPath__internal_alias
FUNC 516e4 218 0 xmlURIUnescapeString__internal_alias
FUNC 518fc 4c8 0 xmlParse3986Authority
FUNC 51dc4 e0 0 xmlParse3986PathAbEmpty
FUNC 51ea4 11c 0 xmlParse3986PathAbsolute
FUNC 51fc0 224 0 xmlParse3986Query
FUNC 521e4 1f8 0 xmlParse3986Fragment
FUNC 523dc 6ac 0 xmlParse3986URIReference
FUNC 52a88 4 0 xmlParseURIReference__internal_alias
FUNC 52a8c 5c 0 xmlParseURIRaw__internal_alias
FUNC 52ae8 44 0 xmlParseURI__internal_alias
FUNC 52b2c 200 0 xmlURIEscapeStr__internal_alias
FUNC 52d2c 52c 0 xmlURIEscape__internal_alias
FUNC 53258 600 0 xmlBuildURI__internal_alias
FUNC 53858 508 0 xmlBuildRelativeURI__internal_alias
FUNC 53d60 164 0 xmlCanonicPath__internal_alias
FUNC 53ec4 b4 0 xmlPathToURI__internal_alias
FUNC 53f78 7c 0 xmlFreeNotation
FUNC 53ff4 8 0 xmlDummyCompare
FUNC 53ffc 18 0 xmlValidateAttributeIdCallback
FUNC 54014 c 0 xmlNoValidityErr
FUNC 54020 114 0 xmlErrValid
FUNC 54134 c4 0 xmlErrValidNode
FUNC 541f8 c4 0 xmlErrValidNodeNr
FUNC 542bc 11c 0 xmlVErrMemory
FUNC 543d8 108 0 nodeVPush
FUNC 544e0 c4 0 xmlErrValidWarning
FUNC 545a4 98 0 xmlCopyNotation
FUNC 5463c 3c 0 xmlValidateCheckRefCallback
FUNC 54678 1bc 0 xmlIsDocNameStartChar
FUNC 54834 274 0 xmlIsDocNameChar
FUNC 54aa8 118 0 xmlValidateNamesValueInternal
FUNC 54bc0 a8 0 xmlValidateNameValueInternal
FUNC 54c68 138 0 xmlValidateNmtokensValueInternal
FUNC 54da0 a8 0 xmlValidateNmtokenValueInternal
FUNC 54e48 5c 0 xmlValidateAttributeValueInternal
FUNC 54ea4 c 0 xmlFreeRefList
FUNC 54eb0 34 0 xmlWalkRemoveRef
FUNC 54ee4 6c 0 xmlFreeRef
FUNC 54f50 b4 0 xmlFreeID
FUNC 55004 70 0 xmlDumpEnumeration
FUNC 55074 214 0 xmlDumpElementContent
FUNC 55288 3f4 0 xmlValidBuildAContentModel
FUNC 5567c a8 0 xmlScanIDAttributeDecl
FUNC 55724 58 0 xmlNewValidCtxt__internal_alias
FUNC 5577c 64 0 xmlFreeValidCtxt__internal_alias
FUNC 557e0 1bc 0 xmlNewDocElementContent__internal_alias
FUNC 5599c 14 0 xmlNewElementContent__internal_alias
FUNC 559b0 234 0 xmlCopyDocElementContent__internal_alias
FUNC 55be4 c 0 xmlCopyElementContent__internal_alias
FUNC 55bf0 e4 0 xmlCopyElement
FUNC 55cd4 154 0 xmlFreeDocElementContent__internal_alias
FUNC 55e28 88 0 xmlFreeElement
FUNC 55eb0 c 0 xmlFreeElementContent__internal_alias
FUNC 55ebc 4 0 xmlSprintfElementContent__internal_alias
FUNC 55ec0 38c 0 xmlSnprintfElementContent__internal_alias
FUNC 5624c 198 0 xmlValidBuildContentModel__internal_alias
FUNC 563e4 724 0 xmlValidateElementContent
FUNC 56b08 51c 0 xmlAddElementDecl__internal_alias
FUNC 57024 10 0 xmlFreeElementTable__internal_alias
FUNC 57034 10 0 xmlCopyElementTable__internal_alias
FUNC 57044 224 0 xmlDumpElementDecl__internal_alias
FUNC 57268 10 0 xmlDumpElementDeclScan
FUNC 57278 24 0 xmlDumpElementTable__internal_alias
FUNC 5729c 70 0 xmlCreateEnumeration__internal_alias
FUNC 5730c 70 0 xmlFreeEnumeration__internal_alias
FUNC 5737c 18c 0 xmlFreeAttribute
FUNC 57508 3c 0 xmlCopyEnumeration__internal_alias
FUNC 57544 d4 0 xmlCopyAttribute
FUNC 57618 5f4 0 xmlAddAttributeDecl__internal_alias
FUNC 57c0c 10 0 xmlFreeAttributeTable__internal_alias
FUNC 57c1c 10 0 xmlCopyAttributeTable__internal_alias
FUNC 57c2c 2a8 0 xmlDumpAttributeDecl__internal_alias
FUNC 57ed4 10 0 xmlDumpAttributeDeclScan
FUNC 57ee4 24 0 xmlDumpAttributeTable__internal_alias
FUNC 57f08 160 0 xmlAddNotationDecl__internal_alias
FUNC 58068 10 0 xmlFreeNotationTable__internal_alias
FUNC 58078 10 0 xmlCopyNotationTable__internal_alias
FUNC 58088 c8 0 xmlDumpNotationDecl__internal_alias
FUNC 58150 10 0 xmlDumpNotationDeclScan
FUNC 58160 24 0 xmlDumpNotationTable__internal_alias
FUNC 58184 1b0 0 xmlAddID__internal_alias
FUNC 58334 10 0 xmlFreeIDTable__internal_alias
FUNC 58344 cc 0 xmlRemoveID__internal_alias
FUNC 58410 48 0 xmlGetID__internal_alias
FUNC 58458 2d8 0 xmlWalkValidateList
FUNC 58730 228 0 xmlAddRef__internal_alias
FUNC 58958 10 0 xmlFreeRefTable__internal_alias
FUNC 58968 f0 0 xmlRemoveRef__internal_alias
FUNC 58a58 28 0 xmlGetRefs__internal_alias
FUNC 58a80 b0 0 xmlGetDtdElementDesc__internal_alias
FUNC 58b30 18 0 xmlGetDtdQElementDesc__internal_alias
FUNC 58b48 148 0 xmlValidGetElemDecl
FUNC 58c90 d0 0 xmlGetDtdAttrDesc__internal_alias
FUNC 58d60 dc 0 xmlIsRef__internal_alias
FUNC 58e3c 2b0 0 xmlIsID__internal_alias
FUNC 590ec 28 0 xmlGetDtdQAttrDesc__internal_alias
FUNC 59114 18 0 xmlGetDtdNotationDesc__internal_alias
FUNC 5912c 2b0 0 xmlValidateAttributeValue2
FUNC 593dc 1fc 0 xmlValidateAttributeCallback
FUNC 595d8 b4 0 xmlValidateNotationUse__internal_alias
FUNC 5968c 44 0 xmlValidateNotationCallback
FUNC 596d0 78 0 xmlIsMixedElement__internal_alias
FUNC 59748 c 0 xmlValidateNameValue__internal_alias
FUNC 59754 c 0 xmlValidateNamesValue__internal_alias
FUNC 59760 c 0 xmlValidateNmtokenValue__internal_alias
FUNC 5976c c 0 xmlValidateNmtokensValue__internal_alias
FUNC 59778 8 0 xmlValidateNotationDecl__internal_alias
FUNC 59780 14 0 xmlValidateAttributeValue__internal_alias
FUNC 59794 284 0 xmlValidCtxtNormalizeAttributeValue__internal_alias
FUNC 59a18 18c 0 xmlValidNormalizeAttributeValue__internal_alias
FUNC 59ba4 2c4 0 xmlValidateAttributeDecl__internal_alias
FUNC 59e68 354 0 xmlValidateElementDecl__internal_alias
FUNC 5a1bc 51c 0 xmlValidateOneAttribute__internal_alias
FUNC 5a6d8 6f8 0 xmlValidateOneNamespace__internal_alias
FUNC 5add0 500 0 xmlValidatePushElement__internal_alias
FUNC 5b2d0 180 0 xmlValidatePushCData__internal_alias
FUNC 5b450 134 0 xmlValidatePopElement__internal_alias
FUNC 5b584 bbc 0 xmlValidateOneElement__internal_alias
FUNC 5c140 1ac 0 xmlValidateRoot__internal_alias
FUNC 5c2ec 178 0 xmlValidateElement__internal_alias
FUNC 5c464 70 0 xmlValidateDocumentFinal__internal_alias
FUNC 5c4d4 b4 0 xmlValidateDtd__internal_alias
FUNC 5c588 e8 0 xmlValidateDtdFinal__internal_alias
FUNC 5c670 1f8 0 xmlValidateDocument__internal_alias
FUNC 5c868 160 0 xmlValidGetPotentialChildren__internal_alias
FUNC 5c9c8 2e8 0 xmlValidGetValidElements__internal_alias
FUNC 5ccb0 10 0 xlinkGetDefaultHandler
FUNC 5ccc0 14 0 xlinkSetDefaultHandler
FUNC 5ccd4 14 0 xlinkGetDefaultDetect
FUNC 5cce8 14 0 xlinkSetDefaultDetect
FUNC 5ccfc 194 0 xlinkIsLink
FUNC 5ce90 44 0 htmlnamePop
FUNC 5ced4 f8 0 htmlAutoCloseOnEnd
FUNC 5cfcc f8 0 htmlParseErr
FUNC 5d0c4 114 0 htmlErrMemory
FUNC 5d1d8 b8 0 htmlNodeInfoPush
FUNC 5d290 228 0 htmlCheckEncoding
FUNC 5d4b8 fc 0 htmlnamePush
FUNC 5d5b4 2c0 0 htmlCheckImplied
FUNC 5d874 60 0 htmlGetEndPriority
FUNC 5d8d4 110 0 htmlSkipBlankChars
FUNC 5d9e4 228 0 htmlParseHTMLName
FUNC 5dc0c 178 0 htmlParseSystemLiteral
FUNC 5dd84 2d4 0 areBlanks
FUNC 5e058 b0 0 htmlParserFinishElementParsing
FUNC 5e108 228 0 htmlParseLookupSequence
FUNC 5e330 18c 0 htmlParseLookupChars
FUNC 5e4bc 1f4 0 htmlParseHTMLName_nonInvasive
FUNC 5e6b0 ec 0 htmlParseErrInt
FUNC 5e79c 4c4 0 htmlCurrentChar
FUNC 5ec60 2c8 0 htmlParseScript
FUNC 5ef28 480 0 htmlParseComment
FUNC 5f3a8 418 0 htmlParseName
FUNC 5f7c0 4bc 0 htmlParseDocTypeDecl
FUNC 5fc7c 4c8 0 htmlParsePI
FUNC 60144 c8 0 htmlInitAutoClose__internal_alias
FUNC 6020c f0 0 htmlCheckAutoClose
FUNC 602fc 80 0 htmlAutoClose
FUNC 6037c 144 0 htmlCheckParagraph
FUNC 604c0 3ac 0 htmlParseCharData
FUNC 6086c 7c 0 htmlTagLookup__internal_alias
FUNC 608e8 4a8 0 htmlParseEndTag
FUNC 60d90 8c 0 htmlAutoCloseTag__internal_alias
FUNC 60e1c 58 0 htmlIsAutoClosed__internal_alias
FUNC 60e74 8c 0 htmlIsScriptAttribute__internal_alias
FUNC 60f00 9c 0 htmlEntityLookup__internal_alias
FUNC 60f9c 88 0 htmlEntityValueLookup__internal_alias
FUNC 61024 34c 0 UTF8ToHtml
FUNC 61370 384 0 htmlEncodeEntities__internal_alias
FUNC 616f4 d8 0 htmlNewDocNoDtD__internal_alias
FUNC 617cc 2c 0 htmlNewDoc__internal_alias
FUNC 617f8 12c 0 htmlParseEntityRef__internal_alias
FUNC 61924 2d0 0 htmlParseCharRef__internal_alias
FUNC 61bf4 674 0 htmlParseHTMLAttribute
FUNC 62268 980 0 htmlParseStartTag
FUNC 62be8 364 0 htmlParseReference
FUNC 62f4c 658 0 htmlParseContentInternal
FUNC 635a4 768 0 htmlParseElement__internal_alias
FUNC 63d0c c 0 __htmlParseContent
FUNC 63d18 3a4 0 htmlParseDocument__internal_alias
FUNC 640bc 4 0 htmlFreeParserCtxt__internal_alias
FUNC 640c0 278 0 htmlNewParserCtxt__internal_alias
FUNC 64338 ac 0 htmlCreateMemoryParserCtxt__internal_alias
FUNC 643e4 110 0 htmlCreateDocParserCtxt
FUNC 644f4 1330 0 htmlParseChunk__internal_alias
FUNC 65824 28c 0 htmlCreatePushParserCtxt__internal_alias
FUNC 65ab0 ac 0 htmlSAXParseDoc__internal_alias
FUNC 65b5c c 0 htmlParseDoc__internal_alias
FUNC 65b68 14c 0 htmlCreateFileParserCtxt__internal_alias
FUNC 65cb4 70 0 htmlSAXParseFile__internal_alias
FUNC 65d24 c 0 htmlParseFile__internal_alias
FUNC 65d30 1c 0 htmlHandleOmittedElem__internal_alias
FUNC 65d4c 60 0 htmlElementAllowedHere__internal_alias
FUNC 65dac 44 0 htmlElementStatusHere__internal_alias
FUNC 65df0 e8 0 htmlAttrAllowed__internal_alias
FUNC 65ed8 a0 0 htmlNodeStatus__internal_alias
FUNC 65f78 2b0 0 htmlCtxtReset__internal_alias
FUNC 66228 120 0 htmlCtxtUseOptions__internal_alias
FUNC 66348 104 0 htmlDoRead
FUNC 6644c 5c 0 htmlReadDoc__internal_alias
FUNC 664a8 50 0 htmlReadFile__internal_alias
FUNC 664f8 74 0 htmlReadMemory__internal_alias
FUNC 6656c bc 0 htmlReadFd__internal_alias
FUNC 66628 c4 0 htmlReadIO__internal_alias
FUNC 666ec 8c 0 htmlCtxtReadDoc__internal_alias
FUNC 66778 7c 0 htmlCtxtReadFile__internal_alias
FUNC 667f4 cc 0 htmlCtxtReadMemory__internal_alias
FUNC 668c0 c0 0 htmlCtxtReadFd__internal_alias
FUNC 66980 c4 0 htmlCtxtReadIO__internal_alias
FUNC 66a44 36c 0 htmlGetMetaEncoding__internal_alias
FUNC 66db0 39c 0 htmlSetMetaEncoding__internal_alias
FUNC 6714c 4c 0 htmlIsBooleanAttr__internal_alias
FUNC 67198 20c 0 htmlAttrDumpOutput
FUNC 673a4 8 0 htmlDocContentDumpOutput__internal_alias
FUNC 673ac 774 0 htmlNodeDumpFormatOutput__internal_alias
FUNC 67b20 14c 0 htmlDocContentDumpFormatOutput__internal_alias
FUNC 67c6c 114 0 htmlDocDumpMemoryFormat__internal_alias
FUNC 67d80 8 0 htmlDocDumpMemory__internal_alias
FUNC 67d88 1c 0 htmlNodeDumpOutput__internal_alias
FUNC 67da4 c0 0 htmlNodeDumpFileFormat__internal_alias
FUNC 67e64 20 0 htmlNodeDumpFile__internal_alias
FUNC 67e84 fc 0 htmlNodeDump__internal_alias
FUNC 67f80 c8 0 htmlDocDump__internal_alias
FUNC 68048 c4 0 htmlSaveFile__internal_alias
FUNC 6810c 100 0 htmlSaveFileFormat__internal_alias
FUNC 6820c 8 0 htmlSaveFileEnc__internal_alias
FUNC 68214 44 0 xmlCtxtDumpSpaces
FUNC 68258 7c 0 xmlDebugErr
FUNC 682d4 74 0 xmlDebugErr2
FUNC 68348 2d4 0 xmlCtxtDumpDocHead
FUNC 6861c 1fc 0 xmlCtxtDumpEntityCallback
FUNC 68818 74 0 xmlDebugErr3
FUNC 6888c 198 0 xmlCtxtNsCheckScope
FUNC 68a24 f4 0 xmlCtxtCheckName
FUNC 68b18 4d8 0 xmlCtxtGenericNodeCheck
FUNC 68ff0 11c 0 xmlCtxtDumpDtdNode
FUNC 6910c 144 0 xmlCtxtDumpString
FUNC 69250 158 0 xmlCtxtDumpNamespace
FUNC 693a8 190 0 xmlCtxtDumpDocumentHead
FUNC 69538 244 0 xmlCtxtDumpElemDecl
FUNC 6977c e88 0 xmlCtxtDumpOneNode
FUNC 6a604 88 0 xmlCtxtDumpNode
FUNC 6a68c 2c 0 xmlCtxtDumpNodeList
FUNC 6a6b8 f8 0 xmlCtxtDumpAttr
FUNC 6a7b0 80 0 xmlCtxtDumpDocument
FUNC 6a830 164 0 xmlDebugDumpString__internal_alias
FUNC 6a994 84 0 xmlDebugDumpAttr__internal_alias
FUNC 6aa18 198 0 xmlDebugDumpEntities__internal_alias
FUNC 6abb0 a0 0 xmlDebugDumpAttrList__internal_alias
FUNC 6ac50 7c 0 xmlShellPrintNodeCtxt
FUNC 6accc 84 0 xmlDebugDumpOneNode__internal_alias
FUNC 6ad50 98 0 xmlDebugDumpNode__internal_alias
FUNC 6ade8 98 0 xmlDebugDumpNodeList__internal_alias
FUNC 6ae80 9c 0 xmlDebugDumpDocumentHead__internal_alias
FUNC 6af1c 9c 0 xmlDebugDumpDocument__internal_alias
FUNC 6afb8 108 0 xmlDebugDumpDTD__internal_alias
FUNC 6b0c0 a0 0 xmlDebugCheckDocument__internal_alias
FUNC 6b160 b8 0 xmlLsCountNode__internal_alias
FUNC 6b218 2c0 0 xmlLsOneNode__internal_alias
FUNC 6b4d8 28 0 xmlBoolToText__internal_alias
FUNC 6b500 1b8 0 xmlShellPrintXPathError__internal_alias
FUNC 6b6b8 4 0 xmlShellPrintNode__internal_alias
FUNC 6b6bc 4 0 xmlShellPrintXPathResult__internal_alias
FUNC 6b6c0 98 0 xmlShellList__internal_alias
FUNC 6b758 ac 0 xmlShellBase__internal_alias
FUNC 6b804 88 0 xmlShellDir__internal_alias
FUNC 6b88c a4 0 xmlShellCat__internal_alias
FUNC 6b930 e4 0 xmlShellLoad__internal_alias
FUNC 6ba14 13c 0 xmlShellWrite__internal_alias
FUNC 6bb50 104 0 xmlShellSave__internal_alias
FUNC 6bc54 b8 0 xmlShellValidate__internal_alias
FUNC 6bd0c 1fc 0 xmlShellDu__internal_alias
FUNC 6bf08 8c 0 xmlShellPwd__internal_alias
FUNC 6bf94 18b0 0 xmlShell__internal_alias
FUNC 6d844 a4 0 trio_pinf
FUNC 6d8e8 b8 0 xmlXPathCacheFreeObjectList
FUNC 6d9a0 84 0 xmlXPathFreeCache
FUNC 6da24 588 0 xmlXPathCmpNodesExt
FUNC 6dfac 24 0 xmlXPathNextSelf__internal_alias
FUNC 6dfd0 90 0 xmlXPathNextChild__internal_alias
FUNC 6e060 d4 0 xmlXPathNextDescendant__internal_alias
FUNC 6e134 4c 0 xmlXPathNextDescendantOrSelf__internal_alias
FUNC 6e180 58 0 xmlXPathNextFollowingSibling__internal_alias
FUNC 6e1d8 70 0 xmlXPathNextPrecedingSibling__internal_alias
FUNC 6e248 b0 0 xmlXPathNextFollowing__internal_alias
FUNC 6e2f8 10c 0 xmlXPathNextPrecedingInternal
FUNC 6e404 54 0 xmlXPathNextAttribute__internal_alias
FUNC 6e458 ec 0 xmlXPathRewriteDOSExpression
FUNC 6e544 14c 0 xmlXPathErrMemory
FUNC 6e690 114 0 xmlPointerListAddSize
FUNC 6e7a4 dc 0 xmlXPathNewCompExpr
FUNC 6e880 d0 0 xmlXPathNodeSetCreateSize
FUNC 6e950 dc 0 xmlXPathNodeSetDupNs
FUNC 6ea2c 158 0 xmlXPathNodeSetAddUnique__internal_alias
FUNC 6eb84 1fc 0 xmlXPathTryStreamCompile
FUNC 6ed80 1a4 0 xmlXPathNextAncestor__internal_alias
FUNC 6ef24 30 0 xmlXPathNextAncestorOrSelf__internal_alias
FUNC 6ef54 f8 0 xmlXPathNextParent__internal_alias
FUNC 6f04c 1a8 0 xmlXPathCompExprAdd
FUNC 6f1f4 108 0 xmlXPathNextChildElement
FUNC 6f2fc 100 0 xmlXPathNextDescendantOrSelfElemParent
FUNC 6f3fc 1dc 0 xmlXPathNodeValHash
FUNC 6f5d8 4f4 0 xmlXPathEqualNodeSets
FUNC 6facc 190 0 xmlXPathEqualNodeSetString
FUNC 6fc5c fc 0 xmlXPathNextNamespace__internal_alias
FUNC 6fd58 100 0 xmlXPathDebugDumpNode
FUNC 6fe58 70 0 xmlPointerListCreate
FUNC 6fec8 1bc 0 xmlXPathInit__internal_alias
FUNC 70084 a8 0 xmlXPathIsNaN__internal_alias
FUNC 7012c 3c 0 xmlXPathIsInf__internal_alias
FUNC 70168 1e8 0 xmlXPathErr__internal_alias
FUNC 70350 18c 0 xmlXPathCurrentChar
FUNC 704dc 4d8 0 xmlXPathParseNameComplex
FUNC 709b4 8 0 xmlXPatherror__internal_alias
FUNC 709bc 8b0 0 xmlXPathDebugDumpObject__internal_alias
FUNC 7126c 96c 0 xmlXPathDebugDumpStepOp
FUNC 71bd8 d8 0 xmlXPathDebugDumpCompExpr__internal_alias
FUNC 71cb0 128 0 xmlXPathContextSetCache__internal_alias
FUNC 71dd8 4c 0 valuePop__internal_alias
FUNC 71e24 c8 0 valuePush__internal_alias
FUNC 71eec 9c 0 xmlXPathOrderDocElems__internal_alias
FUNC 71f88 300 0 xmlXPathCmpNodes__internal_alias
FUNC 72288 d8 0 xmlXPathNodeSetSort__internal_alias
FUNC 72360 8c 0 xmlXPathNodeSetFreeNs__internal_alias
FUNC 723ec c0 0 xmlXPathFreeValueTree
FUNC 724ac 6c 0 xmlXPathNodeSetClear
FUNC 72518 134 0 xmlXPathNodeSetCreate__internal_alias
FUNC 7264c 1dc 0 xmlXPathNodeSetMergeAndClearNoDupls
FUNC 72828 380 0 xmlXPathNodeSetMergeAndClear
FUNC 72ba8 118 0 xmlXPathNodeSetContains__internal_alias
FUNC 72cc0 1dc 0 xmlXPathNodeSetAddNs__internal_alias
FUNC 72e9c 1b4 0 xmlXPathNodeSetAdd__internal_alias
FUNC 73050 14c 0 xmlXPathGetElementsByIds
FUNC 7319c 2d8 0 xmlXPathNodeSetMerge__internal_alias
FUNC 73474 11c 0 xmlXPathNodeSetDel__internal_alias
FUNC 73590 d0 0 xmlXPathNodeSetRemove__internal_alias
FUNC 73660 b0 0 xmlXPathFreeNodeSet__internal_alias
FUNC 73710 d8 0 xmlXPathFreeObject__internal_alias
FUNC 737e8 154 0 xmlXPathFreeCompExpr__internal_alias
FUNC 7393c 330 0 xmlXPathReleaseObject
FUNC 73c6c 88 0 xmlXPathPopExternal__internal_alias
FUNC 73cf4 84 0 xmlXPathPopNodeSet__internal_alias
FUNC 73d78 98 0 xmlXPathNewNodeSet__internal_alias
FUNC 73e10 ec 0 xmlXPathCacheNewNodeSet
FUNC 73efc 3a4 0 xmlXPathRunStreamEval
FUNC 742a0 a0 0 xmlXPathNewValueTree__internal_alias
FUNC 74340 74 0 xmlXPathNewNodeSetList__internal_alias
FUNC 743b4 88 0 xmlXPathWrapNodeSet__internal_alias
FUNC 7443c 58 0 xmlXPathCacheWrapNodeSet
FUNC 74494 30 0 xmlXPathFreeNodeSetList__internal_alias
FUNC 744c4 138 0 xmlXPathDifference__internal_alias
FUNC 745fc 13c 0 xmlXPathIntersection__internal_alias
FUNC 74738 114 0 xmlXPathHasSameNodes__internal_alias
FUNC 7484c 100 0 xmlXPathNodeLeadingSorted__internal_alias
FUNC 7494c 20 0 xmlXPathNodeLeading__internal_alias
FUNC 7496c 30 0 xmlXPathLeadingSorted__internal_alias
FUNC 7499c 88 0 xmlXPathLeading__internal_alias
FUNC 74a24 124 0 xmlXPathNodeTrailingSorted__internal_alias
FUNC 74b48 20 0 xmlXPathNodeTrailing__internal_alias
FUNC 74b68 30 0 xmlXPathTrailingSorted__internal_alias
FUNC 74b98 88 0 xmlXPathTrailing__internal_alias
FUNC 74c20 7c 0 xmlXPathRegisterFuncNS__internal_alias
FUNC 74c9c c 0 xmlXPathRegisterFunc__internal_alias
FUNC 74ca8 10 0 xmlXPathRegisterFuncLookup__internal_alias
FUNC 74cb8 60 0 xmlXPathFunctionLookupNS__internal_alias
FUNC 74d18 4c 0 xmlXPathFunctionLookup__internal_alias
FUNC 74d64 24 0 xmlXPathRegisteredFuncsCleanup__internal_alias
FUNC 74d88 94 0 xmlXPathRegisterVariableNS__internal_alias
FUNC 74e1c c 0 xmlXPathRegisterVariable__internal_alias
FUNC 74e28 10 0 xmlXPathRegisterVariableLookup__internal_alias
FUNC 74e38 2c 0 xmlXPathRegisteredVariablesCleanup__internal_alias
FUNC 74e64 c4 0 xmlXPathRegisterNs__internal_alias
FUNC 74f28 c0 0 xmlXPathNsLookup__internal_alias
FUNC 74fe8 3c 0 xmlXPathRegisteredNsCleanup__internal_alias
FUNC 75024 94 0 xmlXPathNewFloat__internal_alias
FUNC 750b8 a0 0 xmlXPathCacheNewFloat
FUNC 75158 120 0 xmlXPathCountFunction__internal_alias
FUNC 75278 64 0 xmlXPathPositionFunction__internal_alias
FUNC 752dc 64 0 xmlXPathLastFunction__internal_alias
FUNC 75340 94 0 xmlXPathNewBoolean__internal_alias
FUNC 753d4 a0 0 xmlXPathCacheNewBoolean
FUNC 75474 38 0 xmlXPathFalseFunction__internal_alias
FUNC 754ac 3c 0 xmlXPathTrueFunction__internal_alias
FUNC 754e8 bc 0 xmlXPathNewString__internal_alias
FUNC 755a4 f4 0 xmlXPathCacheNewString
FUNC 75698 90 0 xmlXPathWrapString__internal_alias
FUNC 75728 90 0 xmlXPathCacheWrapString
FUNC 757b8 98 0 xmlXPathNewCString__internal_alias
FUNC 75850 c4 0 xmlXPathCacheNewCString
FUNC 75914 15c 0 xmlXPathLocalNameFunction__internal_alias
FUNC 75a70 1b4 0 xmlXPathNameFunction
FUNC 75c24 f4 0 xmlXPathNamespaceURIFunction__internal_alias
FUNC 75d18 4 0 xmlXPathWrapCString__internal_alias
FUNC 75d1c 90 0 xmlXPathWrapExternal__internal_alias
FUNC 75dac 12c 0 xmlXPathObjectCopy__internal_alias
FUNC 75ed8 a8 0 xmlXPathCacheObjectCopy
FUNC 75f80 6c 0 xmlXPathVariableLookupNS__internal_alias
FUNC 75fec 3c 0 xmlXPathVariableLookup__internal_alias
FUNC 76028 28 0 xmlXPathCastBooleanToString__internal_alias
FUNC 76050 440 0 xmlXPathCastNumberToString__internal_alias
FUNC 76490 24 0 xmlXPathCastNodeToString__internal_alias
FUNC 764b4 218 0 xmlXPathDistinctSorted__internal_alias
FUNC 766cc 3c 0 xmlXPathDistinct__internal_alias
FUNC 76708 54 0 xmlXPathCastNodeSetToString__internal_alias
FUNC 7675c f4 0 xmlXPathCacheConvertString
FUNC 76850 84 0 xmlXPathStringFunction__internal_alias
FUNC 768d4 164 0 xmlXPathLangFunction__internal_alias
FUNC 76a38 220 0 xmlXPathTranslateFunction__internal_alias
FUNC 76c58 1ac 0 xmlXPathNormalizeFunction__internal_alias
FUNC 76e04 114 0 xmlXPathSubstringAfterFunction__internal_alias
FUNC 76f18 f4 0 xmlXPathSubstringBeforeFunction__internal_alias
FUNC 7700c 124 0 xmlXPathStartsWithFunction__internal_alias
FUNC 77130 114 0 xmlXPathContainsFunction__internal_alias
FUNC 77244 210 0 xmlXPathConcatFunction__internal_alias
FUNC 77454 150 0 xmlXPathStringLengthFunction__internal_alias
FUNC 775a4 15c 0 xmlXPathIdFunction__internal_alias
FUNC 77700 ec 0 xmlXPathCastToString__internal_alias
FUNC 777ec 64 0 xmlXPathPopString__internal_alias
FUNC 77850 100 0 xmlXPathConvertString__internal_alias
FUNC 77950 18 0 xmlXPathCastBooleanToNumber__internal_alias
FUNC 77968 4c 0 xmlXPathCastNumberToBoolean__internal_alias
FUNC 779b4 24 0 xmlXPathCastStringToBoolean__internal_alias
FUNC 779d8 18 0 xmlXPathCastNodeSetToBoolean__internal_alias
FUNC 779f0 c4 0 xmlXPathCastToBoolean__internal_alias
FUNC 77ab4 80 0 xmlXPathBooleanFunction__internal_alias
FUNC 77b34 78 0 xmlXPathNotFunction__internal_alias
FUNC 77bac 64 0 xmlXPathPopBoolean__internal_alias
FUNC 77c10 254 0 xmlXPathEscapeUriFunction
FUNC 77e64 40 0 xmlXPathConvertBoolean__internal_alias
FUNC 77ea4 64 0 xmlXPathFreeContext__internal_alias
FUNC 77f08 ec 0 xmlXPathNewParserContext__internal_alias
FUNC 77ff4 80 0 xmlXPathFreeParserContext__internal_alias
FUNC 78074 104 0 xmlXPathNextPreceding__internal_alias
FUNC 78178 34 0 xmlXPathRoot__internal_alias
FUNC 781ac f0 0 xmlXPathParseNCName__internal_alias
FUNC 7829c 54 0 xmlXPathParseQName
FUNC 782f0 c4 0 xmlXPathParseName__internal_alias
FUNC 783b4 344 0 xmlXPathStringEvalNumber__internal_alias
FUNC 786f8 4 0 xmlXPathCastStringToNumber__internal_alias
FUNC 786fc 6c 0 xmlXPathCastNodeSetToNumber__internal_alias
FUNC 78768 e8 0 xmlXPathCastToNumber__internal_alias
FUNC 78850 48 0 xmlXPathConvertNumber__internal_alias
FUNC 78898 78 0 xmlXPathPopNumber__internal_alias
FUNC 78910 114 0 xmlXPathNumberFunction__internal_alias
FUNC 78a24 228 0 xmlXPathRoundFunction__internal_alias
FUNC 78c4c 184 0 xmlXPathCeilingFunction__internal_alias
FUNC 78dd0 134 0 xmlXPathFloorFunction__internal_alias
FUNC 78f04 32c 0 xmlXPathSubstringFunction__internal_alias
FUNC 79230 150 0 xmlXPathValueFlipSign__internal_alias
FUNC 79380 158 0 xmlXPathEqualNodeSetFloat
FUNC 794d8 3bc 0 xmlXPathEqualValuesCommon
FUNC 79894 1f4 0 xmlXPathNotEqualValues__internal_alias
FUNC 79a88 1ec 0 xmlXPathEqualValues__internal_alias
FUNC 79c74 e8 0 xmlXPathModValues__internal_alias
FUNC 79d5c 204 0 xmlXPathDivValues__internal_alias
FUNC 79f60 a0 0 xmlXPathMultValues__internal_alias
FUNC 7a000 a0 0 xmlXPathSubValues__internal_alias
FUNC 7a0a0 a0 0 xmlXPathAddValues__internal_alias
FUNC 7a140 70 0 xmlXPathCastNodeToNumber__internal_alias
FUNC 7a1b0 f4 0 xmlXPathSumFunction__internal_alias
FUNC 7a2a4 308 0 xmlXPathCompareNodeSets
FUNC 7a5ac 3a8 0 xmlXPathCompareValues__internal_alias
FUNC 7a954 2a8 0 xmlXPathCompareNodeSetValue
FUNC 7abfc 90 0 xmlXPathIsNodeType__internal_alias
FUNC 7ac8c 11ac 0 xmlXPathCompPathExpr
FUNC 7be38 2a4 0 xmlXPathCompUnaryExpr
FUNC 7c0dc 1a8 0 xmlXPathCompMultiplicativeExpr
FUNC 7c284 164 0 xmlXPathCompAdditiveExpr
FUNC 7c3e8 178 0 xmlXPathCompRelationalExpr
FUNC 7c560 174 0 xmlXPathCompEqualityExpr
FUNC 7c6d4 144 0 xmlXPathCompAndExpr
FUNC 7c818 188 0 xmlXPathCompileExpr
FUNC 7c9a0 1b0 0 xmlXPathCompPredicate
FUNC 7cb50 b68 0 xmlXPathCompStep
FUNC 7d6b8 278 0 xmlXPathCompRelativeLocationPath
FUNC 7d930 f4 0 xmlXPathEvalPredicate__internal_alias
FUNC 7da24 108 0 xmlXPathEvaluatePredicateResult__internal_alias
FUNC 7db2c 198 0 xmlXPathCompOpEvalToBoolean
FUNC 7dcc4 284 0 xmlXPathCompOpEvalPredicate
FUNC 7df48 11ac 0 xmlXPathNodeCollectAndTest
FUNC 7f0f4 414 0 xmlXPathCompOpEvalLast
FUNC 7f508 16d4 0 xmlXPathCompOpEval
FUNC 80bdc a3c 0 xmlXPathCompOpEvalFirst
FUNC 81618 1b0 0 xmlXPathRunEval
FUNC 817c8 2a8 0 xmlXPathCompiledEvalInternal
FUNC 81a70 f8 0 xmlXPathCtxtCompile__internal_alias
FUNC 81b68 c 0 xmlXPathCompile__internal_alias
FUNC 81b74 24 0 xmlXPathCompiledEval__internal_alias
FUNC 81b98 c 0 xmlXPathCompiledEvalToBoolean__internal_alias
FUNC 81ba4 100 0 xmlXPathEvalExpr__internal_alias
FUNC 81ca4 1cc 0 xmlXPathEval__internal_alias
FUNC 81e70 174 0 xmlXPathEvalExpression__internal_alias
FUNC 81fe4 394 0 xmlXPathRegisterAllFunctions__internal_alias
FUNC 82378 ac 0 xmlXPathNewContext__internal_alias
FUNC 82424 60 0 xmlXPtrGetArity
FUNC 82484 6c 0 xmlXPtrGetNthChild
FUNC 824f0 74 0 xmlXPtrErrMemory
FUNC 82564 124 0 xmlXPtrErr
FUNC 82688 1b4 0 xmlXPtrEvalChildSeq
FUNC 8283c b4 0 xmlXPtrNewPoint
FUNC 828f0 80 0 xmlXPtrRangeCheckOrder
FUNC 82970 f0 0 xmlXPtrNewRange__internal_alias
FUNC 82a60 f8 0 xmlXPtrNewRangePoints__internal_alias
FUNC 82b58 e4 0 xmlXPtrNewRangePointNode__internal_alias
FUNC 82c3c f4 0 xmlXPtrNewRangeNodePoint__internal_alias
FUNC 82d30 c4 0 xmlXPtrNewRangeNodes__internal_alias
FUNC 82df4 a8 0 xmlXPtrNewCollapsedRange__internal_alias
FUNC 82e9c 198 0 xmlXPtrNewRangeNodeObject__internal_alias
FUNC 83034 104 0 xmlXPtrLocationSetCreate__internal_alias
FUNC 83138 2b8 0 xmlXPtrLocationSetAdd__internal_alias
FUNC 833f0 50 0 xmlXPtrLocationSetMerge__internal_alias
FUNC 83440 104 0 xmlXPtrLocationSetDel__internal_alias
FUNC 83544 9c 0 xmlXPtrLocationSetRemove__internal_alias
FUNC 835e0 94 0 xmlXPtrFreeLocationSet__internal_alias
FUNC 83674 c0 0 xmlXPtrNewLocationSetNodes__internal_alias
FUNC 83734 54 0 xmlXPtrOriginFunction
FUNC 83788 54 0 xmlXPtrHereFunction
FUNC 837dc dc 0 xmlXPtrNewLocationSetNodeSet__internal_alias
FUNC 838b8 90 0 xmlXPtrWrapLocationSet__internal_alias
FUNC 83948 17c 0 xmlXPtrRangeToFunction__internal_alias
FUNC 83ac4 18c 0 xmlXPtrEndPointFunction
FUNC 83c50 18c 0 xmlXPtrStartPointFunction
FUNC 83ddc 2cc 0 xmlXPtrRangeInsideFunction
FUNC 840a8 298 0 xmlXPtrRangeFunction
FUNC 84340 12c 0 xmlXPtrNewContext__internal_alias
FUNC 8446c 7fc 0 xmlXPtrEval__internal_alias
FUNC 84c68 f0 0 xmlXPtrAdvanceNode
FUNC 84d58 5c4 0 xmlXPtrBuildNodeList__internal_alias
FUNC 8531c 174 0 xmlXPtrAdvanceChar
FUNC 85490 66c 0 xmlXPtrStringRangeFunction
FUNC 85afc 2c0 0 xmlXPtrEvalRangePredicate__internal_alias
FUNC 85dbc 6c 0 xmlXIncludeGetNthChild
FUNC 85e28 84 0 xmlXIncludeErr
FUNC 85eac 84 0 xmlXIncludeErrMemory
FUNC 85f30 2d8 0 xmlXIncludeTestNode
FUNC 86208 88 0 xmlXIncludeFreeRef
FUNC 86290 148 0 xmlXIncludeMergeEntity
FUNC 863d8 48 0 xmlXIncludeCopyNode
FUNC 86420 90 0 xmlXIncludeCopyNodeList
FUNC 864b0 63c 0 xmlXIncludeCopyXPointer
FUNC 86aec 68 0 xmlXIncludeGetProp
FUNC 86b54 618 0 xmlXIncludeAddNode
FUNC 8716c 84 0 xmlXIncludeNewContext__internal_alias
FUNC 871f0 1cc 0 xmlXIncludeFreeContext__internal_alias
FUNC 873bc 1c24 0 xmlXIncludeDoProcess
FUNC 88fe0 14 0 xmlXIncludeSetFlags__internal_alias
FUNC 88ff4 8c 0 xmlXIncludeProcessTreeFlagsData__internal_alias
FUNC 89080 44 0 xmlXIncludeProcessFlagsData__internal_alias
FUNC 890c4 8 0 xmlXIncludeProcessFlags__internal_alias
FUNC 890cc 8 0 xmlXIncludeProcess__internal_alias
FUNC 890d4 78 0 xmlXIncludeProcessTreeFlags__internal_alias
FUNC 8914c 8 0 xmlXIncludeProcessTree__internal_alias
FUNC 89154 48 0 xmlXIncludeProcessNode__internal_alias
FUNC 8919c 13c 0 xmlNanoHTTPFreeCtxt
FUNC 892d8 28 0 xmlHTTPErrMemory
FUNC 89300 260 0 xmlNanoHTTPRecv
FUNC 89560 bc 0 xmlNanoHTTPFetchContent
FUNC 8961c ec 0 xmlNanoHTTPReadLine
FUNC 89708 1c8 0 xmlNanoHTTPNewCtxt
FUNC 898d0 30 0 have_ipv6
FUNC 89900 254 0 xmlNanoHTTPConnectAttempt
FUNC 89b54 3c0 0 xmlNanoHTTPConnectHost
FUNC 89f14 d8 0 xmlNanoHTTPSend
FUNC 89fec 5c 0 xmlNanoHTTPCleanup__internal_alias
FUNC 8a048 118 0 xmlNanoHTTPScanProxy__internal_alias
FUNC 8a160 bc 0 xmlNanoHTTPInit__internal_alias
FUNC 8a21c 90 0 xmlNanoHTTPRead__internal_alias
FUNC 8a2ac c 0 xmlNanoHTTPClose__internal_alias
FUNC 8a2b8 d28 0 xmlNanoHTTPMethodRedir__internal_alias
FUNC 8afe0 48 0 xmlNanoHTTPOpenRedir__internal_alias
FUNC 8b028 2c 0 xmlNanoHTTPMethod__internal_alias
FUNC 8b054 34 0 xmlNanoHTTPOpen__internal_alias
FUNC 8b088 fc 0 xmlNanoHTTPFetch__internal_alias
FUNC 8b184 b0 0 xmlNanoHTTPSave__internal_alias
FUNC 8b234 10 0 xmlNanoHTTPReturnCode__internal_alias
FUNC 8b244 c 0 xmlNanoHTTPAuthHeader__internal_alias
FUNC 8b250 10 0 xmlNanoHTTPContentLength__internal_alias
FUNC 8b260 c 0 xmlNanoHTTPRedir__internal_alias
FUNC 8b26c c 0 xmlNanoHTTPEncoding__internal_alias
FUNC 8b278 c 0 xmlNanoHTTPMimeType__internal_alias
FUNC 8b284 2b4 0 xmlNanoFTPReadResponse
FUNC 8b538 188 0 xmlNanoFTPScanURL
FUNC 8b6c0 bc 0 xmlNanoFTPCleanup__internal_alias
FUNC 8b77c 15c 0 xmlNanoFTPProxy__internal_alias
FUNC 8b8d8 148 0 xmlNanoFTPUpdateURL__internal_alias
FUNC 8ba20 130 0 xmlNanoFTPScanProxy__internal_alias
FUNC 8bb50 128 0 xmlNanoFTPInit__internal_alias
FUNC 8bc78 f8 0 xmlNanoFTPNewCtxt__internal_alias
FUNC 8bd70 a4 0 xmlNanoFTPFreeCtxt__internal_alias
FUNC 8be14 4 0 xmlNanoFTPGetResponse__internal_alias
FUNC 8be18 f8 0 xmlNanoFTPCheckResponse__internal_alias
FUNC 8bf10 88 0 xmlNanoFTPQuit__internal_alias
FUNC 8bf98 890 0 xmlNanoFTPConnect__internal_alias
FUNC 8c828 84 0 xmlNanoFTPConnectTo__internal_alias
FUNC 8c8ac bc 0 xmlNanoFTPCwd__internal_alias
FUNC 8c968 b8 0 xmlNanoFTPDele__internal_alias
FUNC 8ca20 4b4 0 xmlNanoFTPGetConnection__internal_alias
FUNC 8ced4 158 0 xmlNanoFTPCloseConnection__internal_alias
FUNC 8d02c 884 0 xmlNanoFTPList__internal_alias
FUNC 8d8b0 164 0 xmlNanoFTPGetSocket__internal_alias
FUNC 8da14 1cc 0 xmlNanoFTPGet__internal_alias
FUNC 8dbe0 7c 0 xmlNanoFTPRead__internal_alias
FUNC 8dc5c 88 0 xmlNanoFTPOpen__internal_alias
FUNC 8dce4 60 0 xmlNanoFTPClose__internal_alias
FUNC 8dd44 4c 0 docbEncodeEntities
FUNC 8dd90 54 0 docbParseDocument
FUNC 8dde4 54 0 docbFreeParserCtxt
FUNC 8de38 74 0 docbParseChunk
FUNC 8deac 7c 0 docbCreatePushParserCtxt__internal_alias
FUNC 8df28 7c 0 docbSAXParseDoc
FUNC 8dfa4 54 0 docbParseDoc
FUNC 8dff8 54 0 docbCreateFileParserCtxt
FUNC 8e04c 70 0 docbSAXParseFile
FUNC 8e0bc 54 0 docbParseFile
FUNC 8e110 130 0 xmlFreeCatalogEntry
FUNC 8e240 24 0 xmlFreeCatalogEntryList
FUNC 8e264 4c 0 xmlFreeCatalogHashEntryList
FUNC 8e2b0 100 0 xmlCatalogNormalizePublic
FUNC 8e3b0 26c 0 xmlCatalogUnWrapURN
FUNC 8e61c dc 0 xmlCatalogGetSGMLPublic
FUNC 8e6f8 30 0 xmlCatalogGetSGMLSystem
FUNC 8e728 74 0 xmlCatalogErrMemory
FUNC 8e79c 14c 0 xmlNewCatalogEntry
FUNC 8e8e8 1e4 0 xmlParseSGMLCatalogPubid
FUNC 8eacc 7c 0 xmlCatalogErr
FUNC 8eb48 250 0 xmlParseXMLCatalogOneNode
FUNC 8ed98 514 0 xmlParseXMLCatalogNodeList
FUNC 8f2ac 58 0 xmlInitializeCatalogData
FUNC 8f304 90 0 xmlCreateNewCatalog
FUNC 8f394 e0 0 xmlLoadFileContent
FUNC 8f474 204 0 xmlParseSGMLCatalogName
FUNC 8f678 6e4 0 xmlParseSGMLCatalog
FUNC 8fd5c 110 0 xmlExpandCatalog
FUNC 8fe6c f8 0 xmlCatalogConvertEntry
FUNC 8ff64 440 0 xmlDumpXMLCatalogNode
FUNC 903a4 268 0 xmlCatalogDumpEntry
FUNC 9060c 4c 0 xmlCatalogSGMLResolve
FUNC 90658 60 0 xmlFreeCatalog__internal_alias
FUNC 906b8 88 0 xmlConvertSGMLCatalog__internal_alias
FUNC 90740 140 0 xmlParseCatalogFile__internal_alias
FUNC 90880 414 0 xmlFetchXMLCatalogFile
FUNC 90c94 2d0 0 xmlCatalogListXMLResolve
FUNC 90f64 6c8 0 xmlCatalogXMLResolve
FUNC 9162c 57c 0 xmlCatalogListXMLResolveURI
FUNC 91ba8 a4 0 xmlLoadSGMLSuperCatalog__internal_alias
FUNC 91c4c 158 0 xmlLoadACatalog__internal_alias
FUNC 91da4 ac 0 xmlACatalogResolveSystem__internal_alias
FUNC 91e50 ac 0 xmlACatalogResolvePublic__internal_alias
FUNC 91efc 124 0 xmlACatalogResolve__internal_alias
FUNC 92020 ac 0 xmlACatalogResolveURI__internal_alias
FUNC 920cc 154 0 xmlACatalogDump__internal_alias
FUNC 92220 560 0 xmlACatalogAdd__internal_alias
FUNC 92780 154 0 xmlACatalogRemove__internal_alias
FUNC 928d4 64 0 xmlNewCatalog__internal_alias
FUNC 92938 7c 0 xmlCatalogIsEmpty__internal_alias
FUNC 929b4 1c0 0 xmlInitializeCatalog__internal_alias
FUNC 92b74 9c 0 xmlLoadCatalog__internal_alias
FUNC 92c10 e8 0 xmlLoadCatalogs__internal_alias
FUNC 92cf8 d0 0 xmlCatalogCleanup__internal_alias
FUNC 92dc8 40 0 xmlCatalogResolveSystem__internal_alias
FUNC 92e08 40 0 xmlCatalogResolvePublic__internal_alias
FUNC 92e48 48 0 xmlCatalogResolve__internal_alias
FUNC 92e90 40 0 xmlCatalogResolveURI__internal_alias
FUNC 92ed0 48 0 xmlCatalogDump__internal_alias
FUNC 92f18 fc 0 xmlCatalogAdd__internal_alias
FUNC 93014 58 0 xmlCatalogRemove__internal_alias
FUNC 9306c 50 0 xmlCatalogConvert__internal_alias
FUNC 930bc 14 0 xmlCatalogGetDefaults__internal_alias
FUNC 930d0 d8 0 xmlCatalogSetDefaults__internal_alias
FUNC 931a8 9c 0 xmlCatalogSetDefaultPrefer__internal_alias
FUNC 93244 24 0 xmlCatalogSetDebug__internal_alias
FUNC 93268 50 0 xmlCatalogFreeLocal__internal_alias
FUNC 932b8 e0 0 xmlCatalogAddLocal__internal_alias
FUNC 93398 128 0 xmlCatalogLocalResolve__internal_alias
FUNC 934c0 ac 0 xmlCatalogLocalResolveURI__internal_alias
FUNC 9356c 108 0 xmlCatalogGetSystem__internal_alias
FUNC 93674 108 0 xmlCatalogGetPublic__internal_alias
FUNC 9377c 28 0 xmlInitGlobals__internal_alias
FUNC 937a4 30 0 xmlCleanupGlobals__internal_alias
FUNC 937d4 20c 0 xmlInitializeGlobalState__internal_alias
FUNC 939e0 7c 0 xmlThrDefSetGenericErrorFunc__internal_alias
FUNC 93a5c 34 0 xmlThrDefSetStructuredErrorFunc__internal_alias
FUNC 93a90 3c 0 xmlRegisterNodeDefault__internal_alias
FUNC 93acc 54 0 xmlThrDefRegisterNodeDefault__internal_alias
FUNC 93b20 3c 0 xmlDeregisterNodeDefault__internal_alias
FUNC 93b5c 54 0 xmlThrDefDeregisterNodeDefault__internal_alias
FUNC 93bb0 64 0 xmlThrDefParserInputBufferCreateFilenameDefault__internal_alias
FUNC 93c14 64 0 xmlThrDefOutputBufferCreateFilenameDefault__internal_alias
FUNC 93c78 38 0 __docbDefaultSAXHandler
FUNC 93cb0 38 0 __htmlDefaultSAXHandler
FUNC 93ce8 38 0 __xmlLastError
FUNC 93d20 38 0 __oldXMLWDcompatibility
FUNC 93d58 38 0 __xmlBufferAllocScheme
FUNC 93d90 40 0 xmlThrDefBufferAllocScheme__internal_alias
FUNC 93dd0 38 0 __xmlDefaultBufferSize
FUNC 93e08 40 0 xmlThrDefDefaultBufferSize__internal_alias
FUNC 93e48 38 0 __xmlDefaultSAXHandler
FUNC 93e80 38 0 __xmlDefaultSAXLocator
FUNC 93eb8 38 0 __xmlDoValidityCheckingDefaultValue
FUNC 93ef0 30 0 xmlThrDefDoValidityCheckingDefaultValue__internal_alias
FUNC 93f20 38 0 __xmlGenericError__internal_alias
FUNC 93f58 38 0 __xmlStructuredError
FUNC 93f90 38 0 __xmlGenericErrorContext__internal_alias
FUNC 93fc8 38 0 __xmlStructuredErrorContext
FUNC 94000 38 0 __xmlGetWarningsDefaultValue
FUNC 94038 40 0 xmlThrDefGetWarningsDefaultValue__internal_alias
FUNC 94078 38 0 __xmlIndentTreeOutput
FUNC 940b0 40 0 xmlThrDefIndentTreeOutput__internal_alias
FUNC 940f0 38 0 __xmlTreeIndentString
FUNC 94128 40 0 xmlThrDefTreeIndentString__internal_alias
FUNC 94168 38 0 __xmlKeepBlanksDefaultValue
FUNC 941a0 40 0 xmlThrDefKeepBlanksDefaultValue__internal_alias
FUNC 941e0 38 0 __xmlLineNumbersDefaultValue
FUNC 94218 34 0 xmlThrDefLineNumbersDefaultValue__internal_alias
FUNC 9424c 38 0 __xmlLoadExtDtdDefaultValue
FUNC 94284 34 0 xmlThrDefLoadExtDtdDefaultValue__internal_alias
FUNC 942b8 38 0 __xmlParserDebugEntities
FUNC 942f0 34 0 xmlThrDefParserDebugEntities__internal_alias
FUNC 94324 34 0 __xmlParserVersion
FUNC 94358 38 0 __xmlPedanticParserDefaultValue
FUNC 94390 34 0 xmlThrDefPedanticParserDefaultValue__internal_alias
FUNC 943c4 38 0 __xmlSaveNoEmptyTags
FUNC 943fc 34 0 xmlThrDefSaveNoEmptyTags__internal_alias
FUNC 94430 38 0 __xmlSubstituteEntitiesDefaultValue
FUNC 94468 34 0 xmlThrDefSubstituteEntitiesDefaultValue__internal_alias
FUNC 9449c 38 0 __xmlRegisterNodeDefaultValue
FUNC 944d4 38 0 __xmlDeregisterNodeDefaultValue
FUNC 9450c 38 0 __xmlParserInputBufferCreateFilenameValue
FUNC 94544 38 0 __xmlOutputBufferCreateFilenameValue
FUNC 9457c 30 0 xmlOnceInit
FUNC 945ac 1c 0 xmlFreeGlobalState
FUNC 945c8 38 0 xmlNewMutex__internal_alias
FUNC 94600 34 0 xmlFreeMutex__internal_alias
FUNC 94634 20 0 xmlMutexLock__internal_alias
FUNC 94654 20 0 xmlMutexUnlock__internal_alias
FUNC 94674 4c 0 xmlNewRMutex__internal_alias
FUNC 946c0 3c 0 xmlFreeRMutex__internal_alias
FUNC 946fc b0 0 xmlRMutexLock__internal_alias
FUNC 947ac 64 0 xmlRMutexUnlock__internal_alias
FUNC 94810 34 0 __xmlGlobalInitMutexLock
FUNC 94844 34 0 __xmlGlobalInitMutexUnlock
FUNC 94878 4 0 __xmlGlobalInitMutexDestroy
FUNC 9487c ac 0 xmlGetGlobalState__internal_alias
FUNC 94928 18 0 xmlGetThreadId__internal_alias
FUNC 94940 8 0 xmlLockLibrary__internal_alias
FUNC 94948 8 0 xmlUnlockLibrary__internal_alias
FUNC 94950 17c 0 xmlInitThreads__internal_alias
FUNC 94acc 70 0 xmlIsMainThread__internal_alias
FUNC 94b3c 44 0 xmlCleanupThreads__internal_alias
FUNC 94b80 64 0 xmlC14NStrEqual
FUNC 94be4 78 0 xmlC14NErrParam
FUNC 94c5c 1ec 0 xmlC14NVisibleNsStackFind
FUNC 94e48 78 0 xmlC14NErrInternal
FUNC 94ec0 74 0 xmlC14NErrMemory
FUNC 94f34 314 0 xmlC11NNormalizeString
FUNC 95248 84 0 xmlC14NErr
FUNC 952cc 78 0 xmlC14NErrRelativeNamespace
FUNC 95344 7c 0 xmlC14NIsNodeInNodeset
FUNC 953c0 18c 0 xmlC14NVisibleNsStackAdd
FUNC 9554c f8 0 xmlC14NFreeCtx
FUNC 95644 b8 0 xmlC14NPrintNamespaces
FUNC 956fc 50 0 xmlC14NIsXmlNs
FUNC 9574c 34 0 xmlC14NNsCompare
FUNC 95780 a0 0 xmlC14NAttrsCompare
FUNC 95820 140 0 xmlC14NPrintAttrs
FUNC 95960 21c 0 xmlExcC14NVisibleNsStackFind
FUNC 95b7c 24 0 xmlC14NIsXmlAttr
FUNC 95ba0 94 0 xmlC14NFindHiddenParentAttr
FUNC 95c34 88 0 xmlC14NErrInvalidNode
FUNC 95cbc 15d0 0 xmlC14NProcessNodeList
FUNC 9728c 278 0 xmlC14NExecute__internal_alias
FUNC 97504 44 0 xmlC14NDocSaveTo__internal_alias
FUNC 97548 114 0 xmlC14NDocDumpMemory__internal_alias
FUNC 9765c c0 0 xmlC14NDocSave__internal_alias
FUNC 9771c 78 0 xmlStrndup__internal_alias
FUNC 97794 34 0 xmlStrdup__internal_alias
FUNC 977c8 d0 0 xmlCharStrndup__internal_alias
FUNC 97898 34 0 xmlCharStrdup__internal_alias
FUNC 978cc 48 0 xmlStrcmp__internal_alias
FUNC 97914 48 0 xmlStrEqual__internal_alias
FUNC 9795c 98 0 xmlStrQEqual__internal_alias
FUNC 979f4 38 0 xmlStrncmp__internal_alias
FUNC 97a2c 64 0 xmlStrcasecmp__internal_alias
FUNC 97a90 c8 0 xmlStrncasecmp__internal_alias
FUNC 97b58 50 0 xmlStrchr__internal_alias
FUNC 97ba8 90 0 xmlStrstr__internal_alias
FUNC 97c38 a4 0 xmlStrcasestr__internal_alias
FUNC 97cdc c4 0 xmlStrsub__internal_alias
FUNC 97da0 34 0 xmlStrlen__internal_alias
FUNC 97dd4 e4 0 xmlStrncat__internal_alias
FUNC 97eb8 124 0 xmlStrncatNew__internal_alias
FUNC 97fdc 48 0 xmlStrcat__internal_alias
FUNC 98024 58 0 xmlStrPrintf__internal_alias
FUNC 9807c 38 0 xmlStrVPrintf__internal_alias
FUNC 980b4 78 0 xmlUTF8Size__internal_alias
FUNC 9812c 38 0 xmlUTF8Charcmp__internal_alias
FUNC 98164 b0 0 xmlUTF8Strlen__internal_alias
FUNC 98214 144 0 xmlGetUTF8Char__internal_alias
FUNC 98358 e8 0 xmlCheckUTF8__internal_alias
FUNC 98440 74 0 xmlUTF8Strsize__internal_alias
FUNC 984b4 9c 0 xmlUTF8Strndup__internal_alias
FUNC 98550 8c 0 xmlUTF8Strpos__internal_alias
FUNC 985dc d0 0 xmlUTF8Strloc__internal_alias
FUNC 986ac c0 0 xmlUTF8Strsub__internal_alias
FUNC 9876c 12c 0 xmlRegFreeAtom
FUNC 98898 68 0 xmlRegFreeState
FUNC 98900 f8 0 xmlRegFreeParserCtxt
FUNC 989f8 b4 0 xmlRegStrEqualWildcard
FUNC 98aac 12c 0 xmlExpGetLanguageInt
FUNC 98bd8 164 0 xmlExpGetStartInt
FUNC 98d3c 2a0 0 xmlExpDumpInt
FUNC 98fdc 730 0 xmlRegPrintAtomType
FUNC 9970c 9c 0 xmlRegexpErrCompile
FUNC 997a8 8c 0 xmlRegexpErrMemory
FUNC 99834 398 0 xmlRegStateAddTrans
FUNC 99bcc 140 0 xmlFAReduceEpsilonTransitions
FUNC 99d0c 6b0 0 xmlFAEliminateEpsilonTransitions
FUNC 9a3bc 88 0 xmlRegNewState
FUNC 9a444 124 0 xmlRegStatePush
FUNC 9a568 60 0 xmlFAGenerateCountedTransition
FUNC 9a5c8 5c 0 xmlFAGenerateCountedEpsilonTransition
FUNC 9a624 60 0 xmlFAGenerateEpsilonTransition
FUNC 9a684 100 0 xmlRegGetCounter
FUNC 9a784 78 0 xmlRegNewAtom
FUNC 9a7fc 140 0 xmlRegAtomPush
FUNC 9a93c 1a8 0 xmlRegAtomAddRange
FUNC 9aae4 658 0 xmlFAGenerateTransitions
FUNC 9b13c 7c 0 xmlRegNewParserCtxt
FUNC 9b1b8 2c0 0 xmlRegCompactPushString
FUNC 9b478 118 0 xmlFARegExecSaveInputString
FUNC 9b590 1d0 0 xmlFARegExecSave
FUNC 9b760 b0 0 xmlFARegExecRollBack
FUNC 9b810 978 0 xmlRegExecPushStringInternal
FUNC 9c188 538 0 xmlFAParseCharProp
FUNC 9c6c0 3cc 0 xmlFAParseCharClassEsc
FUNC 9ca8c 5ac 0 xmlFAParsePosCharGroup
FUNC 9d038 e8 0 xmlFAParseCharGroup
FUNC 9d120 408 0 xmlFAParsePiece
FUNC 9d528 dc 0 xmlFAParseBranch
FUNC 9d604 a0 0 xmlFAParseRegExp
FUNC 9d6a4 53c 0 xmlRegExecGetValues
FUNC 9dbe0 90 0 xmlExpParseNumber
FUNC 9dc70 6b8 0 xmlRegCheckCharacterRange
FUNC 9e328 1c0 0 xmlRegCheckCharacter
FUNC 9e4e8 82c 0 xmlFACompareAtoms
FUNC 9ed14 268 0 xmlFARecurseDeterminism
FUNC 9ef7c 60c 0 xmlFAComputesDeterminism
FUNC 9f588 17c 0 xmlRegNewExecCtxt__internal_alias
FUNC 9f704 124 0 xmlRegFreeExecCtxt__internal_alias
FUNC 9f828 8 0 xmlRegExecPushString__internal_alias
FUNC 9f830 170 0 xmlRegExecPushString2__internal_alias
FUNC 9f9a0 34 0 xmlRegExecNextValues__internal_alias
FUNC 9f9d4 4c 0 xmlRegExecErrInfo__internal_alias
FUNC 9fa20 7ec 0 xmlRegexpPrint__internal_alias
FUNC a020c 6cc 0 xmlRegexpExec__internal_alias
FUNC a08d8 16c 0 xmlRegFreeRegexp__internal_alias
FUNC a0a44 c 0 xmlFreeAutomata__internal_alias
FUNC a0a50 90 0 xmlNewAutomata__internal_alias
FUNC a0ae0 e4 0 xmlRegexpIsDeterminist__internal_alias
FUNC a0bc4 a70 0 xmlRegEpxFromParse
FUNC a1634 dc 0 xmlRegexpCompile__internal_alias
FUNC a1710 14 0 xmlAutomataSetFlags
FUNC a1724 c 0 xmlAutomataGetInitState__internal_alias
FUNC a1730 20 0 xmlAutomataSetFinalState__internal_alias
FUNC a1750 ac 0 xmlAutomataNewTransition__internal_alias
FUNC a17fc 16c 0 xmlAutomataNewTransition2__internal_alias
FUNC a1968 1a4 0 xmlAutomataNewNegTrans__internal_alias
FUNC a1b0c 244 0 xmlAutomataNewCountTrans2__internal_alias
FUNC a1d50 168 0 xmlAutomataNewCountTrans__internal_alias
FUNC a1eb8 1f8 0 xmlAutomataNewOnceTrans2__internal_alias
FUNC a20b0 11c 0 xmlAutomataNewOnceTrans__internal_alias
FUNC a21cc 2c 0 xmlAutomataNewState__internal_alias
FUNC a21f8 30 0 xmlAutomataNewEpsilon__internal_alias
FUNC a2228 ac 0 xmlAutomataNewAllTrans__internal_alias
FUNC a22d4 4c 0 xmlAutomataNewCounter__internal_alias
FUNC a2320 48 0 xmlAutomataNewCountedTrans__internal_alias
FUNC a2368 48 0 xmlAutomataNewCounterTrans__internal_alias
FUNC a23b0 34 0 xmlAutomataCompile__internal_alias
FUNC a23e4 14 0 xmlAutomataIsDeterminist__internal_alias
FUNC a23f8 120 0 xmlExpNewCtxt__internal_alias
FUNC a2518 68 0 xmlExpFreeCtxt__internal_alias
FUNC a2580 13c 0 xmlExpFree__internal_alias
FUNC a26bc 70c 0 xmlExpHashGetEntry
FUNC a2dc8 bc 0 xmlExpParseExpr
FUNC a2e84 48c 0 xmlExpParseOr
FUNC a3310 bc 0 xmlExpParseSeq
FUNC a33cc 230 0 xmlExpStringDeriveInt
FUNC a35fc a98 0 xmlExpExpDeriveInt
FUNC a4094 14 0 xmlExpRef__internal_alias
FUNC a40a8 64 0 xmlExpNewAtom__internal_alias
FUNC a410c 70 0 xmlExpNewOr__internal_alias
FUNC a417c 70 0 xmlExpNewSeq__internal_alias
FUNC a41ec 80 0 xmlExpNewRange__internal_alias
FUNC a426c 44 0 xmlExpGetLanguage__internal_alias
FUNC a42b0 44 0 xmlExpGetStart__internal_alias
FUNC a42f4 14 0 xmlExpIsNillable__internal_alias
FUNC a4308 74 0 xmlExpStringDerive__internal_alias
FUNC a437c 98 0 xmlExpExpDerive__internal_alias
FUNC a4414 ec 0 xmlExpSubsume__internal_alias
FUNC a4500 64 0 xmlExpParse__internal_alias
FUNC a4564 18 0 xmlExpDump__internal_alias
FUNC a457c 10 0 xmlExpMaxToken__internal_alias
FUNC a458c 10 0 xmlExpCtxtNbNodes__internal_alias
FUNC a459c 10 0 xmlExpCtxtNbCons__internal_alias
FUNC a45ac 1d4 0 xmlSchemaItemTypeToStr
FUNC a4780 40 0 xmlSchemaGetComponentTypeStr
FUNC a47c0 b0 0 xmlSchemaGetComponentNode
FUNC a4870 80 0 xmlSchemaIsGlobalItem
FUNC a48f0 7c 0 xmlSchemaFreeAnnot
FUNC a496c bc 0 xmlSchemaIsBlank
FUNC a4a28 190 0 xmlSchemaFindRedefCompInGraph
FUNC a4bb8 84 0 xmlSchemaSubstGroupFree
FUNC a4c3c b4 0 xmlSchemaGetCircModelGrDefRef
FUNC a4cf0 60 0 xmlSchemaCheckSubstGroupCircular
FUNC a4d50 110 0 xmlSchemaFacetTypeToString
FUNC a4e60 70 0 xmlSchemaGetWhiteSpaceFacetValue
FUNC a4ed0 7c 0 xmlSchemaIDCFreeBinding
FUNC a4f4c 8 0 xmlSchemaVContentModelCallback
FUNC a4f54 30 0 internalSubsetSplit
FUNC a4f84 3c 0 isStandaloneSplit
FUNC a4fc0 3c 0 hasInternalSubsetSplit
FUNC a4ffc 3c 0 hasExternalSubsetSplit
FUNC a5038 30 0 externalSubsetSplit
FUNC a5068 3c 0 resolveEntitySplit
FUNC a50a4 3c 0 getEntitySplit
FUNC a50e0 3c 0 getParameterEntitySplit
FUNC a511c 48 0 entityDeclSplit
FUNC a5164 30 0 elementDeclSplit
FUNC a5194 30 0 notationDeclSplit
FUNC a51c4 40 0 unparsedEntityDeclSplit
FUNC a5204 30 0 setDocumentLocatorSplit
FUNC a5234 30 0 startDocumentSplit
FUNC a5264 30 0 endDocumentSplit
FUNC a5294 30 0 processingInstructionSplit
FUNC a52c4 30 0 commentSplit
FUNC a52f4 24 0 xmlSchemaAugmentImportedIDC
FUNC a5318 38 0 xmlSchemaPErrMemory
FUNC a5350 64 0 xmlSchemaItemListCreate
FUNC a53b4 98 0 xmlSchemaParserCtxtCreate
FUNC a544c 48 0 xmlSchemaNewParserCtxtUseDict
FUNC a5494 70 0 xmlSchemaNewSchema
FUNC a5504 f0 0 xmlSchemaItemListAdd
FUNC a55f4 b8 0 xmlSchemaAddRedef
FUNC a56ac 108 0 xmlSchemaItemListAddSize
FUNC a57b4 50 0 xmlSchemaAddItemSize
FUNC a5804 154 0 xmlSchemaAddType
FUNC a5958 d0 0 xmlSchemaAddModelGroup
FUNC a5a28 a4 0 xmlSchemaAddParticle
FUNC a5acc cc 0 xmlSchemaAddWildcard
FUNC a5b98 64 0 xmlSchemaNewWildcardNsConstraint
FUNC a5bfc f8 0 xmlSchemaCloneWildcardNsConstraints
FUNC a5cf4 90 0 xmlSchemaNewQNameRef
FUNC a5d84 e8 0 xmlSchemaAddAttribute
FUNC a5e6c b0 0 xmlSchemaAddAttributeUse
FUNC a5f1c 114 0 xmlSchemaItemListRemove
FUNC a6030 f0 0 xmlSchemaConstructionCtxtFree
FUNC a6120 110 0 xmlSchemaConstructionCtxtCreate
FUNC a6230 cc 0 xmlSchemaFormatQName
FUNC a62fc 170 0 xmlSchemaGetComponentQName
FUNC a646c b8 0 xmlSchemaGetComponentDesignation
FUNC a6524 324 0 xmlSchemaFormatNodeForError
FUNC a6848 68 0 fatalErrorSplit
FUNC a68b0 68 0 errorSplit
FUNC a6918 68 0 warningSplit
FUNC a6980 5c 0 xmlSchemaSAXHandleReference
FUNC a69dc 4c 0 referenceSplit
FUNC a6a28 1e0 0 xmlSchemaErr4Line
FUNC a6c08 4c 0 xmlSchemaErr
FUNC a6c54 9c 0 xmlSchemaPErr
FUNC a6cf0 30 0 xmlSchemaPErr2
FUNC a6d20 64 0 xmlSchemaPValAttrFormDefault
FUNC a6d84 60 0 xmlSchemaGetPropNode
FUNC a6de4 88 0 xmlSchemaCheckCVCWildcardNamespace
FUNC a6e6c c8 0 xmlSchemaBuildAbsoluteURI
FUNC a6f34 40 0 xmlSchemaIDCFreeKey
FUNC a6f74 ec 0 xmlSchemaGetType
FUNC a7060 a8 0 xmlSchemaGetAttributeDecl
FUNC a7108 a8 0 xmlSchemaGetNotation
FUNC a71b0 a8 0 xmlSchemaGetElem
FUNC a7258 104 0 xmlSchemaGetNamedComponent
FUNC a735c 3c 0 xmlSchemaNormalizeValue
FUNC a7398 150 0 xmlSchemaAreValuesEqual
FUNC a74e8 1f4 0 xmlSchemaGetCanonValueWhtspExt
FUNC a76dc 304 0 xmlSchemaBuildContentModelForSubstGroup
FUNC a79e0 68 0 xmlSchemaFreeIDCStateObjList
FUNC a7a48 60 0 attributeDeclSplit
FUNC a7aa8 80 0 xmlSchemaAnnotDump
FUNC a7b28 2b8 0 xmlSchemaContentModelDump
FUNC a7de0 558 0 xmlSchemaTypeDump
FUNC a8338 270 0 xmlSchemaElementDump
FUNC a85a8 108 0 xmlSchemaGetParticleTotalRangeMin
FUNC a86b0 58 0 xmlSchemaIsParticleEmptiable
FUNC a8708 bc 0 xmlSchemaCheckAttrGroupCircularRecur
FUNC a87c4 278 0 xmlSchemaClearElemInfo
FUNC a8a3c c0 0 xmlSchemaCustomWarning
FUNC a8afc 60 0 xmlSchemaGetProp
FUNC a8b5c e8 0 xmlSchemaClearAttrInfos
FUNC a8c44 2e0 0 xmlSchemaClearValidCtxt
FUNC a8f24 70 0 xmlSchemaGetNodeContent
FUNC a8f94 390 0 xmlSchemaComplexTypeErr
FUNC a9324 888 0 xmlSchemaFormatItemForReport
FUNC a9bac 98 0 xmlSchemaPIllegalFacetListUnionErr
FUNC a9c44 140 0 xmlSchemaPAttrUseErr4
FUNC a9d84 12c 0 xmlSchemaCustomErr4
FUNC a9eb0 38 0 xmlSchemaCustomErr
FUNC a9ee8 114 0 xmlSchemaCheckReference
FUNC a9ffc b0 0 xmlSchemaPErrExt
FUNC aa0ac 9c 0 xmlSchemaPMutualExclAttrErr
FUNC aa148 10c 0 xmlSchemaPCustomErrExt
FUNC aa254 30 0 xmlSchemaPCustomErr
FUNC aa284 140 0 xmlSchemaAddAnnotation
FUNC aa3c4 a8 0 xmlSchemaCheckTypeDefCircularInternal
FUNC aa46c 164 0 xmlSchemaCheckUnionTypeDefCircularRecur
FUNC aa5d0 180 0 xmlSchemaDeriveFacetErr
FUNC aa750 48 0 xmlSchemaVErrMemory
FUNC aa798 74 0 xmlSchemaIDCNewBinding
FUNC aa80c 94 0 xmlSchemaAugmentIDC
FUNC aa8a0 e0 0 xmlSchemaInternalErr2
FUNC aa980 8 0 xmlSchemaInternalErr
FUNC aa988 234 0 xmlSchemaGetFreshElemInfo
FUNC aabbc 178 0 xmlSchemaGetFreshAttrInfo
FUNC aad34 16c 0 xmlSchemaFixupSimpleTypeStageOne
FUNC aaea0 960 0 xmlSchemaExpandAttributeGroupRefs
FUNC ab800 50 0 xmlSchemaAttributeGroupExpandRefs
FUNC ab850 358 0 xmlSchemaAddComponents
FUNC abba8 184 0 xmlSchemaLookupNamespace
FUNC abd2c 1dc 0 xmlSchemaValidateNotation
FUNC abf08 180 0 xmlSchemaFormatIDCKeySequence
FUNC ac088 b5c 0 xmlSchemaBuildAContentModel
FUNC acbe4 128 0 xmlSchemaIDCAddStateObject
FUNC acd0c 238 0 xmlSchemaXPathEvaluate
FUNC acf44 de0 0 xmlSchemaXPathProcessHistory
FUNC add24 250 0 xmlSchemaSimpleTypeErr
FUNC adf74 e0 0 xmlSchemaIllegalAttrErr
FUNC ae054 6b4 0 xmlSchemaFacetErr
FUNC ae708 4fc 0 xmlSchemaValidateFacets
FUNC aec04 a04 0 xmlSchemaVCheckCVCSimpleType
FUNC af608 58 0 xmlSchemaVCheckINodeDataType
FUNC af660 8c 0 xmlSchemaPMissingAttrErr
FUNC af6ec dc 0 xmlSchemaPResCompAttrErr
FUNC af7c8 160 0 xmlSchemaResolveElementReferences
FUNC af928 9c 0 xmlSchemaPCustomAttrErr
FUNC af9c4 b0 0 xmlSchemaPCheckParticleCorrect_2
FUNC afa74 fc 0 xmlSchemaPContentErr
FUNC afb70 224 0 xmlSchemaVPushText
FUNC afd94 a8 0 xmlSchemaSAXHandleText
FUNC afe3c 50 0 ignorableWhitespaceSplit
FUNC afe8c 50 0 charactersSplit
FUNC afedc a8 0 xmlSchemaSAXHandleCDataSection
FUNC aff84 50 0 cdataBlockSplit
FUNC affd4 100 0 xmlSchemaKeyrefErr
FUNC b00d4 1ab8 0 xmlSchemaValidatorPopElem
FUNC b1b8c d8 0 xmlSchemaSAXHandleEndElementNs
FUNC b1c64 58 0 endElementNsSplit
FUNC b1cbc dc 0 xmlSchemaPIllegalAttrErr
FUNC b1d98 37c 0 xmlSchemaPSimpleTypeErr
FUNC b2114 ec 0 xmlGetBooleanProp
FUNC b2200 12c 0 xmlGetMinOccurs
FUNC b232c 180 0 xmlGetMaxOccurs
FUNC b24ac 190 0 xmlSchemaPValAttrNodeQNameValue
FUNC b263c 48 0 xmlSchemaPValAttrNodeQName
FUNC b2684 4c 0 xmlSchemaPValAttrQName
FUNC b26d0 144 0 xmlSchemaPValAttrNodeValue
FUNC b2814 68 0 xmlSchemaPValAttrNode
FUNC b287c d4 0 xmlSchemaPValAttr
FUNC b2950 3e0 0 xmlSchemaParseWildcardNs
FUNC b2d30 f8 0 xmlSchemaPGetBoolNodeValue
FUNC b2e28 148 0 xmlSchemaPValAttrNodeID
FUNC b2f70 30 0 xmlSchemaPValAttrID
FUNC b2fa0 43c 0 xmlSchemaParseAnnotation
FUNC b33dc 1e0 0 xmlSchemaParseAnyAttribute
FUNC b35bc 2f4 0 xmlSchemaParseModelGroupDefRef
FUNC b38b0 474 0 xmlSchemaParseIDCSelectorAndField
FUNC b3d24 580 0 xmlSchemaParseIDC
FUNC b42a4 64 0 xmlSchemaIsDerivedFromBuiltInType
FUNC b4308 308 0 xmlSchemaPValAttrBlockFinal
FUNC b4610 1e4 0 xmlSchemaValidatorPushAttribute
FUNC b47f4 68 0 xmlSchemaNewFacet__internal_alias
FUNC b485c 88 0 xmlSchemaFreeWildcard__internal_alias
FUNC b48e4 64 0 xmlSchemaFreeFacet__internal_alias
FUNC b4948 13c0 0 xmlSchemaParseRestriction
FUNC b5d08 e40 0 xmlSchemaParseSimpleType
FUNC b6b48 11b0 0 xmlSchemaParseLocalAttributes
FUNC b7cf8 3e4 0 xmlSchemaParseAttributeGroupDefinition
FUNC b80dc e38 0 xmlSchemaParseComplexType
FUNC b8f14 ec0 0 xmlSchemaParseElement
FUNC b9dd4 d84 0 xmlSchemaParseModelGroup
FUNC bab58 4f8 0 xmlSchemaParseExtension
FUNC bb050 430 0 xmlSchemaParseModelGroupDefinition
FUNC bb480 100 0 xmlSchemaFreeType__internal_alias
FUNC bb580 31c 0 xmlSchemaComponentListFree
FUNC bb89c 1a4 0 xmlSchemaFree__internal_alias
FUNC bba40 130 0 xmlSchemaBucketFree
FUNC bbb70 de0 0 xmlSchemaAddSchemaDoc
FUNC bc950 124 0 xmlSchemaDump__internal_alias
FUNC bca74 44 0 xmlSchemaNewParserCtxt__internal_alias
FUNC bcab8 50 0 xmlSchemaNewMemParserCtxt__internal_alias
FUNC bcb08 40 0 xmlSchemaNewDocParserCtxt__internal_alias
FUNC bcb48 3c 0 xmlSchemaGetParserErrors__internal_alias
FUNC bcb84 78 0 xmlSchemaNewValidCtxt__internal_alias
FUNC bcbfc 27c 0 xmlSchemaFreeValidCtxt__internal_alias
FUNC bce78 f8 0 xmlSchemaFreeParserCtxt__internal_alias
FUNC bcf70 498 0 xmlSchemaCheckFacet__internal_alias
FUNC bd408 20 0 xmlSchemaIsValid__internal_alias
FUNC bd428 40 0 xmlSchemaSetValidErrors__internal_alias
FUNC bd468 40 0 xmlSchemaSetParserErrors__internal_alias
FUNC bd4a8 44 0 xmlSchemaSetValidStructuredErrors__internal_alias
FUNC bd4ec 1ef8 0 xmlSchemaFixupSimpleTypeStageTwo
FUNC bf3e4 98 0 xmlSchemaTypeFixup
FUNC bf47c 194 0 xmlSchemaCheckCOSSTDerivedOK
FUNC bf610 954 0 xmlSchemaCheckDerivationOKRestriction2to4
FUNC bff64 c8 0 xmlSchemaCheckCOSDerivedOK
FUNC c002c 710 0 xmlSchemaCheckElementDeclComponent
FUNC c073c 304 0 xmlSchemaProcessXSIType
FUNC c0a40 1a40 0 xmlSchemaFixupComplexType
FUNC c2480 1ca4 0 xmlSchemaFixupComponents
FUNC c4124 34 0 xmlSchemaSetParserStructuredErrors__internal_alias
FUNC c4158 124 0 xmlSchemaPreRun
FUNC c427c 13c 0 xmlSchemaParseNewDoc
FUNC c43b8 910 0 xmlSchemaParseIncludeOrRedefine
FUNC c4cc8 1480 0 xmlSchemaParseNewDocWithContext
FUNC c6148 20c4 0 xmlSchemaValidateElem
FUNC c820c 3fc 0 xmlSchemaVStart
FUNC c8608 60c 0 xmlSchemaSAXHandleStartElementNs
FUNC c8c14 a0 0 startElementNsSplit
FUNC c8cb4 21c 0 xmlSchemaParse__internal_alias
FUNC c8ed0 3c 0 xmlSchemaGetValidErrors__internal_alias
FUNC c8f0c 5c 0 xmlSchemaSetValidOptions__internal_alias
FUNC c8f68 10 0 xmlSchemaValidCtxtGetOptions__internal_alias
FUNC c8f78 40 0 xmlSchemaValidateOneElement__internal_alias
FUNC c8fb8 8c 0 xmlSchemaValidateDoc__internal_alias
FUNC c9044 408 0 xmlSchemaSAXPlug__internal_alias
FUNC c944c ac 0 xmlSchemaSAXUnplug__internal_alias
FUNC c94f8 120 0 xmlSchemaValidateStream__internal_alias
FUNC c9618 58 0 xmlSchemaValidateFile__internal_alias
FUNC c9670 c 0 xmlSchemaValidCtxtGetParserCtxt__internal_alias
FUNC c967c 78 0 _xmlSchemaParseGMonth
FUNC c96f4 78 0 _xmlSchemaParseGDay
FUNC c976c 248 0 _xmlSchemaParseTime
FUNC c99b4 1d8 0 _xmlSchemaParseTimeZone
FUNC c9b8c 60 0 _xmlSchemaBase64Decode
FUNC c9bec 268 0 xmlSchemaParseUInt
FUNC c9e54 364 0 xmlSchemaCompareDecimals
FUNC ca1b8 18c 0 _xmlSchemaDateCastYMToDays
FUNC ca344 a4 0 xmlSchemaComparePreserveReplaceStrings
FUNC ca3e8 10c 0 xmlSchemaComparePreserveCollapseStrings
FUNC ca4f4 154 0 xmlSchemaCompareReplaceCollapseStrings
FUNC ca648 12c 0 xmlSchemaNormLen
FUNC ca774 60 0 xmlSchemaNewValue
FUNC ca7d4 3c 0 xmlSchemaDupVal
FUNC ca810 1dc 0 xmlSchemaValidateLengthFacetInternal
FUNC ca9ec 198 0 xmlSchemaStrip
FUNC cab84 28 0 xmlSchemaTypeErrMemory
FUNC cabac 80 0 xmlSchemaAddParticle
FUNC cac2c 20c 0 xmlSchemaInitBasicType
FUNC cae38 718 0 xmlSchemaInitTypes__internal_alias
FUNC cb550 a8 0 xmlSchemaCleanupTypes__internal_alias
FUNC cb5f8 1d8 0 xmlSchemaIsBuiltInTypeFacet__internal_alias
FUNC cb7d0 490 0 xmlSchemaGetBuiltInType__internal_alias
FUNC cbc60 20 0 xmlSchemaValueAppend__internal_alias
FUNC cbc80 c 0 xmlSchemaValueGetNext__internal_alias
FUNC cbc8c e4 0 xmlSchemaValueGetAsString__internal_alias
FUNC cbd70 1c 0 xmlSchemaValueGetAsBoolean__internal_alias
FUNC cbd8c 80 0 xmlSchemaNewStringValue__internal_alias
FUNC cbe0c 2c 0 xmlSchemaNewNOTATIONValue__internal_alias
FUNC cbe38 24 0 xmlSchemaNewQNameValue__internal_alias
FUNC cbe5c 138 0 xmlSchemaFreeValue__internal_alias
FUNC cbf94 814 0 xmlSchemaDateNormalize
FUNC cc7a8 11f8 0 xmlSchemaCompareValuesInternal
FUNC cd9a0 5c 0 xmlSchemaGetPredefinedType__internal_alias
FUNC cd9fc 78 0 xmlSchemaGetBuiltInListSimpleTypeItemType__internal_alias
FUNC cda74 c0 0 xmlSchemaWhiteSpaceReplace__internal_alias
FUNC cdb34 28c 0 xmlSchemaCollapseString__internal_alias
FUNC cddc0 24 0 xmlSchemaValPredefTypeNode__internal_alias
FUNC cdde4 278 0 xmlSchemaValAtomicListNode
FUNC ce05c 2870 0 xmlSchemaValAtomicType
FUNC d08cc 24 0 xmlSchemaValPredefTypeNodeNoNorm__internal_alias
FUNC d08f0 8 0 xmlSchemaValidatePredefinedType__internal_alias
FUNC d08f8 184 0 xmlSchemaCopyValue__internal_alias
FUNC d0a7c 7c 0 xmlSchemaCompareValues__internal_alias
FUNC d0af8 480 0 xmlSchemaValidateFacetInternal
FUNC d0f78 60 0 xmlSchemaCompareValuesWhtsp__internal_alias
FUNC d0fd8 10 0 xmlSchemaGetFacetValueAsULong__internal_alias
FUNC d0fe8 38 0 xmlSchemaValidateLengthFacet__internal_alias
FUNC d1020 4 0 xmlSchemaValidateLengthFacetWhtsp__internal_alias
FUNC d1024 5c 0 xmlSchemaValidateFacet__internal_alias
FUNC d1080 f0 0 xmlSchemaValidateListSimpleTypeFacet__internal_alias
FUNC d1170 4 0 xmlSchemaValidateFacetWhtsp__internal_alias
FUNC d1174 c2c 0 xmlSchemaGetCanonValue__internal_alias
FUNC d1da0 138 0 xmlSchemaGetCanonValueWhtsp__internal_alias
FUNC d1ed8 c 0 xmlSchemaGetValType__internal_alias
FUNC d1ee4 18 0 xmlUCSIsAegeanNumbers__internal_alias
FUNC d1efc 14 0 xmlUCSIsAlphabeticPresentationForms__internal_alias
FUNC d1f10 14 0 xmlUCSIsArabic__internal_alias
FUNC d1f24 18 0 xmlUCSIsArabicPresentationFormsA__internal_alias
FUNC d1f3c 18 0 xmlUCSIsArabicPresentationFormsB__internal_alias
FUNC d1f54 14 0 xmlUCSIsArmenian__internal_alias
FUNC d1f68 18 0 xmlUCSIsArrows__internal_alias
FUNC d1f80 10 0 xmlUCSIsBasicLatin__internal_alias
FUNC d1f90 14 0 xmlUCSIsBengali__internal_alias
FUNC d1fa4 14 0 xmlUCSIsBlockElements__internal_alias
FUNC d1fb8 14 0 xmlUCSIsBopomofo__internal_alias
FUNC d1fcc 18 0 xmlUCSIsBopomofoExtended__internal_alias
FUNC d1fe4 14 0 xmlUCSIsBoxDrawing__internal_alias
FUNC d1ff8 14 0 xmlUCSIsBraillePatterns__internal_alias
FUNC d200c 14 0 xmlUCSIsBuhid__internal_alias
FUNC d2020 14 0 xmlUCSIsByzantineMusicalSymbols__internal_alias
FUNC d2034 14 0 xmlUCSIsCJKCompatibility__internal_alias
FUNC d2048 18 0 xmlUCSIsCJKCompatibilityForms__internal_alias
FUNC d2060 14 0 xmlUCSIsCJKCompatibilityIdeographs__internal_alias
FUNC d2074 14 0 xmlUCSIsCJKCompatibilityIdeographsSupplement__internal_alias
FUNC d2088 14 0 xmlUCSIsCJKRadicalsSupplement__internal_alias
FUNC d209c 14 0 xmlUCSIsCJKSymbolsandPunctuation__internal_alias
FUNC d20b0 14 0 xmlUCSIsCJKUnifiedIdeographs__internal_alias
FUNC d20c4 14 0 xmlUCSIsCJKUnifiedIdeographsExtensionA__internal_alias
FUNC d20d8 1c 0 xmlUCSIsCJKUnifiedIdeographsExtensionB__internal_alias
FUNC d20f4 18 0 xmlUCSIsCherokee__internal_alias
FUNC d210c 14 0 xmlUCSIsCombiningDiacriticalMarks__internal_alias
FUNC d2120 18 0 xmlUCSIsCombiningDiacriticalMarksforSymbols__internal_alias
FUNC d2138 18 0 xmlUCSIsCombiningHalfMarks__internal_alias
FUNC d2150 18 0 xmlUCSIsCombiningMarksforSymbols__internal_alias
FUNC d2168 14 0 xmlUCSIsControlPictures__internal_alias
FUNC d217c 18 0 xmlUCSIsCurrencySymbols__internal_alias
FUNC d2194 14 0 xmlUCSIsCypriotSyllabary__internal_alias
FUNC d21a8 14 0 xmlUCSIsCyrillic__internal_alias
FUNC d21bc 14 0 xmlUCSIsCyrillicSupplement__internal_alias
FUNC d21d0 14 0 xmlUCSIsDeseret__internal_alias
FUNC d21e4 14 0 xmlUCSIsDevanagari__internal_alias
FUNC d21f8 14 0 xmlUCSIsDingbats__internal_alias
FUNC d220c 18 0 xmlUCSIsEnclosedAlphanumerics__internal_alias
FUNC d2224 14 0 xmlUCSIsEnclosedCJKLettersandMonths__internal_alias
FUNC d2238 14 0 xmlUCSIsEthiopic__internal_alias
FUNC d224c 14 0 xmlUCSIsGeneralPunctuation__internal_alias
FUNC d2260 18 0 xmlUCSIsGeometricShapes__internal_alias
FUNC d2278 18 0 xmlUCSIsGeorgian__internal_alias
FUNC d2290 18 0 xmlUCSIsGothic__internal_alias
FUNC d22a8 14 0 xmlUCSIsGreek__internal_alias
FUNC d22bc 14 0 xmlUCSIsGreekExtended__internal_alias
FUNC d22d0 14 0 xmlUCSIsGreekandCoptic__internal_alias
FUNC d22e4 14 0 xmlUCSIsGujarati__internal_alias
FUNC d22f8 14 0 xmlUCSIsGurmukhi__internal_alias
FUNC d230c 14 0 xmlUCSIsHalfwidthandFullwidthForms__internal_alias
FUNC d2320 18 0 xmlUCSIsHangulCompatibilityJamo__internal_alias
FUNC d2338 14 0 xmlUCSIsHangulJamo__internal_alias
FUNC d234c 1c 0 xmlUCSIsHangulSyllables__internal_alias
FUNC d2368 18 0 xmlUCSIsHanunoo__internal_alias
FUNC d2380 14 0 xmlUCSIsHebrew__internal_alias
FUNC d2394 18 0 xmlUCSIsHighPrivateUseSurrogates__internal_alias
FUNC d23ac 14 0 xmlUCSIsHighSurrogates__internal_alias
FUNC d23c0 14 0 xmlUCSIsHiragana__internal_alias
FUNC d23d4 14 0 xmlUCSIsIPAExtensions__internal_alias
FUNC d23e8 18 0 xmlUCSIsIdeographicDescriptionCharacters__internal_alias
FUNC d2400 18 0 xmlUCSIsKanbun__internal_alias
FUNC d2418 14 0 xmlUCSIsKangxiRadicals__internal_alias
FUNC d242c 14 0 xmlUCSIsKannada__internal_alias
FUNC d2440 18 0 xmlUCSIsKatakana__internal_alias
FUNC d2458 18 0 xmlUCSIsKatakanaPhoneticExtensions__internal_alias
FUNC d2470 14 0 xmlUCSIsKhmer__internal_alias
FUNC d2484 18 0 xmlUCSIsKhmerSymbols__internal_alias
FUNC d249c 14 0 xmlUCSIsLao__internal_alias
FUNC d24b0 14 0 xmlUCSIsLatin1Supplement__internal_alias
FUNC d24c4 14 0 xmlUCSIsLatinExtendedA__internal_alias
FUNC d24d8 14 0 xmlUCSIsLatinExtendedB__internal_alias
FUNC d24ec 14 0 xmlUCSIsLatinExtendedAdditional__internal_alias
FUNC d2500 14 0 xmlUCSIsLetterlikeSymbols__internal_alias
FUNC d2514 14 0 xmlUCSIsLimbu__internal_alias
FUNC d2528 18 0 xmlUCSIsLinearBIdeograms__internal_alias
FUNC d2540 14 0 xmlUCSIsLinearBSyllabary__internal_alias
FUNC d2554 14 0 xmlUCSIsLowSurrogates__internal_alias
FUNC d2568 14 0 xmlUCSIsMalayalam__internal_alias
FUNC d257c 14 0 xmlUCSIsMathematicalAlphanumericSymbols__internal_alias
FUNC d2590 14 0 xmlUCSIsMathematicalOperators__internal_alias
FUNC d25a4 14 0 xmlUCSIsMiscellaneousMathematicalSymbolsA__internal_alias
FUNC d25b8 14 0 xmlUCSIsMiscellaneousMathematicalSymbolsB__internal_alias
FUNC d25cc 14 0 xmlUCSIsMiscellaneousSymbols__internal_alias
FUNC d25e0 14 0 xmlUCSIsMiscellaneousSymbolsandArrows__internal_alias
FUNC d25f4 14 0 xmlUCSIsMiscellaneousTechnical__internal_alias
FUNC d2608 14 0 xmlUCSIsMongolian__internal_alias
FUNC d261c 18 0 xmlUCSIsMusicalSymbols__internal_alias
FUNC d2634 14 0 xmlUCSIsMyanmar__internal_alias
FUNC d2648 18 0 xmlUCSIsNumberForms__internal_alias
FUNC d2660 14 0 xmlUCSIsOgham__internal_alias
FUNC d2674 18 0 xmlUCSIsOldItalic__internal_alias
FUNC d268c 14 0 xmlUCSIsOpticalCharacterRecognition__internal_alias
FUNC d26a0 14 0 xmlUCSIsOriya__internal_alias
FUNC d26b4 18 0 xmlUCSIsOsmanya__internal_alias
FUNC d26cc 14 0 xmlUCSIsPhoneticExtensions__internal_alias
FUNC d26e0 38 0 xmlUCSIsPrivateUse__internal_alias
FUNC d2718 14 0 xmlUCSIsPrivateUseArea__internal_alias
FUNC d272c 18 0 xmlUCSIsRunic__internal_alias
FUNC d2744 18 0 xmlUCSIsShavian__internal_alias
FUNC d275c 14 0 xmlUCSIsSinhala__internal_alias
FUNC d2770 18 0 xmlUCSIsSmallFormVariants__internal_alias
FUNC d2788 14 0 xmlUCSIsSpacingModifierLetters__internal_alias
FUNC d279c 18 0 xmlUCSIsSpecials__internal_alias
FUNC d27b4 18 0 xmlUCSIsSuperscriptsandSubscripts__internal_alias
FUNC d27cc 18 0 xmlUCSIsSupplementalArrowsA__internal_alias
FUNC d27e4 14 0 xmlUCSIsSupplementalArrowsB__internal_alias
FUNC d27f8 14 0 xmlUCSIsSupplementalMathematicalOperators__internal_alias
FUNC d280c 14 0 xmlUCSIsSupplementaryPrivateUseAreaA__internal_alias
FUNC d2820 14 0 xmlUCSIsSupplementaryPrivateUseAreaB__internal_alias
FUNC d2834 14 0 xmlUCSIsSyriac__internal_alias
FUNC d2848 14 0 xmlUCSIsTagalog__internal_alias
FUNC d285c 18 0 xmlUCSIsTagbanwa__internal_alias
FUNC d2874 14 0 xmlUCSIsTags__internal_alias
FUNC d2888 18 0 xmlUCSIsTaiLe__internal_alias
FUNC d28a0 18 0 xmlUCSIsTaiXuanJingSymbols__internal_alias
FUNC d28b8 14 0 xmlUCSIsTamil__internal_alias
FUNC d28cc 14 0 xmlUCSIsTelugu__internal_alias
FUNC d28e0 14 0 xmlUCSIsThaana__internal_alias
FUNC d28f4 14 0 xmlUCSIsThai__internal_alias
FUNC d2908 14 0 xmlUCSIsTibetan__internal_alias
FUNC d291c 18 0 xmlUCSIsUgaritic__internal_alias
FUNC d2934 14 0 xmlUCSIsUnifiedCanadianAboriginalSyllabics__internal_alias
FUNC d2948 14 0 xmlUCSIsVariationSelectors__internal_alias
FUNC d295c 18 0 xmlUCSIsVariationSelectorsSupplement__internal_alias
FUNC d2974 18 0 xmlUCSIsYiRadicals__internal_alias
FUNC d298c 14 0 xmlUCSIsYiSyllables__internal_alias
FUNC d29a0 18 0 xmlUCSIsYijingHexagramSymbols__internal_alias
FUNC d29b8 18 0 xmlUCSIsCatCc__internal_alias
FUNC d29d0 4c 0 xmlUCSIsCatCo__internal_alias
FUNC d2a1c 3c 0 xmlUCSIsCatCs__internal_alias
FUNC d2a58 4c 0 xmlUCSIsCatMe__internal_alias
FUNC d2aa4 6c 0 xmlUCSIsCatNl__internal_alias
FUNC d2b10 80 0 xmlUCSIsCatPc__internal_alias
FUNC d2b90 3c 0 xmlUCSIsCatPf__internal_alias
FUNC d2bcc 4c 0 xmlUCSIsCatPi__internal_alias
FUNC d2c18 18 0 xmlUCSIsCatZl__internal_alias
FUNC d2c30 18 0 xmlUCSIsCatZp__internal_alias
FUNC d2c48 60 0 xmlUCSIsCatZs__internal_alias
FUNC d2ca8 7c 0 xmlUnicodeLookup
FUNC d2d24 10 0 xmlUCSIsCatZ__internal_alias
FUNC d2d34 14 0 xmlUCSIsCatSo__internal_alias
FUNC d2d48 14 0 xmlUCSIsCatSm__internal_alias
FUNC d2d5c 14 0 xmlUCSIsCatSk__internal_alias
FUNC d2d70 14 0 xmlUCSIsCatSc__internal_alias
FUNC d2d84 14 0 xmlUCSIsCatS__internal_alias
FUNC d2d98 14 0 xmlUCSIsCatPs__internal_alias
FUNC d2dac 14 0 xmlUCSIsCatPo__internal_alias
FUNC d2dc0 14 0 xmlUCSIsCatPe__internal_alias
FUNC d2dd4 14 0 xmlUCSIsCatPd__internal_alias
FUNC d2de8 14 0 xmlUCSIsCatP__internal_alias
FUNC d2dfc 14 0 xmlUCSIsCatNo__internal_alias
FUNC d2e10 14 0 xmlUCSIsCatNd__internal_alias
FUNC d2e24 14 0 xmlUCSIsCatN__internal_alias
FUNC d2e38 14 0 xmlUCSIsCatMn__internal_alias
FUNC d2e4c 14 0 xmlUCSIsCatMc__internal_alias
FUNC d2e60 14 0 xmlUCSIsCatM__internal_alias
FUNC d2e74 14 0 xmlUCSIsCatLu__internal_alias
FUNC d2e88 14 0 xmlUCSIsCatLt__internal_alias
FUNC d2e9c 14 0 xmlUCSIsCatLo__internal_alias
FUNC d2eb0 14 0 xmlUCSIsCatLm__internal_alias
FUNC d2ec4 14 0 xmlUCSIsCatLl__internal_alias
FUNC d2ed8 14 0 xmlUCSIsCatL__internal_alias
FUNC d2eec 14 0 xmlUCSIsCatCf__internal_alias
FUNC d2f00 14 0 xmlUCSIsCatC__internal_alias
FUNC d2f14 38 0 xmlUCSIsBlock__internal_alias
FUNC d2f4c 38 0 xmlUCSIsCat__internal_alias
FUNC d2f84 7c 0 xmlTextReaderStartElement
FUNC d3000 24 0 xmlTextReaderEndElement
FUNC d3024 a4 0 xmlTextReaderStartElementNs
FUNC d30c8 24 0 xmlTextReaderEndElementNs
FUNC d30ec 24 0 xmlTextReaderCharacters
FUNC d3110 24 0 xmlTextReaderCDataBlock
FUNC d3134 40 0 xmlTextReaderValidityStructuredRelay
FUNC d3174 58 0 xmlTextReaderGenericError
FUNC d31cc 28 0 xmlTextReaderStructuredError
FUNC d31f4 104 0 xmlTextReaderEntPush
FUNC d32f8 13c 0 xmlTextReaderBuildMessage
FUNC d3434 68 0 xmlTextReaderValidityWarning
FUNC d349c 44 0 xmlTextReaderWarning
FUNC d34e0 68 0 xmlTextReaderValidityError
FUNC d3548 a0 0 xmlTextReaderValidityWarningRelay
FUNC d35e8 a0 0 xmlTextReaderValidityErrorRelay
FUNC d3688 44 0 xmlTextReaderError
FUNC d36cc 88 0 xmlFreeID
FUNC d3754 1c8 0 xmlTextReaderFreeProp
FUNC d391c 2c 0 xmlTextReaderFreePropList
FUNC d3948 260 0 xmlTextReaderFreeNodeList
FUNC d3ba8 18c 0 xmlTextReaderFreeDoc
FUNC d3d34 23c 0 xmlTextReaderPushData
FUNC d3f70 c4 0 xmlTextReaderDoExpand
FUNC d4034 b4 0 xmlTextReaderCollectSiblings
FUNC d40e8 13c 0 xmlTextReaderValidatePop
FUNC d4224 23c 0 xmlTextReaderFreeNode
FUNC d4460 90 0 xmlTextReaderValidateCData
FUNC d44f0 254 0 xmlTextReaderSchemaValidateInternal
FUNC d4744 10 0 xmlTextReaderReadState__internal_alias
FUNC d4754 50 0 xmlTextReaderExpand__internal_alias
FUNC d47a4 178 0 xmlTextReaderValidatePush
FUNC d491c d8 0 xmlTextReaderReadInnerXml__internal_alias
FUNC d49f4 b4 0 xmlTextReaderReadOuterXml__internal_alias
FUNC d4aa8 bc 0 xmlTextReaderReadString__internal_alias
FUNC d4b64 348 0 xmlNewTextReader__internal_alias
FUNC d4eac c8 0 xmlNewTextReaderFilename__internal_alias
FUNC d4f74 234 0 xmlFreeTextReader__internal_alias
FUNC d51a8 a0 0 xmlTextReaderClose__internal_alias
FUNC d5248 dc 0 xmlTextReaderGetAttributeNo__internal_alias
FUNC d5324 1b0 0 xmlTextReaderGetAttribute__internal_alias
FUNC d54d4 114 0 xmlTextReaderGetAttributeNs__internal_alias
FUNC d55e8 d8 0 xmlTextReaderGetRemainder__internal_alias
FUNC d56c0 40 0 xmlTextReaderLookupNamespace__internal_alias
FUNC d5700 100 0 xmlTextReaderMoveToAttributeNo__internal_alias
FUNC d5800 234 0 xmlTextReaderMoveToAttribute__internal_alias
FUNC d5a34 158 0 xmlTextReaderMoveToAttributeNs__internal_alias
FUNC d5b8c 5c 0 xmlTextReaderMoveToFirstAttribute__internal_alias
FUNC d5be8 90 0 xmlTextReaderMoveToNextAttribute__internal_alias
FUNC d5c78 4c 0 xmlTextReaderMoveToElement__internal_alias
FUNC d5cc4 ec 0 xmlTextReaderReadAttributeValue__internal_alias
FUNC d5db0 54 0 xmlTextReaderConstEncoding__internal_alias
FUNC d5e04 94 0 xmlTextReaderAttributeCount__internal_alias
FUNC d5e98 130 0 xmlTextReaderNodeType__internal_alias
FUNC d5fc8 88 0 xmlTextReaderIsEmptyElement__internal_alias
FUNC d6050 184 0 xmlTextReaderName__internal_alias
FUNC d61d4 6c 0 xmlTextReaderLocalName__internal_alias
FUNC d6240 180 0 xmlTextReaderConstName__internal_alias
FUNC d63c0 70 0 xmlTextReaderConstLocalName__internal_alias
FUNC d6430 7c 0 xmlTextReaderPrefix__internal_alias
FUNC d64ac 94 0 xmlTextReaderConstPrefix__internal_alias
FUNC d6540 68 0 xmlTextReaderNamespaceUri__internal_alias
FUNC d65a8 7c 0 xmlTextReaderConstNamespaceUri__internal_alias
FUNC d6624 24 0 xmlTextReaderBaseUri__internal_alias
FUNC d6648 74 0 xmlTextReaderConstBaseUri__internal_alias
FUNC d66bc 4c 0 xmlTextReaderDepth__internal_alias
FUNC d6708 58 0 xmlTextReaderHasAttributes__internal_alias
FUNC d6760 54 0 xmlTextReaderHasValue__internal_alias
FUNC d67b4 90 0 xmlTextReaderValue__internal_alias
FUNC d6844 10c 0 xmlTextReaderConstValue__internal_alias
FUNC d6950 10 0 xmlTextReaderIsDefault__internal_alias
FUNC d6960 10 0 xmlTextReaderQuoteChar__internal_alias
FUNC d6970 18 0 xmlTextReaderXmlLang__internal_alias
FUNC d6988 70 0 xmlTextReaderConstXmlLang__internal_alias
FUNC d69f8 14 0 xmlTextReaderConstString__internal_alias
FUNC d6a0c 10 0 xmlTextReaderNormalization__internal_alias
FUNC d6a1c ec 0 xmlTextReaderSetParserProp__internal_alias
FUNC d6b08 84 0 xmlTextReaderGetParserProp__internal_alias
FUNC d6b8c 24 0 xmlTextReaderGetParserLineNumber__internal_alias
FUNC d6bb0 24 0 xmlTextReaderGetParserColumnNumber__internal_alias
FUNC d6bd4 20 0 xmlTextReaderCurrentNode__internal_alias
FUNC d6bf4 80 0 xmlTextReaderPreserve__internal_alias
FUNC d6c74 b98 0 xmlTextReaderRead__internal_alias
FUNC d780c 110 0 xmlTextReaderNextTree
FUNC d791c 5c 0 xmlTextReaderNextSibling__internal_alias
FUNC d7978 98 0 xmlTextReaderNext__internal_alias
FUNC d7a10 144 0 xmlTextReaderPreservePattern__internal_alias
FUNC d7b54 3c 0 xmlTextReaderCurrentDoc__internal_alias
FUNC d7b90 10c 0 xmlTextReaderRelaxNGSetSchema__internal_alias
FUNC d7c9c 1b8 0 xmlTextReaderSetSchema__internal_alias
FUNC d7e54 19c 0 xmlTextReaderRelaxNGValidate__internal_alias
FUNC d7ff0 c 0 xmlTextReaderSchemaValidateCtxt__internal_alias
FUNC d7ffc 8 0 xmlTextReaderSchemaValidate__internal_alias
FUNC d8004 40 0 xmlTextReaderIsNamespaceDecl__internal_alias
FUNC d8044 54 0 xmlTextReaderConstXmlVersion__internal_alias
FUNC d8098 44 0 xmlTextReaderStandalone__internal_alias
FUNC d80dc 54 0 xmlTextReaderLocatorLineNumber__internal_alias
FUNC d8130 5c 0 xmlTextReaderLocatorBaseURI__internal_alias
FUNC d818c 17c 0 xmlTextReaderSetErrorHandler__internal_alias
FUNC d8308 184 0 xmlTextReaderSetStructuredErrorHandler__internal_alias
FUNC d848c 60 0 xmlTextReaderIsValid__internal_alias
FUNC d84ec 1c 0 xmlTextReaderGetErrorHandler__internal_alias
FUNC d8508 574 0 xmlTextReaderSetup__internal_alias
FUNC d8a7c 20 0 xmlTextReaderByteConsumed__internal_alias
FUNC d8a9c ac 0 xmlReaderWalker__internal_alias
FUNC d8b48 3c 0 xmlReaderForFile__internal_alias
FUNC d8b84 70 0 xmlReaderForMemory__internal_alias
FUNC d8bf4 44 0 xmlReaderForDoc__internal_alias
FUNC d8c38 88 0 xmlReaderForFd__internal_alias
FUNC d8cc0 78 0 xmlReaderForIO__internal_alias
FUNC d8d38 b0 0 xmlReaderNewWalker__internal_alias
FUNC d8de8 5c 0 xmlReaderNewFile__internal_alias
FUNC d8e44 68 0 xmlReaderNewMemory__internal_alias
FUNC d8eac 58 0 xmlReaderNewDoc__internal_alias
FUNC d8f04 6c 0 xmlReaderNewFd__internal_alias
FUNC d8f70 60 0 xmlReaderNewIO__internal_alias
FUNC d8fd0 b0 0 xmlRelaxNGValidErrorPop
FUNC d9080 b8 0 xmlRelaxNGPopErrors
FUNC d9138 60 0 xmlRelaxNGFreeTypeLibrary
FUNC d9198 1e4 0 xmlRelaxNGIsCompileable
FUNC d937c 140 0 xmlRelaxNGIsNullable
FUNC d94bc 48 0 xmlRelaxNGIsBlank
FUNC d9504 3c 0 xmlRelaxNGGroupContentType
FUNC d9540 134 0 xmlRelaxNGNormExtSpace
FUNC d9674 44 0 xmlRelaxNGElemPop
FUNC d96b8 fc 0 xmlRngVErrMemory
FUNC d97b4 238 0 xmlRelaxNGNewValidState
FUNC d99ec 1b4 0 xmlRelaxNGCopyValidState
FUNC d9ba0 100 0 xmlRelaxNGNewStates
FUNC d9ca0 138 0 xmlRelaxNGNormalize
FUNC d9dd8 124 0 xmlRelaxNGFreeStates
FUNC d9efc 100 0 xmlRelaxNGFreeValidState
FUNC d9ffc e8 0 xmlRelaxNGElemPush
FUNC da0e4 fc 0 xmlRngPErrMemory
FUNC da1e0 78 0 xmlRelaxNGNewGrammar
FUNC da258 22c 0 xmlRelaxNGGetElements
FUNC da484 164 0 xmlRelaxNGNewDefine
FUNC da5e8 a4 0 xmlRngPErr
FUNC da68c 110 0 xmlRelaxNGCheckCycles
FUNC da79c 114 0 xmlRelaxNGAttributeMatch
FUNC da8b0 10c 0 xmlRelaxNGDefaultTypeCompare
FUNC da9bc 58 0 xmlRelaxNGDefaultTypeCheck
FUNC daa14 54 0 xmlRelaxNGDefaultTypeHave
FUNC daa68 53c 0 xmlRelaxNGGetErrorString
FUNC dafa4 f4 0 xmlRelaxNGShowValidError
FUNC db098 274 0 xmlRelaxNGDumpValidError
FUNC db30c 21c 0 xmlRelaxNGAddValidError
FUNC db528 2bc 0 xmlRelaxNGElementMatch
FUNC db7e4 90 0 xmlRelaxNGNodeMatchesList
FUNC db874 244 0 xmlRelaxNGCompareNameClasses
FUNC dbab8 628 0 xmlRelaxNGDumpDefine
FUNC dc0e0 2c 0 xmlRelaxNGDumpDefines
FUNC dc10c 5dc 0 xmlRelaxNGParseNameClass
FUNC dc6e8 19c 0 xmlRelaxNGParseExceptNameClass
FUNC dc884 334 0 xmlRelaxNGCheckCombine
FUNC dcbb8 c4 0 xmlRelaxNGParseImportRef
FUNC dcc7c 114 0 xmlRelaxNGCheckReference
FUNC dcd90 d8 0 xmlRelaxNGFreePartition
FUNC dce68 7c 0 xmlRelaxNGFreeGrammar
FUNC dcee4 110 0 xmlRelaxNGFreeDefine
FUNC dcff4 d4 0 xmlRelaxNGFreeDocument
FUNC dd0c8 24 0 xmlRelaxNGFreeDocumentList
FUNC dd0ec 674 0 xmlRelaxNGCompile
FUNC dd760 110 0 xmlRelaxNGTryCompile
FUNC dd870 8 0 xmlRelaxNGSchemaFreeValue
FUNC dd878 30 0 xmlRelaxNGSchemaTypeHave
FUNC dd8a8 344 0 xmlRelaxNGSchemaFacetCheck
FUNC ddbec 84 0 xmlRelaxNGSchemaTypeCheck
FUNC ddc70 118 0 xmlRelaxNGSchemaTypeCompare
FUNC ddd88 13c 0 xmlRelaxNGGenerateAttributes
FUNC ddec4 378 0 xmlRelaxNGSimplify
FUNC de23c 6c 0 xmlRelaxNGSkipIgnored
FUNC de2a8 114 0 xmlRelaxNGValidateElementEnd
FUNC de3bc 1ac 0 xmlRelaxNGLogBestError
FUNC de568 c8 0 xmlRelaxNGNextValue
FUNC de630 600 0 xmlRelaxNGValidateValue
FUNC dec30 3c 0 xmlRelaxNGValidateValueContent
FUNC dec6c 250 0 xmlRelaxNGValidateAttribute
FUNC deebc 1f4 0 xmlRelaxNGValidateDatatype
FUNC df0b0 3c 0 xmlRelaxNGValidateValueList
FUNC df0ec 200 0 xmlRelaxNGAddStates
FUNC df2ec 7c 0 xmlRelaxNGCompareElemDefLists
FUNC df368 35c 0 xmlRelaxNGCheckGroupAttrs
FUNC df6c4 f34 0 xmlRelaxNGCheckRules
FUNC e05f8 6e0 0 xmlRelaxNGComputeInterleaves
FUNC e0cd8 2078 0 xmlRelaxNGValidateState
FUNC e2d50 4f0 0 xmlRelaxNGValidateDefinition
FUNC e3240 f0 0 xmlRelaxNGValidateAttributeList
FUNC e3330 300 0 xmlRelaxNGValidateProgressiveCallback
FUNC e3630 c8 0 xmlRelaxNGValidateCompiledCallback
FUNC e36f8 b4 0 xmlRelaxNGValidateDefinitionList
FUNC e37ac 22c 0 xmlRelaxNGRemoveRedefine
FUNC e39d8 19ec 0 xmlRelaxNGCleanupTree
FUNC e53c4 6c 0 xmlRelaxNGCleanupDoc
FUNC e5430 1cc 0 xmlRelaxNGGetDataTypeLibrary
FUNC e55fc 1898 0 xmlRelaxNGParsePattern
FUNC e6e94 2d0 0 xmlRelaxNGParseElement
FUNC e7164 138 0 xmlRelaxNGParsePatterns
FUNC e729c 208 0 xmlRelaxNGParseStart
FUNC e74a4 4d4 0 xmlRelaxNGParseGrammarContent
FUNC e7978 434 0 xmlRelaxNGParseGrammar
FUNC e7dac 218 0 xmlRelaxNGParseDocument
FUNC e7fc4 1b4 0 xmlRelaxNGParseInterleave
FUNC e8178 1c4 0 xmlRelaxNGRegisterTypeLibrary
FUNC e833c d4 0 xmlRelaxNGFree__internal_alias
FUNC e8410 78 0 xmlRelaxNGFreeIncludeList
FUNC e8488 48 0 xmlRelaxParserSetFlag__internal_alias
FUNC e84d0 108 0 xmlRelaxNGInitTypes__internal_alias
FUNC e85d8 40 0 xmlRelaxNGCleanupTypes__internal_alias
FUNC e8618 88 0 xmlRelaxNGNewParserCtxt__internal_alias
FUNC e86a0 a0 0 xmlRelaxNGNewMemParserCtxt__internal_alias
FUNC e8740 94 0 xmlRelaxNGNewDocParserCtxt__internal_alias
FUNC e87d4 134 0 xmlRelaxNGFreeParserCtxt__internal_alias
FUNC e8908 2c0 0 xmlRelaxNGParse__internal_alias
FUNC e8bc8 1c 0 xmlRelaxNGSetParserErrors__internal_alias
FUNC e8be4 3c 0 xmlRelaxNGGetParserErrors__internal_alias
FUNC e8c20 1c 0 xmlRelaxNGSetParserStructuredErrors__internal_alias
FUNC e8c3c 234 0 xmlRelaxNGDump__internal_alias
FUNC e8e70 50 0 xmlRelaxNGDumpTree__internal_alias
FUNC e8ec0 14c 0 xmlRelaxNGValidatePushElement__internal_alias
FUNC e900c ac 0 xmlRelaxNGValidatePushCData__internal_alias
FUNC e90b8 90 0 xmlRelaxNGValidatePopElement__internal_alias
FUNC e9148 9c 0 xmlRelaxNGValidateFullElement__internal_alias
FUNC e91e4 ac 0 xmlRelaxNGNewValidCtxt__internal_alias
FUNC e9290 12c 0 xmlRelaxNGFreeValidCtxt__internal_alias
FUNC e93bc 1c 0 xmlRelaxNGSetValidErrors__internal_alias
FUNC e93d8 1c 0 xmlRelaxNGSetValidStructuredErrors__internal_alias
FUNC e93f4 3c 0 xmlRelaxNGGetValidErrors__internal_alias
FUNC e9430 2c8 0 xmlRelaxNGValidateDoc__internal_alias
FUNC e96f8 a4 0 xmlDictComputeBigKey
FUNC e979c 128 0 xmlDictComputeBigQKey
FUNC e98c4 ac 0 xmlDictComputeFastKey
FUNC e9970 1c8 0 xmlDictComputeFastQKey
FUNC e9b38 61c 0 xmlDictGrow
FUNC ea154 3c 0 xmlInitializeDict
FUNC ea190 124 0 xmlDictAddString
FUNC ea2b4 30 0 xmlDictCleanup__internal_alias
FUNC ea2e4 c8 0 xmlDictCreate__internal_alias
FUNC ea3ac 70 0 xmlDictReference__internal_alias
FUNC ea41c 30 0 xmlDictCreateSub__internal_alias
FUNC ea44c 190 0 xmlDictFree__internal_alias
FUNC ea5dc 364 0 xmlDictLookup__internal_alias
FUNC ea940 234 0 xmlDictExists__internal_alias
FUNC eab74 510 0 xmlDictQLookup__internal_alias
FUNC eb084 6c 0 xmlDictOwns__internal_alias
FUNC eb0f0 2c 0 xmlDictSize__internal_alias
FUNC eb11c 28 0 xmlSAX2IsStandalone__internal_alias
FUNC eb144 24 0 xmlSAX2HasInternalSubset__internal_alias
FUNC eb168 24 0 xmlSAX2HasExternalSubset__internal_alias
FUNC eb18c 4 0 xmlSAX2SetDocumentLocator__internal_alias
FUNC eb190 4 0 xmlSAX2IgnorableWhitespace__internal_alias
FUNC eb194 60 0 xmlSAX2CDataBlock__internal_alias
FUNC eb1f4 c0 0 xmlSAX2Comment__internal_alias
FUNC eb2b4 c0 0 xmlSAX2ProcessingInstruction__internal_alias
FUNC eb374 2ec 0 xmlSAX2TextNode
FUNC eb660 374 0 xmlSAX2Characters__internal_alias
FUNC eb9d4 68 0 xmlSAX2Reference__internal_alias
FUNC eba3c b0 0 xmlSAX2EndElementNs__internal_alias
FUNC ebaec b4 0 xmlSAX2EndElement__internal_alias
FUNC ebba0 118 0 xmlErrValid
FUNC ebcb8 a0 0 xmlNsWarnMsg
FUNC ebd58 a0 0 xmlNsErrMsg
FUNC ebdf8 ecc 0 xmlSAX2StartElementNs__internal_alias
FUNC eccc4 a48 0 xmlSAX2AttributeInternal
FUNC ed70c 908 0 xmlSAX2StartElement__internal_alias
FUNC ee014 f8 0 xmlSAX2EndDocument__internal_alias
FUNC ee10c 1a0 0 xmlSAX2StartDocument__internal_alias
FUNC ee2ac 10 0 xmlSAX2GetParameterEntity__internal_alias
FUNC ee2bc 80 0 xmlSAX2ResolveEntity__internal_alias
FUNC ee33c 234 0 xmlSAX2ExternalSubset__internal_alias
FUNC ee570 d0 0 xmlSAX2InternalSubset__internal_alias
FUNC ee640 100 0 xmlFatalErrMsg
FUNC ee740 198 0 xmlSAX2GetEntity__internal_alias
FUNC ee8d8 1c4 0 xmlSAX2AttributeDecl__internal_alias
FUNC eea9c d4 0 xmlSAX2ElementDecl__internal_alias
FUNC eeb70 f8 0 xmlSAX2NotationDecl__internal_alias
FUNC eec68 194 0 xmlSAX2EntityDecl__internal_alias
FUNC eedfc 15c 0 xmlSAX2UnparsedEntityDecl__internal_alias
FUNC eef58 8 0 xmlSAX2GetPublicId__internal_alias
FUNC eef60 18 0 xmlSAX2GetSystemId__internal_alias
FUNC eef78 18 0 xmlSAX2GetLineNumber__internal_alias
FUNC eef90 18 0 xmlSAX2GetColumnNumber__internal_alias
FUNC eefa8 28 0 xmlSAXDefaultVersion__internal_alias
FUNC eefd0 208 0 xmlSAXVersion__internal_alias
FUNC ef1d8 238 0 xmlSAX2InitDefaultSAXHandler__internal_alias
FUNC ef410 1b4 0 xmlDefaultSAXHandlerInit__internal_alias
FUNC ef5c4 134 0 xmlSAX2InitHtmlDefaultSAXHandler__internal_alias
FUNC ef6f8 13c 0 htmlDefaultSAXHandlerInit__internal_alias
FUNC ef834 164 0 xmlSAX2InitDocbDefaultSAXHandler__internal_alias
FUNC ef998 16c 0 docbDefaultSAXHandlerInit
FUNC efb04 6c 0 xmlFreeTextWriterNsStackEntry
FUNC efb70 64 0 xmlFreeTextWriterStackEntry
FUNC efbd4 b8 0 xmlTextWriterWriteIndent
FUNC efc8c dc 0 xmlWriterErrMsg
FUNC efd68 e8 0 xmlTextWriterVSprintf
FUNC efe50 60 0 xmlCmpTextWriterNsStackEntry
FUNC efeb0 34 0 xmlCmpTextWriterStackEntry
FUNC efee4 174 0 xmlTextWriterStartDocumentCallback
FUNC f0058 78 0 xmlWriterErrMsgInt
FUNC f00d0 2c 0 xmlTextWriterWriteDocCallback
FUNC f00fc 30 0 xmlTextWriterCloseDocCallback
FUNC f012c 1b4 0 xmlNewTextWriter__internal_alias
FUNC f02e0 78 0 xmlNewTextWriterFilename__internal_alias
FUNC f0358 64 0 xmlNewTextWriterMemory__internal_alias
FUNC f03bc a8 0 xmlNewTextWriterPushParser__internal_alias
FUNC f0464 150 0 xmlNewTextWriterDoc__internal_alias
FUNC f05b4 120 0 xmlNewTextWriterTree__internal_alias
FUNC f06d4 dc 0 xmlFreeTextWriter__internal_alias
FUNC f07b0 2fc 0 xmlTextWriterStartDocument__internal_alias
FUNC f0aac d8 0 xmlTextWriterEndComment__internal_alias
FUNC f0b84 60 0 xmlTextWriterEndAttribute__internal_alias
FUNC f0be4 100 0 xmlTextWriterStartAttribute__internal_alias
FUNC f0ce4 22c 0 xmlTextWriterStartAttributeNS__internal_alias
FUNC f0f10 54 0 xmlTextWriterWriteAttribute__internal_alias
FUNC f0f64 c4 0 xmlTextWriterOutputNSDecl
FUNC f1028 158 0 xmlTextWriterHandleStateDependencies
FUNC f1180 284 0 xmlTextWriterWriteBinHex__internal_alias
FUNC f1404 200 0 xmlTextWriterWriteBase64__internal_alias
FUNC f1604 bc 0 xmlTextWriterWriteRawLen__internal_alias
FUNC f16c0 28 0 xmlTextWriterWriteRaw__internal_alias
FUNC f16e8 e8 0 xmlTextWriterWriteString__internal_alias
FUNC f17d0 6c 0 xmlTextWriterWriteVFormatString__internal_alias
FUNC f183c 40 0 xmlTextWriterWriteFormatString__internal_alias
FUNC f187c 64 0 xmlTextWriterWriteVFormatRaw__internal_alias
FUNC f18e0 30 0 xmlTextWriterWriteFormatRaw__internal_alias
FUNC f1910 178 0 xmlTextWriterFullEndElement__internal_alias
FUNC f1a88 198 0 xmlTextWriterEndElement__internal_alias
FUNC f1c20 200 0 xmlTextWriterStartElement__internal_alias
FUNC f1e20 1b0 0 xmlTextWriterStartElementNS__internal_alias
FUNC f1fd0 188 0 xmlTextWriterStartComment__internal_alias
FUNC f2158 54 0 xmlTextWriterWriteComment__internal_alias
FUNC f21ac 80 0 xmlTextWriterWriteVFormatComment__internal_alias
FUNC f222c 30 0 xmlTextWriterWriteFormatComment__internal_alias
FUNC f225c 6c 0 xmlTextWriterWriteVFormatAttribute__internal_alias
FUNC f22c8 30 0 xmlTextWriterWriteFormatAttribute__internal_alias
FUNC f22f8 68 0 xmlTextWriterWriteAttributeNS__internal_alias
FUNC f2360 84 0 xmlTextWriterWriteVFormatAttributeNS__internal_alias
FUNC f23e4 28 0 xmlTextWriterWriteFormatAttributeNS__internal_alias
FUNC f240c 54 0 xmlTextWriterWriteElement__internal_alias
FUNC f2460 6c 0 xmlTextWriterWriteVFormatElement__internal_alias
FUNC f24cc 30 0 xmlTextWriterWriteFormatElement__internal_alias
FUNC f24fc 68 0 xmlTextWriterWriteElementNS__internal_alias
FUNC f2564 84 0 xmlTextWriterWriteVFormatElementNS__internal_alias
FUNC f25e8 28 0 xmlTextWriterWriteFormatElementNS__internal_alias
FUNC f2610 228 0 xmlTextWriterStartPI__internal_alias
FUNC f2838 a4 0 xmlTextWriterEndPI__internal_alias
FUNC f28dc 54 0 xmlTextWriterWritePI__internal_alias
FUNC f2930 6c 0 xmlTextWriterWriteVFormatPI__internal_alias
FUNC f299c 30 0 xmlTextWriterWriteFormatPI__internal_alias
FUNC f29cc 174 0 xmlTextWriterStartCDATA__internal_alias
FUNC f2b40 70 0 xmlTextWriterEndCDATA__internal_alias
FUNC f2bb0 54 0 xmlTextWriterWriteCDATA__internal_alias
FUNC f2c04 64 0 xmlTextWriterWriteVFormatCDATA__internal_alias
FUNC f2c68 30 0 xmlTextWriterWriteFormatCDATA__internal_alias
FUNC f2c98 3dc 0 xmlTextWriterStartDTD__internal_alias
FUNC f3074 1d4 0 xmlTextWriterStartDTDElement__internal_alias
FUNC f3248 9c 0 xmlTextWriterEndDTDElement__internal_alias
FUNC f32e4 5c 0 xmlTextWriterWriteDTDElement__internal_alias
FUNC f3340 6c 0 xmlTextWriterWriteVFormatDTDElement__internal_alias
FUNC f33ac 30 0 xmlTextWriterWriteFormatDTDElement__internal_alias
FUNC f33dc 1d4 0 xmlTextWriterStartDTDAttlist__internal_alias
FUNC f35b0 9c 0 xmlTextWriterEndDTDAttlist__internal_alias
FUNC f364c 5c 0 xmlTextWriterWriteDTDAttlist__internal_alias
FUNC f36a8 6c 0 xmlTextWriterWriteVFormatDTDAttlist__internal_alias
FUNC f3714 30 0 xmlTextWriterWriteFormatDTDAttlist__internal_alias
FUNC f3744 248 0 xmlTextWriterStartDTDEntity__internal_alias
FUNC f398c d0 0 xmlTextWriterEndDTDEntity__internal_alias
FUNC f3a5c 158 0 xmlTextWriterEndDTD__internal_alias
FUNC f3bb4 54 0 xmlTextWriterWriteDTD__internal_alias
FUNC f3c08 84 0 xmlTextWriterWriteVFormatDTD__internal_alias
FUNC f3c8c 28 0 xmlTextWriterWriteFormatDTD__internal_alias
FUNC f3cb4 80 0 xmlTextWriterWriteDTDInternalEntity__internal_alias
FUNC f3d34 7c 0 xmlTextWriterWriteVFormatDTDInternalEntity__internal_alias
FUNC f3db0 30 0 xmlTextWriterWriteFormatDTDInternalEntity__internal_alias
FUNC f3de0 264 0 xmlTextWriterWriteDTDExternalEntityContents__internal_alias
FUNC f4044 88 0 xmlTextWriterWriteDTDExternalEntity__internal_alias
FUNC f40cc 74 0 xmlTextWriterWriteDTDEntity__internal_alias
FUNC f4140 2b4 0 xmlTextWriterWriteDTDNotation__internal_alias
FUNC f43f4 20 0 xmlTextWriterFlush__internal_alias
FUNC f4414 164 0 xmlTextWriterEndDocument__internal_alias
FUNC f4578 24 0 xmlTextWriterSetIndent__internal_alias
FUNC f459c 74 0 xmlTextWriterSetIndentString__internal_alias
FUNC f4610 4c 0 htmlDecodeEntities
FUNC f465c 4 0 xmlInitializePredefinedEntities__internal_alias
FUNC f4660 4 0 xmlCleanupPredefinedEntities__internal_alias
FUNC f4664 c0 0 xmlGetFeaturesList__internal_alias
FUNC f4724 798 0 xmlGetFeature__internal_alias
FUNC f4ebc 800 0 xmlSetFeature__internal_alias
FUNC f56bc 4c 0 xmlDecodeEntities__internal_alias
FUNC f5708 4c 0 xmlNamespaceParseNCName__internal_alias
FUNC f5754 4c 0 xmlNamespaceParseQName__internal_alias
FUNC f57a0 4c 0 xmlNamespaceParseNSDef__internal_alias
FUNC f57ec 4c 0 xmlParseQuotedString__internal_alias
FUNC f5838 48 0 xmlParseNamespace__internal_alias
FUNC f5880 4c 0 xmlScanName__internal_alias
FUNC f58cc 48 0 xmlParserHandleReference__internal_alias
FUNC f5914 48 0 xmlHandleEntity__internal_alias
FUNC f595c 4c 0 xmlNewGlobalNs__internal_alias
FUNC f59a8 48 0 xmlUpgradeOldNs
FUNC f59f0 6c 0 xmlEncodeEntities__internal_alias
FUNC f5a5c 70 0 getPublicId
FUNC f5acc 70 0 getSystemId
FUNC f5b3c 70 0 getLineNumber
FUNC f5bac 70 0 getColumnNumber
FUNC f5c1c 70 0 isStandalone
FUNC f5c8c 70 0 hasInternalSubset
FUNC f5cfc 70 0 hasExternalSubset
FUNC f5d6c 90 0 internalSubset
FUNC f5dfc 90 0 externalSubset
FUNC f5e8c 80 0 resolveEntity
FUNC f5f0c 78 0 getEntity
FUNC f5f84 78 0 getParameterEntity
FUNC f5ffc a0 0 entityDecl
FUNC f609c a8 0 attributeDecl
FUNC f6144 90 0 elementDecl
FUNC f61d4 90 0 notationDecl
FUNC f6264 98 0 unparsedEntityDecl
FUNC f62fc 64 0 setDocumentLocator
FUNC f6360 4 0 startDocument
FUNC f6364 70 0 endDocument
FUNC f63d4 64 0 attribute
FUNC f6438 4 0 startElement
FUNC f643c 78 0 endElement
FUNC f64b4 78 0 reference
FUNC f652c 80 0 characters
FUNC f65ac 64 0 ignorableWhitespace
FUNC f6610 80 0 processingInstruction
FUNC f6690 64 0 globalNamespace
FUNC f66f4 64 0 setNamespace
FUNC f6758 68 0 getNamespace
FUNC f67c0 68 0 checkNamespace
FUNC f6828 64 0 namespaceDecl
FUNC f688c 78 0 comment
FUNC f6904 80 0 cdataBlock
FUNC f6984 f0 0 xmlCharInRange__internal_alias
FUNC f6a74 74 0 xmlIsBaseChar__internal_alias
FUNC f6ae8 34 0 xmlIsBlank__internal_alias
FUNC f6b1c 64 0 xmlIsChar__internal_alias
FUNC f6b80 2c 0 xmlIsCombining__internal_alias
FUNC f6bac 38 0 xmlIsDigit__internal_alias
FUNC f6be4 34 0 xmlIsExtender__internal_alias
FUNC f6c18 4c 0 xmlIsIdeographic__internal_alias
FUNC f6c64 30 0 xmlIsPubidChar__internal_alias
FUNC f6c94 a4 0 xmlStreamCompAddStep
FUNC f6d38 134 0 xmlStreamCtxtAddState
FUNC f6e6c b0 0 xmlNewPatParserContext
FUNC f6f1c a8 0 xmlNewStreamComp
FUNC f6fc4 40 0 xmlFreePatParserContext
FUNC f7004 658 0 xmlStreamPushInternal
FUNC f765c 64 0 xmlFreeStreamComp
FUNC f76c0 a8 0 xmlPatternAdd
FUNC f7768 2a8 0 xmlPatScanNCName
FUNC f7a10 2ac 0 xmlPatScanName
FUNC f7cbc 33c 0 xmlCompileAttributeTest
FUNC f7ff8 724 0 xmlCompileStepPattern
FUNC f871c 114 0 xmlFreePattern__internal_alias
FUNC f8830 30 0 xmlFreePatternList__internal_alias
FUNC f8860 58 0 xmlFreeStreamCtxt__internal_alias
FUNC f88b8 8 0 xmlStreamPush__internal_alias
FUNC f88c0 4 0 xmlStreamPushNode__internal_alias
FUNC f88c4 8 0 xmlStreamPushAttr__internal_alias
FUNC f88cc d4 0 xmlStreamPop__internal_alias
FUNC f89a0 50 0 xmlStreamWantsAnyNode__internal_alias
FUNC f89f0 ef8 0 xmlPatterncompile__internal_alias
FUNC f98e8 5a8 0 xmlPatternMatch__internal_alias
FUNC f9e90 13c 0 xmlPatternGetStreamCtxt__internal_alias
FUNC f9fcc 4c 0 xmlPatternStreamable__internal_alias
FUNC fa018 b8 0 xmlPatternMaxDepth__internal_alias
FUNC fa0d0 74 0 xmlPatternMinDepth__internal_alias
FUNC fa144 64 0 xmlPatternFromRoot__internal_alias
FUNC fa1a8 1a8 0 xmlSerializeHexCharRef
FUNC fa350 64 0 xmlFreeSaveCtxt
FUNC fa3b4 ec 0 xmlSaveCtxtInit
FUNC fa4a0 a0 0 xmlSaveErr
FUNC fa540 33c 0 xmlEscapeEntities
FUNC fa87c 28 0 xmlSaveErrMemory
FUNC fa8a4 8c 0 xmlOutputBufferWriteWSNonSig
FUNC fa930 110 0 xmlNsDumpOutput
FUNC faa40 ec 0 xmlNewSaveCtxt
FUNC fab2c ac 0 xmlSaveSwitchEncoding
FUNC fabd8 2c 0 xmlSaveClearEncoding
FUNC fac04 ec 0 xmlIsXHTML__internal_alias
FUNC facf0 30 0 xmlNsListDumpOutput
FUNC fad20 50 0 xmlSaveToFd__internal_alias
FUNC fad70 54 0 xmlSaveToFilename__internal_alias
FUNC fadc4 b4 0 xmlSaveToBuffer__internal_alias
FUNC fae78 60 0 xmlSaveToIO__internal_alias
FUNC faed8 20 0 xmlSaveFlush__internal_alias
FUNC faef8 28 0 xmlSaveClose__internal_alias
FUNC faf20 14 0 xmlSaveSetEscape__internal_alias
FUNC faf34 14 0 xmlSaveSetAttrEscape__internal_alias
FUNC faf48 3d4 0 xmlAttrSerializeTxtContent__internal_alias
FUNC fb31c b8 0 xmlAttrSerializeContent
FUNC fb3d4 c8 0 xmlAttrDumpOutput
FUNC fb49c 1014 0 xhtmlNodeDumpOutput
FUNC fc4b0 bc 0 xhtmlNodeListDumpOutput
FUNC fc56c 408 0 xmlDocContentDumpOutput
FUNC fc974 894 0 xmlNodeDumpOutputInternal
FUNC fd208 dc 0 xmlNodeListDumpOutput
FUNC fd2e4 1d0 0 xmlDtdDumpOutput
FUNC fd4b4 2c 0 xmlSaveTree__internal_alias
FUNC fd4e0 2c 0 xmlSaveDoc__internal_alias
FUNC fd50c d4 0 xmlNodeDumpOutput__internal_alias
FUNC fd5e0 98 0 xmlElemDump__internal_alias
FUNC fd678 f4 0 xmlNodeDump__internal_alias
FUNC fd76c 15c 0 xmlDocDumpFormatMemoryEnc__internal_alias
FUNC fd8c8 20 0 xmlDocDumpMemory__internal_alias
FUNC fd8e8 1c 0 xmlDocDumpFormatMemory__internal_alias
FUNC fd904 1c 0 xmlDocDumpMemoryEnc__internal_alias
FUNC fd920 e0 0 xmlDocFormatDump__internal_alias
FUNC fda00 8 0 xmlDocDump__internal_alias
FUNC fda08 7c 0 xmlSaveFileTo__internal_alias
FUNC fda84 a4 0 xmlSaveFormatFileTo__internal_alias
FUNC fdb28 b8 0 xmlSaveFormatFileEnc__internal_alias
FUNC fdbe0 8 0 xmlSaveFileEnc__internal_alias
FUNC fdbe8 c 0 xmlSaveFormatFile__internal_alias
FUNC fdbf4 c 0 xmlSaveFile__internal_alias
FUNC fdc00 16c 0 xmlModuleOpen__internal_alias
FUNC fdd6c 12c 0 xmlModuleSymbol__internal_alias
FUNC fde98 b0 0 xmlModuleFree__internal_alias
FUNC fdf48 108 0 xmlModuleClose__internal_alias
FUNC fe050 88 0 xmlSchematronNextNode
FUNC fe0d8 38 0 xmlSchematronPErrMemory
FUNC fe110 20 0 xmlSchematronReportOutput
FUNC fe130 98 0 xmlSchematronReportPattern
FUNC fe1c8 51c 0 xmlSchematronReportSuccess
FUNC fe6e4 154 0 xmlSchematronRunTest
FUNC fe838 94 0 xmlSchematronPErr
FUNC fe8cc 14c 0 xmlSchematronAddTest
FUNC fea18 178 0 xmlSchematronFree__internal_alias
FUNC feb90 a0 0 xmlSchematronFreeParserCtxt__internal_alias
FUNC fec30 b8 0 xmlSchematronNewDocParserCtxt__internal_alias
FUNC fece8 c8 0 xmlSchematronNewMemParserCtxt__internal_alias
FUNC fedb0 d0 0 xmlSchematronNewParserCtxt__internal_alias
FUNC fee80 1284 0 xmlSchematronParse__internal_alias
FUNC 100104 1c 0 xmlSchematronSetValidStructuredErrors__internal_alias
FUNC 100120 54 0 xmlSchematronFreeValidCtxt__internal_alias
FUNC 100174 138 0 xmlSchematronNewValidCtxt__internal_alias
FUNC 1002ac 1ec 0 xmlSchematronValidateDoc__internal_alias
STACK CFI INIT 1a5fc 1a8 .cfa: sp 0 + .ra: lr
STACK CFI INIT 1a7a4 130 .cfa: sp 0 + .ra: lr
STACK CFI INIT 1a8d4 160 .cfa: sp 0 + .ra: lr
STACK CFI INIT 1aa34 13c .cfa: sp 0 + .ra: lr
STACK CFI 1aa3c .cfa: sp 24 +
STACK CFI 1aa44 .ra: .cfa -4 + ^ r4: .cfa -24 + ^ r5: .cfa -20 + ^ r6: .cfa -16 + ^ r7: .cfa -12 + ^ r8: .cfa -8 + ^
STACK CFI INIT 1ab70 30 .cfa: sp 0 + .ra: lr
STACK CFI 1ab7c .cfa: sp 4 +
STACK CFI 1ab84 .cfa: sp 16 +
STACK CFI 1ab94 .ra: .cfa -4 + ^
STACK CFI INIT 1aba0 28 .cfa: sp 0 + .ra: lr
STACK CFI 1aba4 .cfa: sp 4 +
STACK CFI 1aba8 .cfa: sp 16 +
STACK CFI 1abbc .ra: .cfa -4 + ^
STACK CFI INIT 1abc8 e4 .cfa: sp 0 + .ra: lr
STACK CFI 1abd0 .cfa: sp 16 +
STACK CFI 1abd4 .ra: .cfa -4 + ^ r3: .cfa -16 + ^ r4: .cfa -12 + ^ r5: .cfa -8 + ^
STACK CFI INIT 1acac 220 .cfa: sp 0 + .ra: lr
STACK CFI 1acb0 .cfa: sp 16 +
STACK CFI 1acb4 .ra: .cfa -4 + ^ r4: .cfa -16 + ^ r5: .cfa -12 + ^ r6: .cfa -8 + ^
STACK CFI INIT 1aecc c .cfa: sp 0 + .ra: lr
STACK CFI INIT 1aed8 174 .cfa: sp 0 + .ra: lr
STACK CFI 1aedc .cfa: sp 32 +
STACK CFI 1aee0 .ra: .cfa -4 + ^ r10: .cfa -8 + ^ r4: .cfa -32 + ^ r5: .cfa -28 + ^ r6: .cfa -24 + ^ r7: .cfa -20 + ^ r8: .cfa -16 + ^ r9: .cfa -12 + ^
STACK CFI INIT 1b04c 140 .cfa: sp 0 + .ra: lr
STACK CFI 1b050 .cfa: sp 20 +
STACK CFI 1b054 .ra: .cfa -4 + ^ r4: .cfa -20 + ^ r5: .cfa -16 + ^ r6: .cfa -12 + ^ r7: .cfa -8 + ^
STACK CFI 1b058 .cfa: sp 40 +
STACK CFI INIT 1b18c 150 .cfa: sp 0 + .ra: lr
STACK CFI 1b190 .cfa: sp 8 +
STACK CFI 1b194 .ra: .cfa -4 + ^ r4: .cfa -8 + ^
STACK CFI INIT 1b2dc ac .cfa: sp 0 + .ra: lr
STACK CFI 1b2e0 .cfa: sp 8 +
STACK CFI 1b2e4 .ra: .cfa -4 + ^ r4: .cfa -8 + ^
STACK CFI 1b2e8 .cfa: sp 16 +
STACK CFI INIT 1b388 ac .cfa: sp 0 + .ra: lr
STACK CFI 1b38c .cfa: sp 8 +
STACK CFI 1b390 .ra: .cfa -4 + ^ r4: .cfa -8 + ^
STACK CFI 1b394 .cfa: sp 16 +
STACK CFI INIT 1b434 6c .cfa: sp 0 + .ra: lr
STACK CFI 1b438 .cfa: sp 28 +
STACK CFI 1b43c .ra: .cfa -4 + ^ r10: .cfa -8 + ^ r4: .cfa -28 + ^ r5: .cfa -24 + ^ r6: .cfa -20 + ^ r7: .cfa -16 + ^ r8: .cfa -12 + ^
STACK CFI 1b440 .cfa: sp 40 +
STACK CFI INIT 1b4a0 60 .cfa: sp 0 + .ra: lr
STACK CFI 1b4a4 .cfa: sp 16 +
STACK CFI 1b4a8 .ra: .cfa -4 + ^ r4: .cfa -16 + ^ r5: .cfa -12 + ^ r6: .cfa -8 + ^
STACK CFI INIT 1b500 24 .cfa: sp 0 + .ra: lr
STACK CFI INIT 1b524 74 .cfa: sp 0 + .ra: lr
STACK CFI 1b528 .cfa: sp 16 +
STACK CFI 1b52c .ra: .cfa -4 + ^ r4: .cfa -16 + ^ r5: .cfa -12 + ^ r6: .cfa -8 + ^
STACK CFI INIT 1b598 49c .cfa: sp 0 + .ra: lr
STACK CFI 1b59c .cfa: sp 36 +
STACK CFI 1b5a0 .ra: .cfa -4 + ^ r10: .cfa -12 + ^ r11: .cfa -8 + ^ r4: .cfa -36 + ^ r5: .cfa -32 + ^ r6: .cfa -28 + ^ r7: .cfa -24 + ^ r8: .cfa -20 + ^ r9: .cfa -16 + ^
STACK CFI 1b5ac .cfa: sp 72 +
STACK CFI INIT 1ba34 224 .cfa: sp 0 + .ra: lr
STACK CFI 1ba38 .cfa: sp 40 +
STACK CFI 1ba3c .ra: .cfa -4 + ^ r10: .cfa -12 + ^ r11: .cfa -8 + ^ r3: .cfa -40 + ^ r4: .cfa -36 + ^ r5: .cfa -32 + ^ r6: .cfa -28 + ^ r7: .cfa -24 + ^ r8: .cfa -20 + ^ r9: .cfa -16 + ^
STACK CFI INIT 1bc58 8 .cfa: sp 0 + .ra: lr
STACK CFI INIT 1bc60 10 .cfa: sp 0 + .ra: lr
STACK CFI INIT 1bc70 10 .cfa: sp 0 + .ra: lr
STACK CFI INIT 1bc80 368 .cfa: sp 0 + .ra: lr
STACK CFI 1bc8c .cfa: sp 16 +
STACK CFI 1bc90 .ra: .cfa -4 + ^ r4: .cfa -16 + ^ r5: .cfa -12 + ^ r6: .cfa -8 + ^
STACK CFI INIT 1bfe8 10 .cfa: sp 0 + .ra: lr
STACK CFI INIT 1bff8 18 .cfa: sp 0 + .ra: lr
STACK CFI INIT 1c010 134 .cfa: sp 0 + .ra: lr
STACK CFI 1c018 .cfa: sp 28 +
STACK CFI 1c024 r10: .cfa -4 + ^ r4: .cfa -28 + ^ r5: .cfa -24 + ^ r6: .cfa -20 + ^ r7: .cfa -16 + ^ r8: .cfa -12 + ^ r9: .cfa -8 + ^
STACK CFI INIT 1c144 208 .cfa: sp 0 + .ra: lr
STACK CFI 1c150 .cfa: sp 32 +
STACK CFI 1c154 r10: .cfa -8 + ^ r11: .cfa -4 + ^ r4: .cfa -32 + ^ r5: .cfa -28 + ^ r6: .cfa -24 + ^ r7: .cfa -20 + ^ r8: .cfa -16 + ^ r9: .cfa -12 + ^
STACK CFI 1c158 .cfa: sp 40 +
STACK CFI INIT 1c34c 1a8 .cfa: sp 0 + .ra: lr
STACK CFI 1c358 .cfa: sp 32 +
STACK CFI 1c35c .cfa: sp 40 +
STACK CFI 1c360 r10: .cfa -8 + ^ r11: .cfa -4 + ^ r4: .cfa -32 + ^ r5: .cfa -28 + ^ r6: .cfa -24 + ^ r7: .cfa -20 + ^ r8: .cfa -16 + ^ r9: .cfa -12 + ^
STACK CFI INIT 1c4f4 210 .cfa: sp 0 + .ra: lr
STACK CFI 1c500 .cfa: sp 32 +
STACK CFI 1c504 .cfa: sp 48 +
STACK CFI 1c508 r10: .cfa -8 + ^ r11: .cfa -4 + ^ r4: .cfa -32 + ^ r5: .cfa -28 + ^ r6: .cfa -24 + ^ r7: .cfa -20 + ^ r8: .cfa -16 + ^ r9: .cfa -12 + ^
STACK CFI INIT 1c704 27c .cfa: sp 0 + .ra: lr
STACK CFI 1c708 .cfa: sp 32 +
STACK CFI 1c70c .cfa: sp 40 +
STACK CFI 1c718 r10: .cfa -8 + ^ r11: .cfa -4 + ^ r4: .cfa -32 + ^ r5: .cfa -28 + ^ r6: .cfa -24 + ^ r7: .cfa -20 + ^ r8: .cfa -16 + ^ r9: .cfa -12 + ^
STACK CFI INIT 1c980 2c0 .cfa: sp 0 + .ra: lr
STACK CFI 1c98c .cfa: sp 32 +
STACK CFI 1c990 .cfa: sp 40 +
STACK CFI 1c994 r10: .cfa -8 + ^ r11: .cfa -4 + ^ r4: .cfa -32 + ^ r5: .cfa -28 + ^ r6: .cfa -24 + ^ r7: .cfa -20 + ^ r8: .cfa -16 + ^ r9: .cfa -12 + ^
STACK CFI INIT 1cc40 54 .cfa: sp 0 + .ra: lr
STACK CFI 1cc44 .cfa: sp 12 +
STACK CFI 1cc48 r4: .cfa -12 + ^ r5: .cfa -8 + ^ r6: .cfa -4 + ^
STACK CFI INIT 1cc94 28c .cfa: sp 0 + .ra: lr
STACK CFI 1cc98 .cfa: sp 32 +
STACK CFI 1cc9c r10: .cfa -8 + ^ r11: .cfa -4 + ^ r4: .cfa -32 + ^ r5: .cfa -28 + ^ r6: .cfa -24 + ^ r7: .cfa -20 + ^ r8: .cfa -16 + ^ r9: .cfa -12 + ^
STACK CFI 1cca0 .cfa: sp 48 +
STACK CFI INIT 1cf20 2c8 .cfa: sp 0 + .ra: lr
STACK CFI 1cf2c .cfa: sp 32 +
STACK CFI 1cf30 .cfa: sp 40 +
STACK CFI 1cf34 r10: .cfa -8 + ^ r11: .cfa -4 + ^ r4: .cfa -32 + ^ r5: .cfa -28 + ^ r6: .cfa -24 + ^ r7: .cfa -20 + ^ r8: .cfa -16 + ^ r9: .cfa -12 + ^
STACK CFI INIT 1d1e8 d8 .cfa: sp 0 + .ra: lr
STACK CFI 1d1ec .cfa: sp 12 +
STACK CFI 1d1f8 .cfa: sp 40 +
STACK CFI 1d1fc .ra: .cfa -4 + ^ r4: .cfa -12 + ^ r5: .cfa -8 + ^
STACK CFI INIT 1d2c0 68 .cfa: sp 0 + .ra: lr
STACK CFI 1d2c4 .cfa: sp 8 +
STACK CFI 1d2cc .cfa: sp 64 +
STACK CFI 1d2d0 .ra: .cfa -4 + ^ r4: .cfa -8 + ^
STACK CFI INIT 1d328 28 .cfa: sp 0 + .ra: lr
STACK CFI 1d32c .cfa: sp 4 +
STACK CFI 1d334 .cfa: sp 16 +
STACK CFI 1d344 .ra: .cfa -4 + ^
STACK CFI INIT 1d350 6c .cfa: sp 0 + .ra: lr
STACK CFI 1d35c .cfa: sp 12 +
STACK CFI 1d360 .ra: .cfa -4 + ^ r4: .cfa -12 + ^ r5: .cfa -8 + ^
STACK CFI 1d364 .cfa: sp 24 +
STACK CFI INIT 1d3bc 1e4 .cfa: sp 0 + .ra: lr
STACK CFI INIT 1d5a0 dc .cfa: sp 0 + .ra: lr
STACK CFI 1d5a4 .cfa: sp 24 +
STACK CFI 1d5a8 .ra: .cfa -4 + ^ r4: .cfa -24 + ^ r5: .cfa -20 + ^ r6: .cfa -16 + ^ r7: .cfa -12 + ^ r8: .cfa -8 + ^
STACK CFI INIT 1d67c 16c .cfa: sp 0 + .ra: lr
STACK CFI 1d680 .cfa: sp 24 +
STACK CFI 1d684 .ra: .cfa -4 + ^ r4: .cfa -24 + ^ r5: .cfa -20 + ^ r6: .cfa -16 + ^ r7: .cfa -12 + ^ r8: .cfa -8 + ^
STACK CFI 1d688 .cfa: sp 128 +
STACK CFI INIT 1d7e8 2ac .cfa: sp 0 + .ra: lr
STACK CFI 1d7ec .cfa: sp 36 +
STACK CFI 1d7f8 .ra: .cfa -4 + ^ r10: .cfa -12 + ^ r11: .cfa -8 + ^ r4: .cfa -36 + ^ r5: .cfa -32 + ^ r6: .cfa -28 + ^ r7: .cfa -24 + ^ r8: .cfa -20 + ^ r9: .cfa -16 + ^
STACK CFI 1d800 .cfa: sp 152 +
STACK CFI INIT 1da94 170 .cfa: sp 0 + .ra: lr
STACK CFI 1da98 .cfa: sp 36 +
STACK CFI 1da9c .ra: .cfa -4 + ^ r10: .cfa -12 + ^ r11: .cfa -8 + ^ r4: .cfa -36 + ^ r5: .cfa -32 + ^ r6: .cfa -28 + ^ r7: .cfa -24 + ^ r8: .cfa -20 + ^ r9: .cfa -16 + ^
STACK CFI 1daa4 .cfa: sp 48 +
STACK CFI INIT 1dc04 3e0 .cfa: sp 0 + .ra: lr
STACK CFI 1dc08 .cfa: sp 12 +
STACK CFI 1dc0c .ra: .cfa -4 + ^ r4: .cfa -12 + ^ r5: .cfa -8 + ^
STACK CFI 1dc10 .cfa: sp 520 +
STACK CFI INIT 1dfe4 1bc .cfa: sp 0 + .ra: lr
STACK CFI INIT 1e1a0 ec .cfa: sp 0 + .ra: lr
STACK CFI 1e1a4 .cfa: sp 16 + .ra: .cfa -4 + ^ r4: .cfa -16 + ^ r5: .cfa -12 + ^ r6: .cfa -8 + ^
STACK CFI INIT 1e28c c0 .cfa: sp 0 + .ra: lr
STACK CFI 1e294 .cfa: sp 4 +
STACK CFI 1e2a0 .cfa: sp 16 +
STACK CFI 1e2a8 .ra: .cfa -4 + ^
STACK CFI INIT 1e34c 184 .cfa: sp 0 + .ra: lr
STACK CFI 1e350 .cfa: sp 28 +
STACK CFI 1e354 .cfa: sp 536 +
STACK CFI 1e358 .ra: .cfa -4 + ^ r10: .cfa -8 + ^ r4: .cfa -28 + ^ r5: .cfa -24 + ^ r6: .cfa -20 + ^ r7: .cfa -16 + ^ r8: .cfa -12 + ^
STACK CFI INIT 1e4d0 218 .cfa: sp 0 + .ra: lr
STACK CFI 1e4d4 .cfa: sp 16 +
STACK CFI 1e4d8 .ra: .cfa -4 + ^ r4: .cfa -16 + ^ r5: .cfa -12 + ^ r6: .cfa -8 + ^
STACK CFI 1e4e8 .cfa: sp 24 +
STACK CFI INIT 1e6e8 34c .cfa: sp 0 + .ra: lr
STACK CFI 1e6ec .cfa: sp 36 +
STACK CFI 1e6f0 .ra: .cfa -4 + ^ r10: .cfa -12 + ^ r11: .cfa -8 + ^ r4: .cfa -36 + ^ r5: .cfa -32 + ^ r6: .cfa -28 + ^ r7: .cfa -24 + ^ r8: .cfa -20 + ^ r9: .cfa -16 + ^
STACK CFI 1e700 .cfa: sp 152 +
STACK CFI INIT 1ea34 334 .cfa: sp 0 + .ra: lr
STACK CFI 1ea3c .cfa: sp 4 +
STACK CFI 1ea48 .cfa: sp 16 +
STACK CFI 1ea50 .ra: .cfa -4 + ^
STACK CFI INIT 1ed68 184 .cfa: sp 0 + .ra: lr
STACK CFI 1ed6c .cfa: sp 20 +
STACK CFI 1ed70 .ra: .cfa -4 + ^ r4: .cfa -20 + ^ r5: .cfa -16 + ^ r6: .cfa -12 + ^ r7: .cfa -8 + ^
STACK CFI 1ed74 .cfa: sp 40 +
STACK CFI INIT 1eeec 8 .cfa: sp 0 + .ra: lr
STACK CFI INIT 1eef4 1b8 .cfa: sp 0 + .ra: lr
STACK CFI 1eef8 .cfa: sp 20 +
STACK CFI 1eefc .ra: .cfa -4 + ^ r4: .cfa -20 + ^ r5: .cfa -16 + ^ r6: .cfa -12 + ^ r7: .cfa -8 + ^
STACK CFI 1ef00 .cfa: sp 104 +
STACK CFI INIT 1f0ac 2dc .cfa: sp 0 + .ra: lr
STACK CFI 1f0b0 .cfa: sp 28 +
STACK CFI 1f0b4 .ra: .cfa -4 + ^ r10: .cfa -8 + ^ r4: .cfa -28 + ^ r5: .cfa -24 + ^ r6: .cfa -20 + ^ r7: .cfa -16 + ^ r8: .cfa -12 + ^
STACK CFI 1f0b8 .cfa: sp 112 +
STACK CFI INIT 1f388 d8 .cfa: sp 0 + .ra: lr
STACK CFI 1f38c .cfa: sp 16 +
STACK CFI 1f390 .ra: .cfa -4 + ^ r4: .cfa -16 + ^ r5: .cfa -12 + ^ r6: .cfa -8 + ^
STACK CFI INIT 1f460 1a8 .cfa: sp 0 + .ra: lr
STACK CFI 1f464 .cfa: sp 28 +
STACK CFI 1f46c .cfa: sp 32028 +
STACK CFI 1f470 .cfa: sp 32048 +
STACK CFI 1f474 .ra: .cfa -4 + ^ r10: .cfa -8 + ^ r4: .cfa -28 + ^ r5: .cfa -24 + ^ r6: .cfa -20 + ^ r7: .cfa -16 + ^ r8: .cfa -12 + ^
STACK CFI INIT 1f608 2a4 .cfa: sp 0 + .ra: lr
STACK CFI 1f610 .cfa: sp 20 +
STACK CFI 1f614 .ra: .cfa -4 + ^ r4: .cfa -20 + ^ r5: .cfa -16 + ^ r6: .cfa -12 + ^ r7: .cfa -8 + ^
STACK CFI 1f618 .cfa: sp 112 +
STACK CFI INIT 1f8ac 6bc .cfa: sp 0 + .ra: lr
STACK CFI 1f8b0 .cfa: sp 36 +
STACK CFI 1f8b4 .ra: .cfa -4 + ^ r10: .cfa -12 + ^ r11: .cfa -8 + ^ r4: .cfa -36 + ^ r5: .cfa -32 + ^ r6: .cfa -28 + ^ r7: .cfa -24 + ^ r8: .cfa -20 + ^ r9: .cfa -16 + ^
STACK CFI 1f8b8 .cfa: sp 208 +
STACK CFI INIT 1ff68 70 .cfa: sp 0 + .ra: lr
STACK CFI 1ff6c .cfa: sp 12 +
STACK CFI 1ff70 .cfa: sp 20 +
STACK CFI 1ff74 .cfa: sp 32 + .ra: .cfa -16 + ^ r1: .cfa -12 + ^ r2: .cfa -8 + ^ r3: .cfa -4 + ^ r4: .cfa -20 + ^
STACK CFI INIT 1ffd8 40 .cfa: sp 0 + .ra: lr
STACK CFI 1ffdc .cfa: sp 16 +
STACK CFI 1ffe0 .ra: .cfa -4 + ^ r3: .cfa -16 + ^ r4: .cfa -12 + ^ r5: .cfa -8 + ^
STACK CFI INIT 20018 4c .cfa: sp 0 + .ra: lr
STACK CFI 2001c .cfa: sp 16 +
STACK CFI 20020 .ra: .cfa -4 + ^ r4: .cfa -16 + ^ r5: .cfa -12 + ^ r6: .cfa -8 + ^
STACK CFI INIT 20064 20 .cfa: sp 0 + .ra: lr
STACK CFI 20068 .cfa: sp 16 +
STACK CFI 2006c .ra: .cfa -4 + ^ r3: .cfa -16 + ^ r4: .cfa -12 + ^ r5: .cfa -8 + ^
STACK CFI INIT 20084 6c .cfa: sp 0 + .ra: lr
STACK CFI 20088 .cfa: sp 16 +
STACK CFI 2008c .ra: .cfa -4 + ^ r3: .cfa -16 + ^ r4: .cfa -12 + ^ r5: .cfa -8 + ^
STACK CFI INIT 200f0 28 .cfa: sp 0 + .ra: lr
STACK CFI 200f4 .cfa: sp 16 +
STACK CFI 200f8 .ra: .cfa -4 + ^ r4: .cfa -16 + ^ r5: .cfa -12 + ^ r6: .cfa -8 + ^
STACK CFI INIT 20118 24c .cfa: sp 0 + .ra: lr
STACK CFI 2011c .cfa: sp 12 +
STACK CFI 20120 .cfa: sp 48 +
STACK CFI 20124 .cfa: sp 64 +
STACK CFI 20128 .ra: .cfa -16 + ^ r1: .cfa -12 + ^ r10: .cfa -24 + ^ r11: .cfa -20 + ^ r2: .cfa -8 + ^ r3: .cfa -4 + ^ r4: .cfa -48 + ^ r5: .cfa -44 + ^ r6: .cfa -40 + ^ r7: .cfa -36 + ^ r8: .cfa -32 + ^ r9: .cfa -28 + ^
STACK CFI INIT 20364 2ac .cfa: sp 0 + .ra: lr
STACK CFI 20368 .cfa: sp 12 +
STACK CFI 2036c .cfa: sp 48 +
STACK CFI 20370 .cfa: sp 64 +
STACK CFI 20374 .ra: .cfa -16 + ^ r1: .cfa -12 + ^ r10: .cfa -24 + ^ r11: .cfa -20 + ^ r2: .cfa -8 + ^ r3: .cfa -4 + ^ r4: .cfa -48 + ^ r5: .cfa -44 + ^ r6: .cfa -40 + ^ r7: .cfa -36 + ^ r8: .cfa -32 + ^ r9: .cfa -28 + ^
STACK CFI INIT 20610 274 .cfa: sp 0 + .ra: lr
STACK CFI 20614 .cfa: sp 12 +
STACK CFI 20618 .cfa: sp 48 +
STACK CFI 2061c .ra: .cfa -16 + ^ r1: .cfa -12 + ^ r10: .cfa -24 + ^ r11: .cfa -20 + ^ r2: .cfa -8 + ^ r3: .cfa -4 + ^ r4: .cfa -48 + ^ r5: .cfa -44 + ^ r6: .cfa -40 + ^ r7: .cfa -36 + ^ r8: .cfa -32 + ^ r9: .cfa -28 + ^
STACK CFI 20620 .cfa: sp 72 +
STACK CFI INIT 20884 274 .cfa: sp 0 + .ra: lr
STACK CFI 20888 .cfa: sp 12 +
STACK CFI 2088c .cfa: sp 48 +
STACK CFI 20890 .ra: .cfa -16 + ^ r1: .cfa -12 + ^ r10: .cfa -24 + ^ r11: .cfa -20 + ^ r2: .cfa -8 + ^ r3: .cfa -4 + ^ r4: .cfa -48 + ^ r5: .cfa -44 + ^ r6: .cfa -40 + ^ r7: .cfa -36 + ^ r8: .cfa -32 + ^ r9: .cfa -28 + ^
STACK CFI 20894 .cfa: sp 72 +
STACK CFI INIT 20af8 1c .cfa: sp 0 + .ra: lr
STACK CFI 20afc .cfa: sp 8 + .ra: .cfa -4 + ^ r4: .cfa -8 + ^
STACK CFI INIT 20b14 f8 .cfa: sp 0 + .ra: lr
STACK CFI 20b18 .cfa: sp 16 +
STACK CFI 20b1c .ra: .cfa -4 + ^ r3: .cfa -16 + ^ r4: .cfa -12 + ^ r5: .cfa -8 + ^
STACK CFI INIT 20c0c 20 .cfa: sp 0 + .ra: lr
STACK CFI 20c10 .cfa: sp 8 + .ra: .cfa -4 + ^ r4: .cfa -8 + ^
STACK CFI INIT 20c2c 1c .cfa: sp 0 + .ra: lr
STACK CFI INIT 20c48 24 .cfa: sp 0 + .ra: lr
STACK CFI INIT 20c6c 15c .cfa: sp 0 + .ra: lr
STACK CFI 20c70 .cfa: sp 40 +
STACK CFI 20c74 .ra: .cfa -4 + ^ r10: .cfa -12 + ^ r11: .cfa -8 + ^ r3: .cfa -40 + ^ r4: .cfa -36 + ^ r5: .cfa -32 + ^ r6: .cfa -28 + ^ r7: .cfa -24 + ^ r8: .cfa -20 + ^ r9: .cfa -16 + ^
STACK CFI INIT 20dc8 738 .cfa: sp 0 + .ra: lr
STACK CFI 20dcc .cfa: sp 36 +
STACK CFI 20dd0 .cfa: sp 80 +
STACK CFI 20dd4 .ra: .cfa -4 + ^ r10: .cfa -12 + ^ r11: .cfa -8 + ^ r4: .cfa -36 + ^ r5: .cfa -32 + ^ r6: .cfa -28 + ^ r7: .cfa -24 + ^ r8: .cfa -20 + ^ r9: .cfa -16 + ^
STACK CFI INIT 21500 13c .cfa: sp 0 + .ra: lr
STACK CFI 21504 .cfa: sp 20 +
STACK CFI 2150c .cfa: sp 80 +
STACK CFI 21510 .ra: .cfa -4 + ^ r4: .cfa -20 + ^ r5: .cfa -16 + ^ r6: .cfa -12 + ^ r7: .cfa -8 + ^
STACK CFI INIT 2163c f0 .cfa: sp 0 + .ra: lr
STACK CFI 21640 .cfa: sp 20 +
STACK CFI 21644 .ra: .cfa -4 + ^ r4: .cfa -20 + ^ r5: .cfa -16 + ^ r6: .cfa -12 + ^ r7: .cfa -8 + ^
STACK CFI 21648 .cfa: sp 80 +
STACK CFI INIT 2172c 290 .cfa: sp 0 + .ra: lr
STACK CFI 21730 .cfa: sp 24 +
STACK CFI 21734 .ra: .cfa -4 + ^ r4: .cfa -24 + ^ r5: .cfa -20 + ^ r6: .cfa -16 + ^ r7: .cfa -12 + ^ r8: .cfa -8 + ^
STACK CFI 21738 .cfa: sp 32 +
STACK CFI INIT 219bc 58 .cfa: sp 0 + .ra: lr
STACK CFI 219c4 .cfa: sp 8 +
STACK CFI 219cc .ra: .cfa -4 + ^ r4: .cfa -8 + ^
STACK CFI INIT 21a14 f8 .cfa: sp 0 + .ra: lr
STACK CFI 21a18 .cfa: sp 20 +
STACK CFI 21a1c .ra: .cfa -4 + ^ r4: .cfa -20 + ^ r5: .cfa -16 + ^ r6: .cfa -12 + ^ r7: .cfa -8 + ^
STACK CFI 21a20 .cfa: sp 80 +
STACK CFI INIT 21b0c c8 .cfa: sp 0 + .ra: lr
STACK CFI 21b10 .cfa: sp 32 +
STACK CFI 21b14 .ra: .cfa -4 + ^ r10: .cfa -8 + ^ r3: .cfa -32 + ^ r4: .cfa -28 + ^ r5: .cfa -24 + ^ r6: .cfa -20 + ^ r7: .cfa -16 + ^ r8: .cfa -12 + ^
STACK CFI INIT 21bd4 114 .cfa: sp 0 + .ra: lr
STACK CFI 21bdc .cfa: sp 8 +
STACK CFI 21be4 .cfa: sp 64 +
STACK CFI 21be8 .ra: .cfa -4 + ^ r4: .cfa -8 + ^
STACK CFI INIT 21ce8 100 .cfa: sp 0 + .ra: lr
STACK CFI 21cec .cfa: sp 28 +
STACK CFI 21cf0 .ra: .cfa -4 + ^ r10: .cfa -8 + ^ r4: .cfa -28 + ^ r5: .cfa -24 + ^ r6: .cfa -20 + ^ r7: .cfa -16 + ^ r8: .cfa -12 + ^
STACK CFI 21cf4 .cfa: sp 88 +
STACK CFI INIT 21de8 bc .cfa: sp 0 + .ra: lr
STACK CFI 21df4 .cfa: sp 8 +
STACK CFI 21dfc .ra: .cfa -4 + ^ r4: .cfa -8 + ^
STACK CFI INIT 21ea4 cc .cfa: sp 0 + .ra: lr
STACK CFI 21ea8 .cfa: sp 16 +
STACK CFI 21eac .ra: .cfa -4 + ^ r3: .cfa -16 + ^ r4: .cfa -12 + ^ r5: .cfa -8 + ^
STACK CFI INIT 21f70 ac .cfa: sp 0 + .ra: lr
STACK CFI 21f74 .cfa: sp 8 +
STACK CFI 21f78 .ra: .cfa -4 + ^ r4: .cfa -8 + ^
STACK CFI INIT 2201c e8 .cfa: sp 0 + .ra: lr
STACK CFI 22020 .cfa: sp 8 +
STACK CFI 22024 .ra: .cfa -4 + ^ r4: .cfa -8 + ^
STACK CFI INIT 22104 3e0 .cfa: sp 0 + .ra: lr
STACK CFI 22108 .cfa: sp 12 +
STACK CFI 2210c .ra: .cfa -4 + ^ r4: .cfa -12 + ^ r5: .cfa -8 + ^
STACK CFI 22110 .cfa: sp 184 +
STACK CFI INIT 224e4 3bc .cfa: sp 0 + .ra: lr
STACK CFI 224f0 .cfa: sp 16 +
STACK CFI 224f4 .ra: .cfa -4 + ^ r4: .cfa -16 + ^ r5: .cfa -12 + ^ r6: .cfa -8 + ^
STACK CFI 224f8 .cfa: sp 184 +
STACK CFI INIT 228a0 238 .cfa: sp 0 + .ra: lr
STACK CFI 228ac .cfa: sp 16 +
STACK CFI 228b0 .ra: .cfa -4 + ^ r4: .cfa -16 + ^ r5: .cfa -12 + ^ r6: .cfa -8 + ^
STACK CFI 228b4 .cfa: sp 184 +
STACK CFI INIT 22ad8 140 .cfa: sp 0 + .ra: lr
STACK CFI 22ae0 .cfa: sp 16 +
STACK CFI 22ae8 .ra: .cfa -4 + ^ r3: .cfa -16 + ^ r4: .cfa -12 + ^ r5: .cfa -8 + ^
STACK CFI INIT 22c18 24 .cfa: sp 0 + .ra: lr
STACK CFI INIT 22c3c 42c .cfa: sp 0 + .ra: lr
STACK CFI 22c40 .cfa: sp 16 +
STACK CFI 22c44 .ra: .cfa -4 + ^ r4: .cfa -16 + ^ r5: .cfa -12 + ^ r6: .cfa -8 + ^
STACK CFI 22c48 .cfa: sp 24 +
STACK CFI INIT 23068 8 .cfa: sp 0 + .ra: lr
STACK CFI INIT 23070 8 .cfa: sp 0 + .ra: lr
STACK CFI INIT 23078 bc .cfa: sp 0 + .ra: lr
STACK CFI 2307c .cfa: sp 16 +
STACK CFI 23080 .ra: .cfa -4 + ^ r3: .cfa -16 + ^ r4: .cfa -12 + ^ r5: .cfa -8 + ^
STACK CFI INIT 23134 90 .cfa: sp 0 + .ra: lr
STACK CFI 2313c .cfa: sp 16 +
STACK CFI 23140 .ra: .cfa -4 + ^ r3: .cfa -16 + ^ r4: .cfa -12 + ^ r5: .cfa -8 + ^
STACK CFI INIT 231c4 9c .cfa: sp 0 + .ra: lr
STACK CFI 231c8 .cfa: sp 24 +
STACK CFI 231cc .ra: .cfa -4 + ^ r3: .cfa -24 + ^ r4: .cfa -20 + ^ r5: .cfa -16 + ^ r6: .cfa -12 + ^ r7: .cfa -8 + ^
STACK CFI INIT 23260 180 .cfa: sp 0 + .ra: lr
STACK CFI 23264 .cfa: sp 16 +
STACK CFI 23268 .ra: .cfa -4 + ^ r4: .cfa -16 + ^ r5: .cfa -12 + ^ r6: .cfa -8 + ^
STACK CFI INIT 233e0 b0 .cfa: sp 0 + .ra: lr
STACK CFI 233e4 .cfa: sp 16 +
STACK CFI 233e8 .ra: .cfa -4 + ^ r4: .cfa -16 + ^ r5: .cfa -12 + ^ r6: .cfa -8 + ^
STACK CFI INIT 23490 198 .cfa: sp 0 + .ra: lr
STACK CFI 23494 .cfa: sp 24 +
STACK CFI 23498 .ra: .cfa -4 + ^ r4: .cfa -24 + ^ r5: .cfa -20 + ^ r6: .cfa -16 + ^ r7: .cfa -12 + ^ r8: .cfa -8 + ^
STACK CFI INIT 23628 428 .cfa: sp 0 + .ra: lr
STACK CFI 2362c .cfa: sp 24 +
STACK CFI 23630 .ra: .cfa -4 + ^ r3: .cfa -24 + ^ r4: .cfa -20 + ^ r5: .cfa -16 + ^ r6: .cfa -12 + ^ r7: .cfa -8 + ^
STACK CFI INIT 23a50 29c .cfa: sp 0 + .ra: lr
STACK CFI 23a54 .cfa: sp 16 +
STACK CFI 23a58 .ra: .cfa -4 + ^ r4: .cfa -16 + ^ r5: .cfa -12 + ^ r6: .cfa -8 + ^
STACK CFI INIT 23cec 78 .cfa: sp 0 + .ra: lr
STACK CFI 23cfc .cfa: sp 8 +
STACK CFI 23d08 .ra: .cfa -4 + ^ r4: .cfa -8 + ^
STACK CFI INIT 23d64 54 .cfa: sp 0 + .ra: lr
STACK CFI 23d6c .cfa: sp 8 +
STACK CFI 23d70 .ra: .cfa -4 + ^ r4: .cfa -8 + ^
STACK CFI INIT 23db8 18 .cfa: sp 0 + .ra: lr
STACK CFI INIT 23dd0 4c .cfa: sp 0 + .ra: lr
STACK CFI 23dd8 .cfa: sp 8 +
STACK CFI 23ddc .ra: .cfa -4 + ^ r4: .cfa -8 + ^
STACK CFI INIT 23e1c c0 .cfa: sp 0 + .ra: lr
STACK CFI 23e28 .cfa: sp 12 +
STACK CFI 23e34 r4: .cfa -12 + ^ r5: .cfa -8 + ^ r6: .cfa -4 + ^
STACK CFI INIT 23edc 60 .cfa: sp 0 + .ra: lr
STACK CFI 23ee8 .cfa: sp 16 +
STACK CFI 23eec .ra: .cfa -4 + ^ r4: .cfa -16 + ^ r5: .cfa -12 + ^ r6: .cfa -8 + ^
STACK CFI INIT 23f3c 234 .cfa: sp 0 + .ra: lr
STACK CFI 23f40 .cfa: sp 36 +
STACK CFI 23f44 .ra: .cfa -4 + ^ r10: .cfa -12 + ^ r11: .cfa -8 + ^ r4: .cfa -36 + ^ r5: .cfa -32 + ^ r6: .cfa -28 + ^ r7: .cfa -24 + ^ r8: .cfa -20 + ^ r9: .cfa -16 + ^
STACK CFI 23f50 .cfa: sp 48 +
STACK CFI INIT 24170 20 .cfa: sp 0 + .ra: lr
STACK CFI 24174 .cfa: sp 16 +
STACK CFI 24178 .ra: .cfa -4 + ^ r3: .cfa -16 + ^ r4: .cfa -12 + ^ r5: .cfa -8 + ^
STACK CFI INIT 24190 20 .cfa: sp 0 + .ra: lr
STACK CFI 24194 .cfa: sp 16 +
STACK CFI 24198 .ra: .cfa -4 + ^ r3: .cfa -16 + ^ r4: .cfa -12 + ^ r5: .cfa -8 + ^
STACK CFI INIT 241b0 20 .cfa: sp 0 + .ra: lr
STACK CFI 241b4 .cfa: sp 16 +
STACK CFI 241b8 .ra: .cfa -4 + ^ r3: .cfa -16 + ^ r4: .cfa -12 + ^ r5: .cfa -8 + ^
STACK CFI INIT 241d0 34 .cfa: sp 0 + .ra: lr
STACK CFI 241d4 .cfa: sp 16 +
STACK CFI 241d8 .ra: .cfa -4 + ^ r3: .cfa -16 + ^ r4: .cfa -12 + ^ r5: .cfa -8 + ^
STACK CFI INIT 24204 98 .cfa: sp 0 + .ra: lr
STACK CFI INIT 2429c 44 .cfa: sp 0 + .ra: lr
STACK CFI INIT 242e0 28 .cfa: sp 0 + .ra: lr
STACK CFI 242ec .cfa: sp 8 +
STACK CFI 242f0 .ra: .cfa -4 + ^ r3: .cfa -8 + ^
STACK CFI INIT 24308 b4 .cfa: sp 0 + .ra: lr
STACK CFI INIT 243bc 284 .cfa: sp 0 + .ra: lr
STACK CFI 243d0 .cfa: sp 24 +
STACK CFI 243d8 r10: .cfa -4 + ^ r4: .cfa -24 + ^ r5: .cfa -20 + ^ r6: .cfa -16 + ^ r7: .cfa -12 + ^ r8: .cfa -8 + ^
STACK CFI INIT 24640 2d8 .cfa: sp 0 + .ra: lr
STACK CFI 24648 .cfa: sp 16 +
STACK CFI 2464c .ra: .cfa -4 + ^ r4: .cfa -16 + ^ r5: .cfa -12 + ^ r6: .cfa -8 + ^
STACK CFI INIT 24918 1c4 .cfa: sp 0 + .ra: lr
STACK CFI 2491c .cfa: sp 24 +
STACK CFI 24920 .ra: .cfa -4 + ^ r3: .cfa -24 + ^ r4: .cfa -20 + ^ r5: .cfa -16 + ^ r6: .cfa -12 + ^ r7: .cfa -8 + ^
STACK CFI INIT 24adc 9c .cfa: sp 0 + .ra: lr
STACK CFI 24ae0 .cfa: sp 16 +
STACK CFI 24ae8 .ra: .cfa -4 + ^ r3: .cfa -16 + ^ r4: .cfa -12 + ^ r5: .cfa -8 + ^
STACK CFI INIT 24b78 f4 .cfa: sp 0 + .ra: lr
STACK CFI 24b7c .cfa: sp 16 +
STACK CFI 24b80 .ra: .cfa -4 + ^ r4: .cfa -16 + ^ r5: .cfa -12 + ^ r6: .cfa -8 + ^
STACK CFI INIT 24c6c f4 .cfa: sp 0 + .ra: lr
STACK CFI 24c70 .cfa: sp 24 +
STACK CFI 24c74 .ra: .cfa -4 + ^ r4: .cfa -24 + ^ r5: .cfa -20 + ^ r6: .cfa -16 + ^ r7: .cfa -12 + ^ r8: .cfa -8 + ^
STACK CFI 24c78 .cfa: sp 80 +
STACK CFI INIT 24d60 614 .cfa: sp 0 + .ra: lr
STACK CFI 24d64 .cfa: sp 20 +
STACK CFI 24d68 .ra: .cfa -4 + ^ r4: .cfa -20 + ^ r5: .cfa -16 + ^ r6: .cfa -12 + ^ r7: .cfa -8 + ^
STACK CFI 24d6c .cfa: sp 80 +
STACK CFI INIT 25374 e8 .cfa: sp 0 + .ra: lr
STACK CFI 2537c .cfa: sp 8 +
STACK CFI 25380 .ra: .cfa -4 + ^ r4: .cfa -8 + ^
STACK CFI INIT 2545c 108 .cfa: sp 0 + .ra: lr
STACK CFI 25460 .cfa: sp 20 +
STACK CFI 25464 .ra: .cfa -4 + ^ r4: .cfa -20 + ^ r5: .cfa -16 + ^ r6: .cfa -12 + ^ r7: .cfa -8 + ^
STACK CFI 25468 .cfa: sp 80 +
STACK CFI INIT 25564 118 .cfa: sp 0 + .ra: lr
STACK CFI 25568 .cfa: sp 24 +
STACK CFI 2556c .ra: .cfa -4 + ^ r4: .cfa -24 + ^ r5: .cfa -20 + ^ r6: .cfa -16 + ^ r7: .cfa -12 + ^ r8: .cfa -8 + ^
STACK CFI 25570 .cfa: sp 80 +
STACK CFI INIT 2567c 138 .cfa: sp 0 + .ra: lr
STACK CFI 25680 .cfa: sp 16 +
STACK CFI 25684 .ra: .cfa -4 + ^ r4: .cfa -16 + ^ r5: .cfa -12 + ^ r6: .cfa -8 + ^
STACK CFI 25688 .cfa: sp 72 +
STACK CFI INIT 257b4 104 .cfa: sp 0 + .ra: lr
STACK CFI 257b8 .cfa: sp 28 +
STACK CFI 257bc .ra: .cfa -4 + ^ r10: .cfa -8 + ^ r4: .cfa -28 + ^ r5: .cfa -24 + ^ r6: .cfa -20 + ^ r7: .cfa -16 + ^ r8: .cfa -12 + ^
STACK CFI 257c0 .cfa: sp 96 +
STACK CFI INIT 258b8 10c .cfa: sp 0 + .ra: lr
STACK CFI 258bc .cfa: sp 32 +
STACK CFI 258c0 .ra: .cfa -4 + ^ r10: .cfa -8 + ^ r4: .cfa -32 + ^ r5: .cfa -28 + ^ r6: .cfa -24 + ^ r7: .cfa -20 + ^ r8: .cfa -16 + ^ r9: .cfa -12 + ^
STACK CFI 258c4 .cfa: sp 96 +
STACK CFI INIT 259c4 f4 .cfa: sp 0 + .ra: lr
STACK CFI 259c8 .cfa: sp 24 +
STACK CFI 259cc .ra: .cfa -4 + ^ r4: .cfa -24 + ^ r5: .cfa -20 + ^ r6: .cfa -16 + ^ r7: .cfa -12 + ^ r8: .cfa -8 + ^
STACK CFI 259d0 .cfa: sp 80 +
STACK CFI INIT 25ab8 98 .cfa: sp 0 + .ra: lr
STACK CFI 25ac0 .cfa: sp 16 +
STACK CFI 25ac4 .ra: .cfa -4 + ^ r4: .cfa -16 + ^ r5: .cfa -12 + ^ r6: .cfa -8 + ^
STACK CFI 25ac8 .cfa: sp 72 +
STACK CFI INIT 25b50 d8 .cfa: sp 0 + .ra: lr
STACK CFI 25b54 .cfa: sp 8 +
STACK CFI 25b58 .ra: .cfa -4 + ^ r4: .cfa -8 + ^
STACK CFI INIT 25c28 2bc .cfa: sp 0 + .ra: lr
STACK CFI 25c34 .cfa: sp 16 +
STACK CFI 25c38 .ra: .cfa -4 + ^ r4: .cfa -16 + ^ r5: .cfa -12 + ^ r6: .cfa -8 + ^
STACK CFI INIT 25ee4 4c .cfa: sp 0 + .ra: lr
STACK CFI 25ee8 .cfa: sp 16 +
STACK CFI 25eec .ra: .cfa -4 + ^ r3: .cfa -16 + ^ r4: .cfa -12 + ^ r5: .cfa -8 + ^
STACK CFI INIT 25f30 1c .cfa: sp 0 + .ra: lr
STACK CFI INIT 25f4c 140 .cfa: sp 0 + .ra: lr
STACK CFI 25f50 .cfa: sp 32 +
STACK CFI 25f54 .ra: .cfa -4 + ^ r10: .cfa -8 + ^ r4: .cfa -32 + ^ r5: .cfa -28 + ^ r6: .cfa -24 + ^ r7: .cfa -20 + ^ r8: .cfa -16 + ^ r9: .cfa -12 + ^
STACK CFI INIT 2608c 1dc .cfa: sp 0 + .ra: lr
STACK CFI 26090 .cfa: sp 8 +
STACK CFI 26094 .ra: .cfa -4 + ^ r4: .cfa -8 + ^
STACK CFI INIT 26268 200 .cfa: sp 0 + .ra: lr
STACK CFI 26270 .cfa: sp 24 +
STACK CFI 26274 r10: .cfa -4 + ^ r4: .cfa -24 + ^ r5: .cfa -20 + ^ r6: .cfa -16 + ^ r7: .cfa -12 + ^ r8: .cfa -8 + ^
STACK CFI INIT 26468 d0 .cfa: sp 0 + .ra: lr
STACK CFI 2646c .cfa: sp 24 +
STACK CFI 26470 .ra: .cfa -4 + ^ r3: .cfa -24 + ^ r4: .cfa -20 + ^ r5: .cfa -16 + ^ r6: .cfa -12 + ^ r7: .cfa -8 + ^
STACK CFI INIT 26538 1d0 .cfa: sp 0 + .ra: lr
STACK CFI 26544 .cfa: sp 8 +
STACK CFI 2654c .ra: .cfa -4 + ^ r4: .cfa -8 + ^
STACK CFI INIT 26708 288 .cfa: sp 0 + .ra: lr
STACK CFI 2670c .cfa: sp 16 +
STACK CFI 26710 .ra: .cfa -4 + ^ r3: .cfa -16 + ^ r4: .cfa -12 + ^ r5: .cfa -8 + ^
STACK CFI INIT 26990 220 .cfa: sp 0 + .ra: lr
STACK CFI 26994 .cfa: sp 36 +
STACK CFI 26998 .ra: .cfa -4 + ^ r10: .cfa -12 + ^ r11: .cfa -8 + ^ r4: .cfa -36 + ^ r5: .cfa -32 + ^ r6: .cfa -28 + ^ r7: .cfa -24 + ^ r8: .cfa -20 + ^ r9: .cfa -16 + ^
STACK CFI 2699c .cfa: sp 160 +
STACK CFI INIT 26bb0 a0 .cfa: sp 0 + .ra: lr
STACK CFI 26bb8 .cfa: sp 16 +
STACK CFI 26bbc .ra: .cfa -4 + ^ r4: .cfa -16 + ^ r5: .cfa -12 + ^ r6: .cfa -8 + ^
STACK CFI 26bc0 .cfa: sp 80 +
STACK CFI INIT 26c50 108 .cfa: sp 0 + .ra: lr
STACK CFI 26c58 .cfa: sp 20 +
STACK CFI 26c5c .ra: .cfa -4 + ^ r4: .cfa -20 + ^ r5: .cfa -16 + ^ r6: .cfa -12 + ^ r7: .cfa -8 + ^
STACK CFI 26c60 .cfa: sp 80 +
STACK CFI INIT 26d58 28 .cfa: sp 0 + .ra: lr
STACK CFI INIT 26d80 320 .cfa: sp 0 + .ra: lr
STACK CFI 26d88 .cfa: sp 8 +
STACK CFI 26d8c r4: .cfa -8 + ^ r5: .cfa -4 + ^
STACK CFI INIT 270a0 b4 .cfa: sp 0 + .ra: lr
STACK CFI 270a4 .cfa: sp 16 +
STACK CFI 270a8 .ra: .cfa -4 + ^ r3: .cfa -16 + ^ r4: .cfa -12 + ^ r5: .cfa -8 + ^
STACK CFI INIT 27154 164 .cfa: sp 0 + .ra: lr
STACK CFI 27158 .cfa: sp 28 +
STACK CFI 2715c .cfa: sp 40 +
STACK CFI 27160 .ra: .cfa -4 + ^ r10: .cfa -8 + ^ r4: .cfa -28 + ^ r5: .cfa -24 + ^ r6: .cfa -20 + ^ r7: .cfa -16 + ^ r8: .cfa -12 + ^
STACK CFI INIT 272b8 4c .cfa: sp 0 + .ra: lr
STACK CFI INIT 27304 e0 .cfa: sp 0 + .ra: lr
STACK CFI 27308 .cfa: sp 16 +
STACK CFI 2730c .ra: .cfa -4 + ^ r4: .cfa -16 + ^ r5: .cfa -12 + ^ r6: .cfa -8 + ^
STACK CFI INIT 273e4 4c .cfa: sp 0 + .ra: lr
STACK CFI INIT 27430 b4 .cfa: sp 0 + .ra: lr
STACK CFI 27434 .cfa: sp 16 +
STACK CFI 27438 .ra: .cfa -4 + ^ r3: .cfa -16 + ^ r4: .cfa -12 + ^ r5: .cfa -8 + ^
STACK CFI INIT 274e4 4c .cfa: sp 0 + .ra: lr
STACK CFI INIT 27530 bc .cfa: sp 0 + .ra: lr
STACK CFI 27534 .cfa: sp 16 +
STACK CFI 27538 .ra: .cfa -4 + ^ r4: .cfa -16 + ^ r5: .cfa -12 + ^ r6: .cfa -8 + ^
STACK CFI INIT 275ec 4c .cfa: sp 0 + .ra: lr
STACK CFI 275f0 .cfa: sp 8 +
STACK CFI 275f8 .ra: .cfa -4 + ^ r4: .cfa -8 + ^
STACK CFI INIT 27638 40 .cfa: sp 0 + .ra: lr
STACK CFI 2763c .cfa: sp 8 +
STACK CFI 27640 .ra: .cfa -4 + ^ r4: .cfa -8 + ^
STACK CFI INIT 27678 e0 .cfa: sp 0 + .ra: lr
STACK CFI 2767c .cfa: sp 16 +
STACK CFI 27680 .ra: .cfa -4 + ^ r4: .cfa -16 + ^ r5: .cfa -12 + ^ r6: .cfa -8 + ^
STACK CFI INIT 27758 4d0 .cfa: sp 0 + .ra: lr
STACK CFI 27764 .cfa: sp 36 +
STACK CFI 2776c .cfa: sp 168 +
STACK CFI 27780 .ra: .cfa -4 + ^ r10: .cfa -12 + ^ r11: .cfa -8 + ^ r4: .cfa -36 + ^ r5: .cfa -32 + ^ r6: .cfa -28 + ^ r7: .cfa -24 + ^ r8: .cfa -20 + ^ r9: .cfa -16 + ^
STACK CFI INIT 27c28 2d0 .cfa: sp 0 + .ra: lr
STACK CFI 27c2c .cfa: sp 36 +
STACK CFI 27c34 .ra: .cfa -4 + ^ r10: .cfa -12 + ^ r11: .cfa -8 + ^ r4: .cfa -36 + ^ r5: .cfa -32 + ^ r6: .cfa -28 + ^ r7: .cfa -24 + ^ r8: .cfa -20 + ^ r9: .cfa -16 + ^
STACK CFI 27c38 .cfa: sp 56 +
STACK CFI INIT 27ef8 198 .cfa: sp 0 + .ra: lr
STACK CFI 27efc .cfa: sp 40 +
STACK CFI 27f00 .ra: .cfa -4 + ^ r10: .cfa -12 + ^ r11: .cfa -8 + ^ r3: .cfa -40 + ^ r4: .cfa -36 + ^ r5: .cfa -32 + ^ r6: .cfa -28 + ^ r7: .cfa -24 + ^ r8: .cfa -20 + ^ r9: .cfa -16 + ^
STACK CFI INIT 28090 208 .cfa: sp 0 + .ra: lr
STACK CFI 28098 .cfa: sp 40 +
STACK CFI 280a0 .ra: .cfa -4 + ^ r10: .cfa -12 + ^ r11: .cfa -8 + ^ r3: .cfa -40 + ^ r4: .cfa -36 + ^ r5: .cfa -32 + ^ r6: .cfa -28 + ^ r7: .cfa -24 + ^ r8: .cfa -20 + ^ r9: .cfa -16 + ^
STACK CFI INIT 28298 348 .cfa: sp 0 + .ra: lr
STACK CFI 2829c .cfa: sp 24 +
STACK CFI 282a0 .ra: .cfa -4 + ^ r3: .cfa -24 + ^ r4: .cfa -20 + ^ r5: .cfa -16 + ^ r6: .cfa -12 + ^ r7: .cfa -8 + ^
STACK CFI INIT 285e0 2dc .cfa: sp 0 + .ra: lr
STACK CFI 285e4 .cfa: sp 16 +
STACK CFI 285e8 .ra: .cfa -4 + ^ r4: .cfa -16 + ^ r5: .cfa -12 + ^ r6: .cfa -8 + ^
STACK CFI INIT 288bc 3f4 .cfa: sp 0 + .ra: lr
STACK CFI 288c4 .cfa: sp 16 +
STACK CFI 288cc .cfa: sp 32 +
STACK CFI 288d4 .ra: .cfa -4 + ^ r4: .cfa -16 + ^ r5: .cfa -12 + ^ r6: .cfa -8 + ^
STACK CFI INIT 28cb0 254 .cfa: sp 0 + .ra: lr
STACK CFI 28cb4 .cfa: sp 24 +
STACK CFI 28cb8 .ra: .cfa -4 + ^ r4: .cfa -24 + ^ r5: .cfa -20 + ^ r6: .cfa -16 + ^ r7: .cfa -12 + ^ r8: .cfa -8 + ^
STACK CFI 28cc4 .cfa: sp 32 +
STACK CFI INIT 28f04 5c4 .cfa: sp 0 + .ra: lr
STACK CFI 28f08 .cfa: sp 36 +
STACK CFI 28f0c .ra: .cfa -4 + ^ r10: .cfa -12 + ^ r11: .cfa -8 + ^ r4: .cfa -36 + ^ r5: .cfa -32 + ^ r6: .cfa -28 + ^ r7: .cfa -24 + ^ r8: .cfa -20 + ^ r9: .cfa -16 + ^
STACK CFI 28f24 .cfa: sp 64 +
STACK CFI INIT 294c8 c90 .cfa: sp 0 + .ra: lr
STACK CFI 294d8 .cfa: sp 36 +
STACK CFI 294e0 .cfa: sp 88 +
STACK CFI 294ec .ra: .cfa -4 + ^ r10: .cfa -12 + ^ r11: .cfa -8 + ^ r4: .cfa -36 + ^ r5: .cfa -32 + ^ r6: .cfa -28 + ^ r7: .cfa -24 + ^ r8: .cfa -20 + ^ r9: .cfa -16 + ^
STACK CFI INIT 2a158 484 .cfa: sp 0 + .ra: lr
STACK CFI 2a160 .cfa: sp 36 +
STACK CFI 2a168 .cfa: sp 352 +
STACK CFI 2a16c .ra: .cfa -4 + ^ r10: .cfa -12 + ^ r11: .cfa -8 + ^ r4: .cfa -36 + ^ r5: .cfa -32 + ^ r6: .cfa -28 + ^ r7: .cfa -24 + ^ r8: .cfa -20 + ^ r9: .cfa -16 + ^
STACK CFI INIT 2a5dc 498 .cfa: sp 0 + .ra: lr
STACK CFI 2a5e8 .cfa: sp 36 +
STACK CFI 2a5f0 .cfa: sp 48 +
STACK CFI 2a5f8 .ra: .cfa -4 + ^ r10: .cfa -12 + ^ r11: .cfa -8 + ^ r4: .cfa -36 + ^ r5: .cfa -32 + ^ r6: .cfa -28 + ^ r7: .cfa -24 + ^ r8: .cfa -20 + ^ r9: .cfa -16 + ^
STACK CFI INIT 2aa74 390 .cfa: sp 0 + .ra: lr
STACK CFI 2aa78 .cfa: sp 36 +
STACK CFI 2aa80 .ra: .cfa -4 + ^ r10: .cfa -12 + ^ r11: .cfa -8 + ^ r4: .cfa -36 + ^ r5: .cfa -32 + ^ r6: .cfa -28 + ^ r7: .cfa -24 + ^ r8: .cfa -20 + ^ r9: .cfa -16 + ^
STACK CFI 2aa84 .cfa: sp 64 +
STACK CFI INIT 2ae04 30c .cfa: sp 0 + .ra: lr
STACK CFI 2ae0c .cfa: sp 36 +
STACK CFI 2ae10 .ra: .cfa -4 + ^ r10: .cfa -12 + ^ r11: .cfa -8 + ^ r4: .cfa -36 + ^ r5: .cfa -32 + ^ r6: .cfa -28 + ^ r7: .cfa -24 + ^ r8: .cfa -20 + ^ r9: .cfa -16 + ^
STACK CFI 2ae18 .cfa: sp 152 +
STACK CFI INIT 2b110 82c .cfa: sp 0 + .ra: lr
STACK CFI 2b118 .cfa: sp 32 +
STACK CFI 2b11c .ra: .cfa -4 + ^ r10: .cfa -8 + ^ r4: .cfa -32 + ^ r5: .cfa -28 + ^ r6: .cfa -24 + ^ r7: .cfa -20 + ^ r8: .cfa -16 + ^ r9: .cfa -12 + ^
STACK CFI 2b124 .cfa: sp 40 +
STACK CFI INIT 2b93c 288 .cfa: sp 0 + .ra: lr
STACK CFI 2b944 .cfa: sp 28 +
STACK CFI 2b948 .ra: .cfa -4 + ^ r10: .cfa -8 + ^ r4: .cfa -28 + ^ r5: .cfa -24 + ^ r6: .cfa -20 + ^ r7: .cfa -16 + ^ r8: .cfa -12 + ^
STACK CFI 2b950 .cfa: sp 40 +
STACK CFI INIT 2bbc4 e0 .cfa: sp 0 + .ra: lr
STACK CFI 2bbc8 .cfa: sp 24 +
STACK CFI 2bbcc .ra: .cfa -4 + ^ r3: .cfa -24 + ^ r4: .cfa -20 + ^ r5: .cfa -16 + ^ r6: .cfa -12 + ^ r7: .cfa -8 + ^
STACK CFI INIT 2bca4 304 .cfa: sp 0 + .ra: lr
STACK CFI 2bcac .cfa: sp 16 +
STACK CFI 2bcb4 .ra: .cfa -4 + ^ r4: .cfa -16 + ^ r5: .cfa -12 + ^ r6: .cfa -8 + ^
STACK CFI INIT 2bfa8 148 .cfa: sp 0 + .ra: lr
STACK CFI 2bfac .cfa: sp 12 +
STACK CFI 2bfb0 .cfa: sp 24 +
STACK CFI 2bfb4 .ra: .cfa -4 + ^ r4: .cfa -12 + ^ r5: .cfa -8 + ^
STACK CFI INIT 2c0f0 10a8 .cfa: sp 0 + .ra: lr
STACK CFI 2c0f4 .cfa: sp 36 +
STACK CFI 2c0f8 .ra: .cfa -4 + ^ r10: .cfa -12 + ^ r11: .cfa -8 + ^ r4: .cfa -36 + ^ r5: .cfa -32 + ^ r6: .cfa -28 + ^ r7: .cfa -24 + ^ r8: .cfa -20 + ^ r9: .cfa -16 + ^
STACK CFI 2c0fc .cfa: sp 120 +
STACK CFI INIT 2d198 5c .cfa: sp 0 + .ra: lr
STACK CFI 2d19c .cfa: sp 28 +
STACK CFI 2d1a8 .cfa: sp 48 +
STACK CFI 2d1ac .ra: .cfa -4 + ^ r10: .cfa -8 + ^ r4: .cfa -28 + ^ r5: .cfa -24 + ^ r6: .cfa -20 + ^ r7: .cfa -16 + ^ r8: .cfa -12 + ^
STACK CFI INIT 2d1f4 4c4 .cfa: sp 0 + .ra: lr
STACK CFI 2d1fc .cfa: sp 36 +
STACK CFI 2d200 .ra: .cfa -4 + ^ r10: .cfa -12 + ^ r11: .cfa -8 + ^ r4: .cfa -36 + ^ r5: .cfa -32 + ^ r6: .cfa -28 + ^ r7: .cfa -24 + ^ r8: .cfa -20 + ^ r9: .cfa -16 + ^
STACK CFI 2d204 .cfa: sp 72 +
STACK CFI INIT 2d6b8 4b8 .cfa: sp 0 + .ra: lr
STACK CFI 2d6bc .cfa: sp 32 +
STACK CFI 2d6c0 .ra: .cfa -4 + ^ r10: .cfa -8 + ^ r3: .cfa -32 + ^ r4: .cfa -28 + ^ r5: .cfa -24 + ^ r6: .cfa -20 + ^ r7: .cfa -16 + ^ r8: .cfa -12 + ^
STACK CFI INIT 2db70 fb4 .cfa: sp 0 + .ra: lr
STACK CFI 2db78 .cfa: sp 36 +
STACK CFI 2db7c .ra: .cfa -4 + ^ r10: .cfa -12 + ^ r11: .cfa -8 + ^ r4: .cfa -36 + ^ r5: .cfa -32 + ^ r6: .cfa -28 + ^ r7: .cfa -24 + ^ r8: .cfa -20 + ^ r9: .cfa -16 + ^
STACK CFI 2db80 .cfa: sp 80 +
STACK CFI INIT 2eb24 30 .cfa: sp 0 + .ra: lr
STACK CFI INIT 2eb54 1ac .cfa: sp 0 + .ra: lr
STACK CFI 2eb58 .cfa: sp 24 +
STACK CFI 2eb5c .ra: .cfa -4 + ^ r3: .cfa -24 + ^ r4: .cfa -20 + ^ r5: .cfa -16 + ^ r6: .cfa -12 + ^ r7: .cfa -8 + ^
STACK CFI INIT 2ed00 162c .cfa: sp 0 + .ra: lr
STACK CFI 2ed04 .cfa: sp 36 +
STACK CFI 2ed08 .ra: .cfa -4 + ^ r10: .cfa -12 + ^ r11: .cfa -8 + ^ r4: .cfa -36 + ^ r5: .cfa -32 + ^ r6: .cfa -28 + ^ r7: .cfa -24 + ^ r8: .cfa -20 + ^ r9: .cfa -16 + ^
STACK CFI 2ed18 .cfa: sp 152 +
STACK CFI INIT 3032c 1c8 .cfa: sp 0 + .ra: lr
STACK CFI 30334 .cfa: sp 24 +
STACK CFI 3033c .ra: .cfa -4 + ^ r3: .cfa -24 + ^ r4: .cfa -20 + ^ r5: .cfa -16 + ^ r6: .cfa -12 + ^ r7: .cfa -8 + ^
STACK CFI INIT 304f4 604 .cfa: sp 0 + .ra: lr
STACK CFI 304f8 .cfa: sp 36 +
STACK CFI 304fc .ra: .cfa -4 + ^ r10: .cfa -12 + ^ r11: .cfa -8 + ^ r4: .cfa -36 + ^ r5: .cfa -32 + ^ r6: .cfa -28 + ^ r7: .cfa -24 + ^ r8: .cfa -20 + ^ r9: .cfa -16 + ^
STACK CFI 3050c .cfa: sp 64 +
STACK CFI INIT 30af8 7d8 .cfa: sp 0 + .ra: lr
STACK CFI 30b00 .cfa: sp 36 +
STACK CFI 30b04 .ra: .cfa -4 + ^ r10: .cfa -12 + ^ r11: .cfa -8 + ^ r4: .cfa -36 + ^ r5: .cfa -32 + ^ r6: .cfa -28 + ^ r7: .cfa -24 + ^ r8: .cfa -20 + ^ r9: .cfa -16 + ^
STACK CFI 30b08 .cfa: sp 48 +
STACK CFI INIT 312d0 8 .cfa: sp 0 + .ra: lr
STACK CFI INIT 312d8 1f0 .cfa: sp 0 + .ra: lr
STACK CFI 312e0 .cfa: sp 36 +
STACK CFI 312e8 .ra: .cfa -4 + ^ r10: .cfa -12 + ^ r11: .cfa -8 + ^ r4: .cfa -36 + ^ r5: .cfa -32 + ^ r6: .cfa -28 + ^ r7: .cfa -24 + ^ r8: .cfa -20 + ^ r9: .cfa -16 + ^
STACK CFI 312f8 .cfa: sp 48 +
STACK CFI INIT 314c8 1e0 .cfa: sp 0 + .ra: lr
STACK CFI 314d0 .cfa: sp 36 +
STACK CFI 314d8 .ra: .cfa -4 + ^ r10: .cfa -12 + ^ r11: .cfa -8 + ^ r4: .cfa -36 + ^ r5: .cfa -32 + ^ r6: .cfa -28 + ^ r7: .cfa -24 + ^ r8: .cfa -20 + ^ r9: .cfa -16 + ^
STACK CFI 314e8 .cfa: sp 48 +
STACK CFI INIT 316a8 404 .cfa: sp 0 + .ra: lr
STACK CFI 316b0 .cfa: sp 32 +
STACK CFI 316b8 .cfa: sp 48 +
STACK CFI 316bc .ra: .cfa -4 + ^ r10: .cfa -8 + ^ r4: .cfa -32 + ^ r5: .cfa -28 + ^ r6: .cfa -24 + ^ r7: .cfa -20 + ^ r8: .cfa -16 + ^ r9: .cfa -12 + ^
STACK CFI INIT 31aac 234 .cfa: sp 0 + .ra: lr
STACK CFI 31ab4 .cfa: sp 16 +
STACK CFI 31abc .cfa: sp 24 +
STACK CFI 31ac0 .ra: .cfa -4 + ^ r4: .cfa -16 + ^ r5: .cfa -12 + ^ r6: .cfa -8 + ^
STACK CFI INIT 31ce0 8 .cfa: sp 0 + .ra: lr
STACK CFI INIT 31ce8 1d4 .cfa: sp 0 + .ra: lr
STACK CFI 31cf0 .cfa: sp 16 +
STACK CFI 31cf8 .ra: .cfa -4 + ^ r4: .cfa -16 + ^ r5: .cfa -12 + ^ r6: .cfa -8 + ^
STACK CFI INIT 31ebc 480 .cfa: sp 0 + .ra: lr
STACK CFI 31ec4 .cfa: sp 28 +
STACK CFI 31ecc .cfa: sp 40 +
STACK CFI 31ed0 .ra: .cfa -4 + ^ r10: .cfa -8 + ^ r4: .cfa -28 + ^ r5: .cfa -24 + ^ r6: .cfa -20 + ^ r7: .cfa -16 + ^ r8: .cfa -12 + ^
STACK CFI INIT 3233c 144 .cfa: sp 0 + .ra: lr
STACK CFI 32340 .cfa: sp 24 +
STACK CFI 32344 .ra: .cfa -4 + ^ r3: .cfa -24 + ^ r4: .cfa -20 + ^ r5: .cfa -16 + ^ r6: .cfa -12 + ^ r7: .cfa -8 + ^
STACK CFI INIT 32480 4a4 .cfa: sp 0 + .ra: lr
STACK CFI 32484 .cfa: sp 20 +
STACK CFI 32488 .ra: .cfa -4 + ^ r4: .cfa -20 + ^ r5: .cfa -16 + ^ r6: .cfa -12 + ^ r7: .cfa -8 + ^
STACK CFI 32490 .cfa: sp 32 +
STACK CFI INIT 32924 15c .cfa: sp 0 + .ra: lr
STACK CFI 32928 .cfa: sp 16 +
STACK CFI 3292c .ra: .cfa -4 + ^ r3: .cfa -16 + ^ r4: .cfa -12 + ^ r5: .cfa -8 + ^
STACK CFI INIT 32a80 598 .cfa: sp 0 + .ra: lr
STACK CFI 32a88 .cfa: sp 12 +
STACK CFI 32a90 .cfa: sp 24 +
STACK CFI 32a94 .ra: .cfa -4 + ^ r4: .cfa -12 + ^ r5: .cfa -8 + ^
STACK CFI INIT 33018 2fc .cfa: sp 0 + .ra: lr
STACK CFI 33024 .cfa: sp 16 +
STACK CFI 33030 .ra: .cfa -4 + ^ r4: .cfa -16 + ^ r5: .cfa -12 + ^ r6: .cfa -8 + ^
STACK CFI INIT 33314 898 .cfa: sp 0 + .ra: lr
STACK CFI 33318 .cfa: sp 36 +
STACK CFI 3331c .ra: .cfa -4 + ^ r10: .cfa -12 + ^ r11: .cfa -8 + ^ r4: .cfa -36 + ^ r5: .cfa -32 + ^ r6: .cfa -28 + ^ r7: .cfa -24 + ^ r8: .cfa -20 + ^ r9: .cfa -16 + ^
STACK CFI 33334 .cfa: sp 96 +
STACK CFI INIT 33bac 7bc .cfa: sp 0 + .ra: lr
STACK CFI 33bb0 .cfa: sp 36 +
STACK CFI 33bb4 .ra: .cfa -4 + ^ r10: .cfa -12 + ^ r11: .cfa -8 + ^ r4: .cfa -36 + ^ r5: .cfa -32 + ^ r6: .cfa -28 + ^ r7: .cfa -24 + ^ r8: .cfa -20 + ^ r9: .cfa -16 + ^
STACK CFI 33bc8 .cfa: sp 56 +
STACK CFI INIT 34368 398 .cfa: sp 0 + .ra: lr
STACK CFI 34370 .cfa: sp 16 +
STACK CFI 34378 .ra: .cfa -4 + ^ r4: .cfa -16 + ^ r5: .cfa -12 + ^ r6: .cfa -8 + ^
STACK CFI INIT 34700 180 .cfa: sp 0 + .ra: lr
STACK CFI 34708 .cfa: sp 16 +
STACK CFI 34714 .ra: .cfa -4 + ^ r4: .cfa -16 + ^ r5: .cfa -12 + ^ r6: .cfa -8 + ^
STACK CFI 34720 .cfa: sp 24 +
STACK CFI INIT 34880 978 .cfa: sp 0 + .ra: lr
STACK CFI 34884 .cfa: sp 36 +
STACK CFI 34888 .ra: .cfa -4 + ^ r10: .cfa -12 + ^ r11: .cfa -8 + ^ r4: .cfa -36 + ^ r5: .cfa -32 + ^ r6: .cfa -28 + ^ r7: .cfa -24 + ^ r8: .cfa -20 + ^ r9: .cfa -16 + ^
STACK CFI 34890 .cfa: sp 56 +
STACK CFI INIT 351f8 31c .cfa: sp 0 + .ra: lr
STACK CFI 351fc .cfa: sp 24 +
STACK CFI 35200 .ra: .cfa -4 + ^ r4: .cfa -24 + ^ r5: .cfa -20 + ^ r6: .cfa -16 + ^ r7: .cfa -12 + ^ r8: .cfa -8 + ^
STACK CFI 35218 .cfa: sp 40 +
STACK CFI INIT 35514 244 .cfa: sp 0 + .ra: lr
STACK CFI 3551c .cfa: sp 16 +
STACK CFI 35524 .ra: .cfa -4 + ^ r4: .cfa -16 + ^ r5: .cfa -12 + ^ r6: .cfa -8 + ^
STACK CFI INIT 35758 7f8 .cfa: sp 0 + .ra: lr
STACK CFI 35760 .cfa: sp 24 +
STACK CFI 3576c .ra: .cfa -4 + ^ r4: .cfa -24 + ^ r5: .cfa -20 + ^ r6: .cfa -16 + ^ r7: .cfa -12 + ^ r8: .cfa -8 + ^
STACK CFI 35790 .cfa: sp 32 +
STACK CFI INIT 35f50 1dc .cfa: sp 0 + .ra: lr
STACK CFI 35f58 .cfa: sp 8 +
STACK CFI 35f60 .ra: .cfa -4 + ^ r4: .cfa -8 + ^
STACK CFI INIT 3612c 108 .cfa: sp 0 + .ra: lr
STACK CFI 36134 .cfa: sp 16 +
STACK CFI 3613c .ra: .cfa -4 + ^ r4: .cfa -16 + ^ r5: .cfa -12 + ^ r6: .cfa -8 + ^
STACK CFI INIT 36234 308 .cfa: sp 0 + .ra: lr
STACK CFI 36238 .cfa: sp 16 +
STACK CFI 3623c .ra: .cfa -4 + ^ r4: .cfa -16 + ^ r5: .cfa -12 + ^ r6: .cfa -8 + ^
STACK CFI 36240 .cfa: sp 24 +
STACK CFI INIT 3653c 444 .cfa: sp 0 + .ra: lr
STACK CFI 36540 .cfa: sp 16 +
STACK CFI 36544 .ra: .cfa -4 + ^ r3: .cfa -16 + ^ r4: .cfa -12 + ^ r5: .cfa -8 + ^
STACK CFI INIT 36980 3c4 .cfa: sp 0 + .ra: lr
STACK CFI 36988 .cfa: sp 16 +
STACK CFI 36994 .ra: .cfa -4 + ^ r4: .cfa -16 + ^ r5: .cfa -12 + ^ r6: .cfa -8 + ^
STACK CFI INIT 36d44 ac .cfa: sp 0 + .ra: lr
STACK CFI 36d48 .cfa: sp 8 +
STACK CFI 36d4c .ra: .cfa -4 + ^ r4: .cfa -8 + ^
STACK CFI INIT 36df0 2c8 .cfa: sp 0 + .ra: lr
STACK CFI 36df4 .cfa: sp 36 +
STACK CFI 36e00 .ra: .cfa -4 + ^ r10: .cfa -12 + ^ r11: .cfa -8 + ^ r4: .cfa -36 + ^ r5: .cfa -32 + ^ r6: .cfa -28 + ^ r7: .cfa -24 + ^ r8: .cfa -20 + ^ r9: .cfa -16 + ^
STACK CFI 36e08 .cfa: sp 56 +
STACK CFI INIT 370b8 38 .cfa: sp 0 + .ra: lr
STACK CFI INIT 370f0 150 .cfa: sp 0 + .ra: lr
STACK CFI 370f4 .cfa: sp 32 +
STACK CFI 370f8 .ra: .cfa -4 + ^ r10: .cfa -8 + ^ r4: .cfa -32 + ^ r5: .cfa -28 + ^ r6: .cfa -24 + ^ r7: .cfa -20 + ^ r8: .cfa -16 + ^ r9: .cfa -12 + ^
STACK CFI 370fc .cfa: sp 40 +
STACK CFI INIT 37240 278 .cfa: sp 0 + .ra: lr
STACK CFI 37244 .cfa: sp 24 +
STACK CFI 37248 .ra: .cfa -4 + ^ r4: .cfa -24 + ^ r5: .cfa -20 + ^ r6: .cfa -16 + ^ r7: .cfa -12 + ^ r8: .cfa -8 + ^
STACK CFI 37254 .cfa: sp 32 +
STACK CFI INIT 374b8 28c .cfa: sp 0 + .ra: lr
STACK CFI 374bc .cfa: sp 40 +
STACK CFI 374c0 .ra: .cfa -4 + ^ r10: .cfa -12 + ^ r11: .cfa -8 + ^ r3: .cfa -40 + ^ r4: .cfa -36 + ^ r5: .cfa -32 + ^ r6: .cfa -28 + ^ r7: .cfa -24 + ^ r8: .cfa -20 + ^ r9: .cfa -16 + ^
STACK CFI INIT 37744 14 .cfa: sp 0 + .ra: lr
STACK CFI INIT 37758 8 .cfa: sp 0 + .ra: lr
STACK CFI INIT 37760 c8 .cfa: sp 0 + .ra: lr
STACK CFI 37764 .cfa: sp 16 +
STACK CFI 37768 .cfa: sp 24 +
STACK CFI 3776c .ra: .cfa -4 + ^ r4: .cfa -16 + ^ r5: .cfa -12 + ^ r6: .cfa -8 + ^
STACK CFI INIT 37828 8 .cfa: sp 0 + .ra: lr
STACK CFI INIT 37830 88 .cfa: sp 0 + .ra: lr
STACK CFI 3783c .cfa: sp 24 +
STACK CFI 37840 .ra: .cfa -4 + ^ r4: .cfa -24 + ^ r5: .cfa -20 + ^ r6: .cfa -16 + ^ r7: .cfa -12 + ^ r8: .cfa -8 + ^
STACK CFI INIT 378b8 c4 .cfa: sp 0 + .ra: lr
STACK CFI 378bc .cfa: sp 12 +
STACK CFI 378c0 .ra: .cfa -4 + ^ r4: .cfa -12 + ^ r5: .cfa -8 + ^
STACK CFI 378c4 .cfa: sp 24 +
STACK CFI INIT 3797c 484 .cfa: sp 0 + .ra: lr
STACK CFI 37980 .cfa: sp 36 +
STACK CFI 37984 .ra: .cfa -4 + ^ r10: .cfa -12 + ^ r11: .cfa -8 + ^ r4: .cfa -36 + ^ r5: .cfa -32 + ^ r6: .cfa -28 + ^ r7: .cfa -24 + ^ r8: .cfa -20 + ^ r9: .cfa -16 + ^
STACK CFI 3798c .cfa: sp 48 +
STACK CFI INIT 37e00 808 .cfa: sp 0 + .ra: lr
STACK CFI 37e08 .cfa: sp 36 +
STACK CFI 37e10 .cfa: sp 72 +
STACK CFI 37e14 .ra: .cfa -4 + ^ r10: .cfa -12 + ^ r11: .cfa -8 + ^ r4: .cfa -36 + ^ r5: .cfa -32 + ^ r6: .cfa -28 + ^ r7: .cfa -24 + ^ r8: .cfa -20 + ^ r9: .cfa -16 + ^
STACK CFI INIT 38608 1a18 .cfa: sp 0 + .ra: lr
STACK CFI 3860c .cfa: sp 36 +
STACK CFI 38614 .ra: .cfa -4 + ^ r10: .cfa -12 + ^ r11: .cfa -8 + ^ r4: .cfa -36 + ^ r5: .cfa -32 + ^ r6: .cfa -28 + ^ r7: .cfa -24 + ^ r8: .cfa -20 + ^ r9: .cfa -16 + ^
STACK CFI 38618 .cfa: sp 256 +
STACK CFI INIT 3a020 468 .cfa: sp 0 + .ra: lr
STACK CFI 3a024 .cfa: sp 36 +
STACK CFI 3a028 .ra: .cfa -4 + ^ r10: .cfa -12 + ^ r11: .cfa -8 + ^ r4: .cfa -36 + ^ r5: .cfa -32 + ^ r6: .cfa -28 + ^ r7: .cfa -24 + ^ r8: .cfa -20 + ^ r9: .cfa -16 + ^
STACK CFI 3a02c .cfa: sp 56 +
STACK CFI INIT 3a488 264 .cfa: sp 0 + .ra: lr
STACK CFI 3a490 .cfa: sp 24 +
STACK CFI 3a498 .ra: .cfa -4 + ^ r4: .cfa -24 + ^ r5: .cfa -20 + ^ r6: .cfa -16 + ^ r7: .cfa -12 + ^ r8: .cfa -8 + ^
STACK CFI INIT 3a6ec 490 .cfa: sp 0 + .ra: lr
STACK CFI 3a6f0 .cfa: sp 36 +
STACK CFI 3a6f4 .cfa: sp 56 +
STACK CFI 3a6f8 .ra: .cfa -4 + ^ r10: .cfa -12 + ^ r11: .cfa -8 + ^ r4: .cfa -36 + ^ r5: .cfa -32 + ^ r6: .cfa -28 + ^ r7: .cfa -24 + ^ r8: .cfa -20 + ^ r9: .cfa -16 + ^
STACK CFI INIT 3ab7c 44 .cfa: sp 0 + .ra: lr
STACK CFI 3ab80 .cfa: sp 4 +
STACK CFI 3ab88 .cfa: sp 24 +
STACK CFI 3ab8c .ra: .cfa -4 + ^
STACK CFI INIT 3abc0 4cc .cfa: sp 0 + .ra: lr
STACK CFI 3abc4 .cfa: sp 28 +
STACK CFI 3abc8 .ra: .cfa -4 + ^ r10: .cfa -8 + ^ r4: .cfa -28 + ^ r5: .cfa -24 + ^ r6: .cfa -20 + ^ r7: .cfa -16 + ^ r8: .cfa -12 + ^
STACK CFI 3abcc .cfa: sp 40 +
STACK CFI INIT 3b08c 2ac .cfa: sp 0 + .ra: lr
STACK CFI 3b090 .cfa: sp 16 +
STACK CFI 3b094 .ra: .cfa -4 + ^ r4: .cfa -16 + ^ r5: .cfa -12 + ^ r6: .cfa -8 + ^
STACK CFI 3b098 .cfa: sp 24 +
STACK CFI INIT 3b338 a4 .cfa: sp 0 + .ra: lr
STACK CFI 3b33c .cfa: sp 24 +
STACK CFI 3b340 .ra: .cfa -4 + ^ r3: .cfa -24 + ^ r4: .cfa -20 + ^ r5: .cfa -16 + ^ r6: .cfa -12 + ^ r7: .cfa -8 + ^
STACK CFI INIT 3b3dc c .cfa: sp 0 + .ra: lr
STACK CFI INIT 3b3e8 464 .cfa: sp 0 + .ra: lr
STACK CFI 3b3f0 .cfa: sp 28 +
STACK CFI 3b3f4 .ra: .cfa -4 + ^ r10: .cfa -8 + ^ r4: .cfa -28 + ^ r5: .cfa -24 + ^ r6: .cfa -20 + ^ r7: .cfa -16 + ^ r8: .cfa -12 + ^
STACK CFI 3b3fc .cfa: sp 72 +
STACK CFI INIT 3b84c 388 .cfa: sp 0 + .ra: lr
STACK CFI 3b850 .cfa: sp 36 +
STACK CFI 3b858 .cfa: sp 48 +
STACK CFI 3b85c .ra: .cfa -4 + ^ r10: .cfa -12 + ^ r11: .cfa -8 + ^ r4: .cfa -36 + ^ r5: .cfa -32 + ^ r6: .cfa -28 + ^ r7: .cfa -24 + ^ r8: .cfa -20 + ^ r9: .cfa -16 + ^
STACK CFI INIT 3bbd4 2c .cfa: sp 0 + .ra: lr
STACK CFI 3bbd8 .cfa: sp 4 +
STACK CFI 3bbdc .cfa: sp 24 +
STACK CFI 3bbe8 .ra: .cfa -4 + ^
STACK CFI INIT 3bc00 44c .cfa: sp 0 + .ra: lr
STACK CFI 3bc04 .cfa: sp 36 +
STACK CFI 3bc08 .cfa: sp 48 +
STACK CFI 3bc0c .ra: .cfa -4 + ^ r10: .cfa -12 + ^ r11: .cfa -8 + ^ r4: .cfa -36 + ^ r5: .cfa -32 + ^ r6: .cfa -28 + ^ r7: .cfa -24 + ^ r8: .cfa -20 + ^ r9: .cfa -16 + ^
STACK CFI INIT 3c04c 20 .cfa: sp 0 + .ra: lr
STACK CFI 3c050 .cfa: sp 8 +
STACK CFI 3c054 .ra: .cfa -4 + ^ r4: .cfa -8 + ^
STACK CFI INIT 3c06c 14 .cfa: sp 0 + .ra: lr
STACK CFI INIT 3c080 b8 .cfa: sp 0 + .ra: lr
STACK CFI 3c084 .cfa: sp 16 +
STACK CFI 3c088 .ra: .cfa -4 + ^ r4: .cfa -16 + ^ r5: .cfa -12 + ^ r6: .cfa -8 + ^
STACK CFI INIT 3c138 510 .cfa: sp 0 + .ra: lr
STACK CFI 3c13c .cfa: sp 16 +
STACK CFI 3c140 .ra: .cfa -4 + ^ r4: .cfa -16 + ^ r5: .cfa -12 + ^ r6: .cfa -8 + ^
STACK CFI 3c144 .cfa: sp 24 +
STACK CFI INIT 3c648 cc .cfa: sp 0 + .ra: lr
STACK CFI 3c64c .cfa: sp 16 +
STACK CFI 3c650 .ra: .cfa -4 + ^ r4: .cfa -16 + ^ r5: .cfa -12 + ^ r6: .cfa -8 + ^
STACK CFI INIT 3c714 9c .cfa: sp 0 + .ra: lr
STACK CFI 3c71c .cfa: sp 24 +
STACK CFI 3c720 .ra: .cfa -4 + ^ r4: .cfa -24 + ^ r5: .cfa -20 + ^ r6: .cfa -16 + ^ r7: .cfa -12 + ^ r8: .cfa -8 + ^
STACK CFI INIT 3c7b0 10 .cfa: sp 0 + .ra: lr
STACK CFI INIT 3c7c0 10 .cfa: sp 0 + .ra: lr
STACK CFI INIT 3c7d0 c4 .cfa: sp 0 + .ra: lr
STACK CFI 3c7d4 .cfa: sp 24 +
STACK CFI 3c7d8 .ra: .cfa -4 + ^ r4: .cfa -24 + ^ r5: .cfa -20 + ^ r6: .cfa -16 + ^ r7: .cfa -12 + ^ r8: .cfa -8 + ^
STACK CFI INIT 3c894 d4 .cfa: sp 0 + .ra: lr
STACK CFI 3c898 .cfa: sp 24 +
STACK CFI 3c89c .ra: .cfa -4 + ^ r4: .cfa -24 + ^ r5: .cfa -20 + ^ r6: .cfa -16 + ^ r7: .cfa -12 + ^ r8: .cfa -8 + ^
STACK CFI INIT 3c968 c8 .cfa: sp 0 + .ra: lr
STACK CFI 3c96c .cfa: sp 32 +
STACK CFI 3c970 .ra: .cfa -4 + ^ r10: .cfa -8 + ^ r3: .cfa -32 + ^ r4: .cfa -28 + ^ r5: .cfa -24 + ^ r6: .cfa -20 + ^ r7: .cfa -16 + ^ r8: .cfa -12 + ^
STACK CFI INIT 3ca30 1c .cfa: sp 0 + .ra: lr
STACK CFI 3ca34 .cfa: sp 4 +
STACK CFI 3ca3c .cfa: sp 16 +
STACK CFI 3ca40 .ra: .cfa -4 + ^
STACK CFI INIT 3ca4c 18 .cfa: sp 0 + .ra: lr
STACK CFI INIT 3ca64 18 .cfa: sp 0 + .ra: lr
STACK CFI INIT 3ca7c fc .cfa: sp 0 + .ra: lr
STACK CFI 3ca80 .cfa: sp 32 +
STACK CFI 3ca84 .ra: .cfa -4 + ^ r10: .cfa -8 + ^ r3: .cfa -32 + ^ r4: .cfa -28 + ^ r5: .cfa -24 + ^ r6: .cfa -20 + ^ r7: .cfa -16 + ^ r8: .cfa -12 + ^
STACK CFI INIT 3cb78 8 .cfa: sp 0 + .ra: lr
STACK CFI INIT 3cb80 10 .cfa: sp 0 + .ra: lr
STACK CFI INIT 3cb90 10 .cfa: sp 0 + .ra: lr
STACK CFI INIT 3cba0 54 .cfa: sp 0 + .ra: lr
STACK CFI 3cba4 .cfa: sp 8 +
STACK CFI 3cba8 .ra: .cfa -4 + ^ r4: .cfa -8 + ^
STACK CFI INIT 3cbf4 2b4 .cfa: sp 0 + .ra: lr
STACK CFI 3cbf8 .cfa: sp 16 +
STACK CFI 3cbfc .ra: .cfa -4 + ^ r4: .cfa -16 + ^ r5: .cfa -12 + ^ r6: .cfa -8 + ^
STACK CFI INIT 3cea8 280 .cfa: sp 0 + .ra: lr
STACK CFI 3ceac .cfa: sp 36 +
STACK CFI 3ceb0 .ra: .cfa -4 + ^ r10: .cfa -12 + ^ r11: .cfa -8 + ^ r4: .cfa -36 + ^ r5: .cfa -32 + ^ r6: .cfa -28 + ^ r7: .cfa -24 + ^ r8: .cfa -20 + ^ r9: .cfa -16 + ^
STACK CFI 3ceb4 .cfa: sp 48 +
STACK CFI INIT 3d128 8 .cfa: sp 0 + .ra: lr
STACK CFI INIT 3d130 50 .cfa: sp 0 + .ra: lr
STACK CFI 3d138 .cfa: sp 4 +
STACK CFI 3d13c .cfa: sp 32 +
STACK CFI 3d140 .ra: .cfa -4 + ^
STACK CFI INIT 3d180 44 .cfa: sp 0 + .ra: lr
STACK CFI 3d184 .cfa: sp 12 +
STACK CFI 3d188 .ra: .cfa -4 + ^ r4: .cfa -12 + ^ r5: .cfa -8 + ^
STACK CFI 3d18c .cfa: sp 24 +
STACK CFI INIT 3d1c4 38 .cfa: sp 0 + .ra: lr
STACK CFI 3d1c8 .cfa: sp 16 +
STACK CFI 3d1cc .ra: .cfa -4 + ^ r4: .cfa -16 + ^ r5: .cfa -12 + ^ r6: .cfa -8 + ^
STACK CFI INIT 3d1fc b8 .cfa: sp 0 + .ra: lr
STACK CFI 3d204 .cfa: sp 28 +
STACK CFI 3d20c .cfa: sp 48 +
STACK CFI 3d210 .ra: .cfa -4 + ^ r10: .cfa -8 + ^ r4: .cfa -28 + ^ r5: .cfa -24 + ^ r6: .cfa -20 + ^ r7: .cfa -16 + ^ r8: .cfa -12 + ^
STACK CFI INIT 3d2b4 bc .cfa: sp 0 + .ra: lr
STACK CFI 3d2b8 .cfa: sp 24 +
STACK CFI 3d2c0 .cfa: sp 32 +
STACK CFI 3d2c4 .ra: .cfa -4 + ^ r4: .cfa -24 + ^ r5: .cfa -20 + ^ r6: .cfa -16 + ^ r7: .cfa -12 + ^ r8: .cfa -8 + ^
STACK CFI INIT 3d370 8c .cfa: sp 0 + .ra: lr
STACK CFI 3d374 .cfa: sp 16 +
STACK CFI 3d378 .ra: .cfa -4 + ^ r4: .cfa -16 + ^ r5: .cfa -12 + ^ r6: .cfa -8 + ^
STACK CFI 3d37c .cfa: sp 24 +
STACK CFI INIT 3d3fc 7c .cfa: sp 0 + .ra: lr
STACK CFI 3d400 .cfa: sp 16 +
STACK CFI 3d404 .ra: .cfa -4 + ^ r4: .cfa -16 + ^ r5: .cfa -12 + ^ r6: .cfa -8 + ^
STACK CFI 3d40c .cfa: sp 32 +
STACK CFI INIT 3d478 cc .cfa: sp 0 + .ra: lr
STACK CFI 3d47c .cfa: sp 20 +
STACK CFI 3d480 .ra: .cfa -4 + ^ r4: .cfa -20 + ^ r5: .cfa -16 + ^ r6: .cfa -12 + ^ r7: .cfa -8 + ^
STACK CFI 3d484 .cfa: sp 40 +
STACK CFI INIT 3d544 c4 .cfa: sp 0 + .ra: lr
STACK CFI 3d548 .cfa: sp 20 +
STACK CFI 3d54c .ra: .cfa -4 + ^ r4: .cfa -20 + ^ r5: .cfa -16 + ^ r6: .cfa -12 + ^ r7: .cfa -8 + ^
STACK CFI 3d550 .cfa: sp 32 +
STACK CFI INIT 3d608 c4 .cfa: sp 0 + .ra: lr
STACK CFI 3d60c .cfa: sp 24 +
STACK CFI 3d610 .ra: .cfa -4 + ^ r4: .cfa -24 + ^ r5: .cfa -20 + ^ r6: .cfa -16 + ^ r7: .cfa -12 + ^ r8: .cfa -8 + ^
STACK CFI 3d614 .cfa: sp 32 +
STACK CFI INIT 3d6cc 88 .cfa: sp 0 + .ra: lr
STACK CFI 3d6d4 .cfa: sp 16 +
STACK CFI 3d6d8 .ra: .cfa -4 + ^ r4: .cfa -16 + ^ r5: .cfa -12 + ^ r6: .cfa -8 + ^
STACK CFI INIT 3d754 28 .cfa: sp 0 + .ra: lr
STACK CFI 3d758 .cfa: sp 4 +
STACK CFI 3d75c .cfa: sp 16 +
STACK CFI 3d770 .ra: .cfa -4 + ^
STACK CFI INIT 3d77c 188 .cfa: sp 0 + .ra: lr
STACK CFI 3d780 .cfa: sp 16 +
STACK CFI 3d784 .ra: .cfa -4 + ^ r4: .cfa -16 + ^ r5: .cfa -12 + ^ r6: .cfa -8 + ^
STACK CFI 3d78c .cfa: sp 32 +
STACK CFI INIT 3d904 114 .cfa: sp 0 + .ra: lr
STACK CFI 3d908 .cfa: sp 28 +
STACK CFI 3d90c .ra: .cfa -4 + ^ r10: .cfa -8 + ^ r4: .cfa -28 + ^ r5: .cfa -24 + ^ r6: .cfa -20 + ^ r7: .cfa -16 + ^ r8: .cfa -12 + ^
STACK CFI 3d910 .cfa: sp 40 +
STACK CFI INIT 3da18 bc .cfa: sp 0 + .ra: lr
STACK CFI 3da1c .cfa: sp 16 +
STACK CFI 3da20 .ra: .cfa -4 + ^ r3: .cfa -16 + ^ r4: .cfa -12 + ^ r5: .cfa -8 + ^
STACK CFI INIT 3dad4 124 .cfa: sp 0 + .ra: lr
STACK CFI 3dad8 .cfa: sp 20 +
STACK CFI 3dadc .ra: .cfa -4 + ^ r4: .cfa -20 + ^ r5: .cfa -16 + ^ r6: .cfa -12 + ^ r7: .cfa -8 + ^
STACK CFI 3daec .cfa: sp 32 +
STACK CFI INIT 3dbf8 a0 .cfa: sp 0 + .ra: lr
STACK CFI 3dbfc .cfa: sp 8 +
STACK CFI 3dc00 .ra: .cfa -4 + ^ r4: .cfa -8 + ^
STACK CFI 3dc0c .cfa: sp 16 +
STACK CFI INIT 3dc98 ec .cfa: sp 0 + .ra: lr
STACK CFI 3dca4 .cfa: sp 32 +
STACK CFI 3dca8 .ra: .cfa -4 + ^ r10: .cfa -8 + ^ r3: .cfa -32 + ^ r4: .cfa -28 + ^ r5: .cfa -24 + ^ r6: .cfa -20 + ^ r7: .cfa -16 + ^ r8: .cfa -12 + ^
STACK CFI INIT 3dd84 e0 .cfa: sp 0 + .ra: lr
STACK CFI 3dd88 .cfa: sp 40 +
STACK CFI 3dd8c .ra: .cfa -4 + ^ r10: .cfa -12 + ^ r11: .cfa -8 + ^ r3: .cfa -40 + ^ r4: .cfa -36 + ^ r5: .cfa -32 + ^ r6: .cfa -28 + ^ r7: .cfa -24 + ^ r8: .cfa -20 + ^ r9: .cfa -16 + ^
STACK CFI INIT 3de64 fc .cfa: sp 0 + .ra: lr
STACK CFI 3de68 .cfa: sp 24 +
STACK CFI 3de6c .ra: .cfa -4 + ^ r3: .cfa -24 + ^ r4: .cfa -20 + ^ r5: .cfa -16 + ^ r6: .cfa -12 + ^ r7: .cfa -8 + ^
STACK CFI INIT 3df60 7c .cfa: sp 0 + .ra: lr
STACK CFI 3df68 .cfa: sp 4 +
STACK CFI 3df6c r4: .cfa -4 + ^
STACK CFI INIT 3dfdc 3dc .cfa: sp 0 + .ra: lr
STACK CFI 3dfe0 .cfa: sp 28 +
STACK CFI 3dfe4 .ra: .cfa -4 + ^ r10: .cfa -8 + ^ r4: .cfa -28 + ^ r5: .cfa -24 + ^ r6: .cfa -20 + ^ r7: .cfa -16 + ^ r8: .cfa -12 + ^
STACK CFI 3dff0 .cfa: sp 40 +
STACK CFI INIT 3e3b8 674 .cfa: sp 0 + .ra: lr
STACK CFI 3e3bc .cfa: sp 32 +
STACK CFI 3e3c0 .ra: .cfa -4 + ^ r10: .cfa -8 + ^ r4: .cfa -32 + ^ r5: .cfa -28 + ^ r6: .cfa -24 + ^ r7: .cfa -20 + ^ r8: .cfa -16 + ^ r9: .cfa -12 + ^
STACK CFI 3e3cc .cfa: sp 40 +
STACK CFI INIT 3ea2c 3e4 .cfa: sp 0 + .ra: lr
STACK CFI 3ea30 .cfa: sp 28 +
STACK CFI 3ea34 .ra: .cfa -4 + ^ r10: .cfa -8 + ^ r4: .cfa -28 + ^ r5: .cfa -24 + ^ r6: .cfa -20 + ^ r7: .cfa -16 + ^ r8: .cfa -12 + ^
STACK CFI 3ea40 .cfa: sp 40 +
STACK CFI INIT 3ee10 48c .cfa: sp 0 + .ra: lr
STACK CFI 3ee14 .cfa: sp 28 +
STACK CFI 3ee18 .ra: .cfa -4 + ^ r10: .cfa -8 + ^ r4: .cfa -28 + ^ r5: .cfa -24 + ^ r6: .cfa -20 + ^ r7: .cfa -16 + ^ r8: .cfa -12 + ^
STACK CFI 3ee24 .cfa: sp 40 +
STACK CFI INIT 3f29c 1c .cfa: sp 0 + .ra: lr
STACK CFI 3f2a4 .cfa: sp 8 +
STACK CFI 3f2a8 .ra: .cfa -4 + ^ r4: .cfa -8 + ^
STACK CFI INIT 3f2b8 10 .cfa: sp 0 + .ra: lr
STACK CFI 3f2bc .cfa: sp 8 + .ra: .cfa -4 + ^ r3: .cfa -8 + ^
STACK CFI INIT 3f2c8 c .cfa: sp 0 + .ra: lr
STACK CFI INIT 3f2d4 68 .cfa: sp 0 + .ra: lr
STACK CFI 3f2d8 .cfa: sp 16 +
STACK CFI 3f2dc .ra: .cfa -4 + ^ r3: .cfa -16 + ^ r4: .cfa -12 + ^ r5: .cfa -8 + ^
STACK CFI INIT 3f33c 1a0 .cfa: sp 0 + .ra: lr
STACK CFI 3f340 .cfa: sp 24 +
STACK CFI 3f344 .ra: .cfa -4 + ^ r3: .cfa -24 + ^ r4: .cfa -20 + ^ r5: .cfa -16 + ^ r6: .cfa -12 + ^ r7: .cfa -8 + ^
STACK CFI INIT 3f4dc 9c .cfa: sp 0 + .ra: lr
STACK CFI 3f4e4 .cfa: sp 16 +
STACK CFI 3f4ec .ra: .cfa -4 + ^ r4: .cfa -16 + ^ r5: .cfa -12 + ^ r6: .cfa -8 + ^
STACK CFI INIT 3f578 208 .cfa: sp 0 + .ra: lr
STACK CFI 3f57c .cfa: sp 36 +
STACK CFI 3f580 .cfa: sp 120 +
STACK CFI 3f584 .ra: .cfa -4 + ^ r10: .cfa -12 + ^ r11: .cfa -8 + ^ r4: .cfa -36 + ^ r5: .cfa -32 + ^ r6: .cfa -28 + ^ r7: .cfa -24 + ^ r8: .cfa -20 + ^ r9: .cfa -16 + ^
STACK CFI INIT 3f780 278 .cfa: sp 0 + .ra: lr
STACK CFI 3f784 .cfa: sp 36 +
STACK CFI 3f790 .cfa: sp 48 +
STACK CFI 3f794 .ra: .cfa -4 + ^ r10: .cfa -12 + ^ r11: .cfa -8 + ^ r4: .cfa -36 + ^ r5: .cfa -32 + ^ r6: .cfa -28 + ^ r7: .cfa -24 + ^ r8: .cfa -20 + ^ r9: .cfa -16 + ^
STACK CFI INIT 3f9f8 24 .cfa: sp 0 + .ra: lr
STACK CFI 3fa00 .cfa: sp 8 +
STACK CFI 3fa04 .ra: .cfa -4 + ^ r4: .cfa -8 + ^
STACK CFI INIT 3fa1c 10c .cfa: sp 0 + .ra: lr
STACK CFI 3fa20 .cfa: sp 32 +
STACK CFI 3fa24 .ra: .cfa -4 + ^ r10: .cfa -8 + ^ r3: .cfa -32 + ^ r4: .cfa -28 + ^ r5: .cfa -24 + ^ r6: .cfa -20 + ^ r7: .cfa -16 + ^ r8: .cfa -12 + ^
STACK CFI INIT 3fb28 40 .cfa: sp 0 + .ra: lr
STACK CFI INIT 3fb68 2c8 .cfa: sp 0 + .ra: lr
STACK CFI 3fb6c .cfa: sp 32 +
STACK CFI 3fb70 .ra: .cfa -4 + ^ r10: .cfa -8 + ^ r3: .cfa -32 + ^ r4: .cfa -28 + ^ r5: .cfa -24 + ^ r6: .cfa -20 + ^ r7: .cfa -16 + ^ r8: .cfa -12 + ^
STACK CFI INIT 3fe30 128 .cfa: sp 0 + .ra: lr
STACK CFI 3fe34 .cfa: sp 16 +
STACK CFI 3fe38 .ra: .cfa -4 + ^ r4: .cfa -16 + ^ r5: .cfa -12 + ^ r6: .cfa -8 + ^
STACK CFI INIT 3ff58 140 .cfa: sp 0 + .ra: lr
STACK CFI 3ff5c .cfa: sp 36 +
STACK CFI 3ff60 .ra: .cfa -4 + ^ r10: .cfa -12 + ^ r11: .cfa -8 + ^ r4: .cfa -36 + ^ r5: .cfa -32 + ^ r6: .cfa -28 + ^ r7: .cfa -24 + ^ r8: .cfa -20 + ^ r9: .cfa -16 + ^
STACK CFI 3ff6c .cfa: sp 48 +
STACK CFI INIT 40098 90 .cfa: sp 0 + .ra: lr
STACK CFI 400a0 .cfa: sp 8 +
STACK CFI 400a4 .ra: .cfa -4 + ^ r4: .cfa -8 + ^
STACK CFI INIT 40128 140 .cfa: sp 0 + .ra: lr
STACK CFI 4012c .cfa: sp 36 +
STACK CFI 40130 .ra: .cfa -4 + ^ r10: .cfa -12 + ^ r11: .cfa -8 + ^ r4: .cfa -36 + ^ r5: .cfa -32 + ^ r6: .cfa -28 + ^ r7: .cfa -24 + ^ r8: .cfa -20 + ^ r9: .cfa -16 + ^
STACK CFI 4013c .cfa: sp 48 +
STACK CFI INIT 40268 100 .cfa: sp 0 + .ra: lr
STACK CFI 4026c .cfa: sp 24 +
STACK CFI 40270 .ra: .cfa -4 + ^ r4: .cfa -24 + ^ r5: .cfa -20 + ^ r6: .cfa -16 + ^ r7: .cfa -12 + ^ r8: .cfa -8 + ^
STACK CFI INIT 40368 14 .cfa: sp 0 + .ra: lr
STACK CFI INIT 4037c c0 .cfa: sp 0 + .ra: lr
STACK CFI 40380 .cfa: sp 24 +
STACK CFI 40384 .ra: .cfa -4 + ^ r3: .cfa -24 + ^ r4: .cfa -20 + ^ r5: .cfa -16 + ^ r6: .cfa -12 + ^ r7: .cfa -8 + ^
STACK CFI INIT 4043c b4 .cfa: sp 0 + .ra: lr
STACK CFI 40440 .cfa: sp 24 +
STACK CFI 40444 .ra: .cfa -4 + ^ r3: .cfa -24 + ^ r4: .cfa -20 + ^ r5: .cfa -16 + ^ r6: .cfa -12 + ^ r7: .cfa -8 + ^
STACK CFI INIT 404f0 a8 .cfa: sp 0 + .ra: lr
STACK CFI 404f4 .cfa: sp 16 +
STACK CFI 404f8 .ra: .cfa -4 + ^ r4: .cfa -16 + ^ r5: .cfa -12 + ^ r6: .cfa -8 + ^
STACK CFI INIT 40598 c8 .cfa: sp 0 + .ra: lr
STACK CFI 4059c .cfa: sp 16 +
STACK CFI 405a0 .ra: .cfa -4 + ^ r4: .cfa -16 + ^ r5: .cfa -12 + ^ r6: .cfa -8 + ^
STACK CFI INIT 40660 fc .cfa: sp 0 + .ra: lr
STACK CFI 40664 .cfa: sp 24 +
STACK CFI 40668 .ra: .cfa -4 + ^ r3: .cfa -24 + ^ r4: .cfa -20 + ^ r5: .cfa -16 + ^ r6: .cfa -12 + ^ r7: .cfa -8 + ^
STACK CFI INIT 4075c 120 .cfa: sp 0 + .ra: lr
STACK CFI 40760 .cfa: sp 24 +
STACK CFI 40764 .ra: .cfa -4 + ^ r3: .cfa -24 + ^ r4: .cfa -20 + ^ r5: .cfa -16 + ^ r6: .cfa -12 + ^ r7: .cfa -8 + ^
STACK CFI INIT 4087c 1c .cfa: sp 0 + .ra: lr
STACK CFI 40880 .cfa: sp 8 +
STACK CFI 40884 .ra: .cfa -4 + ^ r4: .cfa -8 + ^
STACK CFI INIT 40898 300 .cfa: sp 0 + .ra: lr
STACK CFI 4089c .cfa: sp 40 +
STACK CFI 408a0 .ra: .cfa -4 + ^ r10: .cfa -12 + ^ r11: .cfa -8 + ^ r3: .cfa -40 + ^ r4: .cfa -36 + ^ r5: .cfa -32 + ^ r6: .cfa -28 + ^ r7: .cfa -24 + ^ r8: .cfa -20 + ^ r9: .cfa -16 + ^
STACK CFI INIT 40b98 28 .cfa: sp 0 + .ra: lr
STACK CFI 40ba0 .cfa: sp 4 +
STACK CFI 40ba8 .cfa: sp 16 +
STACK CFI 40bac .ra: .cfa -4 + ^
STACK CFI INIT 40bc0 28 .cfa: sp 0 + .ra: lr
STACK CFI 40bc8 .cfa: sp 4 +
STACK CFI 40bd0 .cfa: sp 16 +
STACK CFI 40bd4 .ra: .cfa -4 + ^
STACK CFI INIT 40be8 34 .cfa: sp 0 + .ra: lr
STACK CFI 40bec .cfa: sp 8 +
STACK CFI 40bf0 .ra: .cfa -4 + ^ r4: .cfa -8 + ^
STACK CFI 40bf4 .cfa: sp 16 +
STACK CFI INIT 40c1c d0 .cfa: sp 0 + .ra: lr
STACK CFI 40c20 .cfa: sp 24 +
STACK CFI 40c24 .ra: .cfa -4 + ^ r3: .cfa -24 + ^ r4: .cfa -20 + ^ r5: .cfa -16 + ^ r6: .cfa -12 + ^ r7: .cfa -8 + ^
STACK CFI INIT 40cec 20 .cfa: sp 0 + .ra: lr
STACK CFI 40cf0 .cfa: sp 8 +
STACK CFI 40cf4 .ra: .cfa -4 + ^ r4: .cfa -8 + ^
STACK CFI INIT 40d0c c8 .cfa: sp 0 + .ra: lr
STACK CFI 40d10 .cfa: sp 16 +
STACK CFI 40d14 .ra: .cfa -4 + ^ r4: .cfa -16 + ^ r5: .cfa -12 + ^ r6: .cfa -8 + ^
STACK CFI INIT 40dd4 c8 .cfa: sp 0 + .ra: lr
STACK CFI 40dd8 .cfa: sp 24 +
STACK CFI 40ddc .ra: .cfa -4 + ^ r4: .cfa -24 + ^ r5: .cfa -20 + ^ r6: .cfa -16 + ^ r7: .cfa -12 + ^ r8: .cfa -8 + ^
STACK CFI INIT 40e9c 1c .cfa: sp 0 + .ra: lr
STACK CFI 40ea0 .cfa: sp 8 +
STACK CFI 40ea4 .ra: .cfa -4 + ^ r4: .cfa -8 + ^
STACK CFI INIT 40eb8 38 .cfa: sp 0 + .ra: lr
STACK CFI 40ebc .cfa: sp 16 +
STACK CFI 40ec0 .ra: .cfa -4 + ^ r3: .cfa -16 + ^ r4: .cfa -12 + ^ r5: .cfa -8 + ^
STACK CFI INIT 40ef0 70 .cfa: sp 0 + .ra: lr
STACK CFI 40ef4 .cfa: sp 16 +
STACK CFI 40ef8 .ra: .cfa -4 + ^ r4: .cfa -16 + ^ r5: .cfa -12 + ^ r6: .cfa -8 + ^
STACK CFI INIT 40f60 c .cfa: sp 0 + .ra: lr
STACK CFI INIT 40f6c 6c .cfa: sp 0 + .ra: lr
STACK CFI INIT 40fd8 70 .cfa: sp 0 + .ra: lr
STACK CFI INIT 41048 70 .cfa: sp 0 + .ra: lr
STACK CFI INIT 410b8 70 .cfa: sp 0 + .ra: lr
STACK CFI INIT 41128 70 .cfa: sp 0 + .ra: lr
STACK CFI INIT 41198 1ac .cfa: sp 0 + .ra: lr
STACK CFI 4119c .cfa: sp 16 +
STACK CFI 411a0 .ra: .cfa -4 + ^ r3: .cfa -16 + ^ r4: .cfa -12 + ^ r5: .cfa -8 + ^
STACK CFI INIT 41344 20c .cfa: sp 0 + .ra: lr
STACK CFI 41348 .cfa: sp 32 +
STACK CFI 4134c .ra: .cfa -4 + ^ r10: .cfa -8 + ^ r4: .cfa -32 + ^ r5: .cfa -28 + ^ r6: .cfa -24 + ^ r7: .cfa -20 + ^ r8: .cfa -16 + ^ r9: .cfa -12 + ^
STACK CFI INIT 41550 21c .cfa: sp 0 + .ra: lr
STACK CFI 41554 .cfa: sp 24 +
STACK CFI 41558 .ra: .cfa -4 + ^ r4: .cfa -24 + ^ r5: .cfa -20 + ^ r6: .cfa -16 + ^ r7: .cfa -12 + ^ r8: .cfa -8 + ^
STACK CFI INIT 4176c 100 .cfa: sp 0 + .ra: lr
STACK CFI 41770 .cfa: sp 16 +
STACK CFI 41774 .ra: .cfa -4 + ^ r4: .cfa -16 + ^ r5: .cfa -12 + ^ r6: .cfa -8 + ^
STACK CFI INIT 4186c a4 .cfa: sp 0 + .ra: lr
STACK CFI 41870 .cfa: sp 8 +
STACK CFI 41874 .ra: .cfa -4 + ^ r3: .cfa -8 + ^
STACK CFI INIT 41910 24 .cfa: sp 0 + .ra: lr
STACK CFI 41918 .cfa: sp 8 +
STACK CFI 4191c .ra: .cfa -4 + ^ r4: .cfa -8 + ^
STACK CFI INIT 41934 270 .cfa: sp 0 + .ra: lr
STACK CFI 41938 .cfa: sp 16 +
STACK CFI 4193c .ra: .cfa -4 + ^ r4: .cfa -16 + ^ r5: .cfa -12 + ^ r6: .cfa -8 + ^
STACK CFI INIT 41ba4 1c0 .cfa: sp 0 + .ra: lr
STACK CFI 41ba8 .cfa: sp 24 +
STACK CFI 41bac .ra: .cfa -4 + ^ r4: .cfa -24 + ^ r5: .cfa -20 + ^ r6: .cfa -16 + ^ r7: .cfa -12 + ^ r8: .cfa -8 + ^
STACK CFI INIT 41d64 fc .cfa: sp 0 + .ra: lr
STACK CFI 41d6c .cfa: sp 16 +
STACK CFI 41d70 .ra: .cfa -4 + ^ r3: .cfa -16 + ^ r4: .cfa -12 + ^ r5: .cfa -8 + ^
STACK CFI INIT 41e60 30 .cfa: sp 0 + .ra: lr
STACK CFI INIT 41e90 48 .cfa: sp 0 + .ra: lr
STACK CFI 41e94 .cfa: sp 16 +
STACK CFI 41e98 .ra: .cfa -4 + ^ r4: .cfa -16 + ^ r5: .cfa -12 + ^ r6: .cfa -8 + ^
STACK CFI INIT 41ed8 8c .cfa: sp 0 + .ra: lr
STACK CFI INIT 41f64 838 .cfa: sp 0 + .ra: lr
STACK CFI 41f68 .cfa: sp 36 +
STACK CFI 41f6c .ra: .cfa -4 + ^ r10: .cfa -12 + ^ r11: .cfa -8 + ^ r4: .cfa -36 + ^ r5: .cfa -32 + ^ r6: .cfa -28 + ^ r7: .cfa -24 + ^ r8: .cfa -20 + ^ r9: .cfa -16 + ^
STACK CFI 41f74 .cfa: sp 184 +
STACK CFI INIT 4279c 40 .cfa: sp 0 + .ra: lr
STACK CFI INIT 427dc e0 .cfa: sp 0 + .ra: lr
STACK CFI 427e0 .cfa: sp 24 +
STACK CFI 427e4 .ra: .cfa -4 + ^ r3: .cfa -24 + ^ r4: .cfa -20 + ^ r5: .cfa -16 + ^ r6: .cfa -12 + ^ r7: .cfa -8 + ^
STACK CFI INIT 428bc 1dc .cfa: sp 0 + .ra: lr
STACK CFI 428c4 .cfa: sp 36 +
STACK CFI 428cc .cfa: sp 48 +
STACK CFI 428d0 .ra: .cfa -4 + ^ r10: .cfa -12 + ^ r11: .cfa -8 + ^ r4: .cfa -36 + ^ r5: .cfa -32 + ^ r6: .cfa -28 + ^ r7: .cfa -24 + ^ r8: .cfa -20 + ^ r9: .cfa -16 + ^
STACK CFI INIT 42a98 2c8 .cfa: sp 0 + .ra: lr
STACK CFI 42a9c .cfa: sp 36 +
STACK CFI 42aa0 .ra: .cfa -4 + ^ r10: .cfa -12 + ^ r11: .cfa -8 + ^ r4: .cfa -36 + ^ r5: .cfa -32 + ^ r6: .cfa -28 + ^ r7: .cfa -24 + ^ r8: .cfa -20 + ^ r9: .cfa -16 + ^
STACK CFI 42aac .cfa: sp 48 +
STACK CFI INIT 42d60 238 .cfa: sp 0 + .ra: lr
STACK CFI 42d64 .cfa: sp 24 +
STACK CFI 42d68 .ra: .cfa -4 + ^ r4: .cfa -24 + ^ r5: .cfa -20 + ^ r6: .cfa -16 + ^ r7: .cfa -12 + ^ r8: .cfa -8 + ^
STACK CFI INIT 42f98 248 .cfa: sp 0 + .ra: lr
STACK CFI 42f9c .cfa: sp 32 +
STACK CFI 42fa0 .ra: .cfa -4 + ^ r10: .cfa -8 + ^ r4: .cfa -32 + ^ r5: .cfa -28 + ^ r6: .cfa -24 + ^ r7: .cfa -20 + ^ r8: .cfa -16 + ^ r9: .cfa -12 + ^
STACK CFI INIT 431e0 1b0 .cfa: sp 0 + .ra: lr
STACK CFI 431e4 .cfa: sp 36 +
STACK CFI 431e8 .ra: .cfa -4 + ^ r10: .cfa -12 + ^ r11: .cfa -8 + ^ r4: .cfa -36 + ^ r5: .cfa -32 + ^ r6: .cfa -28 + ^ r7: .cfa -24 + ^ r8: .cfa -20 + ^ r9: .cfa -16 + ^
STACK CFI 431ec .cfa: sp 112 +
STACK CFI INIT 43390 4e8 .cfa: sp 0 + .ra: lr
STACK CFI 43394 .cfa: sp 36 +
STACK CFI 43398 .ra: .cfa -4 + ^ r10: .cfa -12 + ^ r11: .cfa -8 + ^ r4: .cfa -36 + ^ r5: .cfa -32 + ^ r6: .cfa -28 + ^ r7: .cfa -24 + ^ r8: .cfa -20 + ^ r9: .cfa -16 + ^
STACK CFI 433a0 .cfa: sp 56 +
STACK CFI INIT 43878 d8 .cfa: sp 0 + .ra: lr
STACK CFI 4387c .cfa: sp 16 +
STACK CFI 43880 .ra: .cfa -4 + ^ r4: .cfa -16 + ^ r5: .cfa -12 + ^ r6: .cfa -8 + ^
STACK CFI INIT 43950 8 .cfa: sp 0 + .ra: lr
STACK CFI INIT 43958 1e8 .cfa: sp 0 + .ra: lr
STACK CFI 4395c .cfa: sp 16 +
STACK CFI 43960 .ra: .cfa -4 + ^ r4: .cfa -16 + ^ r5: .cfa -12 + ^ r6: .cfa -8 + ^
STACK CFI INIT 43b40 134 .cfa: sp 0 + .ra: lr
STACK CFI 43b44 .cfa: sp 16 +
STACK CFI 43b48 .ra: .cfa -4 + ^ r4: .cfa -16 + ^ r5: .cfa -12 + ^ r6: .cfa -8 + ^
STACK CFI 43b4c .cfa: sp 24 +
STACK CFI INIT 43c74 34 .cfa: sp 0 + .ra: lr
STACK CFI 43c78 .cfa: sp 16 +
STACK CFI 43c7c .ra: .cfa -4 + ^ r4: .cfa -16 + ^ r5: .cfa -12 + ^ r6: .cfa -8 + ^
STACK CFI INIT 43ca8 6c .cfa: sp 0 + .ra: lr
STACK CFI 43cac .cfa: sp 16 +
STACK CFI 43cb0 .ra: .cfa -4 + ^ r3: .cfa -16 + ^ r4: .cfa -12 + ^ r5: .cfa -8 + ^
STACK CFI INIT 43d14 110 .cfa: sp 0 + .ra: lr
STACK CFI 43d18 .cfa: sp 16 +
STACK CFI 43d1c .ra: .cfa -4 + ^ r4: .cfa -16 + ^ r5: .cfa -12 + ^ r6: .cfa -8 + ^
STACK CFI INIT 43e24 dc .cfa: sp 0 + .ra: lr
STACK CFI 43e28 .cfa: sp 24 +
STACK CFI 43e2c .ra: .cfa -4 + ^ r3: .cfa -24 + ^ r4: .cfa -20 + ^ r5: .cfa -16 + ^ r6: .cfa -12 + ^ r7: .cfa -8 + ^
STACK CFI INIT 43f00 144 .cfa: sp 0 + .ra: lr
STACK CFI 43f04 .cfa: sp 16 +
STACK CFI 43f08 .ra: .cfa -4 + ^ r4: .cfa -16 + ^ r5: .cfa -12 + ^ r6: .cfa -8 + ^
STACK CFI INIT 44044 a4 .cfa: sp 0 + .ra: lr
STACK CFI 44048 .cfa: sp 16 +
STACK CFI 4404c .ra: .cfa -4 + ^ r3: .cfa -16 + ^ r4: .cfa -12 + ^ r5: .cfa -8 + ^
STACK CFI INIT 440e8 170 .cfa: sp 0 + .ra: lr
STACK CFI 440ec .cfa: sp 24 +
STACK CFI 440f0 .ra: .cfa -4 + ^ r4: .cfa -24 + ^ r5: .cfa -20 + ^ r6: .cfa -16 + ^ r7: .cfa -12 + ^ r8: .cfa -8 + ^
STACK CFI INIT 44258 424 .cfa: sp 0 + .ra: lr
STACK CFI 4425c .cfa: sp 36 +
STACK CFI 44264 .ra: .cfa -4 + ^ r10: .cfa -12 + ^ r11: .cfa -8 + ^ r4: .cfa -36 + ^ r5: .cfa -32 + ^ r6: .cfa -28 + ^ r7: .cfa -24 + ^ r8: .cfa -20 + ^ r9: .cfa -16 + ^
STACK CFI 44270 .cfa: sp 56 +
STACK CFI INIT 4467c 14c .cfa: sp 0 + .ra: lr
STACK CFI 44680 .cfa: sp 16 +
STACK CFI 44684 .ra: .cfa -4 + ^ r4: .cfa -16 + ^ r5: .cfa -12 + ^ r6: .cfa -8 + ^
STACK CFI INIT 447c8 d0 .cfa: sp 0 + .ra: lr
STACK CFI 447cc .cfa: sp 24 +
STACK CFI 447d0 .ra: .cfa -4 + ^ r4: .cfa -24 + ^ r5: .cfa -20 + ^ r6: .cfa -16 + ^ r7: .cfa -12 + ^ r8: .cfa -8 + ^
STACK CFI INIT 44898 b8 .cfa: sp 0 + .ra: lr
STACK CFI 4489c .cfa: sp 16 +
STACK CFI 448a0 .ra: .cfa -4 + ^ r4: .cfa -16 + ^ r5: .cfa -12 + ^ r6: .cfa -8 + ^
STACK CFI INIT 44950 ac .cfa: sp 0 + .ra: lr
STACK CFI 44954 .cfa: sp 16 +
STACK CFI 44958 .ra: .cfa -4 + ^ r4: .cfa -16 + ^ r5: .cfa -12 + ^ r6: .cfa -8 + ^
STACK CFI INIT 449fc 80 .cfa: sp 0 + .ra: lr
STACK CFI 44a00 .cfa: sp 16 +
STACK CFI 44a04 .ra: .cfa -4 + ^ r4: .cfa -16 + ^ r5: .cfa -12 + ^ r6: .cfa -8 + ^
STACK CFI INIT 44a7c ac .cfa: sp 0 + .ra: lr
STACK CFI 44a80 .cfa: sp 16 +
STACK CFI 44a84 .ra: .cfa -4 + ^ r4: .cfa -16 + ^ r5: .cfa -12 + ^ r6: .cfa -8 + ^
STACK CFI INIT 44b28 168 .cfa: sp 0 + .ra: lr
STACK CFI 44b2c .cfa: sp 24 +
STACK CFI 44b30 .ra: .cfa -4 + ^ r4: .cfa -24 + ^ r5: .cfa -20 + ^ r6: .cfa -16 + ^ r7: .cfa -12 + ^ r8: .cfa -8 + ^
STACK CFI INIT 44c90 240 .cfa: sp 0 + .ra: lr
STACK CFI 44c94 .cfa: sp 32 +
STACK CFI 44c98 .ra: .cfa -4 + ^ r10: .cfa -8 + ^ r3: .cfa -32 + ^ r4: .cfa -28 + ^ r5: .cfa -24 + ^ r6: .cfa -20 + ^ r7: .cfa -16 + ^ r8: .cfa -12 + ^
STACK CFI INIT 44ed0 14 .cfa: sp 0 + .ra: lr
STACK CFI INIT 44ee4 60 .cfa: sp 0 + .ra: lr
STACK CFI 44ee8 .cfa: sp 24 +
STACK CFI 44eec .ra: .cfa -4 + ^ r3: .cfa -24 + ^ r4: .cfa -20 + ^ r5: .cfa -16 + ^ r6: .cfa -12 + ^ r7: .cfa -8 + ^
STACK CFI INIT 44f44 404 .cfa: sp 0 + .ra: lr
STACK CFI 44f48 .cfa: sp 32 +
STACK CFI 44f4c .ra: .cfa -4 + ^ r10: .cfa -8 + ^ r4: .cfa -32 + ^ r5: .cfa -28 + ^ r6: .cfa -24 + ^ r7: .cfa -20 + ^ r8: .cfa -16 + ^ r9: .cfa -12 + ^
STACK CFI INIT 45348 c .cfa: sp 0 + .ra: lr
STACK CFI INIT 45354 10 .cfa: sp 0 + .ra: lr
STACK CFI INIT 45364 1a8 .cfa: sp 0 + .ra: lr
STACK CFI 45368 .cfa: sp 24 +
STACK CFI 4536c .ra: .cfa -4 + ^ r3: .cfa -24 + ^ r4: .cfa -20 + ^ r5: .cfa -16 + ^ r6: .cfa -12 + ^ r7: .cfa -8 + ^
STACK CFI INIT 4550c cc .cfa: sp 0 + .ra: lr
STACK CFI 45510 .cfa: sp 32 +
STACK CFI 45514 .ra: .cfa -4 + ^ r10: .cfa -8 + ^ r3: .cfa -32 + ^ r4: .cfa -28 + ^ r5: .cfa -24 + ^ r6: .cfa -20 + ^ r7: .cfa -16 + ^ r8: .cfa -12 + ^
STACK CFI INIT 455d8 134 .cfa: sp 0 + .ra: lr
STACK CFI 455dc .cfa: sp 24 +
STACK CFI 455e0 .ra: .cfa -4 + ^ r3: .cfa -24 + ^ r4: .cfa -20 + ^ r5: .cfa -16 + ^ r6: .cfa -12 + ^ r7: .cfa -8 + ^
STACK CFI INIT 4570c c .cfa: sp 0 + .ra: lr
STACK CFI INIT 45718 14 .cfa: sp 0 + .ra: lr
STACK CFI INIT 4572c 5a0 .cfa: sp 0 + .ra: lr
STACK CFI 45730 .cfa: sp 36 +
STACK CFI 45734 .ra: .cfa -4 + ^ r10: .cfa -12 + ^ r11: .cfa -8 + ^ r4: .cfa -36 + ^ r5: .cfa -32 + ^ r6: .cfa -28 + ^ r7: .cfa -24 + ^ r8: .cfa -20 + ^ r9: .cfa -16 + ^
STACK CFI 45738 .cfa: sp 64 +
STACK CFI INIT 45ccc 164 .cfa: sp 0 + .ra: lr
STACK CFI 45cd0 .cfa: sp 24 +
STACK CFI 45cd4 .ra: .cfa -4 + ^ r3: .cfa -24 + ^ r4: .cfa -20 + ^ r5: .cfa -16 + ^ r6: .cfa -12 + ^ r7: .cfa -8 + ^
STACK CFI INIT 45e30 168 .cfa: sp 0 + .ra: lr
STACK CFI 45e34 .cfa: sp 24 +
STACK CFI 45e38 .ra: .cfa -4 + ^ r4: .cfa -24 + ^ r5: .cfa -20 + ^ r6: .cfa -16 + ^ r7: .cfa -12 + ^ r8: .cfa -8 + ^
STACK CFI INIT 45f98 18 .cfa: sp 0 + .ra: lr
STACK CFI 45f9c .cfa: sp 8 + .ra: .cfa -4 + ^ r4: .cfa -8 + ^
STACK CFI INIT 45fb0 20 .cfa: sp 0 + .ra: lr
STACK CFI 45fb4 .cfa: sp 8 +
STACK CFI 45fbc .ra: .cfa -4 + ^ r4: .cfa -8 + ^
STACK CFI INIT 45fd0 1c .cfa: sp 0 + .ra: lr
STACK CFI 45fd4 .cfa: sp 8 +
STACK CFI 45fd8 .ra: .cfa -4 + ^ r4: .cfa -8 + ^
STACK CFI INIT 45fec 2e0 .cfa: sp 0 + .ra: lr
STACK CFI 45ff0 .cfa: sp 36 +
STACK CFI 45ff8 .ra: .cfa -4 + ^ r10: .cfa -12 + ^ r11: .cfa -8 + ^ r4: .cfa -36 + ^ r5: .cfa -32 + ^ r6: .cfa -28 + ^ r7: .cfa -24 + ^ r8: .cfa -20 + ^ r9: .cfa -16 + ^
STACK CFI 46008 .cfa: sp 48 +
STACK CFI INIT 462cc ec .cfa: sp 0 + .ra: lr
STACK CFI 462d0 .cfa: sp 40 +
STACK CFI 462d4 .ra: .cfa -4 + ^ r10: .cfa -12 + ^ r11: .cfa -8 + ^ r3: .cfa -40 + ^ r4: .cfa -36 + ^ r5: .cfa -32 + ^ r6: .cfa -28 + ^ r7: .cfa -24 + ^ r8: .cfa -20 + ^ r9: .cfa -16 + ^
STACK CFI INIT 463b8 54 .cfa: sp 0 + .ra: lr
STACK CFI 463bc .cfa: sp 16 +
STACK CFI 463c0 .ra: .cfa -4 + ^ r4: .cfa -16 + ^ r5: .cfa -12 + ^ r6: .cfa -8 + ^
STACK CFI INIT 4640c 34 .cfa: sp 0 + .ra: lr
STACK CFI 46414 .cfa: sp 8 +
STACK CFI 46418 .ra: .cfa -4 + ^ r4: .cfa -8 + ^
STACK CFI INIT 46440 40 .cfa: sp 0 + .ra: lr
STACK CFI 46448 .cfa: sp 8 +
STACK CFI 46458 .ra: .cfa -4 + ^ r4: .cfa -8 + ^
STACK CFI INIT 46480 170 .cfa: sp 0 + .ra: lr
STACK CFI 46484 .cfa: sp 24 +
STACK CFI 46488 .ra: .cfa -4 + ^ r4: .cfa -24 + ^ r5: .cfa -20 + ^ r6: .cfa -16 + ^ r7: .cfa -12 + ^ r8: .cfa -8 + ^
STACK CFI 46490 .cfa: sp 32 +
STACK CFI INIT 465f0 dc .cfa: sp 0 + .ra: lr
STACK CFI 465f4 .cfa: sp 32 +
STACK CFI 465f8 .ra: .cfa -4 + ^ r10: .cfa -8 + ^ r4: .cfa -32 + ^ r5: .cfa -28 + ^ r6: .cfa -24 + ^ r7: .cfa -20 + ^ r8: .cfa -16 + ^ r9: .cfa -12 + ^
STACK CFI 46614 .cfa: sp 40 +
STACK CFI INIT 466cc 11c .cfa: sp 0 + .ra: lr
STACK CFI 466d0 .cfa: sp 24 +
STACK CFI 466d4 .ra: .cfa -4 + ^ r4: .cfa -24 + ^ r5: .cfa -20 + ^ r6: .cfa -16 + ^ r7: .cfa -12 + ^ r8: .cfa -8 + ^
STACK CFI INIT 467e8 98 .cfa: sp 0 + .ra: lr
STACK CFI 467ec .cfa: sp 16 +
STACK CFI 467f0 .ra: .cfa -4 + ^ r4: .cfa -16 + ^ r5: .cfa -12 + ^ r6: .cfa -8 + ^
STACK CFI INIT 46880 5c .cfa: sp 0 + .ra: lr
STACK CFI 46884 .cfa: sp 16 +
STACK CFI 46888 .ra: .cfa -4 + ^ r4: .cfa -16 + ^ r5: .cfa -12 + ^ r6: .cfa -8 + ^
STACK CFI INIT 468dc 1c .cfa: sp 0 + .ra: lr
STACK CFI INIT 468f8 68 .cfa: sp 0 + .ra: lr
STACK CFI INIT 46960 b8 .cfa: sp 0 + .ra: lr
STACK CFI 46964 .cfa: sp 12 +
STACK CFI 46968 .ra: .cfa -4 + ^ r4: .cfa -12 + ^ r5: .cfa -8 + ^
STACK CFI 4696c .cfa: sp 24 +
STACK CFI INIT 46a18 cc .cfa: sp 0 + .ra: lr
STACK CFI 46a1c .cfa: sp 24 +
STACK CFI 46a20 .ra: .cfa -4 + ^ r3: .cfa -24 + ^ r4: .cfa -20 + ^ r5: .cfa -16 + ^ r6: .cfa -12 + ^ r7: .cfa -8 + ^
STACK CFI INIT 46ae4 e8 .cfa: sp 0 + .ra: lr
STACK CFI 46ae8 .cfa: sp 24 +
STACK CFI 46aec .ra: .cfa -4 + ^ r3: .cfa -24 + ^ r4: .cfa -20 + ^ r5: .cfa -16 + ^ r6: .cfa -12 + ^ r7: .cfa -8 + ^
STACK CFI INIT 46bcc 80 .cfa: sp 0 + .ra: lr
STACK CFI 46bdc .cfa: sp 16 +
STACK CFI 46be4 .ra: .cfa -4 + ^ r4: .cfa -16 + ^ r5: .cfa -12 + ^ r6: .cfa -8 + ^
STACK CFI INIT 46c4c 24 .cfa: sp 0 + .ra: lr
STACK CFI INIT 46c70 84 .cfa: sp 0 + .ra: lr
STACK CFI 46c74 .cfa: sp 16 +
STACK CFI 46c78 .ra: .cfa -4 + ^ r3: .cfa -16 + ^ r4: .cfa -12 + ^ r5: .cfa -8 + ^
STACK CFI INIT 46cf4 78 .cfa: sp 0 + .ra: lr
STACK CFI INIT 46d6c e4 .cfa: sp 0 + .ra: lr
STACK CFI 46d70 .cfa: sp 16 +
STACK CFI 46d74 .ra: .cfa -4 + ^ r4: .cfa -16 + ^ r5: .cfa -12 + ^ r6: .cfa -8 + ^
STACK CFI INIT 46e50 100 .cfa: sp 0 + .ra: lr
STACK CFI 46e58 .cfa: sp 16 +
STACK CFI 46e5c .ra: .cfa -4 + ^ r4: .cfa -16 + ^ r5: .cfa -12 + ^ r6: .cfa -8 + ^
STACK CFI INIT 46f50 54 .cfa: sp 0 + .ra: lr
STACK CFI INIT 46fa4 c .cfa: sp 0 + .ra: lr
STACK CFI INIT 46fb0 c .cfa: sp 0 + .ra: lr
STACK CFI INIT 46fbc 1fc .cfa: sp 0 + .ra: lr
STACK CFI 46fc0 .cfa: sp 24 +
STACK CFI 46fc4 .ra: .cfa -4 + ^ r3: .cfa -24 + ^ r4: .cfa -20 + ^ r5: .cfa -16 + ^ r6: .cfa -12 + ^ r7: .cfa -8 + ^
STACK CFI INIT 471b8 e0 .cfa: sp 0 + .ra: lr
STACK CFI 471c4 .cfa: sp 16 +
STACK CFI 471c8 .ra: .cfa -4 + ^ r4: .cfa -16 + ^ r5: .cfa -12 + ^ r6: .cfa -8 + ^
STACK CFI INIT 47298 148 .cfa: sp 0 + .ra: lr
STACK CFI 4729c .cfa: sp 16 +
STACK CFI 472a0 .ra: .cfa -4 + ^ r4: .cfa -16 + ^ r5: .cfa -12 + ^ r6: .cfa -8 + ^
STACK CFI INIT 473e0 2c .cfa: sp 0 + .ra: lr
STACK CFI INIT 4740c 224 .cfa: sp 0 + .ra: lr
STACK CFI 47418 .cfa: sp 16 +
STACK CFI 4741c .ra: .cfa -4 + ^ r4: .cfa -16 + ^ r5: .cfa -12 + ^ r6: .cfa -8 + ^
STACK CFI INIT 47630 164 .cfa: sp 0 + .ra: lr
STACK CFI 47634 .cfa: sp 16 +
STACK CFI 47638 .ra: .cfa -4 + ^ r4: .cfa -16 + ^ r5: .cfa -12 + ^ r6: .cfa -8 + ^
STACK CFI INIT 47794 c0 .cfa: sp 0 + .ra: lr
STACK CFI 47798 .cfa: sp 16 +
STACK CFI 4779c .ra: .cfa -4 + ^ r3: .cfa -16 + ^ r4: .cfa -12 + ^ r5: .cfa -8 + ^
STACK CFI INIT 47854 18 .cfa: sp 0 + .ra: lr
STACK CFI INIT 4786c 18 .cfa: sp 0 + .ra: lr
STACK CFI INIT 47884 138 .cfa: sp 0 + .ra: lr
STACK CFI 47888 .cfa: sp 16 +
STACK CFI 4788c .ra: .cfa -4 + ^ r4: .cfa -16 + ^ r5: .cfa -12 + ^ r6: .cfa -8 + ^
STACK CFI INIT 479bc 10 .cfa: sp 0 + .ra: lr
STACK CFI INIT 479cc 2c .cfa: sp 0 + .ra: lr
STACK CFI INIT 479f8 10 .cfa: sp 0 + .ra: lr
STACK CFI INIT 47a08 54 .cfa: sp 0 + .ra: lr
STACK CFI INIT 47a5c 68 .cfa: sp 0 + .ra: lr
STACK CFI 47a6c .cfa: sp 8 +
STACK CFI 47a78 .ra: .cfa -4 + ^ r4: .cfa -8 + ^
STACK CFI INIT 47ac4 44 .cfa: sp 0 + .ra: lr
STACK CFI 47ac8 .cfa: sp 16 +
STACK CFI 47acc .ra: .cfa -4 + ^ r3: .cfa -16 + ^ r4: .cfa -12 + ^ r5: .cfa -8 + ^
STACK CFI INIT 47b08 288 .cfa: sp 0 + .ra: lr
STACK CFI 47b0c .cfa: sp 28 +
STACK CFI 47b10 .ra: .cfa -4 + ^ r10: .cfa -8 + ^ r4: .cfa -28 + ^ r5: .cfa -24 + ^ r6: .cfa -20 + ^ r7: .cfa -16 + ^ r8: .cfa -12 + ^
STACK CFI 47b14 .cfa: sp 56 +
STACK CFI INIT 47d90 5f4 .cfa: sp 0 + .ra: lr
STACK CFI 47d94 .cfa: sp 36 +
STACK CFI 47d98 .ra: .cfa -4 + ^ r10: .cfa -12 + ^ r11: .cfa -8 + ^ r4: .cfa -36 + ^ r5: .cfa -32 + ^ r6: .cfa -28 + ^ r7: .cfa -24 + ^ r8: .cfa -20 + ^ r9: .cfa -16 + ^
STACK CFI 47d9c .cfa: sp 96 +
STACK CFI INIT 48384 ab8 .cfa: sp 0 + .ra: lr
STACK CFI 48388 .cfa: sp 36 +
STACK CFI 4838c .ra: .cfa -4 + ^ r10: .cfa -12 + ^ r11: .cfa -8 + ^ r4: .cfa -36 + ^ r5: .cfa -32 + ^ r6: .cfa -28 + ^ r7: .cfa -24 + ^ r8: .cfa -20 + ^ r9: .cfa -16 + ^
STACK CFI 48390 .cfa: sp 120 +
STACK CFI INIT 48e3c f7c .cfa: sp 0 + .ra: lr
STACK CFI 48e40 .cfa: sp 36 +
STACK CFI 48e44 .ra: .cfa -4 + ^ r10: .cfa -12 + ^ r11: .cfa -8 + ^ r4: .cfa -36 + ^ r5: .cfa -32 + ^ r6: .cfa -28 + ^ r7: .cfa -24 + ^ r8: .cfa -20 + ^ r9: .cfa -16 + ^
STACK CFI 48e50 .cfa: sp 88 +
STACK CFI INIT 49db8 14 .cfa: sp 0 + .ra: lr
STACK CFI 49dbc .cfa: sp 8 +
STACK CFI 49dc0 .ra: .cfa -4 + ^ r3: .cfa -8 + ^
STACK CFI INIT 49dcc b4 .cfa: sp 0 + .ra: lr
STACK CFI 49dd8 .cfa: sp 8 +
STACK CFI 49de0 .ra: .cfa -4 + ^ r4: .cfa -8 + ^
STACK CFI INIT 49e80 a0 .cfa: sp 0 + .ra: lr
STACK CFI 49e84 .cfa: sp 32 +
STACK CFI 49e88 .ra: .cfa -4 + ^ r10: .cfa -8 + ^ r3: .cfa -32 + ^ r4: .cfa -28 + ^ r5: .cfa -24 + ^ r6: .cfa -20 + ^ r7: .cfa -16 + ^ r8: .cfa -12 + ^
STACK CFI INIT 49f20 28 .cfa: sp 0 + .ra: lr
STACK CFI 49f24 .cfa: sp 16 +
STACK CFI 49f28 .ra: .cfa -4 + ^ r3: .cfa -16 + ^ r4: .cfa -12 + ^ r5: .cfa -8 + ^
STACK CFI INIT 49f48 188 .cfa: sp 0 + .ra: lr
STACK CFI 49f50 .cfa: sp 36 +
STACK CFI 49f54 .ra: .cfa -4 + ^ r10: .cfa -12 + ^ r11: .cfa -8 + ^ r4: .cfa -36 + ^ r5: .cfa -32 + ^ r6: .cfa -28 + ^ r7: .cfa -24 + ^ r8: .cfa -20 + ^ r9: .cfa -16 + ^
STACK CFI 49f58 .cfa: sp 48 +
STACK CFI INIT 4a0d0 4bc .cfa: sp 0 + .ra: lr
STACK CFI 4a0d4 .cfa: sp 36 +
STACK CFI 4a0d8 .ra: .cfa -4 + ^ r10: .cfa -12 + ^ r11: .cfa -8 + ^ r4: .cfa -36 + ^ r5: .cfa -32 + ^ r6: .cfa -28 + ^ r7: .cfa -24 + ^ r8: .cfa -20 + ^ r9: .cfa -16 + ^
STACK CFI 4a0e8 .cfa: sp 64 +
STACK CFI INIT 4a58c 1c .cfa: sp 0 + .ra: lr
STACK CFI 4a590 .cfa: sp 4 +
STACK CFI 4a594 .cfa: sp 16 +
STACK CFI 4a59c .ra: .cfa -4 + ^
STACK CFI INIT 4a5a8 20 .cfa: sp 0 + .ra: lr
STACK CFI 4a5ac .cfa: sp 4 +
STACK CFI 4a5b0 .cfa: sp 16 +
STACK CFI 4a5bc .ra: .cfa -4 + ^
STACK CFI INIT 4a5c8 2f8 .cfa: sp 0 + .ra: lr
STACK CFI 4a5cc .cfa: sp 40 +
STACK CFI 4a5d0 .ra: .cfa -4 + ^ r10: .cfa -12 + ^ r11: .cfa -8 + ^ r3: .cfa -40 + ^ r4: .cfa -36 + ^ r5: .cfa -32 + ^ r6: .cfa -28 + ^ r7: .cfa -24 + ^ r8: .cfa -20 + ^ r9: .cfa -16 + ^
STACK CFI INIT 4a8c0 24 .cfa: sp 0 + .ra: lr
STACK CFI 4a8c4 .cfa: sp 4 +
STACK CFI 4a8c8 .cfa: sp 16 +
STACK CFI 4a8d8 .ra: .cfa -4 + ^
STACK CFI INIT 4a8e4 24 .cfa: sp 0 + .ra: lr
STACK CFI 4a8e8 .cfa: sp 4 +
STACK CFI 4a8ec .cfa: sp 16 +
STACK CFI 4a8fc .ra: .cfa -4 + ^
STACK CFI INIT 4a908 f0 .cfa: sp 0 + .ra: lr
STACK CFI 4a90c .cfa: sp 24 +
STACK CFI 4a910 .ra: .cfa -4 + ^ r4: .cfa -24 + ^ r5: .cfa -20 + ^ r6: .cfa -16 + ^ r7: .cfa -12 + ^ r8: .cfa -8 + ^
STACK CFI INIT 4a9f8 8 .cfa: sp 0 + .ra: lr
STACK CFI INIT 4aa00 c .cfa: sp 0 + .ra: lr
STACK CFI INIT 4aa0c 234 .cfa: sp 0 + .ra: lr
STACK CFI 4aa10 .cfa: sp 40 +
STACK CFI 4aa14 .ra: .cfa -4 + ^ r10: .cfa -12 + ^ r11: .cfa -8 + ^ r3: .cfa -40 + ^ r4: .cfa -36 + ^ r5: .cfa -32 + ^ r6: .cfa -28 + ^ r7: .cfa -24 + ^ r8: .cfa -20 + ^ r9: .cfa -16 + ^
STACK CFI INIT 4ac40 28 .cfa: sp 0 + .ra: lr
STACK CFI 4ac44 .cfa: sp 4 +
STACK CFI 4ac48 .cfa: sp 24 +
STACK CFI 4ac50 .ra: .cfa -4 + ^
STACK CFI INIT 4ac68 28 .cfa: sp 0 + .ra: lr
STACK CFI 4ac70 .cfa: sp 4 +
STACK CFI 4ac78 .cfa: sp 24 +
STACK CFI 4ac84 .ra: .cfa -4 + ^
STACK CFI INIT 4ac90 e4 .cfa: sp 0 + .ra: lr
STACK CFI 4ac94 .cfa: sp 36 +
STACK CFI 4ac98 .ra: .cfa -4 + ^ r10: .cfa -12 + ^ r11: .cfa -8 + ^ r4: .cfa -36 + ^ r5: .cfa -32 + ^ r6: .cfa -28 + ^ r7: .cfa -24 + ^ r8: .cfa -20 + ^ r9: .cfa -16 + ^
STACK CFI 4ac9c .cfa: sp 48 +
STACK CFI INIT 4ad74 30 .cfa: sp 0 + .ra: lr
STACK CFI 4ad78 .cfa: sp 4 +
STACK CFI 4ad7c .cfa: sp 16 +
STACK CFI 4ad94 .ra: .cfa -4 + ^
STACK CFI INIT 4ada4 104 .cfa: sp 0 + .ra: lr
STACK CFI 4ada8 .cfa: sp 36 +
STACK CFI 4adac .ra: .cfa -4 + ^ r10: .cfa -12 + ^ r11: .cfa -8 + ^ r4: .cfa -36 + ^ r5: .cfa -32 + ^ r6: .cfa -28 + ^ r7: .cfa -24 + ^ r8: .cfa -20 + ^ r9: .cfa -16 + ^
STACK CFI 4adb0 .cfa: sp 48 +
STACK CFI INIT 4aea8 4 .cfa: sp 0 + .ra: lr
STACK CFI INIT 4aeac f8 .cfa: sp 0 + .ra: lr
STACK CFI 4aeb0 .cfa: sp 36 +
STACK CFI 4aeb8 .cfa: sp 56 +
STACK CFI 4aec0 .ra: .cfa -4 + ^ r10: .cfa -12 + ^ r11: .cfa -8 + ^ r4: .cfa -36 + ^ r5: .cfa -32 + ^ r6: .cfa -28 + ^ r7: .cfa -24 + ^ r8: .cfa -20 + ^ r9: .cfa -16 + ^
STACK CFI INIT 4afa4 10 .cfa: sp 0 + .ra: lr
STACK CFI INIT 4afb4 1c0 .cfa: sp 0 + .ra: lr
STACK CFI 4afb8 .cfa: sp 40 +
STACK CFI 4afbc .ra: .cfa -4 + ^ r10: .cfa -12 + ^ r11: .cfa -8 + ^ r3: .cfa -40 + ^ r4: .cfa -36 + ^ r5: .cfa -32 + ^ r6: .cfa -28 + ^ r7: .cfa -24 + ^ r8: .cfa -20 + ^ r9: .cfa -16 + ^
STACK CFI INIT 4b174 1c .cfa: sp 0 + .ra: lr
STACK CFI 4b178 .cfa: sp 4 +
STACK CFI 4b17c .cfa: sp 16 +
STACK CFI 4b184 .ra: .cfa -4 + ^
STACK CFI INIT 4b190 20 .cfa: sp 0 + .ra: lr
STACK CFI 4b194 .cfa: sp 4 +
STACK CFI 4b198 .cfa: sp 16 +
STACK CFI 4b1a4 .ra: .cfa -4 + ^
STACK CFI INIT 4b1b0 1c .cfa: sp 0 + .ra: lr
STACK CFI INIT 4b1cc 8c .cfa: sp 0 + .ra: lr
STACK CFI 4b1d0 .cfa: sp 16 +
STACK CFI 4b1d4 .ra: .cfa -4 + ^ r4: .cfa -16 + ^ r5: .cfa -12 + ^ r6: .cfa -8 + ^
STACK CFI INIT 4b258 8c .cfa: sp 0 + .ra: lr
STACK CFI 4b25c .cfa: sp 16 +
STACK CFI 4b260 .ra: .cfa -4 + ^ r4: .cfa -16 + ^ r5: .cfa -12 + ^ r6: .cfa -8 + ^
STACK CFI INIT 4b2e4 10c .cfa: sp 0 + .ra: lr
STACK CFI 4b2e8 .cfa: sp 32 +
STACK CFI 4b2ec .ra: .cfa -4 + ^ r10: .cfa -8 + ^ r3: .cfa -32 + ^ r4: .cfa -28 + ^ r5: .cfa -24 + ^ r6: .cfa -20 + ^ r7: .cfa -16 + ^ r8: .cfa -12 + ^
STACK CFI INIT 4b3f0 24 .cfa: sp 0 + .ra: lr
STACK CFI 4b3f4 .cfa: sp 8 +
STACK CFI 4b3f8 .ra: .cfa -4 + ^ r3: .cfa -8 + ^
STACK CFI INIT 4b414 24 .cfa: sp 0 + .ra: lr
STACK CFI 4b418 .cfa: sp 8 +
STACK CFI 4b41c .ra: .cfa -4 + ^ r3: .cfa -8 + ^
STACK CFI INIT 4b438 d0 .cfa: sp 0 + .ra: lr
STACK CFI 4b43c .cfa: sp 24 +
STACK CFI 4b440 .ra: .cfa -4 + ^ r3: .cfa -24 + ^ r4: .cfa -20 + ^ r5: .cfa -16 + ^ r6: .cfa -12 + ^ r7: .cfa -8 + ^
STACK CFI INIT 4b508 cc .cfa: sp 0 + .ra: lr
STACK CFI 4b50c .cfa: sp 24 +
STACK CFI 4b510 .ra: .cfa -4 + ^ r3: .cfa -24 + ^ r4: .cfa -20 + ^ r5: .cfa -16 + ^ r6: .cfa -12 + ^ r7: .cfa -8 + ^
STACK CFI INIT 4b5d4 74 .cfa: sp 0 + .ra: lr
STACK CFI 4b5d8 .cfa: sp 16 +
STACK CFI 4b5dc .ra: .cfa -4 + ^ r4: .cfa -16 + ^ r5: .cfa -12 + ^ r6: .cfa -8 + ^
STACK CFI INIT 4b648 74 .cfa: sp 0 + .ra: lr
STACK CFI 4b64c .cfa: sp 16 +
STACK CFI 4b650 .ra: .cfa -4 + ^ r4: .cfa -16 + ^ r5: .cfa -12 + ^ r6: .cfa -8 + ^
STACK CFI INIT 4b6bc 44 .cfa: sp 0 + .ra: lr
STACK CFI 4b6c0 .cfa: sp 16 +
STACK CFI 4b6c4 .ra: .cfa -4 + ^ r4: .cfa -16 + ^ r5: .cfa -12 + ^ r6: .cfa -8 + ^
STACK CFI INIT 4b700 7c .cfa: sp 0 + .ra: lr
STACK CFI 4b704 .cfa: sp 24 +
STACK CFI 4b708 .ra: .cfa -4 + ^ r3: .cfa -24 + ^ r4: .cfa -20 + ^ r5: .cfa -16 + ^ r6: .cfa -12 + ^ r7: .cfa -8 + ^
STACK CFI INIT 4b77c 44 .cfa: sp 0 + .ra: lr
STACK CFI 4b780 .cfa: sp 16 +
STACK CFI 4b784 .ra: .cfa -4 + ^ r3: .cfa -16 + ^ r4: .cfa -12 + ^ r5: .cfa -8 + ^
STACK CFI INIT 4b7c0 28 .cfa: sp 0 + .ra: lr
STACK CFI INIT 4b7e8 10 .cfa: sp 0 + .ra: lr
STACK CFI INIT 4b7f8 10 .cfa: sp 0 + .ra: lr
STACK CFI INIT 4b808 3c .cfa: sp 0 + .ra: lr
STACK CFI INIT 4b844 6c .cfa: sp 0 + .ra: lr
STACK CFI 4b848 .cfa: sp 16 +
STACK CFI 4b84c .ra: .cfa -4 + ^ r3: .cfa -16 + ^ r4: .cfa -12 + ^ r5: .cfa -8 + ^
STACK CFI INIT 4b8b0 70 .cfa: sp 0 + .ra: lr
STACK CFI 4b8b4 .cfa: sp 16 +
STACK CFI 4b8b8 .ra: .cfa -4 + ^ r3: .cfa -16 + ^ r4: .cfa -12 + ^ r5: .cfa -8 + ^
STACK CFI INIT 4b920 94 .cfa: sp 0 + .ra: lr
STACK CFI 4b928 .cfa: sp 16 +
STACK CFI 4b92c .ra: .cfa -4 + ^ r4: .cfa -16 + ^ r5: .cfa -12 + ^ r6: .cfa -8 + ^
STACK CFI INIT 4b9b4 90 .cfa: sp 0 + .ra: lr
STACK CFI 4b9c0 .cfa: sp 16 +
STACK CFI 4b9c8 .ra: .cfa -4 + ^ r4: .cfa -16 + ^ r5: .cfa -12 + ^ r6: .cfa -8 + ^
STACK CFI INIT 4ba44 c .cfa: sp 0 + .ra: lr
STACK CFI INIT 4ba50 5c .cfa: sp 0 + .ra: lr
STACK CFI INIT 4baac 54 .cfa: sp 0 + .ra: lr
STACK CFI 4bab8 .cfa: sp 24 +
STACK CFI 4babc .ra: .cfa -4 + ^ r3: .cfa -24 + ^ r4: .cfa -20 + ^ r5: .cfa -16 + ^ r6: .cfa -12 + ^ r7: .cfa -8 + ^
STACK CFI INIT 4bb00 54 .cfa: sp 0 + .ra: lr
STACK CFI 4bb0c .cfa: sp 24 +
STACK CFI 4bb10 .ra: .cfa -4 + ^ r3: .cfa -24 + ^ r4: .cfa -20 + ^ r5: .cfa -16 + ^ r6: .cfa -12 + ^ r7: .cfa -8 + ^
STACK CFI INIT 4bb54 74 .cfa: sp 0 + .ra: lr
STACK CFI 4bb60 .cfa: sp 16 +
STACK CFI 4bb64 .ra: .cfa -4 + ^ r4: .cfa -16 + ^ r5: .cfa -12 + ^ r6: .cfa -8 + ^
STACK CFI INIT 4bbc8 40 .cfa: sp 0 + .ra: lr
STACK CFI 4bbcc .cfa: sp 16 +
STACK CFI 4bbd0 .ra: .cfa -4 + ^ r3: .cfa -16 + ^ r4: .cfa -12 + ^ r5: .cfa -8 + ^
STACK CFI INIT 4bc08 18 .cfa: sp 0 + .ra: lr
STACK CFI 4bc0c .cfa: sp 8 +
STACK CFI 4bc10 .ra: .cfa -4 + ^ r4: .cfa -8 + ^
STACK CFI INIT 4bc20 48 .cfa: sp 0 + .ra: lr
STACK CFI 4bc24 .cfa: sp 16 +
STACK CFI 4bc28 .ra: .cfa -4 + ^ r4: .cfa -16 + ^ r5: .cfa -12 + ^ r6: .cfa -8 + ^
STACK CFI INIT 4bc68 8 .cfa: sp 0 + .ra: lr
STACK CFI INIT 4bc70 8 .cfa: sp 0 + .ra: lr
STACK CFI INIT 4bc78 8 .cfa: sp 0 + .ra: lr
STACK CFI INIT 4bc80 1c8 .cfa: sp 0 + .ra: lr
STACK CFI 4bc84 .cfa: sp 32 +
STACK CFI 4bc88 r10: .cfa -8 + ^ r11: .cfa -4 + ^ r4: .cfa -32 + ^ r5: .cfa -28 + ^ r6: .cfa -24 + ^ r7: .cfa -20 + ^ r8: .cfa -16 + ^ r9: .cfa -12 + ^
STACK CFI 4bc98 .cfa: sp 48 +
STACK CFI INIT 4be48 24 .cfa: sp 0 + .ra: lr
STACK CFI 4be50 .cfa: sp 8 +
STACK CFI 4be58 .ra: .cfa -4 + ^ r3: .cfa -8 + ^
STACK CFI INIT 4be6c 24 .cfa: sp 0 + .ra: lr
STACK CFI 4be74 .cfa: sp 8 +
STACK CFI 4be7c .ra: .cfa -4 + ^ r3: .cfa -8 + ^
STACK CFI INIT 4be90 28 .cfa: sp 0 + .ra: lr
STACK CFI 4be94 .cfa: sp 4 +
STACK CFI 4be9c .cfa: sp 16 +
STACK CFI 4beac .ra: .cfa -4 + ^
STACK CFI INIT 4beb8 1c .cfa: sp 0 + .ra: lr
STACK CFI 4bebc .cfa: sp 8 +
STACK CFI 4bec0 .ra: .cfa -4 + ^ r4: .cfa -8 + ^
STACK CFI INIT 4bed4 10 .cfa: sp 0 + .ra: lr
STACK CFI 4bed8 .cfa: sp 8 + .ra: .cfa -4 + ^ r3: .cfa -8 + ^
STACK CFI INIT 4bee4 4 .cfa: sp 0 + .ra: lr
STACK CFI INIT 4bee8 1c .cfa: sp 0 + .ra: lr
STACK CFI INIT 4bf04 4 .cfa: sp 0 + .ra: lr
STACK CFI INIT 4bf08 1c .cfa: sp 0 + .ra: lr
STACK CFI INIT 4bf24 8 .cfa: sp 0 + .ra: lr
STACK CFI INIT 4bf2c 450 .cfa: sp 0 + .ra: lr
STACK CFI 4bf30 .cfa: sp 16 +
STACK CFI 4bf34 .ra: .cfa -4 + ^ r4: .cfa -16 + ^ r5: .cfa -12 + ^ r6: .cfa -8 + ^
STACK CFI 4bf38 .cfa: sp 24 +
STACK CFI INIT 4c37c 14 .cfa: sp 0 + .ra: lr
STACK CFI INIT 4c390 40 .cfa: sp 0 + .ra: lr
STACK CFI 4c398 .cfa: sp 8 +
STACK CFI 4c39c .ra: .cfa -4 + ^ r4: .cfa -8 + ^
STACK CFI INIT 4c3d0 34 .cfa: sp 0 + .ra: lr
STACK CFI 4c3d4 .cfa: sp 8 + .ra: .cfa -4 + ^ r4: .cfa -8 + ^
STACK CFI INIT 4c404 34 .cfa: sp 0 + .ra: lr
STACK CFI 4c408 .cfa: sp 8 + .ra: .cfa -4 + ^ r4: .cfa -8 + ^
STACK CFI INIT 4c438 44 .cfa: sp 0 + .ra: lr
STACK CFI 4c440 .cfa: sp 8 +
STACK CFI 4c448 .ra: .cfa -4 + ^ r4: .cfa -8 + ^
STACK CFI INIT 4c47c 70 .cfa: sp 0 + .ra: lr
STACK CFI 4c488 .cfa: sp 16 +
STACK CFI 4c48c .ra: .cfa -4 + ^ r4: .cfa -16 + ^ r5: .cfa -12 + ^ r6: .cfa -8 + ^
STACK CFI INIT 4c4ec c8 .cfa: sp 0 + .ra: lr
STACK CFI 4c4f0 .cfa: sp 16 +
STACK CFI 4c4f4 .ra: .cfa -4 + ^ r3: .cfa -16 + ^ r4: .cfa -12 + ^ r5: .cfa -8 + ^
STACK CFI INIT 4c5b4 cc .cfa: sp 0 + .ra: lr
STACK CFI 4c5c4 .cfa: sp 8 +
STACK CFI 4c5cc .ra: .cfa -4 + ^ r4: .cfa -8 + ^
STACK CFI INIT 4c680 54 .cfa: sp 0 + .ra: lr
STACK CFI 4c68c .cfa: sp 16 +
STACK CFI 4c690 .ra: .cfa -4 + ^ r3: .cfa -16 + ^ r4: .cfa -12 + ^ r5: .cfa -8 + ^
STACK CFI INIT 4c6d4 e4 .cfa: sp 0 + .ra: lr
STACK CFI 4c6dc .cfa: sp 16 +
STACK CFI 4c6e4 .cfa: sp 72 +
STACK CFI 4c6e8 .ra: .cfa -4 + ^ r4: .cfa -16 + ^ r5: .cfa -12 + ^ r6: .cfa -8 + ^
STACK CFI INIT 4c7b8 4 .cfa: sp 0 + .ra: lr
STACK CFI INIT 4c7bc cc .cfa: sp 0 + .ra: lr
STACK CFI INIT 4c888 4c .cfa: sp 0 + .ra: lr
STACK CFI INIT 4c8d4 cc .cfa: sp 0 + .ra: lr
STACK CFI INIT 4c9a0 48 .cfa: sp 0 + .ra: lr
STACK CFI 4c9a8 .cfa: sp 4 +
STACK CFI 4c9b0 .cfa: sp 112 +
STACK CFI 4c9b4 .ra: .cfa -4 + ^
STACK CFI INIT 4c9e8 5c .cfa: sp 0 + .ra: lr
STACK CFI 4c9ec .cfa: sp 8 +
STACK CFI 4c9f0 .ra: .cfa -4 + ^ r4: .cfa -8 + ^
STACK CFI INIT 4ca44 160 .cfa: sp 0 + .ra: lr
STACK CFI 4ca48 .cfa: sp 32 +
STACK CFI 4ca4c .ra: .cfa -4 + ^ r10: .cfa -8 + ^ r3: .cfa -32 + ^ r4: .cfa -28 + ^ r5: .cfa -24 + ^ r6: .cfa -20 + ^ r7: .cfa -16 + ^ r8: .cfa -12 + ^
STACK CFI INIT 4cba4 108 .cfa: sp 0 + .ra: lr
STACK CFI 4cba8 .cfa: sp 16 +
STACK CFI 4cbac .ra: .cfa -4 + ^ r3: .cfa -16 + ^ r4: .cfa -12 + ^ r5: .cfa -8 + ^
STACK CFI INIT 4ccac 64 .cfa: sp 0 + .ra: lr
STACK CFI 4ccb0 .cfa: sp 16 +
STACK CFI 4ccb4 .ra: .cfa -4 + ^ r4: .cfa -16 + ^ r5: .cfa -12 + ^ r6: .cfa -8 + ^
STACK CFI INIT 4cd10 4c .cfa: sp 0 + .ra: lr
STACK CFI 4cd14 .cfa: sp 12 +
STACK CFI 4cd18 r4: .cfa -12 + ^ r5: .cfa -8 + ^ r6: .cfa -4 + ^
STACK CFI INIT 4cd5c 4c .cfa: sp 0 + .ra: lr
STACK CFI 4cd60 .cfa: sp 12 +
STACK CFI 4cd64 r4: .cfa -12 + ^ r5: .cfa -8 + ^ r6: .cfa -4 + ^
STACK CFI INIT 4cda8 c4 .cfa: sp 0 + .ra: lr
STACK CFI 4cdac .cfa: sp 8 +
STACK CFI 4cdb0 .ra: .cfa -4 + ^ r4: .cfa -8 + ^
STACK CFI INIT 4ce6c 90 .cfa: sp 0 + .ra: lr
STACK CFI 4ce70 .cfa: sp 8 +
STACK CFI 4ce74 .ra: .cfa -4 + ^ r4: .cfa -8 + ^
STACK CFI INIT 4cefc 58 .cfa: sp 0 + .ra: lr
STACK CFI 4cf04 .cfa: sp 8 +
STACK CFI 4cf14 .ra: .cfa -4 + ^ r4: .cfa -8 + ^
STACK CFI INIT 4cf54 10c .cfa: sp 0 + .ra: lr
STACK CFI 4cf58 .cfa: sp 24 +
STACK CFI 4cf5c .ra: .cfa -4 + ^ r3: .cfa -24 + ^ r4: .cfa -20 + ^ r5: .cfa -16 + ^ r6: .cfa -12 + ^ r7: .cfa -8 + ^
STACK CFI INIT 4d060 1c8 .cfa: sp 0 + .ra: lr
STACK CFI 4d064 .cfa: sp 32 +
STACK CFI 4d068 .ra: .cfa -4 + ^ r10: .cfa -8 + ^ r3: .cfa -32 + ^ r4: .cfa -28 + ^ r5: .cfa -24 + ^ r6: .cfa -20 + ^ r7: .cfa -16 + ^ r8: .cfa -12 + ^
STACK CFI INIT 4d228 124 .cfa: sp 0 + .ra: lr
STACK CFI 4d22c .cfa: sp 24 +
STACK CFI 4d230 .ra: .cfa -4 + ^ r3: .cfa -24 + ^ r4: .cfa -20 + ^ r5: .cfa -16 + ^ r6: .cfa -12 + ^ r7: .cfa -8 + ^
STACK CFI INIT 4d34c 128 .cfa: sp 0 + .ra: lr
STACK CFI 4d350 .cfa: sp 24 +
STACK CFI 4d354 .ra: .cfa -4 + ^ r3: .cfa -24 + ^ r4: .cfa -20 + ^ r5: .cfa -16 + ^ r6: .cfa -12 + ^ r7: .cfa -8 + ^
STACK CFI INIT 4d474 384 .cfa: sp 0 + .ra: lr
STACK CFI 4d478 .cfa: sp 40 +
STACK CFI 4d47c .ra: .cfa -4 + ^ r10: .cfa -12 + ^ r11: .cfa -8 + ^ r3: .cfa -40 + ^ r4: .cfa -36 + ^ r5: .cfa -32 + ^ r6: .cfa -28 + ^ r7: .cfa -24 + ^ r8: .cfa -20 + ^ r9: .cfa -16 + ^
STACK CFI INIT 4d7f8 88 .cfa: sp 0 + .ra: lr
STACK CFI 4d7fc .cfa: sp 16 +
STACK CFI 4d800 .ra: .cfa -4 + ^ r3: .cfa -16 + ^ r4: .cfa -12 + ^ r5: .cfa -8 + ^
STACK CFI INIT 4d880 44 .cfa: sp 0 + .ra: lr
STACK CFI 4d884 .cfa: sp 16 +
STACK CFI 4d888 .ra: .cfa -4 + ^ r4: .cfa -16 + ^ r5: .cfa -12 + ^ r6: .cfa -8 + ^
STACK CFI INIT 4d8c4 50 .cfa: sp 0 + .ra: lr
STACK CFI 4d8c8 .cfa: sp 16 +
STACK CFI 4d8cc .ra: .cfa -4 + ^ r4: .cfa -16 + ^ r5: .cfa -12 + ^ r6: .cfa -8 + ^
STACK CFI INIT 4d914 70 .cfa: sp 0 + .ra: lr
STACK CFI 4d918 .cfa: sp 16 +
STACK CFI 4d91c .ra: .cfa -4 + ^ r3: .cfa -16 + ^ r4: .cfa -12 + ^ r5: .cfa -8 + ^
STACK CFI INIT 4d984 74 .cfa: sp 0 + .ra: lr
STACK CFI 4d98c .cfa: sp 16 +
STACK CFI 4d990 .ra: .cfa -4 + ^ r3: .cfa -16 + ^ r4: .cfa -12 + ^ r5: .cfa -8 + ^
STACK CFI INIT 4d9f8 48 .cfa: sp 0 + .ra: lr
STACK CFI 4d9fc .cfa: sp 8 +
STACK CFI 4da00 .ra: .cfa -4 + ^ r4: .cfa -8 + ^
STACK CFI INIT 4da40 94 .cfa: sp 0 + .ra: lr
STACK CFI 4da44 .cfa: sp 24 +
STACK CFI 4da48 .ra: .cfa -4 + ^ r4: .cfa -24 + ^ r5: .cfa -20 + ^ r6: .cfa -16 + ^ r7: .cfa -12 + ^ r8: .cfa -8 + ^
STACK CFI INIT 4dad4 120 .cfa: sp 0 + .ra: lr
STACK CFI 4dad8 .cfa: sp 24 +
STACK CFI 4dadc .ra: .cfa -4 + ^ r4: .cfa -24 + ^ r5: .cfa -20 + ^ r6: .cfa -16 + ^ r7: .cfa -12 + ^ r8: .cfa -8 + ^
STACK CFI INIT 4dbf4 40 .cfa: sp 0 + .ra: lr
STACK CFI 4dbf8 .cfa: sp 8 +
STACK CFI 4dbfc .ra: .cfa -4 + ^ r4: .cfa -8 + ^
STACK CFI INIT 4dc34 38 .cfa: sp 0 + .ra: lr
STACK CFI 4dc38 .cfa: sp 16 +
STACK CFI 4dc3c .ra: .cfa -4 + ^ r4: .cfa -16 + ^ r5: .cfa -12 + ^ r6: .cfa -8 + ^
STACK CFI INIT 4dc6c 38 .cfa: sp 0 + .ra: lr
STACK CFI 4dc70 .cfa: sp 16 +
STACK CFI 4dc74 .ra: .cfa -4 + ^ r4: .cfa -16 + ^ r5: .cfa -12 + ^ r6: .cfa -8 + ^
STACK CFI INIT 4dca4 20 .cfa: sp 0 + .ra: lr
STACK CFI INIT 4dcc4 50 .cfa: sp 0 + .ra: lr
STACK CFI 4dcc8 .cfa: sp 16 +
STACK CFI 4dccc .ra: .cfa -4 + ^ r4: .cfa -16 + ^ r5: .cfa -12 + ^ r6: .cfa -8 + ^
STACK CFI INIT 4dd14 50 .cfa: sp 0 + .ra: lr
STACK CFI 4dd18 .cfa: sp 16 +
STACK CFI 4dd1c .ra: .cfa -4 + ^ r4: .cfa -16 + ^ r5: .cfa -12 + ^ r6: .cfa -8 + ^
STACK CFI INIT 4dd64 f8 .cfa: sp 0 + .ra: lr
STACK CFI 4dd68 .cfa: sp 20 +
STACK CFI 4dd6c .ra: .cfa -4 + ^ r4: .cfa -20 + ^ r5: .cfa -16 + ^ r6: .cfa -12 + ^ r7: .cfa -8 + ^
STACK CFI 4dd74 .cfa: sp 32 +
STACK CFI INIT 4de5c 1c0 .cfa: sp 0 + .ra: lr
STACK CFI 4de60 .cfa: sp 16 +
STACK CFI 4de64 .ra: .cfa -4 + ^ r4: .cfa -16 + ^ r5: .cfa -12 + ^ r6: .cfa -8 + ^
STACK CFI 4de68 .cfa: sp 24 +
STACK CFI INIT 4e01c 54 .cfa: sp 0 + .ra: lr
STACK CFI INIT 4e070 1e0 .cfa: sp 0 + .ra: lr
STACK CFI 4e074 .cfa: sp 40 +
STACK CFI 4e078 .ra: .cfa -4 + ^ r10: .cfa -12 + ^ r11: .cfa -8 + ^ r3: .cfa -40 + ^ r4: .cfa -36 + ^ r5: .cfa -32 + ^ r6: .cfa -28 + ^ r7: .cfa -24 + ^ r8: .cfa -20 + ^ r9: .cfa -16 + ^
STACK CFI INIT 4e250 a4 .cfa: sp 0 + .ra: lr
STACK CFI 4e254 .cfa: sp 12 +
STACK CFI 4e258 .ra: .cfa -4 + ^ r4: .cfa -12 + ^ r5: .cfa -8 + ^
STACK CFI 4e25c .cfa: sp 528 +
STACK CFI INIT 4e2f4 2ec .cfa: sp 0 + .ra: lr
STACK CFI 4e2f8 .cfa: sp 36 +
STACK CFI 4e2fc .ra: .cfa -4 + ^ r10: .cfa -12 + ^ r11: .cfa -8 + ^ r4: .cfa -36 + ^ r5: .cfa -32 + ^ r6: .cfa -28 + ^ r7: .cfa -24 + ^ r8: .cfa -20 + ^ r9: .cfa -16 + ^
STACK CFI 4e300 .cfa: sp 56 +
STACK CFI INIT 4e5e0 58 .cfa: sp 0 + .ra: lr
STACK CFI 4e5e4 .cfa: sp 16 +
STACK CFI 4e5e8 .ra: .cfa -4 + ^ r4: .cfa -16 + ^ r5: .cfa -12 + ^ r6: .cfa -8 + ^
STACK CFI INIT 4e638 11c .cfa: sp 0 + .ra: lr
STACK CFI 4e63c .cfa: sp 16 +
STACK CFI 4e640 .ra: .cfa -4 + ^ r4: .cfa -16 + ^ r5: .cfa -12 + ^ r6: .cfa -8 + ^
STACK CFI INIT 4e754 e0 .cfa: sp 0 + .ra: lr
STACK CFI 4e758 .cfa: sp 24 +
STACK CFI 4e75c .ra: .cfa -4 + ^ r3: .cfa -24 + ^ r4: .cfa -20 + ^ r5: .cfa -16 + ^ r6: .cfa -12 + ^ r7: .cfa -8 + ^
STACK CFI INIT 4e834 60 .cfa: sp 0 + .ra: lr
STACK CFI 4e838 .cfa: sp 16 +
STACK CFI 4e83c .ra: .cfa -4 + ^ r3: .cfa -16 + ^ r4: .cfa -12 + ^ r5: .cfa -8 + ^
STACK CFI INIT 4e894 174 .cfa: sp 0 + .ra: lr
STACK CFI 4e898 .cfa: sp 28 +
STACK CFI 4e8a4 .ra: .cfa -4 + ^ r10: .cfa -8 + ^ r4: .cfa -28 + ^ r5: .cfa -24 + ^ r6: .cfa -20 + ^ r7: .cfa -16 + ^ r8: .cfa -12 + ^
STACK CFI 4e8b0 .cfa: sp 560 +
STACK CFI INIT 4ea08 10 .cfa: sp 0 + .ra: lr
STACK CFI INIT 4ea18 10 .cfa: sp 0 + .ra: lr
STACK CFI INIT 4ea28 d0 .cfa: sp 0 + .ra: lr
STACK CFI 4ea30 .cfa: sp 16 +
STACK CFI 4ea34 .ra: .cfa -4 + ^ r4: .cfa -16 + ^ r5: .cfa -12 + ^ r6: .cfa -8 + ^
STACK CFI INIT 4eaf8 8 .cfa: sp 0 + .ra: lr
STACK CFI INIT 4eb00 144 .cfa: sp 0 + .ra: lr
STACK CFI 4eb08 .cfa: sp 16 +
STACK CFI 4eb10 .ra: .cfa -4 + ^ r4: .cfa -16 + ^ r5: .cfa -12 + ^ r6: .cfa -8 + ^
STACK CFI 4eb18 .cfa: sp 1040 +
STACK CFI INIT 4ec44 1d0 .cfa: sp 0 + .ra: lr
STACK CFI 4ec48 .cfa: sp 20 +
STACK CFI 4ec4c .ra: .cfa -4 + ^ r4: .cfa -20 + ^ r5: .cfa -16 + ^ r6: .cfa -12 + ^ r7: .cfa -8 + ^
STACK CFI 4ec54 .cfa: sp 32 +
STACK CFI INIT 4ee14 14 .cfa: sp 0 + .ra: lr
STACK CFI INIT 4ee28 10 .cfa: sp 0 + .ra: lr
STACK CFI INIT 4ee38 b8 .cfa: sp 0 + .ra: lr
STACK CFI 4ee3c .cfa: sp 24 +
STACK CFI 4ee40 .ra: .cfa -4 + ^ r3: .cfa -24 + ^ r4: .cfa -20 + ^ r5: .cfa -16 + ^ r6: .cfa -12 + ^ r7: .cfa -8 + ^
STACK CFI INIT 4eef0 fc .cfa: sp 0 + .ra: lr
STACK CFI 4eef4 .cfa: sp 24 +
STACK CFI 4eef8 .ra: .cfa -4 + ^ r4: .cfa -24 + ^ r5: .cfa -20 + ^ r6: .cfa -16 + ^ r7: .cfa -12 + ^ r8: .cfa -8 + ^
STACK CFI INIT 4efec f8 .cfa: sp 0 + .ra: lr
STACK CFI 4eff0 .cfa: sp 24 +
STACK CFI 4eff4 .ra: .cfa -4 + ^ r4: .cfa -24 + ^ r5: .cfa -20 + ^ r6: .cfa -16 + ^ r7: .cfa -12 + ^ r8: .cfa -8 + ^
STACK CFI INIT 4f0e4 30 .cfa: sp 0 + .ra: lr
STACK CFI 4f0e8 .cfa: sp 16 +
STACK CFI 4f0ec .ra: .cfa -4 + ^ r3: .cfa -16 + ^ r4: .cfa -12 + ^ r5: .cfa -8 + ^
STACK CFI INIT 4f114 34 .cfa: sp 0 + .ra: lr
STACK CFI 4f118 .cfa: sp 8 + .ra: .cfa -4 + ^ r4: .cfa -8 + ^
STACK CFI INIT 4f148 148 .cfa: sp 0 + .ra: lr
STACK CFI 4f14c .cfa: sp 16 +
STACK CFI 4f150 .ra: .cfa -4 + ^ r4: .cfa -16 + ^ r5: .cfa -12 + ^ r6: .cfa -8 + ^
STACK CFI INIT 4f290 14 .cfa: sp 0 + .ra: lr
STACK CFI INIT 4f2a4 14 .cfa: sp 0 + .ra: lr
STACK CFI INIT 4f2b8 80 .cfa: sp 0 + .ra: lr
STACK CFI 4f2c0 .cfa: sp 8 +
STACK CFI 4f2c8 .ra: .cfa -4 + ^ r4: .cfa -8 + ^
STACK CFI INIT 4f338 74 .cfa: sp 0 + .ra: lr
STACK CFI 4f340 .cfa: sp 8 +
STACK CFI 4f344 .ra: .cfa -4 + ^ r4: .cfa -8 + ^
STACK CFI INIT 4f3ac 2c .cfa: sp 0 + .ra: lr
STACK CFI INIT 4f3d8 4 .cfa: sp 0 + .ra: lr
STACK CFI INIT 4f3dc a4 .cfa: sp 0 + .ra: lr
STACK CFI 4f3e0 .cfa: sp 8 +
STACK CFI 4f3e4 .ra: .cfa -4 + ^ r4: .cfa -8 + ^
STACK CFI INIT 4f480 154 .cfa: sp 0 + .ra: lr
STACK CFI 4f484 .cfa: sp 32 +
STACK CFI 4f488 .ra: .cfa -4 + ^ r10: .cfa -8 + ^ r3: .cfa -32 + ^ r4: .cfa -28 + ^ r5: .cfa -24 + ^ r6: .cfa -20 + ^ r7: .cfa -16 + ^ r8: .cfa -12 + ^
STACK CFI INIT 4f5d4 14 .cfa: sp 0 + .ra: lr
STACK CFI INIT 4f5e8 148 .cfa: sp 0 + .ra: lr
STACK CFI 4f5ec .cfa: sp 24 +
STACK CFI 4f5f0 .ra: .cfa -4 + ^ r4: .cfa -24 + ^ r5: .cfa -20 + ^ r6: .cfa -16 + ^ r7: .cfa -12 + ^ r8: .cfa -8 + ^
STACK CFI INIT 4f730 148 .cfa: sp 0 + .ra: lr
STACK CFI 4f734 .cfa: sp 24 +
STACK CFI 4f738 .ra: .cfa -4 + ^ r4: .cfa -24 + ^ r5: .cfa -20 + ^ r6: .cfa -16 + ^ r7: .cfa -12 + ^ r8: .cfa -8 + ^
STACK CFI INIT 4f878 14 .cfa: sp 0 + .ra: lr
STACK CFI INIT 4f88c 1ac .cfa: sp 0 + .ra: lr
STACK CFI 4f890 .cfa: sp 32 +
STACK CFI 4f894 .ra: .cfa -4 + ^ r10: .cfa -8 + ^ r4: .cfa -32 + ^ r5: .cfa -28 + ^ r6: .cfa -24 + ^ r7: .cfa -20 + ^ r8: .cfa -16 + ^ r9: .cfa -12 + ^
STACK CFI 4f898 .cfa: sp 40 +
STACK CFI INIT 4fa38 14 .cfa: sp 0 + .ra: lr
STACK CFI INIT 4fa4c 34 .cfa: sp 0 + .ra: lr
STACK CFI 4fa50 .cfa: sp 8 +
STACK CFI 4fa54 .ra: .cfa -4 + ^ r4: .cfa -8 + ^
STACK CFI INIT 4fa80 94 .cfa: sp 0 + .ra: lr
STACK CFI 4fa8c .cfa: sp 4 +
STACK CFI 4fa94 r4: .cfa -4 + ^
STACK CFI INIT 4fb14 7c .cfa: sp 0 + .ra: lr
STACK CFI 4fb20 .cfa: sp 4 +
STACK CFI 4fb24 r4: .cfa -4 + ^
STACK CFI INIT 4fb90 a0 .cfa: sp 0 + .ra: lr
STACK CFI 4fb98 .cfa: sp 8 +
STACK CFI 4fba4 r4: .cfa -8 + ^ r5: .cfa -4 + ^
STACK CFI INIT 4fc30 98 .cfa: sp 0 + .ra: lr
STACK CFI 4fc38 .cfa: sp 8 +
STACK CFI 4fc44 r4: .cfa -8 + ^ r5: .cfa -4 + ^
STACK CFI INIT 4fcc8 84 .cfa: sp 0 + .ra: lr
STACK CFI 4fcd0 .cfa: sp 4 +
STACK CFI 4fce0 r4: .cfa -4 + ^
STACK CFI INIT 4fd4c 248 .cfa: sp 0 + .ra: lr
STACK CFI 4fd54 .cfa: sp 20 +
STACK CFI 4fd5c r4: .cfa -20 + ^ r5: .cfa -16 + ^ r6: .cfa -12 + ^ r7: .cfa -8 + ^ r8: .cfa -4 + ^
STACK CFI INIT 4ff94 164 .cfa: sp 0 + .ra: lr
STACK CFI 4ff98 .cfa: sp 16 +
STACK CFI 4ff9c .ra: .cfa -4 + ^ r3: .cfa -16 + ^ r4: .cfa -12 + ^ r5: .cfa -8 + ^
STACK CFI INIT 500f8 94 .cfa: sp 0 + .ra: lr
STACK CFI 50108 .cfa: sp 16 +
STACK CFI 50114 .ra: .cfa -4 + ^ r3: .cfa -16 + ^ r4: .cfa -12 + ^ r5: .cfa -8 + ^
STACK CFI INIT 5018c 10cc .cfa: sp 0 + .ra: lr
STACK CFI 50190 .cfa: sp 36 +
STACK CFI 50194 .ra: .cfa -4 + ^ r10: .cfa -12 + ^ r11: .cfa -8 + ^ r4: .cfa -36 + ^ r5: .cfa -32 + ^ r6: .cfa -28 + ^ r7: .cfa -24 + ^ r8: .cfa -20 + ^ r9: .cfa -16 + ^
STACK CFI 501a0 .cfa: sp 48 +
STACK CFI INIT 51258 48 .cfa: sp 0 + .ra: lr
STACK CFI 5125c .cfa: sp 16 +
STACK CFI 51260 .ra: .cfa -4 + ^ r4: .cfa -16 + ^ r5: .cfa -12 + ^ r6: .cfa -8 + ^
STACK CFI INIT 512a0 f4 .cfa: sp 0 + .ra: lr
STACK CFI 512a4 .cfa: sp 16 +
STACK CFI 512a8 .ra: .cfa -4 + ^ r3: .cfa -16 + ^ r4: .cfa -12 + ^ r5: .cfa -8 + ^
STACK CFI INIT 51394 350 .cfa: sp 0 + .ra: lr
STACK CFI 51398 .cfa: sp 12 +
STACK CFI 5139c r4: .cfa -12 + ^ r5: .cfa -8 + ^ r6: .cfa -4 + ^
STACK CFI INIT 516e4 218 .cfa: sp 0 + .ra: lr
STACK CFI 516e8 .cfa: sp 32 +
STACK CFI 516ec .ra: .cfa -4 + ^ r10: .cfa -8 + ^ r4: .cfa -32 + ^ r5: .cfa -28 + ^ r6: .cfa -24 + ^ r7: .cfa -20 + ^ r8: .cfa -16 + ^ r9: .cfa -12 + ^
STACK CFI 516f8 .cfa: sp 40 +
STACK CFI INIT 518fc 4c8 .cfa: sp 0 + .ra: lr
STACK CFI 51900 .cfa: sp 24 +
STACK CFI 51904 .ra: .cfa -4 + ^ r4: .cfa -24 + ^ r5: .cfa -20 + ^ r6: .cfa -16 + ^ r7: .cfa -12 + ^ r8: .cfa -8 + ^
STACK CFI 5190c .cfa: sp 32 +
STACK CFI INIT 51dc4 e0 .cfa: sp 0 + .ra: lr
STACK CFI 51dc8 .cfa: sp 24 +
STACK CFI 51dcc .ra: .cfa -4 + ^ r4: .cfa -24 + ^ r5: .cfa -20 + ^ r6: .cfa -16 + ^ r7: .cfa -12 + ^ r8: .cfa -8 + ^
STACK CFI 51dd0 .cfa: sp 32 +
STACK CFI INIT 51ea4 11c .cfa: sp 0 + .ra: lr
STACK CFI 51eac .cfa: sp 20 +
STACK CFI 51eb0 .cfa: sp 32 +
STACK CFI 51ebc .ra: .cfa -4 + ^ r4: .cfa -20 + ^ r5: .cfa -16 + ^ r6: .cfa -12 + ^ r7: .cfa -8 + ^
STACK CFI INIT 51fc0 224 .cfa: sp 0 + .ra: lr
STACK CFI 51fc4 .cfa: sp 24 +
STACK CFI 51fc8 .ra: .cfa -4 + ^ r3: .cfa -24 + ^ r4: .cfa -20 + ^ r5: .cfa -16 + ^ r6: .cfa -12 + ^ r7: .cfa -8 + ^
STACK CFI INIT 521e4 1f8 .cfa: sp 0 + .ra: lr
STACK CFI 521e8 .cfa: sp 24 +
STACK CFI 521ec .ra: .cfa -4 + ^ r3: .cfa -24 + ^ r4: .cfa -20 + ^ r5: .cfa -16 + ^ r6: .cfa -12 + ^ r7: .cfa -8 + ^
STACK CFI INIT 523dc 6ac .cfa: sp 0 + .ra: lr
STACK CFI 523e0 .cfa: sp 24 +
STACK CFI 523e4 .ra: .cfa -4 + ^ r4: .cfa -24 + ^ r5: .cfa -20 + ^ r6: .cfa -16 + ^ r7: .cfa -12 + ^ r8: .cfa -8 + ^
STACK CFI 523f0 .cfa: sp 40 +
STACK CFI INIT 52a88 4 .cfa: sp 0 + .ra: lr
STACK CFI INIT 52a8c 5c .cfa: sp 0 + .ra: lr
STACK CFI 52a90 .cfa: sp 16 +
STACK CFI 52a94 .ra: .cfa -4 + ^ r4: .cfa -16 + ^ r5: .cfa -12 + ^ r6: .cfa -8 + ^
STACK CFI INIT 52ae8 44 .cfa: sp 0 + .ra: lr
STACK CFI 52aec .cfa: sp 16 +
STACK CFI 52af0 .ra: .cfa -4 + ^ r3: .cfa -16 + ^ r4: .cfa -12 + ^ r5: .cfa -8 + ^
STACK CFI INIT 52b2c 200 .cfa: sp 0 + .ra: lr
STACK CFI 52b30 .cfa: sp 36 +
STACK CFI 52b34 .ra: .cfa -4 + ^ r10: .cfa -12 + ^ r11: .cfa -8 + ^ r4: .cfa -36 + ^ r5: .cfa -32 + ^ r6: .cfa -28 + ^ r7: .cfa -24 + ^ r8: .cfa -20 + ^ r9: .cfa -16 + ^
STACK CFI 52b3c .cfa: sp 40 +
STACK CFI INIT 52d2c 52c .cfa: sp 0 + .ra: lr
STACK CFI 52d30 .cfa: sp 24 +
STACK CFI 52d34 .ra: .cfa -4 + ^ r4: .cfa -24 + ^ r5: .cfa -20 + ^ r6: .cfa -16 + ^ r7: .cfa -12 + ^ r8: .cfa -8 + ^
STACK CFI 52d3c .cfa: sp 40 +
STACK CFI INIT 53258 600 .cfa: sp 0 + .ra: lr
STACK CFI 5325c .cfa: sp 24 +
STACK CFI 53260 .ra: .cfa -4 + ^ r4: .cfa -24 + ^ r5: .cfa -20 + ^ r6: .cfa -16 + ^ r7: .cfa -12 + ^ r8: .cfa -8 + ^
STACK CFI INIT 53858 508 .cfa: sp 0 + .ra: lr
STACK CFI 5385c .cfa: sp 36 +
STACK CFI 53860 .ra: .cfa -4 + ^ r10: .cfa -12 + ^ r11: .cfa -8 + ^ r4: .cfa -36 + ^ r5: .cfa -32 + ^ r6: .cfa -28 + ^ r7: .cfa -24 + ^ r8: .cfa -20 + ^ r9: .cfa -16 + ^
STACK CFI 53868 .cfa: sp 48 +
STACK CFI INIT 53d60 164 .cfa: sp 0 + .ra: lr
STACK CFI 53d64 .cfa: sp 16 +
STACK CFI 53d68 .ra: .cfa -4 + ^ r4: .cfa -16 + ^ r5: .cfa -12 + ^ r6: .cfa -8 + ^
STACK CFI INIT 53ec4 b4 .cfa: sp 0 + .ra: lr
STACK CFI 53ec8 .cfa: sp 20 +
STACK CFI 53ecc .ra: .cfa -4 + ^ r4: .cfa -20 + ^ r5: .cfa -16 + ^ r6: .cfa -12 + ^ r7: .cfa -8 + ^
STACK CFI 53ed4 .cfa: sp 72 +
STACK CFI INIT 53f78 7c .cfa: sp 0 + .ra: lr
STACK CFI 53f7c .cfa: sp 16 +
STACK CFI 53f80 .ra: .cfa -4 + ^ r3: .cfa -16 + ^ r4: .cfa -12 + ^ r5: .cfa -8 + ^
STACK CFI INIT 53ff4 8 .cfa: sp 0 + .ra: lr
STACK CFI INIT 53ffc 18 .cfa: sp 0 + .ra: lr
STACK CFI INIT 54014 c .cfa: sp 0 + .ra: lr
STACK CFI 54018 .cfa: sp 12 +
STACK CFI 54020 r1: .cfa -12 + ^ r2: .cfa -8 + ^ r3: .cfa -4 + ^
STACK CFI INIT 54020 114 .cfa: sp 0 + .ra: lr
STACK CFI 54028 .cfa: sp 16 +
STACK CFI 5402c .ra: .cfa -4 + ^ r4: .cfa -16 + ^ r5: .cfa -12 + ^ r6: .cfa -8 + ^
STACK CFI 5403c .cfa: sp 72 +
STACK CFI INIT 54134 c4 .cfa: sp 0 + .ra: lr
STACK CFI 5413c .cfa: sp 20 +
STACK CFI 54140 .ra: .cfa -4 + ^ r4: .cfa -20 + ^ r5: .cfa -16 + ^ r6: .cfa -12 + ^ r7: .cfa -8 + ^
STACK CFI 54144 .cfa: sp 88 +
STACK CFI INIT 541f8 c4 .cfa: sp 0 + .ra: lr
STACK CFI 54200 .cfa: sp 24 +
STACK CFI 54204 .ra: .cfa -4 + ^ r4: .cfa -24 + ^ r5: .cfa -20 + ^ r6: .cfa -16 + ^ r7: .cfa -12 + ^ r8: .cfa -8 + ^
STACK CFI 54208 .cfa: sp 88 +
STACK CFI INIT 542bc 11c .cfa: sp 0 + .ra: lr
STACK CFI 542c8 .cfa: sp 8 +
STACK CFI 542d0 .ra: .cfa -4 + ^ r4: .cfa -8 + ^
STACK CFI 542d4 .cfa: sp 64 +
STACK CFI INIT 543d8 108 .cfa: sp 0 + .ra: lr
STACK CFI 543dc .cfa: sp 24 +
STACK CFI 543e0 .ra: .cfa -4 + ^ r3: .cfa -24 + ^ r4: .cfa -20 + ^ r5: .cfa -16 + ^ r6: .cfa -12 + ^ r7: .cfa -8 + ^
STACK CFI INIT 544e0 c4 .cfa: sp 0 + .ra: lr
STACK CFI 544e8 .cfa: sp 20 +
STACK CFI 544ec .ra: .cfa -4 + ^ r4: .cfa -20 + ^ r5: .cfa -16 + ^ r6: .cfa -12 + ^ r7: .cfa -8 + ^
STACK CFI 544f0 .cfa: sp 88 +
STACK CFI INIT 545a4 98 .cfa: sp 0 + .ra: lr
STACK CFI 545ac .cfa: sp 16 +
STACK CFI 545b0 .ra: .cfa -4 + ^ r3: .cfa -16 + ^ r4: .cfa -12 + ^ r5: .cfa -8 + ^
STACK CFI INIT 5463c 3c .cfa: sp 0 + .ra: lr
STACK CFI 54644 .cfa: sp 4 +
STACK CFI 5464c .cfa: sp 16 +
STACK CFI 54654 .ra: .cfa -4 + ^
STACK CFI INIT 54678 1bc .cfa: sp 0 + .ra: lr
STACK CFI 54684 .cfa: sp 8 +
STACK CFI 5468c .ra: .cfa -4 + ^ r4: .cfa -8 + ^
STACK CFI INIT 54834 274 .cfa: sp 0 + .ra: lr
STACK CFI 54838 .cfa: sp 16 +
STACK CFI 5483c .ra: .cfa -4 + ^ r3: .cfa -16 + ^ r4: .cfa -12 + ^ r5: .cfa -8 + ^
STACK CFI INIT 54aa8 118 .cfa: sp 0 + .ra: lr
STACK CFI 54aac .cfa: sp 20 +
STACK CFI 54ab0 .ra: .cfa -4 + ^ r4: .cfa -20 + ^ r5: .cfa -16 + ^ r6: .cfa -12 + ^ r7: .cfa -8 + ^
STACK CFI 54ab8 .cfa: sp 32 +
STACK CFI INIT 54bc0 a8 .cfa: sp 0 + .ra: lr
STACK CFI 54bc4 .cfa: sp 20 +
STACK CFI 54bc8 .ra: .cfa -4 + ^ r4: .cfa -20 + ^ r5: .cfa -16 + ^ r6: .cfa -12 + ^ r7: .cfa -8 + ^
STACK CFI 54bd0 .cfa: sp 32 +
STACK CFI INIT 54c68 138 .cfa: sp 0 + .ra: lr
STACK CFI 54c6c .cfa: sp 16 +
STACK CFI 54c70 .ra: .cfa -4 + ^ r4: .cfa -16 + ^ r5: .cfa -12 + ^ r6: .cfa -8 + ^
STACK CFI 54c78 .cfa: sp 24 +
STACK CFI INIT 54da0 a8 .cfa: sp 0 + .ra: lr
STACK CFI 54da4 .cfa: sp 20 +
STACK CFI 54da8 .ra: .cfa -4 + ^ r4: .cfa -20 + ^ r5: .cfa -16 + ^ r6: .cfa -12 + ^ r7: .cfa -8 + ^
STACK CFI 54db0 .cfa: sp 32 +
STACK CFI INIT 54e48 5c .cfa: sp 0 + .ra: lr
STACK CFI INIT 54ea4 c .cfa: sp 0 + .ra: lr
STACK CFI INIT 54eb0 34 .cfa: sp 0 + .ra: lr
STACK CFI 54ebc .cfa: sp 8 +
STACK CFI 54ec4 .ra: .cfa -4 + ^ r3: .cfa -8 + ^
STACK CFI INIT 54ee4 6c .cfa: sp 0 + .ra: lr
STACK CFI 54ee8 .cfa: sp 16 + .ra: .cfa -4 + ^ r3: .cfa -16 + ^ r4: .cfa -12 + ^ r5: .cfa -8 + ^
STACK CFI INIT 54f50 b4 .cfa: sp 0 + .ra: lr
STACK CFI 54f54 .cfa: sp 16 +
STACK CFI 54f58 .ra: .cfa -4 + ^ r4: .cfa -16 + ^ r5: .cfa -12 + ^ r6: .cfa -8 + ^
STACK CFI INIT 55004 70 .cfa: sp 0 + .ra: lr
STACK CFI 55010 .cfa: sp 16 +
STACK CFI 55014 .ra: .cfa -4 + ^ r4: .cfa -16 + ^ r5: .cfa -12 + ^ r6: .cfa -8 + ^
STACK CFI INIT 55074 214 .cfa: sp 0 + .ra: lr
STACK CFI 55078 .cfa: sp 16 +
STACK CFI 5507c .ra: .cfa -4 + ^ r4: .cfa -16 + ^ r5: .cfa -12 + ^ r6: .cfa -8 + ^
STACK CFI INIT 55288 3f4 .cfa: sp 0 + .ra: lr
STACK CFI 5528c .cfa: sp 28 +
STACK CFI 55290 .ra: .cfa -4 + ^ r10: .cfa -8 + ^ r4: .cfa -28 + ^ r5: .cfa -24 + ^ r6: .cfa -20 + ^ r7: .cfa -16 + ^ r8: .cfa -12 + ^
STACK CFI 5529c .cfa: sp 104 +
STACK CFI INIT 5567c a8 .cfa: sp 0 + .ra: lr
STACK CFI 55680 .cfa: sp 28 +
STACK CFI 55684 .ra: .cfa -4 + ^ r10: .cfa -8 + ^ r4: .cfa -28 + ^ r5: .cfa -24 + ^ r6: .cfa -20 + ^ r7: .cfa -16 + ^ r8: .cfa -12 + ^
STACK CFI 55688 .cfa: sp 48 +
STACK CFI INIT 55724 58 .cfa: sp 0 + .ra: lr
STACK CFI 55734 .cfa: sp 8 +
STACK CFI 55740 .ra: .cfa -4 + ^ r4: .cfa -8 + ^
STACK CFI INIT 5577c 64 .cfa: sp 0 + .ra: lr
STACK CFI 55780 .cfa: sp 16 +
STACK CFI 55784 .ra: .cfa -4 + ^ r3: .cfa -16 + ^ r4: .cfa -12 + ^ r5: .cfa -8 + ^
STACK CFI INIT 557e0 1bc .cfa: sp 0 + .ra: lr
STACK CFI 557e4 .cfa: sp 20 +
STACK CFI 557e8 .ra: .cfa -4 + ^ r4: .cfa -20 + ^ r5: .cfa -16 + ^ r6: .cfa -12 + ^ r7: .cfa -8 + ^
STACK CFI 557f8 .cfa: sp 32 +
STACK CFI INIT 5599c 14 .cfa: sp 0 + .ra: lr
STACK CFI INIT 559b0 234 .cfa: sp 0 + .ra: lr
STACK CFI 559b4 .cfa: sp 40 +
STACK CFI 559b8 .ra: .cfa -4 + ^ r10: .cfa -12 + ^ r11: .cfa -8 + ^ r3: .cfa -40 + ^ r4: .cfa -36 + ^ r5: .cfa -32 + ^ r6: .cfa -28 + ^ r7: .cfa -24 + ^ r8: .cfa -20 + ^ r9: .cfa -16 + ^
STACK CFI INIT 55be4 c .cfa: sp 0 + .ra: lr
STACK CFI INIT 55bf0 e4 .cfa: sp 0 + .ra: lr
STACK CFI 55bf8 .cfa: sp 16 +
STACK CFI 55bfc .ra: .cfa -4 + ^ r3: .cfa -16 + ^ r4: .cfa -12 + ^ r5: .cfa -8 + ^
STACK CFI INIT 55cd4 154 .cfa: sp 0 + .ra: lr
STACK CFI 55cd8 .cfa: sp 32 +
STACK CFI 55cdc .ra: .cfa -4 + ^ r10: .cfa -8 + ^ r4: .cfa -32 + ^ r5: .cfa -28 + ^ r6: .cfa -24 + ^ r7: .cfa -20 + ^ r8: .cfa -16 + ^ r9: .cfa -12 + ^
STACK CFI INIT 55e28 88 .cfa: sp 0 + .ra: lr
STACK CFI 55e2c .cfa: sp 16 +
STACK CFI 55e30 .ra: .cfa -4 + ^ r3: .cfa -16 + ^ r4: .cfa -12 + ^ r5: .cfa -8 + ^
STACK CFI INIT 55eb0 c .cfa: sp 0 + .ra: lr
STACK CFI INIT 55ebc 4 .cfa: sp 0 + .ra: lr
STACK CFI INIT 55ec0 38c .cfa: sp 0 + .ra: lr
STACK CFI 55ec4 .cfa: sp 24 +
STACK CFI 55ec8 .ra: .cfa -4 + ^ r4: .cfa -24 + ^ r5: .cfa -20 + ^ r6: .cfa -16 + ^ r7: .cfa -12 + ^ r8: .cfa -8 + ^
STACK CFI INIT 5624c 198 .cfa: sp 0 + .ra: lr
STACK CFI 56250 .cfa: sp 20 +
STACK CFI 5625c .cfa: sp 5012 +
STACK CFI 56260 .ra: .cfa -4 + ^ r4: .cfa -20 + ^ r5: .cfa -16 + ^ r6: .cfa -12 + ^ r7: .cfa -8 + ^
STACK CFI 56264 .cfa: sp 5040 +
STACK CFI INIT 563e4 724 .cfa: sp 0 + .ra: lr
STACK CFI 563e8 .cfa: sp 36 +
STACK CFI 563ec .ra: .cfa -4 + ^ r10: .cfa -12 + ^ r11: .cfa -8 + ^ r4: .cfa -36 + ^ r5: .cfa -32 + ^ r6: .cfa -28 + ^ r7: .cfa -24 + ^ r8: .cfa -20 + ^ r9: .cfa -16 + ^
STACK CFI 563f0 .cfa: sp 10020 +
STACK CFI 563fc .cfa: sp 10072 +
STACK CFI INIT 56b08 51c .cfa: sp 0 + .ra: lr
STACK CFI 56b0c .cfa: sp 36 +
STACK CFI 56b10 .ra: .cfa -4 + ^ r10: .cfa -12 + ^ r11: .cfa -8 + ^ r4: .cfa -36 + ^ r5: .cfa -32 + ^ r6: .cfa -28 + ^ r7: .cfa -24 + ^ r8: .cfa -20 + ^ r9: .cfa -16 + ^
STACK CFI 56b20 .cfa: sp 72 +
STACK CFI INIT 57024 10 .cfa: sp 0 + .ra: lr
STACK CFI INIT 57034 10 .cfa: sp 0 + .ra: lr
STACK CFI INIT 57044 224 .cfa: sp 0 + .ra: lr
STACK CFI 57050 .cfa: sp 16 +
STACK CFI 57054 .ra: .cfa -4 + ^ r4: .cfa -16 + ^ r5: .cfa -12 + ^ r6: .cfa -8 + ^
STACK CFI INIT 57268 10 .cfa: sp 0 + .ra: lr
STACK CFI INIT 57278 24 .cfa: sp 0 + .ra: lr
STACK CFI INIT 5729c 70 .cfa: sp 0 + .ra: lr
STACK CFI 572a4 .cfa: sp 16 +
STACK CFI 572a8 .ra: .cfa -4 + ^ r3: .cfa -16 + ^ r4: .cfa -12 + ^ r5: .cfa -8 + ^
STACK CFI INIT 5730c 70 .cfa: sp 0 + .ra: lr
STACK CFI 57310 .cfa: sp 16 +
STACK CFI 57314 .ra: .cfa -4 + ^ r3: .cfa -16 + ^ r4: .cfa -12 + ^ r5: .cfa -8 + ^
STACK CFI INIT 5737c 18c .cfa: sp 0 + .ra: lr
STACK CFI 57380 .cfa: sp 16 +
STACK CFI 57384 .ra: .cfa -4 + ^ r4: .cfa -16 + ^ r5: .cfa -12 + ^ r6: .cfa -8 + ^
STACK CFI INIT 57508 3c .cfa: sp 0 + .ra: lr
STACK CFI 5750c .cfa: sp 16 +
STACK CFI 57510 .ra: .cfa -4 + ^ r3: .cfa -16 + ^ r4: .cfa -12 + ^ r5: .cfa -8 + ^
STACK CFI INIT 57544 d4 .cfa: sp 0 + .ra: lr
STACK CFI 5754c .cfa: sp 16 +
STACK CFI 57550 .ra: .cfa -4 + ^ r3: .cfa -16 + ^ r4: .cfa -12 + ^ r5: .cfa -8 + ^
STACK CFI INIT 57618 5f4 .cfa: sp 0 + .ra: lr
STACK CFI 5761c .cfa: sp 36 +
STACK CFI 57620 .ra: .cfa -4 + ^ r10: .cfa -12 + ^ r11: .cfa -8 + ^ r4: .cfa -36 + ^ r5: .cfa -32 + ^ r6: .cfa -28 + ^ r7: .cfa -24 + ^ r8: .cfa -20 + ^ r9: .cfa -16 + ^
STACK CFI 57624 .cfa: sp 88 +
STACK CFI INIT 57c0c 10 .cfa: sp 0 + .ra: lr
STACK CFI INIT 57c1c 10 .cfa: sp 0 + .ra: lr
STACK CFI INIT 57c2c 2a8 .cfa: sp 0 + .ra: lr
STACK CFI 57c38 .cfa: sp 16 +
STACK CFI 57c3c .ra: .cfa -4 + ^ r4: .cfa -16 + ^ r5: .cfa -12 + ^ r6: .cfa -8 + ^
STACK CFI INIT 57ed4 10 .cfa: sp 0 + .ra: lr
STACK CFI INIT 57ee4 24 .cfa: sp 0 + .ra: lr
STACK CFI INIT 57f08 160 .cfa: sp 0 + .ra: lr
STACK CFI 57f0c .cfa: sp 32 +
STACK CFI 57f10 .ra: .cfa -4 + ^ r10: .cfa -8 + ^ r4: .cfa -32 + ^ r5: .cfa -28 + ^ r6: .cfa -24 + ^ r7: .cfa -20 + ^ r8: .cfa -16 + ^ r9: .cfa -12 + ^
STACK CFI INIT 58068 10 .cfa: sp 0 + .ra: lr
STACK CFI INIT 58078 10 .cfa: sp 0 + .ra: lr
STACK CFI INIT 58088 c8 .cfa: sp 0 + .ra: lr
STACK CFI 58094 .cfa: sp 16 +
STACK CFI 58098 .ra: .cfa -4 + ^ r4: .cfa -16 + ^ r5: .cfa -12 + ^ r6: .cfa -8 + ^
STACK CFI INIT 58150 10 .cfa: sp 0 + .ra: lr
STACK CFI INIT 58160 24 .cfa: sp 0 + .ra: lr
STACK CFI INIT 58184 1b0 .cfa: sp 0 + .ra: lr
STACK CFI 58188 .cfa: sp 28 +
STACK CFI 5818c .ra: .cfa -4 + ^ r10: .cfa -8 + ^ r4: .cfa -28 + ^ r5: .cfa -24 + ^ r6: .cfa -20 + ^ r7: .cfa -16 + ^ r8: .cfa -12 + ^
STACK CFI 58198 .cfa: sp 48 +
STACK CFI INIT 58334 10 .cfa: sp 0 + .ra: lr
STACK CFI INIT 58344 cc .cfa: sp 0 + .ra: lr
STACK CFI 58348 .cfa: sp 24 +
STACK CFI 5834c .ra: .cfa -4 + ^ r4: .cfa -24 + ^ r5: .cfa -20 + ^ r6: .cfa -16 + ^ r7: .cfa -12 + ^ r8: .cfa -8 + ^
STACK CFI INIT 58410 48 .cfa: sp 0 + .ra: lr
STACK CFI 58414 .cfa: sp 8 +
STACK CFI 58418 .ra: .cfa -4 + ^ r4: .cfa -8 + ^
STACK CFI INIT 58458 2d8 .cfa: sp 0 + .ra: lr
STACK CFI 5845c .cfa: sp 36 +
STACK CFI 58460 .ra: .cfa -4 + ^ r10: .cfa -12 + ^ r11: .cfa -8 + ^ r4: .cfa -36 + ^ r5: .cfa -32 + ^ r6: .cfa -28 + ^ r7: .cfa -24 + ^ r8: .cfa -20 + ^ r9: .cfa -16 + ^
STACK CFI 5846c .cfa: sp 64 +
STACK CFI INIT 58730 228 .cfa: sp 0 + .ra: lr
STACK CFI 58734 .cfa: sp 32 +
STACK CFI 58738 .ra: .cfa -4 + ^ r10: .cfa -8 + ^ r3: .cfa -32 + ^ r4: .cfa -28 + ^ r5: .cfa -24 + ^ r6: .cfa -20 + ^ r7: .cfa -16 + ^ r8: .cfa -12 + ^
STACK CFI INIT 58958 10 .cfa: sp 0 + .ra: lr
STACK CFI INIT 58968 f0 .cfa: sp 0 + .ra: lr
STACK CFI 5896c .cfa: sp 24 +
STACK CFI 58970 .ra: .cfa -4 + ^ r4: .cfa -24 + ^ r5: .cfa -20 + ^ r6: .cfa -16 + ^ r7: .cfa -12 + ^ r8: .cfa -8 + ^
STACK CFI 58978 .cfa: sp 32 +
STACK CFI INIT 58a58 28 .cfa: sp 0 + .ra: lr
STACK CFI INIT 58a80 b0 .cfa: sp 0 + .ra: lr
STACK CFI 58a84 .cfa: sp 20 +
STACK CFI 58a88 .ra: .cfa -4 + ^ r4: .cfa -20 + ^ r5: .cfa -16 + ^ r6: .cfa -12 + ^ r7: .cfa -8 + ^
STACK CFI 58a90 .cfa: sp 32 +
STACK CFI INIT 58b30 18 .cfa: sp 0 + .ra: lr
STACK CFI INIT 58b48 148 .cfa: sp 0 + .ra: lr
STACK CFI 58b54 .cfa: sp 20 +
STACK CFI 58b60 .ra: .cfa -4 + ^ r4: .cfa -20 + ^ r5: .cfa -16 + ^ r6: .cfa -12 + ^ r7: .cfa -8 + ^
STACK CFI 58b64 .cfa: sp 48 +
STACK CFI INIT 58c90 d0 .cfa: sp 0 + .ra: lr
STACK CFI 58c94 .cfa: sp 20 +
STACK CFI 58c98 .ra: .cfa -4 + ^ r4: .cfa -20 + ^ r5: .cfa -16 + ^ r6: .cfa -12 + ^ r7: .cfa -8 + ^
STACK CFI 58c9c .cfa: sp 40 +
STACK CFI INIT 58d60 dc .cfa: sp 0 + .ra: lr
STACK CFI 58d64 .cfa: sp 16 +
STACK CFI 58d68 .ra: .cfa -4 + ^ r4: .cfa -16 + ^ r5: .cfa -12 + ^ r6: .cfa -8 + ^
STACK CFI INIT 58e3c 2b0 .cfa: sp 0 + .ra: lr
STACK CFI 58e40 .cfa: sp 36 +
STACK CFI 58e44 .ra: .cfa -4 + ^ r10: .cfa -12 + ^ r11: .cfa -8 + ^ r4: .cfa -36 + ^ r5: .cfa -32 + ^ r6: .cfa -28 + ^ r7: .cfa -24 + ^ r8: .cfa -20 + ^ r9: .cfa -16 + ^
STACK CFI 58e54 .cfa: sp 152 +
STACK CFI INIT 590ec 28 .cfa: sp 0 + .ra: lr
STACK CFI INIT 59114 18 .cfa: sp 0 + .ra: lr
STACK CFI INIT 5912c 2b0 .cfa: sp 0 + .ra: lr
STACK CFI 59130 .cfa: sp 36 +
STACK CFI 59134 .ra: .cfa -4 + ^ r10: .cfa -12 + ^ r11: .cfa -8 + ^ r4: .cfa -36 + ^ r5: .cfa -32 + ^ r6: .cfa -28 + ^ r7: .cfa -24 + ^ r8: .cfa -20 + ^ r9: .cfa -16 + ^
STACK CFI 59138 .cfa: sp 72 +
STACK CFI INIT 593dc 1fc .cfa: sp 0 + .ra: lr
STACK CFI 593e0 .cfa: sp 20 +
STACK CFI 593e4 .ra: .cfa -4 + ^ r4: .cfa -20 + ^ r5: .cfa -16 + ^ r6: .cfa -12 + ^ r7: .cfa -8 + ^
STACK CFI 593e8 .cfa: sp 40 +
STACK CFI INIT 595d8 b4 .cfa: sp 0 + .ra: lr
STACK CFI 595dc .cfa: sp 20 +
STACK CFI 595e0 .ra: .cfa -4 + ^ r4: .cfa -20 + ^ r5: .cfa -16 + ^ r6: .cfa -12 + ^ r7: .cfa -8 + ^
STACK CFI 595e4 .cfa: sp 40 +
STACK CFI INIT 5968c 44 .cfa: sp 0 + .ra: lr
STACK CFI 59694 .cfa: sp 8 +
STACK CFI 59698 .ra: .cfa -4 + ^ r4: .cfa -8 + ^
STACK CFI INIT 596d0 78 .cfa: sp 0 + .ra: lr
STACK CFI 596d4 .cfa: sp 16 +
STACK CFI 596d8 .ra: .cfa -4 + ^ r3: .cfa -16 + ^ r4: .cfa -12 + ^ r5: .cfa -8 + ^
STACK CFI INIT 59748 c .cfa: sp 0 + .ra: lr
STACK CFI INIT 59754 c .cfa: sp 0 + .ra: lr
STACK CFI INIT 59760 c .cfa: sp 0 + .ra: lr
STACK CFI INIT 5976c c .cfa: sp 0 + .ra: lr
STACK CFI INIT 59778 8 .cfa: sp 0 + .ra: lr
STACK CFI INIT 59780 14 .cfa: sp 0 + .ra: lr
STACK CFI INIT 59794 284 .cfa: sp 0 + .ra: lr
STACK CFI 59798 .cfa: sp 36 +
STACK CFI 5979c .ra: .cfa -4 + ^ r10: .cfa -12 + ^ r11: .cfa -8 + ^ r4: .cfa -36 + ^ r5: .cfa -32 + ^ r6: .cfa -28 + ^ r7: .cfa -24 + ^ r8: .cfa -20 + ^ r9: .cfa -16 + ^
STACK CFI 597a0 .cfa: sp 120 +
STACK CFI INIT 59a18 18c .cfa: sp 0 + .ra: lr
STACK CFI 59a1c .cfa: sp 28 +
STACK CFI 59a20 .ra: .cfa -4 + ^ r10: .cfa -8 + ^ r4: .cfa -28 + ^ r5: .cfa -24 + ^ r6: .cfa -20 + ^ r7: .cfa -16 + ^ r8: .cfa -12 + ^
STACK CFI 59a2c .cfa: sp 88 +
STACK CFI INIT 59ba4 2c4 .cfa: sp 0 + .ra: lr
STACK CFI 59ba8 .cfa: sp 20 +
STACK CFI 59bac .ra: .cfa -4 + ^ r4: .cfa -20 + ^ r5: .cfa -16 + ^ r6: .cfa -12 + ^ r7: .cfa -8 + ^
STACK CFI 59bb0 .cfa: sp 48 +
STACK CFI INIT 59e68 354 .cfa: sp 0 + .ra: lr
STACK CFI 59e6c .cfa: sp 36 +
STACK CFI 59e70 .ra: .cfa -4 + ^ r10: .cfa -12 + ^ r11: .cfa -8 + ^ r4: .cfa -36 + ^ r5: .cfa -32 + ^ r6: .cfa -28 + ^ r7: .cfa -24 + ^ r8: .cfa -20 + ^ r9: .cfa -16 + ^
STACK CFI 59e74 .cfa: sp 64 +
STACK CFI INIT 5a1bc 51c .cfa: sp 0 + .ra: lr
STACK CFI 5a1c0 .cfa: sp 36 +
STACK CFI 5a1c4 .ra: .cfa -4 + ^ r10: .cfa -12 + ^ r11: .cfa -8 + ^ r4: .cfa -36 + ^ r5: .cfa -32 + ^ r6: .cfa -28 + ^ r7: .cfa -24 + ^ r8: .cfa -20 + ^ r9: .cfa -16 + ^
STACK CFI 5a1c8 .cfa: sp 120 +
STACK CFI INIT 5a6d8 6f8 .cfa: sp 0 + .ra: lr
STACK CFI 5a6dc .cfa: sp 36 +
STACK CFI 5a6e0 .ra: .cfa -4 + ^ r10: .cfa -12 + ^ r11: .cfa -8 + ^ r4: .cfa -36 + ^ r5: .cfa -32 + ^ r6: .cfa -28 + ^ r7: .cfa -24 + ^ r8: .cfa -20 + ^ r9: .cfa -16 + ^
STACK CFI 5a6e4 .cfa: sp 120 +
STACK CFI INIT 5add0 500 .cfa: sp 0 + .ra: lr
STACK CFI 5add4 .cfa: sp 36 +
STACK CFI 5add8 .ra: .cfa -4 + ^ r10: .cfa -12 + ^ r11: .cfa -8 + ^ r4: .cfa -36 + ^ r5: .cfa -32 + ^ r6: .cfa -28 + ^ r7: .cfa -24 + ^ r8: .cfa -20 + ^ r9: .cfa -16 + ^
STACK CFI 5addc .cfa: sp 64 +
STACK CFI INIT 5b2d0 180 .cfa: sp 0 + .ra: lr
STACK CFI 5b2d4 .cfa: sp 12 +
STACK CFI 5b2d8 .ra: .cfa -4 + ^ r4: .cfa -12 + ^ r5: .cfa -8 + ^
STACK CFI 5b2dc .cfa: sp 32 +
STACK CFI INIT 5b450 134 .cfa: sp 0 + .ra: lr
STACK CFI 5b454 .cfa: sp 16 +
STACK CFI 5b458 .ra: .cfa -4 + ^ r4: .cfa -16 + ^ r5: .cfa -12 + ^ r6: .cfa -8 + ^
STACK CFI 5b45c .cfa: sp 32 +
STACK CFI INIT 5b584 bbc .cfa: sp 0 + .ra: lr
STACK CFI 5b588 .cfa: sp 36 +
STACK CFI 5b58c .ra: .cfa -4 + ^ r10: .cfa -12 + ^ r11: .cfa -8 + ^ r4: .cfa -36 + ^ r5: .cfa -32 + ^ r6: .cfa -28 + ^ r7: .cfa -24 + ^ r8: .cfa -20 + ^ r9: .cfa -16 + ^
STACK CFI 5b590 .cfa: sp 136 +
STACK CFI INIT 5c140 1ac .cfa: sp 0 + .ra: lr
STACK CFI 5c144 .cfa: sp 32 +
STACK CFI 5c148 .ra: .cfa -4 + ^ r10: .cfa -8 + ^ r4: .cfa -32 + ^ r5: .cfa -28 + ^ r6: .cfa -24 + ^ r7: .cfa -20 + ^ r8: .cfa -16 + ^ r9: .cfa -12 + ^
STACK CFI 5c158 .cfa: sp 104 +
STACK CFI INIT 5c2ec 178 .cfa: sp 0 + .ra: lr
STACK CFI 5c2f0 .cfa: sp 32 +
STACK CFI 5c2f4 .ra: .cfa -4 + ^ r10: .cfa -8 + ^ r4: .cfa -32 + ^ r5: .cfa -28 + ^ r6: .cfa -24 + ^ r7: .cfa -20 + ^ r8: .cfa -16 + ^ r9: .cfa -12 + ^
STACK CFI 5c300 .cfa: sp 40 +
STACK CFI INIT 5c464 70 .cfa: sp 0 + .ra: lr
STACK CFI 5c468 .cfa: sp 16 +
STACK CFI 5c46c .ra: .cfa -4 + ^ r3: .cfa -16 + ^ r4: .cfa -12 + ^ r5: .cfa -8 + ^
STACK CFI INIT 5c4d4 b4 .cfa: sp 0 + .ra: lr
STACK CFI 5c4dc .cfa: sp 24 +
STACK CFI 5c4e0 .ra: .cfa -4 + ^ r4: .cfa -24 + ^ r5: .cfa -20 + ^ r6: .cfa -16 + ^ r7: .cfa -12 + ^ r8: .cfa -8 + ^
STACK CFI INIT 5c588 e8 .cfa: sp 0 + .ra: lr
STACK CFI 5c594 .cfa: sp 16 +
STACK CFI 5c598 .ra: .cfa -4 + ^ r4: .cfa -16 + ^ r5: .cfa -12 + ^ r6: .cfa -8 + ^
STACK CFI INIT 5c670 1f8 .cfa: sp 0 + .ra: lr
STACK CFI 5c674 .cfa: sp 32 +
STACK CFI 5c678 .ra: .cfa -4 + ^ r10: .cfa -8 + ^ r3: .cfa -32 + ^ r4: .cfa -28 + ^ r5: .cfa -24 + ^ r6: .cfa -20 + ^ r7: .cfa -16 + ^ r8: .cfa -12 + ^
STACK CFI INIT 5c868 160 .cfa: sp 0 + .ra: lr
STACK CFI 5c874 .cfa: sp 24 +
STACK CFI 5c878 .ra: .cfa -4 + ^ r4: .cfa -24 + ^ r5: .cfa -20 + ^ r6: .cfa -16 + ^ r7: .cfa -12 + ^ r8: .cfa -8 + ^
STACK CFI INIT 5c9c8 2e8 .cfa: sp 0 + .ra: lr
STACK CFI 5c9cc .cfa: sp 36 +
STACK CFI 5c9d0 .cfa: sp 1172 +
STACK CFI 5c9d4 .cfa: sp 1176 +
STACK CFI 5c9e0 .ra: .cfa -4 + ^ r10: .cfa -12 + ^ r11: .cfa -8 + ^ r4: .cfa -36 + ^ r5: .cfa -32 + ^ r6: .cfa -28 + ^ r7: .cfa -24 + ^ r8: .cfa -20 + ^ r9: .cfa -16 + ^
STACK CFI INIT 5ccb0 10 .cfa: sp 0 + .ra: lr
STACK CFI INIT 5ccc0 14 .cfa: sp 0 + .ra: lr
STACK CFI INIT 5ccd4 14 .cfa: sp 0 + .ra: lr
STACK CFI INIT 5cce8 14 .cfa: sp 0 + .ra: lr
STACK CFI INIT 5ccfc 194 .cfa: sp 0 + .ra: lr
STACK CFI 5cd00 .cfa: sp 32 +
STACK CFI 5cd04 .ra: .cfa -4 + ^ r10: .cfa -8 + ^ r4: .cfa -32 + ^ r5: .cfa -28 + ^ r6: .cfa -24 + ^ r7: .cfa -20 + ^ r8: .cfa -16 + ^ r9: .cfa -12 + ^
STACK CFI 5cd0c .cfa: sp 232 +
STACK CFI INIT 5ce90 44 .cfa: sp 0 + .ra: lr
STACK CFI INIT 5ced4 f8 .cfa: sp 0 + .ra: lr
STACK CFI 5ced8 .cfa: sp 16 +
STACK CFI 5cedc .ra: .cfa -4 + ^ r4: .cfa -16 + ^ r5: .cfa -12 + ^ r6: .cfa -8 + ^
STACK CFI INIT 5cfcc f8 .cfa: sp 0 + .ra: lr
STACK CFI 5cfd0 .cfa: sp 24 +
STACK CFI 5cfd4 .ra: .cfa -4 + ^ r4: .cfa -24 + ^ r5: .cfa -20 + ^ r6: .cfa -16 + ^ r7: .cfa -12 + ^ r8: .cfa -8 + ^
STACK CFI 5cfd8 .cfa: sp 80 +
STACK CFI INIT 5d0c4 114 .cfa: sp 0 + .ra: lr
STACK CFI 5d0cc .cfa: sp 8 +
STACK CFI 5d0d4 .cfa: sp 64 +
STACK CFI 5d0d8 .ra: .cfa -4 + ^ r4: .cfa -8 + ^
STACK CFI INIT 5d1d8 b8 .cfa: sp 0 + .ra: lr
STACK CFI 5d1dc .cfa: sp 24 +
STACK CFI 5d1e4 .ra: .cfa -4 + ^ r3: .cfa -24 + ^ r4: .cfa -20 + ^ r5: .cfa -16 + ^ r6: .cfa -12 + ^ r7: .cfa -8 + ^
STACK CFI INIT 5d290 228 .cfa: sp 0 + .ra: lr
STACK CFI 5d294 .cfa: sp 20 +
STACK CFI 5d298 .ra: .cfa -4 + ^ r4: .cfa -20 + ^ r5: .cfa -16 + ^ r6: .cfa -12 + ^ r7: .cfa -8 + ^
STACK CFI 5d2a4 .cfa: sp 32 +
STACK CFI INIT 5d4b8 fc .cfa: sp 0 + .ra: lr
STACK CFI 5d4c0 .cfa: sp 16 +
STACK CFI 5d4c4 .ra: .cfa -4 + ^ r4: .cfa -16 + ^ r5: .cfa -12 + ^ r6: .cfa -8 + ^
STACK CFI INIT 5d5b4 2c0 .cfa: sp 0 + .ra: lr
STACK CFI 5d5b8 .cfa: sp 24 +
STACK CFI 5d5bc .ra: .cfa -4 + ^ r3: .cfa -24 + ^ r4: .cfa -20 + ^ r5: .cfa -16 + ^ r6: .cfa -12 + ^ r7: .cfa -8 + ^
STACK CFI INIT 5d874 60 .cfa: sp 0 + .ra: lr
STACK CFI 5d878 .cfa: sp 16 +
STACK CFI 5d87c .ra: .cfa -4 + ^ r4: .cfa -16 + ^ r5: .cfa -12 + ^ r6: .cfa -8 + ^
STACK CFI INIT 5d8d4 110 .cfa: sp 0 + .ra: lr
STACK CFI 5d8d8 .cfa: sp 16 +
STACK CFI 5d8dc .ra: .cfa -4 + ^ r4: .cfa -16 + ^ r5: .cfa -12 + ^ r6: .cfa -8 + ^
STACK CFI INIT 5d9e4 228 .cfa: sp 0 + .ra: lr
STACK CFI 5d9e8 .cfa: sp 20 +
STACK CFI 5d9ec .ra: .cfa -4 + ^ r4: .cfa -20 + ^ r5: .cfa -16 + ^ r6: .cfa -12 + ^ r7: .cfa -8 + ^
STACK CFI 5d9f4 .cfa: sp 128 +
STACK CFI INIT 5dc0c 178 .cfa: sp 0 + .ra: lr
STACK CFI 5dc14 .cfa: sp 12 +
STACK CFI 5dc1c .cfa: sp 24 +
STACK CFI 5dc24 .ra: .cfa -4 + ^ r4: .cfa -12 + ^ r5: .cfa -8 + ^
STACK CFI INIT 5dd84 2d4 .cfa: sp 0 + .ra: lr
STACK CFI 5dd8c .cfa: sp 16 +
STACK CFI 5dd90 .ra: .cfa -4 + ^ r4: .cfa -16 + ^ r5: .cfa -12 + ^ r6: .cfa -8 + ^
STACK CFI INIT 5e058 b0 .cfa: sp 0 + .ra: lr
STACK CFI 5e060 .cfa: sp 16 +
STACK CFI 5e068 .ra: .cfa -4 + ^ r4: .cfa -16 + ^ r5: .cfa -12 + ^ r6: .cfa -8 + ^
STACK CFI INIT 5e108 228 .cfa: sp 0 + .ra: lr
STACK CFI 5e10c .cfa: sp 32 +
STACK CFI 5e114 .cfa: sp 48 +
STACK CFI 5e118 r10: .cfa -8 + ^ r11: .cfa -4 + ^ r4: .cfa -32 + ^ r5: .cfa -28 + ^ r6: .cfa -24 + ^ r7: .cfa -20 + ^ r8: .cfa -16 + ^ r9: .cfa -12 + ^
STACK CFI INIT 5e330 18c .cfa: sp 0 + .ra: lr
STACK CFI 5e338 .cfa: sp 32 +
STACK CFI 5e33c r10: .cfa -8 + ^ r11: .cfa -4 + ^ r4: .cfa -32 + ^ r5: .cfa -28 + ^ r6: .cfa -24 + ^ r7: .cfa -20 + ^ r8: .cfa -16 + ^ r9: .cfa -12 + ^
STACK CFI INIT 5e4bc 1f4 .cfa: sp 0 + .ra: lr
STACK CFI 5e4c4 .cfa: sp 20 +
STACK CFI 5e4cc .cfa: sp 128 +
STACK CFI 5e4d8 .ra: .cfa -4 + ^ r4: .cfa -20 + ^ r5: .cfa -16 + ^ r6: .cfa -12 + ^ r7: .cfa -8 + ^
STACK CFI INIT 5e6b0 ec .cfa: sp 0 + .ra: lr
STACK CFI 5e6b4 .cfa: sp 20 +
STACK CFI 5e6b8 .ra: .cfa -4 + ^ r4: .cfa -20 + ^ r5: .cfa -16 + ^ r6: .cfa -12 + ^ r7: .cfa -8 + ^
STACK CFI 5e6bc .cfa: sp 80 +
STACK CFI INIT 5e79c 4c4 .cfa: sp 0 + .ra: lr
STACK CFI 5e7a4 .cfa: sp 24 +
STACK CFI 5e7a8 .ra: .cfa -4 + ^ r4: .cfa -24 + ^ r5: .cfa -20 + ^ r6: .cfa -16 + ^ r7: .cfa -12 + ^ r8: .cfa -8 + ^
STACK CFI 5e7b4 .cfa: sp 192 +
STACK CFI INIT 5ec60 2c8 .cfa: sp 0 + .ra: lr
STACK CFI 5ec64 .cfa: sp 32 +
STACK CFI 5ec68 .ra: .cfa -4 + ^ r10: .cfa -8 + ^ r4: .cfa -32 + ^ r5: .cfa -28 + ^ r6: .cfa -24 + ^ r7: .cfa -20 + ^ r8: .cfa -16 + ^ r9: .cfa -12 + ^
STACK CFI 5ec70 .cfa: sp 1056 +
STACK CFI INIT 5ef28 480 .cfa: sp 0 + .ra: lr
STACK CFI 5ef30 .cfa: sp 36 +
STACK CFI 5ef34 .ra: .cfa -4 + ^ r10: .cfa -12 + ^ r11: .cfa -8 + ^ r4: .cfa -36 + ^ r5: .cfa -32 + ^ r6: .cfa -28 + ^ r7: .cfa -24 + ^ r8: .cfa -20 + ^ r9: .cfa -16 + ^
STACK CFI 5ef3c .cfa: sp 72 +
STACK CFI INIT 5f3a8 418 .cfa: sp 0 + .ra: lr
STACK CFI 5f3b0 .cfa: sp 36 +
STACK CFI 5f3b4 .ra: .cfa -4 + ^ r10: .cfa -12 + ^ r11: .cfa -8 + ^ r4: .cfa -36 + ^ r5: .cfa -32 + ^ r6: .cfa -28 + ^ r7: .cfa -24 + ^ r8: .cfa -20 + ^ r9: .cfa -16 + ^
STACK CFI 5f3bc .cfa: sp 48 +
STACK CFI INIT 5f7c0 4bc .cfa: sp 0 + .ra: lr
STACK CFI 5f7c8 .cfa: sp 24 +
STACK CFI 5f7cc .ra: .cfa -4 + ^ r4: .cfa -24 + ^ r5: .cfa -20 + ^ r6: .cfa -16 + ^ r7: .cfa -12 + ^ r8: .cfa -8 + ^
STACK CFI 5f7e8 .cfa: sp 32 +
STACK CFI INIT 5fc7c 4c8 .cfa: sp 0 + .ra: lr
STACK CFI 5fc84 .cfa: sp 36 +
STACK CFI 5fc88 .ra: .cfa -4 + ^ r10: .cfa -12 + ^ r11: .cfa -8 + ^ r4: .cfa -36 + ^ r5: .cfa -32 + ^ r6: .cfa -28 + ^ r7: .cfa -24 + ^ r8: .cfa -20 + ^ r9: .cfa -16 + ^
STACK CFI 5fc90 .cfa: sp 64 +
STACK CFI INIT 60144 c8 .cfa: sp 0 + .ra: lr
STACK CFI 6014c .cfa: sp 12 +
STACK CFI 6015c r4: .cfa -12 + ^ r5: .cfa -8 + ^ r6: .cfa -4 + ^
STACK CFI INIT 6020c f0 .cfa: sp 0 + .ra: lr
STACK CFI 60210 .cfa: sp 32 +
STACK CFI 60214 .ra: .cfa -4 + ^ r10: .cfa -8 + ^ r3: .cfa -32 + ^ r4: .cfa -28 + ^ r5: .cfa -24 + ^ r6: .cfa -20 + ^ r7: .cfa -16 + ^ r8: .cfa -12 + ^
STACK CFI INIT 602fc 80 .cfa: sp 0 + .ra: lr
STACK CFI 60300 .cfa: sp 16 +
STACK CFI 60304 .ra: .cfa -4 + ^ r4: .cfa -16 + ^ r5: .cfa -12 + ^ r6: .cfa -8 + ^
STACK CFI INIT 6037c 144 .cfa: sp 0 + .ra: lr
STACK CFI 60380 .cfa: sp 16 +
STACK CFI 60384 .ra: .cfa -4 + ^ r4: .cfa -16 + ^ r5: .cfa -12 + ^ r6: .cfa -8 + ^
STACK CFI INIT 604c0 3ac .cfa: sp 0 + .ra: lr
STACK CFI 604c4 .cfa: sp 28 +
STACK CFI 604c8 .ra: .cfa -4 + ^ r10: .cfa -8 + ^ r4: .cfa -28 + ^ r5: .cfa -24 + ^ r6: .cfa -20 + ^ r7: .cfa -16 + ^ r8: .cfa -12 + ^
STACK CFI 604d0 .cfa: sp 1048 +
STACK CFI INIT 6086c 7c .cfa: sp 0 + .ra: lr
STACK CFI 60870 .cfa: sp 24 +
STACK CFI 60874 .ra: .cfa -4 + ^ r4: .cfa -24 + ^ r5: .cfa -20 + ^ r6: .cfa -16 + ^ r7: .cfa -12 + ^ r8: .cfa -8 + ^
STACK CFI INIT 608e8 4a8 .cfa: sp 0 + .ra: lr
STACK CFI 608f0 .cfa: sp 28 +
STACK CFI 608f8 .cfa: sp 40 +
STACK CFI 60900 .ra: .cfa -4 + ^ r10: .cfa -8 + ^ r4: .cfa -28 + ^ r5: .cfa -24 + ^ r6: .cfa -20 + ^ r7: .cfa -16 + ^ r8: .cfa -12 + ^
STACK CFI INIT 60d90 8c .cfa: sp 0 + .ra: lr
STACK CFI 60d94 .cfa: sp 16 +
STACK CFI 60d98 .ra: .cfa -4 + ^ r4: .cfa -16 + ^ r5: .cfa -12 + ^ r6: .cfa -8 + ^
STACK CFI INIT 60e1c 58 .cfa: sp 0 + .ra: lr
STACK CFI 60e20 .cfa: sp 16 +
STACK CFI 60e24 .ra: .cfa -4 + ^ r4: .cfa -16 + ^ r5: .cfa -12 + ^ r6: .cfa -8 + ^
STACK CFI INIT 60e74 8c .cfa: sp 0 + .ra: lr
STACK CFI 60e78 .cfa: sp 16 +
STACK CFI 60e7c .ra: .cfa -4 + ^ r4: .cfa -16 + ^ r5: .cfa -12 + ^ r6: .cfa -8 + ^
STACK CFI INIT 60f00 9c .cfa: sp 0 + .ra: lr
STACK CFI 60f08 .cfa: sp 24 +
STACK CFI 60f10 .ra: .cfa -4 + ^ r3: .cfa -24 + ^ r4: .cfa -20 + ^ r5: .cfa -16 + ^ r6: .cfa -12 + ^ r7: .cfa -8 + ^
STACK CFI INIT 60f9c 88 .cfa: sp 0 + .ra: lr
STACK CFI 60fa4 .cfa: sp 8 +
STACK CFI 60fa8 r4: .cfa -8 + ^ r5: .cfa -4 + ^
STACK CFI INIT 61024 34c .cfa: sp 0 + .ra: lr
STACK CFI 61028 .cfa: sp 36 +
STACK CFI 61034 .cfa: sp 88 +
STACK CFI 61038 .ra: .cfa -4 + ^ r10: .cfa -12 + ^ r11: .cfa -8 + ^ r4: .cfa -36 + ^ r5: .cfa -32 + ^ r6: .cfa -28 + ^ r7: .cfa -24 + ^ r8: .cfa -20 + ^ r9: .cfa -16 + ^
STACK CFI INIT 61370 384 .cfa: sp 0 + .ra: lr
STACK CFI 6137c .cfa: sp 36 +
STACK CFI 61380 .ra: .cfa -4 + ^ r10: .cfa -12 + ^ r11: .cfa -8 + ^ r4: .cfa -36 + ^ r5: .cfa -32 + ^ r6: .cfa -28 + ^ r7: .cfa -24 + ^ r8: .cfa -20 + ^ r9: .cfa -16 + ^
STACK CFI 61384 .cfa: sp 88 +
STACK CFI INIT 616f4 d8 .cfa: sp 0 + .ra: lr
STACK CFI 616fc .cfa: sp 16 +
STACK CFI 61700 .ra: .cfa -4 + ^ r4: .cfa -16 + ^ r5: .cfa -12 + ^ r6: .cfa -8 + ^
STACK CFI INIT 617cc 2c .cfa: sp 0 + .ra: lr
STACK CFI INIT 617f8 12c .cfa: sp 0 + .ra: lr
STACK CFI 617fc .cfa: sp 20 +
STACK CFI 61800 .ra: .cfa -4 + ^ r4: .cfa -20 + ^ r5: .cfa -16 + ^ r6: .cfa -12 + ^ r7: .cfa -8 + ^
STACK CFI 61810 .cfa: sp 32 +
STACK CFI INIT 61924 2d0 .cfa: sp 0 + .ra: lr
STACK CFI 61928 .cfa: sp 16 +
STACK CFI 6192c .ra: .cfa -4 + ^ r4: .cfa -16 + ^ r5: .cfa -12 + ^ r6: .cfa -8 + ^
STACK CFI 61930 .cfa: sp 24 +
STACK CFI INIT 61bf4 674 .cfa: sp 0 + .ra: lr
STACK CFI 61bf8 .cfa: sp 36 +
STACK CFI 61bfc .ra: .cfa -4 + ^ r10: .cfa -12 + ^ r11: .cfa -8 + ^ r4: .cfa -36 + ^ r5: .cfa -32 + ^ r6: .cfa -28 + ^ r7: .cfa -24 + ^ r8: .cfa -20 + ^ r9: .cfa -16 + ^
STACK CFI 61c04 .cfa: sp 56 +
STACK CFI INIT 62268 980 .cfa: sp 0 + .ra: lr
STACK CFI 6226c .cfa: sp 36 +
STACK CFI 62270 .ra: .cfa -4 + ^ r10: .cfa -12 + ^ r11: .cfa -8 + ^ r4: .cfa -36 + ^ r5: .cfa -32 + ^ r6: .cfa -28 + ^ r7: .cfa -24 + ^ r8: .cfa -20 + ^ r9: .cfa -16 + ^
STACK CFI 6227c .cfa: sp 80 +
STACK CFI INIT 62be8 364 .cfa: sp 0 + .ra: lr
STACK CFI 62bf0 .cfa: sp 16 +
STACK CFI 62bf8 .cfa: sp 32 +
STACK CFI 62c00 .ra: .cfa -4 + ^ r4: .cfa -16 + ^ r5: .cfa -12 + ^ r6: .cfa -8 + ^
STACK CFI INIT 62f4c 658 .cfa: sp 0 + .ra: lr
STACK CFI 62f50 .cfa: sp 36 +
STACK CFI 62f54 .ra: .cfa -4 + ^ r10: .cfa -12 + ^ r11: .cfa -8 + ^ r4: .cfa -36 + ^ r5: .cfa -32 + ^ r6: .cfa -28 + ^ r7: .cfa -24 + ^ r8: .cfa -20 + ^ r9: .cfa -16 + ^
STACK CFI 62f58 .cfa: sp 80 +
STACK CFI INIT 635a4 768 .cfa: sp 0 + .ra: lr
STACK CFI 635a8 .cfa: sp 36 +
STACK CFI 635ac .ra: .cfa -4 + ^ r10: .cfa -12 + ^ r11: .cfa -8 + ^ r4: .cfa -36 + ^ r5: .cfa -32 + ^ r6: .cfa -28 + ^ r7: .cfa -24 + ^ r8: .cfa -20 + ^ r9: .cfa -16 + ^
STACK CFI 635b4 .cfa: sp 88 +
STACK CFI INIT 63d0c c .cfa: sp 0 + .ra: lr
STACK CFI INIT 63d18 3a4 .cfa: sp 0 + .ra: lr
STACK CFI 63d1c .cfa: sp 16 +
STACK CFI 63d20 .ra: .cfa -4 + ^ r4: .cfa -16 + ^ r5: .cfa -12 + ^ r6: .cfa -8 + ^
STACK CFI 63d24 .cfa: sp 32 +
STACK CFI INIT 640bc 4 .cfa: sp 0 + .ra: lr
STACK CFI INIT 640c0 278 .cfa: sp 0 + .ra: lr
STACK CFI 640d0 .cfa: sp 24 +
STACK CFI 640d4 .ra: .cfa -4 + ^ r4: .cfa -24 + ^ r5: .cfa -20 + ^ r6: .cfa -16 + ^ r7: .cfa -12 + ^ r8: .cfa -8 + ^
STACK CFI INIT 64338 ac .cfa: sp 0 + .ra: lr
STACK CFI 6433c .cfa: sp 12 +
STACK CFI 64340 .ra: .cfa -4 + ^ r4: .cfa -12 + ^ r5: .cfa -8 + ^
STACK CFI 64344 .cfa: sp 24 +
STACK CFI INIT 643e4 110 .cfa: sp 0 + .ra: lr
STACK CFI 643e8 .cfa: sp 20 +
STACK CFI 643ec .ra: .cfa -4 + ^ r4: .cfa -20 + ^ r5: .cfa -16 + ^ r6: .cfa -12 + ^ r7: .cfa -8 + ^
STACK CFI 643f4 .cfa: sp 32 +
STACK CFI INIT 644f4 1330 .cfa: sp 0 + .ra: lr
STACK CFI 644f8 .cfa: sp 36 +
STACK CFI 644fc .ra: .cfa -4 + ^ r10: .cfa -12 + ^ r11: .cfa -8 + ^ r4: .cfa -36 + ^ r5: .cfa -32 + ^ r6: .cfa -28 + ^ r7: .cfa -24 + ^ r8: .cfa -20 + ^ r9: .cfa -16 + ^
STACK CFI 64500 .cfa: sp 88 +
STACK CFI INIT 65824 28c .cfa: sp 0 + .ra: lr
STACK CFI 65828 .cfa: sp 36 +
STACK CFI 6582c .cfa: sp 48 +
STACK CFI 65830 .ra: .cfa -4 + ^ r10: .cfa -12 + ^ r11: .cfa -8 + ^ r4: .cfa -36 + ^ r5: .cfa -32 + ^ r6: .cfa -28 + ^ r7: .cfa -24 + ^ r8: .cfa -20 + ^ r9: .cfa -16 + ^
STACK CFI INIT 65ab0 ac .cfa: sp 0 + .ra: lr
STACK CFI 65ab4 .cfa: sp 24 +
STACK CFI 65ab8 .ra: .cfa -4 + ^ r4: .cfa -24 + ^ r5: .cfa -20 + ^ r6: .cfa -16 + ^ r7: .cfa -12 + ^ r8: .cfa -8 + ^
STACK CFI INIT 65b5c c .cfa: sp 0 + .ra: lr
STACK CFI INIT 65b68 14c .cfa: sp 0 + .ra: lr
STACK CFI 65b6c .cfa: sp 32 +
STACK CFI 65b70 .ra: .cfa -4 + ^ r10: .cfa -8 + ^ r3: .cfa -32 + ^ r4: .cfa -28 + ^ r5: .cfa -24 + ^ r6: .cfa -20 + ^ r7: .cfa -16 + ^ r8: .cfa -12 + ^
STACK CFI INIT 65cb4 70 .cfa: sp 0 + .ra: lr
STACK CFI 65cb8 .cfa: sp 24 +
STACK CFI 65cbc .ra: .cfa -4 + ^ r3: .cfa -24 + ^ r4: .cfa -20 + ^ r5: .cfa -16 + ^ r6: .cfa -12 + ^ r7: .cfa -8 + ^
STACK CFI INIT 65d24 c .cfa: sp 0 + .ra: lr
STACK CFI INIT 65d30 1c .cfa: sp 0 + .ra: lr
STACK CFI INIT 65d4c 60 .cfa: sp 0 + .ra: lr
STACK CFI 65d58 .cfa: sp 16 +
STACK CFI 65d60 .ra: .cfa -4 + ^ r3: .cfa -16 + ^ r4: .cfa -12 + ^ r5: .cfa -8 + ^
STACK CFI INIT 65dac 44 .cfa: sp 0 + .ra: lr
STACK CFI 65db8 .cfa: sp 8 +
STACK CFI 65dc0 .ra: .cfa -4 + ^ r4: .cfa -8 + ^
STACK CFI INIT 65df0 e8 .cfa: sp 0 + .ra: lr
STACK CFI 65dfc .cfa: sp 24 +
STACK CFI 65e00 .ra: .cfa -4 + ^ r3: .cfa -24 + ^ r4: .cfa -20 + ^ r5: .cfa -16 + ^ r6: .cfa -12 + ^ r7: .cfa -8 + ^
STACK CFI INIT 65ed8 a0 .cfa: sp 0 + .ra: lr
STACK CFI 65edc .cfa: sp 16 +
STACK CFI 65ee0 .ra: .cfa -4 + ^ r4: .cfa -16 + ^ r5: .cfa -12 + ^ r6: .cfa -8 + ^
STACK CFI INIT 65f78 2b0 .cfa: sp 0 + .ra: lr
STACK CFI 65f7c .cfa: sp 16 +
STACK CFI 65f80 .ra: .cfa -4 + ^ r4: .cfa -16 + ^ r5: .cfa -12 + ^ r6: .cfa -8 + ^
STACK CFI INIT 66228 120 .cfa: sp 0 + .ra: lr
STACK CFI INIT 66348 104 .cfa: sp 0 + .ra: lr
STACK CFI 6634c .cfa: sp 32 +
STACK CFI 66350 .ra: .cfa -4 + ^ r10: .cfa -8 + ^ r3: .cfa -32 + ^ r4: .cfa -28 + ^ r5: .cfa -24 + ^ r6: .cfa -20 + ^ r7: .cfa -16 + ^ r8: .cfa -12 + ^
STACK CFI INIT 6644c 5c .cfa: sp 0 + .ra: lr
STACK CFI 66450 .cfa: sp 12 +
STACK CFI 66454 .ra: .cfa -4 + ^ r4: .cfa -12 + ^ r5: .cfa -8 + ^
STACK CFI 66458 .cfa: sp 32 +
STACK CFI INIT 664a8 50 .cfa: sp 0 + .ra: lr
STACK CFI 664ac .cfa: sp 16 +
STACK CFI 664b0 .ra: .cfa -4 + ^ r4: .cfa -16 + ^ r5: .cfa -12 + ^ r6: .cfa -8 + ^
STACK CFI 664b4 .cfa: sp 24 +
STACK CFI INIT 664f8 74 .cfa: sp 0 + .ra: lr
STACK CFI 664fc .cfa: sp 24 +
STACK CFI 66500 .ra: .cfa -4 + ^ r4: .cfa -24 + ^ r5: .cfa -20 + ^ r6: .cfa -16 + ^ r7: .cfa -12 + ^ r8: .cfa -8 + ^
STACK CFI INIT 6656c bc .cfa: sp 0 + .ra: lr
STACK CFI 66570 .cfa: sp 24 +
STACK CFI 66574 .ra: .cfa -4 + ^ r4: .cfa -24 + ^ r5: .cfa -20 + ^ r6: .cfa -16 + ^ r7: .cfa -12 + ^ r8: .cfa -8 + ^
STACK CFI 66578 .cfa: sp 40 +
STACK CFI INIT 66628 c4 .cfa: sp 0 + .ra: lr
STACK CFI 6662c .cfa: sp 24 +
STACK CFI 66630 .ra: .cfa -4 + ^ r4: .cfa -24 + ^ r5: .cfa -20 + ^ r6: .cfa -16 + ^ r7: .cfa -12 + ^ r8: .cfa -8 + ^
STACK CFI 66634 .cfa: sp 32 +
STACK CFI INIT 666ec 8c .cfa: sp 0 + .ra: lr
STACK CFI 666f0 .cfa: sp 16 +
STACK CFI 666f4 .ra: .cfa -4 + ^ r4: .cfa -16 + ^ r5: .cfa -12 + ^ r6: .cfa -8 + ^
STACK CFI 666f8 .cfa: sp 24 +
STACK CFI INIT 66778 7c .cfa: sp 0 + .ra: lr
STACK CFI 6677c .cfa: sp 16 +
STACK CFI 66780 .ra: .cfa -4 + ^ r4: .cfa -16 + ^ r5: .cfa -12 + ^ r6: .cfa -8 + ^
STACK CFI 66788 .cfa: sp 32 +
STACK CFI INIT 667f4 cc .cfa: sp 0 + .ra: lr
STACK CFI 667f8 .cfa: sp 20 +
STACK CFI 667fc .ra: .cfa -4 + ^ r4: .cfa -20 + ^ r5: .cfa -16 + ^ r6: .cfa -12 + ^ r7: .cfa -8 + ^
STACK CFI 66800 .cfa: sp 40 +
STACK CFI INIT 668c0 c0 .cfa: sp 0 + .ra: lr
STACK CFI 668c4 .cfa: sp 20 +
STACK CFI 668c8 .ra: .cfa -4 + ^ r4: .cfa -20 + ^ r5: .cfa -16 + ^ r6: .cfa -12 + ^ r7: .cfa -8 + ^
STACK CFI 668cc .cfa: sp 32 +
STACK CFI INIT 66980 c4 .cfa: sp 0 + .ra: lr
STACK CFI 66984 .cfa: sp 24 +
STACK CFI 66988 .ra: .cfa -4 + ^ r4: .cfa -24 + ^ r5: .cfa -20 + ^ r6: .cfa -16 + ^ r7: .cfa -12 + ^ r8: .cfa -8 + ^
STACK CFI 6698c .cfa: sp 32 +
STACK CFI INIT 66a44 36c .cfa: sp 0 + .ra: lr
STACK CFI 66a4c .cfa: sp 40 +
STACK CFI 66a50 .ra: .cfa -4 + ^ r10: .cfa -12 + ^ r11: .cfa -8 + ^ r3: .cfa -40 + ^ r4: .cfa -36 + ^ r5: .cfa -32 + ^ r6: .cfa -28 + ^ r7: .cfa -24 + ^ r8: .cfa -20 + ^ r9: .cfa -16 + ^
STACK CFI INIT 66db0 39c .cfa: sp 0 + .ra: lr
STACK CFI 66db4 .cfa: sp 36 +
STACK CFI 66db8 .ra: .cfa -4 + ^ r10: .cfa -12 + ^ r11: .cfa -8 + ^ r4: .cfa -36 + ^ r5: .cfa -32 + ^ r6: .cfa -28 + ^ r7: .cfa -24 + ^ r8: .cfa -20 + ^ r9: .cfa -16 + ^
STACK CFI 66dbc .cfa: sp 160 +
STACK CFI INIT 6714c 4c .cfa: sp 0 + .ra: lr
STACK CFI 67150 .cfa: sp 16 +
STACK CFI 67154 .ra: .cfa -4 + ^ r3: .cfa -16 + ^ r4: .cfa -12 + ^ r5: .cfa -8 + ^
STACK CFI INIT 67198 20c .cfa: sp 0 + .ra: lr
STACK CFI 6719c .cfa: sp 24 +
STACK CFI 671a0 .ra: .cfa -4 + ^ r4: .cfa -24 + ^ r5: .cfa -20 + ^ r6: .cfa -16 + ^ r7: .cfa -12 + ^ r8: .cfa -8 + ^
STACK CFI INIT 673a4 8 .cfa: sp 0 + .ra: lr
STACK CFI INIT 673ac 774 .cfa: sp 0 + .ra: lr
STACK CFI 673b0 .cfa: sp 36 +
STACK CFI 673b4 .ra: .cfa -4 + ^ r10: .cfa -12 + ^ r11: .cfa -8 + ^ r4: .cfa -36 + ^ r5: .cfa -32 + ^ r6: .cfa -28 + ^ r7: .cfa -24 + ^ r8: .cfa -20 + ^ r9: .cfa -16 + ^
STACK CFI 673b8 .cfa: sp 48 +
STACK CFI INIT 67b20 14c .cfa: sp 0 + .ra: lr
STACK CFI 67b24 .cfa: sp 28 +
STACK CFI 67b28 .ra: .cfa -4 + ^ r10: .cfa -8 + ^ r4: .cfa -28 + ^ r5: .cfa -24 + ^ r6: .cfa -20 + ^ r7: .cfa -16 + ^ r8: .cfa -12 + ^
STACK CFI 67b30 .cfa: sp 40 +
STACK CFI INIT 67c6c 114 .cfa: sp 0 + .ra: lr
STACK CFI 67c70 .cfa: sp 32 +
STACK CFI 67c74 .ra: .cfa -4 + ^ r10: .cfa -8 + ^ r4: .cfa -32 + ^ r5: .cfa -28 + ^ r6: .cfa -24 + ^ r7: .cfa -20 + ^ r8: .cfa -16 + ^ r9: .cfa -12 + ^
STACK CFI INIT 67d80 8 .cfa: sp 0 + .ra: lr
STACK CFI INIT 67d88 1c .cfa: sp 0 + .ra: lr
STACK CFI 67d8c .cfa: sp 4 +
STACK CFI 67d94 .cfa: sp 16 +
STACK CFI 67d98 .ra: .cfa -4 + ^
STACK CFI INIT 67da4 c0 .cfa: sp 0 + .ra: lr
STACK CFI 67da8 .cfa: sp 24 +
STACK CFI 67dac .ra: .cfa -4 + ^ r4: .cfa -24 + ^ r5: .cfa -20 + ^ r6: .cfa -16 + ^ r7: .cfa -12 + ^ r8: .cfa -8 + ^
STACK CFI 67db0 .cfa: sp 32 +
STACK CFI INIT 67e64 20 .cfa: sp 0 + .ra: lr
STACK CFI 67e68 .cfa: sp 4 +
STACK CFI 67e70 .cfa: sp 16 +
STACK CFI 67e78 .ra: .cfa -4 + ^
STACK CFI INIT 67e84 fc .cfa: sp 0 + .ra: lr
STACK CFI 67e88 .cfa: sp 24 +
STACK CFI 67e8c .ra: .cfa -4 + ^ r4: .cfa -24 + ^ r5: .cfa -20 + ^ r6: .cfa -16 + ^ r7: .cfa -12 + ^ r8: .cfa -8 + ^
STACK CFI 67e90 .cfa: sp 32 +
STACK CFI INIT 67f80 c8 .cfa: sp 0 + .ra: lr
STACK CFI 67f84 .cfa: sp 16 +
STACK CFI 67f88 .ra: .cfa -4 + ^ r4: .cfa -16 + ^ r5: .cfa -12 + ^ r6: .cfa -8 + ^
STACK CFI INIT 68048 c4 .cfa: sp 0 + .ra: lr
STACK CFI 68054 .cfa: sp 16 +
STACK CFI 68058 .ra: .cfa -4 + ^ r4: .cfa -16 + ^ r5: .cfa -12 + ^ r6: .cfa -8 + ^
STACK CFI INIT 6810c 100 .cfa: sp 0 + .ra: lr
STACK CFI 68118 .cfa: sp 24 +
STACK CFI 6811c .ra: .cfa -4 + ^ r4: .cfa -24 + ^ r5: .cfa -20 + ^ r6: .cfa -16 + ^ r7: .cfa -12 + ^ r8: .cfa -8 + ^
STACK CFI INIT 6820c 8 .cfa: sp 0 + .ra: lr
STACK CFI INIT 68214 44 .cfa: sp 0 + .ra: lr
STACK CFI INIT 68258 7c .cfa: sp 0 + .ra: lr
STACK CFI 6825c .cfa: sp 4 +
STACK CFI 68260 .ra: .cfa -4 + ^
STACK CFI 68264 .cfa: sp 64 +
STACK CFI INIT 682d4 74 .cfa: sp 0 + .ra: lr
STACK CFI 682d8 .cfa: sp 4 +
STACK CFI 682dc .ra: .cfa -4 + ^
STACK CFI 682e0 .cfa: sp 64 +
STACK CFI INIT 68348 2d4 .cfa: sp 0 + .ra: lr
STACK CFI 68350 .cfa: sp 4 +
STACK CFI 68358 .cfa: sp 16 +
STACK CFI 6835c .ra: .cfa -4 + ^
STACK CFI INIT 6861c 1fc .cfa: sp 0 + .ra: lr
STACK CFI 68620 .cfa: sp 12 +
STACK CFI 68624 .ra: .cfa -4 + ^ r4: .cfa -12 + ^ r5: .cfa -8 + ^
STACK CFI 68628 .cfa: sp 24 +
STACK CFI INIT 68818 74 .cfa: sp 0 + .ra: lr
STACK CFI 6881c .cfa: sp 4 +
STACK CFI 68820 .ra: .cfa -4 + ^
STACK CFI 68824 .cfa: sp 64 +
STACK CFI INIT 6888c 198 .cfa: sp 0 + .ra: lr
STACK CFI 68898 .cfa: sp 20 +
STACK CFI 6889c .ra: .cfa -4 + ^ r4: .cfa -20 + ^ r5: .cfa -16 + ^ r6: .cfa -12 + ^ r7: .cfa -8 + ^
STACK CFI 688a0 .cfa: sp 32 +
STACK CFI INIT 68a24 f4 .cfa: sp 0 + .ra: lr
STACK CFI 68a2c .cfa: sp 12 +
STACK CFI 68a34 .cfa: sp 24 +
STACK CFI 68a38 .ra: .cfa -4 + ^ r4: .cfa -12 + ^ r5: .cfa -8 + ^
STACK CFI INIT 68b18 4d8 .cfa: sp 0 + .ra: lr
STACK CFI 68b20 .cfa: sp 20 +
STACK CFI 68b24 .ra: .cfa -4 + ^ r4: .cfa -20 + ^ r5: .cfa -16 + ^ r6: .cfa -12 + ^ r7: .cfa -8 + ^
STACK CFI 68b34 .cfa: sp 32 +
STACK CFI INIT 68ff0 11c .cfa: sp 0 + .ra: lr
STACK CFI 68ff4 .cfa: sp 16 +
STACK CFI 68ff8 .ra: .cfa -4 + ^ r4: .cfa -16 + ^ r5: .cfa -12 + ^ r6: .cfa -8 + ^
STACK CFI INIT 6910c 144 .cfa: sp 0 + .ra: lr
STACK CFI 69110 .cfa: sp 24 +
STACK CFI 69114 .ra: .cfa -4 + ^ r4: .cfa -24 + ^ r5: .cfa -20 + ^ r6: .cfa -16 + ^ r7: .cfa -12 + ^ r8: .cfa -8 + ^
STACK CFI INIT 69250 158 .cfa: sp 0 + .ra: lr
STACK CFI 69254 .cfa: sp 12 +
STACK CFI 69258 .ra: .cfa -4 + ^ r4: .cfa -12 + ^ r5: .cfa -8 + ^
STACK CFI 6925c .cfa: sp 24 +
STACK CFI INIT 693a8 190 .cfa: sp 0 + .ra: lr
STACK CFI 693ac .cfa: sp 16 +
STACK CFI 693b0 .ra: .cfa -4 + ^ r3: .cfa -16 + ^ r4: .cfa -12 + ^ r5: .cfa -8 + ^
STACK CFI INIT 69538 244 .cfa: sp 0 + .ra: lr
STACK CFI 6953c .cfa: sp 24 +
STACK CFI 69540 .cfa: sp 5016 +
STACK CFI 69544 .ra: .cfa -4 + ^ r4: .cfa -24 + ^ r5: .cfa -20 + ^ r6: .cfa -16 + ^ r7: .cfa -12 + ^ r8: .cfa -8 + ^
STACK CFI 69548 .cfa: sp 5032 +
STACK CFI INIT 6977c e88 .cfa: sp 0 + .ra: lr
STACK CFI 69780 .cfa: sp 20 +
STACK CFI 69784 .ra: .cfa -4 + ^ r4: .cfa -20 + ^ r5: .cfa -16 + ^ r6: .cfa -12 + ^ r7: .cfa -8 + ^
STACK CFI 6978c .cfa: sp 32 +
STACK CFI INIT 6a604 88 .cfa: sp 0 + .ra: lr
STACK CFI 6a608 .cfa: sp 16 +
STACK CFI 6a60c .ra: .cfa -4 + ^ r4: .cfa -16 + ^ r5: .cfa -12 + ^ r6: .cfa -8 + ^
STACK CFI INIT 6a68c 2c .cfa: sp 0 + .ra: lr
STACK CFI 6a690 .cfa: sp 16 +
STACK CFI 6a694 .ra: .cfa -4 + ^ r3: .cfa -16 + ^ r4: .cfa -12 + ^ r5: .cfa -8 + ^
STACK CFI INIT 6a6b8 f8 .cfa: sp 0 + .ra: lr
STACK CFI 6a6bc .cfa: sp 16 +
STACK CFI 6a6c0 .ra: .cfa -4 + ^ r4: .cfa -16 + ^ r5: .cfa -12 + ^ r6: .cfa -8 + ^
STACK CFI INIT 6a7b0 80 .cfa: sp 0 + .ra: lr
STACK CFI 6a7b4 .cfa: sp 16 +
STACK CFI 6a7b8 .ra: .cfa -4 + ^ r4: .cfa -16 + ^ r5: .cfa -12 + ^ r6: .cfa -8 + ^
STACK CFI INIT 6a830 164 .cfa: sp 0 + .ra: lr
STACK CFI 6a838 .cfa: sp 24 +
STACK CFI 6a83c .ra: .cfa -4 + ^ r4: .cfa -24 + ^ r5: .cfa -20 + ^ r6: .cfa -16 + ^ r7: .cfa -12 + ^ r8: .cfa -8 + ^
STACK CFI INIT 6a994 84 .cfa: sp 0 + .ra: lr
STACK CFI 6a9a0 .cfa: sp 8 +
STACK CFI 6a9a8 .cfa: sp 152 +
STACK CFI 6a9ac .ra: .cfa -4 + ^ r4: .cfa -8 + ^
STACK CFI INIT 6aa18 198 .cfa: sp 0 + .ra: lr
STACK CFI 6aa24 .cfa: sp 12 +
STACK CFI 6aa2c .cfa: sp 160 +
STACK CFI 6aa30 .ra: .cfa -4 + ^ r4: .cfa -12 + ^ r5: .cfa -8 + ^
STACK CFI INIT 6abb0 a0 .cfa: sp 0 + .ra: lr
STACK CFI 6abbc .cfa: sp 12 +
STACK CFI 6abc4 .cfa: sp 160 +
STACK CFI 6abc8 .ra: .cfa -4 + ^ r4: .cfa -12 + ^ r5: .cfa -8 + ^
STACK CFI INIT 6ac50 7c .cfa: sp 0 + .ra: lr
STACK CFI 6ac5c .cfa: sp 8 +
STACK CFI 6ac64 .ra: .cfa -4 + ^ r4: .cfa -8 + ^
STACK CFI INIT 6accc 84 .cfa: sp 0 + .ra: lr
STACK CFI 6acd8 .cfa: sp 8 +
STACK CFI 6ace0 .cfa: sp 152 +
STACK CFI 6ace4 .ra: .cfa -4 + ^ r4: .cfa -8 + ^
STACK CFI INIT 6ad50 98 .cfa: sp 0 + .ra: lr
STACK CFI 6ad5c .cfa: sp 8 +
STACK CFI 6ad64 .cfa: sp 152 +
STACK CFI 6ad68 .ra: .cfa -4 + ^ r4: .cfa -8 + ^
STACK CFI INIT 6ade8 98 .cfa: sp 0 + .ra: lr
STACK CFI 6adf4 .cfa: sp 8 +
STACK CFI 6adfc .cfa: sp 152 +
STACK CFI 6ae00 .ra: .cfa -4 + ^ r4: .cfa -8 + ^
STACK CFI INIT 6ae80 9c .cfa: sp 0 + .ra: lr
STACK CFI 6ae8c .cfa: sp 4 +
STACK CFI 6ae94 .cfa: sp 152 +
STACK CFI 6ae98 .ra: .cfa -4 + ^
STACK CFI INIT 6af1c 9c .cfa: sp 0 + .ra: lr
STACK CFI 6af28 .cfa: sp 4 +
STACK CFI 6af30 .cfa: sp 152 +
STACK CFI 6af34 .ra: .cfa -4 + ^
STACK CFI INIT 6afb8 108 .cfa: sp 0 + .ra: lr
STACK CFI 6afc4 .cfa: sp 12 +
STACK CFI 6afcc .cfa: sp 160 +
STACK CFI 6afd0 .ra: .cfa -4 + ^ r4: .cfa -12 + ^ r5: .cfa -8 + ^
STACK CFI INIT 6b0c0 a0 .cfa: sp 0 + .ra: lr
STACK CFI 6b0cc .cfa: sp 4 +
STACK CFI 6b0d4 .cfa: sp 152 +
STACK CFI 6b0d8 .ra: .cfa -4 + ^
STACK CFI INIT 6b160 b8 .cfa: sp 0 + .ra: lr
STACK CFI INIT 6b218 2c0 .cfa: sp 0 + .ra: lr
STACK CFI 6b21c .cfa: sp 16 +
STACK CFI 6b220 .ra: .cfa -4 + ^ r4: .cfa -16 + ^ r5: .cfa -12 + ^ r6: .cfa -8 + ^
STACK CFI INIT 6b4d8 28 .cfa: sp 0 + .ra: lr
STACK CFI INIT 6b500 1b8 .cfa: sp 0 + .ra: lr
STACK CFI 6b504 .cfa: sp 16 +
STACK CFI 6b508 .ra: .cfa -4 + ^ r3: .cfa -16 + ^ r4: .cfa -12 + ^ r5: .cfa -8 + ^
STACK CFI INIT 6b6b8 4 .cfa: sp 0 + .ra: lr
STACK CFI INIT 6b6bc 4 .cfa: sp 0 + .ra: lr
STACK CFI INIT 6b6c0 98 .cfa: sp 0 + .ra: lr
STACK CFI 6b6c4 .cfa: sp 16 +
STACK CFI 6b6c8 .ra: .cfa -4 + ^ r3: .cfa -16 + ^ r4: .cfa -12 + ^ r5: .cfa -8 + ^
STACK CFI INIT 6b758 ac .cfa: sp 0 + .ra: lr
STACK CFI 6b75c .cfa: sp 16 +
STACK CFI 6b760 .ra: .cfa -4 + ^ r4: .cfa -16 + ^ r5: .cfa -12 + ^ r6: .cfa -8 + ^
STACK CFI INIT 6b804 88 .cfa: sp 0 + .ra: lr
STACK CFI 6b808 .cfa: sp 8 +
STACK CFI 6b80c .ra: .cfa -4 + ^ r3: .cfa -8 + ^
STACK CFI INIT 6b88c a4 .cfa: sp 0 + .ra: lr
STACK CFI 6b890 .cfa: sp 8 +
STACK CFI 6b894 .ra: .cfa -4 + ^ r4: .cfa -8 + ^
STACK CFI INIT 6b930 e4 .cfa: sp 0 + .ra: lr
STACK CFI 6b934 .cfa: sp 24 +
STACK CFI 6b938 .ra: .cfa -4 + ^ r3: .cfa -24 + ^ r4: .cfa -20 + ^ r5: .cfa -16 + ^ r6: .cfa -12 + ^ r7: .cfa -8 + ^
STACK CFI INIT 6ba14 13c .cfa: sp 0 + .ra: lr
STACK CFI 6ba1c .cfa: sp 16 +
STACK CFI 6ba20 .ra: .cfa -4 + ^ r4: .cfa -16 + ^ r5: .cfa -12 + ^ r6: .cfa -8 + ^
STACK CFI 6ba24 .cfa: sp 24 +
STACK CFI INIT 6bb50 104 .cfa: sp 0 + .ra: lr
STACK CFI 6bb58 .cfa: sp 16 +
STACK CFI 6bb5c .ra: .cfa -4 + ^ r3: .cfa -16 + ^ r4: .cfa -12 + ^ r5: .cfa -8 + ^
STACK CFI INIT 6bc54 b8 .cfa: sp 0 + .ra: lr
STACK CFI 6bc5c .cfa: sp 12 +
STACK CFI 6bc60 .ra: .cfa -4 + ^ r4: .cfa -12 + ^ r5: .cfa -8 + ^
STACK CFI 6bc64 .cfa: sp 80 +
STACK CFI INIT 6bd0c 1fc .cfa: sp 0 + .ra: lr
STACK CFI 6bd10 .cfa: sp 36 +
STACK CFI 6bd14 .ra: .cfa -4 + ^ r10: .cfa -12 + ^ r11: .cfa -8 + ^ r4: .cfa -36 + ^ r5: .cfa -32 + ^ r6: .cfa -28 + ^ r7: .cfa -24 + ^ r8: .cfa -20 + ^ r9: .cfa -16 + ^
STACK CFI 6bd18 .cfa: sp 48 +
STACK CFI INIT 6bf08 8c .cfa: sp 0 + .ra: lr
STACK CFI 6bf0c .cfa: sp 24 +
STACK CFI 6bf10 .ra: .cfa -4 + ^ r3: .cfa -24 + ^ r4: .cfa -20 + ^ r5: .cfa -16 + ^ r6: .cfa -12 + ^ r7: .cfa -8 + ^
STACK CFI INIT 6bf94 18b0 .cfa: sp 0 + .ra: lr
STACK CFI 6bf98 .cfa: sp 36 +
STACK CFI 6bf9c .ra: .cfa -4 + ^ r10: .cfa -12 + ^ r11: .cfa -8 + ^ r4: .cfa -36 + ^ r5: .cfa -32 + ^ r6: .cfa -28 + ^ r7: .cfa -24 + ^ r8: .cfa -20 + ^ r9: .cfa -16 + ^
STACK CFI 6bfa4 .cfa: sp 1572 +
STACK CFI 6bfac .cfa: sp 1584 +
STACK CFI INIT 6d844 a4 .cfa: sp 0 + .ra: lr
STACK CFI 6d848 .cfa: sp 28 +
STACK CFI 6d84c .ra: .cfa -4 + ^ r10: .cfa -8 + ^ r4: .cfa -28 + ^ r5: .cfa -24 + ^ r6: .cfa -20 + ^ r7: .cfa -16 + ^ r8: .cfa -12 + ^
STACK CFI 6d850 .cfa: sp 40 +
STACK CFI INIT 6d8e8 b8 .cfa: sp 0 + .ra: lr
STACK CFI 6d8ec .cfa: sp 24 +
STACK CFI 6d8f0 .ra: .cfa -4 + ^ r3: .cfa -24 + ^ r4: .cfa -20 + ^ r5: .cfa -16 + ^ r6: .cfa -12 + ^ r7: .cfa -8 + ^
STACK CFI INIT 6d9a0 84 .cfa: sp 0 + .ra: lr
STACK CFI 6d9a4 .cfa: sp 16 +
STACK CFI 6d9a8 .ra: .cfa -4 + ^ r3: .cfa -16 + ^ r4: .cfa -12 + ^ r5: .cfa -8 + ^
STACK CFI INIT 6da24 588 .cfa: sp 0 + .ra: lr
STACK CFI 6da30 .cfa: sp 16 +
STACK CFI 6da3c r4: .cfa -16 + ^ r5: .cfa -12 + ^ r6: .cfa -8 + ^ r7: .cfa -4 + ^
STACK CFI INIT 6dfac 24 .cfa: sp 0 + .ra: lr
STACK CFI INIT 6dfd0 90 .cfa: sp 0 + .ra: lr
STACK CFI INIT 6e060 d4 .cfa: sp 0 + .ra: lr
STACK CFI INIT 6e134 4c .cfa: sp 0 + .ra: lr
STACK CFI INIT 6e180 58 .cfa: sp 0 + .ra: lr
STACK CFI INIT 6e1d8 70 .cfa: sp 0 + .ra: lr
STACK CFI INIT 6e248 b0 .cfa: sp 0 + .ra: lr
STACK CFI INIT 6e2f8 10c .cfa: sp 0 + .ra: lr
STACK CFI INIT 6e404 54 .cfa: sp 0 + .ra: lr
STACK CFI INIT 6e458 ec .cfa: sp 0 + .ra: lr
STACK CFI 6e45c .cfa: sp 24 +
STACK CFI 6e460 .ra: .cfa -4 + ^ r3: .cfa -24 + ^ r4: .cfa -20 + ^ r5: .cfa -16 + ^ r6: .cfa -12 + ^ r7: .cfa -8 + ^
STACK CFI INIT 6e544 14c .cfa: sp 0 + .ra: lr
STACK CFI 6e548 .cfa: sp 8 +
STACK CFI 6e54c .ra: .cfa -4 + ^ r4: .cfa -8 + ^
STACK CFI 6e550 .cfa: sp 264 +
STACK CFI INIT 6e690 114 .cfa: sp 0 + .ra: lr
STACK CFI 6e694 .cfa: sp 16 +
STACK CFI 6e698 .ra: .cfa -4 + ^ r4: .cfa -16 + ^ r5: .cfa -12 + ^ r6: .cfa -8 + ^
STACK CFI 6e6a4 .cfa: sp 24 +
STACK CFI INIT 6e7a4 dc .cfa: sp 0 + .ra: lr
STACK CFI 6e7a8 .cfa: sp 24 +
STACK CFI 6e7ac .ra: .cfa -4 + ^ r3: .cfa -24 + ^ r4: .cfa -20 + ^ r5: .cfa -16 + ^ r6: .cfa -12 + ^ r7: .cfa -8 + ^
STACK CFI INIT 6e880 d0 .cfa: sp 0 + .ra: lr
STACK CFI 6e884 .cfa: sp 24 +
STACK CFI 6e888 .ra: .cfa -4 + ^ r4: .cfa -24 + ^ r5: .cfa -20 + ^ r6: .cfa -16 + ^ r7: .cfa -12 + ^ r8: .cfa -8 + ^
STACK CFI INIT 6e950 dc .cfa: sp 0 + .ra: lr
STACK CFI 6e954 .cfa: sp 24 +
STACK CFI 6e958 .ra: .cfa -4 + ^ r3: .cfa -24 + ^ r4: .cfa -20 + ^ r5: .cfa -16 + ^ r6: .cfa -12 + ^ r7: .cfa -8 + ^
STACK CFI INIT 6ea2c 158 .cfa: sp 0 + .ra: lr
STACK CFI 6ea3c .cfa: sp 24 +
STACK CFI 6ea44 .ra: .cfa -4 + ^ r4: .cfa -24 + ^ r5: .cfa -20 + ^ r6: .cfa -16 + ^ r7: .cfa -12 + ^ r8: .cfa -8 + ^
STACK CFI INIT 6eb84 1fc .cfa: sp 0 + .ra: lr
STACK CFI 6eb88 .cfa: sp 24 +
STACK CFI 6eb8c .ra: .cfa -4 + ^ r4: .cfa -24 + ^ r5: .cfa -20 + ^ r6: .cfa -16 + ^ r7: .cfa -12 + ^ r8: .cfa -8 + ^
STACK CFI INIT 6ed80 1a4 .cfa: sp 0 + .ra: lr
STACK CFI 6ed84 .cfa: sp 16 +
STACK CFI 6ed88 .ra: .cfa -4 + ^ r3: .cfa -16 + ^ r4: .cfa -12 + ^ r5: .cfa -8 + ^
STACK CFI INIT 6ef24 30 .cfa: sp 0 + .ra: lr
STACK CFI INIT 6ef54 f8 .cfa: sp 0 + .ra: lr
STACK CFI 6ef58 .cfa: sp 8 +
STACK CFI 6ef5c .ra: .cfa -4 + ^ r4: .cfa -8 + ^
STACK CFI INIT 6f04c 1a8 .cfa: sp 0 + .ra: lr
STACK CFI 6f050 .cfa: sp 40 +
STACK CFI 6f054 .ra: .cfa -4 + ^ r10: .cfa -12 + ^ r11: .cfa -8 + ^ r3: .cfa -40 + ^ r4: .cfa -36 + ^ r5: .cfa -32 + ^ r6: .cfa -28 + ^ r7: .cfa -24 + ^ r8: .cfa -20 + ^ r9: .cfa -16 + ^
STACK CFI INIT 6f1f4 108 .cfa: sp 0 + .ra: lr
STACK CFI INIT 6f2fc 100 .cfa: sp 0 + .ra: lr
STACK CFI 6f304 .cfa: sp 4 +
STACK CFI 6f30c r4: .cfa -4 + ^
STACK CFI INIT 6f3fc 1dc .cfa: sp 0 + .ra: lr
STACK CFI 6f400 .cfa: sp 16 +
STACK CFI 6f404 .ra: .cfa -4 + ^ r4: .cfa -16 + ^ r5: .cfa -12 + ^ r6: .cfa -8 + ^
STACK CFI INIT 6f5d8 4f4 .cfa: sp 0 + .ra: lr
STACK CFI 6f5e0 .cfa: sp 36 +
STACK CFI 6f5e8 .cfa: sp 64 +
STACK CFI 6f5f4 .ra: .cfa -4 + ^ r10: .cfa -12 + ^ r11: .cfa -8 + ^ r4: .cfa -36 + ^ r5: .cfa -32 + ^ r6: .cfa -28 + ^ r7: .cfa -24 + ^ r8: .cfa -20 + ^ r9: .cfa -16 + ^
STACK CFI INIT 6facc 190 .cfa: sp 0 + .ra: lr
STACK CFI 6fad0 .cfa: sp 40 +
STACK CFI 6fad4 .ra: .cfa -4 + ^ r10: .cfa -12 + ^ r11: .cfa -8 + ^ r3: .cfa -40 + ^ r4: .cfa -36 + ^ r5: .cfa -32 + ^ r6: .cfa -28 + ^ r7: .cfa -24 + ^ r8: .cfa -20 + ^ r9: .cfa -16 + ^
STACK CFI INIT 6fc5c fc .cfa: sp 0 + .ra: lr
STACK CFI 6fc60 .cfa: sp 24 +
STACK CFI 6fc64 .ra: .cfa -4 + ^ r3: .cfa -24 + ^ r4: .cfa -20 + ^ r5: .cfa -16 + ^ r6: .cfa -12 + ^ r7: .cfa -8 + ^
STACK CFI INIT 6fd58 100 .cfa: sp 0 + .ra: lr
STACK CFI 6fd6c .cfa: sp 8 +
STACK CFI 6fd70 .ra: .cfa -4 + ^ r4: .cfa -8 + ^
STACK CFI 6fd74 .cfa: sp 112 +
STACK CFI INIT 6fe58 70 .cfa: sp 0 + .ra: lr
STACK CFI 6fe68 .cfa: sp 16 +
STACK CFI 6fe74 .ra: .cfa -4 + ^ r3: .cfa -16 + ^ r4: .cfa -12 + ^ r5: .cfa -8 + ^
STACK CFI INIT 6fec8 1bc .cfa: sp 0 + .ra: lr
STACK CFI 6fecc .cfa: sp 36 +
STACK CFI 6fed0 .ra: .cfa -4 + ^ r10: .cfa -12 + ^ r11: .cfa -8 + ^ r4: .cfa -36 + ^ r5: .cfa -32 + ^ r6: .cfa -28 + ^ r7: .cfa -24 + ^ r8: .cfa -20 + ^ r9: .cfa -16 + ^
STACK CFI 6fee0 .cfa: sp 48 +
STACK CFI INIT 70084 a8 .cfa: sp 0 + .ra: lr
STACK CFI 7008c .cfa: sp 16 +
STACK CFI 70094 r4: .cfa -16 + ^ r5: .cfa -12 + ^ r6: .cfa -8 + ^ r7: .cfa -4 + ^
STACK CFI 70098 .cfa: sp 24 +
STACK CFI INIT 7012c 3c .cfa: sp 0 + .ra: lr
STACK CFI 70130 .cfa: sp 16 +
STACK CFI 70134 .ra: .cfa -4 + ^ r3: .cfa -16 + ^ r4: .cfa -12 + ^ r5: .cfa -8 + ^
STACK CFI INIT 70168 1e8 .cfa: sp 0 + .ra: lr
STACK CFI 70170 .cfa: sp 32 +
STACK CFI 70174 .ra: .cfa -4 + ^ r10: .cfa -8 + ^ r4: .cfa -32 + ^ r5: .cfa -28 + ^ r6: .cfa -24 + ^ r7: .cfa -20 + ^ r8: .cfa -16 + ^ r9: .cfa -12 + ^
STACK CFI 70188 .cfa: sp 88 +
STACK CFI INIT 70350 18c .cfa: sp 0 + .ra: lr
STACK CFI 70358 .cfa: sp 8 +
STACK CFI 7035c .ra: .cfa -4 + ^ r4: .cfa -8 + ^
STACK CFI INIT 704dc 4d8 .cfa: sp 0 + .ra: lr
STACK CFI 704e0 .cfa: sp 36 +
STACK CFI 704e4 .cfa: sp 152 +
STACK CFI 704e8 .ra: .cfa -4 + ^ r10: .cfa -12 + ^ r11: .cfa -8 + ^ r4: .cfa -36 + ^ r5: .cfa -32 + ^ r6: .cfa -28 + ^ r7: .cfa -24 + ^ r8: .cfa -20 + ^ r9: .cfa -16 + ^
STACK CFI INIT 709b4 8 .cfa: sp 0 + .ra: lr
STACK CFI INIT 709bc 8b0 .cfa: sp 0 + .ra: lr
STACK CFI 709c0 .cfa: sp 28 +
STACK CFI 709c4 .ra: .cfa -4 + ^ r10: .cfa -8 + ^ r4: .cfa -28 + ^ r5: .cfa -24 + ^ r6: .cfa -20 + ^ r7: .cfa -16 + ^ r8: .cfa -12 + ^
STACK CFI 709c8 .cfa: sp 336 +
STACK CFI INIT 7126c 96c .cfa: sp 0 + .ra: lr
STACK CFI 71274 .cfa: sp 36 +
STACK CFI 71278 .ra: .cfa -4 + ^ r10: .cfa -12 + ^ r11: .cfa -8 + ^ r4: .cfa -36 + ^ r5: .cfa -32 + ^ r6: .cfa -28 + ^ r7: .cfa -24 + ^ r8: .cfa -20 + ^ r9: .cfa -16 + ^
STACK CFI 71284 .cfa: sp 160 +
STACK CFI INIT 71bd8 d8 .cfa: sp 0 + .ra: lr
STACK CFI 71be4 .cfa: sp 16 +
STACK CFI 71bf0 .cfa: sp 120 +
STACK CFI 71bf4 .ra: .cfa -4 + ^ r4: .cfa -16 + ^ r5: .cfa -12 + ^ r6: .cfa -8 + ^
STACK CFI INIT 71cb0 128 .cfa: sp 0 + .ra: lr
STACK CFI 71cb8 .cfa: sp 20 +
STACK CFI 71cbc .ra: .cfa -4 + ^ r4: .cfa -20 + ^ r5: .cfa -16 + ^ r6: .cfa -12 + ^ r7: .cfa -8 + ^
STACK CFI 71cc4 .cfa: sp 32 +
STACK CFI INIT 71dd8 4c .cfa: sp 0 + .ra: lr
STACK CFI INIT 71e24 c8 .cfa: sp 0 + .ra: lr
STACK CFI 71e34 .cfa: sp 16 +
STACK CFI 71e3c .ra: .cfa -4 + ^ r4: .cfa -16 + ^ r5: .cfa -12 + ^ r6: .cfa -8 + ^
STACK CFI INIT 71eec 9c .cfa: sp 0 + .ra: lr
STACK CFI INIT 71f88 300 .cfa: sp 0 + .ra: lr
STACK CFI 71f94 .cfa: sp 16 +
STACK CFI 71fa0 r4: .cfa -16 + ^ r5: .cfa -12 + ^ r6: .cfa -8 + ^ r7: .cfa -4 + ^
STACK CFI INIT 72288 d8 .cfa: sp 0 + .ra: lr
STACK CFI 7228c .cfa: sp 36 +
STACK CFI 72294 .cfa: sp 56 +
STACK CFI 7229c .ra: .cfa -4 + ^ r10: .cfa -12 + ^ r11: .cfa -8 + ^ r4: .cfa -36 + ^ r5: .cfa -32 + ^ r6: .cfa -28 + ^ r7: .cfa -24 + ^ r8: .cfa -20 + ^ r9: .cfa -16 + ^
STACK CFI INIT 72360 8c .cfa: sp 0 + .ra: lr
STACK CFI 72364 .cfa: sp 16 +
STACK CFI 72368 .ra: .cfa -4 + ^ r3: .cfa -16 + ^ r4: .cfa -12 + ^ r5: .cfa -8 + ^
STACK CFI INIT 723ec c0 .cfa: sp 0 + .ra: lr
STACK CFI 723f0 .cfa: sp 16 +
STACK CFI 723f4 .ra: .cfa -4 + ^ r4: .cfa -16 + ^ r5: .cfa -12 + ^ r6: .cfa -8 + ^
STACK CFI INIT 724ac 6c .cfa: sp 0 + .ra: lr
STACK CFI 724b0 .cfa: sp 16 +
STACK CFI 724b4 .ra: .cfa -4 + ^ r3: .cfa -16 + ^ r4: .cfa -12 + ^ r5: .cfa -8 + ^
STACK CFI INIT 72518 134 .cfa: sp 0 + .ra: lr
STACK CFI 7251c .cfa: sp 24 +
STACK CFI 72520 .ra: .cfa -4 + ^ r4: .cfa -24 + ^ r5: .cfa -20 + ^ r6: .cfa -16 + ^ r7: .cfa -12 + ^ r8: .cfa -8 + ^
STACK CFI INIT 7264c 1dc .cfa: sp 0 + .ra: lr
STACK CFI 72650 .cfa: sp 36 +
STACK CFI 72654 .ra: .cfa -4 + ^ r10: .cfa -12 + ^ r11: .cfa -8 + ^ r4: .cfa -36 + ^ r5: .cfa -32 + ^ r6: .cfa -28 + ^ r7: .cfa -24 + ^ r8: .cfa -20 + ^ r9: .cfa -16 + ^
STACK CFI 7265c .cfa: sp 48 +
STACK CFI INIT 72828 380 .cfa: sp 0 + .ra: lr
STACK CFI 72830 .cfa: sp 36 +
STACK CFI 72838 .ra: .cfa -4 + ^ r10: .cfa -12 + ^ r11: .cfa -8 + ^ r4: .cfa -36 + ^ r5: .cfa -32 + ^ r6: .cfa -28 + ^ r7: .cfa -24 + ^ r8: .cfa -20 + ^ r9: .cfa -16 + ^
STACK CFI 7284c .cfa: sp 56 +
STACK CFI INIT 72ba8 118 .cfa: sp 0 + .ra: lr
STACK CFI 72bb4 .cfa: sp 16 +
STACK CFI 72bb8 .ra: .cfa -4 + ^ r4: .cfa -16 + ^ r5: .cfa -12 + ^ r6: .cfa -8 + ^
STACK CFI INIT 72cc0 1dc .cfa: sp 0 + .ra: lr
STACK CFI 72cc4 .cfa: sp 24 +
STACK CFI 72cc8 .ra: .cfa -4 + ^ r4: .cfa -24 + ^ r5: .cfa -20 + ^ r6: .cfa -16 + ^ r7: .cfa -12 + ^ r8: .cfa -8 + ^
STACK CFI 72cd4 .cfa: sp 32 +
STACK CFI INIT 72e9c 1b4 .cfa: sp 0 + .ra: lr
STACK CFI 72eac .cfa: sp 24 +
STACK CFI 72eb4 .ra: .cfa -4 + ^ r4: .cfa -24 + ^ r5: .cfa -20 + ^ r6: .cfa -16 + ^ r7: .cfa -12 + ^ r8: .cfa -8 + ^
STACK CFI INIT 73050 14c .cfa: sp 0 + .ra: lr
STACK CFI 73054 .cfa: sp 24 +
STACK CFI 73058 .ra: .cfa -4 + ^ r4: .cfa -24 + ^ r5: .cfa -20 + ^ r6: .cfa -16 + ^ r7: .cfa -12 + ^ r8: .cfa -8 + ^
STACK CFI INIT 7319c 2d8 .cfa: sp 0 + .ra: lr
STACK CFI 731a0 .cfa: sp 36 +
STACK CFI 731a4 .ra: .cfa -4 + ^ r10: .cfa -12 + ^ r11: .cfa -8 + ^ r4: .cfa -36 + ^ r5: .cfa -32 + ^ r6: .cfa -28 + ^ r7: .cfa -24 + ^ r8: .cfa -20 + ^ r9: .cfa -16 + ^
STACK CFI 731ac .cfa: sp 56 +
STACK CFI INIT 73474 11c .cfa: sp 0 + .ra: lr
STACK CFI 73478 .cfa: sp 16 +
STACK CFI 7347c .ra: .cfa -4 + ^ r3: .cfa -16 + ^ r4: .cfa -12 + ^ r5: .cfa -8 + ^
STACK CFI INIT 73590 d0 .cfa: sp 0 + .ra: lr
STACK CFI 73594 .cfa: sp 12 +
STACK CFI 73598 .ra: .cfa -4 + ^ r4: .cfa -12 + ^ r5: .cfa -8 + ^
STACK CFI 7359c .cfa: sp 24 +
STACK CFI INIT 73660 b0 .cfa: sp 0 + .ra: lr
STACK CFI 73664 .cfa: sp 16 +
STACK CFI 73668 .ra: .cfa -4 + ^ r4: .cfa -16 + ^ r5: .cfa -12 + ^ r6: .cfa -8 + ^
STACK CFI INIT 73710 d8 .cfa: sp 0 + .ra: lr
STACK CFI 73714 .cfa: sp 16 +
STACK CFI 73718 .ra: .cfa -4 + ^ r3: .cfa -16 + ^ r4: .cfa -12 + ^ r5: .cfa -8 + ^
STACK CFI INIT 737e8 154 .cfa: sp 0 + .ra: lr
STACK CFI 737ec .cfa: sp 24 +
STACK CFI 737f0 .ra: .cfa -4 + ^ r4: .cfa -24 + ^ r5: .cfa -20 + ^ r6: .cfa -16 + ^ r7: .cfa -12 + ^ r8: .cfa -8 + ^
STACK CFI INIT 7393c 330 .cfa: sp 0 + .ra: lr
STACK CFI 73940 .cfa: sp 16 +
STACK CFI 73944 .ra: .cfa -4 + ^ r4: .cfa -16 + ^ r5: .cfa -12 + ^ r6: .cfa -8 + ^
STACK CFI INIT 73c6c 88 .cfa: sp 0 + .ra: lr
STACK CFI 73c70 .cfa: sp 16 +
STACK CFI 73c74 .ra: .cfa -4 + ^ r3: .cfa -16 + ^ r4: .cfa -12 + ^ r5: .cfa -8 + ^
STACK CFI INIT 73cf4 84 .cfa: sp 0 + .ra: lr
STACK CFI 73cf8 .cfa: sp 16 +
STACK CFI 73cfc .ra: .cfa -4 + ^ r4: .cfa -16 + ^ r5: .cfa -12 + ^ r6: .cfa -8 + ^
STACK CFI INIT 73d78 98 .cfa: sp 0 + .ra: lr
STACK CFI 73d80 .cfa: sp 16 +
STACK CFI 73d84 .ra: .cfa -4 + ^ r3: .cfa -16 + ^ r4: .cfa -12 + ^ r5: .cfa -8 + ^
STACK CFI INIT 73e10 ec .cfa: sp 0 + .ra: lr
STACK CFI 73e18 .cfa: sp 16 +
STACK CFI 73e1c .ra: .cfa -4 + ^ r4: .cfa -16 + ^ r5: .cfa -12 + ^ r6: .cfa -8 + ^
STACK CFI INIT 73efc 3a4 .cfa: sp 0 + .ra: lr
STACK CFI 73f08 .cfa: sp 36 +
STACK CFI 73f0c .ra: .cfa -4 + ^ r10: .cfa -12 + ^ r11: .cfa -8 + ^ r4: .cfa -36 + ^ r5: .cfa -32 + ^ r6: .cfa -28 + ^ r7: .cfa -24 + ^ r8: .cfa -20 + ^ r9: .cfa -16 + ^
STACK CFI 73f10 .cfa: sp 48 +
STACK CFI INIT 742a0 a0 .cfa: sp 0 + .ra: lr
STACK CFI 742a8 .cfa: sp 16 +
STACK CFI 742ac .ra: .cfa -4 + ^ r3: .cfa -16 + ^ r4: .cfa -12 + ^ r5: .cfa -8 + ^
STACK CFI INIT 74340 74 .cfa: sp 0 + .ra: lr
STACK CFI 74344 .cfa: sp 16 +
STACK CFI 74348 .ra: .cfa -4 + ^ r4: .cfa -16 + ^ r5: .cfa -12 + ^ r6: .cfa -8 + ^
STACK CFI INIT 743b4 88 .cfa: sp 0 + .ra: lr
STACK CFI 743bc .cfa: sp 16 +
STACK CFI 743c0 .ra: .cfa -4 + ^ r3: .cfa -16 + ^ r4: .cfa -12 + ^ r5: .cfa -8 + ^
STACK CFI INIT 7443c 58 .cfa: sp 0 + .ra: lr
STACK CFI INIT 74494 30 .cfa: sp 0 + .ra: lr
STACK CFI 74498 .cfa: sp 8 +
STACK CFI 7449c .ra: .cfa -4 + ^ r3: .cfa -8 + ^
STACK CFI INIT 744c4 138 .cfa: sp 0 + .ra: lr
STACK CFI 744c8 .cfa: sp 32 +
STACK CFI 744cc .ra: .cfa -4 + ^ r10: .cfa -8 + ^ r3: .cfa -32 + ^ r4: .cfa -28 + ^ r5: .cfa -24 + ^ r6: .cfa -20 + ^ r7: .cfa -16 + ^ r8: .cfa -12 + ^
STACK CFI INIT 745fc 13c .cfa: sp 0 + .ra: lr
STACK CFI 74600 .cfa: sp 32 +
STACK CFI 74604 .ra: .cfa -4 + ^ r10: .cfa -8 + ^ r3: .cfa -32 + ^ r4: .cfa -28 + ^ r5: .cfa -24 + ^ r6: .cfa -20 + ^ r7: .cfa -16 + ^ r8: .cfa -12 + ^
STACK CFI INIT 74738 114 .cfa: sp 0 + .ra: lr
STACK CFI 7473c .cfa: sp 24 +
STACK CFI 74740 .ra: .cfa -4 + ^ r3: .cfa -24 + ^ r4: .cfa -20 + ^ r5: .cfa -16 + ^ r6: .cfa -12 + ^ r7: .cfa -8 + ^
STACK CFI INIT 7484c 100 .cfa: sp 0 + .ra: lr
STACK CFI 74850 .cfa: sp 24 +
STACK CFI 74854 .ra: .cfa -4 + ^ r4: .cfa -24 + ^ r5: .cfa -20 + ^ r6: .cfa -16 + ^ r7: .cfa -12 + ^ r8: .cfa -8 + ^
STACK CFI INIT 7494c 20 .cfa: sp 0 + .ra: lr
STACK CFI 74950 .cfa: sp 16 +
STACK CFI 74954 .ra: .cfa -4 + ^ r4: .cfa -16 + ^ r5: .cfa -12 + ^ r6: .cfa -8 + ^
STACK CFI INIT 7496c 30 .cfa: sp 0 + .ra: lr
STACK CFI INIT 7499c 88 .cfa: sp 0 + .ra: lr
STACK CFI 749a0 .cfa: sp 16 +
STACK CFI 749a4 .ra: .cfa -4 + ^ r4: .cfa -16 + ^ r5: .cfa -12 + ^ r6: .cfa -8 + ^
STACK CFI INIT 74a24 124 .cfa: sp 0 + .ra: lr
STACK CFI 74a28 .cfa: sp 24 +
STACK CFI 74a2c .ra: .cfa -4 + ^ r4: .cfa -24 + ^ r5: .cfa -20 + ^ r6: .cfa -16 + ^ r7: .cfa -12 + ^ r8: .cfa -8 + ^
STACK CFI INIT 74b48 20 .cfa: sp 0 + .ra: lr
STACK CFI 74b4c .cfa: sp 16 +
STACK CFI 74b50 .ra: .cfa -4 + ^ r4: .cfa -16 + ^ r5: .cfa -12 + ^ r6: .cfa -8 + ^
STACK CFI INIT 74b68 30 .cfa: sp 0 + .ra: lr
STACK CFI INIT 74b98 88 .cfa: sp 0 + .ra: lr
STACK CFI 74b9c .cfa: sp 16 +
STACK CFI 74ba0 .ra: .cfa -4 + ^ r4: .cfa -16 + ^ r5: .cfa -12 + ^ r6: .cfa -8 + ^
STACK CFI INIT 74c20 7c .cfa: sp 0 + .ra: lr
STACK CFI 74c24 .cfa: sp 8 +
STACK CFI 74c28 .ra: .cfa -4 + ^ r4: .cfa -8 + ^
STACK CFI 74c2c .cfa: sp 24 +
STACK CFI INIT 74c9c c .cfa: sp 0 + .ra: lr
STACK CFI INIT 74ca8 10 .cfa: sp 0 + .ra: lr
STACK CFI INIT 74cb8 60 .cfa: sp 0 + .ra: lr
STACK CFI 74cbc .cfa: sp 16 +
STACK CFI 74cc0 .ra: .cfa -4 + ^ r4: .cfa -16 + ^ r5: .cfa -12 + ^ r6: .cfa -8 + ^
STACK CFI INIT 74d18 4c .cfa: sp 0 + .ra: lr
STACK CFI 74d1c .cfa: sp 16 +
STACK CFI 74d20 .ra: .cfa -4 + ^ r4: .cfa -16 + ^ r5: .cfa -12 + ^ r6: .cfa -8 + ^
STACK CFI INIT 74d64 24 .cfa: sp 0 + .ra: lr
STACK CFI 74d68 .cfa: sp 8 +
STACK CFI 74d6c .ra: .cfa -4 + ^ r4: .cfa -8 + ^
STACK CFI INIT 74d88 94 .cfa: sp 0 + .ra: lr
STACK CFI 74d8c .cfa: sp 8 +
STACK CFI 74d90 .ra: .cfa -4 + ^ r4: .cfa -8 + ^
STACK CFI 74d94 .cfa: sp 32 +
STACK CFI INIT 74e1c c .cfa: sp 0 + .ra: lr
STACK CFI INIT 74e28 10 .cfa: sp 0 + .ra: lr
STACK CFI INIT 74e38 2c .cfa: sp 0 + .ra: lr
STACK CFI 74e3c .cfa: sp 8 +
STACK CFI 74e40 .ra: .cfa -4 + ^ r4: .cfa -8 + ^
STACK CFI INIT 74e64 c4 .cfa: sp 0 + .ra: lr
STACK CFI 74e68 .cfa: sp 16 +
STACK CFI 74e6c .ra: .cfa -4 + ^ r4: .cfa -16 + ^ r5: .cfa -12 + ^ r6: .cfa -8 + ^
STACK CFI 74e74 .cfa: sp 24 +
STACK CFI INIT 74f28 c0 .cfa: sp 0 + .ra: lr
STACK CFI 74f2c .cfa: sp 24 +
STACK CFI 74f30 .ra: .cfa -4 + ^ r4: .cfa -24 + ^ r5: .cfa -20 + ^ r6: .cfa -16 + ^ r7: .cfa -12 + ^ r8: .cfa -8 + ^
STACK CFI INIT 74fe8 3c .cfa: sp 0 + .ra: lr
STACK CFI 74ff0 .cfa: sp 8 +
STACK CFI 74ff4 .ra: .cfa -4 + ^ r4: .cfa -8 + ^
STACK CFI INIT 75024 94 .cfa: sp 0 + .ra: lr
STACK CFI 7502c .cfa: sp 16 +
STACK CFI 75030 .ra: .cfa -4 + ^ r4: .cfa -16 + ^ r5: .cfa -12 + ^ r6: .cfa -8 + ^
STACK CFI INIT 750b8 a0 .cfa: sp 0 + .ra: lr
STACK CFI 750c0 .cfa: sp 4 +
STACK CFI 750c4 r4: .cfa -4 + ^
STACK CFI INIT 75158 120 .cfa: sp 0 + .ra: lr
STACK CFI 7515c .cfa: sp 16 +
STACK CFI 75160 .ra: .cfa -4 + ^ r4: .cfa -16 + ^ r5: .cfa -12 + ^ r6: .cfa -8 + ^
STACK CFI INIT 75278 64 .cfa: sp 0 + .ra: lr
STACK CFI 7527c .cfa: sp 16 +
STACK CFI 75280 .ra: .cfa -4 + ^ r4: .cfa -16 + ^ r5: .cfa -12 + ^ r6: .cfa -8 + ^
STACK CFI INIT 752dc 64 .cfa: sp 0 + .ra: lr
STACK CFI 752e0 .cfa: sp 16 +
STACK CFI 752e4 .ra: .cfa -4 + ^ r4: .cfa -16 + ^ r5: .cfa -12 + ^ r6: .cfa -8 + ^
STACK CFI INIT 75340 94 .cfa: sp 0 + .ra: lr
STACK CFI 75348 .cfa: sp 16 +
STACK CFI 7534c .ra: .cfa -4 + ^ r3: .cfa -16 + ^ r4: .cfa -12 + ^ r5: .cfa -8 + ^
STACK CFI INIT 753d4 a0 .cfa: sp 0 + .ra: lr
STACK CFI INIT 75474 38 .cfa: sp 0 + .ra: lr
STACK CFI 75478 .cfa: sp 8 +
STACK CFI 7547c .ra: .cfa -4 + ^ r4: .cfa -8 + ^
STACK CFI INIT 754ac 3c .cfa: sp 0 + .ra: lr
STACK CFI 754b0 .cfa: sp 8 +
STACK CFI 754b4 .ra: .cfa -4 + ^ r4: .cfa -8 + ^
STACK CFI INIT 754e8 bc .cfa: sp 0 + .ra: lr
STACK CFI 754f0 .cfa: sp 16 +
STACK CFI 754f4 .ra: .cfa -4 + ^ r3: .cfa -16 + ^ r4: .cfa -12 + ^ r5: .cfa -8 + ^
STACK CFI INIT 755a4 f4 .cfa: sp 0 + .ra: lr
STACK CFI 755ac .cfa: sp 16 +
STACK CFI 755b0 .ra: .cfa -4 + ^ r4: .cfa -16 + ^ r5: .cfa -12 + ^ r6: .cfa -8 + ^
STACK CFI INIT 75698 90 .cfa: sp 0 + .ra: lr
STACK CFI 756a0 .cfa: sp 16 +
STACK CFI 756a4 .ra: .cfa -4 + ^ r3: .cfa -16 + ^ r4: .cfa -12 + ^ r5: .cfa -8 + ^
STACK CFI INIT 75728 90 .cfa: sp 0 + .ra: lr
STACK CFI INIT 757b8 98 .cfa: sp 0 + .ra: lr
STACK CFI 757c0 .cfa: sp 16 +
STACK CFI 757c4 .ra: .cfa -4 + ^ r3: .cfa -16 + ^ r4: .cfa -12 + ^ r5: .cfa -8 + ^
STACK CFI INIT 75850 c4 .cfa: sp 0 + .ra: lr
STACK CFI 75858 .cfa: sp 8 +
STACK CFI 7585c .ra: .cfa -4 + ^ r4: .cfa -8 + ^
STACK CFI INIT 75914 15c .cfa: sp 0 + .ra: lr
STACK CFI 75918 .cfa: sp 16 +
STACK CFI 7591c .ra: .cfa -4 + ^ r4: .cfa -16 + ^ r5: .cfa -12 + ^ r6: .cfa -8 + ^
STACK CFI INIT 75a70 1b4 .cfa: sp 0 + .ra: lr
STACK CFI 75a74 .cfa: sp 16 +
STACK CFI 75a78 .ra: .cfa -4 + ^ r4: .cfa -16 + ^ r5: .cfa -12 + ^ r6: .cfa -8 + ^
STACK CFI INIT 75c24 f4 .cfa: sp 0 + .ra: lr
STACK CFI 75c28 .cfa: sp 16 +
STACK CFI 75c2c .ra: .cfa -4 + ^ r4: .cfa -16 + ^ r5: .cfa -12 + ^ r6: .cfa -8 + ^
STACK CFI INIT 75d18 4 .cfa: sp 0 + .ra: lr
STACK CFI INIT 75d1c 90 .cfa: sp 0 + .ra: lr
STACK CFI 75d24 .cfa: sp 16 +
STACK CFI 75d28 .ra: .cfa -4 + ^ r3: .cfa -16 + ^ r4: .cfa -12 + ^ r5: .cfa -8 + ^
STACK CFI INIT 75dac 12c .cfa: sp 0 + .ra: lr
STACK CFI 75db0 .cfa: sp 24 +
STACK CFI 75db4 .ra: .cfa -4 + ^ r3: .cfa -24 + ^ r4: .cfa -20 + ^ r5: .cfa -16 + ^ r6: .cfa -12 + ^ r7: .cfa -8 + ^
STACK CFI INIT 75ed8 a8 .cfa: sp 0 + .ra: lr
STACK CFI 75ee0 .cfa: sp 8 +
STACK CFI 75ee4 .ra: .cfa -4 + ^ r4: .cfa -8 + ^
STACK CFI INIT 75f80 6c .cfa: sp 0 + .ra: lr
STACK CFI 75f84 .cfa: sp 16 +
STACK CFI 75f88 .ra: .cfa -4 + ^ r4: .cfa -16 + ^ r5: .cfa -12 + ^ r6: .cfa -8 + ^
STACK CFI INIT 75fec 3c .cfa: sp 0 + .ra: lr
STACK CFI 75ff4 .cfa: sp 8 +
STACK CFI 75ff8 .ra: .cfa -4 + ^ r4: .cfa -8 + ^
STACK CFI INIT 76028 28 .cfa: sp 0 + .ra: lr
STACK CFI INIT 76050 440 .cfa: sp 0 + .ra: lr
STACK CFI 76054 .cfa: sp 16 +
STACK CFI 76058 .cfa: sp 168 +
STACK CFI 7605c .ra: .cfa -4 + ^ r4: .cfa -16 + ^ r5: .cfa -12 + ^ r6: .cfa -8 + ^
STACK CFI INIT 76490 24 .cfa: sp 0 + .ra: lr
STACK CFI 76494 .cfa: sp 8 + .ra: .cfa -4 + ^ r4: .cfa -8 + ^
STACK CFI INIT 764b4 218 .cfa: sp 0 + .ra: lr
STACK CFI 764b8 .cfa: sp 40 +
STACK CFI 764bc .ra: .cfa -4 + ^ r10: .cfa -12 + ^ r11: .cfa -8 + ^ r3: .cfa -40 + ^ r4: .cfa -36 + ^ r5: .cfa -32 + ^ r6: .cfa -28 + ^ r7: .cfa -24 + ^ r8: .cfa -20 + ^ r9: .cfa -16 + ^
STACK CFI INIT 766cc 3c .cfa: sp 0 + .ra: lr
STACK CFI 766d0 .cfa: sp 8 +
STACK CFI 766d4 .ra: .cfa -4 + ^ r4: .cfa -8 + ^
STACK CFI INIT 76708 54 .cfa: sp 0 + .ra: lr
STACK CFI 7670c .cfa: sp 8 +
STACK CFI 76710 .ra: .cfa -4 + ^ r4: .cfa -8 + ^
STACK CFI INIT 7675c f4 .cfa: sp 0 + .ra: lr
STACK CFI 76760 .cfa: sp 16 +
STACK CFI 76764 .ra: .cfa -4 + ^ r4: .cfa -16 + ^ r5: .cfa -12 + ^ r6: .cfa -8 + ^
STACK CFI INIT 76850 84 .cfa: sp 0 + .ra: lr
STACK CFI 76854 .cfa: sp 16 +
STACK CFI 76858 .ra: .cfa -4 + ^ r4: .cfa -16 + ^ r5: .cfa -12 + ^ r6: .cfa -8 + ^
STACK CFI INIT 768d4 164 .cfa: sp 0 + .ra: lr
STACK CFI 768d8 .cfa: sp 32 +
STACK CFI 768dc .ra: .cfa -4 + ^ r10: .cfa -8 + ^ r4: .cfa -32 + ^ r5: .cfa -28 + ^ r6: .cfa -24 + ^ r7: .cfa -20 + ^ r8: .cfa -16 + ^ r9: .cfa -12 + ^
STACK CFI INIT 76a38 220 .cfa: sp 0 + .ra: lr
STACK CFI 76a3c .cfa: sp 36 +
STACK CFI 76a40 .ra: .cfa -4 + ^ r10: .cfa -12 + ^ r11: .cfa -8 + ^ r4: .cfa -36 + ^ r5: .cfa -32 + ^ r6: .cfa -28 + ^ r7: .cfa -24 + ^ r8: .cfa -20 + ^ r9: .cfa -16 + ^
STACK CFI 76a44 .cfa: sp 48 +
STACK CFI INIT 76c58 1ac .cfa: sp 0 + .ra: lr
STACK CFI 76c5c .cfa: sp 28 +
STACK CFI 76c60 .ra: .cfa -4 + ^ r10: .cfa -8 + ^ r4: .cfa -28 + ^ r5: .cfa -24 + ^ r6: .cfa -20 + ^ r7: .cfa -16 + ^ r8: .cfa -12 + ^
STACK CFI 76c64 .cfa: sp 40 +
STACK CFI INIT 76e04 114 .cfa: sp 0 + .ra: lr
STACK CFI 76e08 .cfa: sp 32 +
STACK CFI 76e0c .ra: .cfa -4 + ^ r10: .cfa -8 + ^ r4: .cfa -32 + ^ r5: .cfa -28 + ^ r6: .cfa -24 + ^ r7: .cfa -20 + ^ r8: .cfa -16 + ^ r9: .cfa -12 + ^
STACK CFI INIT 76f18 f4 .cfa: sp 0 + .ra: lr
STACK CFI 76f1c .cfa: sp 24 +
STACK CFI 76f20 .ra: .cfa -4 + ^ r4: .cfa -24 + ^ r5: .cfa -20 + ^ r6: .cfa -16 + ^ r7: .cfa -12 + ^ r8: .cfa -8 + ^
STACK CFI INIT 7700c 124 .cfa: sp 0 + .ra: lr
STACK CFI 77010 .cfa: sp 16 +
STACK CFI 77014 .ra: .cfa -4 + ^ r4: .cfa -16 + ^ r5: .cfa -12 + ^ r6: .cfa -8 + ^
STACK CFI INIT 77130 114 .cfa: sp 0 + .ra: lr
STACK CFI 77134 .cfa: sp 16 +
STACK CFI 77138 .ra: .cfa -4 + ^ r4: .cfa -16 + ^ r5: .cfa -12 + ^ r6: .cfa -8 + ^
STACK CFI INIT 77244 210 .cfa: sp 0 + .ra: lr
STACK CFI 77248 .cfa: sp 24 +
STACK CFI 7724c .ra: .cfa -4 + ^ r4: .cfa -24 + ^ r5: .cfa -20 + ^ r6: .cfa -16 + ^ r7: .cfa -12 + ^ r8: .cfa -8 + ^
STACK CFI INIT 77454 150 .cfa: sp 0 + .ra: lr
STACK CFI 77458 .cfa: sp 24 +
STACK CFI 7745c .ra: .cfa -4 + ^ r4: .cfa -24 + ^ r5: .cfa -20 + ^ r6: .cfa -16 + ^ r7: .cfa -12 + ^ r8: .cfa -8 + ^
STACK CFI INIT 775a4 15c .cfa: sp 0 + .ra: lr
STACK CFI 775a8 .cfa: sp 32 +
STACK CFI 775ac .ra: .cfa -4 + ^ r10: .cfa -8 + ^ r4: .cfa -32 + ^ r5: .cfa -28 + ^ r6: .cfa -24 + ^ r7: .cfa -20 + ^ r8: .cfa -16 + ^ r9: .cfa -12 + ^
STACK CFI INIT 77700 ec .cfa: sp 0 + .ra: lr
STACK CFI 77708 .cfa: sp 8 +
STACK CFI 7770c .ra: .cfa -4 + ^ r4: .cfa -8 + ^
STACK CFI INIT 777ec 64 .cfa: sp 0 + .ra: lr
STACK CFI 777f0 .cfa: sp 16 +
STACK CFI 777f4 .ra: .cfa -4 + ^ r4: .cfa -16 + ^ r5: .cfa -12 + ^ r6: .cfa -8 + ^
STACK CFI INIT 77850 100 .cfa: sp 0 + .ra: lr
STACK CFI 77854 .cfa: sp 16 +
STACK CFI 77858 .ra: .cfa -4 + ^ r4: .cfa -16 + ^ r5: .cfa -12 + ^ r6: .cfa -8 + ^
STACK CFI INIT 77950 18 .cfa: sp 0 + .ra: lr
STACK CFI INIT 77968 4c .cfa: sp 0 + .ra: lr
STACK CFI 7796c .cfa: sp 16 +
STACK CFI 77970 .ra: .cfa -4 + ^ r4: .cfa -16 + ^ r5: .cfa -12 + ^ r6: .cfa -8 + ^
STACK CFI INIT 779b4 24 .cfa: sp 0 + .ra: lr
STACK CFI 779b8 .cfa: sp 8 +
STACK CFI 779bc .ra: .cfa -4 + ^ r3: .cfa -8 + ^
STACK CFI INIT 779d8 18 .cfa: sp 0 + .ra: lr
STACK CFI INIT 779f0 c4 .cfa: sp 0 + .ra: lr
STACK CFI 779f8 .cfa: sp 8 +
STACK CFI 779fc .ra: .cfa -4 + ^ r4: .cfa -8 + ^
STACK CFI INIT 77ab4 80 .cfa: sp 0 + .ra: lr
STACK CFI 77ab8 .cfa: sp 24 +
STACK CFI 77abc .ra: .cfa -4 + ^ r4: .cfa -24 + ^ r5: .cfa -20 + ^ r6: .cfa -16 + ^ r7: .cfa -12 + ^ r8: .cfa -8 + ^
STACK CFI INIT 77b34 78 .cfa: sp 0 + .ra: lr
STACK CFI 77b38 .cfa: sp 8 +
STACK CFI 77b3c .ra: .cfa -4 + ^ r4: .cfa -8 + ^
STACK CFI INIT 77bac 64 .cfa: sp 0 + .ra: lr
STACK CFI 77bb0 .cfa: sp 16 +
STACK CFI 77bb4 .ra: .cfa -4 + ^ r4: .cfa -16 + ^ r5: .cfa -12 + ^ r6: .cfa -8 + ^
STACK CFI INIT 77c10 254 .cfa: sp 0 + .ra: lr
STACK CFI 77c14 .cfa: sp 28 +
STACK CFI 77c18 .ra: .cfa -4 + ^ r10: .cfa -8 + ^ r4: .cfa -28 + ^ r5: .cfa -24 + ^ r6: .cfa -20 + ^ r7: .cfa -16 + ^ r8: .cfa -12 + ^
STACK CFI 77c1c .cfa: sp 40 +
STACK CFI INIT 77e64 40 .cfa: sp 0 + .ra: lr
STACK CFI 77e68 .cfa: sp 16 +
STACK CFI 77e6c .ra: .cfa -4 + ^ r4: .cfa -16 + ^ r5: .cfa -12 + ^ r6: .cfa -8 + ^
STACK CFI INIT 77ea4 64 .cfa: sp 0 + .ra: lr
STACK CFI 77ea8 .cfa: sp 16 +
STACK CFI 77eac .ra: .cfa -4 + ^ r3: .cfa -16 + ^ r4: .cfa -12 + ^ r5: .cfa -8 + ^
STACK CFI INIT 77f08 ec .cfa: sp 0 + .ra: lr
STACK CFI 77f0c .cfa: sp 24 +
STACK CFI 77f10 .ra: .cfa -4 + ^ r3: .cfa -24 + ^ r4: .cfa -20 + ^ r5: .cfa -16 + ^ r6: .cfa -12 + ^ r7: .cfa -8 + ^
STACK CFI INIT 77ff4 80 .cfa: sp 0 + .ra: lr
STACK CFI 77ff8 .cfa: sp 16 +
STACK CFI 77ffc .ra: .cfa -4 + ^ r3: .cfa -16 + ^ r4: .cfa -12 + ^ r5: .cfa -8 + ^
STACK CFI INIT 78074 104 .cfa: sp 0 + .ra: lr
STACK CFI INIT 78178 34 .cfa: sp 0 + .ra: lr
STACK CFI 7817c .cfa: sp 8 +
STACK CFI 78180 .ra: .cfa -4 + ^ r4: .cfa -8 + ^
STACK CFI INIT 781ac f0 .cfa: sp 0 + .ra: lr
STACK CFI 781b0 .cfa: sp 24 +
STACK CFI 781b4 .ra: .cfa -4 + ^ r4: .cfa -24 + ^ r5: .cfa -20 + ^ r6: .cfa -16 + ^ r7: .cfa -12 + ^ r8: .cfa -8 + ^
STACK CFI INIT 7829c 54 .cfa: sp 0 + .ra: lr
STACK CFI 782a4 .cfa: sp 16 +
STACK CFI 782ac .ra: .cfa -4 + ^ r4: .cfa -16 + ^ r5: .cfa -12 + ^ r6: .cfa -8 + ^
STACK CFI INIT 782f0 c4 .cfa: sp 0 + .ra: lr
STACK CFI 782f4 .cfa: sp 16 +
STACK CFI 782f8 .ra: .cfa -4 + ^ r4: .cfa -16 + ^ r5: .cfa -12 + ^ r6: .cfa -8 + ^
STACK CFI INIT 783b4 344 .cfa: sp 0 + .ra: lr
STACK CFI 783bc .cfa: sp 36 +
STACK CFI 783c4 .cfa: sp 64 +
STACK CFI 783d8 .ra: .cfa -4 + ^ r10: .cfa -12 + ^ r11: .cfa -8 + ^ r4: .cfa -36 + ^ r5: .cfa -32 + ^ r6: .cfa -28 + ^ r7: .cfa -24 + ^ r8: .cfa -20 + ^ r9: .cfa -16 + ^
STACK CFI INIT 786f8 4 .cfa: sp 0 + .ra: lr
STACK CFI INIT 786fc 6c .cfa: sp 0 + .ra: lr
STACK CFI 78700 .cfa: sp 24 +
STACK CFI 78704 .ra: .cfa -4 + ^ r3: .cfa -24 + ^ r4: .cfa -20 + ^ r5: .cfa -16 + ^ r6: .cfa -12 + ^ r7: .cfa -8 + ^
STACK CFI INIT 78768 e8 .cfa: sp 0 + .ra: lr
STACK CFI 7876c .cfa: sp 16 +
STACK CFI 78770 .ra: .cfa -4 + ^ r4: .cfa -16 + ^ r5: .cfa -12 + ^ r6: .cfa -8 + ^
STACK CFI INIT 78850 48 .cfa: sp 0 + .ra: lr
STACK CFI 78854 .cfa: sp 16 +
STACK CFI 78858 .ra: .cfa -4 + ^ r4: .cfa -16 + ^ r5: .cfa -12 + ^ r6: .cfa -8 + ^
STACK CFI INIT 78898 78 .cfa: sp 0 + .ra: lr
STACK CFI 7889c .cfa: sp 24 +
STACK CFI 788a0 .ra: .cfa -4 + ^ r3: .cfa -24 + ^ r4: .cfa -20 + ^ r5: .cfa -16 + ^ r6: .cfa -12 + ^ r7: .cfa -8 + ^
STACK CFI INIT 78910 114 .cfa: sp 0 + .ra: lr
STACK CFI 78914 .cfa: sp 24 +
STACK CFI 78918 .ra: .cfa -4 + ^ r4: .cfa -24 + ^ r5: .cfa -20 + ^ r6: .cfa -16 + ^ r7: .cfa -12 + ^ r8: .cfa -8 + ^
STACK CFI INIT 78a24 228 .cfa: sp 0 + .ra: lr
STACK CFI 78a28 .cfa: sp 32 +
STACK CFI 78a2c .ra: .cfa -4 + ^ r10: .cfa -12 + ^ r11: .cfa -8 + ^ r4: .cfa -32 + ^ r5: .cfa -28 + ^ r6: .cfa -24 + ^ r8: .cfa -20 + ^ r9: .cfa -16 + ^
STACK CFI INIT 78c4c 184 .cfa: sp 0 + .ra: lr
STACK CFI 78c50 .cfa: sp 32 +
STACK CFI 78c54 .ra: .cfa -4 + ^ r10: .cfa -12 + ^ r11: .cfa -8 + ^ r4: .cfa -32 + ^ r5: .cfa -28 + ^ r6: .cfa -24 + ^ r8: .cfa -20 + ^ r9: .cfa -16 + ^
STACK CFI INIT 78dd0 134 .cfa: sp 0 + .ra: lr
STACK CFI 78dd4 .cfa: sp 32 +
STACK CFI 78dd8 .ra: .cfa -4 + ^ r10: .cfa -12 + ^ r11: .cfa -8 + ^ r4: .cfa -32 + ^ r5: .cfa -28 + ^ r6: .cfa -24 + ^ r8: .cfa -20 + ^ r9: .cfa -16 + ^
STACK CFI INIT 78f04 32c .cfa: sp 0 + .ra: lr
STACK CFI 78f08 .cfa: sp 36 +
STACK CFI 78f0c .ra: .cfa -4 + ^ r10: .cfa -12 + ^ r11: .cfa -8 + ^ r4: .cfa -36 + ^ r5: .cfa -32 + ^ r6: .cfa -28 + ^ r7: .cfa -24 + ^ r8: .cfa -20 + ^ r9: .cfa -16 + ^
STACK CFI 78f14 .cfa: sp 48 +
STACK CFI INIT 79230 150 .cfa: sp 0 + .ra: lr
STACK CFI 79234 .cfa: sp 32 +
STACK CFI 79238 .ra: .cfa -4 + ^ r10: .cfa -8 + ^ r4: .cfa -32 + ^ r5: .cfa -28 + ^ r6: .cfa -24 + ^ r7: .cfa -20 + ^ r8: .cfa -16 + ^ r9: .cfa -12 + ^
STACK CFI INIT 79380 158 .cfa: sp 0 + .ra: lr
STACK CFI 79384 .cfa: sp 36 +
STACK CFI 79388 .ra: .cfa -4 + ^ r10: .cfa -12 + ^ r11: .cfa -8 + ^ r4: .cfa -36 + ^ r5: .cfa -32 + ^ r6: .cfa -28 + ^ r7: .cfa -24 + ^ r8: .cfa -20 + ^ r9: .cfa -16 + ^
STACK CFI 7938c .cfa: sp 48 +
STACK CFI INIT 794d8 3bc .cfa: sp 0 + .ra: lr
STACK CFI 794dc .cfa: sp 36 +
STACK CFI 794e0 .ra: .cfa -4 + ^ r10: .cfa -12 + ^ r11: .cfa -8 + ^ r4: .cfa -36 + ^ r5: .cfa -32 + ^ r6: .cfa -28 + ^ r7: .cfa -24 + ^ r8: .cfa -20 + ^ r9: .cfa -16 + ^
STACK CFI 794e8 .cfa: sp 48 +
STACK CFI INIT 79894 1f4 .cfa: sp 0 + .ra: lr
STACK CFI 79898 .cfa: sp 24 +
STACK CFI 7989c .ra: .cfa -4 + ^ r4: .cfa -24 + ^ r5: .cfa -20 + ^ r6: .cfa -16 + ^ r7: .cfa -12 + ^ r8: .cfa -8 + ^
STACK CFI 798a0 .cfa: sp 32 +
STACK CFI INIT 79a88 1ec .cfa: sp 0 + .ra: lr
STACK CFI 79a8c .cfa: sp 24 +
STACK CFI 79a90 .ra: .cfa -4 + ^ r4: .cfa -24 + ^ r5: .cfa -20 + ^ r6: .cfa -16 + ^ r7: .cfa -12 + ^ r8: .cfa -8 + ^
STACK CFI 79a94 .cfa: sp 32 +
STACK CFI INIT 79c74 e8 .cfa: sp 0 + .ra: lr
STACK CFI 79c78 .cfa: sp 24 +
STACK CFI 79c7c .ra: .cfa -4 + ^ r4: .cfa -24 + ^ r5: .cfa -20 + ^ r6: .cfa -16 + ^ r7: .cfa -12 + ^ r8: .cfa -8 + ^
STACK CFI INIT 79d5c 204 .cfa: sp 0 + .ra: lr
STACK CFI 79d60 .cfa: sp 32 +
STACK CFI 79d64 .ra: .cfa -4 + ^ r10: .cfa -8 + ^ r4: .cfa -32 + ^ r5: .cfa -28 + ^ r6: .cfa -24 + ^ r7: .cfa -20 + ^ r8: .cfa -16 + ^ r9: .cfa -12 + ^
STACK CFI INIT 79f60 a0 .cfa: sp 0 + .ra: lr
STACK CFI 79f64 .cfa: sp 24 +
STACK CFI 79f68 .ra: .cfa -4 + ^ r4: .cfa -24 + ^ r5: .cfa -20 + ^ r6: .cfa -16 + ^ r7: .cfa -12 + ^ r8: .cfa -8 + ^
STACK CFI INIT 7a000 a0 .cfa: sp 0 + .ra: lr
STACK CFI 7a004 .cfa: sp 24 +
STACK CFI 7a008 .ra: .cfa -4 + ^ r4: .cfa -24 + ^ r5: .cfa -20 + ^ r6: .cfa -16 + ^ r7: .cfa -12 + ^ r8: .cfa -8 + ^
STACK CFI INIT 7a0a0 a0 .cfa: sp 0 + .ra: lr
STACK CFI 7a0a4 .cfa: sp 24 +
STACK CFI 7a0a8 .ra: .cfa -4 + ^ r4: .cfa -24 + ^ r5: .cfa -20 + ^ r6: .cfa -16 + ^ r7: .cfa -12 + ^ r8: .cfa -8 + ^
STACK CFI INIT 7a140 70 .cfa: sp 0 + .ra: lr
STACK CFI 7a144 .cfa: sp 24 +
STACK CFI 7a148 .ra: .cfa -4 + ^ r3: .cfa -24 + ^ r4: .cfa -20 + ^ r5: .cfa -16 + ^ r6: .cfa -12 + ^ r7: .cfa -8 + ^
STACK CFI INIT 7a1b0 f4 .cfa: sp 0 + .ra: lr
STACK CFI 7a1b4 .cfa: sp 24 +
STACK CFI 7a1b8 .ra: .cfa -4 + ^ r4: .cfa -24 + ^ r5: .cfa -20 + ^ r6: .cfa -16 + ^ r7: .cfa -12 + ^ r8: .cfa -8 + ^
STACK CFI INIT 7a2a4 308 .cfa: sp 0 + .ra: lr
STACK CFI 7a2a8 .cfa: sp 36 +
STACK CFI 7a2ac .ra: .cfa -4 + ^ r10: .cfa -12 + ^ r11: .cfa -8 + ^ r4: .cfa -36 + ^ r5: .cfa -32 + ^ r6: .cfa -28 + ^ r7: .cfa -24 + ^ r8: .cfa -20 + ^ r9: .cfa -16 + ^
STACK CFI 7a2b0 .cfa: sp 80 +
STACK CFI INIT 7a5ac 3a8 .cfa: sp 0 + .ra: lr
STACK CFI 7a5b0 .cfa: sp 36 +
STACK CFI 7a5b4 .ra: .cfa -4 + ^ r10: .cfa -12 + ^ r11: .cfa -8 + ^ r4: .cfa -36 + ^ r5: .cfa -32 + ^ r6: .cfa -28 + ^ r7: .cfa -24 + ^ r8: .cfa -20 + ^ r9: .cfa -16 + ^
STACK CFI 7a5b8 .cfa: sp 56 +
STACK CFI INIT 7a954 2a8 .cfa: sp 0 + .ra: lr
STACK CFI 7a958 .cfa: sp 36 +
STACK CFI 7a95c .cfa: sp 48 +
STACK CFI 7a960 .ra: .cfa -4 + ^ r10: .cfa -12 + ^ r11: .cfa -8 + ^ r4: .cfa -36 + ^ r5: .cfa -32 + ^ r6: .cfa -28 + ^ r7: .cfa -24 + ^ r8: .cfa -20 + ^ r9: .cfa -16 + ^
STACK CFI INIT 7abfc 90 .cfa: sp 0 + .ra: lr
STACK CFI 7ac00 .cfa: sp 8 +
STACK CFI 7ac04 .ra: .cfa -4 + ^ r4: .cfa -8 + ^
STACK CFI INIT 7ac8c 11ac .cfa: sp 0 + .ra: lr
STACK CFI 7ac90 .cfa: sp 36 +
STACK CFI 7ac94 .ra: .cfa -4 + ^ r10: .cfa -12 + ^ r11: .cfa -8 + ^ r4: .cfa -36 + ^ r5: .cfa -32 + ^ r6: .cfa -28 + ^ r7: .cfa -24 + ^ r8: .cfa -20 + ^ r9: .cfa -16 + ^
STACK CFI 7ac98 .cfa: sp 72 +
STACK CFI INIT 7be38 2a4 .cfa: sp 0 + .ra: lr
STACK CFI 7be40 .cfa: sp 28 +
STACK CFI 7be44 .ra: .cfa -4 + ^ r10: .cfa -8 + ^ r4: .cfa -28 + ^ r5: .cfa -24 + ^ r6: .cfa -20 + ^ r7: .cfa -16 + ^ r8: .cfa -12 + ^
STACK CFI 7be48 .cfa: sp 56 +
STACK CFI INIT 7c0dc 1a8 .cfa: sp 0 + .ra: lr
STACK CFI 7c0e0 .cfa: sp 16 +
STACK CFI 7c0e4 .ra: .cfa -4 + ^ r4: .cfa -16 + ^ r5: .cfa -12 + ^ r6: .cfa -8 + ^
STACK CFI 7c0e8 .cfa: sp 40 +
STACK CFI INIT 7c284 164 .cfa: sp 0 + .ra: lr
STACK CFI 7c288 .cfa: sp 16 +
STACK CFI 7c28c .ra: .cfa -4 + ^ r4: .cfa -16 + ^ r5: .cfa -12 + ^ r6: .cfa -8 + ^
STACK CFI 7c290 .cfa: sp 40 +
STACK CFI INIT 7c3e8 178 .cfa: sp 0 + .ra: lr
STACK CFI 7c3ec .cfa: sp 20 +
STACK CFI 7c3f0 .ra: .cfa -4 + ^ r4: .cfa -20 + ^ r5: .cfa -16 + ^ r6: .cfa -12 + ^ r7: .cfa -8 + ^
STACK CFI 7c3f4 .cfa: sp 48 +
STACK CFI INIT 7c560 174 .cfa: sp 0 + .ra: lr
STACK CFI 7c564 .cfa: sp 16 +
STACK CFI 7c568 .ra: .cfa -4 + ^ r4: .cfa -16 + ^ r5: .cfa -12 + ^ r6: .cfa -8 + ^
STACK CFI 7c56c .cfa: sp 40 +
STACK CFI INIT 7c6d4 144 .cfa: sp 0 + .ra: lr
STACK CFI 7c6d8 .cfa: sp 12 +
STACK CFI 7c6dc .ra: .cfa -4 + ^ r4: .cfa -12 + ^ r5: .cfa -8 + ^
STACK CFI 7c6e0 .cfa: sp 40 +
STACK CFI INIT 7c818 188 .cfa: sp 0 + .ra: lr
STACK CFI 7c81c .cfa: sp 16 +
STACK CFI 7c820 .ra: .cfa -4 + ^ r4: .cfa -16 + ^ r5: .cfa -12 + ^ r6: .cfa -8 + ^
STACK CFI 7c824 .cfa: sp 40 +
STACK CFI INIT 7c9a0 1b0 .cfa: sp 0 + .ra: lr
STACK CFI 7c9a8 .cfa: sp 16 +
STACK CFI 7c9ac .ra: .cfa -4 + ^ r4: .cfa -16 + ^ r5: .cfa -12 + ^ r6: .cfa -8 + ^
STACK CFI 7c9b8 .cfa: sp 40 +
STACK CFI INIT 7cb50 b68 .cfa: sp 0 + .ra: lr
STACK CFI 7cb54 .cfa: sp 36 +
STACK CFI 7cb58 .ra: .cfa -4 + ^ r10: .cfa -12 + ^ r11: .cfa -8 + ^ r4: .cfa -36 + ^ r5: .cfa -32 + ^ r6: .cfa -28 + ^ r7: .cfa -24 + ^ r8: .cfa -20 + ^ r9: .cfa -16 + ^
STACK CFI 7cb5c .cfa: sp 72 +
STACK CFI INIT 7d6b8 278 .cfa: sp 0 + .ra: lr
STACK CFI 7d6c0 .cfa: sp 16 +
STACK CFI 7d6c4 .ra: .cfa -4 + ^ r4: .cfa -16 + ^ r5: .cfa -12 + ^ r6: .cfa -8 + ^
STACK CFI 7d6c8 .cfa: sp 40 +
STACK CFI INIT 7d930 f4 .cfa: sp 0 + .ra: lr
STACK CFI 7d93c .cfa: sp 8 +
STACK CFI 7d940 .ra: .cfa -4 + ^ r4: .cfa -8 + ^
STACK CFI INIT 7da24 108 .cfa: sp 0 + .ra: lr
STACK CFI 7da30 .cfa: sp 8 +
STACK CFI 7da34 .ra: .cfa -4 + ^ r4: .cfa -8 + ^
STACK CFI INIT 7db2c 198 .cfa: sp 0 + .ra: lr
STACK CFI 7db30 .cfa: sp 16 +
STACK CFI 7db34 .ra: .cfa -4 + ^ r4: .cfa -16 + ^ r5: .cfa -12 + ^ r6: .cfa -8 + ^
STACK CFI 7db38 .cfa: sp 24 +
STACK CFI INIT 7dcc4 284 .cfa: sp 0 + .ra: lr
STACK CFI 7dccc .cfa: sp 36 +
STACK CFI 7dcd0 .ra: .cfa -4 + ^ r10: .cfa -12 + ^ r11: .cfa -8 + ^ r4: .cfa -36 + ^ r5: .cfa -32 + ^ r6: .cfa -28 + ^ r7: .cfa -24 + ^ r8: .cfa -20 + ^ r9: .cfa -16 + ^
STACK CFI 7dcd4 .cfa: sp 64 +
STACK CFI INIT 7df48 11ac .cfa: sp 0 + .ra: lr
STACK CFI 7df50 .cfa: sp 36 +
STACK CFI 7df54 .ra: .cfa -4 + ^ r10: .cfa -12 + ^ r11: .cfa -8 + ^ r4: .cfa -36 + ^ r5: .cfa -32 + ^ r6: .cfa -28 + ^ r7: .cfa -24 + ^ r8: .cfa -20 + ^ r9: .cfa -16 + ^
STACK CFI 7df58 .cfa: sp 192 +
STACK CFI INIT 7f0f4 414 .cfa: sp 0 + .ra: lr
STACK CFI 7f0fc .cfa: sp 36 +
STACK CFI 7f104 .cfa: sp 56 +
STACK CFI 7f108 .ra: .cfa -4 + ^ r10: .cfa -12 + ^ r11: .cfa -8 + ^ r4: .cfa -36 + ^ r5: .cfa -32 + ^ r6: .cfa -28 + ^ r7: .cfa -24 + ^ r8: .cfa -20 + ^ r9: .cfa -16 + ^
STACK CFI INIT 7f508 16d4 .cfa: sp 0 + .ra: lr
STACK CFI 7f510 .cfa: sp 36 +
STACK CFI 7f518 .cfa: sp 88 +
STACK CFI 7f51c .ra: .cfa -4 + ^ r10: .cfa -12 + ^ r11: .cfa -8 + ^ r4: .cfa -36 + ^ r5: .cfa -32 + ^ r6: .cfa -28 + ^ r7: .cfa -24 + ^ r8: .cfa -20 + ^ r9: .cfa -16 + ^
STACK CFI INIT 80bdc a3c .cfa: sp 0 + .ra: lr
STACK CFI 80be4 .cfa: sp 36 +
STACK CFI 80bec .cfa: sp 80 +
STACK CFI 80bf0 .ra: .cfa -4 + ^ r10: .cfa -12 + ^ r11: .cfa -8 + ^ r4: .cfa -36 + ^ r5: .cfa -32 + ^ r6: .cfa -28 + ^ r7: .cfa -24 + ^ r8: .cfa -20 + ^ r9: .cfa -16 + ^
STACK CFI INIT 81618 1b0 .cfa: sp 0 + .ra: lr
STACK CFI 8161c .cfa: sp 16 +
STACK CFI 81620 .ra: .cfa -4 + ^ r4: .cfa -16 + ^ r5: .cfa -12 + ^ r6: .cfa -8 + ^
STACK CFI 81628 .cfa: sp 24 +
STACK CFI INIT 817c8 2a8 .cfa: sp 0 + .ra: lr
STACK CFI 817cc .cfa: sp 36 +
STACK CFI 817d0 .ra: .cfa -4 + ^ r10: .cfa -12 + ^ r11: .cfa -8 + ^ r4: .cfa -36 + ^ r5: .cfa -32 + ^ r6: .cfa -28 + ^ r7: .cfa -24 + ^ r8: .cfa -20 + ^ r9: .cfa -16 + ^
STACK CFI 817dc .cfa: sp 88 +
STACK CFI INIT 81a70 f8 .cfa: sp 0 + .ra: lr
STACK CFI 81a74 .cfa: sp 16 +
STACK CFI 81a78 .ra: .cfa -4 + ^ r4: .cfa -16 + ^ r5: .cfa -12 + ^ r6: .cfa -8 + ^
STACK CFI INIT 81b68 c .cfa: sp 0 + .ra: lr
STACK CFI INIT 81b74 24 .cfa: sp 0 + .ra: lr
STACK CFI 81b78 .cfa: sp 4 +
STACK CFI 81b7c .cfa: sp 16 +
STACK CFI 81b88 .ra: .cfa -4 + ^
STACK CFI INIT 81b98 c .cfa: sp 0 + .ra: lr
STACK CFI INIT 81ba4 100 .cfa: sp 0 + .ra: lr
STACK CFI 81ba8 .cfa: sp 16 +
STACK CFI 81bac .ra: .cfa -4 + ^ r4: .cfa -16 + ^ r5: .cfa -12 + ^ r6: .cfa -8 + ^
STACK CFI INIT 81ca4 1cc .cfa: sp 0 + .ra: lr
STACK CFI 81ca8 .cfa: sp 24 +
STACK CFI 81cac .ra: .cfa -4 + ^ r4: .cfa -24 + ^ r5: .cfa -20 + ^ r6: .cfa -16 + ^ r7: .cfa -12 + ^ r8: .cfa -8 + ^
STACK CFI 81cb0 .cfa: sp 72 +
STACK CFI INIT 81e70 174 .cfa: sp 0 + .ra: lr
STACK CFI 81e74 .cfa: sp 24 +
STACK CFI 81e78 .ra: .cfa -4 + ^ r4: .cfa -24 + ^ r5: .cfa -20 + ^ r6: .cfa -16 + ^ r7: .cfa -12 + ^ r8: .cfa -8 + ^
STACK CFI 81e7c .cfa: sp 72 +
STACK CFI INIT 81fe4 394 .cfa: sp 0 + .ra: lr
STACK CFI 81fe8 .cfa: sp 8 +
STACK CFI 81fec .ra: .cfa -4 + ^ r4: .cfa -8 + ^
STACK CFI INIT 82378 ac .cfa: sp 0 + .ra: lr
STACK CFI 82380 .cfa: sp 16 +
STACK CFI 82384 .ra: .cfa -4 + ^ r4: .cfa -16 + ^ r5: .cfa -12 + ^ r6: .cfa -8 + ^
STACK CFI INIT 82424 60 .cfa: sp 0 + .ra: lr
STACK CFI INIT 82484 6c .cfa: sp 0 + .ra: lr
STACK CFI INIT 824f0 74 .cfa: sp 0 + .ra: lr
STACK CFI 824f4 .cfa: sp 12 +
STACK CFI 824fc .cfa: sp 72 +
STACK CFI 82500 .ra: .cfa -4 + ^ r4: .cfa -12 + ^ r5: .cfa -8 + ^
STACK CFI INIT 82564 124 .cfa: sp 0 + .ra: lr
STACK CFI 82568 .cfa: sp 36 +
STACK CFI 8256c .ra: .cfa -4 + ^ r10: .cfa -12 + ^ r11: .cfa -8 + ^ r4: .cfa -36 + ^ r5: .cfa -32 + ^ r6: .cfa -28 + ^ r7: .cfa -24 + ^ r8: .cfa -20 + ^ r9: .cfa -16 + ^
STACK CFI 82570 .cfa: sp 96 +
STACK CFI INIT 82688 1b4 .cfa: sp 0 + .ra: lr
STACK CFI 8268c .cfa: sp 24 +
STACK CFI 82690 .ra: .cfa -4 + ^ r3: .cfa -24 + ^ r4: .cfa -20 + ^ r5: .cfa -16 + ^ r6: .cfa -12 + ^ r7: .cfa -8 + ^
STACK CFI INIT 8283c b4 .cfa: sp 0 + .ra: lr
STACK CFI 82844 .cfa: sp 16 +
STACK CFI 82848 .ra: .cfa -4 + ^ r4: .cfa -16 + ^ r5: .cfa -12 + ^ r6: .cfa -8 + ^
STACK CFI INIT 828f0 80 .cfa: sp 0 + .ra: lr
STACK CFI 828f4 .cfa: sp 8 +
STACK CFI 828f8 .ra: .cfa -4 + ^ r4: .cfa -8 + ^
STACK CFI INIT 82970 f0 .cfa: sp 0 + .ra: lr
STACK CFI 82978 .cfa: sp 12 +
STACK CFI 8297c .ra: .cfa -4 + ^ r4: .cfa -12 + ^ r5: .cfa -8 + ^
STACK CFI 82984 .cfa: sp 32 +
STACK CFI INIT 82a60 f8 .cfa: sp 0 + .ra: lr
STACK CFI 82a68 .cfa: sp 12 +
STACK CFI 82a6c .ra: .cfa -4 + ^ r4: .cfa -12 + ^ r5: .cfa -8 + ^
STACK CFI 82a74 .cfa: sp 24 +
STACK CFI INIT 82b58 e4 .cfa: sp 0 + .ra: lr
STACK CFI 82b60 .cfa: sp 12 +
STACK CFI 82b64 .ra: .cfa -4 + ^ r4: .cfa -12 + ^ r5: .cfa -8 + ^
STACK CFI 82b6c .cfa: sp 24 +
STACK CFI INIT 82c3c f4 .cfa: sp 0 + .ra: lr
STACK CFI 82c44 .cfa: sp 12 +
STACK CFI 82c48 .ra: .cfa -4 + ^ r4: .cfa -12 + ^ r5: .cfa -8 + ^
STACK CFI 82c50 .cfa: sp 24 +
STACK CFI INIT 82d30 c4 .cfa: sp 0 + .ra: lr
STACK CFI 82d38 .cfa: sp 16 +
STACK CFI 82d3c .ra: .cfa -4 + ^ r4: .cfa -16 + ^ r5: .cfa -12 + ^ r6: .cfa -8 + ^
STACK CFI INIT 82df4 a8 .cfa: sp 0 + .ra: lr
STACK CFI 82df8 .cfa: sp 16 +
STACK CFI 82dfc .ra: .cfa -4 + ^ r3: .cfa -16 + ^ r4: .cfa -12 + ^ r5: .cfa -8 + ^
STACK CFI INIT 82e9c 198 .cfa: sp 0 + .ra: lr
STACK CFI 82ea4 .cfa: sp 16 +
STACK CFI 82ea8 .ra: .cfa -4 + ^ r4: .cfa -16 + ^ r5: .cfa -12 + ^ r6: .cfa -8 + ^
STACK CFI 82eb0 .cfa: sp 24 +
STACK CFI INIT 83034 104 .cfa: sp 0 + .ra: lr
STACK CFI 83038 .cfa: sp 24 +
STACK CFI 8303c .ra: .cfa -4 + ^ r4: .cfa -24 + ^ r5: .cfa -20 + ^ r6: .cfa -16 + ^ r7: .cfa -12 + ^ r8: .cfa -8 + ^
STACK CFI INIT 83138 2b8 .cfa: sp 0 + .ra: lr
STACK CFI 83148 .cfa: sp 24 +
STACK CFI 83154 .ra: .cfa -4 + ^ r4: .cfa -24 + ^ r5: .cfa -20 + ^ r6: .cfa -16 + ^ r7: .cfa -12 + ^ r8: .cfa -8 + ^
STACK CFI INIT 833f0 50 .cfa: sp 0 + .ra: lr
STACK CFI 833f4 .cfa: sp 16 +
STACK CFI 833f8 .ra: .cfa -4 + ^ r4: .cfa -16 + ^ r5: .cfa -12 + ^ r6: .cfa -8 + ^
STACK CFI INIT 83440 104 .cfa: sp 0 + .ra: lr
STACK CFI 83448 .cfa: sp 8 +
STACK CFI 8344c r4: .cfa -8 + ^ r5: .cfa -4 + ^
STACK CFI INIT 83544 9c .cfa: sp 0 + .ra: lr
STACK CFI 8354c .cfa: sp 4 +
STACK CFI 83550 r4: .cfa -4 + ^
STACK CFI INIT 835e0 94 .cfa: sp 0 + .ra: lr
STACK CFI 835e4 .cfa: sp 16 +
STACK CFI 835e8 .ra: .cfa -4 + ^ r4: .cfa -16 + ^ r5: .cfa -12 + ^ r6: .cfa -8 + ^
STACK CFI INIT 83674 c0 .cfa: sp 0 + .ra: lr
STACK CFI 8367c .cfa: sp 16 +
STACK CFI 83680 .ra: .cfa -4 + ^ r4: .cfa -16 + ^ r5: .cfa -12 + ^ r6: .cfa -8 + ^
STACK CFI INIT 83734 54 .cfa: sp 0 + .ra: lr
STACK CFI 83738 .cfa: sp 8 +
STACK CFI 8373c .ra: .cfa -4 + ^ r4: .cfa -8 + ^
STACK CFI INIT 83788 54 .cfa: sp 0 + .ra: lr
STACK CFI 8378c .cfa: sp 8 +
STACK CFI 83790 .ra: .cfa -4 + ^ r4: .cfa -8 + ^
STACK CFI INIT 837dc dc .cfa: sp 0 + .ra: lr
STACK CFI 837e4 .cfa: sp 24 +
STACK CFI 837e8 .ra: .cfa -4 + ^ r3: .cfa -24 + ^ r4: .cfa -20 + ^ r5: .cfa -16 + ^ r6: .cfa -12 + ^ r7: .cfa -8 + ^
STACK CFI INIT 838b8 90 .cfa: sp 0 + .ra: lr
STACK CFI 838c0 .cfa: sp 16 +
STACK CFI 838c4 .ra: .cfa -4 + ^ r3: .cfa -16 + ^ r4: .cfa -12 + ^ r5: .cfa -8 + ^
STACK CFI INIT 83948 17c .cfa: sp 0 + .ra: lr
STACK CFI 8394c .cfa: sp 36 +
STACK CFI 83950 .ra: .cfa -4 + ^ r10: .cfa -12 + ^ r11: .cfa -8 + ^ r4: .cfa -36 + ^ r5: .cfa -32 + ^ r6: .cfa -28 + ^ r7: .cfa -24 + ^ r8: .cfa -20 + ^ r9: .cfa -16 + ^
STACK CFI 83954 .cfa: sp 48 +
STACK CFI INIT 83ac4 18c .cfa: sp 0 + .ra: lr
STACK CFI 83ac8 .cfa: sp 24 +
STACK CFI 83acc .ra: .cfa -4 + ^ r4: .cfa -24 + ^ r5: .cfa -20 + ^ r6: .cfa -16 + ^ r7: .cfa -12 + ^ r8: .cfa -8 + ^
STACK CFI INIT 83c50 18c .cfa: sp 0 + .ra: lr
STACK CFI 83c54 .cfa: sp 24 +
STACK CFI 83c58 .ra: .cfa -4 + ^ r4: .cfa -24 + ^ r5: .cfa -20 + ^ r6: .cfa -16 + ^ r7: .cfa -12 + ^ r8: .cfa -8 + ^
STACK CFI INIT 83ddc 2cc .cfa: sp 0 + .ra: lr
STACK CFI 83de0 .cfa: sp 36 +
STACK CFI 83de4 .ra: .cfa -4 + ^ r10: .cfa -12 + ^ r11: .cfa -8 + ^ r4: .cfa -36 + ^ r5: .cfa -32 + ^ r6: .cfa -28 + ^ r7: .cfa -24 + ^ r8: .cfa -20 + ^ r9: .cfa -16 + ^
STACK CFI 83de8 .cfa: sp 48 +
STACK CFI INIT 840a8 298 .cfa: sp 0 + .ra: lr
STACK CFI 840ac .cfa: sp 36 +
STACK CFI 840b0 .ra: .cfa -4 + ^ r10: .cfa -12 + ^ r11: .cfa -8 + ^ r4: .cfa -36 + ^ r5: .cfa -32 + ^ r6: .cfa -28 + ^ r7: .cfa -24 + ^ r8: .cfa -20 + ^ r9: .cfa -16 + ^
STACK CFI 840b4 .cfa: sp 48 +
STACK CFI INIT 84340 12c .cfa: sp 0 + .ra: lr
STACK CFI 84344 .cfa: sp 16 +
STACK CFI 84348 .ra: .cfa -4 + ^ r4: .cfa -16 + ^ r5: .cfa -12 + ^ r6: .cfa -8 + ^
STACK CFI INIT 8446c 7fc .cfa: sp 0 + .ra: lr
STACK CFI 84470 .cfa: sp 36 +
STACK CFI 84474 .ra: .cfa -4 + ^ r10: .cfa -12 + ^ r11: .cfa -8 + ^ r4: .cfa -36 + ^ r5: .cfa -32 + ^ r6: .cfa -28 + ^ r7: .cfa -24 + ^ r8: .cfa -20 + ^ r9: .cfa -16 + ^
STACK CFI 8447c .cfa: sp 56 +
STACK CFI INIT 84c68 f0 .cfa: sp 0 + .ra: lr
STACK CFI 84c6c .cfa: sp 24 +
STACK CFI 84c70 .ra: .cfa -4 + ^ r4: .cfa -24 + ^ r5: .cfa -20 + ^ r6: .cfa -16 + ^ r7: .cfa -12 + ^ r8: .cfa -8 + ^
STACK CFI INIT 84d58 5c4 .cfa: sp 0 + .ra: lr
STACK CFI 84d60 .cfa: sp 36 +
STACK CFI 84d64 .cfa: sp 64 +
STACK CFI 84d68 .ra: .cfa -4 + ^ r10: .cfa -12 + ^ r11: .cfa -8 + ^ r4: .cfa -36 + ^ r5: .cfa -32 + ^ r6: .cfa -28 + ^ r7: .cfa -24 + ^ r8: .cfa -20 + ^ r9: .cfa -16 + ^
STACK CFI INIT 8531c 174 .cfa: sp 0 + .ra: lr
STACK CFI 85328 .cfa: sp 36 +
STACK CFI 8532c .ra: .cfa -4 + ^ r10: .cfa -12 + ^ r11: .cfa -8 + ^ r4: .cfa -36 + ^ r5: .cfa -32 + ^ r6: .cfa -28 + ^ r7: .cfa -24 + ^ r8: .cfa -20 + ^ r9: .cfa -16 + ^
STACK CFI 85330 .cfa: sp 48 +
STACK CFI INIT 85490 66c .cfa: sp 0 + .ra: lr
STACK CFI 8549c .cfa: sp 36 +
STACK CFI 854a0 .ra: .cfa -4 + ^ r10: .cfa -12 + ^ r11: .cfa -8 + ^ r4: .cfa -36 + ^ r5: .cfa -32 + ^ r6: .cfa -28 + ^ r7: .cfa -24 + ^ r8: .cfa -20 + ^ r9: .cfa -16 + ^
STACK CFI 854a4 .cfa: sp 120 +
STACK CFI INIT 85afc 2c0 .cfa: sp 0 + .ra: lr
STACK CFI 85b00 .cfa: sp 36 +
STACK CFI 85b04 .ra: .cfa -4 + ^ r10: .cfa -12 + ^ r11: .cfa -8 + ^ r4: .cfa -36 + ^ r5: .cfa -32 + ^ r6: .cfa -28 + ^ r7: .cfa -24 + ^ r8: .cfa -20 + ^ r9: .cfa -16 + ^
STACK CFI 85b08 .cfa: sp 48 +
STACK CFI INIT 85dbc 6c .cfa: sp 0 + .ra: lr
STACK CFI INIT 85e28 84 .cfa: sp 0 + .ra: lr
STACK CFI 85e2c .cfa: sp 20 +
STACK CFI 85e30 .ra: .cfa -4 + ^ r4: .cfa -20 + ^ r5: .cfa -16 + ^ r6: .cfa -12 + ^ r7: .cfa -8 + ^
STACK CFI 85e3c .cfa: sp 80 +
STACK CFI INIT 85eac 84 .cfa: sp 0 + .ra: lr
STACK CFI 85eb4 .cfa: sp 12 +
STACK CFI 85eb8 .ra: .cfa -4 + ^ r4: .cfa -12 + ^ r5: .cfa -8 + ^
STACK CFI 85ec0 .cfa: sp 72 +
STACK CFI INIT 85f30 2d8 .cfa: sp 0 + .ra: lr
STACK CFI 85f34 .cfa: sp 32 +
STACK CFI 85f38 .ra: .cfa -4 + ^ r10: .cfa -8 + ^ r4: .cfa -32 + ^ r5: .cfa -28 + ^ r6: .cfa -24 + ^ r7: .cfa -20 + ^ r8: .cfa -16 + ^ r9: .cfa -12 + ^
STACK CFI 85f40 .cfa: sp 40 +
STACK CFI INIT 86208 88 .cfa: sp 0 + .ra: lr
STACK CFI 8620c .cfa: sp 16 +
STACK CFI 86210 .ra: .cfa -4 + ^ r3: .cfa -16 + ^ r4: .cfa -12 + ^ r5: .cfa -8 + ^
STACK CFI INIT 86290 148 .cfa: sp 0 + .ra: lr
STACK CFI 8629c .cfa: sp 20 +
STACK CFI 862a0 .ra: .cfa -4 + ^ r4: .cfa -20 + ^ r5: .cfa -16 + ^ r6: .cfa -12 + ^ r7: .cfa -8 + ^
STACK CFI 862a4 .cfa: sp 32 +
STACK CFI INIT 863d8 48 .cfa: sp 0 + .ra: lr
STACK CFI INIT 86420 90 .cfa: sp 0 + .ra: lr
STACK CFI 8642c .cfa: sp 32 +
STACK CFI 86434 .ra: .cfa -4 + ^ r10: .cfa -8 + ^ r3: .cfa -32 + ^ r4: .cfa -28 + ^ r5: .cfa -24 + ^ r6: .cfa -20 + ^ r7: .cfa -16 + ^ r8: .cfa -12 + ^
STACK CFI INIT 864b0 63c .cfa: sp 0 + .ra: lr
STACK CFI 864b4 .cfa: sp 36 +
STACK CFI 864b8 .ra: .cfa -4 + ^ r10: .cfa -12 + ^ r11: .cfa -8 + ^ r4: .cfa -36 + ^ r5: .cfa -32 + ^ r6: .cfa -28 + ^ r7: .cfa -24 + ^ r8: .cfa -20 + ^ r9: .cfa -16 + ^
STACK CFI 864d0 .cfa: sp 80 +
STACK CFI INIT 86aec 68 .cfa: sp 0 + .ra: lr
STACK CFI 86af0 .cfa: sp 16 +
STACK CFI 86af4 .ra: .cfa -4 + ^ r4: .cfa -16 + ^ r5: .cfa -12 + ^ r6: .cfa -8 + ^
STACK CFI INIT 86b54 618 .cfa: sp 0 + .ra: lr
STACK CFI 86b58 .cfa: sp 36 +
STACK CFI 86b5c .ra: .cfa -4 + ^ r10: .cfa -12 + ^ r11: .cfa -8 + ^ r4: .cfa -36 + ^ r5: .cfa -32 + ^ r6: .cfa -28 + ^ r7: .cfa -24 + ^ r8: .cfa -20 + ^ r9: .cfa -16 + ^
STACK CFI 86b64 .cfa: sp 64 +
STACK CFI INIT 8716c 84 .cfa: sp 0 + .ra: lr
STACK CFI 87170 .cfa: sp 16 +
STACK CFI 87174 .ra: .cfa -4 + ^ r3: .cfa -16 + ^ r4: .cfa -12 + ^ r5: .cfa -8 + ^
STACK CFI INIT 871f0 1cc .cfa: sp 0 + .ra: lr
STACK CFI 871f8 .cfa: sp 16 +
STACK CFI 871fc .ra: .cfa -4 + ^ r4: .cfa -16 + ^ r5: .cfa -12 + ^ r6: .cfa -8 + ^
STACK CFI INIT 873bc 1c24 .cfa: sp 0 + .ra: lr
STACK CFI 873c0 .cfa: sp 36 +
STACK CFI 873c4 .ra: .cfa -4 + ^ r10: .cfa -12 + ^ r11: .cfa -8 + ^ r4: .cfa -36 + ^ r5: .cfa -32 + ^ r6: .cfa -28 + ^ r7: .cfa -24 + ^ r8: .cfa -20 + ^ r9: .cfa -16 + ^
STACK CFI 873d4 .cfa: sp 160 +
STACK CFI INIT 88fe0 14 .cfa: sp 0 + .ra: lr
STACK CFI INIT 88ff4 8c .cfa: sp 0 + .ra: lr
STACK CFI 88ff8 .cfa: sp 12 +
STACK CFI 88ffc .ra: .cfa -4 + ^ r4: .cfa -12 + ^ r5: .cfa -8 + ^
STACK CFI 89000 .cfa: sp 24 +
STACK CFI INIT 89080 44 .cfa: sp 0 + .ra: lr
STACK CFI 89088 .cfa: sp 4 +
STACK CFI 8908c .cfa: sp 16 +
STACK CFI 89090 .ra: .cfa -4 + ^
STACK CFI INIT 890c4 8 .cfa: sp 0 + .ra: lr
STACK CFI INIT 890cc 8 .cfa: sp 0 + .ra: lr
STACK CFI INIT 890d4 78 .cfa: sp 0 + .ra: lr
STACK CFI 890d8 .cfa: sp 16 +
STACK CFI 890dc .ra: .cfa -4 + ^ r4: .cfa -16 + ^ r5: .cfa -12 + ^ r6: .cfa -8 + ^
STACK CFI INIT 8914c 8 .cfa: sp 0 + .ra: lr
STACK CFI INIT 89154 48 .cfa: sp 0 + .ra: lr
STACK CFI 8915c .cfa: sp 8 +
STACK CFI 89160 .ra: .cfa -4 + ^ r4: .cfa -8 + ^
STACK CFI INIT 8919c 13c .cfa: sp 0 + .ra: lr
STACK CFI 891a0 .cfa: sp 16 +
STACK CFI 891a4 .ra: .cfa -4 + ^ r3: .cfa -16 + ^ r4: .cfa -12 + ^ r5: .cfa -8 + ^
STACK CFI INIT 892d8 28 .cfa: sp 0 + .ra: lr
STACK CFI 892dc .cfa: sp 4 +
STACK CFI 892e4 .cfa: sp 16 +
STACK CFI 892f4 .ra: .cfa -4 + ^
STACK CFI INIT 89300 260 .cfa: sp 0 + .ra: lr
STACK CFI 89304 .cfa: sp 32 +
STACK CFI 89308 .ra: .cfa -4 + ^ r10: .cfa -8 + ^ r4: .cfa -32 + ^ r5: .cfa -28 + ^ r6: .cfa -24 + ^ r7: .cfa -20 + ^ r8: .cfa -16 + ^ r9: .cfa -12 + ^
STACK CFI 8930c .cfa: sp 40 +
STACK CFI INIT 89560 bc .cfa: sp 0 + .ra: lr
STACK CFI 89564 .cfa: sp 20 +
STACK CFI 89568 .ra: .cfa -4 + ^ r4: .cfa -20 + ^ r5: .cfa -16 + ^ r6: .cfa -12 + ^ r7: .cfa -8 + ^
STACK CFI 8956c .cfa: sp 32 +
STACK CFI INIT 8961c ec .cfa: sp 0 + .ra: lr
STACK CFI 89620 .cfa: sp 28 +
STACK CFI 89624 .ra: .cfa -4 + ^ r10: .cfa -8 + ^ r4: .cfa -28 + ^ r5: .cfa -24 + ^ r6: .cfa -20 + ^ r7: .cfa -16 + ^ r8: .cfa -12 + ^
STACK CFI 89628 .cfa: sp 4124 +
STACK CFI 8962c .cfa: sp 4128 +
STACK CFI INIT 89708 1c8 .cfa: sp 0 + .ra: lr
STACK CFI 8970c .cfa: sp 24 +
STACK CFI 89710 .ra: .cfa -4 + ^ r3: .cfa -24 + ^ r4: .cfa -20 + ^ r5: .cfa -16 + ^ r6: .cfa -12 + ^ r7: .cfa -8 + ^
STACK CFI INIT 898d0 30 .cfa: sp 0 + .ra: lr
STACK CFI 898d4 .cfa: sp 8 +
STACK CFI 898e0 .ra: .cfa -4 + ^ r3: .cfa -8 + ^
STACK CFI INIT 89900 254 .cfa: sp 0 + .ra: lr
STACK CFI 89904 .cfa: sp 16 +
STACK CFI 89908 .ra: .cfa -4 + ^ r4: .cfa -16 + ^ r5: .cfa -12 + ^ r6: .cfa -8 + ^
STACK CFI 89910 .cfa: sp 40 +
STACK CFI INIT 89b54 3c0 .cfa: sp 0 + .ra: lr
STACK CFI 89b58 .cfa: sp 28 +
STACK CFI 89b5c .cfa: sp 136 +
STACK CFI 89b60 .ra: .cfa -4 + ^ r10: .cfa -8 + ^ r4: .cfa -28 + ^ r5: .cfa -24 + ^ r6: .cfa -20 + ^ r7: .cfa -16 + ^ r8: .cfa -12 + ^
STACK CFI INIT 89f14 d8 .cfa: sp 0 + .ra: lr
STACK CFI 89f18 .cfa: sp 20 +
STACK CFI 89f24 .ra: .cfa -4 + ^ r4: .cfa -20 + ^ r5: .cfa -16 + ^ r6: .cfa -12 + ^ r7: .cfa -8 + ^
STACK CFI 89f2c .cfa: sp 32 +
STACK CFI INIT 89fec 5c .cfa: sp 0 + .ra: lr
STACK CFI 89ff0 .cfa: sp 8 +
STACK CFI 89ff4 .ra: .cfa -4 + ^ r4: .cfa -8 + ^
STACK CFI INIT 8a048 118 .cfa: sp 0 + .ra: lr
STACK CFI 8a04c .cfa: sp 16 +
STACK CFI 8a050 .ra: .cfa -4 + ^ r4: .cfa -16 + ^ r5: .cfa -12 + ^ r6: .cfa -8 + ^
STACK CFI INIT 8a160 bc .cfa: sp 0 + .ra: lr
STACK CFI 8a164 .cfa: sp 8 +
STACK CFI 8a168 .ra: .cfa -4 + ^ r3: .cfa -8 + ^
STACK CFI INIT 8a21c 90 .cfa: sp 0 + .ra: lr
STACK CFI 8a220 .cfa: sp 24 +
STACK CFI 8a224 .ra: .cfa -4 + ^ r3: .cfa -24 + ^ r4: .cfa -20 + ^ r5: .cfa -16 + ^ r6: .cfa -12 + ^ r7: .cfa -8 + ^
STACK CFI INIT 8a2ac c .cfa: sp 0 + .ra: lr
STACK CFI INIT 8a2b8 d28 .cfa: sp 0 + .ra: lr
STACK CFI 8a2bc .cfa: sp 36 +
STACK CFI 8a2c0 .ra: .cfa -4 + ^ r10: .cfa -12 + ^ r11: .cfa -8 + ^ r4: .cfa -36 + ^ r5: .cfa -32 + ^ r6: .cfa -28 + ^ r7: .cfa -24 + ^ r8: .cfa -20 + ^ r9: .cfa -16 + ^
STACK CFI 8a2c4 .cfa: sp 88 +
STACK CFI INIT 8afe0 48 .cfa: sp 0 + .ra: lr
STACK CFI 8afe8 .cfa: sp 4 +
STACK CFI 8afec .ra: .cfa -4 + ^
STACK CFI 8b008 .cfa: sp 24 +
STACK CFI INIT 8b028 2c .cfa: sp 0 + .ra: lr
STACK CFI 8b02c .cfa: sp 4 +
STACK CFI 8b034 .cfa: sp 24 +
STACK CFI 8b03c .ra: .cfa -4 + ^
STACK CFI INIT 8b054 34 .cfa: sp 0 + .ra: lr
STACK CFI 8b064 .cfa: sp 4 +
STACK CFI 8b070 .cfa: sp 16 +
STACK CFI 8b07c .ra: .cfa -4 + ^
STACK CFI INIT 8b088 fc .cfa: sp 0 + .ra: lr
STACK CFI 8b08c .cfa: sp 20 +
STACK CFI 8b090 .ra: .cfa -4 + ^ r4: .cfa -20 + ^ r5: .cfa -16 + ^ r6: .cfa -12 + ^ r7: .cfa -8 + ^
STACK CFI 8b094 .cfa: sp 32 +
STACK CFI INIT 8b184 b0 .cfa: sp 0 + .ra: lr
STACK CFI 8b188 .cfa: sp 12 +
STACK CFI 8b194 .cfa: sp 24 +
STACK CFI 8b19c .ra: .cfa -4 + ^ r4: .cfa -12 + ^ r5: .cfa -8 + ^
STACK CFI INIT 8b234 10 .cfa: sp 0 + .ra: lr
STACK CFI INIT 8b244 c .cfa: sp 0 + .ra: lr
STACK CFI INIT 8b250 10 .cfa: sp 0 + .ra: lr
STACK CFI INIT 8b260 c .cfa: sp 0 + .ra: lr
STACK CFI INIT 8b26c c .cfa: sp 0 + .ra: lr
STACK CFI INIT 8b278 c .cfa: sp 0 + .ra: lr
STACK CFI INIT 8b284 2b4 .cfa: sp 0 + .ra: lr
STACK CFI 8b288 .cfa: sp 40 +
STACK CFI 8b28c .ra: .cfa -4 + ^ r10: .cfa -12 + ^ r11: .cfa -8 + ^ r3: .cfa -40 + ^ r4: .cfa -36 + ^ r5: .cfa -32 + ^ r6: .cfa -28 + ^ r7: .cfa -24 + ^ r8: .cfa -20 + ^ r9: .cfa -16 + ^
STACK CFI INIT 8b538 188 .cfa: sp 0 + .ra: lr
STACK CFI 8b53c .cfa: sp 24 +
STACK CFI 8b540 .ra: .cfa -4 + ^ r4: .cfa -24 + ^ r5: .cfa -20 + ^ r6: .cfa -16 + ^ r7: .cfa -12 + ^ r8: .cfa -8 + ^
STACK CFI INIT 8b6c0 bc .cfa: sp 0 + .ra: lr
STACK CFI 8b6c4 .cfa: sp 16 +
STACK CFI 8b6c8 .ra: .cfa -4 + ^ r3: .cfa -16 + ^ r4: .cfa -12 + ^ r5: .cfa -8 + ^
STACK CFI INIT 8b77c 15c .cfa: sp 0 + .ra: lr
STACK CFI 8b780 .cfa: sp 32 +
STACK CFI 8b784 .ra: .cfa -4 + ^ r10: .cfa -8 + ^ r3: .cfa -32 + ^ r4: .cfa -28 + ^ r5: .cfa -24 + ^ r6: .cfa -20 + ^ r7: .cfa -16 + ^ r8: .cfa -12 + ^
STACK CFI INIT 8b8d8 148 .cfa: sp 0 + .ra: lr
STACK CFI 8b8dc .cfa: sp 24 +
STACK CFI 8b8e0 .ra: .cfa -4 + ^ r3: .cfa -24 + ^ r4: .cfa -20 + ^ r5: .cfa -16 + ^ r6: .cfa -12 + ^ r7: .cfa -8 + ^
STACK CFI INIT 8ba20 130 .cfa: sp 0 + .ra: lr
STACK CFI 8ba24 .cfa: sp 16 +
STACK CFI 8ba28 .ra: .cfa -4 + ^ r4: .cfa -16 + ^ r5: .cfa -12 + ^ r6: .cfa -8 + ^
STACK CFI INIT 8bb50 128 .cfa: sp 0 + .ra: lr
STACK CFI 8bb58 .cfa: sp 8 +
STACK CFI 8bb64 .ra: .cfa -4 + ^ r4: .cfa -8 + ^
STACK CFI INIT 8bc78 f8 .cfa: sp 0 + .ra: lr
STACK CFI 8bc7c .cfa: sp 20 +
STACK CFI 8bc80 .ra: .cfa -4 + ^ r4: .cfa -20 + ^ r5: .cfa -16 + ^ r6: .cfa -12 + ^ r7: .cfa -8 + ^
STACK CFI 8bc90 .cfa: sp 32 +
STACK CFI INIT 8bd70 a4 .cfa: sp 0 + .ra: lr
STACK CFI 8bd74 .cfa: sp 16 +
STACK CFI 8bd78 .ra: .cfa -4 + ^ r3: .cfa -16 + ^ r4: .cfa -12 + ^ r5: .cfa -8 + ^
STACK CFI INIT 8be14 4 .cfa: sp 0 + .ra: lr
STACK CFI INIT 8be18 f8 .cfa: sp 0 + .ra: lr
STACK CFI 8be1c .cfa: sp 16 +
STACK CFI 8be20 .ra: .cfa -4 + ^ r4: .cfa -16 + ^ r5: .cfa -12 + ^ r6: .cfa -8 + ^
STACK CFI 8be24 .cfa: sp 160 +
STACK CFI INIT 8bf10 88 .cfa: sp 0 + .ra: lr
STACK CFI 8bf14 .cfa: sp 12 +
STACK CFI 8bf18 .ra: .cfa -4 + ^ r4: .cfa -12 + ^ r5: .cfa -8 + ^
STACK CFI 8bf1c .cfa: sp 216 +
STACK CFI INIT 8bf98 890 .cfa: sp 0 + .ra: lr
STACK CFI 8bf9c .cfa: sp 24 +
STACK CFI 8bfa0 .ra: .cfa -4 + ^ r4: .cfa -24 + ^ r5: .cfa -20 + ^ r6: .cfa -16 + ^ r7: .cfa -12 + ^ r8: .cfa -8 + ^
STACK CFI 8bfa4 .cfa: sp 440 +
STACK CFI INIT 8c828 84 .cfa: sp 0 + .ra: lr
STACK CFI 8c82c .cfa: sp 24 +
STACK CFI 8c830 .ra: .cfa -4 + ^ r3: .cfa -24 + ^ r4: .cfa -20 + ^ r5: .cfa -16 + ^ r6: .cfa -12 + ^ r7: .cfa -8 + ^
STACK CFI INIT 8c8ac bc .cfa: sp 0 + .ra: lr
STACK CFI 8c8b0 .cfa: sp 16 +
STACK CFI 8c8b4 .ra: .cfa -4 + ^ r4: .cfa -16 + ^ r5: .cfa -12 + ^ r6: .cfa -8 + ^
STACK CFI 8c8b8 .cfa: sp 416 +
STACK CFI INIT 8c968 b8 .cfa: sp 0 + .ra: lr
STACK CFI 8c96c .cfa: sp 16 +
STACK CFI 8c970 .ra: .cfa -4 + ^ r4: .cfa -16 + ^ r5: .cfa -12 + ^ r6: .cfa -8 + ^
STACK CFI 8c974 .cfa: sp 416 +
STACK CFI INIT 8ca20 4b4 .cfa: sp 0 + .ra: lr
STACK CFI 8ca24 .cfa: sp 24 +
STACK CFI 8ca28 .ra: .cfa -4 + ^ r4: .cfa -24 + ^ r5: .cfa -20 + ^ r6: .cfa -16 + ^ r7: .cfa -12 + ^ r8: .cfa -8 + ^
STACK CFI 8ca2c .cfa: sp 464 +
STACK CFI INIT 8ced4 158 .cfa: sp 0 + .ra: lr
STACK CFI 8ced8 .cfa: sp 20 +
STACK CFI 8cedc .ra: .cfa -4 + ^ r4: .cfa -20 + ^ r5: .cfa -16 + ^ r6: .cfa -12 + ^ r7: .cfa -8 + ^
STACK CFI 8cee0 .cfa: sp 296 +
STACK CFI INIT 8d02c 884 .cfa: sp 0 + .ra: lr
STACK CFI 8d030 .cfa: sp 36 +
STACK CFI 8d034 .cfa: sp 4644 +
STACK CFI 8d038 .cfa: sp 4664 +
STACK CFI 8d03c .ra: .cfa -4 + ^ r10: .cfa -12 + ^ r11: .cfa -8 + ^ r4: .cfa -36 + ^ r5: .cfa -32 + ^ r6: .cfa -28 + ^ r7: .cfa -24 + ^ r8: .cfa -20 + ^ r9: .cfa -16 + ^
STACK CFI INIT 8d8b0 164 .cfa: sp 0 + .ra: lr
STACK CFI 8d8b4 .cfa: sp 12 +
STACK CFI 8d8b8 .ra: .cfa -4 + ^ r4: .cfa -12 + ^ r5: .cfa -8 + ^
STACK CFI 8d8bc .cfa: sp 320 +
STACK CFI INIT 8da14 1cc .cfa: sp 0 + .ra: lr
STACK CFI 8da18 .cfa: sp 36 +
STACK CFI 8da1c .ra: .cfa -4 + ^ r10: .cfa -12 + ^ r11: .cfa -8 + ^ r4: .cfa -36 + ^ r5: .cfa -32 + ^ r6: .cfa -28 + ^ r7: .cfa -24 + ^ r8: .cfa -20 + ^ r9: .cfa -16 + ^
STACK CFI 8da20 .cfa: sp 4260 +
STACK CFI 8da24 .cfa: sp 4280 +
STACK CFI INIT 8dbe0 7c .cfa: sp 0 + .ra: lr
STACK CFI 8dbe4 .cfa: sp 16 +
STACK CFI 8dbe8 .ra: .cfa -4 + ^ r3: .cfa -16 + ^ r4: .cfa -12 + ^ r5: .cfa -8 + ^
STACK CFI INIT 8dc5c 88 .cfa: sp 0 + .ra: lr
STACK CFI 8dc60 .cfa: sp 16 +
STACK CFI 8dc64 .ra: .cfa -4 + ^ r3: .cfa -16 + ^ r4: .cfa -12 + ^ r5: .cfa -8 + ^
STACK CFI INIT 8dce4 60 .cfa: sp 0 + .ra: lr
STACK CFI 8dce8 .cfa: sp 8 +
STACK CFI 8dcec .ra: .cfa -4 + ^ r4: .cfa -8 + ^
STACK CFI INIT 8dd44 4c .cfa: sp 0 + .ra: lr
STACK CFI 8dd48 .cfa: sp 16 +
STACK CFI 8dd4c .ra: .cfa -4 + ^ r3: .cfa -16 + ^ r4: .cfa -12 + ^ r5: .cfa -8 + ^
STACK CFI INIT 8dd90 54 .cfa: sp 0 + .ra: lr
STACK CFI 8dd94 .cfa: sp 16 +
STACK CFI 8dd98 .ra: .cfa -4 + ^ r4: .cfa -16 + ^ r5: .cfa -12 + ^ r6: .cfa -8 + ^
STACK CFI INIT 8dde4 54 .cfa: sp 0 + .ra: lr
STACK CFI 8dde8 .cfa: sp 16 +
STACK CFI 8ddec .ra: .cfa -4 + ^ r4: .cfa -16 + ^ r5: .cfa -12 + ^ r6: .cfa -8 + ^
STACK CFI INIT 8de38 74 .cfa: sp 0 + .ra: lr
STACK CFI 8de3c .cfa: sp 20 +
STACK CFI 8de40 .ra: .cfa -4 + ^ r4: .cfa -20 + ^ r5: .cfa -16 + ^ r6: .cfa -12 + ^ r7: .cfa -8 + ^
STACK CFI 8de50 .cfa: sp 32 +
STACK CFI INIT 8deac 7c .cfa: sp 0 + .ra: lr
STACK CFI 8deb0 .cfa: sp 24 +
STACK CFI 8deb4 .ra: .cfa -4 + ^ r4: .cfa -24 + ^ r5: .cfa -20 + ^ r6: .cfa -16 + ^ r7: .cfa -12 + ^ r8: .cfa -8 + ^
STACK CFI 8dec4 .cfa: sp 32 +
STACK CFI INIT 8df28 7c .cfa: sp 0 + .ra: lr
STACK CFI 8df2c .cfa: sp 24 +
STACK CFI 8df30 .ra: .cfa -4 + ^ r4: .cfa -24 + ^ r5: .cfa -20 + ^ r6: .cfa -16 + ^ r7: .cfa -12 + ^ r8: .cfa -8 + ^
STACK CFI 8df34 .cfa: sp 32 +
STACK CFI INIT 8dfa4 54 .cfa: sp 0 + .ra: lr
STACK CFI 8dfa8 .cfa: sp 16 +
STACK CFI 8dfac .ra: .cfa -4 + ^ r4: .cfa -16 + ^ r5: .cfa -12 + ^ r6: .cfa -8 + ^
STACK CFI INIT 8dff8 54 .cfa: sp 0 + .ra: lr
STACK CFI 8dffc .cfa: sp 16 +
STACK CFI 8e000 .ra: .cfa -4 + ^ r4: .cfa -16 + ^ r5: .cfa -12 + ^ r6: .cfa -8 + ^
STACK CFI INIT 8e04c 70 .cfa: sp 0 + .ra: lr
STACK CFI 8e050 .cfa: sp 20 +
STACK CFI 8e054 .ra: .cfa -4 + ^ r4: .cfa -20 + ^ r5: .cfa -16 + ^ r6: .cfa -12 + ^ r7: .cfa -8 + ^
STACK CFI 8e058 .cfa: sp 32 +
STACK CFI INIT 8e0bc 54 .cfa: sp 0 + .ra: lr
STACK CFI 8e0c0 .cfa: sp 16 +
STACK CFI 8e0c4 .ra: .cfa -4 + ^ r4: .cfa -16 + ^ r5: .cfa -12 + ^ r6: .cfa -8 + ^
STACK CFI INIT 8e110 130 .cfa: sp 0 + .ra: lr
STACK CFI 8e114 .cfa: sp 16 +
STACK CFI 8e118 .ra: .cfa -4 + ^ r4: .cfa -16 + ^ r5: .cfa -12 + ^ r6: .cfa -8 + ^
STACK CFI INIT 8e240 24 .cfa: sp 0 + .ra: lr
STACK CFI 8e248 .cfa: sp 8 +
STACK CFI 8e24c .ra: .cfa -4 + ^ r4: .cfa -8 + ^
STACK CFI INIT 8e264 4c .cfa: sp 0 + .ra: lr
STACK CFI 8e268 .cfa: sp 16 +
STACK CFI 8e26c .ra: .cfa -4 + ^ r4: .cfa -16 + ^ r5: .cfa -12 + ^ r6: .cfa -8 + ^
STACK CFI INIT 8e2b0 100 .cfa: sp 0 + .ra: lr
STACK CFI 8e2b4 .cfa: sp 16 +
STACK CFI 8e2b8 .ra: .cfa -4 + ^ r3: .cfa -16 + ^ r4: .cfa -12 + ^ r5: .cfa -8 + ^
STACK CFI INIT 8e3b0 26c .cfa: sp 0 + .ra: lr
STACK CFI 8e3b8 .cfa: sp 36 +
STACK CFI 8e3bc .cfa: sp 2036 +
STACK CFI 8e3c0 .cfa: sp 2040 +
STACK CFI 8e3cc .ra: .cfa -4 + ^ r10: .cfa -12 + ^ r11: .cfa -8 + ^ r4: .cfa -36 + ^ r5: .cfa -32 + ^ r6: .cfa -28 + ^ r7: .cfa -24 + ^ r8: .cfa -20 + ^ r9: .cfa -16 + ^
STACK CFI INIT 8e61c dc .cfa: sp 0 + .ra: lr
STACK CFI 8e620 .cfa: sp 24 +
STACK CFI 8e624 .ra: .cfa -4 + ^ r3: .cfa -24 + ^ r4: .cfa -20 + ^ r5: .cfa -16 + ^ r6: .cfa -12 + ^ r7: .cfa -8 + ^
STACK CFI INIT 8e6f8 30 .cfa: sp 0 + .ra: lr
STACK CFI 8e6fc .cfa: sp 8 +
STACK CFI 8e700 .ra: .cfa -4 + ^ r3: .cfa -8 + ^
STACK CFI INIT 8e728 74 .cfa: sp 0 + .ra: lr
STACK CFI 8e72c .cfa: sp 12 +
STACK CFI 8e734 .cfa: sp 72 +
STACK CFI 8e738 .ra: .cfa -4 + ^ r4: .cfa -12 + ^ r5: .cfa -8 + ^
STACK CFI INIT 8e79c 14c .cfa: sp 0 + .ra: lr
STACK CFI 8e7a0 .cfa: sp 32 +
STACK CFI 8e7a4 .ra: .cfa -4 + ^ r10: .cfa -8 + ^ r3: .cfa -32 + ^ r4: .cfa -28 + ^ r5: .cfa -24 + ^ r6: .cfa -20 + ^ r7: .cfa -16 + ^ r8: .cfa -12 + ^
STACK CFI INIT 8e8e8 1e4 .cfa: sp 0 + .ra: lr
STACK CFI 8e8f0 .cfa: sp 36 +
STACK CFI 8e8f8 .ra: .cfa -4 + ^ r10: .cfa -12 + ^ r11: .cfa -8 + ^ r4: .cfa -36 + ^ r5: .cfa -32 + ^ r6: .cfa -28 + ^ r7: .cfa -24 + ^ r8: .cfa -20 + ^ r9: .cfa -16 + ^
STACK CFI 8e904 .cfa: sp 48 +
STACK CFI INIT 8eacc 7c .cfa: sp 0 + .ra: lr
STACK CFI 8ead0 .cfa: sp 16 +
STACK CFI 8ead4 .ra: .cfa -4 + ^ r4: .cfa -16 + ^ r5: .cfa -12 + ^ r6: .cfa -8 + ^
STACK CFI 8ead8 .cfa: sp 80 +
STACK CFI INIT 8eb48 250 .cfa: sp 0 + .ra: lr
STACK CFI 8eb4c .cfa: sp 36 +
STACK CFI 8eb50 .ra: .cfa -4 + ^ r10: .cfa -12 + ^ r11: .cfa -8 + ^ r4: .cfa -36 + ^ r5: .cfa -32 + ^ r6: .cfa -28 + ^ r7: .cfa -24 + ^ r8: .cfa -20 + ^ r9: .cfa -16 + ^
STACK CFI 8eb60 .cfa: sp 56 +
STACK CFI INIT 8ed98 514 .cfa: sp 0 + .ra: lr
STACK CFI 8ed9c .cfa: sp 36 +
STACK CFI 8eda0 .ra: .cfa -4 + ^ r10: .cfa -12 + ^ r11: .cfa -8 + ^ r4: .cfa -36 + ^ r5: .cfa -32 + ^ r6: .cfa -28 + ^ r7: .cfa -24 + ^ r8: .cfa -20 + ^ r9: .cfa -16 + ^
STACK CFI 8eda4 .cfa: sp 80 +
STACK CFI INIT 8f2ac 58 .cfa: sp 0 + .ra: lr
STACK CFI 8f2b0 .cfa: sp 8 +
STACK CFI 8f2b4 .ra: .cfa -4 + ^ r4: .cfa -8 + ^
STACK CFI INIT 8f304 90 .cfa: sp 0 + .ra: lr
STACK CFI 8f30c .cfa: sp 16 +
STACK CFI 8f310 .ra: .cfa -4 + ^ r4: .cfa -16 + ^ r5: .cfa -12 + ^ r6: .cfa -8 + ^
STACK CFI INIT 8f394 e0 .cfa: sp 0 + .ra: lr
STACK CFI 8f398 .cfa: sp 20 +
STACK CFI 8f39c .ra: .cfa -4 + ^ r4: .cfa -20 + ^ r5: .cfa -16 + ^ r6: .cfa -12 + ^ r7: .cfa -8 + ^
STACK CFI 8f3a4 .cfa: sp 128 +
STACK CFI INIT 8f474 204 .cfa: sp 0 + .ra: lr
STACK CFI 8f478 .cfa: sp 24 +
STACK CFI 8f47c .ra: .cfa -4 + ^ r4: .cfa -24 + ^ r5: .cfa -20 + ^ r6: .cfa -16 + ^ r7: .cfa -12 + ^ r8: .cfa -8 + ^
STACK CFI 8f488 .cfa: sp 136 +
STACK CFI INIT 8f678 6e4 .cfa: sp 0 + .ra: lr
STACK CFI 8f67c .cfa: sp 36 +
STACK CFI 8f680 .ra: .cfa -4 + ^ r10: .cfa -12 + ^ r11: .cfa -8 + ^ r4: .cfa -36 + ^ r5: .cfa -32 + ^ r6: .cfa -28 + ^ r7: .cfa -24 + ^ r8: .cfa -20 + ^ r9: .cfa -16 + ^
STACK CFI 8f694 .cfa: sp 80 +
STACK CFI INIT 8fd5c 110 .cfa: sp 0 + .ra: lr
STACK CFI 8fd60 .cfa: sp 20 +
STACK CFI 8fd64 .ra: .cfa -4 + ^ r4: .cfa -20 + ^ r5: .cfa -16 + ^ r6: .cfa -12 + ^ r7: .cfa -8 + ^
STACK CFI 8fd70 .cfa: sp 40 +
STACK CFI INIT 8fe6c f8 .cfa: sp 0 + .ra: lr
STACK CFI 8fe78 .cfa: sp 16 +
STACK CFI 8fe7c .ra: .cfa -4 + ^ r4: .cfa -16 + ^ r5: .cfa -12 + ^ r6: .cfa -8 + ^
STACK CFI INIT 8ff64 440 .cfa: sp 0 + .ra: lr
STACK CFI 8ff68 .cfa: sp 36 +
STACK CFI 8ff6c .ra: .cfa -4 + ^ r10: .cfa -12 + ^ r11: .cfa -8 + ^ r4: .cfa -36 + ^ r5: .cfa -32 + ^ r6: .cfa -28 + ^ r7: .cfa -24 + ^ r8: .cfa -20 + ^ r9: .cfa -16 + ^
STACK CFI 8ff70 .cfa: sp 64 +
STACK CFI INIT 903a4 268 .cfa: sp 0 + .ra: lr
STACK CFI 903b0 .cfa: sp 16 +
STACK CFI 903b4 .ra: .cfa -4 + ^ r4: .cfa -16 + ^ r5: .cfa -12 + ^ r6: .cfa -8 + ^
STACK CFI INIT 9060c 4c .cfa: sp 0 + .ra: lr
STACK CFI 90610 .cfa: sp 16 +
STACK CFI 90614 .ra: .cfa -4 + ^ r4: .cfa -16 + ^ r5: .cfa -12 + ^ r6: .cfa -8 + ^
STACK CFI INIT 90658 60 .cfa: sp 0 + .ra: lr
STACK CFI 9065c .cfa: sp 16 +
STACK CFI 90660 .ra: .cfa -4 + ^ r3: .cfa -16 + ^ r4: .cfa -12 + ^ r5: .cfa -8 + ^
STACK CFI INIT 906b8 88 .cfa: sp 0 + .ra: lr
STACK CFI 906bc .cfa: sp 8 +
STACK CFI 906c4 .cfa: sp 16 +
STACK CFI 906cc .ra: .cfa -4 + ^ r4: .cfa -8 + ^
STACK CFI INIT 90740 140 .cfa: sp 0 + .ra: lr
STACK CFI 90744 .cfa: sp 24 +
STACK CFI 90748 .ra: .cfa -4 + ^ r3: .cfa -24 + ^ r4: .cfa -20 + ^ r5: .cfa -16 + ^ r6: .cfa -12 + ^ r7: .cfa -8 + ^
STACK CFI INIT 90880 414 .cfa: sp 0 + .ra: lr
STACK CFI 90884 .cfa: sp 32 +
STACK CFI 90888 .ra: .cfa -4 + ^ r10: .cfa -8 + ^ r4: .cfa -32 + ^ r5: .cfa -28 + ^ r6: .cfa -24 + ^ r7: .cfa -20 + ^ r8: .cfa -16 + ^ r9: .cfa -12 + ^
STACK CFI 90890 .cfa: sp 48 +
STACK CFI INIT 90c94 2d0 .cfa: sp 0 + .ra: lr
STACK CFI 90c98 .cfa: sp 32 +
STACK CFI 90c9c .ra: .cfa -4 + ^ r10: .cfa -8 + ^ r4: .cfa -32 + ^ r5: .cfa -28 + ^ r6: .cfa -24 + ^ r7: .cfa -20 + ^ r8: .cfa -16 + ^ r9: .cfa -12 + ^
STACK CFI INIT 90f64 6c8 .cfa: sp 0 + .ra: lr
STACK CFI 90f6c .cfa: sp 36 +
STACK CFI 90f74 .cfa: sp 264 +
STACK CFI 90f78 .ra: .cfa -4 + ^ r10: .cfa -12 + ^ r11: .cfa -8 + ^ r4: .cfa -36 + ^ r5: .cfa -32 + ^ r6: .cfa -28 + ^ r7: .cfa -24 + ^ r8: .cfa -20 + ^ r9: .cfa -16 + ^
STACK CFI INIT 9162c 57c .cfa: sp 0 + .ra: lr
STACK CFI 91630 .cfa: sp 36 +
STACK CFI 91634 .ra: .cfa -4 + ^ r10: .cfa -12 + ^ r11: .cfa -8 + ^ r4: .cfa -36 + ^ r5: .cfa -32 + ^ r6: .cfa -28 + ^ r7: .cfa -24 + ^ r8: .cfa -20 + ^ r9: .cfa -16 + ^
STACK CFI 9163c .cfa: sp 272 +
STACK CFI INIT 91ba8 a4 .cfa: sp 0 + .ra: lr
STACK CFI 91bac .cfa: sp 24 +
STACK CFI 91bb0 .ra: .cfa -4 + ^ r3: .cfa -24 + ^ r4: .cfa -20 + ^ r5: .cfa -16 + ^ r6: .cfa -12 + ^ r7: .cfa -8 + ^
STACK CFI INIT 91c4c 158 .cfa: sp 0 + .ra: lr
STACK CFI 91c50 .cfa: sp 24 +
STACK CFI 91c54 .cfa: sp 32 +
STACK CFI 91c58 .ra: .cfa -4 + ^ r4: .cfa -24 + ^ r5: .cfa -20 + ^ r6: .cfa -16 + ^ r7: .cfa -12 + ^ r8: .cfa -8 + ^
STACK CFI INIT 91da4 ac .cfa: sp 0 + .ra: lr
STACK CFI 91db0 .cfa: sp 16 +
STACK CFI 91db4 .ra: .cfa -4 + ^ r4: .cfa -16 + ^ r5: .cfa -12 + ^ r6: .cfa -8 + ^
STACK CFI INIT 91e50 ac .cfa: sp 0 + .ra: lr
STACK CFI 91e5c .cfa: sp 16 +
STACK CFI 91e60 .ra: .cfa -4 + ^ r4: .cfa -16 + ^ r5: .cfa -12 + ^ r6: .cfa -8 + ^
STACK CFI INIT 91efc 124 .cfa: sp 0 + .ra: lr
STACK CFI 91f08 .cfa: sp 24 +
STACK CFI 91f0c .ra: .cfa -4 + ^ r4: .cfa -24 + ^ r5: .cfa -20 + ^ r6: .cfa -16 + ^ r7: .cfa -12 + ^ r8: .cfa -8 + ^
STACK CFI INIT 92020 ac .cfa: sp 0 + .ra: lr
STACK CFI 9202c .cfa: sp 16 +
STACK CFI 92030 .ra: .cfa -4 + ^ r4: .cfa -16 + ^ r5: .cfa -12 + ^ r6: .cfa -8 + ^
STACK CFI INIT 920cc 154 .cfa: sp 0 + .ra: lr
STACK CFI 920d8 .cfa: sp 32 +
STACK CFI 920e0 .cfa: sp 40 +
STACK CFI 920e4 .ra: .cfa -4 + ^ r10: .cfa -8 + ^ r4: .cfa -32 + ^ r5: .cfa -28 + ^ r6: .cfa -24 + ^ r7: .cfa -20 + ^ r8: .cfa -16 + ^ r9: .cfa -12 + ^
STACK CFI INIT 92220 560 .cfa: sp 0 + .ra: lr
STACK CFI 92224 .cfa: sp 36 +
STACK CFI 92228 .ra: .cfa -4 + ^ r10: .cfa -12 + ^ r11: .cfa -8 + ^ r4: .cfa -36 + ^ r5: .cfa -32 + ^ r6: .cfa -28 + ^ r7: .cfa -24 + ^ r8: .cfa -20 + ^ r9: .cfa -16 + ^
STACK CFI 92234 .cfa: sp 56 +
STACK CFI INIT 92780 154 .cfa: sp 0 + .ra: lr
STACK CFI 9278c .cfa: sp 32 +
STACK CFI 92790 .ra: .cfa -4 + ^ r10: .cfa -8 + ^ r3: .cfa -32 + ^ r4: .cfa -28 + ^ r5: .cfa -24 + ^ r6: .cfa -20 + ^ r7: .cfa -16 + ^ r8: .cfa -12 + ^
STACK CFI INIT 928d4 64 .cfa: sp 0 + .ra: lr
STACK CFI 928dc .cfa: sp 8 +
STACK CFI 928e0 .ra: .cfa -4 + ^ r4: .cfa -8 + ^
STACK CFI INIT 92938 7c .cfa: sp 0 + .ra: lr
STACK CFI 92940 .cfa: sp 8 +
STACK CFI 92944 .ra: .cfa -4 + ^ r3: .cfa -8 + ^
STACK CFI INIT 929b4 1c0 .cfa: sp 0 + .ra: lr
STACK CFI 929b8 .cfa: sp 32 +
STACK CFI 929bc .ra: .cfa -4 + ^ r10: .cfa -8 + ^ r4: .cfa -32 + ^ r5: .cfa -28 + ^ r6: .cfa -24 + ^ r7: .cfa -20 + ^ r8: .cfa -16 + ^ r9: .cfa -12 + ^
STACK CFI 929cc .cfa: sp 40 +
STACK CFI INIT 92b74 9c .cfa: sp 0 + .ra: lr
STACK CFI 92b7c .cfa: sp 16 +
STACK CFI 92b80 .ra: .cfa -4 + ^ r4: .cfa -16 + ^ r5: .cfa -12 + ^ r6: .cfa -8 + ^
STACK CFI INIT 92c10 e8 .cfa: sp 0 + .ra: lr
STACK CFI 92c14 .cfa: sp 16 +
STACK CFI 92c18 .ra: .cfa -4 + ^ r4: .cfa -16 + ^ r5: .cfa -12 + ^ r6: .cfa -8 + ^
STACK CFI INIT 92cf8 d0 .cfa: sp 0 + .ra: lr
STACK CFI 92cfc .cfa: sp 8 +
STACK CFI 92d00 .ra: .cfa -4 + ^ r4: .cfa -8 + ^
STACK CFI INIT 92dc8 40 .cfa: sp 0 + .ra: lr
STACK CFI 92dd0 .cfa: sp 8 +
STACK CFI 92dd4 .ra: .cfa -4 + ^ r4: .cfa -8 + ^
STACK CFI INIT 92e08 40 .cfa: sp 0 + .ra: lr
STACK CFI 92e10 .cfa: sp 8 +
STACK CFI 92e14 .ra: .cfa -4 + ^ r4: .cfa -8 + ^
STACK CFI INIT 92e48 48 .cfa: sp 0 + .ra: lr
STACK CFI 92e50 .cfa: sp 16 +
STACK CFI 92e54 .ra: .cfa -4 + ^ r4: .cfa -16 + ^ r5: .cfa -12 + ^ r6: .cfa -8 + ^
STACK CFI INIT 92e90 40 .cfa: sp 0 + .ra: lr
STACK CFI 92e98 .cfa: sp 8 +
STACK CFI 92e9c .ra: .cfa -4 + ^ r4: .cfa -8 + ^
STACK CFI INIT 92ed0 48 .cfa: sp 0 + .ra: lr
STACK CFI 92ed4 .cfa: sp 8 +
STACK CFI 92ed8 .ra: .cfa -4 + ^ r4: .cfa -8 + ^
STACK CFI INIT 92f18 fc .cfa: sp 0 + .ra: lr
STACK CFI 92f1c .cfa: sp 24 +
STACK CFI 92f20 .ra: .cfa -4 + ^ r4: .cfa -24 + ^ r5: .cfa -20 + ^ r6: .cfa -16 + ^ r7: .cfa -12 + ^ r8: .cfa -8 + ^
STACK CFI 92f30 .cfa: sp 32 +
STACK CFI INIT 93014 58 .cfa: sp 0 + .ra: lr
STACK CFI 9301c .cfa: sp 16 +
STACK CFI 93020 .ra: .cfa -4 + ^ r3: .cfa -16 + ^ r4: .cfa -12 + ^ r5: .cfa -8 + ^
STACK CFI INIT 9306c 50 .cfa: sp 0 + .ra: lr
STACK CFI 93074 .cfa: sp 16 +
STACK CFI 9307c .ra: .cfa -4 + ^ r3: .cfa -16 + ^ r4: .cfa -12 + ^ r5: .cfa -8 + ^
STACK CFI INIT 930bc 14 .cfa: sp 0 + .ra: lr
STACK CFI INIT 930d0 d8 .cfa: sp 0 + .ra: lr
STACK CFI 930d4 .cfa: sp 16 +
STACK CFI 930d8 .ra: .cfa -4 + ^ r3: .cfa -16 + ^ r4: .cfa -12 + ^ r5: .cfa -8 + ^
STACK CFI INIT 931a8 9c .cfa: sp 0 + .ra: lr
STACK CFI 931ac .cfa: sp 16 +
STACK CFI 931b0 .ra: .cfa -4 + ^ r4: .cfa -16 + ^ r5: .cfa -12 + ^ r6: .cfa -8 + ^
STACK CFI INIT 93244 24 .cfa: sp 0 + .ra: lr
STACK CFI INIT 93268 50 .cfa: sp 0 + .ra: lr
STACK CFI 93270 .cfa: sp 4 +
STACK CFI 9327c .cfa: sp 16 +
STACK CFI 93284 .ra: .cfa -4 + ^
STACK CFI INIT 932b8 e0 .cfa: sp 0 + .ra: lr
STACK CFI 932c0 .cfa: sp 16 +
STACK CFI 932c4 .ra: .cfa -4 + ^ r4: .cfa -16 + ^ r5: .cfa -12 + ^ r6: .cfa -8 + ^
STACK CFI 932d0 .cfa: sp 24 +
STACK CFI INIT 93398 128 .cfa: sp 0 + .ra: lr
STACK CFI 9339c .cfa: sp 24 +
STACK CFI 933a0 .ra: .cfa -4 + ^ r3: .cfa -24 + ^ r4: .cfa -20 + ^ r5: .cfa -16 + ^ r6: .cfa -12 + ^ r7: .cfa -8 + ^
STACK CFI INIT 934c0 ac .cfa: sp 0 + .ra: lr
STACK CFI 934c4 .cfa: sp 16 +
STACK CFI 934c8 .ra: .cfa -4 + ^ r4: .cfa -16 + ^ r5: .cfa -12 + ^ r6: .cfa -8 + ^
STACK CFI INIT 9356c 108 .cfa: sp 0 + .ra: lr
STACK CFI 93574 .cfa: sp 16 +
STACK CFI 93578 .ra: .cfa -4 + ^ r4: .cfa -16 + ^ r5: .cfa -12 + ^ r6: .cfa -8 + ^
STACK CFI INIT 93674 108 .cfa: sp 0 + .ra: lr
STACK CFI 9367c .cfa: sp 16 +
STACK CFI 93680 .ra: .cfa -4 + ^ r4: .cfa -16 + ^ r5: .cfa -12 + ^ r6: .cfa -8 + ^
STACK CFI INIT 9377c 28 .cfa: sp 0 + .ra: lr
STACK CFI 93780 .cfa: sp 8 +
STACK CFI 93784 .ra: .cfa -4 + ^ r4: .cfa -8 + ^
STACK CFI INIT 937a4 30 .cfa: sp 0 + .ra: lr
STACK CFI 937a8 .cfa: sp 8 +
STACK CFI 937ac .ra: .cfa -4 + ^ r4: .cfa -8 + ^
STACK CFI INIT 937d4 20c .cfa: sp 0 + .ra: lr
STACK CFI 937d8 .cfa: sp 36 +
STACK CFI 937dc .ra: .cfa -4 + ^ r10: .cfa -12 + ^ r11: .cfa -8 + ^ r4: .cfa -36 + ^ r5: .cfa -32 + ^ r6: .cfa -28 + ^ r7: .cfa -24 + ^ r8: .cfa -20 + ^ r9: .cfa -16 + ^
STACK CFI 937f4 .cfa: sp 40 +
STACK CFI INIT 939e0 7c .cfa: sp 0 + .ra: lr
STACK CFI 939e4 .cfa: sp 24 +
STACK CFI 939e8 .ra: .cfa -4 + ^ r4: .cfa -24 + ^ r5: .cfa -20 + ^ r6: .cfa -16 + ^ r7: .cfa -12 + ^ r8: .cfa -8 + ^
STACK CFI INIT 93a5c 34 .cfa: sp 0 + .ra: lr
STACK CFI 93a60 .cfa: sp 16 +
STACK CFI 93a64 .ra: .cfa -4 + ^ r4: .cfa -16 + ^ r5: .cfa -12 + ^ r6: .cfa -8 + ^
STACK CFI INIT 93a90 3c .cfa: sp 0 + .ra: lr
STACK CFI INIT 93acc 54 .cfa: sp 0 + .ra: lr
STACK CFI 93ad0 .cfa: sp 24 +
STACK CFI 93ad4 .ra: .cfa -4 + ^ r3: .cfa -24 + ^ r4: .cfa -20 + ^ r5: .cfa -16 + ^ r6: .cfa -12 + ^ r7: .cfa -8 + ^
STACK CFI INIT 93b20 3c .cfa: sp 0 + .ra: lr
STACK CFI INIT 93b5c 54 .cfa: sp 0 + .ra: lr
STACK CFI 93b60 .cfa: sp 24 +
STACK CFI 93b64 .ra: .cfa -4 + ^ r3: .cfa -24 + ^ r4: .cfa -20 + ^ r5: .cfa -16 + ^ r6: .cfa -12 + ^ r7: .cfa -8 + ^
STACK CFI INIT 93bb0 64 .cfa: sp 0 + .ra: lr
STACK CFI 93bb8 .cfa: sp 16 +
STACK CFI 93bbc .ra: .cfa -4 + ^ r4: .cfa -16 + ^ r5: .cfa -12 + ^ r6: .cfa -8 + ^
STACK CFI INIT 93c14 64 .cfa: sp 0 + .ra: lr
STACK CFI 93c1c .cfa: sp 16 +
STACK CFI 93c20 .ra: .cfa -4 + ^ r4: .cfa -16 + ^ r5: .cfa -12 + ^ r6: .cfa -8 + ^
STACK CFI INIT 93c78 38 .cfa: sp 0 + .ra: lr
STACK CFI 93c7c .cfa: sp 8 + .ra: .cfa -4 + ^ r4: .cfa -8 + ^
STACK CFI INIT 93cb0 38 .cfa: sp 0 + .ra: lr
STACK CFI 93cb4 .cfa: sp 8 + .ra: .cfa -4 + ^ r4: .cfa -8 + ^
STACK CFI INIT 93ce8 38 .cfa: sp 0 + .ra: lr
STACK CFI 93cec .cfa: sp 8 + .ra: .cfa -4 + ^ r4: .cfa -8 + ^
STACK CFI INIT 93d20 38 .cfa: sp 0 + .ra: lr
STACK CFI 93d24 .cfa: sp 8 + .ra: .cfa -4 + ^ r4: .cfa -8 + ^
STACK CFI INIT 93d58 38 .cfa: sp 0 + .ra: lr
STACK CFI 93d5c .cfa: sp 8 + .ra: .cfa -4 + ^ r4: .cfa -8 + ^
STACK CFI INIT 93d90 40 .cfa: sp 0 + .ra: lr
STACK CFI 93d94 .cfa: sp 16 +
STACK CFI 93d98 .ra: .cfa -4 + ^ r3: .cfa -16 + ^ r4: .cfa -12 + ^ r5: .cfa -8 + ^
STACK CFI INIT 93dd0 38 .cfa: sp 0 + .ra: lr
STACK CFI 93dd4 .cfa: sp 8 + .ra: .cfa -4 + ^ r4: .cfa -8 + ^
STACK CFI INIT 93e08 40 .cfa: sp 0 + .ra: lr
STACK CFI 93e0c .cfa: sp 16 +
STACK CFI 93e10 .ra: .cfa -4 + ^ r3: .cfa -16 + ^ r4: .cfa -12 + ^ r5: .cfa -8 + ^
STACK CFI INIT 93e48 38 .cfa: sp 0 + .ra: lr
STACK CFI 93e4c .cfa: sp 8 + .ra: .cfa -4 + ^ r4: .cfa -8 + ^
STACK CFI INIT 93e80 38 .cfa: sp 0 + .ra: lr
STACK CFI 93e84 .cfa: sp 8 + .ra: .cfa -4 + ^ r4: .cfa -8 + ^
STACK CFI INIT 93eb8 38 .cfa: sp 0 + .ra: lr
STACK CFI 93ebc .cfa: sp 8 + .ra: .cfa -4 + ^ r4: .cfa -8 + ^
STACK CFI INIT 93ef0 30 .cfa: sp 0 + .ra: lr
STACK CFI 93ef4 .cfa: sp 16 +
STACK CFI 93ef8 .ra: .cfa -4 + ^ r4: .cfa -16 + ^ r5: .cfa -12 + ^ r6: .cfa -8 + ^
STACK CFI INIT 93f20 38 .cfa: sp 0 + .ra: lr
STACK CFI 93f24 .cfa: sp 8 + .ra: .cfa -4 + ^ r4: .cfa -8 + ^
STACK CFI INIT 93f58 38 .cfa: sp 0 + .ra: lr
STACK CFI 93f5c .cfa: sp 8 + .ra: .cfa -4 + ^ r4: .cfa -8 + ^
STACK CFI INIT 93f90 38 .cfa: sp 0 + .ra: lr
STACK CFI 93f94 .cfa: sp 8 + .ra: .cfa -4 + ^ r4: .cfa -8 + ^
STACK CFI INIT 93fc8 38 .cfa: sp 0 + .ra: lr
STACK CFI 93fcc .cfa: sp 8 + .ra: .cfa -4 + ^ r4: .cfa -8 + ^
STACK CFI INIT 94000 38 .cfa: sp 0 + .ra: lr
STACK CFI 94004 .cfa: sp 8 + .ra: .cfa -4 + ^ r4: .cfa -8 + ^
STACK CFI INIT 94038 40 .cfa: sp 0 + .ra: lr
STACK CFI 9403c .cfa: sp 16 +
STACK CFI 94040 .ra: .cfa -4 + ^ r3: .cfa -16 + ^ r4: .cfa -12 + ^ r5: .cfa -8 + ^
STACK CFI INIT 94078 38 .cfa: sp 0 + .ra: lr
STACK CFI 9407c .cfa: sp 8 + .ra: .cfa -4 + ^ r4: .cfa -8 + ^
STACK CFI INIT 940b0 40 .cfa: sp 0 + .ra: lr
STACK CFI 940b4 .cfa: sp 16 +
STACK CFI 940b8 .ra: .cfa -4 + ^ r3: .cfa -16 + ^ r4: .cfa -12 + ^ r5: .cfa -8 + ^
STACK CFI INIT 940f0 38 .cfa: sp 0 + .ra: lr
STACK CFI 940f4 .cfa: sp 8 + .ra: .cfa -4 + ^ r4: .cfa -8 + ^
STACK CFI INIT 94128 40 .cfa: sp 0 + .ra: lr
STACK CFI 9412c .cfa: sp 16 +
STACK CFI 94130 .ra: .cfa -4 + ^ r3: .cfa -16 + ^ r4: .cfa -12 + ^ r5: .cfa -8 + ^
STACK CFI INIT 94168 38 .cfa: sp 0 + .ra: lr
STACK CFI 9416c .cfa: sp 8 + .ra: .cfa -4 + ^ r4: .cfa -8 + ^
STACK CFI INIT 941a0 40 .cfa: sp 0 + .ra: lr
STACK CFI 941a4 .cfa: sp 16 +
STACK CFI 941a8 .ra: .cfa -4 + ^ r3: .cfa -16 + ^ r4: .cfa -12 + ^ r5: .cfa -8 + ^
STACK CFI INIT 941e0 38 .cfa: sp 0 + .ra: lr
STACK CFI 941e4 .cfa: sp 8 + .ra: .cfa -4 + ^ r4: .cfa -8 + ^
STACK CFI INIT 94218 34 .cfa: sp 0 + .ra: lr
STACK CFI 9421c .cfa: sp 16 +
STACK CFI 94220 .ra: .cfa -4 + ^ r4: .cfa -16 + ^ r5: .cfa -12 + ^ r6: .cfa -8 + ^
STACK CFI INIT 9424c 38 .cfa: sp 0 + .ra: lr
STACK CFI 94250 .cfa: sp 8 + .ra: .cfa -4 + ^ r4: .cfa -8 + ^
STACK CFI INIT 94284 34 .cfa: sp 0 + .ra: lr
STACK CFI 94288 .cfa: sp 16 +
STACK CFI 9428c .ra: .cfa -4 + ^ r4: .cfa -16 + ^ r5: .cfa -12 + ^ r6: .cfa -8 + ^
STACK CFI INIT 942b8 38 .cfa: sp 0 + .ra: lr
STACK CFI 942bc .cfa: sp 8 + .ra: .cfa -4 + ^ r4: .cfa -8 + ^
STACK CFI INIT 942f0 34 .cfa: sp 0 + .ra: lr
STACK CFI 942f4 .cfa: sp 16 +
STACK CFI 942f8 .ra: .cfa -4 + ^ r4: .cfa -16 + ^ r5: .cfa -12 + ^ r6: .cfa -8 + ^
STACK CFI INIT 94324 34 .cfa: sp 0 + .ra: lr
STACK CFI 94328 .cfa: sp 8 + .ra: .cfa -4 + ^ r4: .cfa -8 + ^
STACK CFI INIT 94358 38 .cfa: sp 0 + .ra: lr
STACK CFI 9435c .cfa: sp 8 + .ra: .cfa -4 + ^ r4: .cfa -8 + ^
STACK CFI INIT 94390 34 .cfa: sp 0 + .ra: lr
STACK CFI 94394 .cfa: sp 16 +
STACK CFI 94398 .ra: .cfa -4 + ^ r4: .cfa -16 + ^ r5: .cfa -12 + ^ r6: .cfa -8 + ^
STACK CFI INIT 943c4 38 .cfa: sp 0 + .ra: lr
STACK CFI 943c8 .cfa: sp 8 + .ra: .cfa -4 + ^ r4: .cfa -8 + ^
STACK CFI INIT 943fc 34 .cfa: sp 0 + .ra: lr
STACK CFI 94400 .cfa: sp 16 +
STACK CFI 94404 .ra: .cfa -4 + ^ r4: .cfa -16 + ^ r5: .cfa -12 + ^ r6: .cfa -8 + ^
STACK CFI INIT 94430 38 .cfa: sp 0 + .ra: lr
STACK CFI 94434 .cfa: sp 8 + .ra: .cfa -4 + ^ r4: .cfa -8 + ^
STACK CFI INIT 94468 34 .cfa: sp 0 + .ra: lr
STACK CFI 9446c .cfa: sp 16 +
STACK CFI 94470 .ra: .cfa -4 + ^ r4: .cfa -16 + ^ r5: .cfa -12 + ^ r6: .cfa -8 + ^
STACK CFI INIT 9449c 38 .cfa: sp 0 + .ra: lr
STACK CFI 944a0 .cfa: sp 8 + .ra: .cfa -4 + ^ r4: .cfa -8 + ^
STACK CFI INIT 944d4 38 .cfa: sp 0 + .ra: lr
STACK CFI 944d8 .cfa: sp 8 + .ra: .cfa -4 + ^ r4: .cfa -8 + ^
STACK CFI INIT 9450c 38 .cfa: sp 0 + .ra: lr
STACK CFI 94510 .cfa: sp 8 + .ra: .cfa -4 + ^ r4: .cfa -8 + ^
STACK CFI INIT 94544 38 .cfa: sp 0 + .ra: lr
STACK CFI 94548 .cfa: sp 8 + .ra: .cfa -4 + ^ r4: .cfa -8 + ^
STACK CFI INIT 9457c 30 .cfa: sp 0 + .ra: lr
STACK CFI 94580 .cfa: sp 8 +
STACK CFI 94584 .ra: .cfa -4 + ^ r4: .cfa -8 + ^
STACK CFI INIT 945ac 1c .cfa: sp 0 + .ra: lr
STACK CFI 945b0 .cfa: sp 8 +
STACK CFI 945b4 .ra: .cfa -4 + ^ r4: .cfa -8 + ^
STACK CFI INIT 945c8 38 .cfa: sp 0 + .ra: lr
STACK CFI 945cc .cfa: sp 8 +
STACK CFI 945d0 .ra: .cfa -4 + ^ r4: .cfa -8 + ^
STACK CFI INIT 94600 34 .cfa: sp 0 + .ra: lr
STACK CFI 94604 .cfa: sp 8 +
STACK CFI 94608 .ra: .cfa -4 + ^ r4: .cfa -8 + ^
STACK CFI INIT 94634 20 .cfa: sp 0 + .ra: lr
STACK CFI INIT 94654 20 .cfa: sp 0 + .ra: lr
STACK CFI INIT 94674 4c .cfa: sp 0 + .ra: lr
STACK CFI 94678 .cfa: sp 8 +
STACK CFI 9467c .ra: .cfa -4 + ^ r4: .cfa -8 + ^
STACK CFI INIT 946c0 3c .cfa: sp 0 + .ra: lr
STACK CFI 946c4 .cfa: sp 8 +
STACK CFI 946c8 .ra: .cfa -4 + ^ r4: .cfa -8 + ^
STACK CFI INIT 946fc b0 .cfa: sp 0 + .ra: lr
STACK CFI 94700 .cfa: sp 16 +
STACK CFI 94704 .ra: .cfa -4 + ^ r4: .cfa -16 + ^ r5: .cfa -12 + ^ r6: .cfa -8 + ^
STACK CFI INIT 947ac 64 .cfa: sp 0 + .ra: lr
STACK CFI 947b0 .cfa: sp 8 +
STACK CFI 947b4 .ra: .cfa -4 + ^ r4: .cfa -8 + ^
STACK CFI INIT 94810 34 .cfa: sp 0 + .ra: lr
STACK CFI INIT 94844 34 .cfa: sp 0 + .ra: lr
STACK CFI INIT 94878 4 .cfa: sp 0 + .ra: lr
STACK CFI INIT 9487c ac .cfa: sp 0 + .ra: lr
STACK CFI 94880 .cfa: sp 16 +
STACK CFI 94884 .ra: .cfa -4 + ^ r4: .cfa -16 + ^ r5: .cfa -12 + ^ r6: .cfa -8 + ^
STACK CFI INIT 94928 18 .cfa: sp 0 + .ra: lr
STACK CFI INIT 94940 8 .cfa: sp 0 + .ra: lr
STACK CFI INIT 94948 8 .cfa: sp 0 + .ra: lr
STACK CFI INIT 94950 17c .cfa: sp 0 + .ra: lr
STACK CFI INIT 94acc 70 .cfa: sp 0 + .ra: lr
STACK CFI 94ad0 .cfa: sp 8 +
STACK CFI 94ad4 .ra: .cfa -4 + ^ r4: .cfa -8 + ^
STACK CFI INIT 94b3c 44 .cfa: sp 0 + .ra: lr
STACK CFI INIT 94b80 64 .cfa: sp 0 + .ra: lr
STACK CFI INIT 94be4 78 .cfa: sp 0 + .ra: lr
STACK CFI 94be8 .cfa: sp 8 +
STACK CFI 94bf0 .cfa: sp 64 +
STACK CFI 94bf4 .ra: .cfa -4 + ^ r4: .cfa -8 + ^
STACK CFI INIT 94c5c 1ec .cfa: sp 0 + .ra: lr
STACK CFI 94c60 .cfa: sp 36 +
STACK CFI 94c64 .ra: .cfa -4 + ^ r10: .cfa -12 + ^ r11: .cfa -8 + ^ r4: .cfa -36 + ^ r5: .cfa -32 + ^ r6: .cfa -28 + ^ r7: .cfa -24 + ^ r8: .cfa -20 + ^ r9: .cfa -16 + ^
STACK CFI 94c68 .cfa: sp 48 +
STACK CFI INIT 94e48 78 .cfa: sp 0 + .ra: lr
STACK CFI 94e4c .cfa: sp 8 +
STACK CFI 94e54 .cfa: sp 64 +
STACK CFI 94e58 .ra: .cfa -4 + ^ r4: .cfa -8 + ^
STACK CFI INIT 94ec0 74 .cfa: sp 0 + .ra: lr
STACK CFI 94ec4 .cfa: sp 12 +
STACK CFI 94ecc .cfa: sp 72 +
STACK CFI 94ed0 .ra: .cfa -4 + ^ r4: .cfa -12 + ^ r5: .cfa -8 + ^
STACK CFI INIT 94f34 314 .cfa: sp 0 + .ra: lr
STACK CFI 94f38 .cfa: sp 40 +
STACK CFI 94f3c .ra: .cfa -4 + ^ r10: .cfa -12 + ^ r11: .cfa -8 + ^ r3: .cfa -40 + ^ r4: .cfa -36 + ^ r5: .cfa -32 + ^ r6: .cfa -28 + ^ r7: .cfa -24 + ^ r8: .cfa -20 + ^ r9: .cfa -16 + ^
STACK CFI INIT 95248 84 .cfa: sp 0 + .ra: lr
STACK CFI 9524c .cfa: sp 16 +
STACK CFI 95250 .ra: .cfa -4 + ^ r4: .cfa -16 + ^ r5: .cfa -12 + ^ r6: .cfa -8 + ^
STACK CFI 95254 .cfa: sp 72 +
STACK CFI INIT 952cc 78 .cfa: sp 0 + .ra: lr
STACK CFI 952d0 .cfa: sp 4 +
STACK CFI 952d4 .ra: .cfa -4 + ^
STACK CFI 952d8 .cfa: sp 64 +
STACK CFI INIT 95344 7c .cfa: sp 0 + .ra: lr
STACK CFI 95350 .cfa: sp 16 +
STACK CFI 95358 .ra: .cfa -4 + ^ r4: .cfa -16 + ^ r5: .cfa -12 + ^ r6: .cfa -8 + ^
STACK CFI 9535c .cfa: sp 40 +
STACK CFI INIT 953c0 18c .cfa: sp 0 + .ra: lr
STACK CFI 953c8 .cfa: sp 32 +
STACK CFI 953cc .ra: .cfa -4 + ^ r10: .cfa -8 + ^ r4: .cfa -32 + ^ r5: .cfa -28 + ^ r6: .cfa -24 + ^ r7: .cfa -20 + ^ r8: .cfa -16 + ^ r9: .cfa -12 + ^
STACK CFI INIT 9554c f8 .cfa: sp 0 + .ra: lr
STACK CFI 95550 .cfa: sp 16 +
STACK CFI 95554 .ra: .cfa -4 + ^ r4: .cfa -16 + ^ r5: .cfa -12 + ^ r6: .cfa -8 + ^
STACK CFI INIT 95644 b8 .cfa: sp 0 + .ra: lr
STACK CFI 95650 .cfa: sp 16 +
STACK CFI 95654 .ra: .cfa -4 + ^ r3: .cfa -16 + ^ r4: .cfa -12 + ^ r5: .cfa -8 + ^
STACK CFI INIT 956fc 50 .cfa: sp 0 + .ra: lr
STACK CFI 95700 .cfa: sp 8 +
STACK CFI 95704 .ra: .cfa -4 + ^ r4: .cfa -8 + ^
STACK CFI INIT 9574c 34 .cfa: sp 0 + .ra: lr
STACK CFI INIT 95780 a0 .cfa: sp 0 + .ra: lr
STACK CFI 95788 .cfa: sp 16 +
STACK CFI 9578c .ra: .cfa -4 + ^ r4: .cfa -16 + ^ r5: .cfa -12 + ^ r6: .cfa -8 + ^
STACK CFI INIT 95820 140 .cfa: sp 0 + .ra: lr
STACK CFI 95824 .cfa: sp 24 +
STACK CFI 95828 .ra: .cfa -4 + ^ r3: .cfa -24 + ^ r4: .cfa -20 + ^ r5: .cfa -16 + ^ r6: .cfa -12 + ^ r7: .cfa -8 + ^
STACK CFI INIT 95960 21c .cfa: sp 0 + .ra: lr
STACK CFI 95964 .cfa: sp 36 +
STACK CFI 95968 .ra: .cfa -4 + ^ r10: .cfa -12 + ^ r11: .cfa -8 + ^ r4: .cfa -36 + ^ r5: .cfa -32 + ^ r6: .cfa -28 + ^ r7: .cfa -24 + ^ r8: .cfa -20 + ^ r9: .cfa -16 + ^
STACK CFI 9596c .cfa: sp 56 +
STACK CFI INIT 95b7c 24 .cfa: sp 0 + .ra: lr
STACK CFI 95b80 .cfa: sp 8 +
STACK CFI 95b84 .ra: .cfa -4 + ^ r3: .cfa -8 + ^
STACK CFI INIT 95ba0 94 .cfa: sp 0 + .ra: lr
STACK CFI 95ba4 .cfa: sp 24 +
STACK CFI 95ba8 .ra: .cfa -4 + ^ r4: .cfa -24 + ^ r5: .cfa -20 + ^ r6: .cfa -16 + ^ r7: .cfa -12 + ^ r8: .cfa -8 + ^
STACK CFI INIT 95c34 88 .cfa: sp 0 + .ra: lr
STACK CFI 95c3c .cfa: sp 8 +
STACK CFI 95c44 .cfa: sp 64 +
STACK CFI 95c48 .ra: .cfa -4 + ^ r4: .cfa -8 + ^
STACK CFI INIT 95cbc 15d0 .cfa: sp 0 + .ra: lr
STACK CFI 95cc0 .cfa: sp 36 +
STACK CFI 95cc4 .ra: .cfa -4 + ^ r10: .cfa -12 + ^ r11: .cfa -8 + ^ r4: .cfa -36 + ^ r5: .cfa -32 + ^ r6: .cfa -28 + ^ r7: .cfa -24 + ^ r8: .cfa -20 + ^ r9: .cfa -16 + ^
STACK CFI 95ccc .cfa: sp 168 +
STACK CFI INIT 9728c 278 .cfa: sp 0 + .ra: lr
STACK CFI 97290 .cfa: sp 36 +
STACK CFI 97294 .cfa: sp 48 +
STACK CFI 97298 .ra: .cfa -4 + ^ r10: .cfa -12 + ^ r11: .cfa -8 + ^ r4: .cfa -36 + ^ r5: .cfa -32 + ^ r6: .cfa -28 + ^ r7: .cfa -24 + ^ r8: .cfa -20 + ^ r9: .cfa -16 + ^
STACK CFI INIT 97504 44 .cfa: sp 0 + .ra: lr
STACK CFI 97508 .cfa: sp 4 +
STACK CFI 9750c .ra: .cfa -4 + ^
STACK CFI 97514 .cfa: sp 24 +
STACK CFI INIT 97548 114 .cfa: sp 0 + .ra: lr
STACK CFI 9754c .cfa: sp 28 +
STACK CFI 97550 .cfa: sp 40 +
STACK CFI 97554 .ra: .cfa -4 + ^ r10: .cfa -8 + ^ r4: .cfa -28 + ^ r5: .cfa -24 + ^ r6: .cfa -20 + ^ r7: .cfa -16 + ^ r8: .cfa -12 + ^
STACK CFI INIT 9765c c0 .cfa: sp 0 + .ra: lr
STACK CFI 97660 .cfa: sp 28 +
STACK CFI 97664 .cfa: sp 40 +
STACK CFI 9766c .ra: .cfa -4 + ^ r10: .cfa -8 + ^ r4: .cfa -28 + ^ r5: .cfa -24 + ^ r6: .cfa -20 + ^ r7: .cfa -16 + ^ r8: .cfa -12 + ^
STACK CFI INIT 9771c 78 .cfa: sp 0 + .ra: lr
STACK CFI 97720 .cfa: sp 24 +
STACK CFI 97724 .ra: .cfa -4 + ^ r3: .cfa -24 + ^ r4: .cfa -20 + ^ r5: .cfa -16 + ^ r6: .cfa -12 + ^ r7: .cfa -8 + ^
STACK CFI INIT 97794 34 .cfa: sp 0 + .ra: lr
STACK CFI INIT 977c8 d0 .cfa: sp 0 + .ra: lr
STACK CFI 977cc .cfa: sp 24 +
STACK CFI 977d0 .ra: .cfa -4 + ^ r3: .cfa -24 + ^ r4: .cfa -20 + ^ r5: .cfa -16 + ^ r6: .cfa -12 + ^ r7: .cfa -8 + ^
STACK CFI INIT 97898 34 .cfa: sp 0 + .ra: lr
STACK CFI INIT 978cc 48 .cfa: sp 0 + .ra: lr
STACK CFI INIT 97914 48 .cfa: sp 0 + .ra: lr
STACK CFI INIT 9795c 98 .cfa: sp 0 + .ra: lr
STACK CFI INIT 979f4 38 .cfa: sp 0 + .ra: lr
STACK CFI INIT 97a2c 64 .cfa: sp 0 + .ra: lr
STACK CFI 97a34 .cfa: sp 8 +
STACK CFI 97a3c r4: .cfa -8 + ^ r5: .cfa -4 + ^
STACK CFI INIT 97a90 c8 .cfa: sp 0 + .ra: lr
STACK CFI 97a98 .cfa: sp 8 +
STACK CFI 97a9c r4: .cfa -8 + ^ r5: .cfa -4 + ^
STACK CFI INIT 97b58 50 .cfa: sp 0 + .ra: lr
STACK CFI INIT 97ba8 90 .cfa: sp 0 + .ra: lr
STACK CFI 97bac .cfa: sp 24 +
STACK CFI 97bb0 .ra: .cfa -4 + ^ r4: .cfa -24 + ^ r5: .cfa -20 + ^ r6: .cfa -16 + ^ r7: .cfa -12 + ^ r8: .cfa -8 + ^
STACK CFI INIT 97c38 a4 .cfa: sp 0 + .ra: lr
STACK CFI 97c3c .cfa: sp 32 +
STACK CFI 97c40 .ra: .cfa -4 + ^ r10: .cfa -8 + ^ r3: .cfa -32 + ^ r4: .cfa -28 + ^ r5: .cfa -24 + ^ r6: .cfa -20 + ^ r7: .cfa -16 + ^ r8: .cfa -12 + ^
STACK CFI INIT 97cdc c4 .cfa: sp 0 + .ra: lr
STACK CFI 97ce4 .cfa: sp 4 +
STACK CFI 97ce8 r4: .cfa -4 + ^
STACK CFI INIT 97da0 34 .cfa: sp 0 + .ra: lr
STACK CFI INIT 97dd4 e4 .cfa: sp 0 + .ra: lr
STACK CFI 97de4 .cfa: sp 24 +
STACK CFI 97dec .cfa: sp 32 +
STACK CFI 97df0 .ra: .cfa -4 + ^ r4: .cfa -24 + ^ r5: .cfa -20 + ^ r6: .cfa -16 + ^ r7: .cfa -12 + ^ r8: .cfa -8 + ^
STACK CFI INIT 97eb8 124 .cfa: sp 0 + .ra: lr
STACK CFI 97ec0 .cfa: sp 32 +
STACK CFI 97ec4 .ra: .cfa -4 + ^ r10: .cfa -8 + ^ r4: .cfa -32 + ^ r5: .cfa -28 + ^ r6: .cfa -24 + ^ r7: .cfa -20 + ^ r8: .cfa -16 + ^ r9: .cfa -12 + ^
STACK CFI INIT 97fdc 48 .cfa: sp 0 + .ra: lr
STACK CFI INIT 98024 58 .cfa: sp 0 + .ra: lr
STACK CFI 98028 .cfa: sp 8 +
STACK CFI 9802c .cfa: sp 24 +
STACK CFI 98030 .cfa: sp 32 +
STACK CFI 98034 .ra: .cfa -12 + ^ r2: .cfa -8 + ^ r3: .cfa -4 + ^ r4: .cfa -24 + ^ r5: .cfa -20 + ^ r6: .cfa -16 + ^
STACK CFI INIT 9807c 38 .cfa: sp 0 + .ra: lr
STACK CFI 98088 .cfa: sp 16 +
STACK CFI 98090 .ra: .cfa -4 + ^ r4: .cfa -16 + ^ r5: .cfa -12 + ^ r6: .cfa -8 + ^
STACK CFI INIT 980b4 78 .cfa: sp 0 + .ra: lr
STACK CFI INIT 9812c 38 .cfa: sp 0 + .ra: lr
STACK CFI 98130 .cfa: sp 16 +
STACK CFI 98134 .ra: .cfa -4 + ^ r4: .cfa -16 + ^ r5: .cfa -12 + ^ r6: .cfa -8 + ^
STACK CFI INIT 98164 b0 .cfa: sp 0 + .ra: lr
STACK CFI INIT 98214 144 .cfa: sp 0 + .ra: lr
STACK CFI INIT 98358 e8 .cfa: sp 0 + .ra: lr
STACK CFI INIT 98440 74 .cfa: sp 0 + .ra: lr
STACK CFI INIT 984b4 9c .cfa: sp 0 + .ra: lr
STACK CFI 984b8 .cfa: sp 24 +
STACK CFI 984bc .ra: .cfa -4 + ^ r4: .cfa -24 + ^ r5: .cfa -20 + ^ r6: .cfa -16 + ^ r7: .cfa -12 + ^ r8: .cfa -8 + ^
STACK CFI INIT 98550 8c .cfa: sp 0 + .ra: lr
STACK CFI INIT 985dc d0 .cfa: sp 0 + .ra: lr
STACK CFI 985e8 .cfa: sp 24 +
STACK CFI 985ec .ra: .cfa -4 + ^ r4: .cfa -24 + ^ r5: .cfa -20 + ^ r6: .cfa -16 + ^ r7: .cfa -12 + ^ r8: .cfa -8 + ^
STACK CFI INIT 986ac c0 .cfa: sp 0 + .ra: lr
STACK CFI 986b4 .cfa: sp 4 +
STACK CFI 986b8 r4: .cfa -4 + ^
STACK CFI INIT 9876c 12c .cfa: sp 0 + .ra: lr
STACK CFI 98770 .cfa: sp 24 +
STACK CFI 98774 .ra: .cfa -4 + ^ r3: .cfa -24 + ^ r4: .cfa -20 + ^ r5: .cfa -16 + ^ r6: .cfa -12 + ^ r7: .cfa -8 + ^
STACK CFI INIT 98898 68 .cfa: sp 0 + .ra: lr
STACK CFI 9889c .cfa: sp 16 +
STACK CFI 988a0 .ra: .cfa -4 + ^ r3: .cfa -16 + ^ r4: .cfa -12 + ^ r5: .cfa -8 + ^
STACK CFI INIT 98900 f8 .cfa: sp 0 + .ra: lr
STACK CFI 98908 .cfa: sp 16 +
STACK CFI 9890c .ra: .cfa -4 + ^ r4: .cfa -16 + ^ r5: .cfa -12 + ^ r6: .cfa -8 + ^
STACK CFI INIT 989f8 b4 .cfa: sp 0 + .ra: lr
STACK CFI INIT 98aac 12c .cfa: sp 0 + .ra: lr
STACK CFI 98ab0 .cfa: sp 28 +
STACK CFI 98ab4 .cfa: sp 40 +
STACK CFI 98ab8 .ra: .cfa -4 + ^ r10: .cfa -8 + ^ r4: .cfa -28 + ^ r5: .cfa -24 + ^ r6: .cfa -20 + ^ r7: .cfa -16 + ^ r8: .cfa -12 + ^
STACK CFI INIT 98bd8 164 .cfa: sp 0 + .ra: lr
STACK CFI 98bdc .cfa: sp 28 +
STACK CFI 98be0 .cfa: sp 40 +
STACK CFI 98be4 .ra: .cfa -4 + ^ r10: .cfa -8 + ^ r4: .cfa -28 + ^ r5: .cfa -24 + ^ r6: .cfa -20 + ^ r7: .cfa -16 + ^ r8: .cfa -12 + ^
STACK CFI INIT 98d3c 2a0 .cfa: sp 0 + .ra: lr
STACK CFI 98d40 .cfa: sp 20 +
STACK CFI 98d44 .ra: .cfa -4 + ^ r4: .cfa -20 + ^ r5: .cfa -16 + ^ r6: .cfa -12 + ^ r7: .cfa -8 + ^
STACK CFI 98d50 .cfa: sp 72 +
STACK CFI INIT 98fdc 730 .cfa: sp 0 + .ra: lr
STACK CFI INIT 9970c 9c .cfa: sp 0 + .ra: lr
STACK CFI 99714 .cfa: sp 16 +
STACK CFI 9971c .cfa: sp 72 +
STACK CFI 99724 .ra: .cfa -4 + ^ r4: .cfa -16 + ^ r5: .cfa -12 + ^ r6: .cfa -8 + ^
STACK CFI INIT 997a8 8c .cfa: sp 0 + .ra: lr
STACK CFI 997b0 .cfa: sp 12 +
STACK CFI 997b8 .cfa: sp 72 +
STACK CFI 997c4 .ra: .cfa -4 + ^ r4: .cfa -12 + ^ r5: .cfa -8 + ^
STACK CFI INIT 99834 398 .cfa: sp 0 + .ra: lr
STACK CFI 99838 .cfa: sp 36 +
STACK CFI 9983c .ra: .cfa -4 + ^ r10: .cfa -12 + ^ r11: .cfa -8 + ^ r4: .cfa -36 + ^ r5: .cfa -32 + ^ r6: .cfa -28 + ^ r7: .cfa -24 + ^ r8: .cfa -20 + ^ r9: .cfa -16 + ^
STACK CFI 99840 .cfa: sp 40 +
STACK CFI INIT 99bcc 140 .cfa: sp 0 + .ra: lr
STACK CFI 99bd0 .cfa: sp 36 +
STACK CFI 99bd4 .ra: .cfa -4 + ^ r10: .cfa -12 + ^ r11: .cfa -8 + ^ r4: .cfa -36 + ^ r5: .cfa -32 + ^ r6: .cfa -28 + ^ r7: .cfa -24 + ^ r8: .cfa -20 + ^ r9: .cfa -16 + ^
STACK CFI 99bdc .cfa: sp 56 +
STACK CFI INIT 99d0c 6b0 .cfa: sp 0 + .ra: lr
STACK CFI 99d14 .cfa: sp 36 +
STACK CFI 99d1c .cfa: sp 56 +
STACK CFI 99d20 .ra: .cfa -4 + ^ r10: .cfa -12 + ^ r11: .cfa -8 + ^ r4: .cfa -36 + ^ r5: .cfa -32 + ^ r6: .cfa -28 + ^ r7: .cfa -24 + ^ r8: .cfa -20 + ^ r9: .cfa -16 + ^
STACK CFI INIT 9a3bc 88 .cfa: sp 0 + .ra: lr
STACK CFI 9a3c4 .cfa: sp 16 +
STACK CFI 9a3c8 .ra: .cfa -4 + ^ r3: .cfa -16 + ^ r4: .cfa -12 + ^ r5: .cfa -8 + ^
STACK CFI INIT 9a444 124 .cfa: sp 0 + .ra: lr
STACK CFI 9a44c .cfa: sp 16 +
STACK CFI 9a450 .ra: .cfa -4 + ^ r4: .cfa -16 + ^ r5: .cfa -12 + ^ r6: .cfa -8 + ^
STACK CFI INIT 9a568 60 .cfa: sp 0 + .ra: lr
STACK CFI 9a56c .cfa: sp 20 +
STACK CFI 9a570 .ra: .cfa -4 + ^ r4: .cfa -20 + ^ r5: .cfa -16 + ^ r6: .cfa -12 + ^ r7: .cfa -8 + ^
STACK CFI 9a574 .cfa: sp 32 +
STACK CFI INIT 9a5c8 5c .cfa: sp 0 + .ra: lr
STACK CFI 9a5cc .cfa: sp 20 +
STACK CFI 9a5d0 .ra: .cfa -4 + ^ r4: .cfa -20 + ^ r5: .cfa -16 + ^ r6: .cfa -12 + ^ r7: .cfa -8 + ^
STACK CFI 9a5d4 .cfa: sp 32 +
STACK CFI INIT 9a624 60 .cfa: sp 0 + .ra: lr
STACK CFI 9a62c .cfa: sp 12 +
STACK CFI 9a630 .ra: .cfa -4 + ^ r4: .cfa -12 + ^ r5: .cfa -8 + ^
STACK CFI 9a634 .cfa: sp 32 +
STACK CFI INIT 9a684 100 .cfa: sp 0 + .ra: lr
STACK CFI 9a68c .cfa: sp 16 +
STACK CFI 9a690 .ra: .cfa -4 + ^ r3: .cfa -16 + ^ r4: .cfa -12 + ^ r5: .cfa -8 + ^
STACK CFI INIT 9a784 78 .cfa: sp 0 + .ra: lr
STACK CFI 9a78c .cfa: sp 16 +
STACK CFI 9a790 .ra: .cfa -4 + ^ r4: .cfa -16 + ^ r5: .cfa -12 + ^ r6: .cfa -8 + ^
STACK CFI INIT 9a7fc 140 .cfa: sp 0 + .ra: lr
STACK CFI 9a804 .cfa: sp 16 +
STACK CFI 9a808 .ra: .cfa -4 + ^ r4: .cfa -16 + ^ r5: .cfa -12 + ^ r6: .cfa -8 + ^
STACK CFI INIT 9a93c 1a8 .cfa: sp 0 + .ra: lr
STACK CFI 9a940 .cfa: sp 36 +
STACK CFI 9a944 .ra: .cfa -4 + ^ r10: .cfa -12 + ^ r11: .cfa -8 + ^ r4: .cfa -36 + ^ r5: .cfa -32 + ^ r6: .cfa -28 + ^ r7: .cfa -24 + ^ r8: .cfa -20 + ^ r9: .cfa -16 + ^
STACK CFI 9a948 .cfa: sp 48 +
STACK CFI INIT 9aae4 658 .cfa: sp 0 + .ra: lr
STACK CFI 9aae8 .cfa: sp 36 +
STACK CFI 9aaec .ra: .cfa -4 + ^ r10: .cfa -12 + ^ r11: .cfa -8 + ^ r4: .cfa -36 + ^ r5: .cfa -32 + ^ r6: .cfa -28 + ^ r7: .cfa -24 + ^ r8: .cfa -20 + ^ r9: .cfa -16 + ^
STACK CFI 9aaf8 .cfa: sp 88 +
STACK CFI INIT 9b13c 7c .cfa: sp 0 + .ra: lr
STACK CFI 9b144 .cfa: sp 16 +
STACK CFI 9b148 .ra: .cfa -4 + ^ r3: .cfa -16 + ^ r4: .cfa -12 + ^ r5: .cfa -8 + ^
STACK CFI INIT 9b1b8 2c0 .cfa: sp 0 + .ra: lr
STACK CFI 9b1bc .cfa: sp 36 +
STACK CFI 9b1c0 .ra: .cfa -4 + ^ r10: .cfa -12 + ^ r11: .cfa -8 + ^ r4: .cfa -36 + ^ r5: .cfa -32 + ^ r6: .cfa -28 + ^ r7: .cfa -24 + ^ r8: .cfa -20 + ^ r9: .cfa -16 + ^
STACK CFI 9b1cc .cfa: sp 80 +
STACK CFI INIT 9b478 118 .cfa: sp 0 + .ra: lr
STACK CFI 9b480 .cfa: sp 24 +
STACK CFI 9b484 .ra: .cfa -4 + ^ r4: .cfa -24 + ^ r5: .cfa -20 + ^ r6: .cfa -16 + ^ r7: .cfa -12 + ^ r8: .cfa -8 + ^
STACK CFI INIT 9b590 1d0 .cfa: sp 0 + .ra: lr
STACK CFI 9b594 .cfa: sp 24 +
STACK CFI 9b59c .ra: .cfa -4 + ^ r3: .cfa -24 + ^ r4: .cfa -20 + ^ r5: .cfa -16 + ^ r6: .cfa -12 + ^ r7: .cfa -8 + ^
STACK CFI INIT 9b760 b0 .cfa: sp 0 + .ra: lr
STACK CFI 9b774 .cfa: sp 16 +
STACK CFI 9b77c .ra: .cfa -4 + ^ r4: .cfa -16 + ^ r5: .cfa -12 + ^ r6: .cfa -8 + ^
STACK CFI INIT 9b810 978 .cfa: sp 0 + .ra: lr
STACK CFI 9b814 .cfa: sp 36 +
STACK CFI 9b818 .ra: .cfa -4 + ^ r10: .cfa -12 + ^ r11: .cfa -8 + ^ r4: .cfa -36 + ^ r5: .cfa -32 + ^ r6: .cfa -28 + ^ r7: .cfa -24 + ^ r8: .cfa -20 + ^ r9: .cfa -16 + ^
STACK CFI 9b81c .cfa: sp 80 +
STACK CFI INIT 9c188 538 .cfa: sp 0 + .ra: lr
STACK CFI 9c190 .cfa: sp 12 +
STACK CFI 9c198 .cfa: sp 32 +
STACK CFI 9c1a0 .ra: .cfa -4 + ^ r4: .cfa -12 + ^ r5: .cfa -8 + ^
STACK CFI INIT 9c6c0 3cc .cfa: sp 0 + .ra: lr
STACK CFI 9c6c8 .cfa: sp 12 +
STACK CFI 9c6d0 .cfa: sp 32 +
STACK CFI 9c6d8 .ra: .cfa -4 + ^ r4: .cfa -12 + ^ r5: .cfa -8 + ^
STACK CFI INIT 9ca8c 5ac .cfa: sp 0 + .ra: lr
STACK CFI 9ca94 .cfa: sp 24 +
STACK CFI 9ca98 .ra: .cfa -4 + ^ r4: .cfa -24 + ^ r5: .cfa -20 + ^ r6: .cfa -16 + ^ r7: .cfa -12 + ^ r8: .cfa -8 + ^
STACK CFI 9caa8 .cfa: sp 48 +
STACK CFI INIT 9d038 e8 .cfa: sp 0 + .ra: lr
STACK CFI 9d03c .cfa: sp 16 +
STACK CFI 9d040 .ra: .cfa -4 + ^ r4: .cfa -16 + ^ r5: .cfa -12 + ^ r6: .cfa -8 + ^
STACK CFI INIT 9d120 408 .cfa: sp 0 + .ra: lr
STACK CFI 9d124 .cfa: sp 20 +
STACK CFI 9d128 .ra: .cfa -4 + ^ r4: .cfa -20 + ^ r5: .cfa -16 + ^ r6: .cfa -12 + ^ r7: .cfa -8 + ^
STACK CFI 9d12c .cfa: sp 32 +
STACK CFI INIT 9d528 dc .cfa: sp 0 + .ra: lr
STACK CFI 9d52c .cfa: sp 24 +
STACK CFI 9d530 .ra: .cfa -4 + ^ r3: .cfa -24 + ^ r4: .cfa -20 + ^ r5: .cfa -16 + ^ r6: .cfa -12 + ^ r7: .cfa -8 + ^
STACK CFI INIT 9d604 a0 .cfa: sp 0 + .ra: lr
STACK CFI 9d608 .cfa: sp 24 +
STACK CFI 9d60c .ra: .cfa -4 + ^ r4: .cfa -24 + ^ r5: .cfa -20 + ^ r6: .cfa -16 + ^ r7: .cfa -12 + ^ r8: .cfa -8 + ^
STACK CFI INIT 9d6a4 53c .cfa: sp 0 + .ra: lr
STACK CFI 9d6a8 .cfa: sp 36 +
STACK CFI 9d6b4 .cfa: sp 72 +
STACK CFI 9d6b8 .ra: .cfa -4 + ^ r10: .cfa -12 + ^ r11: .cfa -8 + ^ r4: .cfa -36 + ^ r5: .cfa -32 + ^ r6: .cfa -28 + ^ r7: .cfa -24 + ^ r8: .cfa -20 + ^ r9: .cfa -16 + ^
STACK CFI INIT 9dbe0 90 .cfa: sp 0 + .ra: lr
STACK CFI INIT 9dc70 6b8 .cfa: sp 0 + .ra: lr
STACK CFI 9dc74 .cfa: sp 16 +
STACK CFI 9dc78 .ra: .cfa -4 + ^ r4: .cfa -16 + ^ r5: .cfa -12 + ^ r6: .cfa -8 + ^
STACK CFI INIT 9e328 1c0 .cfa: sp 0 + .ra: lr
STACK CFI 9e32c .cfa: sp 20 +
STACK CFI 9e330 .ra: .cfa -4 + ^ r4: .cfa -20 + ^ r5: .cfa -16 + ^ r6: .cfa -12 + ^ r7: .cfa -8 + ^
STACK CFI 9e334 .cfa: sp 32 +
STACK CFI INIT 9e4e8 82c .cfa: sp 0 + .ra: lr
STACK CFI 9e4f0 .cfa: sp 36 +
STACK CFI 9e4f4 .ra: .cfa -4 + ^ r10: .cfa -12 + ^ r11: .cfa -8 + ^ r4: .cfa -36 + ^ r5: .cfa -32 + ^ r6: .cfa -28 + ^ r7: .cfa -24 + ^ r8: .cfa -20 + ^ r9: .cfa -16 + ^
STACK CFI 9e4f8 .cfa: sp 56 +
STACK CFI INIT 9ed14 268 .cfa: sp 0 + .ra: lr
STACK CFI 9ed18 .cfa: sp 36 +
STACK CFI 9ed1c .ra: .cfa -4 + ^ r10: .cfa -12 + ^ r11: .cfa -8 + ^ r4: .cfa -36 + ^ r5: .cfa -32 + ^ r6: .cfa -28 + ^ r7: .cfa -24 + ^ r8: .cfa -20 + ^ r9: .cfa -16 + ^
STACK CFI 9ed20 .cfa: sp 48 +
STACK CFI INIT 9ef7c 60c .cfa: sp 0 + .ra: lr
STACK CFI 9ef80 .cfa: sp 36 +
STACK CFI 9ef84 .cfa: sp 64 +
STACK CFI 9ef98 .ra: .cfa -4 + ^ r10: .cfa -12 + ^ r11: .cfa -8 + ^ r4: .cfa -36 + ^ r5: .cfa -32 + ^ r6: .cfa -28 + ^ r7: .cfa -24 + ^ r8: .cfa -20 + ^ r9: .cfa -16 + ^
STACK CFI INIT 9f588 17c .cfa: sp 0 + .ra: lr
STACK CFI 9f58c .cfa: sp 32 +
STACK CFI 9f590 .ra: .cfa -4 + ^ r10: .cfa -8 + ^ r4: .cfa -32 + ^ r5: .cfa -28 + ^ r6: .cfa -24 + ^ r7: .cfa -20 + ^ r8: .cfa -16 + ^ r9: .cfa -12 + ^
STACK CFI INIT 9f704 124 .cfa: sp 0 + .ra: lr
STACK CFI 9f70c .cfa: sp 16 +
STACK CFI 9f710 .ra: .cfa -4 + ^ r4: .cfa -16 + ^ r5: .cfa -12 + ^ r6: .cfa -8 + ^
STACK CFI INIT 9f828 8 .cfa: sp 0 + .ra: lr
STACK CFI INIT 9f830 170 .cfa: sp 0 + .ra: lr
STACK CFI 9f834 .cfa: sp 36 +
STACK CFI 9f838 .ra: .cfa -4 + ^ r10: .cfa -12 + ^ r11: .cfa -8 + ^ r4: .cfa -36 + ^ r5: .cfa -32 + ^ r6: .cfa -28 + ^ r7: .cfa -24 + ^ r8: .cfa -20 + ^ r9: .cfa -16 + ^
STACK CFI 9f844 .cfa: sp 200 +
STACK CFI INIT 9f9a0 34 .cfa: sp 0 + .ra: lr
STACK CFI 9f9a4 .cfa: sp 4 +
STACK CFI 9f9ac .cfa: sp 16 +
STACK CFI 9f9b0 .ra: .cfa -4 + ^
STACK CFI INIT 9f9d4 4c .cfa: sp 0 + .ra: lr
STACK CFI 9f9d8 .cfa: sp 8 +
STACK CFI 9f9e0 r4: .cfa -8 + ^ r5: .cfa -4 + ^
STACK CFI INIT 9fa20 7ec .cfa: sp 0 + .ra: lr
STACK CFI 9fa24 .cfa: sp 36 +
STACK CFI 9fa28 .ra: .cfa -4 + ^ r10: .cfa -12 + ^ r11: .cfa -8 + ^ r4: .cfa -36 + ^ r5: .cfa -32 + ^ r6: .cfa -28 + ^ r7: .cfa -24 + ^ r8: .cfa -20 + ^ r9: .cfa -16 + ^
STACK CFI 9fa2c .cfa: sp 64 +
STACK CFI INIT a020c 6cc .cfa: sp 0 + .ra: lr
STACK CFI a0210 .cfa: sp 36 +
STACK CFI a0214 .ra: .cfa -4 + ^ r10: .cfa -12 + ^ r11: .cfa -8 + ^ r4: .cfa -36 + ^ r5: .cfa -32 + ^ r6: .cfa -28 + ^ r7: .cfa -24 + ^ r8: .cfa -20 + ^ r9: .cfa -16 + ^
STACK CFI a0228 .cfa: sp 144 +
STACK CFI INIT a08d8 16c .cfa: sp 0 + .ra: lr
STACK CFI a08e0 .cfa: sp 16 +
STACK CFI a08e4 .ra: .cfa -4 + ^ r4: .cfa -16 + ^ r5: .cfa -12 + ^ r6: .cfa -8 + ^
STACK CFI INIT a0a44 c .cfa: sp 0 + .ra: lr
STACK CFI INIT a0a50 90 .cfa: sp 0 + .ra: lr
STACK CFI a0a54 .cfa: sp 12 +
STACK CFI a0a5c .cfa: sp 24 + .ra: .cfa -4 + ^ r4: .cfa -12 + ^ r5: .cfa -8 + ^
STACK CFI INIT a0ae0 e4 .cfa: sp 0 + .ra: lr
STACK CFI a0ae4 .cfa: sp 24 +
STACK CFI a0ae8 .ra: .cfa -4 + ^ r3: .cfa -24 + ^ r4: .cfa -20 + ^ r5: .cfa -16 + ^ r6: .cfa -12 + ^ r7: .cfa -8 + ^
STACK CFI INIT a0bc4 a70 .cfa: sp 0 + .ra: lr
STACK CFI a0bc8 .cfa: sp 36 +
STACK CFI a0bcc .ra: .cfa -4 + ^ r10: .cfa -12 + ^ r11: .cfa -8 + ^ r4: .cfa -36 + ^ r5: .cfa -32 + ^ r6: .cfa -28 + ^ r7: .cfa -24 + ^ r8: .cfa -20 + ^ r9: .cfa -16 + ^
STACK CFI a0bdc .cfa: sp 104 +
STACK CFI INIT a1634 dc .cfa: sp 0 + .ra: lr
STACK CFI a1638 .cfa: sp 16 + .ra: .cfa -4 + ^ r3: .cfa -16 + ^ r4: .cfa -12 + ^ r5: .cfa -8 + ^
STACK CFI INIT a1710 14 .cfa: sp 0 + .ra: lr
STACK CFI INIT a1724 c .cfa: sp 0 + .ra: lr
STACK CFI INIT a1730 20 .cfa: sp 0 + .ra: lr
STACK CFI INIT a1750 ac .cfa: sp 0 + .ra: lr
STACK CFI a175c .cfa: sp 24 +
STACK CFI a1760 .ra: .cfa -4 + ^ r4: .cfa -24 + ^ r5: .cfa -20 + ^ r6: .cfa -16 + ^ r7: .cfa -12 + ^ r8: .cfa -8 + ^
STACK CFI a1764 .cfa: sp 32 +
STACK CFI INIT a17fc 16c .cfa: sp 0 + .ra: lr
STACK CFI a1800 .cfa: sp 36 +
STACK CFI a1804 .ra: .cfa -4 + ^ r10: .cfa -12 + ^ r11: .cfa -8 + ^ r4: .cfa -36 + ^ r5: .cfa -32 + ^ r6: .cfa -28 + ^ r7: .cfa -24 + ^ r8: .cfa -20 + ^ r9: .cfa -16 + ^
STACK CFI a1810 .cfa: sp 56 +
STACK CFI INIT a1968 1a4 .cfa: sp 0 + .ra: lr
STACK CFI a196c .cfa: sp 36 +
STACK CFI a1970 .ra: .cfa -4 + ^ r10: .cfa -12 + ^ r11: .cfa -8 + ^ r4: .cfa -36 + ^ r5: .cfa -32 + ^ r6: .cfa -28 + ^ r7: .cfa -24 + ^ r8: .cfa -20 + ^ r9: .cfa -16 + ^
STACK CFI a197c .cfa: sp 256 +
STACK CFI INIT a1b0c 244 .cfa: sp 0 + .ra: lr
STACK CFI a1b10 .cfa: sp 36 +
STACK CFI a1b14 .ra: .cfa -4 + ^ r10: .cfa -12 + ^ r11: .cfa -8 + ^ r4: .cfa -36 + ^ r5: .cfa -32 + ^ r6: .cfa -28 + ^ r7: .cfa -24 + ^ r8: .cfa -20 + ^ r9: .cfa -16 + ^
STACK CFI a1b18 .cfa: sp 64 +
STACK CFI INIT a1d50 168 .cfa: sp 0 + .ra: lr
STACK CFI a1d54 .cfa: sp 32 +
STACK CFI a1d60 .cfa: sp 48 +
STACK CFI a1d64 .ra: .cfa -4 + ^ r10: .cfa -8 + ^ r4: .cfa -32 + ^ r5: .cfa -28 + ^ r6: .cfa -24 + ^ r7: .cfa -20 + ^ r8: .cfa -16 + ^ r9: .cfa -12 + ^
STACK CFI INIT a1eb8 1f8 .cfa: sp 0 + .ra: lr
STACK CFI a1ebc .cfa: sp 36 +
STACK CFI a1ec0 .ra: .cfa -4 + ^ r10: .cfa -12 + ^ r11: .cfa -8 + ^ r4: .cfa -36 + ^ r5: .cfa -32 + ^ r6: .cfa -28 + ^ r7: .cfa -24 + ^ r8: .cfa -20 + ^ r9: .cfa -16 + ^
STACK CFI a1ec4 .cfa: sp 64 +
STACK CFI INIT a20b0 11c .cfa: sp 0 + .ra: lr
STACK CFI a20b4 .cfa: sp 28 +
STACK CFI a20c0 .cfa: sp 48 +
STACK CFI a20c4 .ra: .cfa -4 + ^ r10: .cfa -8 + ^ r4: .cfa -28 + ^ r5: .cfa -24 + ^ r6: .cfa -20 + ^ r7: .cfa -16 + ^ r8: .cfa -12 + ^
STACK CFI INIT a21cc 2c .cfa: sp 0 + .ra: lr
STACK CFI a21d0 .cfa: sp 16 +
STACK CFI a21d4 .ra: .cfa -4 + ^ r3: .cfa -16 + ^ r4: .cfa -12 + ^ r5: .cfa -8 + ^
STACK CFI INIT a21f8 30 .cfa: sp 0 + .ra: lr
STACK CFI a2204 .cfa: sp 16 +
STACK CFI a2208 .ra: .cfa -4 + ^ r3: .cfa -16 + ^ r4: .cfa -12 + ^ r5: .cfa -8 + ^
STACK CFI INIT a2228 ac .cfa: sp 0 + .ra: lr
STACK CFI a2234 .cfa: sp 20 +
STACK CFI a2238 .ra: .cfa -4 + ^ r4: .cfa -20 + ^ r5: .cfa -16 + ^ r6: .cfa -12 + ^ r7: .cfa -8 + ^
STACK CFI a223c .cfa: sp 40 +
STACK CFI INIT a22d4 4c .cfa: sp 0 + .ra: lr
STACK CFI a22d8 .cfa: sp 8 +
STACK CFI a22dc .ra: .cfa -4 + ^ r4: .cfa -8 + ^
STACK CFI a22e0 .cfa: sp 16 +
STACK CFI INIT a2320 48 .cfa: sp 0 + .ra: lr
STACK CFI a232c .cfa: sp 16 +
STACK CFI a2330 .ra: .cfa -4 + ^ r4: .cfa -16 + ^ r5: .cfa -12 + ^ r6: .cfa -8 + ^
STACK CFI INIT a2368 48 .cfa: sp 0 + .ra: lr
STACK CFI a2374 .cfa: sp 16 +
STACK CFI a2378 .ra: .cfa -4 + ^ r4: .cfa -16 + ^ r5: .cfa -12 + ^ r6: .cfa -8 + ^
STACK CFI INIT a23b0 34 .cfa: sp 0 + .ra: lr
STACK CFI a23b4 .cfa: sp 8 +
STACK CFI a23b8 .ra: .cfa -4 + ^ r4: .cfa -8 + ^
STACK CFI INIT a23e4 14 .cfa: sp 0 + .ra: lr
STACK CFI INIT a23f8 120 .cfa: sp 0 + .ra: lr
STACK CFI a23fc .cfa: sp 32 +
STACK CFI a2400 .ra: .cfa -4 + ^ r10: .cfa -8 + ^ r3: .cfa -32 + ^ r4: .cfa -28 + ^ r5: .cfa -24 + ^ r6: .cfa -20 + ^ r7: .cfa -16 + ^ r8: .cfa -12 + ^
STACK CFI INIT a2518 68 .cfa: sp 0 + .ra: lr
STACK CFI a251c .cfa: sp 16 +
STACK CFI a2520 .ra: .cfa -4 + ^ r3: .cfa -16 + ^ r4: .cfa -12 + ^ r5: .cfa -8 + ^
STACK CFI INIT a2580 13c .cfa: sp 0 + .ra: lr
STACK CFI a2584 .cfa: sp 16 +
STACK CFI a2588 .ra: .cfa -4 + ^ r4: .cfa -16 + ^ r5: .cfa -12 + ^ r6: .cfa -8 + ^
STACK CFI INIT a26bc 70c .cfa: sp 0 + .ra: lr
STACK CFI a26c0 .cfa: sp 36 +
STACK CFI a26c4 .ra: .cfa -4 + ^ r10: .cfa -12 + ^ r11: .cfa -8 + ^ r4: .cfa -36 + ^ r5: .cfa -32 + ^ r6: .cfa -28 + ^ r7: .cfa -24 + ^ r8: .cfa -20 + ^ r9: .cfa -16 + ^
STACK CFI a26c8 .cfa: sp 64 +
STACK CFI INIT a2dc8 bc .cfa: sp 0 + .ra: lr
STACK CFI a2dcc .cfa: sp 20 +
STACK CFI a2dd0 .cfa: sp 40 +
STACK CFI a2dd4 .ra: .cfa -4 + ^ r4: .cfa -20 + ^ r5: .cfa -16 + ^ r6: .cfa -12 + ^ r7: .cfa -8 + ^
STACK CFI INIT a2e84 48c .cfa: sp 0 + .ra: lr
STACK CFI a2e88 .cfa: sp 24 +
STACK CFI a2e8c .ra: .cfa -4 + ^ r4: .cfa -24 + ^ r5: .cfa -20 + ^ r6: .cfa -16 + ^ r7: .cfa -12 + ^ r8: .cfa -8 + ^
STACK CFI a2e90 .cfa: sp 40 +
STACK CFI INIT a3310 bc .cfa: sp 0 + .ra: lr
STACK CFI a3314 .cfa: sp 20 +
STACK CFI a3318 .cfa: sp 40 +
STACK CFI a331c .ra: .cfa -4 + ^ r4: .cfa -20 + ^ r5: .cfa -16 + ^ r6: .cfa -12 + ^ r7: .cfa -8 + ^
STACK CFI INIT a33cc 230 .cfa: sp 0 + .ra: lr
STACK CFI a33d0 .cfa: sp 24 +
STACK CFI a33d4 .ra: .cfa -4 + ^ r4: .cfa -24 + ^ r5: .cfa -20 + ^ r6: .cfa -16 + ^ r7: .cfa -12 + ^ r8: .cfa -8 + ^
STACK CFI a33d8 .cfa: sp 40 +
STACK CFI INIT a35fc a98 .cfa: sp 0 + .ra: lr
STACK CFI a3600 .cfa: sp 36 +
STACK CFI a3604 .ra: .cfa -4 + ^ r10: .cfa -12 + ^ r11: .cfa -8 + ^ r4: .cfa -36 + ^ r5: .cfa -32 + ^ r6: .cfa -28 + ^ r7: .cfa -24 + ^ r8: .cfa -20 + ^ r9: .cfa -16 + ^
STACK CFI a360c .cfa: sp 80 +
STACK CFI INIT a4094 14 .cfa: sp 0 + .ra: lr
STACK CFI INIT a40a8 64 .cfa: sp 0 + .ra: lr
STACK CFI a40b4 .cfa: sp 12 +
STACK CFI a40b8 .ra: .cfa -4 + ^ r4: .cfa -12 + ^ r5: .cfa -8 + ^
STACK CFI a40bc .cfa: sp 32 +
STACK CFI INIT a410c 70 .cfa: sp 0 + .ra: lr
STACK CFI a4110 .cfa: sp 8 +
STACK CFI a4114 .ra: .cfa -4 + ^ r4: .cfa -8 + ^
STACK CFI a4118 .cfa: sp 32 +
STACK CFI INIT a417c 70 .cfa: sp 0 + .ra: lr
STACK CFI a4180 .cfa: sp 8 +
STACK CFI a4184 .ra: .cfa -4 + ^ r4: .cfa -8 + ^
STACK CFI a4188 .cfa: sp 32 +
STACK CFI INIT a41ec 80 .cfa: sp 0 + .ra: lr
STACK CFI a41f0 .cfa: sp 16 +
STACK CFI a41f4 .ra: .cfa -4 + ^ r4: .cfa -16 + ^ r5: .cfa -12 + ^ r6: .cfa -8 + ^
STACK CFI a41f8 .cfa: sp 32 +
STACK CFI INIT a426c 44 .cfa: sp 0 + .ra: lr
STACK CFI a4278 .cfa: sp 8 +
STACK CFI a427c .ra: .cfa -4 + ^ r4: .cfa -8 + ^
STACK CFI a4280 .cfa: sp 16 +
STACK CFI INIT a42b0 44 .cfa: sp 0 + .ra: lr
STACK CFI a42bc .cfa: sp 8 +
STACK CFI a42c0 .ra: .cfa -4 + ^ r4: .cfa -8 + ^
STACK CFI a42c4 .cfa: sp 16 +
STACK CFI INIT a42f4 14 .cfa: sp 0 + .ra: lr
STACK CFI INIT a4308 74 .cfa: sp 0 + .ra: lr
STACK CFI a430c .cfa: sp 16 +
STACK CFI a4310 .ra: .cfa -4 + ^ r4: .cfa -16 + ^ r5: .cfa -12 + ^ r6: .cfa -8 + ^
STACK CFI INIT a437c 98 .cfa: sp 0 + .ra: lr
STACK CFI a4390 .cfa: sp 4 +
STACK CFI a4398 r4: .cfa -4 + ^
STACK CFI INIT a4414 ec .cfa: sp 0 + .ra: lr
STACK CFI a4418 .cfa: sp 16 +
STACK CFI a441c .ra: .cfa -4 + ^ r3: .cfa -16 + ^ r4: .cfa -12 + ^ r5: .cfa -8 + ^
STACK CFI INIT a4500 64 .cfa: sp 0 + .ra: lr
STACK CFI a4504 .cfa: sp 16 +
STACK CFI a4508 .ra: .cfa -4 + ^ r3: .cfa -16 + ^ r4: .cfa -12 + ^ r5: .cfa -8 + ^
STACK CFI INIT a4564 18 .cfa: sp 0 + .ra: lr
STACK CFI INIT a457c 10 .cfa: sp 0 + .ra: lr
STACK CFI INIT a458c 10 .cfa: sp 0 + .ra: lr
STACK CFI INIT a459c 10 .cfa: sp 0 + .ra: lr
STACK CFI INIT a45ac 1d4 .cfa: sp 0 + .ra: lr
STACK CFI INIT a4780 40 .cfa: sp 0 + .ra: lr
STACK CFI INIT a47c0 b0 .cfa: sp 0 + .ra: lr
STACK CFI INIT a4870 80 .cfa: sp 0 + .ra: lr
STACK CFI INIT a48f0 7c .cfa: sp 0 + .ra: lr
STACK CFI a48f8 .cfa: sp 16 +
STACK CFI a48fc .ra: .cfa -4 + ^ r3: .cfa -16 + ^ r4: .cfa -12 + ^ r5: .cfa -8 + ^
STACK CFI INIT a496c bc .cfa: sp 0 + .ra: lr
STACK CFI INIT a4a28 190 .cfa: sp 0 + .ra: lr
STACK CFI a4a34 .cfa: sp 32 +
STACK CFI a4a38 .ra: .cfa -4 + ^ r10: .cfa -8 + ^ r3: .cfa -32 + ^ r4: .cfa -28 + ^ r5: .cfa -24 + ^ r6: .cfa -20 + ^ r7: .cfa -16 + ^ r8: .cfa -12 + ^
STACK CFI INIT a4bb8 84 .cfa: sp 0 + .ra: lr
STACK CFI a4bc0 .cfa: sp 16 +
STACK CFI a4bc4 .ra: .cfa -4 + ^ r4: .cfa -16 + ^ r5: .cfa -12 + ^ r6: .cfa -8 + ^
STACK CFI INIT a4c3c b4 .cfa: sp 0 + .ra: lr
STACK CFI a4c40 .cfa: sp 16 +
STACK CFI a4c44 .ra: .cfa -4 + ^ r4: .cfa -16 + ^ r5: .cfa -12 + ^ r6: .cfa -8 + ^
STACK CFI INIT a4cf0 60 .cfa: sp 0 + .ra: lr
STACK CFI a4cf4 .cfa: sp 8 +
STACK CFI a4cf8 .ra: .cfa -4 + ^ r4: .cfa -8 + ^
STACK CFI INIT a4d50 110 .cfa: sp 0 + .ra: lr
STACK CFI INIT a4e60 70 .cfa: sp 0 + .ra: lr
STACK CFI INIT a4ed0 7c .cfa: sp 0 + .ra: lr
STACK CFI a4ed4 .cfa: sp 16 +
STACK CFI a4ed8 .ra: .cfa -4 + ^ r4: .cfa -16 + ^ r5: .cfa -12 + ^ r6: .cfa -8 + ^
STACK CFI INIT a4f4c 8 .cfa: sp 0 + .ra: lr
STACK CFI INIT a4f54 30 .cfa: sp 0 + .ra: lr
STACK CFI a4f5c .cfa: sp 8 +
STACK CFI a4f60 .ra: .cfa -4 + ^ r3: .cfa -8 + ^
STACK CFI INIT a4f84 3c .cfa: sp 0 + .ra: lr
STACK CFI a4f8c .cfa: sp 8 +
STACK CFI a4f90 .ra: .cfa -4 + ^ r3: .cfa -8 + ^
STACK CFI INIT a4fc0 3c .cfa: sp 0 + .ra: lr
STACK CFI a4fc8 .cfa: sp 8 +
STACK CFI a4fcc .ra: .cfa -4 + ^ r3: .cfa -8 + ^
STACK CFI INIT a4ffc 3c .cfa: sp 0 + .ra: lr
STACK CFI a5004 .cfa: sp 8 +
STACK CFI a5008 .ra: .cfa -4 + ^ r3: .cfa -8 + ^
STACK CFI INIT a5038 30 .cfa: sp 0 + .ra: lr
STACK CFI a5040 .cfa: sp 8 +
STACK CFI a5044 .ra: .cfa -4 + ^ r3: .cfa -8 + ^
STACK CFI INIT a5068 3c .cfa: sp 0 + .ra: lr
STACK CFI a5070 .cfa: sp 8 +
STACK CFI a5074 .ra: .cfa -4 + ^ r3: .cfa -8 + ^
STACK CFI INIT a50a4 3c .cfa: sp 0 + .ra: lr
STACK CFI a50ac .cfa: sp 8 +
STACK CFI a50b0 .ra: .cfa -4 + ^ r3: .cfa -8 + ^
STACK CFI INIT a50e0 3c .cfa: sp 0 + .ra: lr
STACK CFI a50e8 .cfa: sp 8 +
STACK CFI a50ec .ra: .cfa -4 + ^ r3: .cfa -8 + ^
STACK CFI INIT a511c 48 .cfa: sp 0 + .ra: lr
STACK CFI a5124 .cfa: sp 4 +
STACK CFI a5128 .cfa: sp 16 +
STACK CFI a512c .ra: .cfa -4 + ^
STACK CFI INIT a5164 30 .cfa: sp 0 + .ra: lr
STACK CFI a516c .cfa: sp 8 +
STACK CFI a5170 .ra: .cfa -4 + ^ r3: .cfa -8 + ^
STACK CFI INIT a5194 30 .cfa: sp 0 + .ra: lr
STACK CFI a519c .cfa: sp 8 +
STACK CFI a51a0 .ra: .cfa -4 + ^ r3: .cfa -8 + ^
STACK CFI INIT a51c4 40 .cfa: sp 0 + .ra: lr
STACK CFI a51cc .cfa: sp 4 +
STACK CFI a51d0 .cfa: sp 16 +
STACK CFI a51d4 .ra: .cfa -4 + ^
STACK CFI INIT a5204 30 .cfa: sp 0 + .ra: lr
STACK CFI a520c .cfa: sp 8 +
STACK CFI a5210 .ra: .cfa -4 + ^ r3: .cfa -8 + ^
STACK CFI INIT a5234 30 .cfa: sp 0 + .ra: lr
STACK CFI a523c .cfa: sp 8 +
STACK CFI a5240 .ra: .cfa -4 + ^ r3: .cfa -8 + ^
STACK CFI INIT a5264 30 .cfa: sp 0 + .ra: lr
STACK CFI a526c .cfa: sp 8 +
STACK CFI a5270 .ra: .cfa -4 + ^ r3: .cfa -8 + ^
STACK CFI INIT a5294 30 .cfa: sp 0 + .ra: lr
STACK CFI a529c .cfa: sp 8 +
STACK CFI a52a0 .ra: .cfa -4 + ^ r3: .cfa -8 + ^
STACK CFI INIT a52c4 30 .cfa: sp 0 + .ra: lr
STACK CFI a52cc .cfa: sp 8 +
STACK CFI a52d0 .ra: .cfa -4 + ^ r3: .cfa -8 + ^
STACK CFI INIT a52f4 24 .cfa: sp 0 + .ra: lr
STACK CFI INIT a5318 38 .cfa: sp 0 + .ra: lr
STACK CFI a5324 .cfa: sp 4 +
STACK CFI a5334 .cfa: sp 16 +
STACK CFI a5344 .ra: .cfa -4 + ^
STACK CFI INIT a5350 64 .cfa: sp 0 + .ra: lr
STACK CFI a5360 .cfa: sp 8 +
STACK CFI a536c .ra: .cfa -4 + ^ r4: .cfa -8 + ^
STACK CFI INIT a53b4 98 .cfa: sp 0 + .ra: lr
STACK CFI a53b8 .cfa: sp 16 +
STACK CFI a53bc .ra: .cfa -4 + ^ r3: .cfa -16 + ^ r4: .cfa -12 + ^ r5: .cfa -8 + ^
STACK CFI INIT a544c 48 .cfa: sp 0 + .ra: lr
STACK CFI a5450 .cfa: sp 16 +
STACK CFI a5454 .ra: .cfa -4 + ^ r4: .cfa -16 + ^ r5: .cfa -12 + ^ r6: .cfa -8 + ^
STACK CFI INIT a5494 70 .cfa: sp 0 + .ra: lr
STACK CFI a549c .cfa: sp 16 +
STACK CFI a54a0 .ra: .cfa -4 + ^ r3: .cfa -16 + ^ r4: .cfa -12 + ^ r5: .cfa -8 + ^
STACK CFI INIT a5504 f0 .cfa: sp 0 + .ra: lr
STACK CFI a5508 .cfa: sp 16 +
STACK CFI a550c .ra: .cfa -4 + ^ r4: .cfa -16 + ^ r5: .cfa -12 + ^ r6: .cfa -8 + ^
STACK CFI INIT a55f4 b8 .cfa: sp 0 + .ra: lr
STACK CFI a55f8 .cfa: sp 24 +
STACK CFI a55fc .ra: .cfa -4 + ^ r4: .cfa -24 + ^ r5: .cfa -20 + ^ r6: .cfa -16 + ^ r7: .cfa -12 + ^ r8: .cfa -8 + ^
STACK CFI INIT a56ac 108 .cfa: sp 0 + .ra: lr
STACK CFI a56b0 .cfa: sp 16 +
STACK CFI a56b4 .ra: .cfa -4 + ^ r4: .cfa -16 + ^ r5: .cfa -12 + ^ r6: .cfa -8 + ^
STACK CFI a56c4 .cfa: sp 24 +
STACK CFI INIT a57b4 50 .cfa: sp 0 + .ra: lr
STACK CFI a57b8 .cfa: sp 8 +
STACK CFI a57bc .ra: .cfa -4 + ^ r4: .cfa -8 + ^
STACK CFI a57c4 .cfa: sp 16 +
STACK CFI INIT a5804 154 .cfa: sp 0 + .ra: lr
STACK CFI a5808 .cfa: sp 32 +
STACK CFI a580c .ra: .cfa -4 + ^ r10: .cfa -8 + ^ r4: .cfa -32 + ^ r5: .cfa -28 + ^ r6: .cfa -24 + ^ r7: .cfa -20 + ^ r8: .cfa -16 + ^ r9: .cfa -12 + ^
STACK CFI a5818 .cfa: sp 40 +
STACK CFI INIT a5958 d0 .cfa: sp 0 + .ra: lr
STACK CFI a5968 .cfa: sp 24 +
STACK CFI a5970 .ra: .cfa -4 + ^ r4: .cfa -24 + ^ r5: .cfa -20 + ^ r6: .cfa -16 + ^ r7: .cfa -12 + ^ r8: .cfa -8 + ^
STACK CFI INIT a5a28 a4 .cfa: sp 0 + .ra: lr
STACK CFI a5a30 .cfa: sp 24 +
STACK CFI a5a34 .ra: .cfa -4 + ^ r4: .cfa -24 + ^ r5: .cfa -20 + ^ r6: .cfa -16 + ^ r7: .cfa -12 + ^ r8: .cfa -8 + ^
STACK CFI INIT a5acc cc .cfa: sp 0 + .ra: lr
STACK CFI a5adc .cfa: sp 24 +
STACK CFI a5ae4 .ra: .cfa -4 + ^ r4: .cfa -24 + ^ r5: .cfa -20 + ^ r6: .cfa -16 + ^ r7: .cfa -12 + ^ r8: .cfa -8 + ^
STACK CFI INIT a5b98 64 .cfa: sp 0 + .ra: lr
STACK CFI a5ba0 .cfa: sp 16 +
STACK CFI a5ba4 .ra: .cfa -4 + ^ r3: .cfa -16 + ^ r4: .cfa -12 + ^ r5: .cfa -8 + ^
STACK CFI INIT a5bfc f8 .cfa: sp 0 + .ra: lr
STACK CFI a5c00 .cfa: sp 32 +
STACK CFI a5c04 .ra: .cfa -4 + ^ r10: .cfa -8 + ^ r3: .cfa -32 + ^ r4: .cfa -28 + ^ r5: .cfa -24 + ^ r6: .cfa -20 + ^ r7: .cfa -16 + ^ r8: .cfa -12 + ^
STACK CFI INIT a5cf4 90 .cfa: sp 0 + .ra: lr
STACK CFI a5cf8 .cfa: sp 24 +
STACK CFI a5cfc .ra: .cfa -4 + ^ r4: .cfa -24 + ^ r5: .cfa -20 + ^ r6: .cfa -16 + ^ r7: .cfa -12 + ^ r8: .cfa -8 + ^
STACK CFI INIT a5d84 e8 .cfa: sp 0 + .ra: lr
STACK CFI a5d94 .cfa: sp 24 +
STACK CFI a5d9c .ra: .cfa -4 + ^ r4: .cfa -24 + ^ r5: .cfa -20 + ^ r6: .cfa -16 + ^ r7: .cfa -12 + ^ r8: .cfa -8 + ^
STACK CFI INIT a5e6c b0 .cfa: sp 0 + .ra: lr
STACK CFI a5e74 .cfa: sp 16 +
STACK CFI a5e78 .ra: .cfa -4 + ^ r4: .cfa -16 + ^ r5: .cfa -12 + ^ r6: .cfa -8 + ^
STACK CFI INIT a5f1c 114 .cfa: sp 0 + .ra: lr
STACK CFI a5f20 .cfa: sp 8 +
STACK CFI a5f24 .ra: .cfa -4 + ^ r4: .cfa -8 + ^
STACK CFI a5f34 .cfa: sp 16 +
STACK CFI INIT a6030 f0 .cfa: sp 0 + .ra: lr
STACK CFI a6034 .cfa: sp 16 +
STACK CFI a6038 .ra: .cfa -4 + ^ r4: .cfa -16 + ^ r5: .cfa -12 + ^ r6: .cfa -8 + ^
STACK CFI INIT a6120 110 .cfa: sp 0 + .ra: lr
STACK CFI a6124 .cfa: sp 24 +
STACK CFI a6128 .ra: .cfa -4 + ^ r3: .cfa -24 + ^ r4: .cfa -20 + ^ r5: .cfa -16 + ^ r6: .cfa -12 + ^ r7: .cfa -8 + ^
STACK CFI INIT a6230 cc .cfa: sp 0 + .ra: lr
STACK CFI a6234 .cfa: sp 16 +
STACK CFI a6238 .ra: .cfa -4 + ^ r4: .cfa -16 + ^ r5: .cfa -12 + ^ r6: .cfa -8 + ^
STACK CFI INIT a62fc 170 .cfa: sp 0 + .ra: lr
STACK CFI INIT a646c b8 .cfa: sp 0 + .ra: lr
STACK CFI a6470 .cfa: sp 24 +
STACK CFI a6474 .cfa: sp 32 +
STACK CFI a647c .ra: .cfa -4 + ^ r4: .cfa -24 + ^ r5: .cfa -20 + ^ r6: .cfa -16 + ^ r7: .cfa -12 + ^ r8: .cfa -8 + ^
STACK CFI INIT a6524 324 .cfa: sp 0 + .ra: lr
STACK CFI a6528 .cfa: sp 32 +
STACK CFI a652c .ra: .cfa -4 + ^ r10: .cfa -8 + ^ r4: .cfa -32 + ^ r5: .cfa -28 + ^ r6: .cfa -24 + ^ r7: .cfa -20 + ^ r8: .cfa -16 + ^ r9: .cfa -12 + ^
STACK CFI a6534 .cfa: sp 40 +
STACK CFI INIT a6848 68 .cfa: sp 0 + .ra: lr
STACK CFI a6850 .cfa: sp 12 +
STACK CFI a6854 .cfa: sp 24 +
STACK CFI a6858 .ra: .cfa -16 + ^ r1: .cfa -12 + ^ r2: .cfa -8 + ^ r3: .cfa -24 + ^ r4: .cfa -20 + ^
STACK CFI INIT a68b0 68 .cfa: sp 0 + .ra: lr
STACK CFI a68b8 .cfa: sp 12 +
STACK CFI a68bc .cfa: sp 24 +
STACK CFI a68c0 .ra: .cfa -16 + ^ r1: .cfa -12 + ^ r2: .cfa -8 + ^ r3: .cfa -24 + ^ r4: .cfa -20 + ^
STACK CFI INIT a6918 68 .cfa: sp 0 + .ra: lr
STACK CFI a6920 .cfa: sp 12 +
STACK CFI a6924 .cfa: sp 24 +
STACK CFI a6928 .ra: .cfa -16 + ^ r1: .cfa -12 + ^ r2: .cfa -8 + ^ r3: .cfa -24 + ^ r4: .cfa -20 + ^
STACK CFI INIT a6980 5c .cfa: sp 0 + .ra: lr
STACK CFI a6988 .cfa: sp 8 +
STACK CFI a6990 .ra: .cfa -4 + ^ r4: .cfa -8 + ^
STACK CFI INIT a69dc 4c .cfa: sp 0 + .ra: lr
STACK CFI a69e0 .cfa: sp 16 +
STACK CFI a69e4 .ra: .cfa -4 + ^ r4: .cfa -16 + ^ r5: .cfa -12 + ^ r6: .cfa -8 + ^
STACK CFI INIT a6a28 1e0 .cfa: sp 0 + .ra: lr
STACK CFI a6a2c .cfa: sp 36 +
STACK CFI a6a34 .cfa: sp 104 +
STACK CFI a6a38 .ra: .cfa -4 + ^ r10: .cfa -12 + ^ r11: .cfa -8 + ^ r4: .cfa -36 + ^ r5: .cfa -32 + ^ r6: .cfa -28 + ^ r7: .cfa -24 + ^ r8: .cfa -20 + ^ r9: .cfa -16 + ^
STACK CFI INIT a6c08 4c .cfa: sp 0 + .ra: lr
STACK CFI a6c0c .cfa: sp 8 +
STACK CFI a6c10 .ra: .cfa -4 + ^ r4: .cfa -8 + ^
STACK CFI a6c14 .cfa: sp 32 +
STACK CFI INIT a6c54 9c .cfa: sp 0 + .ra: lr
STACK CFI a6c5c .cfa: sp 24 +
STACK CFI a6c60 .ra: .cfa -4 + ^ r4: .cfa -24 + ^ r5: .cfa -20 + ^ r6: .cfa -16 + ^ r7: .cfa -12 + ^ r8: .cfa -8 + ^
STACK CFI a6c68 .cfa: sp 80 +
STACK CFI INIT a6cf0 30 .cfa: sp 0 + .ra: lr
STACK CFI a6cf4 .cfa: sp 12 +
STACK CFI a6cf8 r4: .cfa -12 + ^ r5: .cfa -8 + ^ r6: .cfa -4 + ^
STACK CFI INIT a6d20 64 .cfa: sp 0 + .ra: lr
STACK CFI a6d24 .cfa: sp 16 +
STACK CFI a6d28 .ra: .cfa -4 + ^ r4: .cfa -16 + ^ r5: .cfa -12 + ^ r6: .cfa -8 + ^
STACK CFI INIT a6d84 60 .cfa: sp 0 + .ra: lr
STACK CFI a6d90 .cfa: sp 16 +
STACK CFI a6d94 .ra: .cfa -4 + ^ r3: .cfa -16 + ^ r4: .cfa -12 + ^ r5: .cfa -8 + ^
STACK CFI INIT a6de4 88 .cfa: sp 0 + .ra: lr
STACK CFI a6dec .cfa: sp 16 +
STACK CFI a6df4 .ra: .cfa -4 + ^ r3: .cfa -16 + ^ r4: .cfa -12 + ^ r5: .cfa -8 + ^
STACK CFI INIT a6e6c c8 .cfa: sp 0 + .ra: lr
STACK CFI a6e70 .cfa: sp 24 +
STACK CFI a6e74 .ra: .cfa -4 + ^ r4: .cfa -24 + ^ r5: .cfa -20 + ^ r6: .cfa -16 + ^ r7: .cfa -12 + ^ r8: .cfa -8 + ^
STACK CFI a6e7c .cfa: sp 32 +
STACK CFI INIT a6f34 40 .cfa: sp 0 + .ra: lr
STACK CFI a6f38 .cfa: sp 16 +
STACK CFI a6f3c .ra: .cfa -4 + ^ r3: .cfa -16 + ^ r4: .cfa -12 + ^ r5: .cfa -8 + ^
STACK CFI INIT a6f74 ec .cfa: sp 0 + .ra: lr
STACK CFI a6f78 .cfa: sp 16 +
STACK CFI a6f7c .ra: .cfa -4 + ^ r4: .cfa -16 + ^ r5: .cfa -12 + ^ r6: .cfa -8 + ^
STACK CFI INIT a7060 a8 .cfa: sp 0 + .ra: lr
STACK CFI a706c .cfa: sp 16 +
STACK CFI a7070 .ra: .cfa -4 + ^ r4: .cfa -16 + ^ r5: .cfa -12 + ^ r6: .cfa -8 + ^
STACK CFI INIT a7108 a8 .cfa: sp 0 + .ra: lr
STACK CFI a7114 .cfa: sp 16 +
STACK CFI a7118 .ra: .cfa -4 + ^ r4: .cfa -16 + ^ r5: .cfa -12 + ^ r6: .cfa -8 + ^
STACK CFI INIT a71b0 a8 .cfa: sp 0 + .ra: lr
STACK CFI a71bc .cfa: sp 16 +
STACK CFI a71c0 .ra: .cfa -4 + ^ r4: .cfa -16 + ^ r5: .cfa -12 + ^ r6: .cfa -8 + ^
STACK CFI INIT a7258 104 .cfa: sp 0 + .ra: lr
STACK CFI a7260 .cfa: sp 16 +
STACK CFI a7264 .ra: .cfa -4 + ^ r4: .cfa -16 + ^ r5: .cfa -12 + ^ r6: .cfa -8 + ^
STACK CFI INIT a735c 3c .cfa: sp 0 + .ra: lr
STACK CFI a7360 .cfa: sp 8 +
STACK CFI a7364 .ra: .cfa -4 + ^ r4: .cfa -8 + ^
STACK CFI INIT a7398 150 .cfa: sp 0 + .ra: lr
STACK CFI a739c .cfa: sp 16 +
STACK CFI a73a0 .ra: .cfa -4 + ^ r4: .cfa -16 + ^ r5: .cfa -12 + ^ r6: .cfa -8 + ^
STACK CFI INIT a74e8 1f4 .cfa: sp 0 + .ra: lr
STACK CFI a74ec .cfa: sp 36 +
STACK CFI a74f0 .ra: .cfa -4 + ^ r10: .cfa -12 + ^ r11: .cfa -8 + ^ r4: .cfa -36 + ^ r5: .cfa -32 + ^ r6: .cfa -28 + ^ r7: .cfa -24 + ^ r8: .cfa -20 + ^ r9: .cfa -16 + ^
STACK CFI a74f4 .cfa: sp 56 +
STACK CFI INIT a76dc 304 .cfa: sp 0 + .ra: lr
STACK CFI a76e0 .cfa: sp 36 +
STACK CFI a76e4 .ra: .cfa -4 + ^ r10: .cfa -12 + ^ r11: .cfa -8 + ^ r4: .cfa -36 + ^ r5: .cfa -32 + ^ r6: .cfa -28 + ^ r7: .cfa -24 + ^ r8: .cfa -20 + ^ r9: .cfa -16 + ^
STACK CFI a76e8 .cfa: sp 56 +
STACK CFI INIT a79e0 68 .cfa: sp 0 + .ra: lr
STACK CFI a79e8 .cfa: sp 16 +
STACK CFI a79ec .ra: .cfa -4 + ^ r4: .cfa -16 + ^ r5: .cfa -12 + ^ r6: .cfa -8 + ^
STACK CFI INIT a7a48 60 .cfa: sp 0 + .ra: lr
STACK CFI a7a4c .cfa: sp 16 +
STACK CFI a7a50 .ra: .cfa -4 + ^ r4: .cfa -16 + ^ r5: .cfa -12 + ^ r6: .cfa -8 + ^
STACK CFI a7a54 .cfa: sp 32 +
STACK CFI INIT a7aa8 80 .cfa: sp 0 + .ra: lr
STACK CFI a7aac .cfa: sp 16 +
STACK CFI a7ab0 .ra: .cfa -4 + ^ r4: .cfa -16 + ^ r5: .cfa -12 + ^ r6: .cfa -8 + ^
STACK CFI INIT a7b28 2b8 .cfa: sp 0 + .ra: lr
STACK CFI a7b2c .cfa: sp 24 +
STACK CFI a7b30 .ra: .cfa -4 + ^ r4: .cfa -24 + ^ r5: .cfa -20 + ^ r6: .cfa -16 + ^ r7: .cfa -12 + ^ r8: .cfa -8 + ^
STACK CFI a7b34 .cfa: sp 128 +
STACK CFI INIT a7de0 558 .cfa: sp 0 + .ra: lr
STACK CFI a7de4 .cfa: sp 36 +
STACK CFI a7de8 .ra: .cfa -4 + ^ r10: .cfa -12 + ^ r11: .cfa -8 + ^ r4: .cfa -36 + ^ r5: .cfa -32 + ^ r6: .cfa -28 + ^ r7: .cfa -24 + ^ r8: .cfa -20 + ^ r9: .cfa -16 + ^
STACK CFI a7df0 .cfa: sp 56 +
STACK CFI INIT a8338 270 .cfa: sp 0 + .ra: lr
STACK CFI a833c .cfa: sp 16 +
STACK CFI a8340 .ra: .cfa -4 + ^ r4: .cfa -16 + ^ r5: .cfa -12 + ^ r6: .cfa -8 + ^
STACK CFI INIT a85a8 108 .cfa: sp 0 + .ra: lr
STACK CFI a85b0 .cfa: sp 24 +
STACK CFI a85b4 .ra: .cfa -4 + ^ r4: .cfa -24 + ^ r5: .cfa -20 + ^ r6: .cfa -16 + ^ r7: .cfa -12 + ^ r8: .cfa -8 + ^
STACK CFI INIT a86b0 58 .cfa: sp 0 + .ra: lr
STACK CFI a86b8 .cfa: sp 8 +
STACK CFI a86bc .ra: .cfa -4 + ^ r3: .cfa -8 + ^
STACK CFI INIT a8708 bc .cfa: sp 0 + .ra: lr
STACK CFI a870c .cfa: sp 32 +
STACK CFI a8710 .ra: .cfa -4 + ^ r10: .cfa -8 + ^ r4: .cfa -32 + ^ r5: .cfa -28 + ^ r6: .cfa -24 + ^ r7: .cfa -20 + ^ r8: .cfa -16 + ^ r9: .cfa -12 + ^
STACK CFI INIT a87c4 278 .cfa: sp 0 + .ra: lr
STACK CFI a87cc .cfa: sp 36 +
STACK CFI a87d0 .ra: .cfa -4 + ^ r10: .cfa -12 + ^ r11: .cfa -8 + ^ r4: .cfa -36 + ^ r5: .cfa -32 + ^ r6: .cfa -28 + ^ r7: .cfa -24 + ^ r8: .cfa -20 + ^ r9: .cfa -16 + ^
STACK CFI a87e0 .cfa: sp 48 +
STACK CFI INIT a8a3c c0 .cfa: sp 0 + .ra: lr
STACK CFI a8a40 .cfa: sp 28 +
STACK CFI a8a44 .cfa: sp 64 +
STACK CFI a8a48 .ra: .cfa -4 + ^ r10: .cfa -8 + ^ r4: .cfa -28 + ^ r5: .cfa -24 + ^ r6: .cfa -20 + ^ r7: .cfa -16 + ^ r8: .cfa -12 + ^
STACK CFI INIT a8afc 60 .cfa: sp 0 + .ra: lr
STACK CFI a8b00 .cfa: sp 16 +
STACK CFI a8b04 .ra: .cfa -4 + ^ r4: .cfa -16 + ^ r5: .cfa -12 + ^ r6: .cfa -8 + ^
STACK CFI INIT a8b5c e8 .cfa: sp 0 + .ra: lr
STACK CFI a8b60 .cfa: sp 32 +
STACK CFI a8b64 .ra: .cfa -4 + ^ r10: .cfa -8 + ^ r3: .cfa -32 + ^ r4: .cfa -28 + ^ r5: .cfa -24 + ^ r6: .cfa -20 + ^ r7: .cfa -16 + ^ r8: .cfa -12 + ^
STACK CFI INIT a8c44 2e0 .cfa: sp 0 + .ra: lr
STACK CFI a8c48 .cfa: sp 40 +
STACK CFI a8c4c .ra: .cfa -4 + ^ r10: .cfa -12 + ^ r11: .cfa -8 + ^ r3: .cfa -40 + ^ r4: .cfa -36 + ^ r5: .cfa -32 + ^ r6: .cfa -28 + ^ r7: .cfa -24 + ^ r8: .cfa -20 + ^ r9: .cfa -16 + ^
STACK CFI INIT a8f24 70 .cfa: sp 0 + .ra: lr
STACK CFI a8f28 .cfa: sp 16 +
STACK CFI a8f2c .ra: .cfa -4 + ^ r4: .cfa -16 + ^ r5: .cfa -12 + ^ r6: .cfa -8 + ^
STACK CFI INIT a8f94 390 .cfa: sp 0 + .ra: lr
STACK CFI a8f98 .cfa: sp 36 +
STACK CFI a8f9c .cfa: sp 80 +
STACK CFI a8fb0 .ra: .cfa -4 + ^ r10: .cfa -12 + ^ r11: .cfa -8 + ^ r4: .cfa -36 + ^ r5: .cfa -32 + ^ r6: .cfa -28 + ^ r7: .cfa -24 + ^ r8: .cfa -20 + ^ r9: .cfa -16 + ^
STACK CFI INIT a9324 888 .cfa: sp 0 + .ra: lr
STACK CFI a9328 .cfa: sp 24 +
STACK CFI a932c .ra: .cfa -4 + ^ r4: .cfa -24 + ^ r5: .cfa -20 + ^ r6: .cfa -16 + ^ r7: .cfa -12 + ^ r8: .cfa -8 + ^
STACK CFI a933c .cfa: sp 32 +
STACK CFI INIT a9bac 98 .cfa: sp 0 + .ra: lr
STACK CFI a9bb0 .cfa: sp 24 +
STACK CFI a9bb4 .cfa: sp 40 +
STACK CFI a9bb8 .ra: .cfa -4 + ^ r4: .cfa -24 + ^ r5: .cfa -20 + ^ r6: .cfa -16 + ^ r7: .cfa -12 + ^ r8: .cfa -8 + ^
STACK CFI INIT a9c44 140 .cfa: sp 0 + .ra: lr
STACK CFI a9c48 .cfa: sp 28 +
STACK CFI a9c4c .cfa: sp 64 +
STACK CFI a9c54 .ra: .cfa -4 + ^ r10: .cfa -8 + ^ r4: .cfa -28 + ^ r5: .cfa -24 + ^ r6: .cfa -20 + ^ r7: .cfa -16 + ^ r8: .cfa -12 + ^
STACK CFI INIT a9d84 12c .cfa: sp 0 + .ra: lr
STACK CFI a9d88 .cfa: sp 24 +
STACK CFI a9d8c .ra: .cfa -4 + ^ r4: .cfa -24 + ^ r5: .cfa -20 + ^ r6: .cfa -16 + ^ r7: .cfa -12 + ^ r8: .cfa -8 + ^
STACK CFI a9da8 .cfa: sp 64 +
STACK CFI INIT a9eb0 38 .cfa: sp 0 + .ra: lr
STACK CFI a9eb4 .cfa: sp 4 +
STACK CFI a9eb8 .cfa: sp 32 +
STACK CFI a9ebc .ra: .cfa -4 + ^
STACK CFI INIT a9ee8 114 .cfa: sp 0 + .ra: lr
STACK CFI a9eec .cfa: sp 24 +
STACK CFI a9ef0 .ra: .cfa -4 + ^ r4: .cfa -24 + ^ r5: .cfa -20 + ^ r6: .cfa -16 + ^ r7: .cfa -12 + ^ r8: .cfa -8 + ^
STACK CFI a9ef4 .cfa: sp 40 +
STACK CFI INIT a9ffc b0 .cfa: sp 0 + .ra: lr
STACK CFI aa000 .cfa: sp 16 +
STACK CFI aa004 .ra: .cfa -4 + ^ r4: .cfa -16 + ^ r5: .cfa -12 + ^ r6: .cfa -8 + ^
STACK CFI aa010 .cfa: sp 88 +
STACK CFI INIT aa0ac 9c .cfa: sp 0 + .ra: lr
STACK CFI aa0b0 .cfa: sp 24 +
STACK CFI aa0b4 .cfa: sp 48 +
STACK CFI aa0b8 .ra: .cfa -4 + ^ r4: .cfa -24 + ^ r5: .cfa -20 + ^ r6: .cfa -16 + ^ r7: .cfa -12 + ^ r8: .cfa -8 + ^
STACK CFI INIT aa148 10c .cfa: sp 0 + .ra: lr
STACK CFI aa14c .cfa: sp 28 +
STACK CFI aa150 .cfa: sp 56 +
STACK CFI aa158 .ra: .cfa -4 + ^ r10: .cfa -8 + ^ r4: .cfa -28 + ^ r5: .cfa -24 + ^ r6: .cfa -20 + ^ r7: .cfa -16 + ^ r8: .cfa -12 + ^
STACK CFI INIT aa254 30 .cfa: sp 0 + .ra: lr
STACK CFI aa258 .cfa: sp 4 +
STACK CFI aa25c .cfa: sp 24 +
STACK CFI aa260 .ra: .cfa -4 + ^
STACK CFI INIT aa284 140 .cfa: sp 0 + .ra: lr
STACK CFI aa290 .cfa: sp 8 +
STACK CFI aa294 .ra: .cfa -4 + ^ r4: .cfa -8 + ^
STACK CFI aa298 .cfa: sp 16 +
STACK CFI INIT aa3c4 a8 .cfa: sp 0 + .ra: lr
STACK CFI aa3c8 .cfa: sp 16 +
STACK CFI aa3cc .ra: .cfa -4 + ^ r4: .cfa -16 + ^ r5: .cfa -12 + ^ r6: .cfa -8 + ^
STACK CFI aa3d4 .cfa: sp 24 +
STACK CFI INIT aa46c 164 .cfa: sp 0 + .ra: lr
STACK CFI aa470 .cfa: sp 20 +
STACK CFI aa474 .ra: .cfa -4 + ^ r4: .cfa -20 + ^ r5: .cfa -16 + ^ r6: .cfa -12 + ^ r7: .cfa -8 + ^
STACK CFI aa478 .cfa: sp 32 +
STACK CFI INIT aa5d0 180 .cfa: sp 0 + .ra: lr
STACK CFI aa5d4 .cfa: sp 28 +
STACK CFI aa5d8 .ra: .cfa -4 + ^ r10: .cfa -8 + ^ r4: .cfa -28 + ^ r5: .cfa -24 + ^ r6: .cfa -20 + ^ r7: .cfa -16 + ^ r8: .cfa -12 + ^
STACK CFI aa5e0 .cfa: sp 40 +
STACK CFI INIT aa750 48 .cfa: sp 0 + .ra: lr
STACK CFI aa75c .cfa: sp 4 +
STACK CFI aa778 .cfa: sp 16 +
STACK CFI aa788 .ra: .cfa -4 + ^
STACK CFI INIT aa798 74 .cfa: sp 0 + .ra: lr
STACK CFI aa7a0 .cfa: sp 16 +
STACK CFI aa7a4 .ra: .cfa -4 + ^ r3: .cfa -16 + ^ r4: .cfa -12 + ^ r5: .cfa -8 + ^
STACK CFI INIT aa80c 94 .cfa: sp 0 + .ra: lr
STACK CFI aa814 .cfa: sp 16 +
STACK CFI aa818 .ra: .cfa -4 + ^ r4: .cfa -16 + ^ r5: .cfa -12 + ^ r6: .cfa -8 + ^
STACK CFI INIT aa8a0 e0 .cfa: sp 0 + .ra: lr
STACK CFI aa8a4 .cfa: sp 24 +
STACK CFI aa8a8 .ra: .cfa -4 + ^ r4: .cfa -24 + ^ r5: .cfa -20 + ^ r6: .cfa -16 + ^ r7: .cfa -12 + ^ r8: .cfa -8 + ^
STACK CFI aa8b4 .cfa: sp 32 +
STACK CFI INIT aa980 8 .cfa: sp 0 + .ra: lr
STACK CFI INIT aa988 234 .cfa: sp 0 + .ra: lr
STACK CFI aa98c .cfa: sp 24 +
STACK CFI aa994 .ra: .cfa -4 + ^ r4: .cfa -24 + ^ r5: .cfa -20 + ^ r6: .cfa -16 + ^ r7: .cfa -12 + ^ r8: .cfa -8 + ^
STACK CFI INIT aabbc 178 .cfa: sp 0 + .ra: lr
STACK CFI aabc4 .cfa: sp 16 +
STACK CFI aabc8 .ra: .cfa -4 + ^ r4: .cfa -16 + ^ r5: .cfa -12 + ^ r6: .cfa -8 + ^
STACK CFI INIT aad34 16c .cfa: sp 0 + .ra: lr
STACK CFI aad3c .cfa: sp 8 +
STACK CFI aad44 .ra: .cfa -4 + ^ r4: .cfa -8 + ^
STACK CFI INIT aaea0 960 .cfa: sp 0 + .ra: lr
STACK CFI aaea4 .cfa: sp 36 +
STACK CFI aaea8 .cfa: sp 112 +
STACK CFI aaeac .ra: .cfa -4 + ^ r10: .cfa -12 + ^ r11: .cfa -8 + ^ r4: .cfa -36 + ^ r5: .cfa -32 + ^ r6: .cfa -28 + ^ r7: .cfa -24 + ^ r8: .cfa -20 + ^ r9: .cfa -16 + ^
STACK CFI INIT ab800 50 .cfa: sp 0 + .ra: lr
STACK CFI ab808 .cfa: sp 8 +
STACK CFI ab810 .cfa: sp 16 +
STACK CFI ab818 .ra: .cfa -4 + ^ r4: .cfa -8 + ^
STACK CFI INIT ab850 358 .cfa: sp 0 + .ra: lr
STACK CFI ab854 .cfa: sp 36 +
STACK CFI ab858 .ra: .cfa -4 + ^ r10: .cfa -12 + ^ r11: .cfa -8 + ^ r4: .cfa -36 + ^ r5: .cfa -32 + ^ r6: .cfa -28 + ^ r7: .cfa -24 + ^ r8: .cfa -20 + ^ r9: .cfa -16 + ^
STACK CFI ab860 .cfa: sp 80 +
STACK CFI INIT abba8 184 .cfa: sp 0 + .ra: lr
STACK CFI abbb0 .cfa: sp 32 +
STACK CFI abbb4 .ra: .cfa -4 + ^ r10: .cfa -8 + ^ r4: .cfa -32 + ^ r5: .cfa -28 + ^ r6: .cfa -24 + ^ r7: .cfa -20 + ^ r8: .cfa -16 + ^ r9: .cfa -12 + ^
STACK CFI INIT abd2c 1dc .cfa: sp 0 + .ra: lr
STACK CFI abd30 .cfa: sp 36 +
STACK CFI abd34 .ra: .cfa -4 + ^ r10: .cfa -12 + ^ r11: .cfa -8 + ^ r4: .cfa -36 + ^ r5: .cfa -32 + ^ r6: .cfa -28 + ^ r7: .cfa -24 + ^ r8: .cfa -20 + ^ r9: .cfa -16 + ^
STACK CFI abd38 .cfa: sp 48 +
STACK CFI INIT abf08 180 .cfa: sp 0 + .ra: lr
STACK CFI abf0c .cfa: sp 36 +
STACK CFI abf10 .ra: .cfa -4 + ^ r10: .cfa -12 + ^ r11: .cfa -8 + ^ r4: .cfa -36 + ^ r5: .cfa -32 + ^ r6: .cfa -28 + ^ r7: .cfa -24 + ^ r8: .cfa -20 + ^ r9: .cfa -16 + ^
STACK CFI abf1c .cfa: sp 64 +
STACK CFI INIT ac088 b5c .cfa: sp 0 + .ra: lr
STACK CFI ac08c .cfa: sp 36 +
STACK CFI ac090 .ra: .cfa -4 + ^ r10: .cfa -12 + ^ r11: .cfa -8 + ^ r4: .cfa -36 + ^ r5: .cfa -32 + ^ r6: .cfa -28 + ^ r7: .cfa -24 + ^ r8: .cfa -20 + ^ r9: .cfa -16 + ^
STACK CFI ac094 .cfa: sp 64 +
STACK CFI INIT acbe4 128 .cfa: sp 0 + .ra: lr
STACK CFI acbe8 .cfa: sp 24 +
STACK CFI acbec .ra: .cfa -4 + ^ r4: .cfa -24 + ^ r5: .cfa -20 + ^ r6: .cfa -16 + ^ r7: .cfa -12 + ^ r8: .cfa -8 + ^
STACK CFI INIT acd0c 238 .cfa: sp 0 + .ra: lr
STACK CFI acd10 .cfa: sp 36 +
STACK CFI acd14 .ra: .cfa -4 + ^ r10: .cfa -12 + ^ r11: .cfa -8 + ^ r4: .cfa -36 + ^ r5: .cfa -32 + ^ r6: .cfa -28 + ^ r7: .cfa -24 + ^ r8: .cfa -20 + ^ r9: .cfa -16 + ^
STACK CFI acd20 .cfa: sp 48 +
STACK CFI INIT acf44 de0 .cfa: sp 0 + .ra: lr
STACK CFI acf48 .cfa: sp 36 +
STACK CFI acf50 .ra: .cfa -4 + ^ r10: .cfa -12 + ^ r11: .cfa -8 + ^ r4: .cfa -36 + ^ r5: .cfa -32 + ^ r6: .cfa -28 + ^ r7: .cfa -24 + ^ r8: .cfa -20 + ^ r9: .cfa -16 + ^
STACK CFI acf5c .cfa: sp 112 +
STACK CFI INIT add24 250 .cfa: sp 0 + .ra: lr
STACK CFI add28 .cfa: sp 32 +
STACK CFI add2c .cfa: sp 48 +
STACK CFI add34 .ra: .cfa -4 + ^ r10: .cfa -8 + ^ r4: .cfa -32 + ^ r5: .cfa -28 + ^ r6: .cfa -24 + ^ r7: .cfa -20 + ^ r8: .cfa -16 + ^ r9: .cfa -12 + ^
STACK CFI INIT adf74 e0 .cfa: sp 0 + .ra: lr
STACK CFI adf78 .cfa: sp 24 +
STACK CFI adf80 .cfa: sp 40 +
STACK CFI adf84 .ra: .cfa -4 + ^ r4: .cfa -24 + ^ r5: .cfa -20 + ^ r6: .cfa -16 + ^ r7: .cfa -12 + ^ r8: .cfa -8 + ^
STACK CFI INIT ae054 6b4 .cfa: sp 0 + .ra: lr
STACK CFI ae058 .cfa: sp 36 +
STACK CFI ae05c .ra: .cfa -4 + ^ r10: .cfa -12 + ^ r11: .cfa -8 + ^ r4: .cfa -36 + ^ r5: .cfa -32 + ^ r6: .cfa -28 + ^ r7: .cfa -24 + ^ r8: .cfa -20 + ^ r9: .cfa -16 + ^
STACK CFI ae060 .cfa: sp 152 +
STACK CFI INIT ae708 4fc .cfa: sp 0 + .ra: lr
STACK CFI ae70c .cfa: sp 36 +
STACK CFI ae710 .ra: .cfa -4 + ^ r10: .cfa -12 + ^ r11: .cfa -8 + ^ r4: .cfa -36 + ^ r5: .cfa -32 + ^ r6: .cfa -28 + ^ r7: .cfa -24 + ^ r8: .cfa -20 + ^ r9: .cfa -16 + ^
STACK CFI ae718 .cfa: sp 72 +
STACK CFI INIT aec04 a04 .cfa: sp 0 + .ra: lr
STACK CFI aec08 .cfa: sp 36 +
STACK CFI aec0c .cfa: sp 96 +
STACK CFI aec10 .ra: .cfa -4 + ^ r10: .cfa -12 + ^ r11: .cfa -8 + ^ r4: .cfa -36 + ^ r5: .cfa -32 + ^ r6: .cfa -28 + ^ r7: .cfa -24 + ^ r8: .cfa -20 + ^ r9: .cfa -16 + ^
STACK CFI INIT af608 58 .cfa: sp 0 + .ra: lr
STACK CFI af610 .cfa: sp 8 +
STACK CFI af618 .cfa: sp 24 +
STACK CFI af61c .ra: .cfa -4 + ^ r4: .cfa -8 + ^
STACK CFI INIT af660 8c .cfa: sp 0 + .ra: lr
STACK CFI af664 .cfa: sp 20 +
STACK CFI af668 .cfa: sp 40 +
STACK CFI af66c .ra: .cfa -4 + ^ r4: .cfa -20 + ^ r5: .cfa -16 + ^ r6: .cfa -12 + ^ r7: .cfa -8 + ^
STACK CFI INIT af6ec dc .cfa: sp 0 + .ra: lr
STACK CFI af6f0 .cfa: sp 28 +
STACK CFI af6f4 .cfa: sp 56 +
STACK CFI af6f8 .ra: .cfa -4 + ^ r10: .cfa -8 + ^ r4: .cfa -28 + ^ r5: .cfa -24 + ^ r6: .cfa -20 + ^ r7: .cfa -16 + ^ r8: .cfa -12 + ^
STACK CFI INIT af7c8 160 .cfa: sp 0 + .ra: lr
STACK CFI af7d4 .cfa: sp 16 +
STACK CFI af7d8 .ra: .cfa -4 + ^ r4: .cfa -16 + ^ r5: .cfa -12 + ^ r6: .cfa -8 + ^
STACK CFI af7dc .cfa: sp 32 +
STACK CFI INIT af928 9c .cfa: sp 0 + .ra: lr
STACK CFI af92c .cfa: sp 28 +
STACK CFI af930 .cfa: sp 56 +
STACK CFI af934 .ra: .cfa -4 + ^ r10: .cfa -8 + ^ r4: .cfa -28 + ^ r5: .cfa -24 + ^ r6: .cfa -20 + ^ r7: .cfa -16 + ^ r8: .cfa -12 + ^
STACK CFI INIT af9c4 b0 .cfa: sp 0 + .ra: lr
STACK CFI af9cc .cfa: sp 8 +
STACK CFI af9d0 .ra: .cfa -4 + ^ r4: .cfa -8 + ^
STACK CFI INIT afa74 fc .cfa: sp 0 + .ra: lr
STACK CFI afa78 .cfa: sp 32 +
STACK CFI afa7c .cfa: sp 56 +
STACK CFI afa80 .ra: .cfa -4 + ^ r10: .cfa -8 + ^ r4: .cfa -32 + ^ r5: .cfa -28 + ^ r6: .cfa -24 + ^ r7: .cfa -20 + ^ r8: .cfa -16 + ^ r9: .cfa -12 + ^
STACK CFI INIT afb70 224 .cfa: sp 0 + .ra: lr
STACK CFI afb74 .cfa: sp 24 +
STACK CFI afb78 .ra: .cfa -4 + ^ r4: .cfa -24 + ^ r5: .cfa -20 + ^ r6: .cfa -16 + ^ r7: .cfa -12 + ^ r8: .cfa -8 + ^
STACK CFI afb7c .cfa: sp 48 +
STACK CFI INIT afd94 a8 .cfa: sp 0 + .ra: lr
STACK CFI afd98 .cfa: sp 12 +
STACK CFI afd9c .ra: .cfa -4 + ^ r4: .cfa -12 + ^ r5: .cfa -8 + ^
STACK CFI afda4 .cfa: sp 24 +
STACK CFI INIT afe3c 50 .cfa: sp 0 + .ra: lr
STACK CFI afe40 .cfa: sp 16 +
STACK CFI afe44 .ra: .cfa -4 + ^ r4: .cfa -16 + ^ r5: .cfa -12 + ^ r6: .cfa -8 + ^
STACK CFI INIT afe8c 50 .cfa: sp 0 + .ra: lr
STACK CFI afe90 .cfa: sp 16 +
STACK CFI afe94 .ra: .cfa -4 + ^ r4: .cfa -16 + ^ r5: .cfa -12 + ^ r6: .cfa -8 + ^
STACK CFI INIT afedc a8 .cfa: sp 0 + .ra: lr
STACK CFI afee0 .cfa: sp 12 +
STACK CFI afee4 .ra: .cfa -4 + ^ r4: .cfa -12 + ^ r5: .cfa -8 + ^
STACK CFI afeec .cfa: sp 24 +
STACK CFI INIT aff84 50 .cfa: sp 0 + .ra: lr
STACK CFI aff88 .cfa: sp 16 +
STACK CFI aff8c .ra: .cfa -4 + ^ r4: .cfa -16 + ^ r5: .cfa -12 + ^ r6: .cfa -8 + ^
STACK CFI INIT affd4 100 .cfa: sp 0 + .ra: lr
STACK CFI affd8 .cfa: sp 32 +
STACK CFI affdc .ra: .cfa -4 + ^ r10: .cfa -8 + ^ r4: .cfa -32 + ^ r5: .cfa -28 + ^ r6: .cfa -24 + ^ r7: .cfa -20 + ^ r8: .cfa -16 + ^ r9: .cfa -12 + ^
STACK CFI affe0 .cfa: sp 64 +
STACK CFI INIT b00d4 1ab8 .cfa: sp 0 + .ra: lr
STACK CFI b00e0 .cfa: sp 36 +
STACK CFI b00e8 .cfa: sp 176 +
STACK CFI b00ec .ra: .cfa -4 + ^ r10: .cfa -12 + ^ r11: .cfa -8 + ^ r4: .cfa -36 + ^ r5: .cfa -32 + ^ r6: .cfa -28 + ^ r7: .cfa -24 + ^ r8: .cfa -20 + ^ r9: .cfa -16 + ^
STACK CFI INIT b1b8c d8 .cfa: sp 0 + .ra: lr
STACK CFI b1b94 .cfa: sp 16 +
STACK CFI b1b9c .ra: .cfa -4 + ^ r4: .cfa -16 + ^ r5: .cfa -12 + ^ r6: .cfa -8 + ^
STACK CFI INIT b1c64 58 .cfa: sp 0 + .ra: lr
STACK CFI b1c68 .cfa: sp 24 +
STACK CFI b1c6c .ra: .cfa -4 + ^ r4: .cfa -24 + ^ r5: .cfa -20 + ^ r6: .cfa -16 + ^ r7: .cfa -12 + ^ r8: .cfa -8 + ^
STACK CFI INIT b1cbc dc .cfa: sp 0 + .ra: lr
STACK CFI b1cc0 .cfa: sp 24 +
STACK CFI b1cc4 .ra: .cfa -4 + ^ r4: .cfa -24 + ^ r5: .cfa -20 + ^ r6: .cfa -16 + ^ r7: .cfa -12 + ^ r8: .cfa -8 + ^
STACK CFI b1cc8 .cfa: sp 56 +
STACK CFI INIT b1d98 37c .cfa: sp 0 + .ra: lr
STACK CFI b1d9c .cfa: sp 36 +
STACK CFI b1da0 .cfa: sp 64 +
STACK CFI b1da4 .ra: .cfa -4 + ^ r10: .cfa -12 + ^ r11: .cfa -8 + ^ r4: .cfa -36 + ^ r5: .cfa -32 + ^ r6: .cfa -28 + ^ r7: .cfa -24 + ^ r8: .cfa -20 + ^ r9: .cfa -16 + ^
STACK CFI INIT b2114 ec .cfa: sp 0 + .ra: lr
STACK CFI b2118 .cfa: sp 28 +
STACK CFI b211c .ra: .cfa -4 + ^ r10: .cfa -8 + ^ r4: .cfa -28 + ^ r5: .cfa -24 + ^ r6: .cfa -20 + ^ r7: .cfa -16 + ^ r8: .cfa -12 + ^
STACK CFI b2120 .cfa: sp 48 +
STACK CFI INIT b2200 12c .cfa: sp 0 + .ra: lr
STACK CFI b2204 .cfa: sp 28 +
STACK CFI b2208 .ra: .cfa -4 + ^ r10: .cfa -8 + ^ r4: .cfa -28 + ^ r5: .cfa -24 + ^ r6: .cfa -20 + ^ r7: .cfa -16 + ^ r8: .cfa -12 + ^
STACK CFI b2214 .cfa: sp 48 +
STACK CFI INIT b232c 180 .cfa: sp 0 + .ra: lr
STACK CFI b2330 .cfa: sp 32 +
STACK CFI b2334 .ra: .cfa -4 + ^ r10: .cfa -8 + ^ r4: .cfa -32 + ^ r5: .cfa -28 + ^ r6: .cfa -24 + ^ r7: .cfa -20 + ^ r8: .cfa -16 + ^ r9: .cfa -12 + ^
STACK CFI b2340 .cfa: sp 48 +
STACK CFI INIT b24ac 190 .cfa: sp 0 + .ra: lr
STACK CFI b24b0 .cfa: sp 36 +
STACK CFI b24b4 .cfa: sp 64 +
STACK CFI b24b8 .ra: .cfa -4 + ^ r10: .cfa -12 + ^ r11: .cfa -8 + ^ r4: .cfa -36 + ^ r5: .cfa -32 + ^ r6: .cfa -28 + ^ r7: .cfa -24 + ^ r8: .cfa -20 + ^ r9: .cfa -16 + ^
STACK CFI INIT b263c 48 .cfa: sp 0 + .ra: lr
STACK CFI b2640 .cfa: sp 20 +
STACK CFI b2644 .ra: .cfa -4 + ^ r4: .cfa -20 + ^ r5: .cfa -16 + ^ r6: .cfa -12 + ^ r7: .cfa -8 + ^
STACK CFI b2648 .cfa: sp 32 +
STACK CFI INIT b2684 4c .cfa: sp 0 + .ra: lr
STACK CFI b2688 .cfa: sp 24 +
STACK CFI b268c .ra: .cfa -4 + ^ r4: .cfa -24 + ^ r5: .cfa -20 + ^ r6: .cfa -16 + ^ r7: .cfa -12 + ^ r8: .cfa -8 + ^
STACK CFI INIT b26d0 144 .cfa: sp 0 + .ra: lr
STACK CFI b26dc .cfa: sp 24 +
STACK CFI b26e0 .ra: .cfa -4 + ^ r4: .cfa -24 + ^ r5: .cfa -20 + ^ r6: .cfa -16 + ^ r7: .cfa -12 + ^ r8: .cfa -8 + ^
STACK CFI b26e4 .cfa: sp 40 +
STACK CFI INIT b2814 68 .cfa: sp 0 + .ra: lr
STACK CFI b2820 .cfa: sp 16 +
STACK CFI b2824 .ra: .cfa -4 + ^ r4: .cfa -16 + ^ r5: .cfa -12 + ^ r6: .cfa -8 + ^
STACK CFI b2828 .cfa: sp 24 +
STACK CFI INIT b287c d4 .cfa: sp 0 + .ra: lr
STACK CFI b2880 .cfa: sp 16 +
STACK CFI b288c .cfa: sp 24 +
STACK CFI b2890 .ra: .cfa -4 + ^ r4: .cfa -16 + ^ r5: .cfa -12 + ^ r6: .cfa -8 + ^
STACK CFI INIT b2950 3e0 .cfa: sp 0 + .ra: lr
STACK CFI b2954 .cfa: sp 36 +
STACK CFI b2958 .cfa: sp 72 +
STACK CFI b2960 .ra: .cfa -4 + ^ r10: .cfa -12 + ^ r11: .cfa -8 + ^ r4: .cfa -36 + ^ r5: .cfa -32 + ^ r6: .cfa -28 + ^ r7: .cfa -24 + ^ r8: .cfa -20 + ^ r9: .cfa -16 + ^
STACK CFI INIT b2d30 f8 .cfa: sp 0 + .ra: lr
STACK CFI b2d34 .cfa: sp 28 +
STACK CFI b2d38 .ra: .cfa -4 + ^ r10: .cfa -8 + ^ r4: .cfa -28 + ^ r5: .cfa -24 + ^ r6: .cfa -20 + ^ r7: .cfa -16 + ^ r8: .cfa -12 + ^
STACK CFI b2d3c .cfa: sp 48 +
STACK CFI INIT b2e28 148 .cfa: sp 0 + .ra: lr
STACK CFI b2e2c .cfa: sp 28 +
STACK CFI b2e30 .ra: .cfa -4 + ^ r10: .cfa -8 + ^ r4: .cfa -28 + ^ r5: .cfa -24 + ^ r6: .cfa -20 + ^ r7: .cfa -16 + ^ r8: .cfa -12 + ^
STACK CFI b2e3c .cfa: sp 48 +
STACK CFI INIT b2f70 30 .cfa: sp 0 + .ra: lr
STACK CFI b2f74 .cfa: sp 8 +
STACK CFI b2f78 .ra: .cfa -4 + ^ r4: .cfa -8 + ^
STACK CFI INIT b2fa0 43c .cfa: sp 0 + .ra: lr
STACK CFI b2fb0 .cfa: sp 36 +
STACK CFI b2fb8 .cfa: sp 56 +
STACK CFI b2fbc .ra: .cfa -4 + ^ r10: .cfa -12 + ^ r11: .cfa -8 + ^ r4: .cfa -36 + ^ r5: .cfa -32 + ^ r6: .cfa -28 + ^ r7: .cfa -24 + ^ r8: .cfa -20 + ^ r9: .cfa -16 + ^
STACK CFI INIT b33dc 1e0 .cfa: sp 0 + .ra: lr
STACK CFI b33e8 .cfa: sp 32 +
STACK CFI b33ec .ra: .cfa -4 + ^ r10: .cfa -8 + ^ r4: .cfa -32 + ^ r5: .cfa -28 + ^ r6: .cfa -24 + ^ r7: .cfa -20 + ^ r8: .cfa -16 + ^ r9: .cfa -12 + ^
STACK CFI b33f0 .cfa: sp 40 +
STACK CFI INIT b35bc 2f4 .cfa: sp 0 + .ra: lr
STACK CFI b35c0 .cfa: sp 36 +
STACK CFI b35c4 .ra: .cfa -4 + ^ r10: .cfa -12 + ^ r11: .cfa -8 + ^ r4: .cfa -36 + ^ r5: .cfa -32 + ^ r6: .cfa -28 + ^ r7: .cfa -24 + ^ r8: .cfa -20 + ^ r9: .cfa -16 + ^
STACK CFI b35c8 .cfa: sp 56 +
STACK CFI INIT b38b0 474 .cfa: sp 0 + .ra: lr
STACK CFI b38b4 .cfa: sp 36 +
STACK CFI b38b8 .ra: .cfa -4 + ^ r10: .cfa -12 + ^ r11: .cfa -8 + ^ r4: .cfa -36 + ^ r5: .cfa -32 + ^ r6: .cfa -28 + ^ r7: .cfa -24 + ^ r8: .cfa -20 + ^ r9: .cfa -16 + ^
STACK CFI b38c0 .cfa: sp 64 +
STACK CFI INIT b3d24 580 .cfa: sp 0 + .ra: lr
STACK CFI b3d28 .cfa: sp 36 +
STACK CFI b3d2c .ra: .cfa -4 + ^ r10: .cfa -12 + ^ r11: .cfa -8 + ^ r4: .cfa -36 + ^ r5: .cfa -32 + ^ r6: .cfa -28 + ^ r7: .cfa -24 + ^ r8: .cfa -20 + ^ r9: .cfa -16 + ^
STACK CFI b3d34 .cfa: sp 64 +
STACK CFI INIT b42a4 64 .cfa: sp 0 + .ra: lr
STACK CFI INIT b4308 308 .cfa: sp 0 + .ra: lr
STACK CFI b430c .cfa: sp 36 +
STACK CFI b4310 .ra: .cfa -4 + ^ r10: .cfa -12 + ^ r11: .cfa -8 + ^ r4: .cfa -36 + ^ r5: .cfa -32 + ^ r6: .cfa -28 + ^ r7: .cfa -24 + ^ r8: .cfa -20 + ^ r9: .cfa -16 + ^
STACK CFI b4320 .cfa: sp 56 +
STACK CFI INIT b4610 1e4 .cfa: sp 0 + .ra: lr
STACK CFI b4614 .cfa: sp 32 +
STACK CFI b4618 .ra: .cfa -4 + ^ r10: .cfa -8 + ^ r4: .cfa -32 + ^ r5: .cfa -28 + ^ r6: .cfa -24 + ^ r7: .cfa -20 + ^ r8: .cfa -16 + ^ r9: .cfa -12 + ^
STACK CFI INIT b47f4 68 .cfa: sp 0 + .ra: lr
STACK CFI b4804 .cfa: sp 8 +
STACK CFI b4810 .ra: .cfa -4 + ^ r3: .cfa -8 + ^
STACK CFI INIT b485c 88 .cfa: sp 0 + .ra: lr
STACK CFI b4860 .cfa: sp 16 +
STACK CFI b4864 .ra: .cfa -4 + ^ r4: .cfa -16 + ^ r5: .cfa -12 + ^ r6: .cfa -8 + ^
STACK CFI INIT b48e4 64 .cfa: sp 0 + .ra: lr
STACK CFI b48e8 .cfa: sp 16 +
STACK CFI b48ec .ra: .cfa -4 + ^ r3: .cfa -16 + ^ r4: .cfa -12 + ^ r5: .cfa -8 + ^
STACK CFI INIT b4948 13c0 .cfa: sp 0 + .ra: lr
STACK CFI b494c .cfa: sp 36 +
STACK CFI b4958 .ra: .cfa -4 + ^ r10: .cfa -12 + ^ r11: .cfa -8 + ^ r4: .cfa -36 + ^ r5: .cfa -32 + ^ r6: .cfa -28 + ^ r7: .cfa -24 + ^ r8: .cfa -20 + ^ r9: .cfa -16 + ^
STACK CFI b4960 .cfa: sp 104 +
STACK CFI INIT b5d08 e40 .cfa: sp 0 + .ra: lr
STACK CFI b5d0c .cfa: sp 36 +
STACK CFI b5d14 .ra: .cfa -4 + ^ r10: .cfa -12 + ^ r11: .cfa -8 + ^ r4: .cfa -36 + ^ r5: .cfa -32 + ^ r6: .cfa -28 + ^ r7: .cfa -24 + ^ r8: .cfa -20 + ^ r9: .cfa -16 + ^
STACK CFI b5d20 .cfa: sp 104 +
STACK CFI INIT b6b48 11b0 .cfa: sp 0 + .ra: lr
STACK CFI b6b4c .cfa: sp 36 +
STACK CFI b6b50 .ra: .cfa -4 + ^ r10: .cfa -12 + ^ r11: .cfa -8 + ^ r4: .cfa -36 + ^ r5: .cfa -32 + ^ r6: .cfa -28 + ^ r7: .cfa -24 + ^ r8: .cfa -20 + ^ r9: .cfa -16 + ^
STACK CFI b6b54 .cfa: sp 136 +
STACK CFI INIT b7cf8 3e4 .cfa: sp 0 + .ra: lr
STACK CFI b7cfc .cfa: sp 36 +
STACK CFI b7d00 .ra: .cfa -4 + ^ r10: .cfa -12 + ^ r11: .cfa -8 + ^ r4: .cfa -36 + ^ r5: .cfa -32 + ^ r6: .cfa -28 + ^ r7: .cfa -24 + ^ r8: .cfa -20 + ^ r9: .cfa -16 + ^
STACK CFI b7d08 .cfa: sp 64 +
STACK CFI INIT b80dc e38 .cfa: sp 0 + .ra: lr
STACK CFI b80e4 .cfa: sp 36 +
STACK CFI b80f0 .cfa: sp 88 +
STACK CFI b80f8 .ra: .cfa -4 + ^ r10: .cfa -12 + ^ r11: .cfa -8 + ^ r4: .cfa -36 + ^ r5: .cfa -32 + ^ r6: .cfa -28 + ^ r7: .cfa -24 + ^ r8: .cfa -20 + ^ r9: .cfa -16 + ^
STACK CFI INIT b8f14 ec0 .cfa: sp 0 + .ra: lr
STACK CFI b8f18 .cfa: sp 36 +
STACK CFI b8f1c .ra: .cfa -4 + ^ r10: .cfa -12 + ^ r11: .cfa -8 + ^ r4: .cfa -36 + ^ r5: .cfa -32 + ^ r6: .cfa -28 + ^ r7: .cfa -24 + ^ r8: .cfa -20 + ^ r9: .cfa -16 + ^
STACK CFI b8f34 .cfa: sp 96 +
STACK CFI INIT b9dd4 d84 .cfa: sp 0 + .ra: lr
STACK CFI b9dd8 .cfa: sp 36 +
STACK CFI b9ddc .ra: .cfa -4 + ^ r10: .cfa -12 + ^ r11: .cfa -8 + ^ r4: .cfa -36 + ^ r5: .cfa -32 + ^ r6: .cfa -28 + ^ r7: .cfa -24 + ^ r8: .cfa -20 + ^ r9: .cfa -16 + ^
STACK CFI b9df0 .cfa: sp 104 +
STACK CFI INIT bab58 4f8 .cfa: sp 0 + .ra: lr
STACK CFI bab5c .cfa: sp 36 +
STACK CFI bab68 .cfa: sp 64 +
STACK CFI bab6c .ra: .cfa -4 + ^ r10: .cfa -12 + ^ r11: .cfa -8 + ^ r4: .cfa -36 + ^ r5: .cfa -32 + ^ r6: .cfa -28 + ^ r7: .cfa -24 + ^ r8: .cfa -20 + ^ r9: .cfa -16 + ^
STACK CFI INIT bb050 430 .cfa: sp 0 + .ra: lr
STACK CFI bb054 .cfa: sp 36 +
STACK CFI bb058 .ra: .cfa -4 + ^ r10: .cfa -12 + ^ r11: .cfa -8 + ^ r4: .cfa -36 + ^ r5: .cfa -32 + ^ r6: .cfa -28 + ^ r7: .cfa -24 + ^ r8: .cfa -20 + ^ r9: .cfa -16 + ^
STACK CFI bb070 .cfa: sp 56 +
STACK CFI INIT bb480 100 .cfa: sp 0 + .ra: lr
STACK CFI bb484 .cfa: sp 16 +
STACK CFI bb488 .ra: .cfa -4 + ^ r4: .cfa -16 + ^ r5: .cfa -12 + ^ r6: .cfa -8 + ^
STACK CFI INIT bb580 31c .cfa: sp 0 + .ra: lr
STACK CFI bb584 .cfa: sp 36 +
STACK CFI bb588 .ra: .cfa -4 + ^ r10: .cfa -12 + ^ r11: .cfa -8 + ^ r4: .cfa -36 + ^ r5: .cfa -32 + ^ r6: .cfa -28 + ^ r7: .cfa -24 + ^ r8: .cfa -20 + ^ r9: .cfa -16 + ^
STACK CFI bb590 .cfa: sp 64 +
STACK CFI INIT bb89c 1a4 .cfa: sp 0 + .ra: lr
STACK CFI bb8a0 .cfa: sp 24 +
STACK CFI bb8a4 .ra: .cfa -4 + ^ r3: .cfa -24 + ^ r4: .cfa -20 + ^ r5: .cfa -16 + ^ r6: .cfa -12 + ^ r7: .cfa -8 + ^
STACK CFI INIT bba40 130 .cfa: sp 0 + .ra: lr
STACK CFI bba44 .cfa: sp 24 +
STACK CFI bba48 .ra: .cfa -4 + ^ r3: .cfa -24 + ^ r4: .cfa -20 + ^ r5: .cfa -16 + ^ r6: .cfa -12 + ^ r7: .cfa -8 + ^
STACK CFI INIT bbb70 de0 .cfa: sp 0 + .ra: lr
STACK CFI bbb74 .cfa: sp 36 +
STACK CFI bbb78 .cfa: sp 88 +
STACK CFI bbb7c .ra: .cfa -4 + ^ r10: .cfa -12 + ^ r11: .cfa -8 + ^ r4: .cfa -36 + ^ r5: .cfa -32 + ^ r6: .cfa -28 + ^ r7: .cfa -24 + ^ r8: .cfa -20 + ^ r9: .cfa -16 + ^
STACK CFI INIT bc950 124 .cfa: sp 0 + .ra: lr
STACK CFI bc954 .cfa: sp 16 +
STACK CFI bc958 .ra: .cfa -4 + ^ r4: .cfa -16 + ^ r5: .cfa -12 + ^ r6: .cfa -8 + ^
STACK CFI INIT bca74 44 .cfa: sp 0 + .ra: lr
STACK CFI bca78 .cfa: sp 16 +
STACK CFI bca7c .ra: .cfa -4 + ^ r3: .cfa -16 + ^ r4: .cfa -12 + ^ r5: .cfa -8 + ^
STACK CFI INIT bcab8 50 .cfa: sp 0 + .ra: lr
STACK CFI bcac4 .cfa: sp 12 +
STACK CFI bcac8 .ra: .cfa -4 + ^ r4: .cfa -12 + ^ r5: .cfa -8 + ^
STACK CFI bcacc .cfa: sp 24 +
STACK CFI INIT bcb08 40 .cfa: sp 0 + .ra: lr
STACK CFI bcb0c .cfa: sp 16 +
STACK CFI bcb10 .ra: .cfa -4 + ^ r3: .cfa -16 + ^ r4: .cfa -12 + ^ r5: .cfa -8 + ^
STACK CFI INIT bcb48 3c .cfa: sp 0 + .ra: lr
STACK CFI INIT bcb84 78 .cfa: sp 0 + .ra: lr
STACK CFI bcb8c .cfa: sp 16 +
STACK CFI bcb90 .ra: .cfa -4 + ^ r3: .cfa -16 + ^ r4: .cfa -12 + ^ r5: .cfa -8 + ^
STACK CFI INIT bcbfc 27c .cfa: sp 0 + .ra: lr
STACK CFI bcc00 .cfa: sp 24 +
STACK CFI bcc04 .ra: .cfa -4 + ^ r3: .cfa -24 + ^ r4: .cfa -20 + ^ r5: .cfa -16 + ^ r6: .cfa -12 + ^ r7: .cfa -8 + ^
STACK CFI INIT bce78 f8 .cfa: sp 0 + .ra: lr
STACK CFI bce7c .cfa: sp 16 +
STACK CFI bce80 .ra: .cfa -4 + ^ r4: .cfa -16 + ^ r5: .cfa -12 + ^ r6: .cfa -8 + ^
STACK CFI INIT bcf70 498 .cfa: sp 0 + .ra: lr
STACK CFI bcf74 .cfa: sp 32 +
STACK CFI bcf78 .ra: .cfa -4 + ^ r10: .cfa -8 + ^ r4: .cfa -32 + ^ r5: .cfa -28 + ^ r6: .cfa -24 + ^ r7: .cfa -20 + ^ r8: .cfa -16 + ^ r9: .cfa -12 + ^
STACK CFI bcf84 .cfa: sp 64 +
STACK CFI INIT bd408 20 .cfa: sp 0 + .ra: lr
STACK CFI INIT bd428 40 .cfa: sp 0 + .ra: lr
STACK CFI bd430 .cfa: sp 12 +
STACK CFI bd434 r4: .cfa -12 + ^ r5: .cfa -8 + ^ r6: .cfa -4 + ^
STACK CFI INIT bd468 40 .cfa: sp 0 + .ra: lr
STACK CFI bd470 .cfa: sp 12 +
STACK CFI bd474 r4: .cfa -12 + ^ r5: .cfa -8 + ^ r6: .cfa -4 + ^
STACK CFI INIT bd4a8 44 .cfa: sp 0 + .ra: lr
STACK CFI bd4b0 .cfa: sp 8 +
STACK CFI bd4b4 r4: .cfa -8 + ^ r5: .cfa -4 + ^
STACK CFI INIT bd4ec 1ef8 .cfa: sp 0 + .ra: lr
STACK CFI bd4f4 .cfa: sp 36 +
STACK CFI bd4f8 .ra: .cfa -4 + ^ r10: .cfa -12 + ^ r11: .cfa -8 + ^ r4: .cfa -36 + ^ r5: .cfa -32 + ^ r6: .cfa -28 + ^ r7: .cfa -24 + ^ r8: .cfa -20 + ^ r9: .cfa -16 + ^
STACK CFI bd500 .cfa: sp 160 +
STACK CFI INIT bf3e4 98 .cfa: sp 0 + .ra: lr
STACK CFI bf3ec .cfa: sp 8 +
STACK CFI bf3f4 .ra: .cfa -4 + ^ r4: .cfa -8 + ^
STACK CFI INIT bf47c 194 .cfa: sp 0 + .ra: lr
STACK CFI bf484 .cfa: sp 24 +
STACK CFI bf488 .ra: .cfa -4 + ^ r3: .cfa -24 + ^ r4: .cfa -20 + ^ r5: .cfa -16 + ^ r6: .cfa -12 + ^ r7: .cfa -8 + ^
STACK CFI INIT bf610 954 .cfa: sp 0 + .ra: lr
STACK CFI bf614 .cfa: sp 36 +
STACK CFI bf618 .cfa: sp 120 +
STACK CFI bf61c .ra: .cfa -4 + ^ r10: .cfa -12 + ^ r11: .cfa -8 + ^ r4: .cfa -36 + ^ r5: .cfa -32 + ^ r6: .cfa -28 + ^ r7: .cfa -24 + ^ r8: .cfa -20 + ^ r9: .cfa -16 + ^
STACK CFI INIT bff64 c8 .cfa: sp 0 + .ra: lr
STACK CFI bff6c .cfa: sp 8 +
STACK CFI bff74 r4: .cfa -8 + ^ r5: .cfa -4 + ^
STACK CFI INIT c002c 710 .cfa: sp 0 + .ra: lr
STACK CFI c0030 .cfa: sp 36 +
STACK CFI c0034 .ra: .cfa -4 + ^ r10: .cfa -12 + ^ r11: .cfa -8 + ^ r4: .cfa -36 + ^ r5: .cfa -32 + ^ r6: .cfa -28 + ^ r7: .cfa -24 + ^ r8: .cfa -20 + ^ r9: .cfa -16 + ^
STACK CFI c003c .cfa: sp 80 +
STACK CFI INIT c073c 304 .cfa: sp 0 + .ra: lr
STACK CFI c0740 .cfa: sp 32 +
STACK CFI c0744 .ra: .cfa -4 + ^ r10: .cfa -8 + ^ r4: .cfa -32 + ^ r5: .cfa -28 + ^ r6: .cfa -24 + ^ r7: .cfa -20 + ^ r8: .cfa -16 + ^ r9: .cfa -12 + ^
STACK CFI c0754 .cfa: sp 56 +
STACK CFI INIT c0a40 1a40 .cfa: sp 0 + .ra: lr
STACK CFI c0a44 .cfa: sp 36 +
STACK CFI c0a4c .ra: .cfa -4 + ^ r10: .cfa -12 + ^ r11: .cfa -8 + ^ r4: .cfa -36 + ^ r5: .cfa -32 + ^ r6: .cfa -28 + ^ r7: .cfa -24 + ^ r8: .cfa -20 + ^ r9: .cfa -16 + ^
STACK CFI c0a54 .cfa: sp 96 +
STACK CFI INIT c2480 1ca4 .cfa: sp 0 + .ra: lr
STACK CFI c2484 .cfa: sp 36 +
STACK CFI c2488 .ra: .cfa -4 + ^ r10: .cfa -12 + ^ r11: .cfa -8 + ^ r4: .cfa -36 + ^ r5: .cfa -32 + ^ r6: .cfa -28 + ^ r7: .cfa -24 + ^ r8: .cfa -20 + ^ r9: .cfa -16 + ^
STACK CFI c2498 .cfa: sp 104 +
STACK CFI INIT c4124 34 .cfa: sp 0 + .ra: lr
STACK CFI c412c .cfa: sp 4 +
STACK CFI c4130 r4: .cfa -4 + ^
STACK CFI INIT c4158 124 .cfa: sp 0 + .ra: lr
STACK CFI c4164 .cfa: sp 16 +
STACK CFI c416c .ra: .cfa -4 + ^ r4: .cfa -16 + ^ r5: .cfa -12 + ^ r6: .cfa -8 + ^
STACK CFI INIT c427c 13c .cfa: sp 0 + .ra: lr
STACK CFI c4280 .cfa: sp 24 +
STACK CFI c4284 .ra: .cfa -4 + ^ r3: .cfa -24 + ^ r4: .cfa -20 + ^ r5: .cfa -16 + ^ r6: .cfa -12 + ^ r7: .cfa -8 + ^
STACK CFI INIT c43b8 910 .cfa: sp 0 + .ra: lr
STACK CFI c43bc .cfa: sp 36 +
STACK CFI c43c0 .ra: .cfa -4 + ^ r10: .cfa -12 + ^ r11: .cfa -8 + ^ r4: .cfa -36 + ^ r5: .cfa -32 + ^ r6: .cfa -28 + ^ r7: .cfa -24 + ^ r8: .cfa -20 + ^ r9: .cfa -16 + ^
STACK CFI c43cc .cfa: sp 80 +
STACK CFI INIT c4cc8 1480 .cfa: sp 0 + .ra: lr
STACK CFI c4ccc .cfa: sp 36 +
STACK CFI c4cd4 .ra: .cfa -4 + ^ r10: .cfa -12 + ^ r11: .cfa -8 + ^ r4: .cfa -36 + ^ r5: .cfa -32 + ^ r6: .cfa -28 + ^ r7: .cfa -24 + ^ r8: .cfa -20 + ^ r9: .cfa -16 + ^
STACK CFI c4cdc .cfa: sp 120 +
STACK CFI INIT c6148 20c4 .cfa: sp 0 + .ra: lr
STACK CFI c6154 .cfa: sp 36 +
STACK CFI c615c .cfa: sp 152 +
STACK CFI c6168 .ra: .cfa -4 + ^ r10: .cfa -12 + ^ r11: .cfa -8 + ^ r4: .cfa -36 + ^ r5: .cfa -32 + ^ r6: .cfa -28 + ^ r7: .cfa -24 + ^ r8: .cfa -20 + ^ r9: .cfa -16 + ^
STACK CFI INIT c820c 3fc .cfa: sp 0 + .ra: lr
STACK CFI c8210 .cfa: sp 36 +
STACK CFI c8214 .cfa: sp 64 +
STACK CFI c8218 .ra: .cfa -4 + ^ r10: .cfa -12 + ^ r11: .cfa -8 + ^ r4: .cfa -36 + ^ r5: .cfa -32 + ^ r6: .cfa -28 + ^ r7: .cfa -24 + ^ r8: .cfa -20 + ^ r9: .cfa -16 + ^
STACK CFI INIT c8608 60c .cfa: sp 0 + .ra: lr
STACK CFI c860c .cfa: sp 36 +
STACK CFI c8610 .ra: .cfa -4 + ^ r10: .cfa -12 + ^ r11: .cfa -8 + ^ r4: .cfa -36 + ^ r5: .cfa -32 + ^ r6: .cfa -28 + ^ r7: .cfa -24 + ^ r8: .cfa -20 + ^ r9: .cfa -16 + ^
STACK CFI c8620 .cfa: sp 56 +
STACK CFI INIT c8c14 a0 .cfa: sp 0 + .ra: lr
STACK CFI c8c18 .cfa: sp 36 +
STACK CFI c8c1c .ra: .cfa -4 + ^ r10: .cfa -12 + ^ r11: .cfa -8 + ^ r4: .cfa -36 + ^ r5: .cfa -32 + ^ r6: .cfa -28 + ^ r7: .cfa -24 + ^ r8: .cfa -20 + ^ r9: .cfa -16 + ^
STACK CFI c8c20 .cfa: sp 72 +
STACK CFI INIT c8cb4 21c .cfa: sp 0 + .ra: lr
STACK CFI c8cb8 .cfa: sp 16 +
STACK CFI c8cbc .ra: .cfa -4 + ^ r4: .cfa -16 + ^ r5: .cfa -12 + ^ r6: .cfa -8 + ^
STACK CFI c8cc4 .cfa: sp 48 +
STACK CFI INIT c8ed0 3c .cfa: sp 0 + .ra: lr
STACK CFI INIT c8f0c 5c .cfa: sp 0 + .ra: lr
STACK CFI c8f14 .cfa: sp 4 +
STACK CFI c8f18 r4: .cfa -4 + ^
STACK CFI INIT c8f68 10 .cfa: sp 0 + .ra: lr
STACK CFI INIT c8f78 40 .cfa: sp 0 + .ra: lr
STACK CFI INIT c8fb8 8c .cfa: sp 0 + .ra: lr
STACK CFI c8fc4 .cfa: sp 12 +
STACK CFI c8fc8 .ra: .cfa -4 + ^ r4: .cfa -12 + ^ r5: .cfa -8 + ^
STACK CFI c8fcc .cfa: sp 32 +
STACK CFI INIT c9044 408 .cfa: sp 0 + .ra: lr
STACK CFI c9054 .cfa: sp 24 +
STACK CFI c9060 .ra: .cfa -4 + ^ r4: .cfa -24 + ^ r5: .cfa -20 + ^ r6: .cfa -16 + ^ r7: .cfa -12 + ^ r8: .cfa -8 + ^
STACK CFI INIT c944c ac .cfa: sp 0 + .ra: lr
STACK CFI c9450 .cfa: sp 24 +
STACK CFI c9454 .ra: .cfa -4 + ^ r3: .cfa -24 + ^ r4: .cfa -20 + ^ r5: .cfa -16 + ^ r6: .cfa -12 + ^ r7: .cfa -8 + ^
STACK CFI INIT c94f8 120 .cfa: sp 0 + .ra: lr
STACK CFI c9504 .cfa: sp 28 +
STACK CFI c9508 .ra: .cfa -4 + ^ r10: .cfa -8 + ^ r4: .cfa -28 + ^ r5: .cfa -24 + ^ r6: .cfa -20 + ^ r7: .cfa -16 + ^ r8: .cfa -12 + ^
STACK CFI c950c .cfa: sp 40 +
STACK CFI INIT c9618 58 .cfa: sp 0 + .ra: lr
STACK CFI c9624 .cfa: sp 12 +
STACK CFI c9628 .ra: .cfa -4 + ^ r4: .cfa -12 + ^ r5: .cfa -8 + ^
STACK CFI c962c .cfa: sp 24 +
STACK CFI INIT c9670 c .cfa: sp 0 + .ra: lr
STACK CFI INIT c967c 78 .cfa: sp 0 + .ra: lr
STACK CFI c9684 .cfa: sp 4 +
STACK CFI c9694 r4: .cfa -4 + ^
STACK CFI INIT c96f4 78 .cfa: sp 0 + .ra: lr
STACK CFI c96fc .cfa: sp 4 +
STACK CFI c970c r4: .cfa -4 + ^
STACK CFI INIT c976c 248 .cfa: sp 0 + .ra: lr
STACK CFI c9770 .cfa: sp 36 +
STACK CFI c9774 .ra: .cfa -4 + ^ r10: .cfa -12 + ^ r11: .cfa -8 + ^ r4: .cfa -36 + ^ r5: .cfa -32 + ^ r6: .cfa -28 + ^ r7: .cfa -24 + ^ r8: .cfa -20 + ^ r9: .cfa -16 + ^
STACK CFI c9778 .cfa: sp 48 +
STACK CFI INIT c99b4 1d8 .cfa: sp 0 + .ra: lr
STACK CFI c99bc .cfa: sp 8 +
STACK CFI c99c4 r4: .cfa -8 + ^ r5: .cfa -4 + ^
STACK CFI INIT c9b8c 60 .cfa: sp 0 + .ra: lr
STACK CFI INIT c9bec 268 .cfa: sp 0 + .ra: lr
STACK CFI c9bf8 .cfa: sp 32 +
STACK CFI c9bfc .cfa: sp 40 +
STACK CFI c9c08 r10: .cfa -8 + ^ r11: .cfa -4 + ^ r4: .cfa -32 + ^ r5: .cfa -28 + ^ r6: .cfa -24 + ^ r7: .cfa -20 + ^ r8: .cfa -16 + ^ r9: .cfa -12 + ^
STACK CFI INIT c9e54 364 .cfa: sp 0 + .ra: lr
STACK CFI c9e58 .cfa: sp 32 +
STACK CFI c9e60 .cfa: sp 48 +
STACK CFI c9e6c r10: .cfa -8 + ^ r11: .cfa -4 + ^ r4: .cfa -32 + ^ r5: .cfa -28 + ^ r6: .cfa -24 + ^ r7: .cfa -20 + ^ r8: .cfa -16 + ^ r9: .cfa -12 + ^
STACK CFI INIT ca1b8 18c .cfa: sp 0 + .ra: lr
STACK CFI ca1bc .cfa: sp 16 +
STACK CFI ca1c8 r4: .cfa -16 + ^ r5: .cfa -12 + ^ r6: .cfa -8 + ^ r7: .cfa -4 + ^
STACK CFI INIT ca344 a4 .cfa: sp 0 + .ra: lr
STACK CFI ca348 .cfa: sp 8 +
STACK CFI ca354 r4: .cfa -8 + ^ r5: .cfa -4 + ^
STACK CFI INIT ca3e8 10c .cfa: sp 0 + .ra: lr
STACK CFI ca3ec .cfa: sp 4 +
STACK CFI ca3f4 r4: .cfa -4 + ^
STACK CFI INIT ca4f4 154 .cfa: sp 0 + .ra: lr
STACK CFI ca4f8 .cfa: sp 4 +
STACK CFI ca500 r4: .cfa -4 + ^
STACK CFI INIT ca648 12c .cfa: sp 0 + .ra: lr
STACK CFI INIT ca774 60 .cfa: sp 0 + .ra: lr
STACK CFI ca77c .cfa: sp 8 +
STACK CFI ca780 .ra: .cfa -4 + ^ r4: .cfa -8 + ^
STACK CFI INIT ca7d4 3c .cfa: sp 0 + .ra: lr
STACK CFI ca7d8 .cfa: sp 16 +
STACK CFI ca7dc .ra: .cfa -4 + ^ r3: .cfa -16 + ^ r4: .cfa -12 + ^ r5: .cfa -8 + ^
STACK CFI INIT ca810 1dc .cfa: sp 0 + .ra: lr
STACK CFI ca814 .cfa: sp 24 +
STACK CFI ca818 .ra: .cfa -4 + ^ r4: .cfa -24 + ^ r5: .cfa -20 + ^ r6: .cfa -16 + ^ r7: .cfa -12 + ^ r8: .cfa -8 + ^
STACK CFI INIT ca9ec 198 .cfa: sp 0 + .ra: lr
STACK CFI ca9f0 .cfa: sp 12 +
STACK CFI ca9f4 r4: .cfa -12 + ^ r5: .cfa -8 + ^ r6: .cfa -4 + ^
STACK CFI INIT cab84 28 .cfa: sp 0 + .ra: lr
STACK CFI cab88 .cfa: sp 4 +
STACK CFI cab8c .cfa: sp 16 +
STACK CFI caba0 .ra: .cfa -4 + ^
STACK CFI INIT cabac 80 .cfa: sp 0 + .ra: lr
STACK CFI cabbc .cfa: sp 8 +
STACK CFI cabc8 .ra: .cfa -4 + ^ r4: .cfa -8 + ^
STACK CFI INIT cac2c 20c .cfa: sp 0 + .ra: lr
STACK CFI cac34 .cfa: sp 24 +
STACK CFI cac38 .ra: .cfa -4 + ^ r3: .cfa -24 + ^ r4: .cfa -20 + ^ r5: .cfa -16 + ^ r6: .cfa -12 + ^ r7: .cfa -8 + ^
STACK CFI INIT cae38 718 .cfa: sp 0 + .ra: lr
STACK CFI cae3c .cfa: sp 36 +
STACK CFI cae40 .ra: .cfa -4 + ^ r10: .cfa -12 + ^ r11: .cfa -8 + ^ r4: .cfa -36 + ^ r5: .cfa -32 + ^ r6: .cfa -28 + ^ r7: .cfa -24 + ^ r8: .cfa -20 + ^ r9: .cfa -16 + ^
STACK CFI cae50 .cfa: sp 40 +
STACK CFI INIT cb550 a8 .cfa: sp 0 + .ra: lr
STACK CFI cb554 .cfa: sp 24 +
STACK CFI cb558 .ra: .cfa -4 + ^ r3: .cfa -24 + ^ r4: .cfa -20 + ^ r5: .cfa -16 + ^ r6: .cfa -12 + ^ r7: .cfa -8 + ^
STACK CFI INIT cb5f8 1d8 .cfa: sp 0 + .ra: lr
STACK CFI INIT cb7d0 490 .cfa: sp 0 + .ra: lr
STACK CFI cb7d8 .cfa: sp 8 +
STACK CFI cb7dc .ra: .cfa -4 + ^ r4: .cfa -8 + ^
STACK CFI INIT cbc60 20 .cfa: sp 0 + .ra: lr
STACK CFI INIT cbc80 c .cfa: sp 0 + .ra: lr
STACK CFI INIT cbc8c e4 .cfa: sp 0 + .ra: lr
STACK CFI INIT cbd70 1c .cfa: sp 0 + .ra: lr
STACK CFI INIT cbd8c 80 .cfa: sp 0 + .ra: lr
STACK CFI cbd98 .cfa: sp 8 +
STACK CFI cbda0 .ra: .cfa -4 + ^ r4: .cfa -8 + ^
STACK CFI cbda4 .cfa: sp 16 +
STACK CFI INIT cbe0c 2c .cfa: sp 0 + .ra: lr
STACK CFI cbe10 .cfa: sp 16 +
STACK CFI cbe14 .ra: .cfa -4 + ^ r3: .cfa -16 + ^ r4: .cfa -12 + ^ r5: .cfa -8 + ^
STACK CFI INIT cbe38 24 .cfa: sp 0 + .ra: lr
STACK CFI cbe3c .cfa: sp 16 +
STACK CFI cbe40 .ra: .cfa -4 + ^ r3: .cfa -16 + ^ r4: .cfa -12 + ^ r5: .cfa -8 + ^
STACK CFI INIT cbe5c 138 .cfa: sp 0 + .ra: lr
STACK CFI cbe64 .cfa: sp 16 +
STACK CFI cbe68 .ra: .cfa -4 + ^ r4: .cfa -16 + ^ r5: .cfa -12 + ^ r6: .cfa -8 + ^
STACK CFI INIT cbf94 814 .cfa: sp 0 + .ra: lr
STACK CFI cbf98 .cfa: sp 36 +
STACK CFI cbf9c .ra: .cfa -4 + ^ r10: .cfa -12 + ^ r11: .cfa -8 + ^ r4: .cfa -36 + ^ r5: .cfa -32 + ^ r6: .cfa -28 + ^ r7: .cfa -24 + ^ r8: .cfa -20 + ^ r9: .cfa -16 + ^
STACK CFI cbfa0 .cfa: sp 80 +
STACK CFI INIT cc7a8 11f8 .cfa: sp 0 + .ra: lr
STACK CFI cc7ac .cfa: sp 36 +
STACK CFI cc7b0 .ra: .cfa -4 + ^ r10: .cfa -12 + ^ r11: .cfa -8 + ^ r4: .cfa -36 + ^ r5: .cfa -32 + ^ r6: .cfa -28 + ^ r7: .cfa -24 + ^ r8: .cfa -20 + ^ r9: .cfa -16 + ^
STACK CFI cc7b4 .cfa: sp 48 +
STACK CFI INIT cd9a0 5c .cfa: sp 0 + .ra: lr
STACK CFI cd9a8 .cfa: sp 16 +
STACK CFI cd9ac .ra: .cfa -4 + ^ r4: .cfa -16 + ^ r5: .cfa -12 + ^ r6: .cfa -8 + ^
STACK CFI INIT cd9fc 78 .cfa: sp 0 + .ra: lr
STACK CFI INIT cda74 c0 .cfa: sp 0 + .ra: lr
STACK CFI cda7c .cfa: sp 8 +
STACK CFI cda80 .ra: .cfa -4 + ^ r4: .cfa -8 + ^
STACK CFI INIT cdb34 28c .cfa: sp 0 + .ra: lr
STACK CFI cdb38 .cfa: sp 16 +
STACK CFI cdb3c .ra: .cfa -4 + ^ r4: .cfa -16 + ^ r5: .cfa -12 + ^ r6: .cfa -8 + ^
STACK CFI INIT cddc0 24 .cfa: sp 0 + .ra: lr
STACK CFI cddc4 .cfa: sp 4 +
STACK CFI cddcc .cfa: sp 24 +
STACK CFI cddd0 .ra: .cfa -4 + ^
STACK CFI INIT cdde4 278 .cfa: sp 0 + .ra: lr
STACK CFI cdde8 .cfa: sp 32 +
STACK CFI cddec .ra: .cfa -4 + ^ r10: .cfa -8 + ^ r4: .cfa -32 + ^ r5: .cfa -28 + ^ r6: .cfa -24 + ^ r7: .cfa -20 + ^ r8: .cfa -16 + ^ r9: .cfa -12 + ^
STACK CFI cddf8 .cfa: sp 40 +
STACK CFI INIT ce05c 2870 .cfa: sp 0 + .ra: lr
STACK CFI ce060 .cfa: sp 36 +
STACK CFI ce064 .ra: .cfa -4 + ^ r10: .cfa -12 + ^ r11: .cfa -8 + ^ r4: .cfa -36 + ^ r5: .cfa -32 + ^ r6: .cfa -28 + ^ r7: .cfa -24 + ^ r8: .cfa -20 + ^ r9: .cfa -16 + ^
STACK CFI ce074 .cfa: sp 176 +
STACK CFI INIT d08cc 24 .cfa: sp 0 + .ra: lr
STACK CFI d08d0 .cfa: sp 4 +
STACK CFI d08d8 .cfa: sp 24 +
STACK CFI d08dc .ra: .cfa -4 + ^
STACK CFI INIT d08f0 8 .cfa: sp 0 + .ra: lr
STACK CFI INIT d08f8 184 .cfa: sp 0 + .ra: lr
STACK CFI d08fc .cfa: sp 24 +
STACK CFI d0900 .ra: .cfa -4 + ^ r3: .cfa -24 + ^ r4: .cfa -20 + ^ r5: .cfa -16 + ^ r6: .cfa -12 + ^ r7: .cfa -8 + ^
STACK CFI INIT d0a7c 7c .cfa: sp 0 + .ra: lr
STACK CFI d0a8c .cfa: sp 12 +
STACK CFI d0a94 .cfa: sp 32 +
STACK CFI d0a9c .ra: .cfa -4 + ^ r4: .cfa -12 + ^ r5: .cfa -8 + ^
STACK CFI INIT d0af8 480 .cfa: sp 0 + .ra: lr
STACK CFI d0afc .cfa: sp 28 +
STACK CFI d0b00 .ra: .cfa -4 + ^ r10: .cfa -8 + ^ r4: .cfa -28 + ^ r5: .cfa -24 + ^ r6: .cfa -20 + ^ r7: .cfa -16 + ^ r8: .cfa -12 + ^
STACK CFI d0b04 .cfa: sp 48 +
STACK CFI INIT d0f78 60 .cfa: sp 0 + .ra: lr
STACK CFI d0f88 .cfa: sp 16 +
STACK CFI d0f90 .cfa: sp 32 +
STACK CFI d0f98 .ra: .cfa -4 + ^ r4: .cfa -16 + ^ r5: .cfa -12 + ^ r6: .cfa -8 + ^
STACK CFI INIT d0fd8 10 .cfa: sp 0 + .ra: lr
STACK CFI INIT d0fe8 38 .cfa: sp 0 + .ra: lr
STACK CFI d0ff0 .cfa: sp 4 +
STACK CFI d0ff8 .cfa: sp 16 +
STACK CFI d1000 .ra: .cfa -4 + ^
STACK CFI INIT d1020 4 .cfa: sp 0 + .ra: lr
STACK CFI INIT d1024 5c .cfa: sp 0 + .ra: lr
STACK CFI d102c .cfa: sp 4 +
STACK CFI d1034 .cfa: sp 16 +
STACK CFI d1038 .ra: .cfa -4 + ^
STACK CFI INIT d1080 f0 .cfa: sp 0 + .ra: lr
STACK CFI d1088 .cfa: sp 4 +
STACK CFI d108c r4: .cfa -4 + ^
STACK CFI INIT d1170 4 .cfa: sp 0 + .ra: lr
STACK CFI INIT d1174 c2c .cfa: sp 0 + .ra: lr
STACK CFI d1184 .cfa: sp 36 +
STACK CFI d1190 .cfa: sp 184 +
STACK CFI d1194 .ra: .cfa -4 + ^ r10: .cfa -12 + ^ r11: .cfa -8 + ^ r4: .cfa -36 + ^ r5: .cfa -32 + ^ r6: .cfa -28 + ^ r7: .cfa -24 + ^ r8: .cfa -20 + ^ r9: .cfa -16 + ^
STACK CFI INIT d1da0 138 .cfa: sp 0 + .ra: lr
STACK CFI d1dac .cfa: sp 16 +
STACK CFI d1db8 .ra: .cfa -4 + ^ r4: .cfa -16 + ^ r5: .cfa -12 + ^ r6: .cfa -8 + ^
STACK CFI INIT d1ed8 c .cfa: sp 0 + .ra: lr
STACK CFI INIT d1ee4 18 .cfa: sp 0 + .ra: lr
STACK CFI INIT d1efc 14 .cfa: sp 0 + .ra: lr
STACK CFI INIT d1f10 14 .cfa: sp 0 + .ra: lr
STACK CFI INIT d1f24 18 .cfa: sp 0 + .ra: lr
STACK CFI INIT d1f3c 18 .cfa: sp 0 + .ra: lr
STACK CFI INIT d1f54 14 .cfa: sp 0 + .ra: lr
STACK CFI INIT d1f68 18 .cfa: sp 0 + .ra: lr
STACK CFI INIT d1f80 10 .cfa: sp 0 + .ra: lr
STACK CFI INIT d1f90 14 .cfa: sp 0 + .ra: lr
STACK CFI INIT d1fa4 14 .cfa: sp 0 + .ra: lr
STACK CFI INIT d1fb8 14 .cfa: sp 0 + .ra: lr
STACK CFI INIT d1fcc 18 .cfa: sp 0 + .ra: lr
STACK CFI INIT d1fe4 14 .cfa: sp 0 + .ra: lr
STACK CFI INIT d1ff8 14 .cfa: sp 0 + .ra: lr
STACK CFI INIT d200c 14 .cfa: sp 0 + .ra: lr
STACK CFI INIT d2020 14 .cfa: sp 0 + .ra: lr
STACK CFI INIT d2034 14 .cfa: sp 0 + .ra: lr
STACK CFI INIT d2048 18 .cfa: sp 0 + .ra: lr
STACK CFI INIT d2060 14 .cfa: sp 0 + .ra: lr
STACK CFI INIT d2074 14 .cfa: sp 0 + .ra: lr
STACK CFI INIT d2088 14 .cfa: sp 0 + .ra: lr
STACK CFI INIT d209c 14 .cfa: sp 0 + .ra: lr
STACK CFI INIT d20b0 14 .cfa: sp 0 + .ra: lr
STACK CFI INIT d20c4 14 .cfa: sp 0 + .ra: lr
STACK CFI INIT d20d8 1c .cfa: sp 0 + .ra: lr
STACK CFI INIT d20f4 18 .cfa: sp 0 + .ra: lr
STACK CFI INIT d210c 14 .cfa: sp 0 + .ra: lr
STACK CFI INIT d2120 18 .cfa: sp 0 + .ra: lr
STACK CFI INIT d2138 18 .cfa: sp 0 + .ra: lr
STACK CFI INIT d2150 18 .cfa: sp 0 + .ra: lr
STACK CFI INIT d2168 14 .cfa: sp 0 + .ra: lr
STACK CFI INIT d217c 18 .cfa: sp 0 + .ra: lr
STACK CFI INIT d2194 14 .cfa: sp 0 + .ra: lr
STACK CFI INIT d21a8 14 .cfa: sp 0 + .ra: lr
STACK CFI INIT d21bc 14 .cfa: sp 0 + .ra: lr
STACK CFI INIT d21d0 14 .cfa: sp 0 + .ra: lr
STACK CFI INIT d21e4 14 .cfa: sp 0 + .ra: lr
STACK CFI INIT d21f8 14 .cfa: sp 0 + .ra: lr
STACK CFI INIT d220c 18 .cfa: sp 0 + .ra: lr
STACK CFI INIT d2224 14 .cfa: sp 0 + .ra: lr
STACK CFI INIT d2238 14 .cfa: sp 0 + .ra: lr
STACK CFI INIT d224c 14 .cfa: sp 0 + .ra: lr
STACK CFI INIT d2260 18 .cfa: sp 0 + .ra: lr
STACK CFI INIT d2278 18 .cfa: sp 0 + .ra: lr
STACK CFI INIT d2290 18 .cfa: sp 0 + .ra: lr
STACK CFI INIT d22a8 14 .cfa: sp 0 + .ra: lr
STACK CFI INIT d22bc 14 .cfa: sp 0 + .ra: lr
STACK CFI INIT d22d0 14 .cfa: sp 0 + .ra: lr
STACK CFI INIT d22e4 14 .cfa: sp 0 + .ra: lr
STACK CFI INIT d22f8 14 .cfa: sp 0 + .ra: lr
STACK CFI INIT d230c 14 .cfa: sp 0 + .ra: lr
STACK CFI INIT d2320 18 .cfa: sp 0 + .ra: lr
STACK CFI INIT d2338 14 .cfa: sp 0 + .ra: lr
STACK CFI INIT d234c 1c .cfa: sp 0 + .ra: lr
STACK CFI INIT d2368 18 .cfa: sp 0 + .ra: lr
STACK CFI INIT d2380 14 .cfa: sp 0 + .ra: lr
STACK CFI INIT d2394 18 .cfa: sp 0 + .ra: lr
STACK CFI INIT d23ac 14 .cfa: sp 0 + .ra: lr
STACK CFI INIT d23c0 14 .cfa: sp 0 + .ra: lr
STACK CFI INIT d23d4 14 .cfa: sp 0 + .ra: lr
STACK CFI INIT d23e8 18 .cfa: sp 0 + .ra: lr
STACK CFI INIT d2400 18 .cfa: sp 0 + .ra: lr
STACK CFI INIT d2418 14 .cfa: sp 0 + .ra: lr
STACK CFI INIT d242c 14 .cfa: sp 0 + .ra: lr
STACK CFI INIT d2440 18 .cfa: sp 0 + .ra: lr
STACK CFI INIT d2458 18 .cfa: sp 0 + .ra: lr
STACK CFI INIT d2470 14 .cfa: sp 0 + .ra: lr
STACK CFI INIT d2484 18 .cfa: sp 0 + .ra: lr
STACK CFI INIT d249c 14 .cfa: sp 0 + .ra: lr
STACK CFI INIT d24b0 14 .cfa: sp 0 + .ra: lr
STACK CFI INIT d24c4 14 .cfa: sp 0 + .ra: lr
STACK CFI INIT d24d8 14 .cfa: sp 0 + .ra: lr
STACK CFI INIT d24ec 14 .cfa: sp 0 + .ra: lr
STACK CFI INIT d2500 14 .cfa: sp 0 + .ra: lr
STACK CFI INIT d2514 14 .cfa: sp 0 + .ra: lr
STACK CFI INIT d2528 18 .cfa: sp 0 + .ra: lr
STACK CFI INIT d2540 14 .cfa: sp 0 + .ra: lr
STACK CFI INIT d2554 14 .cfa: sp 0 + .ra: lr
STACK CFI INIT d2568 14 .cfa: sp 0 + .ra: lr
STACK CFI INIT d257c 14 .cfa: sp 0 + .ra: lr
STACK CFI INIT d2590 14 .cfa: sp 0 + .ra: lr
STACK CFI INIT d25a4 14 .cfa: sp 0 + .ra: lr
STACK CFI INIT d25b8 14 .cfa: sp 0 + .ra: lr
STACK CFI INIT d25cc 14 .cfa: sp 0 + .ra: lr
STACK CFI INIT d25e0 14 .cfa: sp 0 + .ra: lr
STACK CFI INIT d25f4 14 .cfa: sp 0 + .ra: lr
STACK CFI INIT d2608 14 .cfa: sp 0 + .ra: lr
STACK CFI INIT d261c 18 .cfa: sp 0 + .ra: lr
STACK CFI INIT d2634 14 .cfa: sp 0 + .ra: lr
STACK CFI INIT d2648 18 .cfa: sp 0 + .ra: lr
STACK CFI INIT d2660 14 .cfa: sp 0 + .ra: lr
STACK CFI INIT d2674 18 .cfa: sp 0 + .ra: lr
STACK CFI INIT d268c 14 .cfa: sp 0 + .ra: lr
STACK CFI INIT d26a0 14 .cfa: sp 0 + .ra: lr
STACK CFI INIT d26b4 18 .cfa: sp 0 + .ra: lr
STACK CFI INIT d26cc 14 .cfa: sp 0 + .ra: lr
STACK CFI INIT d26e0 38 .cfa: sp 0 + .ra: lr
STACK CFI INIT d2718 14 .cfa: sp 0 + .ra: lr
STACK CFI INIT d272c 18 .cfa: sp 0 + .ra: lr
STACK CFI INIT d2744 18 .cfa: sp 0 + .ra: lr
STACK CFI INIT d275c 14 .cfa: sp 0 + .ra: lr
STACK CFI INIT d2770 18 .cfa: sp 0 + .ra: lr
STACK CFI INIT d2788 14 .cfa: sp 0 + .ra: lr
STACK CFI INIT d279c 18 .cfa: sp 0 + .ra: lr
STACK CFI INIT d27b4 18 .cfa: sp 0 + .ra: lr
STACK CFI INIT d27cc 18 .cfa: sp 0 + .ra: lr
STACK CFI INIT d27e4 14 .cfa: sp 0 + .ra: lr
STACK CFI INIT d27f8 14 .cfa: sp 0 + .ra: lr
STACK CFI INIT d280c 14 .cfa: sp 0 + .ra: lr
STACK CFI INIT d2820 14 .cfa: sp 0 + .ra: lr
STACK CFI INIT d2834 14 .cfa: sp 0 + .ra: lr
STACK CFI INIT d2848 14 .cfa: sp 0 + .ra: lr
STACK CFI INIT d285c 18 .cfa: sp 0 + .ra: lr
STACK CFI INIT d2874 14 .cfa: sp 0 + .ra: lr
STACK CFI INIT d2888 18 .cfa: sp 0 + .ra: lr
STACK CFI INIT d28a0 18 .cfa: sp 0 + .ra: lr
STACK CFI INIT d28b8 14 .cfa: sp 0 + .ra: lr
STACK CFI INIT d28cc 14 .cfa: sp 0 + .ra: lr
STACK CFI INIT d28e0 14 .cfa: sp 0 + .ra: lr
STACK CFI INIT d28f4 14 .cfa: sp 0 + .ra: lr
STACK CFI INIT d2908 14 .cfa: sp 0 + .ra: lr
STACK CFI INIT d291c 18 .cfa: sp 0 + .ra: lr
STACK CFI INIT d2934 14 .cfa: sp 0 + .ra: lr
STACK CFI INIT d2948 14 .cfa: sp 0 + .ra: lr
STACK CFI INIT d295c 18 .cfa: sp 0 + .ra: lr
STACK CFI INIT d2974 18 .cfa: sp 0 + .ra: lr
STACK CFI INIT d298c 14 .cfa: sp 0 + .ra: lr
STACK CFI INIT d29a0 18 .cfa: sp 0 + .ra: lr
STACK CFI INIT d29b8 18 .cfa: sp 0 + .ra: lr
STACK CFI INIT d29d0 4c .cfa: sp 0 + .ra: lr
STACK CFI INIT d2a1c 3c .cfa: sp 0 + .ra: lr
STACK CFI INIT d2a58 4c .cfa: sp 0 + .ra: lr
STACK CFI INIT d2aa4 6c .cfa: sp 0 + .ra: lr
STACK CFI INIT d2b10 80 .cfa: sp 0 + .ra: lr
STACK CFI INIT d2b90 3c .cfa: sp 0 + .ra: lr
STACK CFI INIT d2bcc 4c .cfa: sp 0 + .ra: lr
STACK CFI INIT d2c18 18 .cfa: sp 0 + .ra: lr
STACK CFI INIT d2c30 18 .cfa: sp 0 + .ra: lr
STACK CFI INIT d2c48 60 .cfa: sp 0 + .ra: lr
STACK CFI INIT d2ca8 7c .cfa: sp 0 + .ra: lr
STACK CFI d2cb4 .cfa: sp 24 +
STACK CFI d2cb8 .ra: .cfa -4 + ^ r4: .cfa -24 + ^ r5: .cfa -20 + ^ r6: .cfa -16 + ^ r7: .cfa -12 + ^ r8: .cfa -8 + ^
STACK CFI INIT d2d24 10 .cfa: sp 0 + .ra: lr
STACK CFI INIT d2d34 14 .cfa: sp 0 + .ra: lr
STACK CFI INIT d2d48 14 .cfa: sp 0 + .ra: lr
STACK CFI INIT d2d5c 14 .cfa: sp 0 + .ra: lr
STACK CFI INIT d2d70 14 .cfa: sp 0 + .ra: lr
STACK CFI INIT d2d84 14 .cfa: sp 0 + .ra: lr
STACK CFI INIT d2d98 14 .cfa: sp 0 + .ra: lr
STACK CFI INIT d2dac 14 .cfa: sp 0 + .ra: lr
STACK CFI INIT d2dc0 14 .cfa: sp 0 + .ra: lr
STACK CFI INIT d2dd4 14 .cfa: sp 0 + .ra: lr
STACK CFI INIT d2de8 14 .cfa: sp 0 + .ra: lr
STACK CFI INIT d2dfc 14 .cfa: sp 0 + .ra: lr
STACK CFI INIT d2e10 14 .cfa: sp 0 + .ra: lr
STACK CFI INIT d2e24 14 .cfa: sp 0 + .ra: lr
STACK CFI INIT d2e38 14 .cfa: sp 0 + .ra: lr
STACK CFI INIT d2e4c 14 .cfa: sp 0 + .ra: lr
STACK CFI INIT d2e60 14 .cfa: sp 0 + .ra: lr
STACK CFI INIT d2e74 14 .cfa: sp 0 + .ra: lr
STACK CFI INIT d2e88 14 .cfa: sp 0 + .ra: lr
STACK CFI INIT d2e9c 14 .cfa: sp 0 + .ra: lr
STACK CFI INIT d2eb0 14 .cfa: sp 0 + .ra: lr
STACK CFI INIT d2ec4 14 .cfa: sp 0 + .ra: lr
STACK CFI INIT d2ed8 14 .cfa: sp 0 + .ra: lr
STACK CFI INIT d2eec 14 .cfa: sp 0 + .ra: lr
STACK CFI INIT d2f00 14 .cfa: sp 0 + .ra: lr
STACK CFI INIT d2f14 38 .cfa: sp 0 + .ra: lr
STACK CFI d2f1c .cfa: sp 8 +
STACK CFI d2f20 .ra: .cfa -4 + ^ r4: .cfa -8 + ^
STACK CFI INIT d2f4c 38 .cfa: sp 0 + .ra: lr
STACK CFI d2f54 .cfa: sp 8 +
STACK CFI d2f58 .ra: .cfa -4 + ^ r4: .cfa -8 + ^
STACK CFI INIT d2f84 7c .cfa: sp 0 + .ra: lr
STACK CFI d2f88 .cfa: sp 16 +
STACK CFI d2f8c .ra: .cfa -4 + ^ r3: .cfa -16 + ^ r4: .cfa -12 + ^ r5: .cfa -8 + ^
STACK CFI INIT d3000 24 .cfa: sp 0 + .ra: lr
STACK CFI d3004 .cfa: sp 8 +
STACK CFI d3008 .ra: .cfa -4 + ^ r3: .cfa -8 + ^
STACK CFI INIT d3024 a4 .cfa: sp 0 + .ra: lr
STACK CFI d3028 .cfa: sp 12 +
STACK CFI d302c .ra: .cfa -4 + ^ r4: .cfa -12 + ^ r5: .cfa -8 + ^
STACK CFI d3030 .cfa: sp 40 +
STACK CFI INIT d30c8 24 .cfa: sp 0 + .ra: lr
STACK CFI d30d0 .cfa: sp 8 +
STACK CFI d30d8 .ra: .cfa -4 + ^ r3: .cfa -8 + ^
STACK CFI INIT d30ec 24 .cfa: sp 0 + .ra: lr
STACK CFI d30f0 .cfa: sp 8 +
STACK CFI d30f4 .ra: .cfa -4 + ^ r3: .cfa -8 + ^
STACK CFI INIT d3110 24 .cfa: sp 0 + .ra: lr
STACK CFI d3114 .cfa: sp 8 +
STACK CFI d3118 .ra: .cfa -4 + ^ r3: .cfa -8 + ^
STACK CFI INIT d3134 40 .cfa: sp 0 + .ra: lr
STACK CFI d3138 .cfa: sp 8 +
STACK CFI d313c .ra: .cfa -4 + ^ r3: .cfa -8 + ^
STACK CFI INIT d3174 58 .cfa: sp 0 + .ra: lr
STACK CFI d3178 .cfa: sp 16 +
STACK CFI d317c .ra: .cfa -4 + ^ r3: .cfa -16 + ^ r4: .cfa -12 + ^ r5: .cfa -8 + ^
STACK CFI INIT d31cc 28 .cfa: sp 0 + .ra: lr
STACK CFI d31d4 .cfa: sp 8 +
STACK CFI d31dc .ra: .cfa -4 + ^ r3: .cfa -8 + ^
STACK CFI INIT d31f4 104 .cfa: sp 0 + .ra: lr
STACK CFI d31f8 .cfa: sp 24 +
STACK CFI d31fc .ra: .cfa -4 + ^ r3: .cfa -24 + ^ r4: .cfa -20 + ^ r5: .cfa -16 + ^ r6: .cfa -12 + ^ r7: .cfa -8 + ^
STACK CFI INIT d32f8 13c .cfa: sp 0 + .ra: lr
STACK CFI d32fc .cfa: sp 32 +
STACK CFI d3300 .ra: .cfa -4 + ^ r10: .cfa -8 + ^ r4: .cfa -32 + ^ r5: .cfa -28 + ^ r6: .cfa -24 + ^ r7: .cfa -20 + ^ r8: .cfa -16 + ^ r9: .cfa -12 + ^
STACK CFI d330c .cfa: sp 40 +
STACK CFI INIT d3434 68 .cfa: sp 0 + .ra: lr
STACK CFI d3438 .cfa: sp 12 +
STACK CFI d343c .cfa: sp 24 +
STACK CFI d3440 .cfa: sp 32 +
STACK CFI d3444 .ra: .cfa -16 + ^ r1: .cfa -12 + ^ r2: .cfa -8 + ^ r3: .cfa -4 + ^ r4: .cfa -24 + ^ r5: .cfa -20 + ^
STACK CFI INIT d349c 44 .cfa: sp 0 + .ra: lr
STACK CFI d34a0 .cfa: sp 12 +
STACK CFI d34a4 .cfa: sp 20 +
STACK CFI d34a8 .cfa: sp 32 +
STACK CFI d34ac .ra: .cfa -16 + ^ r1: .cfa -12 + ^ r2: .cfa -8 + ^ r3: .cfa -4 + ^ r4: .cfa -20 + ^
STACK CFI INIT d34e0 68 .cfa: sp 0 + .ra: lr
STACK CFI d34e4 .cfa: sp 12 +
STACK CFI d34e8 .cfa: sp 24 +
STACK CFI d34ec .cfa: sp 32 +
STACK CFI d34f0 .ra: .cfa -16 + ^ r1: .cfa -12 + ^ r2: .cfa -8 + ^ r3: .cfa -4 + ^ r4: .cfa -24 + ^ r5: .cfa -20 + ^
STACK CFI INIT d3548 a0 .cfa: sp 0 + .ra: lr
STACK CFI d354c .cfa: sp 12 +
STACK CFI d3550 .cfa: sp 28 +
STACK CFI d3554 .cfa: sp 40 +
STACK CFI d3558 .ra: .cfa -16 + ^ r1: .cfa -12 + ^ r2: .cfa -8 + ^ r3: .cfa -4 + ^ r4: .cfa -28 + ^ r5: .cfa -24 + ^ r6: .cfa -20 + ^
STACK CFI INIT d35e8 a0 .cfa: sp 0 + .ra: lr
STACK CFI d35ec .cfa: sp 12 +
STACK CFI d35f0 .cfa: sp 28 +
STACK CFI d35f4 .cfa: sp 40 +
STACK CFI d35f8 .ra: .cfa -16 + ^ r1: .cfa -12 + ^ r2: .cfa -8 + ^ r3: .cfa -4 + ^ r4: .cfa -28 + ^ r5: .cfa -24 + ^ r6: .cfa -20 + ^
STACK CFI INIT d3688 44 .cfa: sp 0 + .ra: lr
STACK CFI d368c .cfa: sp 12 +
STACK CFI d3690 .cfa: sp 20 +
STACK CFI d3694 .cfa: sp 32 +
STACK CFI d3698 .ra: .cfa -16 + ^ r1: .cfa -12 + ^ r2: .cfa -8 + ^ r3: .cfa -4 + ^ r4: .cfa -20 + ^
STACK CFI INIT d36cc 88 .cfa: sp 0 + .ra: lr
STACK CFI d36d0 .cfa: sp 16 +
STACK CFI d36d4 .ra: .cfa -4 + ^ r3: .cfa -16 + ^ r4: .cfa -12 + ^ r5: .cfa -8 + ^
STACK CFI INIT d3754 1c8 .cfa: sp 0 + .ra: lr
STACK CFI d3758 .cfa: sp 32 +
STACK CFI d375c .ra: .cfa -4 + ^ r10: .cfa -8 + ^ r3: .cfa -32 + ^ r4: .cfa -28 + ^ r5: .cfa -24 + ^ r6: .cfa -20 + ^ r7: .cfa -16 + ^ r8: .cfa -12 + ^
STACK CFI INIT d391c 2c .cfa: sp 0 + .ra: lr
STACK CFI d3924 .cfa: sp 16 +
STACK CFI d3928 .ra: .cfa -4 + ^ r3: .cfa -16 + ^ r4: .cfa -12 + ^ r5: .cfa -8 + ^
STACK CFI INIT d3948 260 .cfa: sp 0 + .ra: lr
STACK CFI d394c .cfa: sp 32 +
STACK CFI d3954 .ra: .cfa -4 + ^ r10: .cfa -8 + ^ r4: .cfa -32 + ^ r5: .cfa -28 + ^ r6: .cfa -24 + ^ r7: .cfa -20 + ^ r8: .cfa -16 + ^ r9: .cfa -12 + ^
STACK CFI INIT d3ba8 18c .cfa: sp 0 + .ra: lr
STACK CFI d3bac .cfa: sp 32 +
STACK CFI d3bb0 .ra: .cfa -4 + ^ r10: .cfa -8 + ^ r3: .cfa -32 + ^ r4: .cfa -28 + ^ r5: .cfa -24 + ^ r6: .cfa -20 + ^ r7: .cfa -16 + ^ r8: .cfa -12 + ^
STACK CFI INIT d3d34 23c .cfa: sp 0 + .ra: lr
STACK CFI d3d38 .cfa: sp 24 +
STACK CFI d3d3c .ra: .cfa -4 + ^ r3: .cfa -24 + ^ r4: .cfa -20 + ^ r5: .cfa -16 + ^ r6: .cfa -12 + ^ r7: .cfa -8 + ^
STACK CFI INIT d3f70 c4 .cfa: sp 0 + .ra: lr
STACK CFI d3f74 .cfa: sp 8 +
STACK CFI d3f78 .ra: .cfa -4 + ^ r4: .cfa -8 + ^
STACK CFI INIT d4034 b4 .cfa: sp 0 + .ra: lr
STACK CFI d4038 .cfa: sp 24 +
STACK CFI d403c .ra: .cfa -4 + ^ r3: .cfa -24 + ^ r4: .cfa -20 + ^ r5: .cfa -16 + ^ r6: .cfa -12 + ^ r7: .cfa -8 + ^
STACK CFI INIT d40e8 13c .cfa: sp 0 + .ra: lr
STACK CFI d40ec .cfa: sp 32 +
STACK CFI d40f0 .ra: .cfa -4 + ^ r10: .cfa -8 + ^ r3: .cfa -32 + ^ r4: .cfa -28 + ^ r5: .cfa -24 + ^ r6: .cfa -20 + ^ r7: .cfa -16 + ^ r8: .cfa -12 + ^
STACK CFI INIT d4224 23c .cfa: sp 0 + .ra: lr
STACK CFI d422c .cfa: sp 24 +
STACK CFI d4234 .ra: .cfa -4 + ^ r4: .cfa -24 + ^ r5: .cfa -20 + ^ r6: .cfa -16 + ^ r7: .cfa -12 + ^ r8: .cfa -8 + ^
STACK CFI INIT d4460 90 .cfa: sp 0 + .ra: lr
STACK CFI d4468 .cfa: sp 24 +
STACK CFI d4470 .ra: .cfa -4 + ^ r4: .cfa -24 + ^ r5: .cfa -20 + ^ r6: .cfa -16 + ^ r7: .cfa -12 + ^ r8: .cfa -8 + ^
STACK CFI INIT d44f0 254 .cfa: sp 0 + .ra: lr
STACK CFI d44f4 .cfa: sp 16 +
STACK CFI d44f8 .ra: .cfa -4 + ^ r4: .cfa -16 + ^ r5: .cfa -12 + ^ r6: .cfa -8 + ^
STACK CFI d44fc .cfa: sp 24 +
STACK CFI INIT d4744 10 .cfa: sp 0 + .ra: lr
STACK CFI INIT d4754 50 .cfa: sp 0 + .ra: lr
STACK CFI d4758 .cfa: sp 16 +
STACK CFI d475c .ra: .cfa -4 + ^ r3: .cfa -16 + ^ r4: .cfa -12 + ^ r5: .cfa -8 + ^
STACK CFI INIT d47a4 178 .cfa: sp 0 + .ra: lr
STACK CFI d47a8 .cfa: sp 32 +
STACK CFI d47ac .ra: .cfa -4 + ^ r10: .cfa -8 + ^ r3: .cfa -32 + ^ r4: .cfa -28 + ^ r5: .cfa -24 + ^ r6: .cfa -20 + ^ r7: .cfa -16 + ^ r8: .cfa -12 + ^
STACK CFI INIT d491c d8 .cfa: sp 0 + .ra: lr
STACK CFI d4920 .cfa: sp 28 +
STACK CFI d4924 .cfa: sp 40 +
STACK CFI d4928 .ra: .cfa -4 + ^ r10: .cfa -8 + ^ r4: .cfa -28 + ^ r5: .cfa -24 + ^ r6: .cfa -20 + ^ r7: .cfa -16 + ^ r8: .cfa -12 + ^
STACK CFI INIT d49f4 b4 .cfa: sp 0 + .ra: lr
STACK CFI d49f8 .cfa: sp 20 +
STACK CFI d49fc .cfa: sp 32 +
STACK CFI d4a00 .ra: .cfa -4 + ^ r4: .cfa -20 + ^ r5: .cfa -16 + ^ r6: .cfa -12 + ^ r7: .cfa -8 + ^
STACK CFI INIT d4aa8 bc .cfa: sp 0 + .ra: lr
STACK CFI d4ab0 .cfa: sp 8 +
STACK CFI d4ab8 .ra: .cfa -4 + ^ r4: .cfa -8 + ^
STACK CFI INIT d4b64 348 .cfa: sp 0 + .ra: lr
STACK CFI d4b68 .cfa: sp 28 +
STACK CFI d4b6c .ra: .cfa -4 + ^ r10: .cfa -8 + ^ r4: .cfa -28 + ^ r5: .cfa -24 + ^ r6: .cfa -20 + ^ r7: .cfa -16 + ^ r8: .cfa -12 + ^
STACK CFI d4b78 .cfa: sp 40 +
STACK CFI INIT d4eac c8 .cfa: sp 0 + .ra: lr
STACK CFI d4eb0 .cfa: sp 24 +
STACK CFI d4eb8 .ra: .cfa -4 + ^ r4: .cfa -24 + ^ r5: .cfa -20 + ^ r6: .cfa -16 + ^ r7: .cfa -12 + ^ r8: .cfa -8 + ^
STACK CFI INIT d4f74 234 .cfa: sp 0 + .ra: lr
STACK CFI d4f78 .cfa: sp 16 +
STACK CFI d4f7c .ra: .cfa -4 + ^ r4: .cfa -16 + ^ r5: .cfa -12 + ^ r6: .cfa -8 + ^
STACK CFI INIT d51a8 a0 .cfa: sp 0 + .ra: lr
STACK CFI d51ac .cfa: sp 8 +
STACK CFI d51b0 .ra: .cfa -4 + ^ r4: .cfa -8 + ^
STACK CFI INIT d5248 dc .cfa: sp 0 + .ra: lr
STACK CFI d5250 .cfa: sp 8 +
STACK CFI d5254 .ra: .cfa -4 + ^ r4: .cfa -8 + ^
STACK CFI INIT d5324 1b0 .cfa: sp 0 + .ra: lr
STACK CFI d5328 .cfa: sp 20 +
STACK CFI d5330 .ra: .cfa -4 + ^ r4: .cfa -20 + ^ r5: .cfa -16 + ^ r6: .cfa -12 + ^ r7: .cfa -8 + ^
STACK CFI d533c .cfa: sp 32 +
STACK CFI INIT d54d4 114 .cfa: sp 0 + .ra: lr
STACK CFI d54e0 .cfa: sp 16 +
STACK CFI d54ec .ra: .cfa -4 + ^ r4: .cfa -16 + ^ r5: .cfa -12 + ^ r6: .cfa -8 + ^
STACK CFI d54f0 .cfa: sp 24 +
STACK CFI INIT d55e8 d8 .cfa: sp 0 + .ra: lr
STACK CFI d55ec .cfa: sp 16 +
STACK CFI d55f0 .ra: .cfa -4 + ^ r3: .cfa -16 + ^ r4: .cfa -12 + ^ r5: .cfa -8 + ^
STACK CFI INIT d56c0 40 .cfa: sp 0 + .ra: lr
STACK CFI d56c8 .cfa: sp 8 +
STACK CFI d56d0 .ra: .cfa -4 + ^ r4: .cfa -8 + ^
STACK CFI INIT d5700 100 .cfa: sp 0 + .ra: lr
STACK CFI d5708 .cfa: sp 4 +
STACK CFI d570c r4: .cfa -4 + ^
STACK CFI INIT d5800 234 .cfa: sp 0 + .ra: lr
STACK CFI d5804 .cfa: sp 20 +
STACK CFI d5808 .ra: .cfa -4 + ^ r4: .cfa -20 + ^ r5: .cfa -16 + ^ r6: .cfa -12 + ^ r7: .cfa -8 + ^
STACK CFI d5814 .cfa: sp 32 +
STACK CFI INIT d5a34 158 .cfa: sp 0 + .ra: lr
STACK CFI d5a40 .cfa: sp 20 +
STACK CFI d5a44 .ra: .cfa -4 + ^ r4: .cfa -20 + ^ r5: .cfa -16 + ^ r6: .cfa -12 + ^ r7: .cfa -8 + ^
STACK CFI d5a48 .cfa: sp 32 +
STACK CFI INIT d5b8c 5c .cfa: sp 0 + .ra: lr
STACK CFI INIT d5be8 90 .cfa: sp 0 + .ra: lr
STACK CFI INIT d5c78 4c .cfa: sp 0 + .ra: lr
STACK CFI INIT d5cc4 ec .cfa: sp 0 + .ra: lr
STACK CFI d5ccc .cfa: sp 16 +
STACK CFI d5cd0 .ra: .cfa -4 + ^ r4: .cfa -16 + ^ r5: .cfa -12 + ^ r6: .cfa -8 + ^
STACK CFI INIT d5db0 54 .cfa: sp 0 + .ra: lr
STACK CFI INIT d5e04 94 .cfa: sp 0 + .ra: lr
STACK CFI INIT d5e98 130 .cfa: sp 0 + .ra: lr
STACK CFI d5e9c .cfa: sp 8 +
STACK CFI d5ea0 .ra: .cfa -4 + ^ r4: .cfa -8 + ^
STACK CFI INIT d5fc8 88 .cfa: sp 0 + .ra: lr
STACK CFI INIT d6050 184 .cfa: sp 0 + .ra: lr
STACK CFI d6058 .cfa: sp 8 +
STACK CFI d605c .ra: .cfa -4 + ^ r4: .cfa -8 + ^
STACK CFI INIT d61d4 6c .cfa: sp 0 + .ra: lr
STACK CFI INIT d6240 180 .cfa: sp 0 + .ra: lr
STACK CFI INIT d63c0 70 .cfa: sp 0 + .ra: lr
STACK CFI INIT d6430 7c .cfa: sp 0 + .ra: lr
STACK CFI INIT d64ac 94 .cfa: sp 0 + .ra: lr
STACK CFI INIT d6540 68 .cfa: sp 0 + .ra: lr
STACK CFI INIT d65a8 7c .cfa: sp 0 + .ra: lr
STACK CFI INIT d6624 24 .cfa: sp 0 + .ra: lr
STACK CFI INIT d6648 74 .cfa: sp 0 + .ra: lr
STACK CFI d664c .cfa: sp 16 +
STACK CFI d6650 .ra: .cfa -4 + ^ r4: .cfa -16 + ^ r5: .cfa -12 + ^ r6: .cfa -8 + ^
STACK CFI INIT d66bc 4c .cfa: sp 0 + .ra: lr
STACK CFI INIT d6708 58 .cfa: sp 0 + .ra: lr
STACK CFI INIT d6760 54 .cfa: sp 0 + .ra: lr
STACK CFI INIT d67b4 90 .cfa: sp 0 + .ra: lr
STACK CFI INIT d6844 10c .cfa: sp 0 + .ra: lr
STACK CFI d6848 .cfa: sp 12 +
STACK CFI d684c .ra: .cfa -4 + ^ r4: .cfa -12 + ^ r5: .cfa -8 + ^
STACK CFI d6850 .cfa: sp 24 +
STACK CFI INIT d6950 10 .cfa: sp 0 + .ra: lr
STACK CFI INIT d6960 10 .cfa: sp 0 + .ra: lr
STACK CFI INIT d6970 18 .cfa: sp 0 + .ra: lr
STACK CFI INIT d6988 70 .cfa: sp 0 + .ra: lr
STACK CFI d698c .cfa: sp 16 +
STACK CFI d6990 .ra: .cfa -4 + ^ r4: .cfa -16 + ^ r5: .cfa -12 + ^ r6: .cfa -8 + ^
STACK CFI INIT d69f8 14 .cfa: sp 0 + .ra: lr
STACK CFI INIT d6a0c 10 .cfa: sp 0 + .ra: lr
STACK CFI INIT d6a1c ec .cfa: sp 0 + .ra: lr
STACK CFI INIT d6b08 84 .cfa: sp 0 + .ra: lr
STACK CFI INIT d6b8c 24 .cfa: sp 0 + .ra: lr
STACK CFI INIT d6bb0 24 .cfa: sp 0 + .ra: lr
STACK CFI INIT d6bd4 20 .cfa: sp 0 + .ra: lr
STACK CFI INIT d6bf4 80 .cfa: sp 0 + .ra: lr
STACK CFI INIT d6c74 b98 .cfa: sp 0 + .ra: lr
STACK CFI d6c78 .cfa: sp 40 +
STACK CFI d6c7c .ra: .cfa -4 + ^ r10: .cfa -12 + ^ r11: .cfa -8 + ^ r3: .cfa -40 + ^ r4: .cfa -36 + ^ r5: .cfa -32 + ^ r6: .cfa -28 + ^ r7: .cfa -24 + ^ r8: .cfa -20 + ^ r9: .cfa -16 + ^
STACK CFI INIT d780c 110 .cfa: sp 0 + .ra: lr
STACK CFI d7810 .cfa: sp 8 +
STACK CFI d7814 .ra: .cfa -4 + ^ r4: .cfa -8 + ^
STACK CFI INIT d791c 5c .cfa: sp 0 + .ra: lr
STACK CFI INIT d7978 98 .cfa: sp 0 + .ra: lr
STACK CFI d797c .cfa: sp 16 +
STACK CFI d7980 .ra: .cfa -4 + ^ r4: .cfa -16 + ^ r5: .cfa -12 + ^ r6: .cfa -8 + ^
STACK CFI INIT d7a10 144 .cfa: sp 0 + .ra: lr
STACK CFI d7a14 .cfa: sp 16 +
STACK CFI d7a18 .ra: .cfa -4 + ^ r4: .cfa -16 + ^ r5: .cfa -12 + ^ r6: .cfa -8 + ^
STACK CFI INIT d7b54 3c .cfa: sp 0 + .ra: lr
STACK CFI INIT d7b90 10c .cfa: sp 0 + .ra: lr
STACK CFI d7b94 .cfa: sp 16 +
STACK CFI d7b98 .ra: .cfa -4 + ^ r4: .cfa -16 + ^ r5: .cfa -12 + ^ r6: .cfa -8 + ^
STACK CFI INIT d7c9c 1b8 .cfa: sp 0 + .ra: lr
STACK CFI d7ca0 .cfa: sp 16 +
STACK CFI d7ca4 .ra: .cfa -4 + ^ r4: .cfa -16 + ^ r5: .cfa -12 + ^ r6: .cfa -8 + ^
STACK CFI INIT d7e54 19c .cfa: sp 0 + .ra: lr
STACK CFI d7e58 .cfa: sp 16 +
STACK CFI d7e5c .ra: .cfa -4 + ^ r4: .cfa -16 + ^ r5: .cfa -12 + ^ r6: .cfa -8 + ^
STACK CFI INIT d7ff0 c .cfa: sp 0 + .ra: lr
STACK CFI INIT d7ffc 8 .cfa: sp 0 + .ra: lr
STACK CFI INIT d8004 40 .cfa: sp 0 + .ra: lr
STACK CFI INIT d8044 54 .cfa: sp 0 + .ra: lr
STACK CFI INIT d8098 44 .cfa: sp 0 + .ra: lr
STACK CFI INIT d80dc 54 .cfa: sp 0 + .ra: lr
STACK CFI INIT d8130 5c .cfa: sp 0 + .ra: lr
STACK CFI INIT d818c 17c .cfa: sp 0 + .ra: lr
STACK CFI d8190 .cfa: sp 16 +
STACK CFI d8194 .ra: .cfa -4 + ^ r4: .cfa -16 + ^ r5: .cfa -12 + ^ r6: .cfa -8 + ^
STACK CFI INIT d8308 184 .cfa: sp 0 + .ra: lr
STACK CFI d830c .cfa: sp 16 +
STACK CFI d8310 .ra: .cfa -4 + ^ r4: .cfa -16 + ^ r5: .cfa -12 + ^ r6: .cfa -8 + ^
STACK CFI INIT d848c 60 .cfa: sp 0 + .ra: lr
STACK CFI INIT d84ec 1c .cfa: sp 0 + .ra: lr
STACK CFI INIT d8508 574 .cfa: sp 0 + .ra: lr
STACK CFI d850c .cfa: sp 28 +
STACK CFI d8510 .ra: .cfa -4 + ^ r10: .cfa -8 + ^ r4: .cfa -28 + ^ r5: .cfa -24 + ^ r6: .cfa -20 + ^ r7: .cfa -16 + ^ r8: .cfa -12 + ^
STACK CFI d851c .cfa: sp 40 +
STACK CFI INIT d8a7c 20 .cfa: sp 0 + .ra: lr
STACK CFI INIT d8a9c ac .cfa: sp 0 + .ra: lr
STACK CFI d8aa0 .cfa: sp 16 +
STACK CFI d8aa4 .ra: .cfa -4 + ^ r3: .cfa -16 + ^ r4: .cfa -12 + ^ r5: .cfa -8 + ^
STACK CFI INIT d8b48 3c .cfa: sp 0 + .ra: lr
STACK CFI d8b4c .cfa: sp 16 +
STACK CFI d8b50 .cfa: sp 24 +
STACK CFI d8b54 .ra: .cfa -4 + ^ r4: .cfa -16 + ^ r5: .cfa -12 + ^ r6: .cfa -8 + ^
STACK CFI INIT d8b84 70 .cfa: sp 0 + .ra: lr
STACK CFI d8b88 .cfa: sp 20 +
STACK CFI d8b8c .ra: .cfa -4 + ^ r4: .cfa -20 + ^ r5: .cfa -16 + ^ r6: .cfa -12 + ^ r7: .cfa -8 + ^
STACK CFI d8b90 .cfa: sp 32 +
STACK CFI INIT d8bf4 44 .cfa: sp 0 + .ra: lr
STACK CFI d8bf8 .cfa: sp 20 +
STACK CFI d8bfc .ra: .cfa -4 + ^ r4: .cfa -20 + ^ r5: .cfa -16 + ^ r6: .cfa -12 + ^ r7: .cfa -8 + ^
STACK CFI d8c00 .cfa: sp 32 +
STACK CFI INIT d8c38 88 .cfa: sp 0 + .ra: lr
STACK CFI d8c40 .cfa: sp 28 +
STACK CFI d8c44 .ra: .cfa -4 + ^ r10: .cfa -8 + ^ r4: .cfa -28 + ^ r5: .cfa -24 + ^ r6: .cfa -20 + ^ r7: .cfa -16 + ^ r8: .cfa -12 + ^
STACK CFI d8c48 .cfa: sp 40 +
STACK CFI INIT d8cc0 78 .cfa: sp 0 + .ra: lr
STACK CFI d8cc4 .cfa: sp 16 +
STACK CFI d8cc8 .ra: .cfa -4 + ^ r4: .cfa -16 + ^ r5: .cfa -12 + ^ r6: .cfa -8 + ^
STACK CFI d8ccc .cfa: sp 24 +
STACK CFI INIT d8d38 b0 .cfa: sp 0 + .ra: lr
STACK CFI d8d3c .cfa: sp 16 +
STACK CFI d8d40 .ra: .cfa -4 + ^ r3: .cfa -16 + ^ r4: .cfa -12 + ^ r5: .cfa -8 + ^
STACK CFI INIT d8de8 5c .cfa: sp 0 + .ra: lr
STACK CFI d8dec .cfa: sp 20 +
STACK CFI d8df0 .ra: .cfa -4 + ^ r4: .cfa -20 + ^ r5: .cfa -16 + ^ r6: .cfa -12 + ^ r7: .cfa -8 + ^
STACK CFI d8df4 .cfa: sp 32 +
STACK CFI INIT d8e44 68 .cfa: sp 0 + .ra: lr
STACK CFI d8e48 .cfa: sp 16 +
STACK CFI d8e4c .ra: .cfa -4 + ^ r4: .cfa -16 + ^ r5: .cfa -12 + ^ r6: .cfa -8 + ^
STACK CFI d8e50 .cfa: sp 24 +
STACK CFI INIT d8eac 58 .cfa: sp 0 + .ra: lr
STACK CFI d8eb0 .cfa: sp 20 +
STACK CFI d8eb4 .ra: .cfa -4 + ^ r4: .cfa -20 + ^ r5: .cfa -16 + ^ r6: .cfa -12 + ^ r7: .cfa -8 + ^
STACK CFI d8eb8 .cfa: sp 32 +
STACK CFI INIT d8f04 6c .cfa: sp 0 + .ra: lr
STACK CFI d8f08 .cfa: sp 12 +
STACK CFI d8f10 .cfa: sp 24 +
STACK CFI d8f14 .ra: .cfa -4 + ^ r4: .cfa -12 + ^ r5: .cfa -8 + ^
STACK CFI INIT d8f70 60 .cfa: sp 0 + .ra: lr
STACK CFI d8f74 .cfa: sp 24 +
STACK CFI d8f7c .ra: .cfa -4 + ^ r4: .cfa -24 + ^ r5: .cfa -20 + ^ r6: .cfa -16 + ^ r7: .cfa -12 + ^ r8: .cfa -8 + ^
STACK CFI INIT d8fd0 b0 .cfa: sp 0 + .ra: lr
STACK CFI d8fd4 .cfa: sp 16 +
STACK CFI d8fd8 .ra: .cfa -4 + ^ r3: .cfa -16 + ^ r4: .cfa -12 + ^ r5: .cfa -8 + ^
STACK CFI INIT d9080 b8 .cfa: sp 0 + .ra: lr
STACK CFI d9088 .cfa: sp 32 +
STACK CFI d908c .ra: .cfa -4 + ^ r10: .cfa -8 + ^ r4: .cfa -32 + ^ r5: .cfa -28 + ^ r6: .cfa -24 + ^ r7: .cfa -20 + ^ r8: .cfa -16 + ^ r9: .cfa -12 + ^
STACK CFI INIT d9138 60 .cfa: sp 0 + .ra: lr
STACK CFI d913c .cfa: sp 16 +
STACK CFI d9140 .ra: .cfa -4 + ^ r3: .cfa -16 + ^ r4: .cfa -12 + ^ r5: .cfa -8 + ^
STACK CFI INIT d9198 1e4 .cfa: sp 0 + .ra: lr
STACK CFI d919c .cfa: sp 16 +
STACK CFI d91a0 .ra: .cfa -4 + ^ r3: .cfa -16 + ^ r4: .cfa -12 + ^ r5: .cfa -8 + ^
STACK CFI INIT d937c 140 .cfa: sp 0 + .ra: lr
STACK CFI d9380 .cfa: sp 16 +
STACK CFI d9384 .ra: .cfa -4 + ^ r3: .cfa -16 + ^ r4: .cfa -12 + ^ r5: .cfa -8 + ^
STACK CFI INIT d94bc 48 .cfa: sp 0 + .ra: lr
STACK CFI INIT d9504 3c .cfa: sp 0 + .ra: lr
STACK CFI INIT d9540 134 .cfa: sp 0 + .ra: lr
STACK CFI d9548 .cfa: sp 4 +
STACK CFI d954c r4: .cfa -4 + ^
STACK CFI INIT d9674 44 .cfa: sp 0 + .ra: lr
STACK CFI INIT d96b8 fc .cfa: sp 0 + .ra: lr
STACK CFI d96c4 .cfa: sp 8 +
STACK CFI d96cc .ra: .cfa -4 + ^ r4: .cfa -8 + ^
STACK CFI d96d0 .cfa: sp 64 +
STACK CFI INIT d97b4 238 .cfa: sp 0 + .ra: lr
STACK CFI d97b8 .cfa: sp 28 +
STACK CFI d97bc .ra: .cfa -4 + ^ r10: .cfa -8 + ^ r4: .cfa -28 + ^ r5: .cfa -24 + ^ r6: .cfa -20 + ^ r7: .cfa -16 + ^ r8: .cfa -12 + ^
STACK CFI d97c4 .cfa: sp 112 +
STACK CFI INIT d99ec 1b4 .cfa: sp 0 + .ra: lr
STACK CFI d99f0 .cfa: sp 32 +
STACK CFI d99f4 .ra: .cfa -4 + ^ r10: .cfa -8 + ^ r4: .cfa -32 + ^ r5: .cfa -28 + ^ r6: .cfa -24 + ^ r7: .cfa -20 + ^ r8: .cfa -16 + ^ r9: .cfa -12 + ^
STACK CFI INIT d9ba0 100 .cfa: sp 0 + .ra: lr
STACK CFI d9ba4 .cfa: sp 32 +
STACK CFI d9ba8 .ra: .cfa -4 + ^ r10: .cfa -8 + ^ r3: .cfa -32 + ^ r4: .cfa -28 + ^ r5: .cfa -24 + ^ r6: .cfa -20 + ^ r7: .cfa -16 + ^ r8: .cfa -12 + ^
STACK CFI INIT d9ca0 138 .cfa: sp 0 + .ra: lr
STACK CFI d9ca8 .cfa: sp 16 +
STACK CFI d9cac .ra: .cfa -4 + ^ r4: .cfa -16 + ^ r5: .cfa -12 + ^ r6: .cfa -8 + ^
STACK CFI INIT d9dd8 124 .cfa: sp 0 + .ra: lr
STACK CFI d9ddc .cfa: sp 16 +
STACK CFI d9de0 .ra: .cfa -4 + ^ r4: .cfa -16 + ^ r5: .cfa -12 + ^ r6: .cfa -8 + ^
STACK CFI INIT d9efc 100 .cfa: sp 0 + .ra: lr
STACK CFI d9f00 .cfa: sp 24 +
STACK CFI d9f04 .ra: .cfa -4 + ^ r4: .cfa -24 + ^ r5: .cfa -20 + ^ r6: .cfa -16 + ^ r7: .cfa -12 + ^ r8: .cfa -8 + ^
STACK CFI INIT d9ffc e8 .cfa: sp 0 + .ra: lr
STACK CFI da000 .cfa: sp 16 +
STACK CFI da004 .ra: .cfa -4 + ^ r4: .cfa -16 + ^ r5: .cfa -12 + ^ r6: .cfa -8 + ^
STACK CFI INIT da0e4 fc .cfa: sp 0 + .ra: lr
STACK CFI da0f0 .cfa: sp 8 +
STACK CFI da0f8 .ra: .cfa -4 + ^ r4: .cfa -8 + ^
STACK CFI da0fc .cfa: sp 64 +
STACK CFI INIT da1e0 78 .cfa: sp 0 + .ra: lr
STACK CFI da1e8 .cfa: sp 16 +
STACK CFI da1ec .ra: .cfa -4 + ^ r3: .cfa -16 + ^ r4: .cfa -12 + ^ r5: .cfa -8 + ^
STACK CFI INIT da258 22c .cfa: sp 0 + .ra: lr
STACK CFI da25c .cfa: sp 36 +
STACK CFI da264 .ra: .cfa -4 + ^ r10: .cfa -12 + ^ r11: .cfa -8 + ^ r4: .cfa -36 + ^ r5: .cfa -32 + ^ r6: .cfa -28 + ^ r7: .cfa -24 + ^ r8: .cfa -20 + ^ r9: .cfa -16 + ^
STACK CFI da268 .cfa: sp 48 +
STACK CFI INIT da484 164 .cfa: sp 0 + .ra: lr
STACK CFI da48c .cfa: sp 24 +
STACK CFI da490 .ra: .cfa -4 + ^ r3: .cfa -24 + ^ r4: .cfa -20 + ^ r5: .cfa -16 + ^ r6: .cfa -12 + ^ r7: .cfa -8 + ^
STACK CFI INIT da5e8 a4 .cfa: sp 0 + .ra: lr
STACK CFI da5f0 .cfa: sp 20 +
STACK CFI da5f4 .ra: .cfa -4 + ^ r4: .cfa -20 + ^ r5: .cfa -16 + ^ r6: .cfa -12 + ^ r7: .cfa -8 + ^
STACK CFI da5f8 .cfa: sp 80 +
STACK CFI INIT da68c 110 .cfa: sp 0 + .ra: lr
STACK CFI da69c .cfa: sp 20 +
STACK CFI da6a0 .ra: .cfa -4 + ^ r4: .cfa -20 + ^ r5: .cfa -16 + ^ r6: .cfa -12 + ^ r7: .cfa -8 + ^
STACK CFI da6a4 .cfa: sp 32 +
STACK CFI INIT da79c 114 .cfa: sp 0 + .ra: lr
STACK CFI da7a4 .cfa: sp 16 +
STACK CFI da7ac .ra: .cfa -4 + ^ r4: .cfa -16 + ^ r5: .cfa -12 + ^ r6: .cfa -8 + ^
STACK CFI INIT da8b0 10c .cfa: sp 0 + .ra: lr
STACK CFI da8b4 .cfa: sp 24 +
STACK CFI da8bc .ra: .cfa -4 + ^ r4: .cfa -24 + ^ r5: .cfa -20 + ^ r6: .cfa -16 + ^ r7: .cfa -12 + ^ r8: .cfa -8 + ^
STACK CFI INIT da9bc 58 .cfa: sp 0 + .ra: lr
STACK CFI da9c4 .cfa: sp 8 +
STACK CFI da9cc .ra: .cfa -4 + ^ r4: .cfa -8 + ^
STACK CFI INIT daa14 54 .cfa: sp 0 + .ra: lr
STACK CFI daa18 .cfa: sp 8 +
STACK CFI daa1c .ra: .cfa -4 + ^ r4: .cfa -8 + ^
STACK CFI INIT daa68 53c .cfa: sp 0 + .ra: lr
STACK CFI daa70 .cfa: sp 12 +
STACK CFI daa78 .cfa: sp 1024 +
STACK CFI daa7c .ra: .cfa -4 + ^ r4: .cfa -12 + ^ r5: .cfa -8 + ^
STACK CFI INIT dafa4 f4 .cfa: sp 0 + .ra: lr
STACK CFI dafa8 .cfa: sp 36 +
STACK CFI dafac .ra: .cfa -4 + ^ r10: .cfa -12 + ^ r11: .cfa -8 + ^ r4: .cfa -36 + ^ r5: .cfa -32 + ^ r6: .cfa -28 + ^ r7: .cfa -24 + ^ r8: .cfa -20 + ^ r9: .cfa -16 + ^
STACK CFI dafb8 .cfa: sp 96 +
STACK CFI INIT db098 274 .cfa: sp 0 + .ra: lr
STACK CFI db09c .cfa: sp 36 +
STACK CFI db0a4 .ra: .cfa -4 + ^ r10: .cfa -12 + ^ r11: .cfa -8 + ^ r4: .cfa -36 + ^ r5: .cfa -32 + ^ r6: .cfa -28 + ^ r7: .cfa -24 + ^ r8: .cfa -20 + ^ r9: .cfa -16 + ^
STACK CFI db0ac .cfa: sp 56 +
STACK CFI INIT db30c 21c .cfa: sp 0 + .ra: lr
STACK CFI db310 .cfa: sp 32 +
STACK CFI db314 .ra: .cfa -4 + ^ r10: .cfa -8 + ^ r4: .cfa -32 + ^ r5: .cfa -28 + ^ r6: .cfa -24 + ^ r7: .cfa -20 + ^ r8: .cfa -16 + ^ r9: .cfa -12 + ^
STACK CFI db318 .cfa: sp 40 +
STACK CFI INIT db528 2bc .cfa: sp 0 + .ra: lr
STACK CFI db52c .cfa: sp 28 +
STACK CFI db530 .ra: .cfa -4 + ^ r10: .cfa -8 + ^ r4: .cfa -28 + ^ r5: .cfa -24 + ^ r6: .cfa -20 + ^ r7: .cfa -16 + ^ r8: .cfa -12 + ^
STACK CFI db538 .cfa: sp 40 +
STACK CFI INIT db7e4 90 .cfa: sp 0 + .ra: lr
STACK CFI db7f0 .cfa: sp 16 +
STACK CFI db7f4 .ra: .cfa -4 + ^ r3: .cfa -16 + ^ r4: .cfa -12 + ^ r5: .cfa -8 + ^
STACK CFI INIT db874 244 .cfa: sp 0 + .ra: lr
STACK CFI db878 .cfa: sp 16 +
STACK CFI db87c .cfa: sp 216 +
STACK CFI db880 .ra: .cfa -4 + ^ r4: .cfa -16 + ^ r5: .cfa -12 + ^ r6: .cfa -8 + ^
STACK CFI INIT dbab8 628 .cfa: sp 0 + .ra: lr
STACK CFI dbabc .cfa: sp 16 +
STACK CFI dbac0 .ra: .cfa -4 + ^ r4: .cfa -16 + ^ r5: .cfa -12 + ^ r6: .cfa -8 + ^
STACK CFI INIT dc0e0 2c .cfa: sp 0 + .ra: lr
STACK CFI dc0e4 .cfa: sp 16 +
STACK CFI dc0e8 .ra: .cfa -4 + ^ r3: .cfa -16 + ^ r4: .cfa -12 + ^ r5: .cfa -8 + ^
STACK CFI INIT dc10c 5dc .cfa: sp 0 + .ra: lr
STACK CFI dc110 .cfa: sp 28 +
STACK CFI dc114 .ra: .cfa -4 + ^ r10: .cfa -8 + ^ r4: .cfa -28 + ^ r5: .cfa -24 + ^ r6: .cfa -20 + ^ r7: .cfa -16 + ^ r8: .cfa -12 + ^
STACK CFI dc118 .cfa: sp 40 +
STACK CFI INIT dc6e8 19c .cfa: sp 0 + .ra: lr
STACK CFI dc6ec .cfa: sp 36 +
STACK CFI dc6f0 .ra: .cfa -4 + ^ r10: .cfa -12 + ^ r11: .cfa -8 + ^ r4: .cfa -36 + ^ r5: .cfa -32 + ^ r6: .cfa -28 + ^ r7: .cfa -24 + ^ r8: .cfa -20 + ^ r9: .cfa -16 + ^
STACK CFI dc6f4 .cfa: sp 48 +
STACK CFI INIT dc884 334 .cfa: sp 0 + .ra: lr
STACK CFI dc88c .cfa: sp 36 +
STACK CFI dc890 .ra: .cfa -4 + ^ r10: .cfa -12 + ^ r11: .cfa -8 + ^ r4: .cfa -36 + ^ r5: .cfa -32 + ^ r6: .cfa -28 + ^ r7: .cfa -24 + ^ r8: .cfa -20 + ^ r9: .cfa -16 + ^
STACK CFI dc894 .cfa: sp 104 +
STACK CFI INIT dcbb8 c4 .cfa: sp 0 + .ra: lr
STACK CFI dcbc4 .cfa: sp 12 +
STACK CFI dcbc8 .ra: .cfa -4 + ^ r4: .cfa -12 + ^ r5: .cfa -8 + ^
STACK CFI dcbd4 .cfa: sp 24 +
STACK CFI INIT dcc7c 114 .cfa: sp 0 + .ra: lr
STACK CFI dcc84 .cfa: sp 16 +
STACK CFI dcc8c .cfa: sp 24 +
STACK CFI dcc90 .ra: .cfa -4 + ^ r4: .cfa -16 + ^ r5: .cfa -12 + ^ r6: .cfa -8 + ^
STACK CFI INIT dcd90 d8 .cfa: sp 0 + .ra: lr
STACK CFI dcd94 .cfa: sp 24 +
STACK CFI dcd98 .ra: .cfa -4 + ^ r3: .cfa -24 + ^ r4: .cfa -20 + ^ r5: .cfa -16 + ^ r6: .cfa -12 + ^ r7: .cfa -8 + ^
STACK CFI INIT dce68 7c .cfa: sp 0 + .ra: lr
STACK CFI dce6c .cfa: sp 16 +
STACK CFI dce70 .ra: .cfa -4 + ^ r3: .cfa -16 + ^ r4: .cfa -12 + ^ r5: .cfa -8 + ^
STACK CFI INIT dcee4 110 .cfa: sp 0 + .ra: lr
STACK CFI dcee8 .cfa: sp 16 +
STACK CFI dceec .ra: .cfa -4 + ^ r3: .cfa -16 + ^ r4: .cfa -12 + ^ r5: .cfa -8 + ^
STACK CFI INIT dcff4 d4 .cfa: sp 0 + .ra: lr
STACK CFI dcff8 .cfa: sp 24 +
STACK CFI dcffc .ra: .cfa -4 + ^ r3: .cfa -24 + ^ r4: .cfa -20 + ^ r5: .cfa -16 + ^ r6: .cfa -12 + ^ r7: .cfa -8 + ^
STACK CFI INIT dd0c8 24 .cfa: sp 0 + .ra: lr
STACK CFI dd0d0 .cfa: sp 8 +
STACK CFI dd0d4 .ra: .cfa -4 + ^ r4: .cfa -8 + ^
STACK CFI INIT dd0ec 674 .cfa: sp 0 + .ra: lr
STACK CFI dd0f0 .cfa: sp 28 +
STACK CFI dd0fc .ra: .cfa -4 + ^ r10: .cfa -8 + ^ r4: .cfa -28 + ^ r5: .cfa -24 + ^ r6: .cfa -20 + ^ r7: .cfa -16 + ^ r8: .cfa -12 + ^
STACK CFI dd104 .cfa: sp 40 +
STACK CFI INIT dd760 110 .cfa: sp 0 + .ra: lr
STACK CFI dd76c .cfa: sp 16 +
STACK CFI dd770 .ra: .cfa -4 + ^ r4: .cfa -16 + ^ r5: .cfa -12 + ^ r6: .cfa -8 + ^
STACK CFI INIT dd870 8 .cfa: sp 0 + .ra: lr
STACK CFI INIT dd878 30 .cfa: sp 0 + .ra: lr
STACK CFI dd880 .cfa: sp 8 +
STACK CFI dd884 .ra: .cfa -4 + ^ r3: .cfa -8 + ^
STACK CFI INIT dd8a8 344 .cfa: sp 0 + .ra: lr
STACK CFI dd8ac .cfa: sp 20 +
STACK CFI dd8b0 .cfa: sp 32 +
STACK CFI dd8b4 .ra: .cfa -4 + ^ r4: .cfa -20 + ^ r5: .cfa -16 + ^ r6: .cfa -12 + ^ r7: .cfa -8 + ^
STACK CFI INIT ddbec 84 .cfa: sp 0 + .ra: lr
STACK CFI ddbf8 .cfa: sp 8 +
STACK CFI ddc00 .ra: .cfa -4 + ^ r4: .cfa -8 + ^
STACK CFI ddc04 .cfa: sp 16 +
STACK CFI INIT ddc70 118 .cfa: sp 0 + .ra: lr
STACK CFI ddc78 .cfa: sp 16 +
STACK CFI ddc84 .cfa: sp 32 +
STACK CFI ddc88 .ra: .cfa -4 + ^ r4: .cfa -16 + ^ r5: .cfa -12 + ^ r6: .cfa -8 + ^
STACK CFI INIT ddd88 13c .cfa: sp 0 + .ra: lr
STACK CFI INIT ddec4 378 .cfa: sp 0 + .ra: lr
STACK CFI ddec8 .cfa: sp 32 +
STACK CFI ddecc .ra: .cfa -4 + ^ r10: .cfa -8 + ^ r4: .cfa -32 + ^ r5: .cfa -28 + ^ r6: .cfa -24 + ^ r7: .cfa -20 + ^ r8: .cfa -16 + ^ r9: .cfa -12 + ^
STACK CFI INIT de23c 6c .cfa: sp 0 + .ra: lr
STACK CFI de240 .cfa: sp 16 +
STACK CFI de244 .ra: .cfa -4 + ^ r3: .cfa -16 + ^ r4: .cfa -12 + ^ r5: .cfa -8 + ^
STACK CFI INIT de2a8 114 .cfa: sp 0 + .ra: lr
STACK CFI de2ac .cfa: sp 20 +
STACK CFI de2b0 .ra: .cfa -4 + ^ r4: .cfa -20 + ^ r5: .cfa -16 + ^ r6: .cfa -12 + ^ r7: .cfa -8 + ^
STACK CFI de2bc .cfa: sp 32 +
STACK CFI INIT de3bc 1ac .cfa: sp 0 + .ra: lr
STACK CFI de3c4 .cfa: sp 20 +
STACK CFI de3c8 r4: .cfa -20 + ^ r5: .cfa -16 + ^ r6: .cfa -12 + ^ r7: .cfa -8 + ^ r8: .cfa -4 + ^
STACK CFI INIT de568 c8 .cfa: sp 0 + .ra: lr
STACK CFI de570 .cfa: sp 4 +
STACK CFI de578 r4: .cfa -4 + ^
STACK CFI INIT de630 600 .cfa: sp 0 + .ra: lr
STACK CFI de634 .cfa: sp 36 +
STACK CFI de63c .ra: .cfa -4 + ^ r10: .cfa -12 + ^ r11: .cfa -8 + ^ r4: .cfa -36 + ^ r5: .cfa -32 + ^ r6: .cfa -28 + ^ r7: .cfa -24 + ^ r8: .cfa -20 + ^ r9: .cfa -16 + ^
STACK CFI de640 .cfa: sp 56 +
STACK CFI INIT dec30 3c .cfa: sp 0 + .ra: lr
STACK CFI dec34 .cfa: sp 16 +
STACK CFI dec38 .ra: .cfa -4 + ^ r3: .cfa -16 + ^ r4: .cfa -12 + ^ r5: .cfa -8 + ^
STACK CFI INIT dec6c 250 .cfa: sp 0 + .ra: lr
STACK CFI dec70 .cfa: sp 40 +
STACK CFI dec74 .ra: .cfa -4 + ^ r10: .cfa -12 + ^ r11: .cfa -8 + ^ r3: .cfa -40 + ^ r4: .cfa -36 + ^ r5: .cfa -32 + ^ r6: .cfa -28 + ^ r7: .cfa -24 + ^ r8: .cfa -20 + ^ r9: .cfa -16 + ^
STACK CFI INIT deebc 1f4 .cfa: sp 0 + .ra: lr
STACK CFI deec0 .cfa: sp 28 +
STACK CFI deec4 .ra: .cfa -4 + ^ r10: .cfa -8 + ^ r4: .cfa -28 + ^ r5: .cfa -24 + ^ r6: .cfa -20 + ^ r7: .cfa -16 + ^ r8: .cfa -12 + ^
STACK CFI deec8 .cfa: sp 48 +
STACK CFI INIT df0b0 3c .cfa: sp 0 + .ra: lr
STACK CFI df0b4 .cfa: sp 16 +
STACK CFI df0b8 .ra: .cfa -4 + ^ r3: .cfa -16 + ^ r4: .cfa -12 + ^ r5: .cfa -8 + ^
STACK CFI INIT df0ec 200 .cfa: sp 0 + .ra: lr
STACK CFI df0f0 .cfa: sp 32 +
STACK CFI df0f4 .ra: .cfa -4 + ^ r10: .cfa -8 + ^ r3: .cfa -32 + ^ r4: .cfa -28 + ^ r5: .cfa -24 + ^ r6: .cfa -20 + ^ r7: .cfa -16 + ^ r8: .cfa -12 + ^
STACK CFI INIT df2ec 7c .cfa: sp 0 + .ra: lr
STACK CFI df2f8 .cfa: sp 16 +
STACK CFI df2fc .ra: .cfa -4 + ^ r4: .cfa -16 + ^ r5: .cfa -12 + ^ r6: .cfa -8 + ^
STACK CFI INIT df368 35c .cfa: sp 0 + .ra: lr
STACK CFI df36c .cfa: sp 36 +
STACK CFI df370 .ra: .cfa -4 + ^ r10: .cfa -12 + ^ r11: .cfa -8 + ^ r4: .cfa -36 + ^ r5: .cfa -32 + ^ r6: .cfa -28 + ^ r7: .cfa -24 + ^ r8: .cfa -20 + ^ r9: .cfa -16 + ^
STACK CFI df378 .cfa: sp 56 +
STACK CFI INIT df6c4 f34 .cfa: sp 0 + .ra: lr
STACK CFI df6c8 .cfa: sp 36 +
STACK CFI df6cc .ra: .cfa -4 + ^ r10: .cfa -12 + ^ r11: .cfa -8 + ^ r4: .cfa -36 + ^ r5: .cfa -32 + ^ r6: .cfa -28 + ^ r7: .cfa -24 + ^ r8: .cfa -20 + ^ r9: .cfa -16 + ^
STACK CFI df6d8 .cfa: sp 104 +
STACK CFI INIT e05f8 6e0 .cfa: sp 0 + .ra: lr
STACK CFI e0600 .cfa: sp 36 +
STACK CFI e0604 .ra: .cfa -4 + ^ r10: .cfa -12 + ^ r11: .cfa -8 + ^ r4: .cfa -36 + ^ r5: .cfa -32 + ^ r6: .cfa -28 + ^ r7: .cfa -24 + ^ r8: .cfa -20 + ^ r9: .cfa -16 + ^
STACK CFI e0608 .cfa: sp 80 +
STACK CFI INIT e0cd8 2078 .cfa: sp 0 + .ra: lr
STACK CFI e0ce0 .cfa: sp 36 +
STACK CFI e0ce8 .cfa: sp 120 +
STACK CFI e0cec .ra: .cfa -4 + ^ r10: .cfa -12 + ^ r11: .cfa -8 + ^ r4: .cfa -36 + ^ r5: .cfa -32 + ^ r6: .cfa -28 + ^ r7: .cfa -24 + ^ r8: .cfa -20 + ^ r9: .cfa -16 + ^
STACK CFI INIT e2d50 4f0 .cfa: sp 0 + .ra: lr
STACK CFI e2d58 .cfa: sp 36 +
STACK CFI e2d60 .cfa: sp 64 +
STACK CFI e2d64 .ra: .cfa -4 + ^ r10: .cfa -12 + ^ r11: .cfa -8 + ^ r4: .cfa -36 + ^ r5: .cfa -32 + ^ r6: .cfa -28 + ^ r7: .cfa -24 + ^ r8: .cfa -20 + ^ r9: .cfa -16 + ^
STACK CFI INIT e3240 f0 .cfa: sp 0 + .ra: lr
STACK CFI e3244 .cfa: sp 24 +
STACK CFI e3248 .ra: .cfa -4 + ^ r4: .cfa -24 + ^ r5: .cfa -20 + ^ r6: .cfa -16 + ^ r7: .cfa -12 + ^ r8: .cfa -8 + ^
STACK CFI e324c .cfa: sp 32 +
STACK CFI INIT e3330 300 .cfa: sp 0 + .ra: lr
STACK CFI e3338 .cfa: sp 28 +
STACK CFI e333c .ra: .cfa -4 + ^ r10: .cfa -8 + ^ r4: .cfa -28 + ^ r5: .cfa -24 + ^ r6: .cfa -20 + ^ r7: .cfa -16 + ^ r8: .cfa -12 + ^
STACK CFI e3344 .cfa: sp 40 +
STACK CFI INIT e3630 c8 .cfa: sp 0 + .ra: lr
STACK CFI e3638 .cfa: sp 8 +
STACK CFI e363c .ra: .cfa -4 + ^ r4: .cfa -8 + ^
STACK CFI INIT e36f8 b4 .cfa: sp 0 + .ra: lr
STACK CFI e36fc .cfa: sp 16 +
STACK CFI e3700 .ra: .cfa -4 + ^ r4: .cfa -16 + ^ r5: .cfa -12 + ^ r6: .cfa -8 + ^
STACK CFI e3704 .cfa: sp 24 +
STACK CFI INIT e37ac 22c .cfa: sp 0 + .ra: lr
STACK CFI e37b0 .cfa: sp 36 +
STACK CFI e37b4 .ra: .cfa -4 + ^ r10: .cfa -12 + ^ r11: .cfa -8 + ^ r4: .cfa -36 + ^ r5: .cfa -32 + ^ r6: .cfa -28 + ^ r7: .cfa -24 + ^ r8: .cfa -20 + ^ r9: .cfa -16 + ^
STACK CFI e37bc .cfa: sp 48 +
STACK CFI INIT e39d8 19ec .cfa: sp 0 + .ra: lr
STACK CFI e39dc .cfa: sp 36 +
STACK CFI e39e0 .ra: .cfa -4 + ^ r10: .cfa -12 + ^ r11: .cfa -8 + ^ r4: .cfa -36 + ^ r5: .cfa -32 + ^ r6: .cfa -28 + ^ r7: .cfa -24 + ^ r8: .cfa -20 + ^ r9: .cfa -16 + ^
STACK CFI e39e8 .cfa: sp 96 +
STACK CFI INIT e53c4 6c .cfa: sp 0 + .ra: lr
STACK CFI e53c8 .cfa: sp 12 +
STACK CFI e53cc .ra: .cfa -4 + ^ r4: .cfa -12 + ^ r5: .cfa -8 + ^
STACK CFI e53d0 .cfa: sp 24 +
STACK CFI INIT e5430 1cc .cfa: sp 0 + .ra: lr
STACK CFI e5434 .cfa: sp 24 +
STACK CFI e5438 .ra: .cfa -4 + ^ r3: .cfa -24 + ^ r4: .cfa -20 + ^ r5: .cfa -16 + ^ r6: .cfa -12 + ^ r7: .cfa -8 + ^
STACK CFI INIT e55fc 1898 .cfa: sp 0 + .ra: lr
STACK CFI e5600 .cfa: sp 36 +
STACK CFI e5604 .ra: .cfa -4 + ^ r10: .cfa -12 + ^ r11: .cfa -8 + ^ r4: .cfa -36 + ^ r5: .cfa -32 + ^ r6: .cfa -28 + ^ r7: .cfa -24 + ^ r8: .cfa -20 + ^ r9: .cfa -16 + ^
STACK CFI e5610 .cfa: sp 64 +
STACK CFI INIT e6e94 2d0 .cfa: sp 0 + .ra: lr
STACK CFI e6e98 .cfa: sp 36 +
STACK CFI e6e9c .cfa: sp 56 +
STACK CFI e6ea0 .ra: .cfa -4 + ^ r10: .cfa -12 + ^ r11: .cfa -8 + ^ r4: .cfa -36 + ^ r5: .cfa -32 + ^ r6: .cfa -28 + ^ r7: .cfa -24 + ^ r8: .cfa -20 + ^ r9: .cfa -16 + ^
STACK CFI INIT e7164 138 .cfa: sp 0 + .ra: lr
STACK CFI e7168 .cfa: sp 36 +
STACK CFI e716c .ra: .cfa -4 + ^ r10: .cfa -12 + ^ r11: .cfa -8 + ^ r4: .cfa -36 + ^ r5: .cfa -32 + ^ r6: .cfa -28 + ^ r7: .cfa -24 + ^ r8: .cfa -20 + ^ r9: .cfa -16 + ^
STACK CFI e7170 .cfa: sp 48 +
STACK CFI INIT e729c 208 .cfa: sp 0 + .ra: lr
STACK CFI e72a0 .cfa: sp 16 +
STACK CFI e72a4 .ra: .cfa -4 + ^ r4: .cfa -16 + ^ r5: .cfa -12 + ^ r6: .cfa -8 + ^
STACK CFI e72a8 .cfa: sp 24 +
STACK CFI INIT e74a4 4d4 .cfa: sp 0 + .ra: lr
STACK CFI e74ac .cfa: sp 36 +
STACK CFI e74b4 .cfa: sp 56 +
STACK CFI e74b8 .ra: .cfa -4 + ^ r10: .cfa -12 + ^ r11: .cfa -8 + ^ r4: .cfa -36 + ^ r5: .cfa -32 + ^ r6: .cfa -28 + ^ r7: .cfa -24 + ^ r8: .cfa -20 + ^ r9: .cfa -16 + ^
STACK CFI INIT e7978 434 .cfa: sp 0 + .ra: lr
STACK CFI e797c .cfa: sp 36 +
STACK CFI e7980 .cfa: sp 104 +
STACK CFI e7984 .ra: .cfa -4 + ^ r10: .cfa -12 + ^ r11: .cfa -8 + ^ r4: .cfa -36 + ^ r5: .cfa -32 + ^ r6: .cfa -28 + ^ r7: .cfa -24 + ^ r8: .cfa -20 + ^ r9: .cfa -16 + ^
STACK CFI INIT e7dac 218 .cfa: sp 0 + .ra: lr
STACK CFI e7dbc .cfa: sp 24 +
STACK CFI e7dc4 .ra: .cfa -4 + ^ r4: .cfa -24 + ^ r5: .cfa -20 + ^ r6: .cfa -16 + ^ r7: .cfa -12 + ^ r8: .cfa -8 + ^
STACK CFI INIT e7fc4 1b4 .cfa: sp 0 + .ra: lr
STACK CFI e7fc8 .cfa: sp 28 +
STACK CFI e7fcc .cfa: sp 72 +
STACK CFI e7fd0 .ra: .cfa -4 + ^ r10: .cfa -8 + ^ r4: .cfa -28 + ^ r5: .cfa -24 + ^ r6: .cfa -20 + ^ r7: .cfa -16 + ^ r8: .cfa -12 + ^
STACK CFI INIT e8178 1c4 .cfa: sp 0 + .ra: lr
STACK CFI e817c .cfa: sp 28 +
STACK CFI e8180 .ra: .cfa -4 + ^ r10: .cfa -8 + ^ r4: .cfa -28 + ^ r5: .cfa -24 + ^ r6: .cfa -20 + ^ r7: .cfa -16 + ^ r8: .cfa -12 + ^
STACK CFI e8190 .cfa: sp 40 +
STACK CFI INIT e833c d4 .cfa: sp 0 + .ra: lr
STACK CFI e8340 .cfa: sp 16 +
STACK CFI e8344 .ra: .cfa -4 + ^ r4: .cfa -16 + ^ r5: .cfa -12 + ^ r6: .cfa -8 + ^
STACK CFI INIT e8410 78 .cfa: sp 0 + .ra: lr
STACK CFI e8418 .cfa: sp 16 +
STACK CFI e841c .ra: .cfa -4 + ^ r4: .cfa -16 + ^ r5: .cfa -12 + ^ r6: .cfa -8 + ^
STACK CFI INIT e8488 48 .cfa: sp 0 + .ra: lr
STACK CFI INIT e84d0 108 .cfa: sp 0 + .ra: lr
STACK CFI e84d4 .cfa: sp 12 +
STACK CFI e84d8 .ra: .cfa -4 + ^ r4: .cfa -12 + ^ r5: .cfa -8 + ^
STACK CFI e84dc .cfa: sp 24 +
STACK CFI INIT e85d8 40 .cfa: sp 0 + .ra: lr
STACK CFI e85dc .cfa: sp 8 + .ra: .cfa -4 + ^ r4: .cfa -8 + ^
STACK CFI INIT e8618 88 .cfa: sp 0 + .ra: lr
STACK CFI e861c .cfa: sp 16 +
STACK CFI e8620 .ra: .cfa -4 + ^ r3: .cfa -16 + ^ r4: .cfa -12 + ^ r5: .cfa -8 + ^
STACK CFI INIT e86a0 a0 .cfa: sp 0 + .ra: lr
STACK CFI e86a4 .cfa: sp 24 +
STACK CFI e86a8 .ra: .cfa -4 + ^ r3: .cfa -24 + ^ r4: .cfa -20 + ^ r5: .cfa -16 + ^ r6: .cfa -12 + ^ r7: .cfa -8 + ^
STACK CFI INIT e8740 94 .cfa: sp 0 + .ra: lr
STACK CFI e8744 .cfa: sp 16 +
STACK CFI e8748 .ra: .cfa -4 + ^ r4: .cfa -16 + ^ r5: .cfa -12 + ^ r6: .cfa -8 + ^
STACK CFI INIT e87d4 134 .cfa: sp 0 + .ra: lr
STACK CFI e87dc .cfa: sp 16 +
STACK CFI e87e0 .ra: .cfa -4 + ^ r4: .cfa -16 + ^ r5: .cfa -12 + ^ r6: .cfa -8 + ^
STACK CFI INIT e8908 2c0 .cfa: sp 0 + .ra: lr
STACK CFI e890c .cfa: sp 20 +
STACK CFI e8910 .ra: .cfa -4 + ^ r4: .cfa -20 + ^ r5: .cfa -16 + ^ r6: .cfa -12 + ^ r7: .cfa -8 + ^
STACK CFI e8914 .cfa: sp 32 +
STACK CFI INIT e8bc8 1c .cfa: sp 0 + .ra: lr
STACK CFI INIT e8be4 3c .cfa: sp 0 + .ra: lr
STACK CFI INIT e8c20 1c .cfa: sp 0 + .ra: lr
STACK CFI INIT e8c3c 234 .cfa: sp 0 + .ra: lr
STACK CFI e8c40 .cfa: sp 16 +
STACK CFI e8c44 .ra: .cfa -4 + ^ r4: .cfa -16 + ^ r5: .cfa -12 + ^ r6: .cfa -8 + ^
STACK CFI INIT e8e70 50 .cfa: sp 0 + .ra: lr
STACK CFI INIT e8ec0 14c .cfa: sp 0 + .ra: lr
STACK CFI e8ecc .cfa: sp 16 +
STACK CFI e8ed0 .ra: .cfa -4 + ^ r4: .cfa -16 + ^ r5: .cfa -12 + ^ r6: .cfa -8 + ^
STACK CFI e8ed4 .cfa: sp 24 +
STACK CFI INIT e900c ac .cfa: sp 0 + .ra: lr
STACK CFI e9010 .cfa: sp 8 +
STACK CFI e9014 .ra: .cfa -4 + ^ r4: .cfa -8 + ^
STACK CFI e9018 .cfa: sp 16 +
STACK CFI INIT e90b8 90 .cfa: sp 0 + .ra: lr
STACK CFI e90bc .cfa: sp 16 +
STACK CFI e90c0 .ra: .cfa -4 + ^ r4: .cfa -16 + ^ r5: .cfa -12 + ^ r6: .cfa -8 + ^
STACK CFI e90c4 .cfa: sp 24 +
STACK CFI INIT e9148 9c .cfa: sp 0 + .ra: lr
STACK CFI e914c .cfa: sp 12 +
STACK CFI e9150 .ra: .cfa -4 + ^ r4: .cfa -12 + ^ r5: .cfa -8 + ^
STACK CFI e9154 .cfa: sp 24 +
STACK CFI INIT e91e4 ac .cfa: sp 0 + .ra: lr
STACK CFI e91ec .cfa: sp 16 +
STACK CFI e91f0 .ra: .cfa -4 + ^ r3: .cfa -16 + ^ r4: .cfa -12 + ^ r5: .cfa -8 + ^
STACK CFI INIT e9290 12c .cfa: sp 0 + .ra: lr
STACK CFI e9294 .cfa: sp 16 +
STACK CFI e9298 .ra: .cfa -4 + ^ r4: .cfa -16 + ^ r5: .cfa -12 + ^ r6: .cfa -8 + ^
STACK CFI INIT e93bc 1c .cfa: sp 0 + .ra: lr
STACK CFI INIT e93d8 1c .cfa: sp 0 + .ra: lr
STACK CFI INIT e93f4 3c .cfa: sp 0 + .ra: lr
STACK CFI INIT e9430 2c8 .cfa: sp 0 + .ra: lr
STACK CFI e943c .cfa: sp 32 +
STACK CFI e9440 .ra: .cfa -4 + ^ r10: .cfa -8 + ^ r4: .cfa -32 + ^ r5: .cfa -28 + ^ r6: .cfa -24 + ^ r7: .cfa -20 + ^ r8: .cfa -16 + ^ r9: .cfa -12 + ^
STACK CFI e9444 .cfa: sp 104 +
STACK CFI INIT e96f8 a4 .cfa: sp 0 + .ra: lr
STACK CFI e9704 .cfa: sp 4 +
STACK CFI e9714 r4: .cfa -4 + ^
STACK CFI INIT e979c 128 .cfa: sp 0 + .ra: lr
STACK CFI e97a4 .cfa: sp 12 +
STACK CFI e97ac r4: .cfa -12 + ^ r5: .cfa -8 + ^ r6: .cfa -4 + ^
STACK CFI INIT e98c4 ac .cfa: sp 0 + .ra: lr
STACK CFI INIT e9970 1c8 .cfa: sp 0 + .ra: lr
STACK CFI e9978 .cfa: sp 4 +
STACK CFI e9990 r4: .cfa -4 + ^
STACK CFI INIT e9b38 61c .cfa: sp 0 + .ra: lr
STACK CFI e9b3c .cfa: sp 36 +
STACK CFI e9b40 .ra: .cfa -4 + ^ r10: .cfa -12 + ^ r11: .cfa -8 + ^ r4: .cfa -36 + ^ r5: .cfa -32 + ^ r6: .cfa -28 + ^ r7: .cfa -24 + ^ r8: .cfa -20 + ^ r9: .cfa -16 + ^
STACK CFI e9b48 .cfa: sp 72 +
STACK CFI INIT ea154 3c .cfa: sp 0 + .ra: lr
STACK CFI ea158 .cfa: sp 8 +
STACK CFI ea15c .ra: .cfa -4 + ^ r4: .cfa -8 + ^
STACK CFI INIT ea190 124 .cfa: sp 0 + .ra: lr
STACK CFI ea194 .cfa: sp 24 +
STACK CFI ea198 .ra: .cfa -4 + ^ r4: .cfa -24 + ^ r5: .cfa -20 + ^ r6: .cfa -16 + ^ r7: .cfa -12 + ^ r8: .cfa -8 + ^
STACK CFI ea1a8 .cfa: sp 32 +
STACK CFI INIT ea2b4 30 .cfa: sp 0 + .ra: lr
STACK CFI ea2b8 .cfa: sp 8 +
STACK CFI ea2bc .ra: .cfa -4 + ^ r4: .cfa -8 + ^
STACK CFI INIT ea2e4 c8 .cfa: sp 0 + .ra: lr
STACK CFI ea2ec .cfa: sp 24 +
STACK CFI ea2f0 .ra: .cfa -4 + ^ r3: .cfa -24 + ^ r4: .cfa -20 + ^ r5: .cfa -16 + ^ r6: .cfa -12 + ^ r7: .cfa -8 + ^
STACK CFI INIT ea3ac 70 .cfa: sp 0 + .ra: lr
STACK CFI ea3b0 .cfa: sp 16 +
STACK CFI ea3b4 .ra: .cfa -4 + ^ r3: .cfa -16 + ^ r4: .cfa -12 + ^ r5: .cfa -8 + ^
STACK CFI INIT ea41c 30 .cfa: sp 0 + .ra: lr
STACK CFI ea420 .cfa: sp 16 +
STACK CFI ea424 .ra: .cfa -4 + ^ r3: .cfa -16 + ^ r4: .cfa -12 + ^ r5: .cfa -8 + ^
STACK CFI INIT ea44c 190 .cfa: sp 0 + .ra: lr
STACK CFI ea450 .cfa: sp 24 +
STACK CFI ea454 .ra: .cfa -4 + ^ r4: .cfa -24 + ^ r5: .cfa -20 + ^ r6: .cfa -16 + ^ r7: .cfa -12 + ^ r8: .cfa -8 + ^
STACK CFI INIT ea5dc 364 .cfa: sp 0 + .ra: lr
STACK CFI ea5e0 .cfa: sp 36 +
STACK CFI ea5ec .ra: .cfa -4 + ^ r10: .cfa -12 + ^ r11: .cfa -8 + ^ r4: .cfa -36 + ^ r5: .cfa -32 + ^ r6: .cfa -28 + ^ r7: .cfa -24 + ^ r8: .cfa -20 + ^ r9: .cfa -16 + ^
STACK CFI ea5f4 .cfa: sp 56 +
STACK CFI INIT ea940 234 .cfa: sp 0 + .ra: lr
STACK CFI ea94c .cfa: sp 32 +
STACK CFI ea950 .ra: .cfa -4 + ^ r10: .cfa -8 + ^ r4: .cfa -32 + ^ r5: .cfa -28 + ^ r6: .cfa -24 + ^ r7: .cfa -20 + ^ r8: .cfa -16 + ^ r9: .cfa -12 + ^
STACK CFI INIT eab74 510 .cfa: sp 0 + .ra: lr
STACK CFI eab78 .cfa: sp 36 +
STACK CFI eab84 .ra: .cfa -4 + ^ r10: .cfa -12 + ^ r11: .cfa -8 + ^ r4: .cfa -36 + ^ r5: .cfa -32 + ^ r6: .cfa -28 + ^ r7: .cfa -24 + ^ r8: .cfa -20 + ^ r9: .cfa -16 + ^
STACK CFI eab8c .cfa: sp 72 +
STACK CFI INIT eb084 6c .cfa: sp 0 + .ra: lr
STACK CFI INIT eb0f0 2c .cfa: sp 0 + .ra: lr
STACK CFI INIT eb11c 28 .cfa: sp 0 + .ra: lr
STACK CFI INIT eb144 24 .cfa: sp 0 + .ra: lr
STACK CFI INIT eb168 24 .cfa: sp 0 + .ra: lr
STACK CFI INIT eb18c 4 .cfa: sp 0 + .ra: lr
STACK CFI INIT eb190 4 .cfa: sp 0 + .ra: lr
STACK CFI INIT eb194 60 .cfa: sp 0 + .ra: lr
STACK CFI eb198 .cfa: sp 16 +
STACK CFI eb19c .ra: .cfa -4 + ^ r4: .cfa -16 + ^ r5: .cfa -12 + ^ r6: .cfa -8 + ^
STACK CFI INIT eb1f4 c0 .cfa: sp 0 + .ra: lr
STACK CFI eb1f8 .cfa: sp 16 +
STACK CFI eb1fc .ra: .cfa -4 + ^ r4: .cfa -16 + ^ r5: .cfa -12 + ^ r6: .cfa -8 + ^
STACK CFI INIT eb2b4 c0 .cfa: sp 0 + .ra: lr
STACK CFI eb2b8 .cfa: sp 16 +
STACK CFI eb2bc .ra: .cfa -4 + ^ r4: .cfa -16 + ^ r5: .cfa -12 + ^ r6: .cfa -8 + ^
STACK CFI INIT eb374 2ec .cfa: sp 0 + .ra: lr
STACK CFI eb378 .cfa: sp 32 +
STACK CFI eb37c .ra: .cfa -4 + ^ r10: .cfa -8 + ^ r3: .cfa -32 + ^ r4: .cfa -28 + ^ r5: .cfa -24 + ^ r6: .cfa -20 + ^ r7: .cfa -16 + ^ r8: .cfa -12 + ^
STACK CFI INIT eb660 374 .cfa: sp 0 + .ra: lr
STACK CFI eb664 .cfa: sp 32 +
STACK CFI eb668 .ra: .cfa -4 + ^ r10: .cfa -8 + ^ r3: .cfa -32 + ^ r4: .cfa -28 + ^ r5: .cfa -24 + ^ r6: .cfa -20 + ^ r7: .cfa -16 + ^ r8: .cfa -12 + ^
STACK CFI INIT eb9d4 68 .cfa: sp 0 + .ra: lr
STACK CFI eb9d8 .cfa: sp 16 +
STACK CFI eb9dc .ra: .cfa -4 + ^ r4: .cfa -16 + ^ r5: .cfa -12 + ^ r6: .cfa -8 + ^
STACK CFI INIT eba3c b0 .cfa: sp 0 + .ra: lr
STACK CFI eba40 .cfa: sp 12 +
STACK CFI eba44 .ra: .cfa -4 + ^ r4: .cfa -12 + ^ r5: .cfa -8 + ^
STACK CFI eba48 .cfa: sp 40 +
STACK CFI INIT ebaec b4 .cfa: sp 0 + .ra: lr
STACK CFI ebaf0 .cfa: sp 12 +
STACK CFI ebaf4 .ra: .cfa -4 + ^ r4: .cfa -12 + ^ r5: .cfa -8 + ^
STACK CFI ebaf8 .cfa: sp 40 +
STACK CFI INIT ebba0 118 .cfa: sp 0 + .ra: lr
STACK CFI ebba4 .cfa: sp 24 +
STACK CFI ebba8 .ra: .cfa -4 + ^ r4: .cfa -24 + ^ r5: .cfa -20 + ^ r6: .cfa -16 + ^ r7: .cfa -12 + ^ r8: .cfa -8 + ^
STACK CFI ebbac .cfa: sp 80 +
STACK CFI INIT ebcb8 a0 .cfa: sp 0 + .ra: lr
STACK CFI ebcbc .cfa: sp 20 +
STACK CFI ebcc4 .cfa: sp 80 +
STACK CFI ebcc8 .ra: .cfa -4 + ^ r4: .cfa -20 + ^ r5: .cfa -16 + ^ r6: .cfa -12 + ^ r7: .cfa -8 + ^
STACK CFI INIT ebd58 a0 .cfa: sp 0 + .ra: lr
STACK CFI ebd5c .cfa: sp 20 +
STACK CFI ebd64 .cfa: sp 80 +
STACK CFI ebd68 .ra: .cfa -4 + ^ r4: .cfa -20 + ^ r5: .cfa -16 + ^ r6: .cfa -12 + ^ r7: .cfa -8 + ^
STACK CFI INIT ebdf8 ecc .cfa: sp 0 + .ra: lr
STACK CFI ebdfc .cfa: sp 36 +
STACK CFI ebe00 .ra: .cfa -4 + ^ r10: .cfa -12 + ^ r11: .cfa -8 + ^ r4: .cfa -36 + ^ r5: .cfa -32 + ^ r6: .cfa -28 + ^ r7: .cfa -24 + ^ r8: .cfa -20 + ^ r9: .cfa -16 + ^
STACK CFI ebe04 .cfa: sp 168 +
STACK CFI INIT eccc4 a48 .cfa: sp 0 + .ra: lr
STACK CFI ecccc .cfa: sp 36 +
STACK CFI eccd0 .ra: .cfa -4 + ^ r10: .cfa -12 + ^ r11: .cfa -8 + ^ r4: .cfa -36 + ^ r5: .cfa -32 + ^ r6: .cfa -28 + ^ r7: .cfa -24 + ^ r8: .cfa -20 + ^ r9: .cfa -16 + ^
STACK CFI eccdc .cfa: sp 64 +
STACK CFI INIT ed70c 908 .cfa: sp 0 + .ra: lr
STACK CFI ed710 .cfa: sp 36 +
STACK CFI ed71c .ra: .cfa -4 + ^ r10: .cfa -12 + ^ r11: .cfa -8 + ^ r4: .cfa -36 + ^ r5: .cfa -32 + ^ r6: .cfa -28 + ^ r7: .cfa -24 + ^ r8: .cfa -20 + ^ r9: .cfa -16 + ^
STACK CFI ed724 .cfa: sp 136 +
STACK CFI INIT ee014 f8 .cfa: sp 0 + .ra: lr
STACK CFI ee018 .cfa: sp 16 +
STACK CFI ee01c .ra: .cfa -4 + ^ r3: .cfa -16 + ^ r4: .cfa -12 + ^ r5: .cfa -8 + ^
STACK CFI INIT ee10c 1a0 .cfa: sp 0 + .ra: lr
STACK CFI ee110 .cfa: sp 16 +
STACK CFI ee114 .ra: .cfa -4 + ^ r4: .cfa -16 + ^ r5: .cfa -12 + ^ r6: .cfa -8 + ^
STACK CFI INIT ee2ac 10 .cfa: sp 0 + .ra: lr
STACK CFI INIT ee2bc 80 .cfa: sp 0 + .ra: lr
STACK CFI ee2c0 .cfa: sp 24 +
STACK CFI ee2c4 .ra: .cfa -4 + ^ r3: .cfa -24 + ^ r4: .cfa -20 + ^ r5: .cfa -16 + ^ r6: .cfa -12 + ^ r7: .cfa -8 + ^
STACK CFI INIT ee33c 234 .cfa: sp 0 + .ra: lr
STACK CFI ee340 .cfa: sp 36 +
STACK CFI ee344 .ra: .cfa -4 + ^ r10: .cfa -12 + ^ r11: .cfa -8 + ^ r4: .cfa -36 + ^ r5: .cfa -32 + ^ r6: .cfa -28 + ^ r7: .cfa -24 + ^ r8: .cfa -20 + ^ r9: .cfa -16 + ^
STACK CFI ee350 .cfa: sp 48 +
STACK CFI INIT ee570 d0 .cfa: sp 0 + .ra: lr
STACK CFI ee574 .cfa: sp 32 +
STACK CFI ee578 .ra: .cfa -4 + ^ r10: .cfa -8 + ^ r3: .cfa -32 + ^ r4: .cfa -28 + ^ r5: .cfa -24 + ^ r6: .cfa -20 + ^ r7: .cfa -16 + ^ r8: .cfa -12 + ^
STACK CFI INIT ee640 100 .cfa: sp 0 + .ra: lr
STACK CFI ee644 .cfa: sp 24 +
STACK CFI ee648 .ra: .cfa -4 + ^ r4: .cfa -24 + ^ r5: .cfa -20 + ^ r6: .cfa -16 + ^ r7: .cfa -12 + ^ r8: .cfa -8 + ^
STACK CFI ee64c .cfa: sp 80 +
STACK CFI INIT ee740 198 .cfa: sp 0 + .ra: lr
STACK CFI ee744 .cfa: sp 20 +
STACK CFI ee748 .ra: .cfa -4 + ^ r4: .cfa -20 + ^ r5: .cfa -16 + ^ r6: .cfa -12 + ^ r7: .cfa -8 + ^
STACK CFI ee74c .cfa: sp 32 +
STACK CFI INIT ee8d8 1c4 .cfa: sp 0 + .ra: lr
STACK CFI ee8dc .cfa: sp 36 +
STACK CFI ee8e0 .ra: .cfa -4 + ^ r10: .cfa -12 + ^ r11: .cfa -8 + ^ r4: .cfa -36 + ^ r5: .cfa -32 + ^ r6: .cfa -28 + ^ r7: .cfa -24 + ^ r8: .cfa -20 + ^ r9: .cfa -16 + ^
STACK CFI ee8e4 .cfa: sp 72 +
STACK CFI INIT eea9c d4 .cfa: sp 0 + .ra: lr
STACK CFI eeaa0 .cfa: sp 20 +
STACK CFI eeaa4 .ra: .cfa -4 + ^ r4: .cfa -20 + ^ r5: .cfa -16 + ^ r6: .cfa -12 + ^ r7: .cfa -8 + ^
STACK CFI eeaa8 .cfa: sp 32 +
STACK CFI INIT eeb70 f8 .cfa: sp 0 + .ra: lr
STACK CFI eeb74 .cfa: sp 20 +
STACK CFI eeb78 .ra: .cfa -4 + ^ r4: .cfa -20 + ^ r5: .cfa -16 + ^ r6: .cfa -12 + ^ r7: .cfa -8 + ^
STACK CFI eeb7c .cfa: sp 32 +
STACK CFI INIT eec68 194 .cfa: sp 0 + .ra: lr
STACK CFI eec6c .cfa: sp 20 +
STACK CFI eec70 .ra: .cfa -4 + ^ r4: .cfa -20 + ^ r5: .cfa -16 + ^ r6: .cfa -12 + ^ r7: .cfa -8 + ^
STACK CFI eec74 .cfa: sp 80 +
STACK CFI INIT eedfc 15c .cfa: sp 0 + .ra: lr
STACK CFI eee00 .cfa: sp 20 +
STACK CFI eee04 .ra: .cfa -4 + ^ r4: .cfa -20 + ^ r5: .cfa -16 + ^ r6: .cfa -12 + ^ r7: .cfa -8 + ^
STACK CFI eee08 .cfa: sp 32 +
STACK CFI INIT eef58 8 .cfa: sp 0 + .ra: lr
STACK CFI INIT eef60 18 .cfa: sp 0 + .ra: lr
STACK CFI INIT eef78 18 .cfa: sp 0 + .ra: lr
STACK CFI INIT eef90 18 .cfa: sp 0 + .ra: lr
STACK CFI INIT eefa8 28 .cfa: sp 0 + .ra: lr
STACK CFI INIT eefd0 208 .cfa: sp 0 + .ra: lr
STACK CFI INIT ef1d8 238 .cfa: sp 0 + .ra: lr
STACK CFI INIT ef410 1b4 .cfa: sp 0 + .ra: lr
STACK CFI ef414 .cfa: sp 8 + .ra: .cfa -4 + ^ r3: .cfa -8 + ^
STACK CFI INIT ef5c4 134 .cfa: sp 0 + .ra: lr
STACK CFI INIT ef6f8 13c .cfa: sp 0 + .ra: lr
STACK CFI ef6fc .cfa: sp 8 + .ra: .cfa -4 + ^ r3: .cfa -8 + ^
STACK CFI INIT ef834 164 .cfa: sp 0 + .ra: lr
STACK CFI INIT ef998 16c .cfa: sp 0 + .ra: lr
STACK CFI ef99c .cfa: sp 8 + .ra: .cfa -4 + ^ r3: .cfa -8 + ^
STACK CFI INIT efb04 6c .cfa: sp 0 + .ra: lr
STACK CFI efb08 .cfa: sp 16 + .ra: .cfa -4 + ^ r3: .cfa -16 + ^ r4: .cfa -12 + ^ r5: .cfa -8 + ^
STACK CFI INIT efb70 64 .cfa: sp 0 + .ra: lr
STACK CFI efb74 .cfa: sp 16 + .ra: .cfa -4 + ^ r3: .cfa -16 + ^ r4: .cfa -12 + ^ r5: .cfa -8 + ^
STACK CFI INIT efbd4 b8 .cfa: sp 0 + .ra: lr
STACK CFI efbd8 .cfa: sp 24 +
STACK CFI efbdc .ra: .cfa -4 + ^ r3: .cfa -24 + ^ r4: .cfa -20 + ^ r5: .cfa -16 + ^ r6: .cfa -12 + ^ r7: .cfa -8 + ^
STACK CFI INIT efc8c dc .cfa: sp 0 + .ra: lr
STACK CFI efc94 .cfa: sp 12 +
STACK CFI efc98 .ra: .cfa -4 + ^ r4: .cfa -12 + ^ r5: .cfa -8 + ^
STACK CFI efc9c .cfa: sp 72 +
STACK CFI INIT efd68 e8 .cfa: sp 0 + .ra: lr
STACK CFI efd6c .cfa: sp 28 +
STACK CFI efd70 .ra: .cfa -4 + ^ r10: .cfa -8 + ^ r4: .cfa -28 + ^ r5: .cfa -24 + ^ r6: .cfa -20 + ^ r7: .cfa -16 + ^ r8: .cfa -12 + ^
STACK CFI efd80 .cfa: sp 40 +
STACK CFI INIT efe50 60 .cfa: sp 0 + .ra: lr
STACK CFI efe58 .cfa: sp 16 +
STACK CFI efe5c .ra: .cfa -4 + ^ r3: .cfa -16 + ^ r4: .cfa -12 + ^ r5: .cfa -8 + ^
STACK CFI INIT efeb0 34 .cfa: sp 0 + .ra: lr
STACK CFI INIT efee4 174 .cfa: sp 0 + .ra: lr
STACK CFI efeec .cfa: sp 16 +
STACK CFI efef4 .ra: .cfa -4 + ^ r4: .cfa -16 + ^ r5: .cfa -12 + ^ r6: .cfa -8 + ^
STACK CFI INIT f0058 78 .cfa: sp 0 + .ra: lr
STACK CFI f005c .cfa: sp 8 +
STACK CFI f0064 .cfa: sp 64 +
STACK CFI f0068 .ra: .cfa -4 + ^ r4: .cfa -8 + ^
STACK CFI INIT f00d0 2c .cfa: sp 0 + .ra: lr
STACK CFI f00d4 .cfa: sp 8 +
STACK CFI f00dc .ra: .cfa -4 + ^ r4: .cfa -8 + ^
STACK CFI INIT f00fc 30 .cfa: sp 0 + .ra: lr
STACK CFI f0104 .cfa: sp 8 +
STACK CFI f010c .ra: .cfa -4 + ^ r3: .cfa -8 + ^
STACK CFI INIT f012c 1b4 .cfa: sp 0 + .ra: lr
STACK CFI f0130 .cfa: sp 24 +
STACK CFI f0134 .ra: .cfa -4 + ^ r4: .cfa -24 + ^ r5: .cfa -20 + ^ r6: .cfa -16 + ^ r7: .cfa -12 + ^ r8: .cfa -8 + ^
STACK CFI INIT f02e0 78 .cfa: sp 0 + .ra: lr
STACK CFI f02e4 .cfa: sp 16 +
STACK CFI f02ec .ra: .cfa -4 + ^ r3: .cfa -16 + ^ r4: .cfa -12 + ^ r5: .cfa -8 + ^
STACK CFI INIT f0358 64 .cfa: sp 0 + .ra: lr
STACK CFI f035c .cfa: sp 16 +
STACK CFI f0360 .ra: .cfa -4 + ^ r3: .cfa -16 + ^ r4: .cfa -12 + ^ r5: .cfa -8 + ^
STACK CFI INIT f03bc a8 .cfa: sp 0 + .ra: lr
STACK CFI f03c0 .cfa: sp 16 +
STACK CFI f03c4 .ra: .cfa -4 + ^ r4: .cfa -16 + ^ r5: .cfa -12 + ^ r6: .cfa -8 + ^
STACK CFI INIT f0464 150 .cfa: sp 0 + .ra: lr
STACK CFI f0468 .cfa: sp 20 +
STACK CFI f046c .cfa: sp 160 +
STACK CFI f0474 .ra: .cfa -4 + ^ r4: .cfa -20 + ^ r5: .cfa -16 + ^ r6: .cfa -12 + ^ r7: .cfa -8 + ^
STACK CFI INIT f05b4 120 .cfa: sp 0 + .ra: lr
STACK CFI f05b8 .cfa: sp 24 +
STACK CFI f05bc .ra: .cfa -4 + ^ r4: .cfa -24 + ^ r5: .cfa -20 + ^ r6: .cfa -16 + ^ r7: .cfa -12 + ^ r8: .cfa -8 + ^
STACK CFI f05c0 .cfa: sp 160 +
STACK CFI INIT f06d4 dc .cfa: sp 0 + .ra: lr
STACK CFI f06d8 .cfa: sp 16 +
STACK CFI f06dc .ra: .cfa -4 + ^ r4: .cfa -16 + ^ r5: .cfa -12 + ^ r6: .cfa -8 + ^
STACK CFI INIT f07b0 2fc .cfa: sp 0 + .ra: lr
STACK CFI f07b4 .cfa: sp 32 +
STACK CFI f07b8 .ra: .cfa -4 + ^ r10: .cfa -8 + ^ r4: .cfa -32 + ^ r5: .cfa -28 + ^ r6: .cfa -24 + ^ r7: .cfa -20 + ^ r8: .cfa -16 + ^ r9: .cfa -12 + ^
STACK CFI INIT f0aac d8 .cfa: sp 0 + .ra: lr
STACK CFI f0ab0 .cfa: sp 16 +
STACK CFI f0ab4 .ra: .cfa -4 + ^ r3: .cfa -16 + ^ r4: .cfa -12 + ^ r5: .cfa -8 + ^
STACK CFI INIT f0b84 60 .cfa: sp 0 + .ra: lr
STACK CFI f0b88 .cfa: sp 8 +
STACK CFI f0b8c .ra: .cfa -4 + ^ r4: .cfa -8 + ^
STACK CFI INIT f0be4 100 .cfa: sp 0 + .ra: lr
STACK CFI f0bf0 .cfa: sp 32 +
STACK CFI f0bf4 .ra: .cfa -4 + ^ r10: .cfa -8 + ^ r3: .cfa -32 + ^ r4: .cfa -28 + ^ r5: .cfa -24 + ^ r6: .cfa -20 + ^ r7: .cfa -16 + ^ r8: .cfa -12 + ^
STACK CFI INIT f0ce4 22c .cfa: sp 0 + .ra: lr
STACK CFI f0ce8 .cfa: sp 28 +
STACK CFI f0cec .ra: .cfa -4 + ^ r10: .cfa -8 + ^ r4: .cfa -28 + ^ r5: .cfa -24 + ^ r6: .cfa -20 + ^ r7: .cfa -16 + ^ r8: .cfa -12 + ^
STACK CFI f0cf8 .cfa: sp 56 +
STACK CFI INIT f0f10 54 .cfa: sp 0 + .ra: lr
STACK CFI f0f14 .cfa: sp 16 +
STACK CFI f0f18 .ra: .cfa -4 + ^ r4: .cfa -16 + ^ r5: .cfa -12 + ^ r6: .cfa -8 + ^
STACK CFI INIT f0f64 c4 .cfa: sp 0 + .ra: lr
STACK CFI f0f68 .cfa: sp 32 +
STACK CFI f0f6c .ra: .cfa -4 + ^ r10: .cfa -8 + ^ r4: .cfa -32 + ^ r5: .cfa -28 + ^ r6: .cfa -24 + ^ r7: .cfa -20 + ^ r8: .cfa -16 + ^ r9: .cfa -12 + ^
STACK CFI INIT f1028 158 .cfa: sp 0 + .ra: lr
STACK CFI f102c .cfa: sp 12 +
STACK CFI f1030 .ra: .cfa -4 + ^ r4: .cfa -12 + ^ r5: .cfa -8 + ^
STACK CFI f1034 .cfa: sp 32 +
STACK CFI INIT f1180 284 .cfa: sp 0 + .ra: lr
STACK CFI f118c .cfa: sp 36 +
STACK CFI f1190 .ra: .cfa -4 + ^ r10: .cfa -12 + ^ r11: .cfa -8 + ^ r4: .cfa -36 + ^ r5: .cfa -32 + ^ r6: .cfa -28 + ^ r7: .cfa -24 + ^ r8: .cfa -20 + ^ r9: .cfa -16 + ^
STACK CFI f1194 .cfa: sp 48 +
STACK CFI INIT f1404 200 .cfa: sp 0 + .ra: lr
STACK CFI f1410 .cfa: sp 36 +
STACK CFI f1414 .ra: .cfa -4 + ^ r10: .cfa -12 + ^ r11: .cfa -8 + ^ r4: .cfa -36 + ^ r5: .cfa -32 + ^ r6: .cfa -28 + ^ r7: .cfa -24 + ^ r8: .cfa -20 + ^ r9: .cfa -16 + ^
STACK CFI f1418 .cfa: sp 80 +
STACK CFI INIT f1604 bc .cfa: sp 0 + .ra: lr
STACK CFI f1608 .cfa: sp 24 +
STACK CFI f160c .ra: .cfa -4 + ^ r3: .cfa -24 + ^ r4: .cfa -20 + ^ r5: .cfa -16 + ^ r6: .cfa -12 + ^ r7: .cfa -8 + ^
STACK CFI INIT f16c0 28 .cfa: sp 0 + .ra: lr
STACK CFI f16c4 .cfa: sp 16 +
STACK CFI f16c8 .ra: .cfa -4 + ^ r4: .cfa -16 + ^ r5: .cfa -12 + ^ r6: .cfa -8 + ^
STACK CFI INIT f16e8 e8 .cfa: sp 0 + .ra: lr
STACK CFI f16ec .cfa: sp 24 +
STACK CFI f16f0 .ra: .cfa -4 + ^ r3: .cfa -24 + ^ r4: .cfa -20 + ^ r5: .cfa -16 + ^ r6: .cfa -12 + ^ r7: .cfa -8 + ^
STACK CFI INIT f17d0 6c .cfa: sp 0 + .ra: lr
STACK CFI f17d4 .cfa: sp 16 +
STACK CFI f17d8 .ra: .cfa -4 + ^ r4: .cfa -16 + ^ r5: .cfa -12 + ^ r6: .cfa -8 + ^
STACK CFI INIT f183c 40 .cfa: sp 0 + .ra: lr
STACK CFI f1840 .cfa: sp 12 +
STACK CFI f1844 .cfa: sp 16 +
STACK CFI f1848 .cfa: sp 24 +
STACK CFI f184c .ra: .cfa -16 + ^ r1: .cfa -12 + ^ r2: .cfa -8 + ^ r3: .cfa -4 + ^
STACK CFI INIT f187c 64 .cfa: sp 0 + .ra: lr
STACK CFI f1880 .cfa: sp 16 +
STACK CFI f1884 .ra: .cfa -4 + ^ r4: .cfa -16 + ^ r5: .cfa -12 + ^ r6: .cfa -8 + ^
STACK CFI INIT f18e0 30 .cfa: sp 0 + .ra: lr
STACK CFI f18e4 .cfa: sp 12 +
STACK CFI f18e8 .cfa: sp 16 +
STACK CFI f18ec .cfa: sp 24 +
STACK CFI f18f0 .ra: .cfa -16 + ^ r1: .cfa -12 + ^ r2: .cfa -8 + ^ r3: .cfa -4 + ^
STACK CFI INIT f1910 178 .cfa: sp 0 + .ra: lr
STACK CFI f1914 .cfa: sp 24 +
STACK CFI f1918 .ra: .cfa -4 + ^ r4: .cfa -24 + ^ r5: .cfa -20 + ^ r6: .cfa -16 + ^ r7: .cfa -12 + ^ r8: .cfa -8 + ^
STACK CFI INIT f1a88 198 .cfa: sp 0 + .ra: lr
STACK CFI f1a8c .cfa: sp 24 +
STACK CFI f1a90 .ra: .cfa -4 + ^ r4: .cfa -24 + ^ r5: .cfa -20 + ^ r6: .cfa -16 + ^ r7: .cfa -12 + ^ r8: .cfa -8 + ^
STACK CFI INIT f1c20 200 .cfa: sp 0 + .ra: lr
STACK CFI f1c24 .cfa: sp 32 +
STACK CFI f1c28 .ra: .cfa -4 + ^ r10: .cfa -8 + ^ r4: .cfa -32 + ^ r5: .cfa -28 + ^ r6: .cfa -24 + ^ r7: .cfa -20 + ^ r8: .cfa -16 + ^ r9: .cfa -12 + ^
STACK CFI INIT f1e20 1b0 .cfa: sp 0 + .ra: lr
STACK CFI f1e24 .cfa: sp 24 +
STACK CFI f1e28 .ra: .cfa -4 + ^ r4: .cfa -24 + ^ r5: .cfa -20 + ^ r6: .cfa -16 + ^ r7: .cfa -12 + ^ r8: .cfa -8 + ^
STACK CFI f1e34 .cfa: sp 32 +
STACK CFI INIT f1fd0 188 .cfa: sp 0 + .ra: lr
STACK CFI f1fd4 .cfa: sp 24 +
STACK CFI f1fd8 .ra: .cfa -4 + ^ r3: .cfa -24 + ^ r4: .cfa -20 + ^ r5: .cfa -16 + ^ r6: .cfa -12 + ^ r7: .cfa -8 + ^
STACK CFI INIT f2158 54 .cfa: sp 0 + .ra: lr
STACK CFI f215c .cfa: sp 16 +
STACK CFI f2160 .ra: .cfa -4 + ^ r4: .cfa -16 + ^ r5: .cfa -12 + ^ r6: .cfa -8 + ^
STACK CFI INIT f21ac 80 .cfa: sp 0 + .ra: lr
STACK CFI f21b0 .cfa: sp 16 +
STACK CFI f21b4 .ra: .cfa -4 + ^ r4: .cfa -16 + ^ r5: .cfa -12 + ^ r6: .cfa -8 + ^
STACK CFI INIT f222c 30 .cfa: sp 0 + .ra: lr
STACK CFI f2230 .cfa: sp 12 +
STACK CFI f2234 .cfa: sp 16 +
STACK CFI f2238 .cfa: sp 24 +
STACK CFI f223c .ra: .cfa -16 + ^ r1: .cfa -12 + ^ r2: .cfa -8 + ^ r3: .cfa -4 + ^
STACK CFI INIT f225c 6c .cfa: sp 0 + .ra: lr
STACK CFI f2260 .cfa: sp 24 +
STACK CFI f2264 .ra: .cfa -4 + ^ r3: .cfa -24 + ^ r4: .cfa -20 + ^ r5: .cfa -16 + ^ r6: .cfa -12 + ^ r7: .cfa -8 + ^
STACK CFI INIT f22c8 30 .cfa: sp 0 + .ra: lr
STACK CFI f22cc .cfa: sp 8 +
STACK CFI f22d0 .cfa: sp 12 +
STACK CFI f22d4 .cfa: sp 24 +
STACK CFI f22dc .ra: .cfa -12 + ^ r2: .cfa -8 + ^ r3: .cfa -4 + ^
STACK CFI INIT f22f8 68 .cfa: sp 0 + .ra: lr
STACK CFI f2304 .cfa: sp 16 +
STACK CFI f2308 .ra: .cfa -4 + ^ r4: .cfa -16 + ^ r5: .cfa -12 + ^ r6: .cfa -8 + ^
STACK CFI INIT f2360 84 .cfa: sp 0 + .ra: lr
STACK CFI f2364 .cfa: sp 20 +
STACK CFI f2368 .ra: .cfa -4 + ^ r4: .cfa -20 + ^ r5: .cfa -16 + ^ r6: .cfa -12 + ^ r7: .cfa -8 + ^
STACK CFI f2370 .cfa: sp 40 +
STACK CFI INIT f23e4 28 .cfa: sp 0 + .ra: lr
STACK CFI f23e8 .cfa: sp 4 +
STACK CFI f23ec .cfa: sp 24 +
STACK CFI f23f4 .ra: .cfa -4 + ^
STACK CFI INIT f240c 54 .cfa: sp 0 + .ra: lr
STACK CFI f2410 .cfa: sp 16 +
STACK CFI f2414 .ra: .cfa -4 + ^ r4: .cfa -16 + ^ r5: .cfa -12 + ^ r6: .cfa -8 + ^
STACK CFI INIT f2460 6c .cfa: sp 0 + .ra: lr
STACK CFI f2464 .cfa: sp 24 +
STACK CFI f2468 .ra: .cfa -4 + ^ r3: .cfa -24 + ^ r4: .cfa -20 + ^ r5: .cfa -16 + ^ r6: .cfa -12 + ^ r7: .cfa -8 + ^
STACK CFI INIT f24cc 30 .cfa: sp 0 + .ra: lr
STACK CFI f24d0 .cfa: sp 8 +
STACK CFI f24d4 .cfa: sp 12 +
STACK CFI f24d8 .cfa: sp 24 +
STACK CFI f24e0 .ra: .cfa -12 + ^ r2: .cfa -8 + ^ r3: .cfa -4 + ^
STACK CFI INIT f24fc 68 .cfa: sp 0 + .ra: lr
STACK CFI f2508 .cfa: sp 16 +
STACK CFI f250c .ra: .cfa -4 + ^ r4: .cfa -16 + ^ r5: .cfa -12 + ^ r6: .cfa -8 + ^
STACK CFI INIT f2564 84 .cfa: sp 0 + .ra: lr
STACK CFI f2568 .cfa: sp 20 +
STACK CFI f256c .ra: .cfa -4 + ^ r4: .cfa -20 + ^ r5: .cfa -16 + ^ r6: .cfa -12 + ^ r7: .cfa -8 + ^
STACK CFI f2574 .cfa: sp 40 +
STACK CFI INIT f25e8 28 .cfa: sp 0 + .ra: lr
STACK CFI f25ec .cfa: sp 4 +
STACK CFI f25f0 .cfa: sp 24 +
STACK CFI f25f8 .ra: .cfa -4 + ^
STACK CFI INIT f2610 228 .cfa: sp 0 + .ra: lr
STACK CFI f2614 .cfa: sp 32 +
STACK CFI f2618 .ra: .cfa -4 + ^ r10: .cfa -8 + ^ r4: .cfa -32 + ^ r5: .cfa -28 + ^ r6: .cfa -24 + ^ r7: .cfa -20 + ^ r8: .cfa -16 + ^ r9: .cfa -12 + ^
STACK CFI INIT f2838 a4 .cfa: sp 0 + .ra: lr
STACK CFI f283c .cfa: sp 16 +
STACK CFI f2840 .ra: .cfa -4 + ^ r3: .cfa -16 + ^ r4: .cfa -12 + ^ r5: .cfa -8 + ^
STACK CFI INIT f28dc 54 .cfa: sp 0 + .ra: lr
STACK CFI f28e0 .cfa: sp 16 +
STACK CFI f28e4 .ra: .cfa -4 + ^ r4: .cfa -16 + ^ r5: .cfa -12 + ^ r6: .cfa -8 + ^
STACK CFI INIT f2930 6c .cfa: sp 0 + .ra: lr
STACK CFI f2934 .cfa: sp 24 +
STACK CFI f2938 .ra: .cfa -4 + ^ r3: .cfa -24 + ^ r4: .cfa -20 + ^ r5: .cfa -16 + ^ r6: .cfa -12 + ^ r7: .cfa -8 + ^
STACK CFI INIT f299c 30 .cfa: sp 0 + .ra: lr
STACK CFI f29a0 .cfa: sp 8 +
STACK CFI f29a4 .cfa: sp 12 +
STACK CFI f29a8 .cfa: sp 24 +
STACK CFI f29b0 .ra: .cfa -12 + ^ r2: .cfa -8 + ^ r3: .cfa -4 + ^
STACK CFI INIT f29cc 174 .cfa: sp 0 + .ra: lr
STACK CFI f29d0 .cfa: sp 32 +
STACK CFI f29d4 .ra: .cfa -4 + ^ r10: .cfa -8 + ^ r3: .cfa -32 + ^ r4: .cfa -28 + ^ r5: .cfa -24 + ^ r6: .cfa -20 + ^ r7: .cfa -16 + ^ r8: .cfa -12 + ^
STACK CFI INIT f2b40 70 .cfa: sp 0 + .ra: lr
STACK CFI f2b44 .cfa: sp 16 +
STACK CFI f2b48 .ra: .cfa -4 + ^ r3: .cfa -16 + ^ r4: .cfa -12 + ^ r5: .cfa -8 + ^
STACK CFI INIT f2bb0 54 .cfa: sp 0 + .ra: lr
STACK CFI f2bb4 .cfa: sp 16 +
STACK CFI f2bb8 .ra: .cfa -4 + ^ r4: .cfa -16 + ^ r5: .cfa -12 + ^ r6: .cfa -8 + ^
STACK CFI INIT f2c04 64 .cfa: sp 0 + .ra: lr
STACK CFI f2c08 .cfa: sp 16 +
STACK CFI f2c0c .ra: .cfa -4 + ^ r4: .cfa -16 + ^ r5: .cfa -12 + ^ r6: .cfa -8 + ^
STACK CFI INIT f2c68 30 .cfa: sp 0 + .ra: lr
STACK CFI f2c6c .cfa: sp 12 +
STACK CFI f2c70 .cfa: sp 16 +
STACK CFI f2c74 .cfa: sp 24 +
STACK CFI f2c78 .ra: .cfa -16 + ^ r1: .cfa -12 + ^ r2: .cfa -8 + ^ r3: .cfa -4 + ^
STACK CFI INIT f2c98 3dc .cfa: sp 0 + .ra: lr
STACK CFI f2c9c .cfa: sp 32 +
STACK CFI f2ca0 .ra: .cfa -4 + ^ r10: .cfa -8 + ^ r4: .cfa -32 + ^ r5: .cfa -28 + ^ r6: .cfa -24 + ^ r7: .cfa -20 + ^ r8: .cfa -16 + ^ r9: .cfa -12 + ^
STACK CFI f2cac .cfa: sp 40 +
STACK CFI INIT f3074 1d4 .cfa: sp 0 + .ra: lr
STACK CFI f3078 .cfa: sp 24 +
STACK CFI f307c .ra: .cfa -4 + ^ r4: .cfa -24 + ^ r5: .cfa -20 + ^ r6: .cfa -16 + ^ r7: .cfa -12 + ^ r8: .cfa -8 + ^
STACK CFI INIT f3248 9c .cfa: sp 0 + .ra: lr
STACK CFI f324c .cfa: sp 16 +
STACK CFI f3250 .ra: .cfa -4 + ^ r3: .cfa -16 + ^ r4: .cfa -12 + ^ r5: .cfa -8 + ^
STACK CFI INIT f32e4 5c .cfa: sp 0 + .ra: lr
STACK CFI f32e8 .cfa: sp 16 +
STACK CFI f32ec .ra: .cfa -4 + ^ r4: .cfa -16 + ^ r5: .cfa -12 + ^ r6: .cfa -8 + ^
STACK CFI INIT f3340 6c .cfa: sp 0 + .ra: lr
STACK CFI f3344 .cfa: sp 24 +
STACK CFI f3348 .ra: .cfa -4 + ^ r3: .cfa -24 + ^ r4: .cfa -20 + ^ r5: .cfa -16 + ^ r6: .cfa -12 + ^ r7: .cfa -8 + ^
STACK CFI INIT f33ac 30 .cfa: sp 0 + .ra: lr
STACK CFI f33b0 .cfa: sp 8 +
STACK CFI f33b4 .cfa: sp 12 +
STACK CFI f33b8 .cfa: sp 24 +
STACK CFI f33c0 .ra: .cfa -12 + ^ r2: .cfa -8 + ^ r3: .cfa -4 + ^
STACK CFI INIT f33dc 1d4 .cfa: sp 0 + .ra: lr
STACK CFI f33e0 .cfa: sp 24 +
STACK CFI f33e4 .ra: .cfa -4 + ^ r4: .cfa -24 + ^ r5: .cfa -20 + ^ r6: .cfa -16 + ^ r7: .cfa -12 + ^ r8: .cfa -8 + ^
STACK CFI INIT f35b0 9c .cfa: sp 0 + .ra: lr
STACK CFI f35b4 .cfa: sp 16 +
STACK CFI f35b8 .ra: .cfa -4 + ^ r3: .cfa -16 + ^ r4: .cfa -12 + ^ r5: .cfa -8 + ^
STACK CFI INIT f364c 5c .cfa: sp 0 + .ra: lr
STACK CFI f3650 .cfa: sp 16 +
STACK CFI f3654 .ra: .cfa -4 + ^ r4: .cfa -16 + ^ r5: .cfa -12 + ^ r6: .cfa -8 + ^
STACK CFI INIT f36a8 6c .cfa: sp 0 + .ra: lr
STACK CFI f36ac .cfa: sp 24 +
STACK CFI f36b0 .ra: .cfa -4 + ^ r3: .cfa -24 + ^ r4: .cfa -20 + ^ r5: .cfa -16 + ^ r6: .cfa -12 + ^ r7: .cfa -8 + ^
STACK CFI INIT f3714 30 .cfa: sp 0 + .ra: lr
STACK CFI f3718 .cfa: sp 8 +
STACK CFI f371c .cfa: sp 12 +
STACK CFI f3720 .cfa: sp 24 +
STACK CFI f3728 .ra: .cfa -12 + ^ r2: .cfa -8 + ^ r3: .cfa -4 + ^
STACK CFI INIT f3744 248 .cfa: sp 0 + .ra: lr
STACK CFI f3748 .cfa: sp 24 +
STACK CFI f374c .ra: .cfa -4 + ^ r4: .cfa -24 + ^ r5: .cfa -20 + ^ r6: .cfa -16 + ^ r7: .cfa -12 + ^ r8: .cfa -8 + ^
STACK CFI f3758 .cfa: sp 32 +
STACK CFI INIT f398c d0 .cfa: sp 0 + .ra: lr
STACK CFI f3990 .cfa: sp 16 +
STACK CFI f3994 .ra: .cfa -4 + ^ r3: .cfa -16 + ^ r4: .cfa -12 + ^ r5: .cfa -8 + ^
STACK CFI INIT f3a5c 158 .cfa: sp 0 + .ra: lr
STACK CFI f3a60 .cfa: sp 32 +
STACK CFI f3a64 .ra: .cfa -4 + ^ r10: .cfa -8 + ^ r3: .cfa -32 + ^ r4: .cfa -28 + ^ r5: .cfa -24 + ^ r6: .cfa -20 + ^ r7: .cfa -16 + ^ r8: .cfa -12 + ^
STACK CFI INIT f3bb4 54 .cfa: sp 0 + .ra: lr
STACK CFI f3bb8 .cfa: sp 16 +
STACK CFI f3bbc .ra: .cfa -4 + ^ r4: .cfa -16 + ^ r5: .cfa -12 + ^ r6: .cfa -8 + ^
STACK CFI INIT f3c08 84 .cfa: sp 0 + .ra: lr
STACK CFI f3c0c .cfa: sp 20 +
STACK CFI f3c10 .ra: .cfa -4 + ^ r4: .cfa -20 + ^ r5: .cfa -16 + ^ r6: .cfa -12 + ^ r7: .cfa -8 + ^
STACK CFI f3c18 .cfa: sp 40 +
STACK CFI INIT f3c8c 28 .cfa: sp 0 + .ra: lr
STACK CFI f3c90 .cfa: sp 4 +
STACK CFI f3c94 .cfa: sp 24 +
STACK CFI f3c9c .ra: .cfa -4 + ^
STACK CFI INIT f3cb4 80 .cfa: sp 0 + .ra: lr
STACK CFI f3cbc .cfa: sp 16 +
STACK CFI f3cc0 .ra: .cfa -4 + ^ r4: .cfa -16 + ^ r5: .cfa -12 + ^ r6: .cfa -8 + ^
STACK CFI f3cc4 .cfa: sp 24 +
STACK CFI INIT f3d34 7c .cfa: sp 0 + .ra: lr
STACK CFI f3d38 .cfa: sp 20 +
STACK CFI f3d3c .ra: .cfa -4 + ^ r4: .cfa -20 + ^ r5: .cfa -16 + ^ r6: .cfa -12 + ^ r7: .cfa -8 + ^
STACK CFI f3d44 .cfa: sp 32 +
STACK CFI INIT f3db0 30 .cfa: sp 0 + .ra: lr
STACK CFI f3db4 .cfa: sp 4 +
STACK CFI f3db8 .cfa: sp 8 +
STACK CFI f3dbc .cfa: sp 24 +
STACK CFI f3dc4 .ra: .cfa -8 + ^ r3: .cfa -4 + ^
STACK CFI INIT f3de0 264 .cfa: sp 0 + .ra: lr
STACK CFI f3de4 .cfa: sp 32 +
STACK CFI f3de8 .ra: .cfa -4 + ^ r10: .cfa -8 + ^ r4: .cfa -32 + ^ r5: .cfa -28 + ^ r6: .cfa -24 + ^ r7: .cfa -20 + ^ r8: .cfa -16 + ^ r9: .cfa -12 + ^
STACK CFI INIT f4044 88 .cfa: sp 0 + .ra: lr
STACK CFI f4048 .cfa: sp 20 +
STACK CFI f404c .cfa: sp 32 +
STACK CFI f4050 .ra: .cfa -4 + ^ r4: .cfa -20 + ^ r5: .cfa -16 + ^ r6: .cfa -12 + ^ r7: .cfa -8 + ^
STACK CFI INIT f40cc 74 .cfa: sp 0 + .ra: lr
STACK CFI f40d0 .cfa: sp 12 +
STACK CFI f40d8 r4: .cfa -12 + ^ r5: .cfa -8 + ^ r6: .cfa -4 + ^
STACK CFI INIT f4140 2b4 .cfa: sp 0 + .ra: lr
STACK CFI f414c .cfa: sp 32 +
STACK CFI f4150 .ra: .cfa -4 + ^ r10: .cfa -8 + ^ r4: .cfa -32 + ^ r5: .cfa -28 + ^ r6: .cfa -24 + ^ r7: .cfa -20 + ^ r8: .cfa -16 + ^ r9: .cfa -12 + ^
STACK CFI f4154 .cfa: sp 40 +
STACK CFI INIT f43f4 20 .cfa: sp 0 + .ra: lr
STACK CFI INIT f4414 164 .cfa: sp 0 + .ra: lr
STACK CFI f4418 .cfa: sp 16 +
STACK CFI f441c .ra: .cfa -4 + ^ r3: .cfa -16 + ^ r4: .cfa -12 + ^ r5: .cfa -8 + ^
STACK CFI INIT f4578 24 .cfa: sp 0 + .ra: lr
STACK CFI INIT f459c 74 .cfa: sp 0 + .ra: lr
STACK CFI f45ac .cfa: sp 8 +
STACK CFI f45b4 .ra: .cfa -4 + ^ r4: .cfa -8 + ^
STACK CFI f45b8 .cfa: sp 16 +
STACK CFI INIT f4610 4c .cfa: sp 0 + .ra: lr
STACK CFI f4614 .cfa: sp 16 +
STACK CFI f4618 .ra: .cfa -4 + ^ r3: .cfa -16 + ^ r4: .cfa -12 + ^ r5: .cfa -8 + ^
STACK CFI INIT f465c 4 .cfa: sp 0 + .ra: lr
STACK CFI INIT f4660 4 .cfa: sp 0 + .ra: lr
STACK CFI INIT f4664 c0 .cfa: sp 0 + .ra: lr
STACK CFI f4670 .cfa: sp 12 +
STACK CFI f4674 r4: .cfa -12 + ^ r5: .cfa -8 + ^ r6: .cfa -4 + ^
STACK CFI INIT f4724 798 .cfa: sp 0 + .ra: lr
STACK CFI f4730 .cfa: sp 12 +
STACK CFI f4734 .ra: .cfa -4 + ^ r4: .cfa -12 + ^ r5: .cfa -8 + ^
STACK CFI f4738 .cfa: sp 24 +
STACK CFI INIT f4ebc 800 .cfa: sp 0 + .ra: lr
STACK CFI f4ec8 .cfa: sp 12 +
STACK CFI f4ecc .ra: .cfa -4 + ^ r4: .cfa -12 + ^ r5: .cfa -8 + ^
STACK CFI f4ed0 .cfa: sp 24 +
STACK CFI INIT f56bc 4c .cfa: sp 0 + .ra: lr
STACK CFI f56c0 .cfa: sp 16 +
STACK CFI f56c4 .ra: .cfa -4 + ^ r3: .cfa -16 + ^ r4: .cfa -12 + ^ r5: .cfa -8 + ^
STACK CFI INIT f5708 4c .cfa: sp 0 + .ra: lr
STACK CFI f570c .cfa: sp 16 +
STACK CFI f5710 .ra: .cfa -4 + ^ r3: .cfa -16 + ^ r4: .cfa -12 + ^ r5: .cfa -8 + ^
STACK CFI INIT f5754 4c .cfa: sp 0 + .ra: lr
STACK CFI f5758 .cfa: sp 16 +
STACK CFI f575c .ra: .cfa -4 + ^ r3: .cfa -16 + ^ r4: .cfa -12 + ^ r5: .cfa -8 + ^
STACK CFI INIT f57a0 4c .cfa: sp 0 + .ra: lr
STACK CFI f57a4 .cfa: sp 16 +
STACK CFI f57a8 .ra: .cfa -4 + ^ r3: .cfa -16 + ^ r4: .cfa -12 + ^ r5: .cfa -8 + ^
STACK CFI INIT f57ec 4c .cfa: sp 0 + .ra: lr
STACK CFI f57f0 .cfa: sp 16 +
STACK CFI f57f4 .ra: .cfa -4 + ^ r3: .cfa -16 + ^ r4: .cfa -12 + ^ r5: .cfa -8 + ^
STACK CFI INIT f5838 48 .cfa: sp 0 + .ra: lr
STACK CFI f583c .cfa: sp 16 +
STACK CFI f5840 .ra: .cfa -4 + ^ r3: .cfa -16 + ^ r4: .cfa -12 + ^ r5: .cfa -8 + ^
STACK CFI INIT f5880 4c .cfa: sp 0 + .ra: lr
STACK CFI f5884 .cfa: sp 16 +
STACK CFI f5888 .ra: .cfa -4 + ^ r3: .cfa -16 + ^ r4: .cfa -12 + ^ r5: .cfa -8 + ^
STACK CFI INIT f58cc 48 .cfa: sp 0 + .ra: lr
STACK CFI f58d0 .cfa: sp 16 +
STACK CFI f58d4 .ra: .cfa -4 + ^ r3: .cfa -16 + ^ r4: .cfa -12 + ^ r5: .cfa -8 + ^
STACK CFI INIT f5914 48 .cfa: sp 0 + .ra: lr
STACK CFI f5918 .cfa: sp 16 +
STACK CFI f591c .ra: .cfa -4 + ^ r3: .cfa -16 + ^ r4: .cfa -12 + ^ r5: .cfa -8 + ^
STACK CFI INIT f595c 4c .cfa: sp 0 + .ra: lr
STACK CFI f5960 .cfa: sp 16 +
STACK CFI f5964 .ra: .cfa -4 + ^ r3: .cfa -16 + ^ r4: .cfa -12 + ^ r5: .cfa -8 + ^
STACK CFI INIT f59a8 48 .cfa: sp 0 + .ra: lr
STACK CFI f59ac .cfa: sp 16 +
STACK CFI f59b0 .ra: .cfa -4 + ^ r3: .cfa -16 + ^ r4: .cfa -12 + ^ r5: .cfa -8 + ^
STACK CFI INIT f59f0 6c .cfa: sp 0 + .ra: lr
STACK CFI f59f4 .cfa: sp 16 +
STACK CFI f59f8 .ra: .cfa -4 + ^ r3: .cfa -16 + ^ r4: .cfa -12 + ^ r5: .cfa -8 + ^
STACK CFI INIT f5a5c 70 .cfa: sp 0 + .ra: lr
STACK CFI f5a60 .cfa: sp 16 +
STACK CFI f5a64 .ra: .cfa -4 + ^ r4: .cfa -16 + ^ r5: .cfa -12 + ^ r6: .cfa -8 + ^
STACK CFI INIT f5acc 70 .cfa: sp 0 + .ra: lr
STACK CFI f5ad0 .cfa: sp 16 +
STACK CFI f5ad4 .ra: .cfa -4 + ^ r4: .cfa -16 + ^ r5: .cfa -12 + ^ r6: .cfa -8 + ^
STACK CFI INIT f5b3c 70 .cfa: sp 0 + .ra: lr
STACK CFI f5b40 .cfa: sp 16 +
STACK CFI f5b44 .ra: .cfa -4 + ^ r4: .cfa -16 + ^ r5: .cfa -12 + ^ r6: .cfa -8 + ^
STACK CFI INIT f5bac 70 .cfa: sp 0 + .ra: lr
STACK CFI f5bb0 .cfa: sp 16 +
STACK CFI f5bb4 .ra: .cfa -4 + ^ r4: .cfa -16 + ^ r5: .cfa -12 + ^ r6: .cfa -8 + ^
STACK CFI INIT f5c1c 70 .cfa: sp 0 + .ra: lr
STACK CFI f5c20 .cfa: sp 16 +
STACK CFI f5c24 .ra: .cfa -4 + ^ r4: .cfa -16 + ^ r5: .cfa -12 + ^ r6: .cfa -8 + ^
STACK CFI INIT f5c8c 70 .cfa: sp 0 + .ra: lr
STACK CFI f5c90 .cfa: sp 16 +
STACK CFI f5c94 .ra: .cfa -4 + ^ r4: .cfa -16 + ^ r5: .cfa -12 + ^ r6: .cfa -8 + ^
STACK CFI INIT f5cfc 70 .cfa: sp 0 + .ra: lr
STACK CFI f5d00 .cfa: sp 16 +
STACK CFI f5d04 .ra: .cfa -4 + ^ r4: .cfa -16 + ^ r5: .cfa -12 + ^ r6: .cfa -8 + ^
STACK CFI INIT f5d6c 90 .cfa: sp 0 + .ra: lr
STACK CFI f5d70 .cfa: sp 24 +
STACK CFI f5d74 .ra: .cfa -4 + ^ r4: .cfa -24 + ^ r5: .cfa -20 + ^ r6: .cfa -16 + ^ r7: .cfa -12 + ^ r8: .cfa -8 + ^
STACK CFI f5d78 .cfa: sp 32 +
STACK CFI INIT f5dfc 90 .cfa: sp 0 + .ra: lr
STACK CFI f5e00 .cfa: sp 24 +
STACK CFI f5e04 .ra: .cfa -4 + ^ r4: .cfa -24 + ^ r5: .cfa -20 + ^ r6: .cfa -16 + ^ r7: .cfa -12 + ^ r8: .cfa -8 + ^
STACK CFI f5e08 .cfa: sp 32 +
STACK CFI INIT f5e8c 80 .cfa: sp 0 + .ra: lr
STACK CFI f5e90 .cfa: sp 24 +
STACK CFI f5e94 .ra: .cfa -4 + ^ r4: .cfa -24 + ^ r5: .cfa -20 + ^ r6: .cfa -16 + ^ r7: .cfa -12 + ^ r8: .cfa -8 + ^
STACK CFI INIT f5f0c 78 .cfa: sp 0 + .ra: lr
STACK CFI f5f10 .cfa: sp 24 +
STACK CFI f5f14 .ra: .cfa -4 + ^ r4: .cfa -24 + ^ r5: .cfa -20 + ^ r6: .cfa -16 + ^ r7: .cfa -12 + ^ r8: .cfa -8 + ^
STACK CFI INIT f5f84 78 .cfa: sp 0 + .ra: lr
STACK CFI f5f88 .cfa: sp 24 +
STACK CFI f5f8c .ra: .cfa -4 + ^ r4: .cfa -24 + ^ r5: .cfa -20 + ^ r6: .cfa -16 + ^ r7: .cfa -12 + ^ r8: .cfa -8 + ^
STACK CFI INIT f5ffc a0 .cfa: sp 0 + .ra: lr
STACK CFI f6000 .cfa: sp 32 +
STACK CFI f6004 .ra: .cfa -4 + ^ r10: .cfa -8 + ^ r4: .cfa -32 + ^ r5: .cfa -28 + ^ r6: .cfa -24 + ^ r7: .cfa -20 + ^ r8: .cfa -16 + ^ r9: .cfa -12 + ^
STACK CFI f6008 .cfa: sp 40 +
STACK CFI INIT f609c a8 .cfa: sp 0 + .ra: lr
STACK CFI f60a0 .cfa: sp 36 +
STACK CFI f60a4 .ra: .cfa -4 + ^ r10: .cfa -12 + ^ r11: .cfa -8 + ^ r4: .cfa -36 + ^ r5: .cfa -32 + ^ r6: .cfa -28 + ^ r7: .cfa -24 + ^ r8: .cfa -20 + ^ r9: .cfa -16 + ^
STACK CFI f60a8 .cfa: sp 48 +
STACK CFI INIT f6144 90 .cfa: sp 0 + .ra: lr
STACK CFI f6148 .cfa: sp 24 +
STACK CFI f614c .ra: .cfa -4 + ^ r4: .cfa -24 + ^ r5: .cfa -20 + ^ r6: .cfa -16 + ^ r7: .cfa -12 + ^ r8: .cfa -8 + ^
STACK CFI f6150 .cfa: sp 32 +
STACK CFI INIT f61d4 90 .cfa: sp 0 + .ra: lr
STACK CFI f61d8 .cfa: sp 24 +
STACK CFI f61dc .ra: .cfa -4 + ^ r4: .cfa -24 + ^ r5: .cfa -20 + ^ r6: .cfa -16 + ^ r7: .cfa -12 + ^ r8: .cfa -8 + ^
STACK CFI f61e0 .cfa: sp 32 +
STACK CFI INIT f6264 98 .cfa: sp 0 + .ra: lr
STACK CFI f6268 .cfa: sp 28 +
STACK CFI f626c .ra: .cfa -4 + ^ r10: .cfa -8 + ^ r4: .cfa -28 + ^ r5: .cfa -24 + ^ r6: .cfa -20 + ^ r7: .cfa -16 + ^ r8: .cfa -12 + ^
STACK CFI f6270 .cfa: sp 40 +
STACK CFI INIT f62fc 64 .cfa: sp 0 + .ra: lr
STACK CFI f6300 .cfa: sp 16 +
STACK CFI f6304 .ra: .cfa -4 + ^ r3: .cfa -16 + ^ r4: .cfa -12 + ^ r5: .cfa -8 + ^
STACK CFI INIT f6360 4 .cfa: sp 0 + .ra: lr
STACK CFI INIT f6364 70 .cfa: sp 0 + .ra: lr
STACK CFI f6368 .cfa: sp 16 +
STACK CFI f636c .ra: .cfa -4 + ^ r4: .cfa -16 + ^ r5: .cfa -12 + ^ r6: .cfa -8 + ^
STACK CFI INIT f63d4 64 .cfa: sp 0 + .ra: lr
STACK CFI f63d8 .cfa: sp 16 +
STACK CFI f63dc .ra: .cfa -4 + ^ r3: .cfa -16 + ^ r4: .cfa -12 + ^ r5: .cfa -8 + ^
STACK CFI INIT f6438 4 .cfa: sp 0 + .ra: lr
STACK CFI INIT f643c 78 .cfa: sp 0 + .ra: lr
STACK CFI f6440 .cfa: sp 24 +
STACK CFI f6444 .ra: .cfa -4 + ^ r4: .cfa -24 + ^ r5: .cfa -20 + ^ r6: .cfa -16 + ^ r7: .cfa -12 + ^ r8: .cfa -8 + ^
STACK CFI INIT f64b4 78 .cfa: sp 0 + .ra: lr
STACK CFI f64b8 .cfa: sp 24 +
STACK CFI f64bc .ra: .cfa -4 + ^ r4: .cfa -24 + ^ r5: .cfa -20 + ^ r6: .cfa -16 + ^ r7: .cfa -12 + ^ r8: .cfa -8 + ^
STACK CFI INIT f652c 80 .cfa: sp 0 + .ra: lr
STACK CFI f6530 .cfa: sp 24 +
STACK CFI f6534 .ra: .cfa -4 + ^ r4: .cfa -24 + ^ r5: .cfa -20 + ^ r6: .cfa -16 + ^ r7: .cfa -12 + ^ r8: .cfa -8 + ^
STACK CFI INIT f65ac 64 .cfa: sp 0 + .ra: lr
STACK CFI f65b0 .cfa: sp 16 +
STACK CFI f65b4 .ra: .cfa -4 + ^ r3: .cfa -16 + ^ r4: .cfa -12 + ^ r5: .cfa -8 + ^
STACK CFI INIT f6610 80 .cfa: sp 0 + .ra: lr
STACK CFI f6614 .cfa: sp 24 +
STACK CFI f6618 .ra: .cfa -4 + ^ r4: .cfa -24 + ^ r5: .cfa -20 + ^ r6: .cfa -16 + ^ r7: .cfa -12 + ^ r8: .cfa -8 + ^
STACK CFI INIT f6690 64 .cfa: sp 0 + .ra: lr
STACK CFI f6694 .cfa: sp 16 +
STACK CFI f6698 .ra: .cfa -4 + ^ r3: .cfa -16 + ^ r4: .cfa -12 + ^ r5: .cfa -8 + ^
STACK CFI INIT f66f4 64 .cfa: sp 0 + .ra: lr
STACK CFI f66f8 .cfa: sp 16 +
STACK CFI f66fc .ra: .cfa -4 + ^ r3: .cfa -16 + ^ r4: .cfa -12 + ^ r5: .cfa -8 + ^
STACK CFI INIT f6758 68 .cfa: sp 0 + .ra: lr
STACK CFI f675c .cfa: sp 16 +
STACK CFI f6760 .ra: .cfa -4 + ^ r3: .cfa -16 + ^ r4: .cfa -12 + ^ r5: .cfa -8 + ^
STACK CFI INIT f67c0 68 .cfa: sp 0 + .ra: lr
STACK CFI f67c4 .cfa: sp 16 +
STACK CFI f67c8 .ra: .cfa -4 + ^ r3: .cfa -16 + ^ r4: .cfa -12 + ^ r5: .cfa -8 + ^
STACK CFI INIT f6828 64 .cfa: sp 0 + .ra: lr
STACK CFI f682c .cfa: sp 16 +
STACK CFI f6830 .ra: .cfa -4 + ^ r3: .cfa -16 + ^ r4: .cfa -12 + ^ r5: .cfa -8 + ^
STACK CFI INIT f688c 78 .cfa: sp 0 + .ra: lr
STACK CFI f6890 .cfa: sp 24 +
STACK CFI f6894 .ra: .cfa -4 + ^ r4: .cfa -24 + ^ r5: .cfa -20 + ^ r6: .cfa -16 + ^ r7: .cfa -12 + ^ r8: .cfa -8 + ^
STACK CFI INIT f6904 80 .cfa: sp 0 + .ra: lr
STACK CFI f6908 .cfa: sp 24 +
STACK CFI f690c .ra: .cfa -4 + ^ r4: .cfa -24 + ^ r5: .cfa -20 + ^ r6: .cfa -16 + ^ r7: .cfa -12 + ^ r8: .cfa -8 + ^
STACK CFI INIT f6984 f0 .cfa: sp 0 + .ra: lr
STACK CFI f698c .cfa: sp 8 +
STACK CFI f6994 r4: .cfa -8 + ^ r5: .cfa -4 + ^
STACK CFI INIT f6a74 74 .cfa: sp 0 + .ra: lr
STACK CFI INIT f6ae8 34 .cfa: sp 0 + .ra: lr
STACK CFI INIT f6b1c 64 .cfa: sp 0 + .ra: lr
STACK CFI INIT f6b80 2c .cfa: sp 0 + .ra: lr
STACK CFI INIT f6bac 38 .cfa: sp 0 + .ra: lr
STACK CFI INIT f6be4 34 .cfa: sp 0 + .ra: lr
STACK CFI INIT f6c18 4c .cfa: sp 0 + .ra: lr
STACK CFI INIT f6c64 30 .cfa: sp 0 + .ra: lr
STACK CFI INIT f6c94 a4 .cfa: sp 0 + .ra: lr
STACK CFI f6c98 .cfa: sp 16 +
STACK CFI f6c9c .ra: .cfa -4 + ^ r4: .cfa -16 + ^ r5: .cfa -12 + ^ r6: .cfa -8 + ^
STACK CFI f6cb4 .cfa: sp 24 +
STACK CFI INIT f6d38 134 .cfa: sp 0 + .ra: lr
STACK CFI f6d48 .cfa: sp 24 +
STACK CFI f6d50 .cfa: sp 32 +
STACK CFI f6d54 .ra: .cfa -4 + ^ r4: .cfa -24 + ^ r5: .cfa -20 + ^ r6: .cfa -16 + ^ r7: .cfa -12 + ^ r8: .cfa -8 + ^
STACK CFI INIT f6e6c b0 .cfa: sp 0 + .ra: lr
STACK CFI f6e74 .cfa: sp 16 +
STACK CFI f6e78 .ra: .cfa -4 + ^ r4: .cfa -16 + ^ r5: .cfa -12 + ^ r6: .cfa -8 + ^
STACK CFI INIT f6f1c a8 .cfa: sp 0 + .ra: lr
STACK CFI f6f20 .cfa: sp 24 +
STACK CFI f6f24 .ra: .cfa -4 + ^ r4: .cfa -24 + ^ r5: .cfa -20 + ^ r6: .cfa -16 + ^ r7: .cfa -12 + ^ r8: .cfa -8 + ^
STACK CFI INIT f6fc4 40 .cfa: sp 0 + .ra: lr
STACK CFI f6fc8 .cfa: sp 16 +
STACK CFI f6fcc .ra: .cfa -4 + ^ r3: .cfa -16 + ^ r4: .cfa -12 + ^ r5: .cfa -8 + ^
STACK CFI INIT f7004 658 .cfa: sp 0 + .ra: lr
STACK CFI f7008 .cfa: sp 36 +
STACK CFI f700c .ra: .cfa -4 + ^ r10: .cfa -12 + ^ r11: .cfa -8 + ^ r4: .cfa -36 + ^ r5: .cfa -32 + ^ r6: .cfa -28 + ^ r7: .cfa -24 + ^ r8: .cfa -20 + ^ r9: .cfa -16 + ^
STACK CFI f7010 .cfa: sp 96 +
STACK CFI INIT f765c 64 .cfa: sp 0 + .ra: lr
STACK CFI f7660 .cfa: sp 16 +
STACK CFI f7664 .ra: .cfa -4 + ^ r3: .cfa -16 + ^ r4: .cfa -12 + ^ r5: .cfa -8 + ^
STACK CFI INIT f76c0 a8 .cfa: sp 0 + .ra: lr
STACK CFI f76c4 .cfa: sp 16 +
STACK CFI f76cc .ra: .cfa -4 + ^ r4: .cfa -16 + ^ r5: .cfa -12 + ^ r6: .cfa -8 + ^
STACK CFI f76e0 .cfa: sp 24 +
STACK CFI INIT f7768 2a8 .cfa: sp 0 + .ra: lr
STACK CFI f776c .cfa: sp 36 +
STACK CFI f7774 .ra: .cfa -4 + ^ r10: .cfa -12 + ^ r11: .cfa -8 + ^ r4: .cfa -36 + ^ r5: .cfa -32 + ^ r6: .cfa -28 + ^ r7: .cfa -24 + ^ r8: .cfa -20 + ^ r9: .cfa -16 + ^
STACK CFI f7778 .cfa: sp 48 +
STACK CFI INIT f7a10 2ac .cfa: sp 0 + .ra: lr
STACK CFI f7a14 .cfa: sp 36 +
STACK CFI f7a1c .ra: .cfa -4 + ^ r10: .cfa -12 + ^ r11: .cfa -8 + ^ r4: .cfa -36 + ^ r5: .cfa -32 + ^ r6: .cfa -28 + ^ r7: .cfa -24 + ^ r8: .cfa -20 + ^ r9: .cfa -16 + ^
STACK CFI f7a20 .cfa: sp 48 +
STACK CFI INIT f7cbc 33c .cfa: sp 0 + .ra: lr
STACK CFI f7cc0 .cfa: sp 32 +
STACK CFI f7cc4 .ra: .cfa -4 + ^ r10: .cfa -8 + ^ r4: .cfa -32 + ^ r5: .cfa -28 + ^ r6: .cfa -24 + ^ r7: .cfa -20 + ^ r8: .cfa -16 + ^ r9: .cfa -12 + ^
STACK CFI INIT f7ff8 724 .cfa: sp 0 + .ra: lr
STACK CFI f7ffc .cfa: sp 32 +
STACK CFI f8000 .ra: .cfa -4 + ^ r10: .cfa -8 + ^ r4: .cfa -32 + ^ r5: .cfa -28 + ^ r6: .cfa -24 + ^ r7: .cfa -20 + ^ r8: .cfa -16 + ^ r9: .cfa -12 + ^
STACK CFI INIT f871c 114 .cfa: sp 0 + .ra: lr
STACK CFI f8720 .cfa: sp 24 +
STACK CFI f8724 .ra: .cfa -4 + ^ r4: .cfa -24 + ^ r5: .cfa -20 + ^ r6: .cfa -16 + ^ r7: .cfa -12 + ^ r8: .cfa -8 + ^
STACK CFI INIT f8830 30 .cfa: sp 0 + .ra: lr
STACK CFI f8834 .cfa: sp 16 +
STACK CFI f8838 .ra: .cfa -4 + ^ r3: .cfa -16 + ^ r4: .cfa -12 + ^ r5: .cfa -8 + ^
STACK CFI INIT f8860 58 .cfa: sp 0 + .ra: lr
STACK CFI f8868 .cfa: sp 16 +
STACK CFI f886c .ra: .cfa -4 + ^ r4: .cfa -16 + ^ r5: .cfa -12 + ^ r6: .cfa -8 + ^
STACK CFI INIT f88b8 8 .cfa: sp 0 + .ra: lr
STACK CFI INIT f88c0 4 .cfa: sp 0 + .ra: lr
STACK CFI INIT f88c4 8 .cfa: sp 0 + .ra: lr
STACK CFI INIT f88cc d4 .cfa: sp 0 + .ra: lr
STACK CFI f88d4 .cfa: sp 8 +
STACK CFI f88dc r4: .cfa -8 + ^ r5: .cfa -4 + ^
STACK CFI INIT f89a0 50 .cfa: sp 0 + .ra: lr
STACK CFI INIT f89f0 ef8 .cfa: sp 0 + .ra: lr
STACK CFI f89f8 .cfa: sp 36 +
STACK CFI f8a00 .cfa: sp 96 +
STACK CFI f8a18 .ra: .cfa -4 + ^ r10: .cfa -12 + ^ r11: .cfa -8 + ^ r4: .cfa -36 + ^ r5: .cfa -32 + ^ r6: .cfa -28 + ^ r7: .cfa -24 + ^ r8: .cfa -20 + ^ r9: .cfa -16 + ^
STACK CFI INIT f98e8 5a8 .cfa: sp 0 + .ra: lr
STACK CFI f98ec .cfa: sp 36 +
STACK CFI f98f8 .ra: .cfa -4 + ^ r10: .cfa -12 + ^ r11: .cfa -8 + ^ r4: .cfa -36 + ^ r5: .cfa -32 + ^ r6: .cfa -28 + ^ r7: .cfa -24 + ^ r8: .cfa -20 + ^ r9: .cfa -16 + ^
STACK CFI f9900 .cfa: sp 48 +
STACK CFI INIT f9e90 13c .cfa: sp 0 + .ra: lr
STACK CFI f9e94 .cfa: sp 36 +
STACK CFI f9e98 .ra: .cfa -4 + ^ r10: .cfa -12 + ^ r11: .cfa -8 + ^ r4: .cfa -36 + ^ r5: .cfa -32 + ^ r6: .cfa -28 + ^ r7: .cfa -24 + ^ r8: .cfa -20 + ^ r9: .cfa -16 + ^
STACK CFI f9ea0 .cfa: sp 48 +
STACK CFI INIT f9fcc 4c .cfa: sp 0 + .ra: lr
STACK CFI INIT fa018 b8 .cfa: sp 0 + .ra: lr
STACK CFI fa01c .cfa: sp 4 +
STACK CFI fa020 r4: .cfa -4 + ^
STACK CFI INIT fa0d0 74 .cfa: sp 0 + .ra: lr
STACK CFI INIT fa144 64 .cfa: sp 0 + .ra: lr
STACK CFI INIT fa1a8 1a8 .cfa: sp 0 + .ra: lr
STACK CFI fa1b8 .cfa: sp 32 +
STACK CFI fa1d4 r10: .cfa -8 + ^ r11: .cfa -4 + ^ r4: .cfa -32 + ^ r5: .cfa -28 + ^ r6: .cfa -24 + ^ r7: .cfa -20 + ^ r8: .cfa -16 + ^ r9: .cfa -12 + ^
STACK CFI INIT fa350 64 .cfa: sp 0 + .ra: lr
STACK CFI fa354 .cfa: sp 16 +
STACK CFI fa358 .ra: .cfa -4 + ^ r3: .cfa -16 + ^ r4: .cfa -12 + ^ r5: .cfa -8 + ^
STACK CFI INIT fa3b4 ec .cfa: sp 0 + .ra: lr
STACK CFI fa3b8 .cfa: sp 24 +
STACK CFI fa3bc .ra: .cfa -4 + ^ r3: .cfa -24 + ^ r4: .cfa -20 + ^ r5: .cfa -16 + ^ r6: .cfa -12 + ^ r7: .cfa -8 + ^
STACK CFI INIT fa4a0 a0 .cfa: sp 0 + .ra: lr
STACK CFI fa4a4 .cfa: sp 8 +
STACK CFI fa4a8 .ra: .cfa -4 + ^ r4: .cfa -8 + ^
STACK CFI fa4b4 .cfa: sp 16 +
STACK CFI INIT fa540 33c .cfa: sp 0 + .ra: lr
STACK CFI fa544 .cfa: sp 36 +
STACK CFI fa548 .ra: .cfa -4 + ^ r10: .cfa -12 + ^ r11: .cfa -8 + ^ r4: .cfa -36 + ^ r5: .cfa -32 + ^ r6: .cfa -28 + ^ r7: .cfa -24 + ^ r8: .cfa -20 + ^ r9: .cfa -16 + ^
STACK CFI fa558 .cfa: sp 48 +
STACK CFI INIT fa87c 28 .cfa: sp 0 + .ra: lr
STACK CFI fa880 .cfa: sp 4 +
STACK CFI fa888 .cfa: sp 16 +
STACK CFI fa898 .ra: .cfa -4 + ^
STACK CFI INIT fa8a4 8c .cfa: sp 0 + .ra: lr
STACK CFI fa8a8 .cfa: sp 24 +
STACK CFI fa8ac .ra: .cfa -4 + ^ r3: .cfa -24 + ^ r4: .cfa -20 + ^ r5: .cfa -16 + ^ r6: .cfa -12 + ^ r7: .cfa -8 + ^
STACK CFI INIT fa930 110 .cfa: sp 0 + .ra: lr
STACK CFI fa93c .cfa: sp 12 +
STACK CFI fa940 .ra: .cfa -4 + ^ r4: .cfa -12 + ^ r5: .cfa -8 + ^
STACK CFI fa944 .cfa: sp 24 +
STACK CFI INIT faa40 ec .cfa: sp 0 + .ra: lr
STACK CFI faa48 .cfa: sp 24 +
STACK CFI faa4c .ra: .cfa -4 + ^ r3: .cfa -24 + ^ r4: .cfa -20 + ^ r5: .cfa -16 + ^ r6: .cfa -12 + ^ r7: .cfa -8 + ^
STACK CFI INIT fab2c ac .cfa: sp 0 + .ra: lr
STACK CFI fab30 .cfa: sp 16 +
STACK CFI fab34 .ra: .cfa -4 + ^ r4: .cfa -16 + ^ r5: .cfa -12 + ^ r6: .cfa -8 + ^
STACK CFI INIT fabd8 2c .cfa: sp 0 + .ra: lr
STACK CFI fabdc .cfa: sp 8 +
STACK CFI fabe0 .ra: .cfa -4 + ^ r4: .cfa -8 + ^
STACK CFI INIT fac04 ec .cfa: sp 0 + .ra: lr
STACK CFI fac10 .cfa: sp 16 +
STACK CFI fac14 .ra: .cfa -4 + ^ r3: .cfa -16 + ^ r4: .cfa -12 + ^ r5: .cfa -8 + ^
STACK CFI INIT facf0 30 .cfa: sp 0 + .ra: lr
STACK CFI facf4 .cfa: sp 16 +
