MODULE Linux arm F29916DEA463A13806EF3ED0E903EFE20 libidirectfbimageprovider_pnm.so
FUNC a8c 10 0 GetType
FUNC a9c 10 0 GetImplementation
FUNC aac 38 0 IDirectFBImageProvider_PNM_SetRenderCallback
FUNC ae4 a4 0 IDirectFBImageProvider_PNM_GetSurfaceDescription
FUNC b88 60 0 IDirectFBImageProvider_PNM_GetImageDescription
FUNC be8 14 0 IDirectFBImageProvider_PNM_Destruct
FUNC bfc 38 0 Deallocate
FUNC c34 218 0 __rawppm_getrow
FUNC e4c ec 0 __rawpgm_getrow
FUNC f38 258 0 __plainpbm_getrow
FUNC 1190 1a0 0 __rawpbm_getrow
FUNC 1330 2e0 0 __plainppm_getrow
FUNC 1610 2b8 0 __plainpgm_getrow
FUNC 18c8 5c 0 Probe
FUNC 1924 538 0 IDirectFBImageProvider_PNM_RenderTo
FUNC 1e5c 68 0 Allocate
FUNC 1ec4 4f8 0 Construct
FUNC 23bc 10 0 IDirectFBImageProvider_PNM_ctor
FUNC 23cc 10 0 IDirectFBImageProvider_PNM_dtor
STACK CFI INIT a8c 10 .cfa: sp 0 + .ra: lr
STACK CFI INIT a9c 10 .cfa: sp 0 + .ra: lr
STACK CFI INIT aac 38 .cfa: sp 0 + .ra: lr
STACK CFI INIT ae4 a4 .cfa: sp 0 + .ra: lr
STACK CFI INIT b88 60 .cfa: sp 0 + .ra: lr
STACK CFI INIT be8 14 .cfa: sp 0 + .ra: lr
STACK CFI INIT bfc 38 .cfa: sp 0 + .ra: lr
STACK CFI c00 .cfa: sp 16 +
STACK CFI c04 .ra: .cfa -4 + ^ r3: .cfa -16 + ^ r4: .cfa -12 + ^ r5: .cfa -8 + ^
STACK CFI INIT c34 218 .cfa: sp 0 + .ra: lr
STACK CFI c38 .cfa: sp 20 +
STACK CFI c3c .ra: .cfa -4 + ^ r4: .cfa -20 + ^ r5: .cfa -16 + ^ r6: .cfa -12 + ^ r7: .cfa -8 + ^
STACK CFI c48 .cfa: sp 32 +
STACK CFI INIT e4c ec .cfa: sp 0 + .ra: lr
STACK CFI e50 .cfa: sp 20 +
STACK CFI e54 .ra: .cfa -4 + ^ r4: .cfa -20 + ^ r5: .cfa -16 + ^ r6: .cfa -12 + ^ r7: .cfa -8 + ^
STACK CFI e5c .cfa: sp 32 +
STACK CFI INIT f38 258 .cfa: sp 0 + .ra: lr
STACK CFI f3c .cfa: sp 36 +
STACK CFI f40 .ra: .cfa -4 + ^ r10: .cfa -12 + ^ r11: .cfa -8 + ^ r4: .cfa -36 + ^ r5: .cfa -32 + ^ r6: .cfa -28 + ^ r7: .cfa -24 + ^ r8: .cfa -20 + ^ r9: .cfa -16 + ^
STACK CFI f58 .cfa: sp 48 +
STACK CFI INIT 1190 1a0 .cfa: sp 0 + .ra: lr
STACK CFI 1194 .cfa: sp 24 +
STACK CFI 1198 .ra: .cfa -4 + ^ r4: .cfa -24 + ^ r5: .cfa -20 + ^ r6: .cfa -16 + ^ r7: .cfa -12 + ^ r8: .cfa -8 + ^
STACK CFI 11b0 .cfa: sp 32 +
STACK CFI INIT 1330 2e0 .cfa: sp 0 + .ra: lr
STACK CFI 1334 .cfa: sp 36 +
STACK CFI 133c .ra: .cfa -4 + ^ r10: .cfa -12 + ^ r11: .cfa -8 + ^ r4: .cfa -36 + ^ r5: .cfa -32 + ^ r6: .cfa -28 + ^ r7: .cfa -24 + ^ r8: .cfa -20 + ^ r9: .cfa -16 + ^
STACK CFI 134c .cfa: sp 64 +
STACK CFI INIT 1610 2b8 .cfa: sp 0 + .ra: lr
STACK CFI 1614 .cfa: sp 36 +
STACK CFI 1618 .ra: .cfa -4 + ^ r10: .cfa -12 + ^ r11: .cfa -8 + ^ r4: .cfa -36 + ^ r5: .cfa -32 + ^ r6: .cfa -28 + ^ r7: .cfa -24 + ^ r8: .cfa -20 + ^ r9: .cfa -16 + ^
STACK CFI 162c .cfa: sp 56 +
STACK CFI INIT 18c8 5c .cfa: sp 0 + .ra: lr
STACK CFI 18cc .cfa: sp 8 +
STACK CFI 18d4 .ra: .cfa -4 + ^ r4: .cfa -8 + ^
STACK CFI INIT 1924 538 .cfa: sp 0 + .ra: lr
STACK CFI 1928 .cfa: sp 36 +
STACK CFI 192c .ra: .cfa -4 + ^ r10: .cfa -12 + ^ r11: .cfa -8 + ^ r4: .cfa -36 + ^ r5: .cfa -32 + ^ r6: .cfa -28 + ^ r7: .cfa -24 + ^ r8: .cfa -20 + ^ r9: .cfa -16 + ^
STACK CFI 1934 .cfa: sp 168 +
STACK CFI INIT 1e5c 68 .cfa: sp 0 + .ra: lr
STACK CFI 1e60 .cfa: sp 8 +
STACK CFI 1e68 .ra: .cfa -4 + ^ r4: .cfa -8 + ^
STACK CFI INIT 1ec4 4f8 .cfa: sp 0 + .ra: lr
STACK CFI 1ec8 .cfa: sp 36 +
STACK CFI 1ecc .cfa: sp 112 +
STACK CFI 1ed4 .ra: .cfa -4 + ^ r10: .cfa -12 + ^ r11: .cfa -8 + ^ r4: .cfa -36 + ^ r5: .cfa -32 + ^ r6: .cfa -28 + ^ r7: .cfa -24 + ^ r8: .cfa -20 + ^ r9: .cfa -16 + ^
STACK CFI INIT 23bc 10 .cfa: sp 0 + .ra: lr
STACK CFI INIT 23cc 10 .cfa: sp 0 + .ra: lr
