MODULE Linux arm 18F2DA509C22C75406A6C3E920F635990 libQtSvg.so.4.7.4
PUBLIC d1b8 0 _init
PUBLIC 257e4 0 _ZN4QCss6ParserD1Ev
PUBLIC 3113c 0 _ZNK16QSvgTinyDocument4typeEv
PUBLIC 315bc 0 _ZN16QSvgTinyDocument4loadEP16QXmlStreamReader
PUBLIC 31630 0 _ZN16QSvgTinyDocument8setWidthEib
PUBLIC 3163c 0 _ZN16QSvgTinyDocument9setHeightEib
PUBLIC 31648 0 _ZN16QSvgTinyDocument10setViewBoxERK6QRectF
PUBLIC 31658 0 _ZN16QSvgTinyDocument16restartAnimationEv
PUBLIC 31660 0 _ZNK16QSvgTinyDocument8animatedEv
PUBLIC 31668 0 _ZN16QSvgTinyDocument11setAnimatedEb
PUBLIC 31670 0 _ZN16QSvgTinyDocument17mapSourceToTargetEP8QPainterRK6QRectFS4_
PUBLIC 31c78 0 _ZNK16QSvgTinyDocument15boundsOnElementERK7QString
PUBLIC 31cac 0 _ZNK16QSvgTinyDocument13elementExistsERK7QString
PUBLIC 31cc0 0 _ZNK16QSvgTinyDocument16matrixForElementERK7QString
PUBLIC 31dbc 0 _ZNK16QSvgTinyDocument12currentFrameEv
PUBLIC 31e3c 0 _ZN16QSvgTinyDocument15setCurrentFrameEi
PUBLIC 31f0c 0 _ZN16QSvgTinyDocument18setFramesPerSecondEi
PUBLIC 31f14 0 _ZN16QSvgTinyDocumentD1Ev
PUBLIC 3204c 0 _ZN16QSvgTinyDocumentD0Ev
PUBLIC 32068 0 _ZN16QSvgTinyDocumentC2Ev
PUBLIC 3219c 0 _ZN16QSvgTinyDocument10addSvgFontEP8QSvgFont
PUBLIC 323f8 0 _ZNK16QSvgTinyDocument7svgFontERK7QString
PUBLIC 3246c 0 _ZNK16QSvgTinyDocument9namedNodeERK7QString
PUBLIC 324b0 0 _ZN16QSvgTinyDocument12addNamedNodeERK7QStringP8QSvgNode
PUBLIC 32624 0 _ZNK16QSvgTinyDocument10namedStyleERK7QString
PUBLIC 32698 0 _ZN16QSvgTinyDocument13addNamedStyleERK7QStringP21QSvgFillStyleProperty
PUBLIC 328a8 0 _ZN16QSvgTinyDocument4drawEP8QPainterRK6QRectF
PUBLIC 32abc 0 _ZN16QSvgTinyDocument4drawEP8QPainter
PUBLIC 32ae8 0 _ZN16QSvgTinyDocument4drawEP8QPainterR15QSvgExtraStates
PUBLIC 32aec 0 _ZN16QSvgTinyDocument4drawEP8QPainterRK7QStringRK6QRectF
PUBLIC 32fe8 0 _ZN16QSvgTinyDocument4loadERK10QByteArray
PUBLIC 33108 0 _ZN16QSvgTinyDocument4loadERK7QString
PUBLIC 33918 0 _ZNK12QSvgRenderer10metaObjectEv
PUBLIC 33944 0 _ZN12QSvgRendererD2Ev
PUBLIC 33978 0 _ZN12QSvgRendererD0Ev
PUBLIC 33994 0 _ZN12QSvgRendererC1EP7QObject
PUBLIC 33a24 0 _ZNK12QSvgRenderer7isValidEv
PUBLIC 33a38 0 _ZNK12QSvgRenderer11defaultSizeEv
PUBLIC 33be0 0 _ZNK12QSvgRenderer7viewBoxEv
PUBLIC 33e50 0 _ZN12QSvgRenderer10setViewBoxERK5QRect
PUBLIC 33ec8 0 _ZNK12QSvgRenderer8animatedEv
PUBLIC 33edc 0 _ZNK12QSvgRenderer15framesPerSecondEv
PUBLIC 33ee8 0 _ZN12QSvgRenderer18setFramesPerSecondEi
PUBLIC 33f08 0 _ZNK12QSvgRenderer12currentFrameEv
PUBLIC 33f14 0 _ZN12QSvgRenderer15setCurrentFrameEi
PUBLIC 33f20 0 _ZNK12QSvgRenderer17animationDurationEv
PUBLIC 33f30 0 _ZN12QSvgRenderer6renderEP8QPainter
PUBLIC 33f44 0 _ZN12QSvgRenderer6renderEP8QPainterRK7QStringRK6QRectF
PUBLIC 33f58 0 _ZN12QSvgRenderer6renderEP8QPainterRK6QRectF
PUBLIC 33f6c 0 _ZNK12QSvgRenderer8viewBoxFEv
PUBLIC 34004 0 _ZN12QSvgRenderer10setViewBoxERK6QRectF
PUBLIC 34018 0 _ZNK12QSvgRenderer15boundsOnElementERK7QString
PUBLIC 34050 0 _ZNK12QSvgRenderer13elementExistsERK7QString
PUBLIC 34064 0 _ZNK12QSvgRenderer16matrixForElementERK7QString
PUBLIC 340ac 0 _ZN12QSvgRenderer13repaintNeededEv
PUBLIC 340d4 0 _ZN12QSvgRenderer4loadERK7QString
PUBLIC 341e0 0 _ZN12QSvgRendererC1ERK7QStringP7QObject
PUBLIC 3428c 0 _ZN12QSvgRenderer4loadERK10QByteArray
PUBLIC 34398 0 _ZN12QSvgRendererC2ERK10QByteArrayP7QObject
PUBLIC 34444 0 _ZN12QSvgRenderer4loadEP16QXmlStreamReader
PUBLIC 34550 0 _ZN12QSvgRendererC2EP16QXmlStreamReaderP7QObject
PUBLIC 345fc 0 _ZN12QSvgRenderer11qt_metacastEPKc
PUBLIC 34640 0 _ZN12QSvgRenderer11qt_metacallEN11QMetaObject4CallEiPPv
PUBLIC 3491c 0 _ZN10QSvgWidgetD2Ev
PUBLIC 34958 0 _ZThn8_N10QSvgWidgetD1Ev
PUBLIC 34960 0 _ZN10QSvgWidgetD0Ev
PUBLIC 3497c 0 _ZThn8_N10QSvgWidgetD0Ev
PUBLIC 34984 0 _ZNK10QSvgWidget8sizeHintEv
PUBLIC 349c8 0 _ZN10QSvgWidget10paintEventEP11QPaintEvent
PUBLIC 34a0c 0 _ZN10QSvgWidgetC2EP7QWidget
PUBLIC 34b04 0 _ZN10QSvgWidgetC2ERK7QStringP7QWidget
PUBLIC 34c04 0 _ZNK10QSvgWidget8rendererEv
PUBLIC 34c10 0 _ZN10QSvgWidget4loadERK7QString
PUBLIC 34c1c 0 _ZN10QSvgWidget4loadERK10QByteArray
PUBLIC 34c84 0 _ZNK16QGraphicsSvgItem12boundingRectEv
PUBLIC 34ca0 0 _ZThn8_NK16QGraphicsSvgItem12boundingRectEv
PUBLIC 34ca8 0 _ZNK16QGraphicsSvgItem4typeEv
PUBLIC 34cb0 0 _ZThn8_NK16QGraphicsSvgItem4typeEv
PUBLIC 34cb8 0 _ZNK16QGraphicsSvgItem10metaObjectEv
PUBLIC 34ce4 0 _ZN16QGraphicsSvgItem11qt_metacastEPKc
PUBLIC 34d50 0 _ZN16QGraphicsSvgItem5paintEP8QPainterPK24QStyleOptionGraphicsItemP7QWidget
PUBLIC 35250 0 _ZThn8_N16QGraphicsSvgItem5paintEP8QPainterPK24QStyleOptionGraphicsItemP7QWidget
PUBLIC 352cc 0 _ZNK16QGraphicsSvgItem8rendererEv
PUBLIC 352d8 0 _ZNK16QGraphicsSvgItem16maximumCacheSizeEv
PUBLIC 3539c 0 _ZN16QGraphicsSvgItem12setElementIdERK7QString
PUBLIC 35560 0 _ZNK16QGraphicsSvgItem9elementIdEv
PUBLIC 3559c 0 _ZN16QGraphicsSvgItem17setSharedRendererEP12QSvgRenderer
PUBLIC 35780 0 _ZN16QGraphicsSvgItem17setCachingEnabledEb
PUBLIC 357b8 0 _ZNK16QGraphicsSvgItem16isCachingEnabledEv
PUBLIC 357d0 0 _ZN16QGraphicsSvgItem19setMaximumCacheSizeERK5QSize
PUBLIC 359d8 0 _ZN16QGraphicsSvgItemC1ERK7QStringP13QGraphicsItem
PUBLIC 35edc 0 _ZN16QGraphicsSvgItem11qt_metacallEN11QMetaObject4CallEiPPv
PUBLIC 36094 0 _ZN16QGraphicsSvgItemC1EP13QGraphicsItem
PUBLIC 364d0 0 _ZN15QGraphicsObjectD2Ev
PUBLIC 36520 0 _ZThn8_N15QGraphicsObjectD1Ev
PUBLIC 36528 0 _ZN16QGraphicsSvgItemD2Ev
PUBLIC 36578 0 _ZThn8_N16QGraphicsSvgItemD1Ev
PUBLIC 36580 0 _ZN15QGraphicsObjectD0Ev
PUBLIC 365d8 0 _ZThn8_N15QGraphicsObjectD0Ev
PUBLIC 365e0 0 _ZN16QGraphicsSvgItemD0Ev
PUBLIC 36638 0 _ZThn8_N16QGraphicsSvgItemD0Ev
PUBLIC 36f1c 0 _ZNK13QSvgGenerator11paintEngineEv
PUBLIC 37308 0 _ZNK13QSvgGenerator6metricEN12QPaintDevice17PaintDeviceMetricE
PUBLIC 384e0 0 _ZNK13QSvgGenerator5titleEv
PUBLIC 38524 0 _ZN13QSvgGenerator8setTitleERK7QString
PUBLIC 38538 0 _ZNK13QSvgGenerator11descriptionEv
PUBLIC 3857c 0 _ZN13QSvgGenerator14setDescriptionERK7QString
PUBLIC 38590 0 _ZNK13QSvgGenerator4sizeEv
PUBLIC 385b4 0 _ZN13QSvgGenerator7setSizeERK5QSize
PUBLIC 385ec 0 _ZNK13QSvgGenerator8viewBoxFEv
PUBLIC 38610 0 _ZNK13QSvgGenerator7viewBoxEv
PUBLIC 3880c 0 _ZN13QSvgGenerator10setViewBoxERK6QRectF
PUBLIC 38844 0 _ZN13QSvgGenerator10setViewBoxERK5QRect
PUBLIC 388b0 0 _ZNK13QSvgGenerator8fileNameEv
PUBLIC 388ec 0 _ZN13QSvgGenerator11setFileNameERK7QString
PUBLIC 3898c 0 _ZNK13QSvgGenerator12outputDeviceEv
PUBLIC 389a0 0 _ZN13QSvgGenerator15setOutputDeviceEP9QIODevice
PUBLIC 38a88 0 _ZNK13QSvgGenerator10resolutionEv
PUBLIC 38a9c 0 _ZN13QSvgGenerator13setResolutionEi
PUBLIC 38ab0 0 _ZN13QSvgGeneratorC2Ev
PUBLIC 3927c 0 _ZN13QSvgGeneratorD1Ev
PUBLIC 39378 0 _ZN13QSvgGeneratorD0Ev
PUBLIC 39b48 0 _ZNK12QPaintDevice7devTypeEv
PUBLIC 3e2e8 0 _ZNK10QSvgWidget10metaObjectEv
PUBLIC 3e314 0 _ZN10QSvgWidget11qt_metacastEPKc
PUBLIC 3e358 0 _ZN10QSvgWidget11qt_metacallEN11QMetaObject4CallEiPPv
PUBLIC 3e3b8 0 _fini
