MODULE Linux x86 5607DF97636117E5793E5BAE19716C810 liblto_plugin.so.0.0.0
FUNC 25a0 34 0 eq_sym
FUNC 25e0 22 0 hash_sym
FUNC 2610 d1 0 dump_symtab
FUNC 26f0 53 0 check_1
FUNC 2750 451 0 process_symtab
FUNC 2bb0 6f6 0 claim_file_handler
FUNC 32b0 14f 0 cleanup_handler
FUNC 3400 8aa 0 all_symbols_read_handler
FUNC 3cb0 3da 0 onload
FUNC 4090 cb 0 dupargv
FUNC 4160 48 0 freeargv
FUNC 41b0 262 0 buildargv
FUNC 4420 b3 0 writeargv
FUNC 44e0 30b 0 expandargv
FUNC 47f0 32 0 countargv
FUNC 4830 3d 0 concat_length
FUNC 4870 63 0 concat_copy
FUNC 48e0 67 0 concat_copy2
FUNC 4950 a7 0 concat
FUNC 4a00 bb 0 reconcat
FUNC 4ac0 8 0 hash_pointer
FUNC 4ad0 f 0 eq_pointer
FUNC 4ae0 95 0 higher_prime_index
FUNC 4b80 256 0 htab_expand
FUNC 4de0 8 0 htab_size
FUNC 4df0 b 0 htab_elements
FUNC 4e00 dd 0 htab_create_alloc_ex
FUNC 4ee0 bd 0 htab_create_typed_alloc
FUNC 4fa0 4c 0 htab_create_alloc
FUNC 4ff0 2e 0 htab_set_functions_ex
FUNC 5020 4c 0 htab_create
FUNC 5070 4c 0 htab_try_create
FUNC 50c0 77 0 htab_delete
FUNC 5140 103 0 htab_empty
FUNC 5250 154 0 htab_find_with_hash
FUNC 53b0 47 0 htab_find
FUNC 5400 224 0 htab_find_slot_with_hash
FUNC 5630 4f 0 htab_find_slot
FUNC 5680 6c 0 htab_remove_elt_with_hash
FUNC 56f0 47 0 htab_remove_elt
FUNC 5740 69 0 htab_clear_slot
FUNC 57b0 44 0 htab_traverse_noresize
FUNC 5800 61 0 htab_traverse
FUNC 5870 4e 0 htab_collisions
FUNC 58c0 26 0 htab_hash_string
FUNC 58f0 2c4 0 iterative_hash
FUNC 5bc0 1d1 0 choose_tmpdir
FUNC 5da0 112 0 make_temp_file
FUNC 5ec0 117 0 pex_get_status_and_time
FUNC 5fe0 130 0 temp_file
FUNC 6110 a4 0 pex_init_common
FUNC 61c0 69a 0 pex_run_in_environment
FUNC 6860 58 0 pex_run
FUNC 68c0 c8 0 pex_input_file
FUNC 6990 ef 0 pex_input_pipe
FUNC 6a80 d4 0 pex_read_output
FUNC 6b60 3c 0 pex_read_err
FUNC 6ba0 ae 0 pex_get_status
FUNC 6c50 c2 0 pex_get_times
FUNC 6d20 11b 0 pex_free
FUNC 6e40 2 0 pex_unix_cleanup
FUNC 6e50 5c 0 pex_unix_fdopenw
FUNC 6eb0 2a 0 pex_unix_fdopenr
FUNC 6ee0 20 0 pex_unix_pipe
FUNC 6f00 20 0 pex_unix_close
FUNC 6f20 30 0 pex_unix_open_write
FUNC 6f50 28 0 pex_unix_open_read
FUNC 6f80 de 0 pex_unix_wait
FUNC 7060 15e 0 pex_child_error
FUNC 71c0 317 0 pex_unix_exec_child
FUNC 74e0 3a 0 pex_init
FUNC 7520 8d 0 find_one_section
FUNC 75b0 b5 0 simple_object_internal_read
FUNC 7670 b5 0 simple_object_internal_write
FUNC 7730 11a 0 simple_object_start_read
FUNC 7850 2c 0 simple_object_find_sections
FUNC 7880 78 0 simple_object_find_section
FUNC 7900 6c 0 simple_object_fetch_attributes
FUNC 7970 3a 0 simple_object_release_read
FUNC 79b0 64 0 simple_object_attributes_merge
FUNC 7a20 39 0 simple_object_release_attributes
FUNC 7a60 94 0 simple_object_start_write
FUNC 7b00 80 0 simple_object_write_create_section
FUNC 7b80 b3 0 simple_object_write_add_data
FUNC 7c40 23 0 simple_object_write_to_file
FUNC 7c70 96 0 simple_object_release_write
FUNC 7d10 11 0 simple_object_fetch_big_16
FUNC 7d30 11 0 simple_object_fetch_little_16
FUNC 7d50 23 0 simple_object_fetch_big_32
FUNC 7d80 23 0 simple_object_fetch_little_32
FUNC 7db0 15 0 simple_object_set_big_16
FUNC 7dd0 15 0 simple_object_set_little_16
FUNC 7df0 23 0 simple_object_set_big_32
FUNC 7e20 23 0 simple_object_set_little_32
FUNC 7e50 3d 0 simple_object_coff_attributes_merge
FUNC 7e90 20 0 simple_object_coff_release_write
FUNC 7eb0 20 0 simple_object_coff_release_attributes
FUNC 7ed0 20 0 simple_object_coff_release_read
FUNC 7ef0 3e 0 simple_object_coff_start_write
FUNC 7f30 4a 0 simple_object_coff_fetch_attributes
FUNC 7f80 205 0 simple_object_coff_match
FUNC 8190 3c2 0 simple_object_coff_find_sections
FUNC 8560 767 0 simple_object_coff_write_to_file
FUNC 8cd0 11 0 simple_object_fetch_big_16
FUNC 8cf0 11 0 simple_object_fetch_little_16
FUNC 8d10 23 0 simple_object_fetch_big_32
FUNC 8d40 23 0 simple_object_fetch_little_32
FUNC 8d70 25 0 simple_object_fetch_big_32_ulong
FUNC 8da0 25 0 simple_object_fetch_little_32_ulong
FUNC 8dd0 62 0 simple_object_fetch_big_64
FUNC 8e40 62 0 simple_object_fetch_little_64
FUNC 8eb0 15 0 simple_object_set_big_16
FUNC 8ed0 15 0 simple_object_set_little_16
FUNC 8ef0 23 0 simple_object_set_big_32
FUNC 8f20 23 0 simple_object_set_little_32
FUNC 8f50 23 0 simple_object_set_big_32_ulong
FUNC 8f80 23 0 simple_object_set_little_32_ulong
FUNC 8fb0 6e 0 simple_object_set_big_64
FUNC 9020 6e 0 simple_object_set_little_64
FUNC 9090 20 0 simple_object_elf_release_write
FUNC 90b0 20 0 simple_object_elf_release_attributes
FUNC 90d0 20 0 simple_object_elf_release_read
FUNC 90f0 48 0 simple_object_elf_start_write
FUNC 9140 5c 0 simple_object_elf_fetch_attributes
FUNC 91a0 2db 0 simple_object_elf_find_sections
FUNC 9480 80 0 simple_object_elf_attributes_merge
FUNC 9500 399 0 simple_object_elf_match
FUNC 98a0 210 0 simple_object_elf_write_shdr
FUNC 9ab0 7a1 0 simple_object_elf_write_to_file
FUNC a260 23 0 simple_object_fetch_big_32
FUNC a290 23 0 simple_object_fetch_little_32
FUNC a2c0 62 0 simple_object_fetch_big_64
FUNC a330 62 0 simple_object_fetch_little_64
FUNC a3a0 23 0 simple_object_set_big_32
FUNC a3d0 23 0 simple_object_set_little_32
FUNC a400 6e 0 simple_object_set_big_64
FUNC a470 6e 0 simple_object_set_little_64
FUNC a4e0 a5 0 simple_object_mach_o_section_info
FUNC a590 44 0 simple_object_mach_o_attributes_merge
FUNC a5e0 20 0 simple_object_mach_o_release_write
FUNC a600 20 0 simple_object_mach_o_release_attributes
FUNC a620 38 0 simple_object_mach_o_release_read
FUNC a660 54 0 simple_object_mach_o_start_write
FUNC a6c0 58 0 simple_object_mach_o_fetch_attributes
FUNC a720 b5a 0 simple_object_mach_o_find_sections
FUNC b280 28b 0 simple_object_mach_o_match
FUNC b510 264 0 simple_object_mach_o_write_section_header
FUNC b780 a6f 0 simple_object_mach_o_write_to_file
FUNC c1f0 34 0 simple_object_xcoff_attributes_merge
FUNC c230 20 0 simple_object_xcoff_release_write
FUNC c250 20 0 simple_object_xcoff_release_attributes
FUNC c270 20 0 simple_object_xcoff_release_read
FUNC c290 28 0 simple_object_xcoff_start_write
FUNC c2c0 43 0 simple_object_xcoff_fetch_attributes
FUNC c310 400 0 simple_object_xcoff_find_sections
FUNC c710 1e6 0 simple_object_xcoff_match
FUNC c900 8dc 0 simple_object_xcoff_write_to_file
FUNC d1e0 29 0 xexit
FUNC d210 3f 0 xmalloc_set_program_name
FUNC d250 8b 0 xmalloc_failed
FUNC d2e0 44 0 xmalloc
FUNC d330 67 0 xcalloc
FUNC d3a0 5a 0 xrealloc
FUNC d400 51 0 xstrdup
FUNC d460 62 0 xstrerror
FUNC d4d0 2e5 0 mkstemps
FUNC d7c0 149 0 __udivdi3
FUNC d910 175 0 __umoddi3
STACK CFI INIT 1e20 5f0 .cfa: $esp 8 + .ra: .cfa -4 + ^
STACK CFI 1e26 .cfa: $esp 12 +
STACK CFI INIT 25a0 34 .cfa: $esp 4 + .ra: .cfa -4 + ^
STACK CFI 25a1 $ebx: .cfa -8 + ^ .cfa: $esp 8 +
STACK CFI 25a4 .cfa: $esp 32 +
STACK CFI 25cf .cfa: $esp 8 +
STACK CFI 25d3 $ebx: $ebx .cfa: $esp 4 +
STACK CFI INIT 25e0 22 .cfa: $esp 4 + .ra: .cfa -4 + ^
STACK CFI 25e1 $ebx: .cfa -8 + ^ .cfa: $esp 8 +
STACK CFI 25e4 .cfa: $esp 32 +
STACK CFI 2600 .cfa: $esp 8 +
STACK CFI 2601 $ebx: $ebx .cfa: $esp 4 +
STACK CFI INIT 2610 d1 .cfa: $esp 4 + .ra: .cfa -4 + ^
STACK CFI 2611 $ebp: .cfa -8 + ^ .cfa: $esp 8 +
STACK CFI 2612 $edi: .cfa -12 + ^ .cfa: $esp 12 +
STACK CFI 2613 $esi: .cfa -16 + ^ .cfa: $esp 16 +
STACK CFI 2614 $ebx: .cfa -20 + ^ .cfa: $esp 20 +
STACK CFI 2617 .cfa: $esp 80 +
STACK CFI 26b2 .cfa: $esp 20 +
STACK CFI 26b3 $ebx: $ebx .cfa: $esp 16 +
STACK CFI 26b4 $esi: $esi .cfa: $esp 12 +
STACK CFI 26b5 $edi: $edi .cfa: $esp 8 +
STACK CFI 26b6 $ebp: $ebp .cfa: $esp 4 +
STACK CFI 26b7 $ebp: .cfa -8 + ^ $ebx: .cfa -20 + ^ $edi: .cfa -12 + ^ $esi: .cfa -16 + ^ .cfa: $esp 80 +
STACK CFI INIT 26f0 53 .cfa: $esp 4 + .ra: .cfa -4 + ^
STACK CFI 26f5 $ebx: .cfa -8 + ^ .cfa: $esp 8 +
STACK CFI 2703 .cfa: $esp 32 +
STACK CFI 271d .cfa: $esp 8 +
STACK CFI 271e $ebx: $ebx .cfa: $esp 4 +
STACK CFI 2720 $ebx: .cfa -8 + ^ .cfa: $esp 32 +
STACK CFI INIT 2750 451 .cfa: $esp 4 + .ra: .cfa -4 + ^
STACK CFI 2756 .cfa: $esp 160 +
STACK CFI 2772 $ebx: .cfa -20 + ^
STACK CFI 279a $esi: .cfa -16 + ^
STACK CFI 27aa $ebp: .cfa -8 + ^ $edi: .cfa -12 + ^
STACK CFI 289d $ebp: $ebp $ebx: $ebx $edi: $edi $esi: $esi .cfa: $esp 4 +
STACK CFI 28a0 $ebp: .cfa -8 + ^ $ebx: .cfa -20 + ^ $edi: .cfa -12 + ^ $esi: .cfa -16 + ^ .cfa: $esp 160 +
STACK CFI INIT 2bb0 6f6 .cfa: $esp 4 + .ra: .cfa -4 + ^
STACK CFI 2bb1 $ebp: .cfa -8 + ^ .cfa: $esp 8 +
STACK CFI 2bb4 $edi: .cfa -12 + ^ .cfa: $esp 12 +
STACK CFI 2bba $esi: .cfa -16 + ^ .cfa: $esp 16 +
STACK CFI 2bbb $ebx: .cfa -20 + ^ .cfa: $esp 20 +
STACK CFI 2bc1 .cfa: $esp 208 +
STACK CFI 2d32 .cfa: $esp 20 +
STACK CFI 2d35 $ebx: $ebx .cfa: $esp 16 +
STACK CFI 2d36 $esi: $esi .cfa: $esp 12 +
STACK CFI 2d37 $edi: $edi .cfa: $esp 8 +
STACK CFI 2d38 $ebp: $ebp .cfa: $esp 4 +
STACK CFI 2d40 $ebp: .cfa -8 + ^ $ebx: .cfa -20 + ^ $edi: .cfa -12 + ^ $esi: .cfa -16 + ^ .cfa: $esp 208 +
STACK CFI INIT 32b0 14f .cfa: $esp 4 + .ra: .cfa -4 + ^
STACK CFI 32b1 $ebp: .cfa -8 + ^ .cfa: $esp 8 +
STACK CFI 32b2 $edi: .cfa -12 + ^ .cfa: $esp 12 +
STACK CFI 32b3 $esi: .cfa -16 + ^ .cfa: $esp 16 +
STACK CFI 32b4 $ebx: .cfa -20 + ^ .cfa: $esp 20 +
STACK CFI 32c2 .cfa: $esp 64 +
STACK CFI 33f8 .cfa: $esp 20 +
STACK CFI 33fb $ebx: $ebx .cfa: $esp 16 +
STACK CFI 33fc $esi: $esi .cfa: $esp 12 +
STACK CFI 33fd $edi: $edi .cfa: $esp 8 +
STACK CFI 33fe $ebp: $ebp .cfa: $esp 4 +
STACK CFI INIT 3400 8aa .cfa: $esp 4 + .ra: .cfa -4 + ^
STACK CFI 3401 $ebp: .cfa -8 + ^ .cfa: $esp 8 +
STACK CFI 3402 $edi: .cfa -12 + ^ .cfa: $esp 12 +
STACK CFI 3403 $esi: .cfa -16 + ^ .cfa: $esp 16 +
STACK CFI 3404 $ebx: .cfa -20 + ^ .cfa: $esp 20 +
STACK CFI 3412 .cfa: $esp 144 +
STACK CFI 35b3 .cfa: $esp 20 +
STACK CFI 35b6 $ebx: $ebx .cfa: $esp 16 +
STACK CFI 35b7 $esi: $esi .cfa: $esp 12 +
STACK CFI 35b8 $edi: $edi .cfa: $esp 8 +
STACK CFI 35b9 $ebp: $ebp .cfa: $esp 4 +
STACK CFI 35c0 $ebp: .cfa -8 + ^ $ebx: .cfa -20 + ^ $edi: .cfa -12 + ^ $esi: .cfa -16 + ^ .cfa: $esp 144 +
STACK CFI 35eb .cfa: $esp 20 +
STACK CFI 35ee $ebx: $ebx .cfa: $esp 16 +
STACK CFI 35ef $esi: $esi .cfa: $esp 12 +
STACK CFI 35f0 $edi: $edi .cfa: $esp 8 +
STACK CFI 35f1 $ebp: $ebp .cfa: $esp 4 +
STACK CFI 35f8 $ebp: .cfa -8 + ^ $ebx: .cfa -20 + ^ $edi: .cfa -12 + ^ $esi: .cfa -16 + ^ .cfa: $esp 144 +
STACK CFI INIT 3cb0 3da .cfa: $esp 4 + .ra: .cfa -4 + ^
STACK CFI 3cb1 $ebp: .cfa -8 + ^ .cfa: $esp 8 +
STACK CFI 3cb2 $edi: .cfa -12 + ^ .cfa: $esp 12 +
STACK CFI 3cb3 $esi: .cfa -16 + ^ .cfa: $esp 16 +
STACK CFI 3cb4 $ebx: .cfa -20 + ^ .cfa: $esp 20 +
STACK CFI 3cb7 .cfa: $esp 64 +
STACK CFI 3e39 .cfa: $esp 20 +
STACK CFI 3e3c $ebx: $ebx .cfa: $esp 16 +
STACK CFI 3e3d $esi: $esi .cfa: $esp 12 +
STACK CFI 3e3e $edi: $edi .cfa: $esp 8 +
STACK CFI 3e3f $ebp: $ebp .cfa: $esp 4 +
STACK CFI 3e40 $ebp: .cfa -8 + ^ $ebx: .cfa -20 + ^ $edi: .cfa -12 + ^ $esi: .cfa -16 + ^ .cfa: $esp 64 +
STACK CFI INIT 4090 cb .cfa: $esp 4 + .ra: .cfa -4 + ^
STACK CFI 4091 $ebp: .cfa -8 + ^ .cfa: $esp 8 +
STACK CFI 4092 $edi: .cfa -12 + ^ .cfa: $esp 12 +
STACK CFI 4093 $esi: .cfa -16 + ^ .cfa: $esp 16 +
STACK CFI 4094 $ebx: .cfa -20 + ^ .cfa: $esp 20 +
STACK CFI 4097 .cfa: $esp 64 +
STACK CFI 4141 .cfa: $esp 20 +
STACK CFI 4142 $ebx: $ebx .cfa: $esp 16 +
STACK CFI 4143 $esi: $esi .cfa: $esp 12 +
STACK CFI 4144 $edi: $edi .cfa: $esp 8 +
STACK CFI 4145 $ebp: $ebp .cfa: $esp 4 +
STACK CFI 4146 $ebp: .cfa -8 + ^ $ebx: .cfa -20 + ^ $edi: .cfa -12 + ^ $esi: .cfa -16 + ^ .cfa: $esp 64 +
STACK CFI INIT 4160 48 .cfa: $esp 4 + .ra: .cfa -4 + ^
STACK CFI 4161 $edi: .cfa -8 + ^ .cfa: $esp 8 +
STACK CFI 4162 $esi: .cfa -12 + ^ .cfa: $esp 12 +
STACK CFI 4163 $ebx: .cfa -16 + ^ .cfa: $esp 16 +
STACK CFI 4166 .cfa: $esp 32 +
STACK CFI 41a4 .cfa: $esp 16 +
STACK CFI 41a5 $ebx: $ebx .cfa: $esp 12 +
STACK CFI 41a6 $esi: $esi .cfa: $esp 8 +
STACK CFI 41a7 $edi: $edi .cfa: $esp 4 +
STACK CFI INIT 41b0 262 .cfa: $esp 4 + .ra: .cfa -4 + ^
STACK CFI 41b1 $ebp: .cfa -8 + ^ .cfa: $esp 8 +
STACK CFI 41b2 $edi: .cfa -12 + ^ .cfa: $esp 12 +
STACK CFI 41b3 $esi: .cfa -16 + ^ .cfa: $esp 16 +
STACK CFI 41b4 $ebx: .cfa -20 + ^ .cfa: $esp 20 +
STACK CFI 41b7 .cfa: $esp 80 +
STACK CFI 4322 .cfa: $esp 20 +
STACK CFI 4323 $ebx: $ebx .cfa: $esp 16 +
STACK CFI 4324 $esi: $esi .cfa: $esp 12 +
STACK CFI 4325 $edi: $edi .cfa: $esp 8 +
STACK CFI 4326 $ebp: $ebp .cfa: $esp 4 +
STACK CFI 4328 $ebp: .cfa -8 + ^ $ebx: .cfa -20 + ^ $edi: .cfa -12 + ^ $esi: .cfa -16 + ^ .cfa: $esp 80 +
STACK CFI INIT 4420 b3 .cfa: $esp 4 + .ra: .cfa -4 + ^
STACK CFI 4421 $ebp: .cfa -8 + ^ .cfa: $esp 8 +
STACK CFI 4422 $edi: .cfa -12 + ^ .cfa: $esp 12 +
STACK CFI 4423 $esi: .cfa -16 + ^ .cfa: $esp 16 +
STACK CFI 4424 $ebx: .cfa -20 + ^ .cfa: $esp 20 +
STACK CFI 4427 .cfa: $esp 48 +
STACK CFI 44ab .cfa: $esp 20 +
STACK CFI 44ac $ebx: $ebx .cfa: $esp 16 +
STACK CFI 44ad $esi: $esi .cfa: $esp 12 +
STACK CFI 44ae $edi: $edi .cfa: $esp 8 +
STACK CFI 44af $ebp: $ebp .cfa: $esp 4 +
STACK CFI 44b0 $ebp: .cfa -8 + ^ $ebx: .cfa -20 + ^ $edi: .cfa -12 + ^ $esi: .cfa -16 + ^ .cfa: $esp 48 +
STACK CFI INIT 44e0 30b .cfa: $esp 4 + .ra: .cfa -4 + ^
STACK CFI 44e1 $ebp: .cfa -8 + ^ .cfa: $esp 8 +
STACK CFI 44e4 $edi: .cfa -12 + ^ .cfa: $esp 12 +
STACK CFI 44e5 $esi: .cfa -16 + ^ .cfa: $esp 16 +
STACK CFI 44e6 $ebx: .cfa -20 + ^ .cfa: $esp 20 +
STACK CFI 44e9 .cfa: $esp 80 +
STACK CFI 4535 .cfa: $esp 20 +
STACK CFI 4536 $ebx: $ebx .cfa: $esp 16 +
STACK CFI 4537 $esi: $esi .cfa: $esp 12 +
STACK CFI 4538 $edi: $edi .cfa: $esp 8 +
STACK CFI 4539 $ebp: $ebp .cfa: $esp 4 +
STACK CFI 4540 $ebp: .cfa -8 + ^ $ebx: .cfa -20 + ^ $edi: .cfa -12 + ^ $esi: .cfa -16 + ^ .cfa: $esp 80 +
STACK CFI INIT 47f0 32 .cfa: $esp 4 + .ra: .cfa -4 + ^
STACK CFI INIT 4830 3d .cfa: $esp 4 + .ra: .cfa -4 + ^
STACK CFI 4831 $edi: .cfa -8 + ^ .cfa: $esp 8 +
STACK CFI 4834 $esi: .cfa -12 + ^ .cfa: $esp 12 +
STACK CFI 4835 $ebx: .cfa -16 + ^ .cfa: $esp 16 +
STACK CFI 4838 .cfa: $esp 32 +
STACK CFI 4867 .cfa: $esp 16 +
STACK CFI 486a $ebx: $ebx .cfa: $esp 12 +
STACK CFI 486b $esi: $esi .cfa: $esp 8 +
STACK CFI 486c $edi: $edi .cfa: $esp 4 +
STACK CFI INIT 4870 63 .cfa: $esp 4 + .ra: .cfa -4 + ^
STACK CFI 4871 $ebp: .cfa -8 + ^ .cfa: $esp 8 +
STACK CFI 4872 $edi: .cfa -12 + ^ .cfa: $esp 12 +
STACK CFI 4873 $esi: .cfa -16 + ^ .cfa: $esp 16 +
STACK CFI 4874 $ebx: .cfa -20 + ^ .cfa: $esp 20 +
STACK CFI 4877 .cfa: $esp 64 +
STACK CFI 48ce .cfa: $esp 20 +
STACK CFI 48cf $ebx: $ebx .cfa: $esp 16 +
STACK CFI 48d0 $esi: $esi .cfa: $esp 12 +
STACK CFI 48d1 $edi: $edi .cfa: $esp 8 +
STACK CFI 48d2 $ebp: $ebp .cfa: $esp 4 +
STACK CFI INIT 48e0 67 .cfa: $esp 4 + .ra: .cfa -4 + ^
STACK CFI 48e1 $ebp: .cfa -8 + ^ .cfa: $esp 8 +
STACK CFI 48e2 $edi: .cfa -12 + ^ .cfa: $esp 12 +
STACK CFI 48e3 $esi: .cfa -16 + ^ .cfa: $esp 16 +
STACK CFI 48e4 $ebx: .cfa -20 + ^ .cfa: $esp 20 +
STACK CFI 48f2 .cfa: $esp 64 +
STACK CFI 4942 .cfa: $esp 20 +
STACK CFI 4943 $ebx: $ebx .cfa: $esp 16 +
STACK CFI 4944 $esi: $esi .cfa: $esp 12 +
STACK CFI 4945 $edi: $edi .cfa: $esp 8 +
STACK CFI 4946 $ebp: $ebp .cfa: $esp 4 +
STACK CFI INIT 4950 a7 .cfa: $esp 4 + .ra: .cfa -4 + ^
STACK CFI 4951 $ebp: .cfa -8 + ^ .cfa: $esp 8 +
STACK CFI 4952 $edi: .cfa -12 + ^ .cfa: $esp 12 +
STACK CFI 4953 $esi: .cfa -16 + ^ .cfa: $esp 16 +
STACK CFI 4954 $ebx: .cfa -20 + ^ .cfa: $esp 20 +
STACK CFI 4957 .cfa: $esp 64 +
STACK CFI 49de .cfa: $esp 20 +
STACK CFI 49df $ebx: $ebx .cfa: $esp 16 +
STACK CFI 49e0 $esi: $esi .cfa: $esp 12 +
STACK CFI 49e1 $edi: $edi .cfa: $esp 8 +
STACK CFI 49e2 $ebp: $ebp .cfa: $esp 4 +
STACK CFI 49e3 $ebp: .cfa -8 + ^ $ebx: .cfa -20 + ^ $edi: .cfa -12 + ^ $esi: .cfa -16 + ^ .cfa: $esp 64 +
STACK CFI INIT 4a00 bb .cfa: $esp 4 + .ra: .cfa -4 + ^
STACK CFI 4a01 $ebp: .cfa -8 + ^ .cfa: $esp 8 +
STACK CFI 4a02 $edi: .cfa -12 + ^ .cfa: $esp 12 +
STACK CFI 4a03 $esi: .cfa -16 + ^ .cfa: $esp 16 +
STACK CFI 4a04 $ebx: .cfa -20 + ^ .cfa: $esp 20 +
STACK CFI 4a07 .cfa: $esp 64 +
STACK CFI 4aa2 .cfa: $esp 20 +
STACK CFI 4aa3 $ebx: $ebx .cfa: $esp 16 +
STACK CFI 4aa4 $esi: $esi .cfa: $esp 12 +
STACK CFI 4aa5 $edi: $edi .cfa: $esp 8 +
STACK CFI 4aa6 $ebp: $ebp .cfa: $esp 4 +
STACK CFI 4aa7 $ebp: .cfa -8 + ^ $ebx: .cfa -20 + ^ $edi: .cfa -12 + ^ $esi: .cfa -16 + ^ .cfa: $esp 64 +
STACK CFI INIT 4ac0 8 .cfa: $esp 4 + .ra: .cfa -4 + ^
STACK CFI INIT 4ad0 f .cfa: $esp 4 + .ra: .cfa -4 + ^
STACK CFI INIT 4ae0 95 .cfa: $esp 4 + .ra: .cfa -4 + ^
STACK CFI 4ae1 $ebp: .cfa -8 + ^ .cfa: $esp 8 +
STACK CFI 4ae4 $edi: .cfa -12 + ^ .cfa: $esp 12 +
STACK CFI 4aea $esi: .cfa -16 + ^ .cfa: $esp 16 +
STACK CFI 4aeb $ebx: .cfa -20 + ^ .cfa: $esp 20 +
STACK CFI 4af9 .cfa: $esp 48 +
STACK CFI 4b4b .cfa: $esp 20 +
STACK CFI 4b4e $ebx: $ebx .cfa: $esp 16 +
STACK CFI 4b4f $esi: $esi .cfa: $esp 12 +
STACK CFI 4b50 $edi: $edi .cfa: $esp 8 +
STACK CFI 4b51 $ebp: $ebp .cfa: $esp 4 +
STACK CFI 4b52 $ebp: .cfa -8 + ^ $ebx: .cfa -20 + ^ $edi: .cfa -12 + ^ $esi: .cfa -16 + ^ .cfa: $esp 48 +
STACK CFI INIT 4b80 256 .cfa: $esp 4 + .ra: .cfa -4 + ^
STACK CFI 4b81 $ebp: .cfa -8 + ^ .cfa: $esp 8 +
STACK CFI 4b82 $edi: .cfa -12 + ^ .cfa: $esp 12 +
STACK CFI 4b83 $esi: .cfa -16 + ^ .cfa: $esp 16 +
STACK CFI 4b84 $ebx: .cfa -20 + ^ .cfa: $esp 20 +
STACK CFI 4b87 .cfa: $esp 112 +
STACK CFI 4d4b .cfa: $esp 20 +
STACK CFI 4d4c $ebx: $ebx .cfa: $esp 16 +
STACK CFI 4d4d $esi: $esi .cfa: $esp 12 +
STACK CFI 4d4e $edi: $edi .cfa: $esp 8 +
STACK CFI 4d4f $ebp: $ebp .cfa: $esp 4 +
STACK CFI 4d50 $ebp: .cfa -8 + ^ $ebx: .cfa -20 + ^ $edi: .cfa -12 + ^ $esi: .cfa -16 + ^ .cfa: $esp 112 +
STACK CFI 4d96 .cfa: $esp 20 +
STACK CFI 4d99 $ebx: $ebx .cfa: $esp 16 +
STACK CFI 4d9a $esi: $esi .cfa: $esp 12 +
STACK CFI 4d9b $edi: $edi .cfa: $esp 8 +
STACK CFI 4d9c $ebp: $ebp .cfa: $esp 4 +
STACK CFI 4d9d $ebp: .cfa -8 + ^ $ebx: .cfa -20 + ^ $edi: .cfa -12 + ^ $esi: .cfa -16 + ^ .cfa: $esp 112 +
STACK CFI 4dcc .cfa: $esp 20 +
STACK CFI 4dcd $ebx: $ebx .cfa: $esp 16 +
STACK CFI 4dce $esi: $esi .cfa: $esp 12 +
STACK CFI 4dcf $edi: $edi .cfa: $esp 8 +
STACK CFI 4dd0 $ebp: $ebp .cfa: $esp 4 +
STACK CFI 4dd1 $ebp: .cfa -8 + ^ $ebx: .cfa -20 + ^ $edi: .cfa -12 + ^ $esi: .cfa -16 + ^ .cfa: $esp 112 +
STACK CFI INIT 4de0 8 .cfa: $esp 4 + .ra: .cfa -4 + ^
STACK CFI INIT 4df0 b .cfa: $esp 4 + .ra: .cfa -4 + ^
STACK CFI INIT 4e00 dd .cfa: $esp 4 + .ra: .cfa -4 + ^
STACK CFI 4e03 .cfa: $esp 48 +
STACK CFI 4e0b $ebx: .cfa -20 + ^
STACK CFI 4e22 $ebp: .cfa -8 + ^ $edi: .cfa -12 + ^ $esi: .cfa -16 + ^
STACK CFI 4ebe $ebp: $ebp $ebx: $ebx $edi: $edi $esi: $esi .cfa: $esp 4 +
STACK CFI 4ec0 $ebp: .cfa -8 + ^ $ebx: .cfa -20 + ^ $edi: .cfa -12 + ^ $esi: .cfa -16 + ^ .cfa: $esp 48 +
STACK CFI INIT 4ee0 bd .cfa: $esp 4 + .ra: .cfa -4 + ^
STACK CFI 4ee3 .cfa: $esp 48 +
STACK CFI 4eeb $ebx: .cfa -20 + ^
STACK CFI 4f02 $ebp: .cfa -8 + ^ $edi: .cfa -12 + ^ $esi: .cfa -16 + ^
STACK CFI 4f81 $ebp: $ebp $ebx: $ebx $edi: $edi $esi: $esi .cfa: $esp 4 +
STACK CFI 4f88 $ebp: .cfa -8 + ^ $ebx: .cfa -20 + ^ $edi: .cfa -12 + ^ $esi: .cfa -16 + ^ .cfa: $esp 48 +
STACK CFI INIT 4fa0 4c .cfa: $esp 4 + .ra: .cfa -4 + ^
STACK CFI 4fa1 $ebx: .cfa -8 + ^ .cfa: $esp 8 +
STACK CFI 4fa4 .cfa: $esp 48 +
STACK CFI 4fea .cfa: $esp 8 +
STACK CFI 4feb $ebx: $ebx .cfa: $esp 4 +
STACK CFI INIT 4ff0 2e .cfa: $esp 4 + .ra: .cfa -4 + ^
STACK CFI INIT 5020 4c .cfa: $esp 4 + .ra: .cfa -4 + ^
STACK CFI 5021 $ebx: .cfa -8 + ^ .cfa: $esp 8 +
STACK CFI 502f .cfa: $esp 48 +
STACK CFI 506a .cfa: $esp 8 +
STACK CFI 506b $ebx: $ebx .cfa: $esp 4 +
STACK CFI INIT 5070 4c .cfa: $esp 4 + .ra: .cfa -4 + ^
STACK CFI 5071 $ebx: .cfa -8 + ^ .cfa: $esp 8 +
STACK CFI 507f .cfa: $esp 48 +
STACK CFI 50ba .cfa: $esp 8 +
STACK CFI 50bb $ebx: $ebx .cfa: $esp 4 +
STACK CFI INIT 50c0 77 .cfa: $esp 4 + .ra: .cfa -4 + ^
STACK CFI 50c1 $ebp: .cfa -8 + ^ .cfa: $esp 8 +
STACK CFI 50c2 $edi: .cfa -12 + ^ .cfa: $esp 12 +
STACK CFI 50c3 $esi: .cfa -16 + ^ .cfa: $esp 16 +
STACK CFI 50c6 .cfa: $esp 32 +
STACK CFI 5105 .cfa: $esp 16 +
STACK CFI 5106 $esi: $esi .cfa: $esp 12 +
STACK CFI 5107 $edi: $edi .cfa: $esp 8 +
STACK CFI 5108 $ebp: $ebp .cfa: $esp 4 +
STACK CFI 5110 $ebp: .cfa -8 + ^ $edi: .cfa -12 + ^ $esi: .cfa -16 + ^ .cfa: $esp 32 +
STACK CFI 5133 .cfa: $esp 16 +
STACK CFI 5134 $esi: $esi .cfa: $esp 12 +
STACK CFI 5135 $edi: $edi .cfa: $esp 8 +
STACK CFI 5136 $ebp: $ebp .cfa: $esp 4 +
STACK CFI INIT 5140 103 .cfa: $esp 4 + .ra: .cfa -4 + ^
STACK CFI 5141 $ebp: .cfa -8 + ^ .cfa: $esp 8 +
STACK CFI 5142 $edi: .cfa -12 + ^ .cfa: $esp 12 +
STACK CFI 5143 $esi: .cfa -16 + ^ .cfa: $esp 16 +
STACK CFI 5144 $ebx: .cfa -20 + ^ .cfa: $esp 20 +
STACK CFI 5147 .cfa: $esp 64 +
STACK CFI 520c .cfa: $esp 20 +
STACK CFI 520d $ebx: $ebx .cfa: $esp 16 +
STACK CFI 520e $esi: $esi .cfa: $esp 12 +
STACK CFI 520f $edi: $edi .cfa: $esp 8 +
STACK CFI 5210 $ebp: $ebp .cfa: $esp 4 +
STACK CFI 5218 $ebp: .cfa -8 + ^ $ebx: .cfa -20 + ^ $edi: .cfa -12 + ^ $esi: .cfa -16 + ^ .cfa: $esp 64 +
STACK CFI INIT 5250 154 .cfa: $esp 4 + .ra: .cfa -4 + ^
STACK CFI 5251 $ebp: .cfa -8 + ^ .cfa: $esp 8 +
STACK CFI 5252 $edi: .cfa -12 + ^ .cfa: $esp 12 +
STACK CFI 5253 $esi: .cfa -16 + ^ .cfa: $esp 16 +
STACK CFI 5254 $ebx: .cfa -20 + ^ .cfa: $esp 20 +
STACK CFI 5257 .cfa: $esp 80 +
STACK CFI 538d .cfa: $esp 20 +
STACK CFI 5390 $ebx: $ebx .cfa: $esp 16 +
STACK CFI 5391 $esi: $esi .cfa: $esp 12 +
STACK CFI 5392 $edi: $edi .cfa: $esp 8 +
STACK CFI 5393 $ebp: $ebp .cfa: $esp 4 +
STACK CFI 5398 $ebp: .cfa -8 + ^ $ebx: .cfa -20 + ^ $edi: .cfa -12 + ^ $esi: .cfa -16 + ^ .cfa: $esp 80 +
STACK CFI 539b .cfa: $esp 20 +
STACK CFI 539e $ebx: $ebx .cfa: $esp 16 +
STACK CFI 53a1 $esi: $esi .cfa: $esp 12 +
STACK CFI 53a2 $edi: $edi .cfa: $esp 8 +
STACK CFI 53a3 $ebp: $ebp .cfa: $esp 4 +
STACK CFI INIT 53b0 47 .cfa: $esp 4 + .ra: .cfa -4 + ^
STACK CFI 53b3 .cfa: $esp 32 +
STACK CFI 53b7 $esi: .cfa -12 + ^
STACK CFI 53bf $edi: .cfa -8 + ^
STACK CFI 53c7 $ebx: .cfa -16 + ^
STACK CFI 53f6 $ebx: $ebx $edi: $edi $esi: $esi .cfa: $esp 4 +
STACK CFI INIT 5400 224 .cfa: $esp 4 + .ra: .cfa -4 + ^
STACK CFI 5401 $ebp: .cfa -8 + ^ .cfa: $esp 8 +
STACK CFI 5402 $edi: .cfa -12 + ^ .cfa: $esp 12 +
STACK CFI 5403 $esi: .cfa -16 + ^ .cfa: $esp 16 +
STACK CFI 5404 $ebx: .cfa -20 + ^ .cfa: $esp 20 +
STACK CFI 5407 .cfa: $esp 80 +
STACK CFI 55a1 .cfa: $esp 20 +
STACK CFI 55a2 $ebx: $ebx .cfa: $esp 16 +
STACK CFI 55a3 $esi: $esi .cfa: $esp 12 +
STACK CFI 55a4 $edi: $edi .cfa: $esp 8 +
STACK CFI 55a5 $ebp: $ebp .cfa: $esp 4 +
STACK CFI 55a8 $ebp: .cfa -8 + ^ $ebx: .cfa -20 + ^ $edi: .cfa -12 + ^ $esi: .cfa -16 + ^ .cfa: $esp 80 +
STACK CFI 55b6 .cfa: $esp 20 +
STACK CFI 55b7 $ebx: $ebx .cfa: $esp 16 +
STACK CFI 55b8 $esi: $esi .cfa: $esp 12 +
STACK CFI 55b9 $edi: $edi .cfa: $esp 8 +
STACK CFI 55ba $ebp: $ebp .cfa: $esp 4 +
STACK CFI 55c0 $ebp: .cfa -8 + ^ $ebx: .cfa -20 + ^ $edi: .cfa -12 + ^ $esi: .cfa -16 + ^ .cfa: $esp 80 +
STACK CFI 55f6 .cfa: $esp 20 +
STACK CFI 55f7 $ebx: $ebx .cfa: $esp 16 +
STACK CFI 55f8 $esi: $esi .cfa: $esp 12 +
STACK CFI 55f9 $edi: $edi .cfa: $esp 8 +
STACK CFI 55fa $ebp: $ebp .cfa: $esp 4 +
STACK CFI 55fb $ebp: .cfa -8 + ^ $ebx: .cfa -20 + ^ $edi: .cfa -12 + ^ $esi: .cfa -16 + ^ .cfa: $esp 80 +
STACK CFI 561f .cfa: $esp 20 +
STACK CFI 5620 $ebx: $ebx .cfa: $esp 16 +
STACK CFI 5621 $esi: $esi .cfa: $esp 12 +
STACK CFI 5622 $edi: $edi .cfa: $esp 8 +
STACK CFI 5623 $ebp: $ebp .cfa: $esp 4 +
STACK CFI INIT 5630 4f .cfa: $esp 4 + .ra: .cfa -4 + ^
STACK CFI 5633 .cfa: $esp 32 +
STACK CFI 5637 $esi: .cfa -12 + ^
STACK CFI 563f $edi: .cfa -8 + ^
STACK CFI 5647 $ebx: .cfa -16 + ^
STACK CFI 567e $ebx: $ebx $edi: $edi $esi: $esi .cfa: $esp 4 +
STACK CFI INIT 5680 6c .cfa: $esp 4 + .ra: .cfa -4 + ^
STACK CFI 5683 .cfa: $esp 32 +
STACK CFI 568b $ebx: .cfa -16 + ^
STACK CFI 569a $esi: .cfa -12 + ^
STACK CFI 56b2 $edi: .cfa -8 + ^
STACK CFI 56eb $ebx: $ebx $edi: $edi $esi: $esi .cfa: $esp 4 +
STACK CFI INIT 56f0 47 .cfa: $esp 4 + .ra: .cfa -4 + ^
STACK CFI 56f3 .cfa: $esp 32 +
STACK CFI 56f7 $esi: .cfa -12 + ^
STACK CFI 56ff $edi: .cfa -8 + ^
STACK CFI 5707 $ebx: .cfa -16 + ^
STACK CFI 5736 $ebx: $ebx $edi: $edi $esi: $esi .cfa: $esp 4 +
STACK CFI INIT 5740 69 .cfa: $esp 4 + .ra: .cfa -4 + ^
STACK CFI 5743 .cfa: $esp 32 +
STACK CFI 5747 $esi: .cfa -12 + ^
STACK CFI 574f $edi: .cfa -8 + ^
STACK CFI 5757 $ebx: .cfa -16 + ^
STACK CFI 57a3 $ebx: $ebx $edi: $edi $esi: $esi .cfa: $esp 4 +
STACK CFI 57a4 $ebx: .cfa -16 + ^ $edi: .cfa -8 + ^ $esi: .cfa -12 + ^ .cfa: $esp 32 +
STACK CFI INIT 57b0 44 .cfa: $esp 4 + .ra: .cfa -4 + ^
STACK CFI 57b1 $ebp: .cfa -8 + ^ .cfa: $esp 8 +
STACK CFI 57b2 $edi: .cfa -12 + ^ .cfa: $esp 12 +
STACK CFI 57b3 $esi: .cfa -16 + ^ .cfa: $esp 16 +
STACK CFI 57b6 .cfa: $esp 32 +
STACK CFI 57f0 .cfa: $esp 16 +
STACK CFI 57f1 $esi: $esi .cfa: $esp 12 +
STACK CFI 57f2 $edi: $edi .cfa: $esp 8 +
STACK CFI 57f3 $ebp: $ebp .cfa: $esp 4 +
STACK CFI INIT 5800 61 .cfa: $esp 4 + .ra: .cfa -4 + ^
STACK CFI 5803 .cfa: $esp 32 +
STACK CFI 5807 $esi: .cfa -8 + ^
STACK CFI 580f $ebx: .cfa -12 + ^
STACK CFI 5852 $ebx: $ebx $esi: $esi .cfa: $esp 4 +
STACK CFI 5858 $ebx: .cfa -12 + ^ $esi: .cfa -8 + ^ .cfa: $esp 32 +
STACK CFI INIT 5870 4e .cfa: $esp 4 + .ra: .cfa -4 + ^
STACK CFI 5873 .cfa: $esp 24 +
STACK CFI 587f $edi: .cfa -8 + ^ $esi: .cfa -12 + ^
STACK CFI 58ac $edi: $edi $esi: $esi .cfa: $esp 4 +
STACK CFI 58b0 $edi: .cfa -8 + ^ $esi: .cfa -12 + ^ .cfa: $esp 24 +
STACK CFI 58bd $edi: $edi $esi: $esi .cfa: $esp 4 +
STACK CFI INIT 58c0 26 .cfa: $esp 4 + .ra: .cfa -4 + ^
STACK CFI INIT 58f0 2c4 .cfa: $esp 4 + .ra: .cfa -4 + ^
STACK CFI 58f1 $ebp: .cfa -8 + ^ .cfa: $esp 8 +
STACK CFI 58f2 $edi: .cfa -12 + ^ .cfa: $esp 12 +
STACK CFI 58f3 $esi: .cfa -16 + ^ .cfa: $esp 16 +
STACK CFI 58f4 $ebx: .cfa -20 + ^ .cfa: $esp 20 +
STACK CFI 58f7 .cfa: $esp 24 +
STACK CFI 5aef .cfa: $esp 20 +
STACK CFI 5af3 $ebx: $ebx .cfa: $esp 16 +
STACK CFI 5af6 $esi: $esi .cfa: $esp 12 +
STACK CFI 5af7 $edi: $edi .cfa: $esp 8 +
STACK CFI 5af8 $ebp: $ebp .cfa: $esp 4 +
STACK CFI 5b00 $ebp: .cfa -8 + ^ $ebx: .cfa -20 + ^ $edi: .cfa -12 + ^ $esi: .cfa -16 + ^ .cfa: $esp 24 +
STACK CFI INIT 5bc0 1d1 .cfa: $esp 4 + .ra: .cfa -4 + ^
STACK CFI 5bc3 .cfa: $esp 64 +
STACK CFI 5bc7 $ebx: .cfa -20 + ^
STACK CFI 5bde $ebp: .cfa -8 + ^ $edi: .cfa -12 + ^ $esi: .cfa -16 + ^
STACK CFI 5bfd $ebp: $ebp $ebx: $ebx $edi: $edi $esi: $esi .cfa: $esp 4 +
STACK CFI 5c00 $ebp: .cfa -8 + ^ $ebx: .cfa -20 + ^ $edi: .cfa -12 + ^ $esi: .cfa -16 + ^ .cfa: $esp 64 +
STACK CFI INIT 5da0 112 .cfa: $esp 4 + .ra: .cfa -4 + ^
STACK CFI 5da3 .cfa: $esp 64 +
STACK CFI 5da7 $ebx: .cfa -20 + ^
STACK CFI 5db6 $edi: .cfa -12 + ^
STACK CFI 5dc2 $ebp: .cfa -8 + ^ $esi: .cfa -16 + ^
STACK CFI 5e67 $ebp: $ebp $ebx: $ebx $edi: $edi $esi: $esi .cfa: $esp 4 +
STACK CFI 5e68 $ebp: .cfa -8 + ^ $ebx: .cfa -20 + ^ $edi: .cfa -12 + ^ $esi: .cfa -16 + ^ .cfa: $esp 64 +
STACK CFI INIT 5ec0 117 .cfa: $esp 4 + .ra: .cfa -4 + ^
STACK CFI 5ec1 $ebp: .cfa -8 + ^ .cfa: $esp 8 +
STACK CFI 5ec2 $edi: .cfa -12 + ^ .cfa: $esp 12 +
STACK CFI 5ec3 $esi: .cfa -16 + ^ .cfa: $esp 16 +
STACK CFI 5ec6 $ebx: .cfa -20 + ^ .cfa: $esp 20 +
STACK CFI 5ec9 .cfa: $esp 80 +
STACK CFI 5f90 .cfa: $esp 20 +
STACK CFI 5f91 $ebx: $ebx .cfa: $esp 16 +
STACK CFI 5f92 $esi: $esi .cfa: $esp 12 +
STACK CFI 5f93 $edi: $edi .cfa: $esp 8 +
STACK CFI 5f94 $ebp: $ebp .cfa: $esp 4 +
STACK CFI 5f98 $ebp: .cfa -8 + ^ $ebx: .cfa -20 + ^ $edi: .cfa -12 + ^ $esi: .cfa -16 + ^ .cfa: $esp 80 +
STACK CFI 5fa7 .cfa: $esp 20 +
STACK CFI 5fa8 $ebx: $ebx .cfa: $esp 16 +
STACK CFI 5fa9 $esi: $esi .cfa: $esp 12 +
STACK CFI 5faa $edi: $edi .cfa: $esp 8 +
STACK CFI 5fab $ebp: $ebp .cfa: $esp 4 +
STACK CFI 5fb0 $ebp: .cfa -8 + ^ $ebx: .cfa -20 + ^ $edi: .cfa -12 + ^ $esi: .cfa -16 + ^ .cfa: $esp 80 +
STACK CFI INIT 5fe0 130 .cfa: $esp 4 + .ra: .cfa -4 + ^
STACK CFI 5fe3 .cfa: $esp 64 +
STACK CFI 5fe7 $ebp: .cfa -8 + ^
STACK CFI 5fef $ebx: .cfa -20 + ^
STACK CFI 6004 $edi: .cfa -12 + ^ $esi: .cfa -16 + ^
STACK CFI 6040 $ebp: $ebp $ebx: $ebx $edi: $edi $esi: $esi .cfa: $esp 4 +
STACK CFI 6048 $ebp: .cfa -8 + ^ $ebx: .cfa -20 + ^ $edi: .cfa -12 + ^ $esi: .cfa -16 + ^ .cfa: $esp 64 +
STACK CFI INIT 6110 a4 .cfa: $esp 4 + .ra: .cfa -4 + ^
STACK CFI 6111 $ebx: .cfa -8 + ^ .cfa: $esp 8 +
STACK CFI 611f .cfa: $esp 32 +
STACK CFI 61b2 .cfa: $esp 8 +
STACK CFI 61b3 $ebx: $ebx .cfa: $esp 4 +
STACK CFI INIT 61c0 69a .cfa: $esp 4 + .ra: .cfa -4 + ^
STACK CFI 61c3 .cfa: $esp 112 +
STACK CFI 61c7 $esi: .cfa -16 + ^
STACK CFI 61cf $ebx: .cfa -20 + ^
STACK CFI 61e5 $ebp: .cfa -8 + ^ $edi: .cfa -12 + ^
STACK CFI 6242 $ebp: $ebp $ebx: $ebx $edi: $edi $esi: $esi .cfa: $esp 4 +
STACK CFI 6248 $ebp: .cfa -8 + ^ $ebx: .cfa -20 + ^ $edi: .cfa -12 + ^ $esi: .cfa -16 + ^ .cfa: $esp 112 +
STACK CFI INIT 6860 58 .cfa: $esp 4 + .ra: .cfa -4 + ^
STACK CFI 6861 $ebx: .cfa -8 + ^ .cfa: $esp 8 +
STACK CFI 6864 .cfa: $esp 48 +
STACK CFI 68b6 .cfa: $esp 8 +
STACK CFI 68b7 $ebx: $ebx .cfa: $esp 4 +
STACK CFI INIT 68c0 c8 .cfa: $esp 4 + .ra: .cfa -4 + ^
STACK CFI 68c3 .cfa: $esp 48 +
STACK CFI 68c7 $esi: .cfa -12 + ^
STACK CFI 68cf $ebx: .cfa -16 + ^
STACK CFI 68de $edi: .cfa -8 + ^
STACK CFI 690f $ebx: $ebx $edi: $edi $esi: $esi .cfa: $esp 4 +
STACK CFI 6910 $ebx: .cfa -16 + ^ $edi: .cfa -8 + ^ $esi: .cfa -12 + ^ .cfa: $esp 48 +
STACK CFI 696e $ebx: $ebx $edi: $edi $esi: $esi .cfa: $esp 4 +
STACK CFI 696f $ebx: .cfa -16 + ^ $edi: .cfa -8 + ^ $esi: .cfa -12 + ^ .cfa: $esp 48 +
STACK CFI INIT 6990 ef .cfa: $esp 4 + .ra: .cfa -4 + ^
STACK CFI 6993 .cfa: $esp 80 +
STACK CFI 6997 $esi: .cfa -16 + ^
STACK CFI 69a3 $ebp: .cfa -8 + ^ $ebx: .cfa -20 + ^
STACK CFI 69b5 $edi: .cfa -12 + ^
STACK CFI 69ee $ebp: $ebp $ebx: $ebx $edi: $edi $esi: $esi .cfa: $esp 4 +
STACK CFI 69f0 $ebp: .cfa -8 + ^ $ebx: .cfa -20 + ^ $edi: .cfa -12 + ^ $esi: .cfa -16 + ^ .cfa: $esp 80 +
STACK CFI INIT 6a80 d4 .cfa: $esp 4 + .ra: .cfa -4 + ^
STACK CFI 6a81 $esi: .cfa -8 + ^ .cfa: $esp 8 +
STACK CFI 6a82 $ebx: .cfa -12 + ^ .cfa: $esp 12 +
STACK CFI 6a85 .cfa: $esp 48 +
STACK CFI 6af3 .cfa: $esp 12 +
STACK CFI 6af4 $ebx: $ebx .cfa: $esp 8 +
STACK CFI 6af5 $esi: $esi .cfa: $esp 4 +
STACK CFI 6af8 $ebx: .cfa -12 + ^ $esi: .cfa -8 + ^ .cfa: $esp 48 +
STACK CFI 6b21 .cfa: $esp 12 +
STACK CFI 6b22 $ebx: $ebx .cfa: $esp 8 +
STACK CFI 6b23 $esi: $esi .cfa: $esp 4 +
STACK CFI 6b28 $ebx: .cfa -12 + ^ $esi: .cfa -8 + ^ .cfa: $esp 48 +
STACK CFI INIT 6b60 3c .cfa: $esp 4 + .ra: .cfa -4 + ^
STACK CFI 6b61 $esi: .cfa -8 + ^ .cfa: $esp 8 +
STACK CFI 6b64 .cfa: $esp 32 +
STACK CFI 6b91 .cfa: $esp 8 +
STACK CFI 6b92 $esi: $esi .cfa: $esp 4 +
STACK CFI 6b98 $esi: .cfa -8 + ^ .cfa: $esp 32 +
STACK CFI INIT 6ba0 ae .cfa: $esp 4 + .ra: .cfa -4 + ^
STACK CFI 6ba3 .cfa: $esp 64 +
STACK CFI 6ba7 $esi: .cfa -16 + ^
STACK CFI 6baf $ebx: .cfa -20 + ^
STACK CFI 6bbe $edi: .cfa -12 + ^
STACK CFI 6bc9 $ebp: .cfa -8 + ^
STACK CFI 6c06 $ebp: $ebp $ebx: $ebx $edi: $edi $esi: $esi .cfa: $esp 4 +
STACK CFI 6c08 $ebp: .cfa -8 + ^ $ebx: .cfa -20 + ^ $edi: .cfa -12 + ^ $esi: .cfa -16 + ^ .cfa: $esp 64 +
STACK CFI INIT 6c50 c2 .cfa: $esp 4 + .ra: .cfa -4 + ^
STACK CFI 6c53 .cfa: $esp 64 +
STACK CFI 6c57 $esi: .cfa -16 + ^
STACK CFI 6c5f $ebx: .cfa -20 + ^
STACK CFI 6c6e $edi: .cfa -12 + ^
STACK CFI 6c79 $ebp: .cfa -8 + ^
STACK CFI 6cba $ebp: $ebp $ebx: $ebx $edi: $edi $esi: $esi .cfa: $esp 4 +
STACK CFI 6cc0 $ebp: .cfa -8 + ^ $ebx: .cfa -20 + ^ $edi: .cfa -12 + ^ $esi: .cfa -16 + ^ .cfa: $esp 64 +
STACK CFI INIT 6d20 11b .cfa: $esp 4 + .ra: .cfa -4 + ^
STACK CFI 6d21 $edi: .cfa -8 + ^ .cfa: $esp 8 +
STACK CFI 6d22 $esi: .cfa -12 + ^ .cfa: $esp 12 +
STACK CFI 6d23 $ebx: .cfa -16 + ^ .cfa: $esp 16 +
STACK CFI 6d26 .cfa: $esp 48 +
STACK CFI 6e01 .cfa: $esp 16 +
STACK CFI 6e02 $ebx: $ebx .cfa: $esp 12 +
STACK CFI 6e03 $esi: $esi .cfa: $esp 8 +
STACK CFI 6e04 $edi: $edi .cfa: $esp 4 +
STACK CFI 6e08 $ebx: .cfa -16 + ^ $edi: .cfa -8 + ^ $esi: .cfa -12 + ^ .cfa: $esp 48 +
STACK CFI INIT 6e40 2 .cfa: $esp 4 + .ra: .cfa -4 + ^
STACK CFI INIT 6e50 5c .cfa: $esp 4 + .ra: .cfa -4 + ^
STACK CFI 6e53 .cfa: $esp 32 +
STACK CFI 6e57 $ebx: .cfa -12 + ^
STACK CFI 6e66 $esi: .cfa -8 + ^
STACK CFI 6ea3 $ebx: $ebx $esi: $esi .cfa: $esp 4 +
STACK CFI 6ea8 $ebx: .cfa -12 + ^ $esi: .cfa -8 + ^ .cfa: $esp 32 +
STACK CFI INIT 6eb0 2a .cfa: $esp 4 + .ra: .cfa -4 + ^
STACK CFI 6eb1 $ebx: .cfa -8 + ^ .cfa: $esp 8 +
STACK CFI 6ebf .cfa: $esp 32 +
STACK CFI 6ed8 .cfa: $esp 8 +
STACK CFI 6ed9 $ebx: $ebx .cfa: $esp 4 +
STACK CFI INIT 6ee0 20 .cfa: $esp 4 + .ra: .cfa -4 + ^
STACK CFI 6ee1 $ebx: .cfa -8 + ^ .cfa: $esp 8 +
STACK CFI 6ee4 .cfa: $esp 32 +
STACK CFI 6efe .cfa: $esp 8 +
STACK CFI 6eff $ebx: $ebx .cfa: $esp 4 +
STACK CFI INIT 6f00 20 .cfa: $esp 4 + .ra: .cfa -4 + ^
STACK CFI 6f01 $ebx: .cfa -8 + ^ .cfa: $esp 8 +
STACK CFI 6f04 .cfa: $esp 32 +
STACK CFI 6f1e .cfa: $esp 8 +
STACK CFI 6f1f $ebx: $ebx .cfa: $esp 4 +
STACK CFI INIT 6f20 30 .cfa: $esp 4 + .ra: .cfa -4 + ^
STACK CFI 6f21 $ebx: .cfa -8 + ^ .cfa: $esp 8 +
STACK CFI 6f24 .cfa: $esp 32 +
STACK CFI 6f4e .cfa: $esp 8 +
STACK CFI 6f4f $ebx: $ebx .cfa: $esp 4 +
STACK CFI INIT 6f50 28 .cfa: $esp 4 + .ra: .cfa -4 + ^
STACK CFI 6f51 $ebx: .cfa -8 + ^ .cfa: $esp 8 +
STACK CFI 6f54 .cfa: $esp 32 +
STACK CFI 6f76 .cfa: $esp 8 +
STACK CFI 6f77 $ebx: $ebx .cfa: $esp 4 +
STACK CFI INIT 6f80 de .cfa: $esp 4 + .ra: .cfa -4 + ^
STACK CFI 6f83 .cfa: $esp 112 +
STACK CFI 6f8e $ebx: .cfa -16 + ^
STACK CFI 6f9d $esi: .cfa -12 + ^
STACK CFI 6fa7 $edi: .cfa -8 + ^
STACK CFI 7001 $ebx: $ebx $edi: $edi $esi: $esi .cfa: $esp 4 +
STACK CFI 7008 $ebx: .cfa -16 + ^ $edi: .cfa -8 + ^ $esi: .cfa -12 + ^ .cfa: $esp 112 +
STACK CFI INIT 7060 15e .cfa: $esp 4 + .ra: .cfa -4 + ^
STACK CFI 7061 $ebp: .cfa -8 + ^ .cfa: $esp 8 +
STACK CFI 7064 $edi: .cfa -12 + ^ .cfa: $esp 12 +
STACK CFI 7065 $esi: .cfa -16 + ^ .cfa: $esp 16 +
STACK CFI 7068 $ebx: .cfa -20 + ^ .cfa: $esp 20 +
STACK CFI 7076 .cfa: $esp 48 +
STACK CFI INIT 71c0 317 .cfa: $esp 4 + .ra: .cfa -4 + ^
STACK CFI 71c1 $esi: .cfa -8 + ^ .cfa: $esp 8 +
STACK CFI 71c2 $ebx: .cfa -12 + ^ .cfa: $esp 12 +
STACK CFI 71d0 .cfa: $esp 64 +
STACK CFI 7399 .cfa: $esp 12 +
STACK CFI 739c $ebx: $ebx .cfa: $esp 8 +
STACK CFI 739d $esi: $esi .cfa: $esp 4 +
STACK CFI 73a0 $ebx: .cfa -12 + ^ $esi: .cfa -8 + ^ .cfa: $esp 64 +
STACK CFI 73cc .cfa: $esp 12 +
STACK CFI 73cf $ebx: $ebx .cfa: $esp 8 +
STACK CFI 73d0 $esi: $esi .cfa: $esp 4 +
STACK CFI 73d8 $ebx: .cfa -12 + ^ $esi: .cfa -8 + ^ .cfa: $esp 64 +
STACK CFI INIT 74e0 3a .cfa: $esp 4 + .ra: .cfa -4 + ^
STACK CFI 74e1 $ebx: .cfa -8 + ^ .cfa: $esp 8 +
STACK CFI 74ef .cfa: $esp 32 +
STACK CFI 7518 .cfa: $esp 8 +
STACK CFI 7519 $ebx: $ebx .cfa: $esp 4 +
STACK CFI INIT 7520 8d .cfa: $esp 4 + .ra: .cfa -4 + ^
STACK CFI 7523 .cfa: $esp 64 +
STACK CFI 7527 $ebp: .cfa -8 + ^
STACK CFI 7533 $ebx: .cfa -20 + ^
STACK CFI 7546 $esi: .cfa -16 + ^
STACK CFI 7551 $edi: .cfa -12 + ^
STACK CFI 75ac $ebp: $ebp $ebx: $ebx $edi: $edi $esi: $esi .cfa: $esp 4 +
STACK CFI INIT 75b0 b5 .cfa: $esp 4 + .ra: .cfa -4 + ^
STACK CFI 75b3 .cfa: $esp 32 +
STACK CFI 75bb $ebx: .cfa -16 + ^
STACK CFI 75ce $esi: .cfa -12 + ^
STACK CFI 75e9 $edi: .cfa -8 + ^
STACK CFI 7646 $ebx: $ebx $edi: $edi $esi: $esi .cfa: $esp 4 +
STACK CFI 7648 $ebx: .cfa -16 + ^ $edi: .cfa -8 + ^ $esi: .cfa -12 + ^ .cfa: $esp 32 +
STACK CFI INIT 7670 b5 .cfa: $esp 4 + .ra: .cfa -4 + ^
STACK CFI 7673 .cfa: $esp 32 +
STACK CFI 767b $ebx: .cfa -16 + ^
STACK CFI 768e $esi: .cfa -12 + ^
STACK CFI 76a9 $edi: .cfa -8 + ^
STACK CFI 7706 $ebx: $ebx $edi: $edi $esi: $esi .cfa: $esp 4 +
STACK CFI 7708 $ebx: .cfa -16 + ^ $edi: .cfa -8 + ^ $esi: .cfa -12 + ^ .cfa: $esp 32 +
STACK CFI INIT 7730 11a .cfa: $esp 4 + .ra: .cfa -4 + ^
STACK CFI 7731 $ebp: .cfa -8 + ^ .cfa: $esp 8 +
STACK CFI 7732 $edi: .cfa -12 + ^ .cfa: $esp 12 +
STACK CFI 7733 $esi: .cfa -16 + ^ .cfa: $esp 16 +
STACK CFI 7734 $ebx: .cfa -20 + ^ .cfa: $esp 20 +
STACK CFI 7737 .cfa: $esp 96 +
STACK CFI 77fd .cfa: $esp 20 +
STACK CFI 77fe $ebx: $ebx .cfa: $esp 16 +
STACK CFI 77ff $esi: $esi .cfa: $esp 12 +
STACK CFI 7800 $edi: $edi .cfa: $esp 8 +
STACK CFI 7801 $ebp: $ebp .cfa: $esp 4 +
STACK CFI 7808 $ebp: .cfa -8 + ^ $ebx: .cfa -20 + ^ $edi: .cfa -12 + ^ $esi: .cfa -16 + ^ .cfa: $esp 96 +
STACK CFI 7837 .cfa: $esp 20 +
STACK CFI 7838 $ebx: $ebx .cfa: $esp 16 +
STACK CFI 7839 $esi: $esi .cfa: $esp 12 +
STACK CFI 783a $edi: $edi .cfa: $esp 8 +
STACK CFI 783b $ebp: $ebp .cfa: $esp 4 +
STACK CFI 7840 $ebp: .cfa -8 + ^ $ebx: .cfa -20 + ^ $edi: .cfa -12 + ^ $esi: .cfa -16 + ^ .cfa: $esp 96 +
STACK CFI 7843 .cfa: $esp 20 +
STACK CFI 7846 $ebx: $ebx .cfa: $esp 16 +
STACK CFI 7847 $esi: $esi .cfa: $esp 12 +
STACK CFI 7848 $edi: $edi .cfa: $esp 8 +
STACK CFI 7849 $ebp: $ebp .cfa: $esp 4 +
STACK CFI INIT 7850 2c .cfa: $esp 4 + .ra: .cfa -4 + ^
STACK CFI 7853 .cfa: $esp 32 +
STACK CFI 787b .cfa: $esp 4 +
STACK CFI INIT 7880 78 .cfa: $esp 4 + .ra: .cfa -4 + ^
STACK CFI 7881 $ebx: .cfa -8 + ^ .cfa: $esp 8 +
STACK CFI 7884 .cfa: $esp 48 +
STACK CFI 78e6 .cfa: $esp 8 +
STACK CFI 78e7 $ebx: $ebx .cfa: $esp 4 +
STACK CFI 78e8 $ebx: .cfa -8 + ^ .cfa: $esp 48 +
STACK CFI 78f6 .cfa: $esp 8 +
STACK CFI 78f7 $ebx: $ebx .cfa: $esp 4 +
STACK CFI INIT 7900 6c .cfa: $esp 4 + .ra: .cfa -4 + ^
STACK CFI 7903 .cfa: $esp 32 +
STACK CFI 790b $esi: .cfa -12 + ^
STACK CFI 7913 $ebx: .cfa -16 + ^
STACK CFI 7922 $edi: .cfa -8 + ^
STACK CFI 7960 $ebx: $ebx $edi: $edi $esi: $esi .cfa: $esp 4 +
STACK CFI 7968 $ebx: .cfa -16 + ^ $edi: .cfa -8 + ^ $esi: .cfa -12 + ^ .cfa: $esp 32 +
STACK CFI INIT 7970 3a .cfa: $esp 4 + .ra: .cfa -4 + ^
STACK CFI 7973 .cfa: $esp 32 +
STACK CFI 7977 $esi: .cfa -8 + ^
STACK CFI 797f $ebx: .cfa -12 + ^
STACK CFI 79a9 $ebx: $ebx $esi: $esi .cfa: $esp 4 +
STACK CFI INIT 79b0 64 .cfa: $esp 4 + .ra: .cfa -4 + ^
STACK CFI 79b3 .cfa: $esp 32 +
STACK CFI 79bf $ebx: .cfa -12 + ^
STACK CFI 79d2 $esi: .cfa -8 + ^
STACK CFI 79ef $ebx: $ebx $esi: $esi .cfa: $esp 4 +
STACK CFI 79f0 $ebx: .cfa -12 + ^ $esi: .cfa -8 + ^ .cfa: $esp 32 +
STACK CFI 7a13 $ebx: $ebx $esi: $esi .cfa: $esp 4 +
STACK CFI INIT 7a20 39 .cfa: $esp 4 + .ra: .cfa -4 + ^
STACK CFI 7a23 .cfa: $esp 32 +
STACK CFI 7a27 $esi: .cfa -8 + ^
STACK CFI 7a2f $ebx: .cfa -12 + ^
STACK CFI 7a58 $ebx: $ebx $esi: $esi .cfa: $esp 4 +
STACK CFI INIT 7a60 94 .cfa: $esp 4 + .ra: .cfa -4 + ^
STACK CFI 7a63 .cfa: $esp 48 +
STACK CFI 7a6b $edi: .cfa -12 + ^
STACK CFI 7a73 $ebx: .cfa -20 + ^
STACK CFI 7a90 $ebp: .cfa -8 + ^ $esi: .cfa -16 + ^
STACK CFI 7aea $ebp: $ebp $ebx: $ebx $edi: $edi $esi: $esi .cfa: $esp 4 +
STACK CFI 7af0 $ebp: .cfa -8 + ^ $ebx: .cfa -20 + ^ $edi: .cfa -12 + ^ $esi: .cfa -16 + ^ .cfa: $esp 48 +
STACK CFI INIT 7b00 80 .cfa: $esp 4 + .ra: .cfa -4 + ^
STACK CFI 7b03 .cfa: $esp 32 +
STACK CFI 7b07 $ebx: .cfa -16 + ^
STACK CFI 7b21 $edi: .cfa -8 + ^ $esi: .cfa -12 + ^
STACK CFI 7b73 $ebx: $ebx $edi: $edi $esi: $esi .cfa: $esp 4 +
STACK CFI 7b78 $ebx: .cfa -16 + ^ $edi: .cfa -8 + ^ $esi: .cfa -12 + ^ .cfa: $esp 32 +
STACK CFI INIT 7b80 b3 .cfa: $esp 4 + .ra: .cfa -4 + ^
STACK CFI 7b83 .cfa: $esp 64 +
STACK CFI 7b87 $ebx: .cfa -20 + ^
STACK CFI 7b9d $esi: .cfa -16 + ^
STACK CFI 7ba5 $edi: .cfa -12 + ^
STACK CFI 7bad $ebp: .cfa -8 + ^
STACK CFI 7bf4 $ebp: $ebp $ebx: $ebx $edi: $edi $esi: $esi .cfa: $esp 4 +
STACK CFI 7bf8 $ebp: .cfa -8 + ^ $ebx: .cfa -20 + ^ $edi: .cfa -12 + ^ $esi: .cfa -16 + ^ .cfa: $esp 64 +
STACK CFI INIT 7c40 23 .cfa: $esp 4 + .ra: .cfa -4 + ^
STACK CFI 7c43 .cfa: $esp 32 +
STACK CFI 7c62 .cfa: $esp 4 +
STACK CFI INIT 7c70 96 .cfa: $esp 4 + .ra: .cfa -4 + ^
STACK CFI 7c71 $ebp: .cfa -8 + ^ .cfa: $esp 8 +
STACK CFI 7c72 $edi: .cfa -12 + ^ .cfa: $esp 12 +
STACK CFI 7c73 $esi: .cfa -16 + ^ .cfa: $esp 16 +
STACK CFI 7c74 $ebx: .cfa -20 + ^ .cfa: $esp 20 +
STACK CFI 7c77 .cfa: $esp 48 +
STACK CFI 7d01 .cfa: $esp 20 +
STACK CFI 7d02 $ebx: $ebx .cfa: $esp 16 +
STACK CFI 7d03 $esi: $esi .cfa: $esp 12 +
STACK CFI 7d04 $edi: $edi .cfa: $esp 8 +
STACK CFI 7d05 $ebp: $ebp .cfa: $esp 4 +
STACK CFI INIT 7d10 11 .cfa: $esp 4 + .ra: .cfa -4 + ^
STACK CFI INIT 7d30 11 .cfa: $esp 4 + .ra: .cfa -4 + ^
STACK CFI INIT 7d50 23 .cfa: $esp 4 + .ra: .cfa -4 + ^
STACK CFI INIT 7d80 23 .cfa: $esp 4 + .ra: .cfa -4 + ^
STACK CFI INIT 7db0 15 .cfa: $esp 4 + .ra: .cfa -4 + ^
STACK CFI INIT 7dd0 15 .cfa: $esp 4 + .ra: .cfa -4 + ^
STACK CFI INIT 7df0 23 .cfa: $esp 4 + .ra: .cfa -4 + ^
STACK CFI INIT 7e20 23 .cfa: $esp 4 + .ra: .cfa -4 + ^
STACK CFI INIT 7e50 3d .cfa: $esp 4 + .ra: .cfa -4 + ^
STACK CFI 7e51 $ebx: .cfa -8 + ^ .cfa: $esp 8 +
STACK CFI 7e7d $ebx: $ebx .cfa: $esp 4 +
STACK CFI 7e80 $ebx: .cfa -8 + ^ .cfa: $esp 8 +
STACK CFI 7e8c $ebx: $ebx .cfa: $esp 4 +
STACK CFI INIT 7e90 20 .cfa: $esp 4 + .ra: .cfa -4 + ^
STACK CFI 7e91 $ebx: .cfa -8 + ^ .cfa: $esp 8 +
STACK CFI 7e94 .cfa: $esp 32 +
STACK CFI 7eae .cfa: $esp 8 +
STACK CFI 7eaf $ebx: $ebx .cfa: $esp 4 +
STACK CFI INIT 7eb0 20 .cfa: $esp 4 + .ra: .cfa -4 + ^
STACK CFI 7eb1 $ebx: .cfa -8 + ^ .cfa: $esp 8 +
STACK CFI 7eb4 .cfa: $esp 32 +
STACK CFI 7ece .cfa: $esp 8 +
STACK CFI 7ecf $ebx: $ebx .cfa: $esp 4 +
STACK CFI INIT 7ed0 20 .cfa: $esp 4 + .ra: .cfa -4 + ^
STACK CFI 7ed1 $ebx: .cfa -8 + ^ .cfa: $esp 8 +
STACK CFI 7ed4 .cfa: $esp 32 +
STACK CFI 7eee .cfa: $esp 8 +
STACK CFI 7eef $ebx: $ebx .cfa: $esp 4 +
STACK CFI INIT 7ef0 3e .cfa: $esp 4 + .ra: .cfa -4 + ^
STACK CFI 7ef3 .cfa: $esp 32 +
STACK CFI 7ef7 $ebx: .cfa -12 + ^
STACK CFI 7f06 $esi: .cfa -8 + ^
STACK CFI 7f2d $ebx: $ebx $esi: $esi .cfa: $esp 4 +
STACK CFI INIT 7f30 4a .cfa: $esp 4 + .ra: .cfa -4 + ^
STACK CFI 7f33 .cfa: $esp 32 +
STACK CFI 7f3b $ebx: .cfa -12 + ^
STACK CFI 7f4a $esi: .cfa -8 + ^
STACK CFI 7f79 $ebx: $ebx $esi: $esi .cfa: $esp 4 +
STACK CFI INIT 7f80 205 .cfa: $esp 4 + .ra: .cfa -4 + ^
STACK CFI 7f83 .cfa: $esp 112 +
STACK CFI 7f93 $ebx: .cfa -20 + ^ $edi: .cfa -12 + ^ $esi: .cfa -16 + ^
STACK CFI 7fa2 $ebp: .cfa -8 + ^
STACK CFI 7ffe $ebp: $ebp $ebx: $ebx $edi: $edi $esi: $esi .cfa: $esp 4 +
STACK CFI 8000 $ebp: .cfa -8 + ^ $ebx: .cfa -20 + ^ $edi: .cfa -12 + ^ $esi: .cfa -16 + ^ .cfa: $esp 112 +
STACK CFI INIT 8190 3c2 .cfa: $esp 4 + .ra: .cfa -4 + ^
STACK CFI 8191 $ebp: .cfa -8 + ^ .cfa: $esp 8 +
STACK CFI 8192 $edi: .cfa -12 + ^ .cfa: $esp 12 +
STACK CFI 8193 $esi: .cfa -16 + ^ .cfa: $esp 16 +
STACK CFI 8194 $ebx: .cfa -20 + ^ .cfa: $esp 20 +
STACK CFI 8197 .cfa: $esp 144 +
STACK CFI 8375 .cfa: $esp 20 +
STACK CFI 8376 $ebx: $ebx .cfa: $esp 16 +
STACK CFI 8377 $esi: $esi .cfa: $esp 12 +
STACK CFI 8378 $edi: $edi .cfa: $esp 8 +
STACK CFI 8379 $ebp: $ebp .cfa: $esp 4 +
STACK CFI 837a $ebp: .cfa -8 + ^ $ebx: .cfa -20 + ^ $edi: .cfa -12 + ^ $esi: .cfa -16 + ^ .cfa: $esp 144 +
STACK CFI 839b .cfa: $esp 20 +
STACK CFI 839c $ebx: $ebx .cfa: $esp 16 +
STACK CFI 839d $esi: $esi .cfa: $esp 12 +
STACK CFI 839e $edi: $edi .cfa: $esp 8 +
STACK CFI 839f $ebp: $ebp .cfa: $esp 4 +
STACK CFI 83a0 $ebp: .cfa -8 + ^ $ebx: .cfa -20 + ^ $edi: .cfa -12 + ^ $esi: .cfa -16 + ^ .cfa: $esp 144 +
STACK CFI INIT 8560 767 .cfa: $esp 4 + .ra: .cfa -4 + ^
STACK CFI 8561 $ebp: .cfa -8 + ^ .cfa: $esp 8 +
STACK CFI 8562 $edi: .cfa -12 + ^ .cfa: $esp 12 +
STACK CFI 8563 $esi: .cfa -16 + ^ .cfa: $esp 16 +
STACK CFI 8564 $ebx: .cfa -20 + ^ .cfa: $esp 20 +
STACK CFI 856a .cfa: $esp 208 +
STACK CFI 866f .cfa: $esp 20 +
STACK CFI 8670 $ebx: $ebx .cfa: $esp 16 +
STACK CFI 8671 $esi: $esi .cfa: $esp 12 +
STACK CFI 8672 $edi: $edi .cfa: $esp 8 +
STACK CFI 8673 $ebp: $ebp .cfa: $esp 4 +
STACK CFI 8678 $ebp: .cfa -8 + ^ $ebx: .cfa -20 + ^ $edi: .cfa -12 + ^ $esi: .cfa -16 + ^ .cfa: $esp 208 +
STACK CFI INIT 8cd0 11 .cfa: $esp 4 + .ra: .cfa -4 + ^
STACK CFI INIT 8cf0 11 .cfa: $esp 4 + .ra: .cfa -4 + ^
STACK CFI INIT 8d10 23 .cfa: $esp 4 + .ra: .cfa -4 + ^
STACK CFI INIT 8d40 23 .cfa: $esp 4 + .ra: .cfa -4 + ^
STACK CFI INIT 8d70 25 .cfa: $esp 4 + .ra: .cfa -4 + ^
STACK CFI INIT 8da0 25 .cfa: $esp 4 + .ra: .cfa -4 + ^
STACK CFI INIT 8dd0 62 .cfa: $esp 4 + .ra: .cfa -4 + ^
STACK CFI 8dd1 $edi: .cfa -8 + ^ .cfa: $esp 8 +
STACK CFI 8dd4 $esi: .cfa -12 + ^ .cfa: $esp 12 +
STACK CFI 8e21 $esi: $esi .cfa: $esp 8 +
STACK CFI 8e31 $edi: $edi .cfa: $esp 4 +
STACK CFI INIT 8e40 62 .cfa: $esp 4 + .ra: .cfa -4 + ^
STACK CFI 8e41 $edi: .cfa -8 + ^ .cfa: $esp 8 +
STACK CFI 8e44 $esi: .cfa -12 + ^ .cfa: $esp 12 +
STACK CFI 8e91 $esi: $esi .cfa: $esp 8 +
STACK CFI 8ea1 $edi: $edi .cfa: $esp 4 +
STACK CFI INIT 8eb0 15 .cfa: $esp 4 + .ra: .cfa -4 + ^
STACK CFI INIT 8ed0 15 .cfa: $esp 4 + .ra: .cfa -4 + ^
STACK CFI INIT 8ef0 23 .cfa: $esp 4 + .ra: .cfa -4 + ^
STACK CFI INIT 8f20 23 .cfa: $esp 4 + .ra: .cfa -4 + ^
STACK CFI INIT 8f50 23 .cfa: $esp 4 + .ra: .cfa -4 + ^
STACK CFI INIT 8f80 23 .cfa: $esp 4 + .ra: .cfa -4 + ^
STACK CFI INIT 8fb0 6e .cfa: $esp 4 + .ra: .cfa -4 + ^
STACK CFI 8fb3 .cfa: $esp 16 +
STACK CFI 8fc2 $ebp: .cfa -8 + ^ $esi: .cfa -16 + ^
STACK CFI 8fca $edi: .cfa -12 + ^
STACK CFI 901d $ebp: $ebp $edi: $edi $esi: $esi .cfa: $esp 4 +
STACK CFI INIT 9020 6e .cfa: $esp 4 + .ra: .cfa -4 + ^
STACK CFI 9023 .cfa: $esp 16 +
STACK CFI 9032 $ebp: .cfa -8 + ^ $esi: .cfa -16 + ^
STACK CFI 903a $edi: .cfa -12 + ^
STACK CFI 908d $ebp: $ebp $edi: $edi $esi: $esi .cfa: $esp 4 +
STACK CFI INIT 9090 20 .cfa: $esp 4 + .ra: .cfa -4 + ^
STACK CFI 9091 $ebx: .cfa -8 + ^ .cfa: $esp 8 +
STACK CFI 9094 .cfa: $esp 32 +
STACK CFI 90ae .cfa: $esp 8 +
STACK CFI 90af $ebx: $ebx .cfa: $esp 4 +
STACK CFI INIT 90b0 20 .cfa: $esp 4 + .ra: .cfa -4 + ^
STACK CFI 90b1 $ebx: .cfa -8 + ^ .cfa: $esp 8 +
STACK CFI 90b4 .cfa: $esp 32 +
STACK CFI 90ce .cfa: $esp 8 +
STACK CFI 90cf $ebx: $ebx .cfa: $esp 4 +
STACK CFI INIT 90d0 20 .cfa: $esp 4 + .ra: .cfa -4 + ^
STACK CFI 90d1 $ebx: .cfa -8 + ^ .cfa: $esp 8 +
STACK CFI 90d4 .cfa: $esp 32 +
STACK CFI 90ee .cfa: $esp 8 +
STACK CFI 90ef $ebx: $ebx .cfa: $esp 4 +
STACK CFI INIT 90f0 48 .cfa: $esp 4 + .ra: .cfa -4 + ^
STACK CFI 90f3 .cfa: $esp 32 +
STACK CFI 90f7 $ebx: .cfa -12 + ^
STACK CFI 9106 $esi: .cfa -8 + ^
STACK CFI 9137 $ebx: $ebx $esi: $esi .cfa: $esp 4 +
STACK CFI INIT 9140 5c .cfa: $esp 4 + .ra: .cfa -4 + ^
STACK CFI 9143 .cfa: $esp 32 +
STACK CFI 914b $ebx: .cfa -12 + ^
STACK CFI 915a $esi: .cfa -8 + ^
STACK CFI 919b $ebx: $ebx $esi: $esi .cfa: $esp 4 +
STACK CFI INIT 91a0 2db .cfa: $esp 4 + .ra: .cfa -4 + ^
STACK CFI 91a1 $ebp: .cfa -8 + ^ .cfa: $esp 8 +
STACK CFI 91a2 $edi: .cfa -12 + ^ .cfa: $esp 12 +
STACK CFI 91a3 $esi: .cfa -16 + ^ .cfa: $esp 16 +
STACK CFI 91a4 $ebx: .cfa -20 + ^ .cfa: $esp 20 +
STACK CFI 91a7 .cfa: $esp 128 +
STACK CFI 93d3 .cfa: $esp 20 +
STACK CFI 93d6 $ebx: $ebx .cfa: $esp 16 +
STACK CFI 93d7 $esi: $esi .cfa: $esp 12 +
STACK CFI 93d8 $edi: $edi .cfa: $esp 8 +
STACK CFI 93d9 $ebp: $ebp .cfa: $esp 4 +
STACK CFI 93e0 $ebp: .cfa -8 + ^ $ebx: .cfa -20 + ^ $edi: .cfa -12 + ^ $esi: .cfa -16 + ^ .cfa: $esp 128 +
STACK CFI 93ff .cfa: $esp 20 +
STACK CFI 9400 $ebx: $ebx .cfa: $esp 16 +
STACK CFI 9401 $esi: $esi .cfa: $esp 12 +
STACK CFI 9402 $edi: $edi .cfa: $esp 8 +
STACK CFI 9403 $ebp: $ebp .cfa: $esp 4 +
STACK CFI 9408 $ebp: .cfa -8 + ^ $ebx: .cfa -20 + ^ $edi: .cfa -12 + ^ $esi: .cfa -16 + ^ .cfa: $esp 128 +
STACK CFI 9470 .cfa: $esp 20 +
STACK CFI 9477 $ebx: $ebx .cfa: $esp 16 +
STACK CFI 9478 $esi: $esi .cfa: $esp 12 +
STACK CFI 9479 $edi: $edi .cfa: $esp 8 +
STACK CFI 947a $ebp: $ebp .cfa: $esp 4 +
STACK CFI INIT 9480 80 .cfa: $esp 4 + .ra: .cfa -4 + ^
STACK CFI 9481 $ebx: .cfa -8 + ^ .cfa: $esp 8 +
STACK CFI 94af $ebx: $ebx .cfa: $esp 4 +
STACK CFI 94b0 $ebx: .cfa -8 + ^ .cfa: $esp 8 +
STACK CFI 94da $ebx: $ebx .cfa: $esp 4 +
STACK CFI 94e0 $ebx: .cfa -8 + ^ .cfa: $esp 8 +
STACK CFI 94e9 $ebx: $ebx .cfa: $esp 4 +
STACK CFI 94f0 $ebx: .cfa -8 + ^ .cfa: $esp 8 +
STACK CFI INIT 9500 399 .cfa: $esp 4 + .ra: .cfa -4 + ^
STACK CFI 9506 .cfa: $esp 224 +
STACK CFI 950d $esi: .cfa -16 + ^
STACK CFI 9537 $ebp: .cfa -8 + ^ $ebx: .cfa -20 + ^ $edi: .cfa -12 + ^
STACK CFI 95f0 $ebp: $ebp $ebx: $ebx $edi: $edi $esi: $esi .cfa: $esp 4 +
STACK CFI 95f8 $ebp: .cfa -8 + ^ $ebx: .cfa -20 + ^ $edi: .cfa -12 + ^ $esi: .cfa -16 + ^ .cfa: $esp 224 +
STACK CFI INIT 98a0 210 .cfa: $esp 4 + .ra: .cfa -4 + ^
STACK CFI 98a6 .cfa: $esp 144 +
STACK CFI 98ad $esi: .cfa -16 + ^
STACK CFI 98bb $edi: .cfa -12 + ^
STACK CFI 98cd $ebp: .cfa -8 + ^ $ebx: .cfa -20 + ^
STACK CFI 99f4 $ebp: $ebp $ebx: $ebx $edi: $edi $esi: $esi .cfa: $esp 4 +
STACK CFI 99f8 $ebp: .cfa -8 + ^ $ebx: .cfa -20 + ^ $edi: .cfa -12 + ^ $esi: .cfa -16 + ^ .cfa: $esp 144 +
STACK CFI INIT 9ab0 7a1 .cfa: $esp 4 + .ra: .cfa -4 + ^
STACK CFI 9ab1 $ebp: .cfa -8 + ^ .cfa: $esp 8 +
STACK CFI 9ab2 $edi: .cfa -12 + ^ .cfa: $esp 12 +
STACK CFI 9ab3 $esi: .cfa -16 + ^ .cfa: $esp 16 +
STACK CFI 9ab4 $ebx: .cfa -20 + ^ .cfa: $esp 20 +
STACK CFI 9aba .cfa: $esp 192 +
STACK CFI 9e24 .cfa: $esp 20 +
STACK CFI 9e25 $ebx: $ebx .cfa: $esp 16 +
STACK CFI 9e26 $esi: $esi .cfa: $esp 12 +
STACK CFI 9e27 $edi: $edi .cfa: $esp 8 +
STACK CFI 9e28 $ebp: $ebp .cfa: $esp 4 +
STACK CFI 9e30 $ebp: .cfa -8 + ^ $ebx: .cfa -20 + ^ $edi: .cfa -12 + ^ $esi: .cfa -16 + ^ .cfa: $esp 192 +
STACK CFI 9fe6 .cfa: $esp 20 +
STACK CFI 9fe9 $ebx: $ebx .cfa: $esp 16 +
STACK CFI 9fea $esi: $esi .cfa: $esp 12 +
STACK CFI 9feb $edi: $edi .cfa: $esp 8 +
STACK CFI 9fec $ebp: $ebp .cfa: $esp 4 +
STACK CFI 9ff0 $ebp: .cfa -8 + ^ $ebx: .cfa -20 + ^ $edi: .cfa -12 + ^ $esi: .cfa -16 + ^ .cfa: $esp 192 +
STACK CFI INIT a260 23 .cfa: $esp 4 + .ra: .cfa -4 + ^
STACK CFI INIT a290 23 .cfa: $esp 4 + .ra: .cfa -4 + ^
STACK CFI INIT a2c0 62 .cfa: $esp 4 + .ra: .cfa -4 + ^
STACK CFI a2c1 $edi: .cfa -8 + ^ .cfa: $esp 8 +
STACK CFI a2c4 $esi: .cfa -12 + ^ .cfa: $esp 12 +
STACK CFI a311 $esi: $esi .cfa: $esp 8 +
STACK CFI a321 $edi: $edi .cfa: $esp 4 +
STACK CFI INIT a330 62 .cfa: $esp 4 + .ra: .cfa -4 + ^
STACK CFI a331 $edi: .cfa -8 + ^ .cfa: $esp 8 +
STACK CFI a334 $esi: .cfa -12 + ^ .cfa: $esp 12 +
STACK CFI a381 $esi: $esi .cfa: $esp 8 +
STACK CFI a391 $edi: $edi .cfa: $esp 4 +
STACK CFI INIT a3a0 23 .cfa: $esp 4 + .ra: .cfa -4 + ^
STACK CFI INIT a3d0 23 .cfa: $esp 4 + .ra: .cfa -4 + ^
STACK CFI INIT a400 6e .cfa: $esp 4 + .ra: .cfa -4 + ^
STACK CFI a403 .cfa: $esp 16 +
STACK CFI a412 $ebp: .cfa -8 + ^ $esi: .cfa -16 + ^
STACK CFI a41a $edi: .cfa -12 + ^
STACK CFI a46d $ebp: $ebp $edi: $edi $esi: $esi .cfa: $esp 4 +
STACK CFI INIT a470 6e .cfa: $esp 4 + .ra: .cfa -4 + ^
STACK CFI a473 .cfa: $esp 16 +
STACK CFI a482 $ebp: .cfa -8 + ^ $esi: .cfa -16 + ^
STACK CFI a48a $edi: .cfa -12 + ^
STACK CFI a4dd $ebp: $ebp $edi: $edi $esi: $esi .cfa: $esp 4 +
STACK CFI INIT a4e0 a5 .cfa: $esp 4 + .ra: .cfa -4 + ^
STACK CFI a4e3 .cfa: $esp 48 +
STACK CFI a4e7 $ebx: .cfa -20 + ^
STACK CFI a4f8 $esi: .cfa -16 + ^
STACK CFI a504 $ebp: .cfa -8 + ^ $edi: .cfa -12 + ^
STACK CFI a54c $ebp: $ebp $ebx: $ebx $edi: $edi $esi: $esi .cfa: $esp 4 +
STACK CFI a550 $ebp: .cfa -8 + ^ $ebx: .cfa -20 + ^ $edi: .cfa -12 + ^ $esi: .cfa -16 + ^ .cfa: $esp 48 +
STACK CFI INIT a590 44 .cfa: $esp 4 + .ra: .cfa -4 + ^
STACK CFI a591 $ebx: .cfa -8 + ^ .cfa: $esp 8 +
STACK CFI a5bb $ebx: $ebx .cfa: $esp 4 +
STACK CFI a5c0 $ebx: .cfa -8 + ^ .cfa: $esp 8 +
STACK CFI a5d3 $ebx: $ebx .cfa: $esp 4 +
STACK CFI INIT a5e0 20 .cfa: $esp 4 + .ra: .cfa -4 + ^
STACK CFI a5e1 $ebx: .cfa -8 + ^ .cfa: $esp 8 +
STACK CFI a5e4 .cfa: $esp 32 +
STACK CFI a5fe .cfa: $esp 8 +
STACK CFI a5ff $ebx: $ebx .cfa: $esp 4 +
STACK CFI INIT a600 20 .cfa: $esp 4 + .ra: .cfa -4 + ^
STACK CFI a601 $ebx: .cfa -8 + ^ .cfa: $esp 8 +
STACK CFI a604 .cfa: $esp 32 +
STACK CFI a61e .cfa: $esp 8 +
STACK CFI a61f $ebx: $ebx .cfa: $esp 4 +
STACK CFI INIT a620 38 .cfa: $esp 4 + .ra: .cfa -4 + ^
STACK CFI a623 .cfa: $esp 32 +
STACK CFI a627 $esi: .cfa -8 + ^
STACK CFI a62f $ebx: .cfa -12 + ^
STACK CFI a657 $ebx: $ebx $esi: $esi .cfa: $esp 4 +
STACK CFI INIT a660 54 .cfa: $esp 4 + .ra: .cfa -4 + ^
STACK CFI a663 .cfa: $esp 32 +
STACK CFI a667 $ebx: .cfa -12 + ^
STACK CFI a676 $esi: .cfa -8 + ^
STACK CFI a6b3 $ebx: $ebx $esi: $esi .cfa: $esp 4 +
STACK CFI INIT a6c0 58 .cfa: $esp 4 + .ra: .cfa -4 + ^
STACK CFI a6c3 .cfa: $esp 32 +
STACK CFI a6cb $ebx: .cfa -12 + ^
STACK CFI a6da $esi: .cfa -8 + ^
STACK CFI a717 $ebx: $ebx $esi: $esi .cfa: $esp 4 +
STACK CFI INIT a720 b5a .cfa: $esp 4 + .ra: .cfa -4 + ^
STACK CFI a721 $ebp: .cfa -8 + ^ .cfa: $esp 8 +
STACK CFI a722 $edi: .cfa -12 + ^ .cfa: $esp 12 +
STACK CFI a723 $esi: .cfa -16 + ^ .cfa: $esp 16 +
STACK CFI a724 $ebx: .cfa -20 + ^ .cfa: $esp 20 +
STACK CFI a72a .cfa: $esp 368 +
STACK CFI aa89 .cfa: $esp 20 +
STACK CFI aa8a $ebx: $ebx .cfa: $esp 16 +
STACK CFI aa8b $esi: $esi .cfa: $esp 12 +
STACK CFI aa8c $edi: $edi .cfa: $esp 8 +
STACK CFI aa8d $ebp: $ebp .cfa: $esp 4 +
STACK CFI aa90 $ebp: .cfa -8 + ^ $ebx: .cfa -20 + ^ $edi: .cfa -12 + ^ $esi: .cfa -16 + ^ .cfa: $esp 368 +
STACK CFI abec .cfa: $esp 20 +
STACK CFI abed $ebx: $ebx .cfa: $esp 16 +
STACK CFI abee $esi: $esi .cfa: $esp 12 +
STACK CFI abef $edi: $edi .cfa: $esp 8 +
STACK CFI abf0 $ebp: $ebp .cfa: $esp 4 +
STACK CFI abf8 $ebp: .cfa -8 + ^ $ebx: .cfa -20 + ^ $edi: .cfa -12 + ^ $esi: .cfa -16 + ^ .cfa: $esp 368 +
STACK CFI INIT b280 28b .cfa: $esp 4 + .ra: .cfa -4 + ^
STACK CFI b281 $ebp: .cfa -8 + ^ .cfa: $esp 8 +
STACK CFI b282 $edi: .cfa -12 + ^ .cfa: $esp 12 +
STACK CFI b283 $esi: .cfa -16 + ^ .cfa: $esp 16 +
STACK CFI b284 $ebx: .cfa -20 + ^ .cfa: $esp 20 +
STACK CFI b287 .cfa: $esp 112 +
STACK CFI b43b .cfa: $esp 20 +
STACK CFI b43e $ebx: $ebx .cfa: $esp 16 +
STACK CFI b43f $esi: $esi .cfa: $esp 12 +
STACK CFI b440 $edi: $edi .cfa: $esp 8 +
STACK CFI b441 $ebp: $ebp .cfa: $esp 4 +
STACK CFI b448 $ebp: .cfa -8 + ^ $ebx: .cfa -20 + ^ $edi: .cfa -12 + ^ $esi: .cfa -16 + ^ .cfa: $esp 112 +
STACK CFI b469 .cfa: $esp 20 +
STACK CFI b46a $ebx: $ebx .cfa: $esp 16 +
STACK CFI b46b $esi: $esi .cfa: $esp 12 +
STACK CFI b46c $edi: $edi .cfa: $esp 8 +
STACK CFI b46d $ebp: $ebp .cfa: $esp 4 +
STACK CFI b470 $ebp: .cfa -8 + ^ $ebx: .cfa -20 + ^ $edi: .cfa -12 + ^ $esi: .cfa -16 + ^ .cfa: $esp 112 +
STACK CFI b48a .cfa: $esp 20 +
STACK CFI b48d $ebx: $ebx .cfa: $esp 16 +
STACK CFI b48e $esi: $esi .cfa: $esp 12 +
STACK CFI b48f $edi: $edi .cfa: $esp 8 +
STACK CFI b490 $ebp: $ebp .cfa: $esp 4 +
STACK CFI b498 $ebp: .cfa -8 + ^ $ebx: .cfa -20 + ^ $edi: .cfa -12 + ^ $esi: .cfa -16 + ^ .cfa: $esp 112 +
STACK CFI b4b9 .cfa: $esp 20 +
STACK CFI b4ba $ebx: $ebx .cfa: $esp 16 +
STACK CFI b4bb $esi: $esi .cfa: $esp 12 +
STACK CFI b4bc $edi: $edi .cfa: $esp 8 +
STACK CFI b4bd $ebp: $ebp .cfa: $esp 4 +
STACK CFI b4c0 $ebp: .cfa -8 + ^ $ebx: .cfa -20 + ^ $edi: .cfa -12 + ^ $esi: .cfa -16 + ^ .cfa: $esp 112 +
STACK CFI INIT b510 264 .cfa: $esp 4 + .ra: .cfa -4 + ^
STACK CFI b516 .cfa: $esp 160 +
STACK CFI b51d $ebp: .cfa -8 + ^
STACK CFI b529 $ebx: .cfa -20 + ^
STACK CFI b544 $edi: .cfa -12 + ^ $esi: .cfa -16 + ^
STACK CFI b683 $ebp: $ebp $ebx: $ebx $edi: $edi $esi: $esi .cfa: $esp 4 +
STACK CFI b684 $ebp: .cfa -8 + ^ $ebx: .cfa -20 + ^ $edi: .cfa -12 + ^ $esi: .cfa -16 + ^ .cfa: $esp 160 +
STACK CFI INIT b780 a6f .cfa: $esp 4 + .ra: .cfa -4 + ^
STACK CFI b781 $ebp: .cfa -8 + ^ .cfa: $esp 8 +
STACK CFI b782 $edi: .cfa -12 + ^ .cfa: $esp 12 +
STACK CFI b783 $esi: .cfa -16 + ^ .cfa: $esp 16 +
STACK CFI b784 $ebx: .cfa -20 + ^ .cfa: $esp 20 +
STACK CFI b78a .cfa: $esp 272 +
STACK CFI b9eb .cfa: $esp 20 +
STACK CFI b9ec $ebx: $ebx .cfa: $esp 16 +
STACK CFI b9ed $esi: $esi .cfa: $esp 12 +
STACK CFI b9ee $edi: $edi .cfa: $esp 8 +
STACK CFI b9ef $ebp: $ebp .cfa: $esp 4 +
STACK CFI b9f0 $ebp: .cfa -8 + ^ $ebx: .cfa -20 + ^ $edi: .cfa -12 + ^ $esi: .cfa -16 + ^ .cfa: $esp 272 +
STACK CFI bf6f .cfa: $esp 20 +
STACK CFI bf70 $ebx: $ebx .cfa: $esp 16 +
STACK CFI bf71 $esi: $esi .cfa: $esp 12 +
STACK CFI bf72 $edi: $edi .cfa: $esp 8 +
STACK CFI bf73 $ebp: $ebp .cfa: $esp 4 +
STACK CFI bf78 $ebp: .cfa -8 + ^ $ebx: .cfa -20 + ^ $edi: .cfa -12 + ^ $esi: .cfa -16 + ^ .cfa: $esp 272 +
STACK CFI INIT c1f0 34 .cfa: $esp 4 + .ra: .cfa -4 + ^
STACK CFI c1f1 $ebx: .cfa -8 + ^ .cfa: $esp 8 +
STACK CFI c21d $ebx: $ebx .cfa: $esp 4 +
STACK CFI c220 $ebx: .cfa -8 + ^ .cfa: $esp 8 +
STACK CFI c223 $ebx: $ebx .cfa: $esp 4 +
STACK CFI INIT c230 20 .cfa: $esp 4 + .ra: .cfa -4 + ^
STACK CFI c231 $ebx: .cfa -8 + ^ .cfa: $esp 8 +
STACK CFI c234 .cfa: $esp 32 +
STACK CFI c24e .cfa: $esp 8 +
STACK CFI c24f $ebx: $ebx .cfa: $esp 4 +
STACK CFI INIT c250 20 .cfa: $esp 4 + .ra: .cfa -4 + ^
STACK CFI c251 $ebx: .cfa -8 + ^ .cfa: $esp 8 +
STACK CFI c254 .cfa: $esp 32 +
STACK CFI c26e .cfa: $esp 8 +
STACK CFI c26f $ebx: $ebx .cfa: $esp 4 +
STACK CFI INIT c270 20 .cfa: $esp 4 + .ra: .cfa -4 + ^
STACK CFI c271 $ebx: .cfa -8 + ^ .cfa: $esp 8 +
STACK CFI c274 .cfa: $esp 32 +
STACK CFI c28e .cfa: $esp 8 +
STACK CFI c28f $ebx: $ebx .cfa: $esp 4 +
STACK CFI INIT c290 28 .cfa: $esp 4 + .ra: .cfa -4 + ^
STACK CFI c291 $ebx: .cfa -8 + ^ .cfa: $esp 8 +
STACK CFI c29f .cfa: $esp 32 +
STACK CFI c2b6 .cfa: $esp 8 +
STACK CFI c2b7 $ebx: $ebx .cfa: $esp 4 +
STACK CFI INIT c2c0 43 .cfa: $esp 4 + .ra: .cfa -4 + ^
STACK CFI c2c3 .cfa: $esp 32 +
STACK CFI c2cb $ebx: .cfa -12 + ^
STACK CFI c2da $esi: .cfa -8 + ^
STACK CFI c302 $ebx: $ebx $esi: $esi .cfa: $esp 4 +
STACK CFI INIT c310 400 .cfa: $esp 4 + .ra: .cfa -4 + ^
STACK CFI c311 $ebp: .cfa -8 + ^ .cfa: $esp 8 +
STACK CFI c314 $edi: .cfa -12 + ^ .cfa: $esp 12 +
STACK CFI c315 $esi: .cfa -16 + ^ .cfa: $esp 16 +
STACK CFI c316 $ebx: .cfa -20 + ^ .cfa: $esp 20 +
STACK CFI c319 .cfa: $esp 144 +
STACK CFI c5a5 .cfa: $esp 20 +
STACK CFI c5a6 $ebx: $ebx .cfa: $esp 16 +
STACK CFI c5a7 $esi: $esi .cfa: $esp 12 +
STACK CFI c5a8 $edi: $edi .cfa: $esp 8 +
STACK CFI c5a9 $ebp: $ebp .cfa: $esp 4 +
STACK CFI c5aa $ebp: .cfa -8 + ^ $ebx: .cfa -20 + ^ $edi: .cfa -12 + ^ $esi: .cfa -16 + ^ .cfa: $esp 144 +
STACK CFI c5cb .cfa: $esp 20 +
STACK CFI c5cc $ebx: $ebx .cfa: $esp 16 +
STACK CFI c5cd $esi: $esi .cfa: $esp 12 +
STACK CFI c5ce $edi: $edi .cfa: $esp 8 +
STACK CFI c5cf $ebp: $ebp .cfa: $esp 4 +
STACK CFI c5d0 $ebp: .cfa -8 + ^ $ebx: .cfa -20 + ^ $edi: .cfa -12 + ^ $esi: .cfa -16 + ^ .cfa: $esp 144 +
STACK CFI INIT c710 1e6 .cfa: $esp 4 + .ra: .cfa -4 + ^
STACK CFI c711 $edi: .cfa -8 + ^ .cfa: $esp 8 +
STACK CFI c712 $esi: .cfa -12 + ^ .cfa: $esp 12 +
STACK CFI c713 $ebx: .cfa -16 + ^ .cfa: $esp 16 +
STACK CFI c716 .cfa: $esp 80 +
STACK CFI c826 .cfa: $esp 16 +
STACK CFI c827 $ebx: $ebx .cfa: $esp 12 +
STACK CFI c828 $esi: $esi .cfa: $esp 8 +
STACK CFI c829 $edi: $edi .cfa: $esp 4 +
STACK CFI c830 $ebx: .cfa -16 + ^ $edi: .cfa -8 + ^ $esi: .cfa -12 + ^ .cfa: $esp 80 +
STACK CFI c854 .cfa: $esp 16 +
STACK CFI c855 $ebx: $ebx .cfa: $esp 12 +
STACK CFI c856 $esi: $esi .cfa: $esp 8 +
STACK CFI c857 $edi: $edi .cfa: $esp 4 +
STACK CFI c858 $ebx: .cfa -16 + ^ $edi: .cfa -8 + ^ $esi: .cfa -12 + ^ .cfa: $esp 80 +
STACK CFI c8f2 .cfa: $esp 16 +
STACK CFI c8f3 $ebx: $ebx .cfa: $esp 12 +
STACK CFI c8f4 $esi: $esi .cfa: $esp 8 +
STACK CFI c8f5 $edi: $edi .cfa: $esp 4 +
STACK CFI INIT c900 8dc .cfa: $esp 4 + .ra: .cfa -4 + ^
STACK CFI c901 $ebp: .cfa -8 + ^ .cfa: $esp 8 +
STACK CFI c902 $edi: .cfa -12 + ^ .cfa: $esp 12 +
STACK CFI c903 $esi: .cfa -16 + ^ .cfa: $esp 16 +
STACK CFI c904 $ebx: .cfa -20 + ^ .cfa: $esp 20 +
STACK CFI c90a .cfa: $esp 272 +
STACK CFI ca19 .cfa: $esp 20 +
STACK CFI ca1a $ebx: $ebx .cfa: $esp 16 +
STACK CFI ca1b $esi: $esi .cfa: $esp 12 +
STACK CFI ca1c $edi: $edi .cfa: $esp 8 +
STACK CFI ca1d $ebp: $ebp .cfa: $esp 4 +
STACK CFI ca20 $ebp: .cfa -8 + ^ $ebx: .cfa -20 + ^ $edi: .cfa -12 + ^ $esi: .cfa -16 + ^ .cfa: $esp 272 +
STACK CFI INIT d1e0 29 .cfa: $esp 4 + .ra: .cfa -4 + ^
STACK CFI d1e1 $ebx: .cfa -8 + ^ .cfa: $esp 8 +
STACK CFI d1ef .cfa: $esp 32 +
STACK CFI INIT d210 3f .cfa: $esp 4 + .ra: .cfa -4 + ^
STACK CFI d211 $ebx: .cfa -8 + ^ .cfa: $esp 8 +
STACK CFI d21f .cfa: $esp 32 +
STACK CFI d236 .cfa: $esp 8 +
STACK CFI d237 $ebx: $ebx .cfa: $esp 4 +
STACK CFI d238 $ebx: .cfa -8 + ^ .cfa: $esp 32 +
STACK CFI d24d .cfa: $esp 8 +
STACK CFI d24e $ebx: $ebx .cfa: $esp 4 +
STACK CFI INIT d250 8b .cfa: $esp 4 + .ra: .cfa -4 + ^
STACK CFI d251 $esi: .cfa -8 + ^ .cfa: $esp 8 +
STACK CFI d252 $ebx: .cfa -12 + ^ .cfa: $esp 12 +
STACK CFI d260 .cfa: $esp 48 +
STACK CFI INIT d2e0 44 .cfa: $esp 4 + .ra: .cfa -4 + ^
STACK CFI d2e3 .cfa: $esp 32 +
STACK CFI d2ec $esi: .cfa -8 + ^
STACK CFI d2f4 $ebx: .cfa -12 + ^
STACK CFI d31b $ebx: $ebx $esi: $esi .cfa: $esp 4 +
STACK CFI d31c $ebx: .cfa -12 + ^ $esi: .cfa -8 + ^ .cfa: $esp 32 +
STACK CFI INIT d330 67 .cfa: $esp 4 + .ra: .cfa -4 + ^
STACK CFI d333 .cfa: $esp 32 +
STACK CFI d337 $esi: .cfa -12 + ^
STACK CFI d33f $ebx: .cfa -16 + ^
STACK CFI d34e $edi: .cfa -8 + ^
STACK CFI d379 $ebx: $ebx $edi: $edi $esi: $esi .cfa: $esp 4 +
STACK CFI d380 $ebx: .cfa -16 + ^ $edi: .cfa -8 + ^ $esi: .cfa -12 + ^ .cfa: $esp 32 +
STACK CFI INIT d3a0 5a .cfa: $esp 4 + .ra: .cfa -4 + ^
STACK CFI d3a3 .cfa: $esp 32 +
STACK CFI d3ac $esi: .cfa -8 + ^
STACK CFI d3b8 $ebx: .cfa -12 + ^
STACK CFI d3e7 $ebx: $ebx $esi: $esi .cfa: $esp 4 +
STACK CFI d3e8 $ebx: .cfa -12 + ^ $esi: .cfa -8 + ^ .cfa: $esp 32 +
STACK CFI INIT d400 51 .cfa: $esp 4 + .ra: .cfa -4 + ^
STACK CFI d403 .cfa: $esp 32 +
STACK CFI d407 $ebx: .cfa -16 + ^
STACK CFI d416 $esi: .cfa -12 + ^
STACK CFI d41e $edi: .cfa -8 + ^
STACK CFI d450 $ebx: $ebx $edi: $edi $esi: $esi .cfa: $esp 4 +
STACK CFI INIT d460 62 .cfa: $esp 4 + .ra: .cfa -4 + ^
STACK CFI d463 .cfa: $esp 32 +
STACK CFI d467 $ebx: .cfa -12 + ^
STACK CFI d476 $esi: .cfa -8 + ^
STACK CFI d491 $ebx: $ebx $esi: $esi .cfa: $esp 4 +
STACK CFI d498 $ebx: .cfa -12 + ^ $esi: .cfa -8 + ^ .cfa: $esp 32 +
STACK CFI d4c1 $ebx: $ebx $esi: $esi .cfa: $esp 4 +
STACK CFI INIT d4d0 2e5 .cfa: $esp 4 + .ra: .cfa -4 + ^
STACK CFI d4d1 $ebp: .cfa -8 + ^ .cfa: $esp 8 +
STACK CFI d4d2 $edi: .cfa -12 + ^ .cfa: $esp 12 +
STACK CFI d4d3 $esi: .cfa -16 + ^ .cfa: $esp 16 +
STACK CFI d4d4 $ebx: .cfa -20 + ^ .cfa: $esp 20 +
STACK CFI d4d7 .cfa: $esp 80 +
STACK CFI d789 .cfa: $esp 20 +
STACK CFI d78a $ebx: $ebx .cfa: $esp 16 +
STACK CFI d78b $esi: $esi .cfa: $esp 12 +
STACK CFI d78c $edi: $edi .cfa: $esp 8 +
STACK CFI d78d $ebp: $ebp .cfa: $esp 4 +
STACK CFI d790 $ebp: .cfa -8 + ^ $ebx: .cfa -20 + ^ $edi: .cfa -12 + ^ $esi: .cfa -16 + ^ .cfa: $esp 80 +
STACK CFI d79f .cfa: $esp 20 +
STACK CFI d7a0 $ebx: $ebx .cfa: $esp 16 +
STACK CFI d7a1 $esi: $esi .cfa: $esp 12 +
STACK CFI d7a2 $edi: $edi .cfa: $esp 8 +
STACK CFI d7a3 $ebp: $ebp .cfa: $esp 4 +
STACK CFI d7a8 $ebp: .cfa -8 + ^ $ebx: .cfa -20 + ^ $edi: .cfa -12 + ^ $esi: .cfa -16 + ^ .cfa: $esp 80 +
STACK CFI d7ab .cfa: $esp 20 +
STACK CFI d7b1 $ebx: $ebx .cfa: $esp 16 +
STACK CFI d7b2 $esi: $esi .cfa: $esp 12 +
STACK CFI d7b3 $edi: $edi .cfa: $esp 8 +
STACK CFI d7b4 $ebp: $ebp .cfa: $esp 4 +
STACK CFI INIT d7c0 149 .cfa: $esp 4 + .ra: .cfa -4 + ^
STACK CFI d7c3 .cfa: $esp 32 +
STACK CFI d7cb $ebp: .cfa -8 + ^
STACK CFI d7db $edi: .cfa -12 + ^ $esi: .cfa -16 + ^
STACK CFI d817 $ebp: $ebp $edi: $edi $esi: $esi .cfa: $esp 4 +
STACK CFI d818 $ebp: .cfa -8 + ^ $edi: .cfa -12 + ^ $esi: .cfa -16 + ^ .cfa: $esp 32 +
STACK CFI d853 $ebp: $ebp $edi: $edi $esi: $esi .cfa: $esp 4 +
STACK CFI d858 $ebp: .cfa -8 + ^ $edi: .cfa -12 + ^ $esi: .cfa -16 + ^ .cfa: $esp 32 +
STACK CFI d86f $ebp: $ebp $edi: $edi $esi: $esi .cfa: $esp 4 +
STACK CFI d870 $ebp: .cfa -8 + ^ $edi: .cfa -12 + ^ $esi: .cfa -16 + ^ .cfa: $esp 32 +
STACK CFI d908 $ebp: $ebp $edi: $edi $esi: $esi .cfa: $esp 4 +
STACK CFI INIT d910 175 .cfa: $esp 4 + .ra: .cfa -4 + ^
STACK CFI d913 .cfa: $esp 32 +
STACK CFI d91f $esi: .cfa -16 + ^
STACK CFI d931 $ebp: .cfa -8 + ^ $edi: .cfa -12 + ^
STACK CFI d957 $ebp: $ebp $edi: $edi $esi: $esi .cfa: $esp 4 +
STACK CFI d958 $ebp: .cfa -8 + ^ $edi: .cfa -12 + ^ $esi: .cfa -16 + ^ .cfa: $esp 32 +
STACK CFI d98b $ebp: $ebp $edi: $edi $esi: $esi .cfa: $esp 4 +
STACK CFI d990 $ebp: .cfa -8 + ^ $edi: .cfa -12 + ^ $esi: .cfa -16 + ^ .cfa: $esp 32 +
STACK CFI d9c1 $ebp: $ebp $edi: $edi $esi: $esi .cfa: $esp 4 +
STACK CFI d9c8 $ebp: .cfa -8 + ^ $edi: .cfa -12 + ^ $esi: .cfa -16 + ^ .cfa: $esp 32 +
STACK CFI da5a $ebp: $ebp $edi: $edi $esi: $esi .cfa: $esp 4 +
STACK CFI da60 $ebp: .cfa -8 + ^ $edi: .cfa -12 + ^ $esi: .cfa -16 + ^ .cfa: $esp 32 +
