MODULE Linux arm B418245D3ABFABB99EDA4A4864BD74D70 libqdirectfbscreen.so
PUBLIC 8848 0 _init
PUBLIC 98bc 0 _ZN21QDirectFBScreenCursor4moveEii
PUBLIC 98dc 0 _ZN15QDirectFBScreen14shutdownDeviceEv
PUBLIC 996c 0 _ZN15QDirectFBScreen7setModeEiii
PUBLIC 9984 0 _ZN15QDirectFBScreen5blankEb
PUBLIC 99a8 0 _ZN15QDirectFBScreen12exposeRegionE7QRegioni
PUBLIC 99ac 0 _ZN15QDirectFBScreen9solidFillERK6QColorRK7QRegion
PUBLIC 99d0 0 _ZN15QDirectFBScreenD1Ev
PUBLIC 9a48 0 _ZN15QDirectFBScreenD0Ev
PUBLIC 9ab8 0 _ZNK15QDirectFBScreen13createSurfaceEP7QWidget
PUBLIC 9af8 0 _ZN21QDirectFBScreenCursor4hideEv
PUBLIC 9b98 0 _ZN21QDirectFBScreenCursor4showEv
PUBLIC 9d28 0 _ZNK15QDirectFBScreen13directFBFlagsEv
PUBLIC 9d38 0 _ZN15QDirectFBScreen3dfbEv
PUBLIC 9d44 0 _ZN15QDirectFBScreen15dfbDisplayLayerEv
PUBLIC 9d50 0 _ZN15QDirectFBScreen21getSurfacePixelFormatEN6QImage6FormatE
PUBLIC 9d78 0 _ZN15QDirectFBScreen14getImageFormatEP17_IDirectFBSurface
PUBLIC 9eb4 0 _ZN15QDirectFBScreen21getSurfaceDescriptionEPKji
PUBLIC 9f08 0 _ZN15QDirectFBScreen8instanceEv
PUBLIC 9f18 0 _ZN21QDirectFBScreenCursorC2Ev
PUBLIC 9f9c 0 _ZN15QDirectFBScreen10initDeviceEv
PUBLIC a250 0 _ZN15QDirectFBScreen5depthE21DFBSurfacePixelFormat
PUBLIC a3fc 0 _ZN15QDirectFBScreen5depthEN6QImage6FormatE
PUBLIC a4dc 0 _ZNK15QDirectFBScreen17alphaPixmapFormatEv
PUBLIC a4e8 0 _ZN15QDirectFBScreen33initSurfaceDescriptionPixelFormatEP21DFBSurfaceDescriptionN6QImage6FormatE
PUBLIC a570 0 _ZN15QDirectFBScreen11lockSurfaceEP17_IDirectFBSurface19DFBSurfaceLockFlagsPi
PUBLIC a5b4 0 _ZN15QDirectFBScreen8waitIdleEv
PUBLIC a5cc 0 _ZNK15QDirectFBScreen15windowForWidgetEPK7QWidget
PUBLIC a68c 0 _ZNK15QDirectFBScreen16surfaceForWidgetEPK7QWidgetP5QRect
PUBLIC a790 0 _Z30qt_directfb_surface_for_widgetPK7QWidgetP5QRect
PUBLIC a7bc 0 _Z29qt_directfb_window_for_widgetPK7QWidget
PUBLIC a7e0 0 _ZN15QDirectFBScreen9solidFillEP17_IDirectFBSurfaceRK6QColorRK7QRegion
PUBLIC a9e0 0 _ZN15QDirectFBScreen11flipSurfaceEP17_IDirectFBSurface19DFBSurfaceFlipFlagsRK7QRegionRK6QPoint
PUBLIC ad88 0 _ZN15QDirectFBScreenC1Ei
PUBLIC b3b8 0 _ZN15QDirectFBScreen17releaseDFBSurfaceEP17_IDirectFBSurface
PUBLIC b40c 0 _ZN15QDirectFBScreen16createDFBSurfaceE21DFBSurfaceDescription6QFlagsINS_21SurfaceCreationOptionEEP9DFBResult
PUBLIC b6e8 0 _ZN15QDirectFBScreen16createDFBSurfaceERK5QSizeN6QImage6FormatE6QFlagsINS_21SurfaceCreationOptionEEP9DFBResult
PUBLIC b794 0 _ZN15QDirectFBScreen14copyDFBSurfaceEP17_IDirectFBSurfaceN6QImage6FormatE6QFlagsINS_21SurfaceCreationOptionEEP9DFBResult
PUBLIC b944 0 _ZN15QDirectFBScreen7connectERK7QString
PUBLIC d6f8 0 _ZN15QDirectFBScreen10disconnectEv
PUBLIC d9a8 0 _ZN15QDirectFBScreen16createDFBSurfaceERK6QImageNS0_6FormatE6QFlagsINS_21SurfaceCreationOptionEEP9DFBResult
PUBLIC dcb0 0 _ZN21QDirectFBScreenCursor3setERK6QImageii
PUBLIC deb0 0 _ZNK15QDirectFBScreen13createSurfaceERK7QString
PUBLIC e0d8 0 _ZN21QDirectFBScreenCursorD1Ev
PUBLIC e10c 0 _ZN21QDirectFBScreenCursorD0Ev
PUBLIC 204d8 0 _ZN25QRasterPaintEnginePrivateD2Ev
PUBLIC 20800 0 _ZN25QRasterPaintEnginePrivateD0Ev
PUBLIC 219c0 0 _Z30qt_directfb_surface_for_pixmapRK7QPixmap
PUBLIC 264a0 0 qt_plugin_query_verification_data
PUBLIC 264b0 0 qt_plugin_instance
PUBLIC 2692c 0 _fini
