MODULE Linux arm 757478D5B2853A165E829DA2FDB017000 liblzo2.so.2.0.0
FUNC 1c74 248 0 store_run
FUNC 1ebc 20 0 lzo1_info
FUNC 1edc 1f0 0 lzo1_decompress
FUNC 20cc 398 0 lzo1_compress
FUNC 2464 8ac 0 do_compress
FUNC 2d10 60 0 lzo1_99_compress
FUNC 2d70 3f4 0 store_run
FUNC 3164 20 0 lzo1a_info
FUNC 3184 2e4 0 lzo1a_decompress
FUNC 3468 460 0 lzo1a_compress
FUNC 38c8 8f0 0 do_compress
FUNC 41b8 60 0 lzo1a_99_compress
FUNC 4218 544 0 do_compress
FUNC 475c 2c 0 lzo1b_1_compress
FUNC 4788 594 0 do_compress
FUNC 4d1c 2c 0 lzo1b_2_compress
FUNC 4d48 5f4 0 do_compress
FUNC 533c 2c 0 lzo1b_3_compress
FUNC 5368 7b4 0 do_compress
FUNC 5b1c 2c 0 lzo1b_4_compress
FUNC 5b48 7ec 0 do_compress
FUNC 6334 2c 0 lzo1b_5_compress
FUNC 6360 920 0 do_compress
FUNC 6c80 2c 0 lzo1b_6_compress
FUNC 6cac b00 0 do_compress
FUNC 77ac 2c 0 lzo1b_7_compress
FUNC 77d8 d1c 0 do_compress
FUNC 84f4 2c 0 lzo1b_8_compress
FUNC 8520 d80 0 do_compress
FUNC 92a0 2c 0 lzo1b_9_compress
FUNC 92cc 868 0 do_compress
FUNC 9b34 2c 0 lzo1b_99_compress
FUNC 9b60 704 0 find_match
FUNC a264 65c 0 lzo1b_999_compress_callback
FUNC a8c0 28 0 lzo1b_999_compress
FUNC a8e8 9c 0 _lzo1b_do_compress
FUNC a984 330 0 lzo1b_decompress
FUNC acb4 698 0 lzo1b_decompress_safe
FUNC b34c 3f4 0 _lzo1b_store_run
FUNC b740 5c 0 lzo1b_compress
FUNC b79c 548 0 do_compress
FUNC bce4 2c 0 lzo1c_1_compress
FUNC bd10 5c8 0 do_compress
FUNC c2d8 2c 0 lzo1c_2_compress
FUNC c304 628 0 do_compress
FUNC c92c 2c 0 lzo1c_3_compress
FUNC c958 854 0 do_compress
FUNC d1ac 2c 0 lzo1c_4_compress
FUNC d1d8 8dc 0 do_compress
FUNC dab4 2c 0 lzo1c_5_compress
FUNC dae0 980 0 do_compress
FUNC e460 2c 0 lzo1c_6_compress
FUNC e48c bf0 0 do_compress
FUNC f07c 2c 0 lzo1c_7_compress
FUNC f0a8 d78 0 do_compress
FUNC fe20 2c 0 lzo1c_8_compress
FUNC fe4c d5c 0 do_compress
FUNC 10ba8 2c 0 lzo1c_9_compress
FUNC 10bd4 810 0 do_compress
FUNC 113e4 2c 0 lzo1c_99_compress
FUNC 11410 710 0 find_match
FUNC 11b20 730 0 lzo1c_999_compress_callback
FUNC 12250 28 0 lzo1c_999_compress
FUNC 12278 9c 0 _lzo1c_do_compress
FUNC 12314 348 0 lzo1c_decompress
FUNC 1265c 6c0 0 lzo1c_decompress_safe
FUNC 12d1c 3f4 0 _lzo1c_store_run
FUNC 13110 5c 0 lzo1c_compress
FUNC 1316c 7c8 0 do_compress
FUNC 13934 d8 0 lzo1f_1_compress
FUNC 13a0c 710 0 find_match
FUNC 1411c 128 0 STORE_RUN
FUNC 14244 6a4 0 lzo1f_999_compress_callback
FUNC 148e8 28 0 lzo1f_999_compress
FUNC 14910 2dc 0 lzo1f_decompress
FUNC 14bec 480 0 lzo1f_decompress_safe
FUNC 1506c 4b4 0 lzo1x_1_compress_core
FUNC 15520 3fc 0 lzo1x_1_compress
FUNC 1591c 4b4 0 lzo1x_1_11_compress_core
FUNC 15dd0 3fc 0 lzo1x_1_11_compress
FUNC 161cc 4b4 0 lzo1x_1_12_compress_core
FUNC 16680 3fc 0 lzo1x_1_12_compress
FUNC 16a7c 4b4 0 lzo1x_1_15_compress_core
FUNC 16f30 3fc 0 lzo1x_1_15_compress
FUNC 1732c 29c 0 code_match
FUNC 175c8 16c 0 STORE_RUN
FUNC 17734 16c 0 len_of_coded_match
FUNC 178a0 cc 0 better_match
FUNC 1796c 8ac 0 find_match
FUNC 18218 bb0 0 lzo1x_999_compress_internal
FUNC 18dc8 8c 0 lzo1x_999_compress_level
FUNC 18e54 3c 0 lzo1x_999_compress_dict
FUNC 18e90 34 0 lzo1x_999_compress
FUNC 18ec4 410 0 lzo1x_decompress
FUNC 192d4 620 0 lzo1x_decompress_safe
FUNC 198f4 8a0 0 lzo1x_decompress_dict_safe
FUNC 1a194 3c 0 copy3
FUNC 1a1d0 864 0 lzo1x_optimize
FUNC 1aa34 4b4 0 lzo1y_1_compress_core
FUNC 1aee8 3fc 0 lzo1y_1_compress
FUNC 1b2e4 29c 0 code_match
FUNC 1b580 16c 0 STORE_RUN
FUNC 1b6ec 16c 0 len_of_coded_match
FUNC 1b858 d4 0 better_match
FUNC 1b92c 8ac 0 find_match
FUNC 1c1d8 bb0 0 lzo1y_999_compress_internal
FUNC 1cd88 8c 0 lzo1y_999_compress_level
FUNC 1ce14 3c 0 lzo1y_999_compress_dict
FUNC 1ce50 34 0 lzo1y_999_compress
FUNC 1ce84 410 0 lzo1y_decompress
FUNC 1d294 620 0 lzo1y_decompress_safe
FUNC 1d8b4 8a0 0 lzo1y_decompress_dict_safe
FUNC 1e154 3c 0 copy3
FUNC 1e190 864 0 lzo1y_optimize
FUNC 1e9f4 2c4 0 code_match
FUNC 1ecb8 16c 0 STORE_RUN
FUNC 1ee24 16c 0 len_of_coded_match
FUNC 1ef90 130 0 better_match
FUNC 1f0c0 8ac 0 find_match
FUNC 1f96c c6c 0 lzo1z_999_compress_internal
FUNC 205d8 8c 0 lzo1z_999_compress_level
FUNC 20664 3c 0 lzo1z_999_compress_dict
FUNC 206a0 34 0 lzo1z_999_compress
FUNC 206d4 420 0 lzo1z_decompress
FUNC 20af4 64c 0 lzo1z_decompress_safe
FUNC 21140 8cc 0 lzo1z_decompress_dict_safe
FUNC 21a0c 844 0 find_match
FUNC 22250 8e4 0 lzo2a_999_compress_callback
FUNC 22b34 28 0 lzo2a_999_compress
FUNC 22b5c 230 0 lzo2a_decompress
FUNC 22d8c 368 0 lzo2a_decompress_safe
FUNC 230f4 10 0 lzo_get_crc32_table
FUNC 23104 234 0 lzo_crc32
FUNC 23338 8 0 u2p
FUNC 23340 27c 0 _lzo_config_check
FUNC 235bc a4 0 __lzo_init_v2
FUNC 23660 4 0 __lzo_ptr_linear
FUNC 23664 38 0 __lzo_align_gap
FUNC 2369c 4 0 lzo_memcmp
FUNC 236a0 4 0 lzo_memcpy
FUNC 236a4 4 0 lzo_memmove
FUNC 236a8 4 0 lzo_memset
FUNC 236ac 10 0 lzo_copyright
FUNC 236bc c 0 lzo_version
FUNC 236c8 14 0 lzo_version_string
FUNC 236dc 14 0 lzo_version_date
FUNC 236f0 14 0 _lzo_version_string
FUNC 23704 14 0 _lzo_version_date
FUNC 23718 1e4 0 lzo_adler32
STACK CFI INIT 1c74 248 .cfa: sp 0 + .ra: lr
STACK CFI 1c7c .cfa: sp 40 +
STACK CFI 1c80 .ra: .cfa -4 + ^ r10: .cfa -12 + ^ r11: .cfa -8 + ^ r3: .cfa -40 + ^ r4: .cfa -36 + ^ r5: .cfa -32 + ^ r6: .cfa -28 + ^ r7: .cfa -24 + ^ r8: .cfa -20 + ^ r9: .cfa -16 + ^
STACK CFI INIT 1ebc 20 .cfa: sp 0 + .ra: lr
STACK CFI INIT 1edc 1f0 .cfa: sp 0 + .ra: lr
STACK CFI 1ee0 .cfa: sp 32 +
STACK CFI 1ee4 .ra: .cfa -4 + ^ r10: .cfa -8 + ^ r4: .cfa -32 + ^ r5: .cfa -28 + ^ r6: .cfa -24 + ^ r7: .cfa -20 + ^ r8: .cfa -16 + ^ r9: .cfa -12 + ^
STACK CFI INIT 20cc 398 .cfa: sp 0 + .ra: lr
STACK CFI 20d0 .cfa: sp 36 +
STACK CFI 20d8 .cfa: sp 72 +
STACK CFI 20dc .ra: .cfa -4 + ^ r10: .cfa -12 + ^ r11: .cfa -8 + ^ r4: .cfa -36 + ^ r5: .cfa -32 + ^ r6: .cfa -28 + ^ r7: .cfa -24 + ^ r8: .cfa -20 + ^ r9: .cfa -16 + ^
STACK CFI INIT 2464 8ac .cfa: sp 0 + .ra: lr
STACK CFI 2468 .cfa: sp 36 +
STACK CFI 246c .cfa: sp 96 +
STACK CFI 2470 .ra: .cfa -4 + ^ r10: .cfa -12 + ^ r11: .cfa -8 + ^ r4: .cfa -36 + ^ r5: .cfa -32 + ^ r6: .cfa -28 + ^ r7: .cfa -24 + ^ r8: .cfa -20 + ^ r9: .cfa -16 + ^
STACK CFI INIT 2d10 60 .cfa: sp 0 + .ra: lr
STACK CFI 2d14 .cfa: sp 24 +
STACK CFI 2d18 .ra: .cfa -4 + ^ r4: .cfa -24 + ^ r5: .cfa -20 + ^ r6: .cfa -16 + ^ r7: .cfa -12 + ^ r8: .cfa -8 + ^
STACK CFI INIT 2d70 3f4 .cfa: sp 0 + .ra: lr
STACK CFI 2d74 .cfa: sp 36 +
STACK CFI 2d7c .cfa: sp 48 +
STACK CFI 2d84 .ra: .cfa -4 + ^ r10: .cfa -12 + ^ r11: .cfa -8 + ^ r4: .cfa -36 + ^ r5: .cfa -32 + ^ r6: .cfa -28 + ^ r7: .cfa -24 + ^ r8: .cfa -20 + ^ r9: .cfa -16 + ^
STACK CFI INIT 3164 20 .cfa: sp 0 + .ra: lr
STACK CFI INIT 3184 2e4 .cfa: sp 0 + .ra: lr
STACK CFI 3188 .cfa: sp 32 +
STACK CFI 318c .ra: .cfa -4 + ^ r10: .cfa -8 + ^ r4: .cfa -32 + ^ r5: .cfa -28 + ^ r6: .cfa -24 + ^ r7: .cfa -20 + ^ r8: .cfa -16 + ^ r9: .cfa -12 + ^
STACK CFI INIT 3468 460 .cfa: sp 0 + .ra: lr
STACK CFI 346c .cfa: sp 36 +
STACK CFI 3474 .cfa: sp 72 +
STACK CFI 3478 .ra: .cfa -4 + ^ r10: .cfa -12 + ^ r11: .cfa -8 + ^ r4: .cfa -36 + ^ r5: .cfa -32 + ^ r6: .cfa -28 + ^ r7: .cfa -24 + ^ r8: .cfa -20 + ^ r9: .cfa -16 + ^
STACK CFI INIT 38c8 8f0 .cfa: sp 0 + .ra: lr
STACK CFI 38cc .cfa: sp 36 +
STACK CFI 38d0 .cfa: sp 104 +
STACK CFI 38d4 .ra: .cfa -4 + ^ r10: .cfa -12 + ^ r11: .cfa -8 + ^ r4: .cfa -36 + ^ r5: .cfa -32 + ^ r6: .cfa -28 + ^ r7: .cfa -24 + ^ r8: .cfa -20 + ^ r9: .cfa -16 + ^
STACK CFI INIT 41b8 60 .cfa: sp 0 + .ra: lr
STACK CFI 41bc .cfa: sp 24 +
STACK CFI 41c0 .ra: .cfa -4 + ^ r4: .cfa -24 + ^ r5: .cfa -20 + ^ r6: .cfa -16 + ^ r7: .cfa -12 + ^ r8: .cfa -8 + ^
STACK CFI INIT 4218 544 .cfa: sp 0 + .ra: lr
STACK CFI 421c .cfa: sp 36 +
STACK CFI 4220 .cfa: sp 88 +
STACK CFI 4224 .ra: .cfa -4 + ^ r10: .cfa -12 + ^ r11: .cfa -8 + ^ r4: .cfa -36 + ^ r5: .cfa -32 + ^ r6: .cfa -28 + ^ r7: .cfa -24 + ^ r8: .cfa -20 + ^ r9: .cfa -16 + ^
STACK CFI INIT 475c 2c .cfa: sp 0 + .ra: lr
STACK CFI 4760 .cfa: sp 4 +
STACK CFI 4764 .ra: .cfa -4 + ^
STACK CFI 4768 .cfa: sp 16 +
STACK CFI INIT 4788 594 .cfa: sp 0 + .ra: lr
STACK CFI 478c .cfa: sp 36 +
STACK CFI 4790 .cfa: sp 88 +
STACK CFI 4794 .ra: .cfa -4 + ^ r10: .cfa -12 + ^ r11: .cfa -8 + ^ r4: .cfa -36 + ^ r5: .cfa -32 + ^ r6: .cfa -28 + ^ r7: .cfa -24 + ^ r8: .cfa -20 + ^ r9: .cfa -16 + ^
STACK CFI INIT 4d1c 2c .cfa: sp 0 + .ra: lr
STACK CFI 4d20 .cfa: sp 4 +
STACK CFI 4d24 .ra: .cfa -4 + ^
STACK CFI 4d28 .cfa: sp 16 +
STACK CFI INIT 4d48 5f4 .cfa: sp 0 + .ra: lr
STACK CFI 4d4c .cfa: sp 36 +
STACK CFI 4d50 .cfa: sp 88 +
STACK CFI 4d54 .ra: .cfa -4 + ^ r10: .cfa -12 + ^ r11: .cfa -8 + ^ r4: .cfa -36 + ^ r5: .cfa -32 + ^ r6: .cfa -28 + ^ r7: .cfa -24 + ^ r8: .cfa -20 + ^ r9: .cfa -16 + ^
STACK CFI INIT 533c 2c .cfa: sp 0 + .ra: lr
STACK CFI 5340 .cfa: sp 4 +
STACK CFI 5344 .ra: .cfa -4 + ^
STACK CFI 5348 .cfa: sp 16 +
STACK CFI INIT 5368 7b4 .cfa: sp 0 + .ra: lr
STACK CFI 536c .cfa: sp 36 +
STACK CFI 5370 .cfa: sp 80 +
STACK CFI 5374 .ra: .cfa -4 + ^ r10: .cfa -12 + ^ r11: .cfa -8 + ^ r4: .cfa -36 + ^ r5: .cfa -32 + ^ r6: .cfa -28 + ^ r7: .cfa -24 + ^ r8: .cfa -20 + ^ r9: .cfa -16 + ^
STACK CFI INIT 5b1c 2c .cfa: sp 0 + .ra: lr
STACK CFI 5b20 .cfa: sp 4 +
STACK CFI 5b24 .ra: .cfa -4 + ^
STACK CFI 5b28 .cfa: sp 16 +
STACK CFI INIT 5b48 7ec .cfa: sp 0 + .ra: lr
STACK CFI 5b4c .cfa: sp 36 +
STACK CFI 5b50 .cfa: sp 80 +
STACK CFI 5b54 .ra: .cfa -4 + ^ r10: .cfa -12 + ^ r11: .cfa -8 + ^ r4: .cfa -36 + ^ r5: .cfa -32 + ^ r6: .cfa -28 + ^ r7: .cfa -24 + ^ r8: .cfa -20 + ^ r9: .cfa -16 + ^
STACK CFI INIT 6334 2c .cfa: sp 0 + .ra: lr
STACK CFI 6338 .cfa: sp 4 +
STACK CFI 633c .ra: .cfa -4 + ^
STACK CFI 6340 .cfa: sp 16 +
STACK CFI INIT 6360 920 .cfa: sp 0 + .ra: lr
STACK CFI 6364 .cfa: sp 36 +
STACK CFI 6368 .cfa: sp 80 +
STACK CFI 636c .ra: .cfa -4 + ^ r10: .cfa -12 + ^ r11: .cfa -8 + ^ r4: .cfa -36 + ^ r5: .cfa -32 + ^ r6: .cfa -28 + ^ r7: .cfa -24 + ^ r8: .cfa -20 + ^ r9: .cfa -16 + ^
STACK CFI INIT 6c80 2c .cfa: sp 0 + .ra: lr
STACK CFI 6c84 .cfa: sp 4 +
STACK CFI 6c88 .ra: .cfa -4 + ^
STACK CFI 6c8c .cfa: sp 16 +
STACK CFI INIT 6cac b00 .cfa: sp 0 + .ra: lr
STACK CFI 6cb0 .cfa: sp 36 +
STACK CFI 6cb4 .cfa: sp 80 +
STACK CFI 6cb8 .ra: .cfa -4 + ^ r10: .cfa -12 + ^ r11: .cfa -8 + ^ r4: .cfa -36 + ^ r5: .cfa -32 + ^ r6: .cfa -28 + ^ r7: .cfa -24 + ^ r8: .cfa -20 + ^ r9: .cfa -16 + ^
STACK CFI INIT 77ac 2c .cfa: sp 0 + .ra: lr
STACK CFI 77b0 .cfa: sp 4 +
STACK CFI 77b4 .ra: .cfa -4 + ^
STACK CFI 77b8 .cfa: sp 16 +
STACK CFI INIT 77d8 d1c .cfa: sp 0 + .ra: lr
STACK CFI 77dc .cfa: sp 36 +
STACK CFI 77e0 .cfa: sp 80 +
STACK CFI 77e4 .ra: .cfa -4 + ^ r10: .cfa -12 + ^ r11: .cfa -8 + ^ r4: .cfa -36 + ^ r5: .cfa -32 + ^ r6: .cfa -28 + ^ r7: .cfa -24 + ^ r8: .cfa -20 + ^ r9: .cfa -16 + ^
STACK CFI INIT 84f4 2c .cfa: sp 0 + .ra: lr
STACK CFI 84f8 .cfa: sp 4 +
STACK CFI 84fc .ra: .cfa -4 + ^
STACK CFI 8500 .cfa: sp 16 +
STACK CFI INIT 8520 d80 .cfa: sp 0 + .ra: lr
STACK CFI 8524 .cfa: sp 36 +
STACK CFI 8528 .cfa: sp 96 +
STACK CFI 852c .ra: .cfa -4 + ^ r10: .cfa -12 + ^ r11: .cfa -8 + ^ r4: .cfa -36 + ^ r5: .cfa -32 + ^ r6: .cfa -28 + ^ r7: .cfa -24 + ^ r8: .cfa -20 + ^ r9: .cfa -16 + ^
STACK CFI INIT 92a0 2c .cfa: sp 0 + .ra: lr
STACK CFI 92a4 .cfa: sp 4 +
STACK CFI 92a8 .ra: .cfa -4 + ^
STACK CFI 92ac .cfa: sp 16 +
STACK CFI INIT 92cc 868 .cfa: sp 0 + .ra: lr
STACK CFI 92d0 .cfa: sp 36 +
STACK CFI 92d4 .cfa: sp 128 +
STACK CFI 92d8 .ra: .cfa -4 + ^ r10: .cfa -12 + ^ r11: .cfa -8 + ^ r4: .cfa -36 + ^ r5: .cfa -32 + ^ r6: .cfa -28 + ^ r7: .cfa -24 + ^ r8: .cfa -20 + ^ r9: .cfa -16 + ^
STACK CFI INIT 9b34 2c .cfa: sp 0 + .ra: lr
STACK CFI 9b38 .cfa: sp 4 +
STACK CFI 9b3c .ra: .cfa -4 + ^
STACK CFI 9b40 .cfa: sp 16 +
STACK CFI INIT 9b60 704 .cfa: sp 0 + .ra: lr
STACK CFI 9b68 .cfa: sp 36 +
STACK CFI 9b6c .ra: .cfa -4 + ^ r10: .cfa -12 + ^ r11: .cfa -8 + ^ r4: .cfa -36 + ^ r5: .cfa -32 + ^ r6: .cfa -28 + ^ r7: .cfa -24 + ^ r8: .cfa -20 + ^ r9: .cfa -16 + ^
STACK CFI 9b70 .cfa: sp 80 +
STACK CFI INIT a264 65c .cfa: sp 0 + .ra: lr
STACK CFI a268 .cfa: sp 36 +
STACK CFI a26c .cfa: sp 168 +
STACK CFI a270 .ra: .cfa -4 + ^ r10: .cfa -12 + ^ r11: .cfa -8 + ^ r4: .cfa -36 + ^ r5: .cfa -32 + ^ r6: .cfa -28 + ^ r7: .cfa -24 + ^ r8: .cfa -20 + ^ r9: .cfa -16 + ^
STACK CFI INIT a8c0 28 .cfa: sp 0 + .ra: lr
STACK CFI a8c4 .cfa: sp 4 +
STACK CFI a8c8 .cfa: sp 24 +
STACK CFI a8d0 .ra: .cfa -4 + ^
STACK CFI INIT a8e8 9c .cfa: sp 0 + .ra: lr
STACK CFI a8ec .cfa: sp 16 +
STACK CFI a8f0 .ra: .cfa -4 + ^ r4: .cfa -16 + ^ r5: .cfa -12 + ^ r6: .cfa -8 + ^
STACK CFI a8fc .cfa: sp 24 +
STACK CFI INIT a984 330 .cfa: sp 0 + .ra: lr
STACK CFI a988 .cfa: sp 32 +
STACK CFI a98c .ra: .cfa -4 + ^ r10: .cfa -8 + ^ r4: .cfa -32 + ^ r5: .cfa -28 + ^ r6: .cfa -24 + ^ r7: .cfa -20 + ^ r8: .cfa -16 + ^ r9: .cfa -12 + ^
STACK CFI INIT acb4 698 .cfa: sp 0 + .ra: lr
STACK CFI acb8 .cfa: sp 36 +
STACK CFI acbc .ra: .cfa -4 + ^ r10: .cfa -12 + ^ r11: .cfa -8 + ^ r4: .cfa -36 + ^ r5: .cfa -32 + ^ r6: .cfa -28 + ^ r7: .cfa -24 + ^ r8: .cfa -20 + ^ r9: .cfa -16 + ^
STACK CFI acc4 .cfa: sp 48 +
STACK CFI INIT b34c 3f4 .cfa: sp 0 + .ra: lr
STACK CFI b350 .cfa: sp 36 +
STACK CFI b358 .cfa: sp 48 +
STACK CFI b360 .ra: .cfa -4 + ^ r10: .cfa -12 + ^ r11: .cfa -8 + ^ r4: .cfa -36 + ^ r5: .cfa -32 + ^ r6: .cfa -28 + ^ r7: .cfa -24 + ^ r8: .cfa -20 + ^ r9: .cfa -16 + ^
STACK CFI INIT b740 5c .cfa: sp 0 + .ra: lr
STACK CFI b744 .cfa: sp 8 +
STACK CFI b74c r4: .cfa -8 + ^ r5: .cfa -4 + ^
STACK CFI INIT b79c 548 .cfa: sp 0 + .ra: lr
STACK CFI b7a0 .cfa: sp 36 +
STACK CFI b7a4 .cfa: sp 88 +
STACK CFI b7a8 .ra: .cfa -4 + ^ r10: .cfa -12 + ^ r11: .cfa -8 + ^ r4: .cfa -36 + ^ r5: .cfa -32 + ^ r6: .cfa -28 + ^ r7: .cfa -24 + ^ r8: .cfa -20 + ^ r9: .cfa -16 + ^
STACK CFI INIT bce4 2c .cfa: sp 0 + .ra: lr
STACK CFI bce8 .cfa: sp 4 +
STACK CFI bcec .ra: .cfa -4 + ^
STACK CFI bcf0 .cfa: sp 16 +
STACK CFI INIT bd10 5c8 .cfa: sp 0 + .ra: lr
STACK CFI bd14 .cfa: sp 36 +
STACK CFI bd18 .cfa: sp 88 +
STACK CFI bd1c .ra: .cfa -4 + ^ r10: .cfa -12 + ^ r11: .cfa -8 + ^ r4: .cfa -36 + ^ r5: .cfa -32 + ^ r6: .cfa -28 + ^ r7: .cfa -24 + ^ r8: .cfa -20 + ^ r9: .cfa -16 + ^
STACK CFI INIT c2d8 2c .cfa: sp 0 + .ra: lr
STACK CFI c2dc .cfa: sp 4 +
STACK CFI c2e0 .ra: .cfa -4 + ^
STACK CFI c2e4 .cfa: sp 16 +
STACK CFI INIT c304 628 .cfa: sp 0 + .ra: lr
STACK CFI c308 .cfa: sp 36 +
STACK CFI c30c .cfa: sp 88 +
STACK CFI c310 .ra: .cfa -4 + ^ r10: .cfa -12 + ^ r11: .cfa -8 + ^ r4: .cfa -36 + ^ r5: .cfa -32 + ^ r6: .cfa -28 + ^ r7: .cfa -24 + ^ r8: .cfa -20 + ^ r9: .cfa -16 + ^
STACK CFI INIT c92c 2c .cfa: sp 0 + .ra: lr
STACK CFI c930 .cfa: sp 4 +
STACK CFI c934 .ra: .cfa -4 + ^
STACK CFI c938 .cfa: sp 16 +
STACK CFI INIT c958 854 .cfa: sp 0 + .ra: lr
STACK CFI c95c .cfa: sp 36 +
STACK CFI c960 .ra: .cfa -4 + ^ r10: .cfa -12 + ^ r11: .cfa -8 + ^ r4: .cfa -36 + ^ r5: .cfa -32 + ^ r6: .cfa -28 + ^ r7: .cfa -24 + ^ r8: .cfa -20 + ^ r9: .cfa -16 + ^
STACK CFI c980 .cfa: sp 80 +
STACK CFI INIT d1ac 2c .cfa: sp 0 + .ra: lr
STACK CFI d1b0 .cfa: sp 4 +
STACK CFI d1b4 .ra: .cfa -4 + ^
STACK CFI d1b8 .cfa: sp 16 +
STACK CFI INIT d1d8 8dc .cfa: sp 0 + .ra: lr
STACK CFI d1dc .cfa: sp 36 +
STACK CFI d1e4 .ra: .cfa -4 + ^ r10: .cfa -12 + ^ r11: .cfa -8 + ^ r4: .cfa -36 + ^ r5: .cfa -32 + ^ r6: .cfa -28 + ^ r7: .cfa -24 + ^ r8: .cfa -20 + ^ r9: .cfa -16 + ^
STACK CFI d1fc .cfa: sp 88 +
STACK CFI INIT dab4 2c .cfa: sp 0 + .ra: lr
STACK CFI dab8 .cfa: sp 4 +
STACK CFI dabc .ra: .cfa -4 + ^
STACK CFI dac0 .cfa: sp 16 +
STACK CFI INIT dae0 980 .cfa: sp 0 + .ra: lr
STACK CFI dae4 .cfa: sp 36 +
STACK CFI daec .ra: .cfa -4 + ^ r10: .cfa -12 + ^ r11: .cfa -8 + ^ r4: .cfa -36 + ^ r5: .cfa -32 + ^ r6: .cfa -28 + ^ r7: .cfa -24 + ^ r8: .cfa -20 + ^ r9: .cfa -16 + ^
STACK CFI db04 .cfa: sp 88 +
STACK CFI INIT e460 2c .cfa: sp 0 + .ra: lr
STACK CFI e464 .cfa: sp 4 +
STACK CFI e468 .ra: .cfa -4 + ^
STACK CFI e46c .cfa: sp 16 +
STACK CFI INIT e48c bf0 .cfa: sp 0 + .ra: lr
STACK CFI e490 .cfa: sp 36 +
STACK CFI e494 .ra: .cfa -4 + ^ r10: .cfa -12 + ^ r11: .cfa -8 + ^ r4: .cfa -36 + ^ r5: .cfa -32 + ^ r6: .cfa -28 + ^ r7: .cfa -24 + ^ r8: .cfa -20 + ^ r9: .cfa -16 + ^
STACK CFI e4b0 .cfa: sp 88 +
STACK CFI INIT f07c 2c .cfa: sp 0 + .ra: lr
STACK CFI f080 .cfa: sp 4 +
STACK CFI f084 .ra: .cfa -4 + ^
STACK CFI f088 .cfa: sp 16 +
STACK CFI INIT f0a8 d78 .cfa: sp 0 + .ra: lr
STACK CFI f0ac .cfa: sp 36 +
STACK CFI f0b0 .ra: .cfa -4 + ^ r10: .cfa -12 + ^ r11: .cfa -8 + ^ r4: .cfa -36 + ^ r5: .cfa -32 + ^ r6: .cfa -28 + ^ r7: .cfa -24 + ^ r8: .cfa -20 + ^ r9: .cfa -16 + ^
STACK CFI f0cc .cfa: sp 88 +
STACK CFI INIT fe20 2c .cfa: sp 0 + .ra: lr
STACK CFI fe24 .cfa: sp 4 +
STACK CFI fe28 .ra: .cfa -4 + ^
STACK CFI fe2c .cfa: sp 16 +
STACK CFI INIT fe4c d5c .cfa: sp 0 + .ra: lr
STACK CFI fe50 .cfa: sp 36 +
STACK CFI fe54 .ra: .cfa -4 + ^ r10: .cfa -12 + ^ r11: .cfa -8 + ^ r4: .cfa -36 + ^ r5: .cfa -32 + ^ r6: .cfa -28 + ^ r7: .cfa -24 + ^ r8: .cfa -20 + ^ r9: .cfa -16 + ^
STACK CFI fe74 .cfa: sp 96 +
STACK CFI INIT 10ba8 2c .cfa: sp 0 + .ra: lr
STACK CFI 10bac .cfa: sp 4 +
STACK CFI 10bb0 .ra: .cfa -4 + ^
STACK CFI 10bb4 .cfa: sp 16 +
STACK CFI INIT 10bd4 810 .cfa: sp 0 + .ra: lr
STACK CFI 10bd8 .cfa: sp 36 +
STACK CFI 10bdc .ra: .cfa -4 + ^ r10: .cfa -12 + ^ r11: .cfa -8 + ^ r4: .cfa -36 + ^ r5: .cfa -32 + ^ r6: .cfa -28 + ^ r7: .cfa -24 + ^ r8: .cfa -20 + ^ r9: .cfa -16 + ^
STACK CFI 10bfc .cfa: sp 128 +
STACK CFI INIT 113e4 2c .cfa: sp 0 + .ra: lr
STACK CFI 113e8 .cfa: sp 4 +
STACK CFI 113ec .ra: .cfa -4 + ^
STACK CFI 113f0 .cfa: sp 16 +
STACK CFI INIT 11410 710 .cfa: sp 0 + .ra: lr
STACK CFI 11418 .cfa: sp 36 +
STACK CFI 1141c .ra: .cfa -4 + ^ r10: .cfa -12 + ^ r11: .cfa -8 + ^ r4: .cfa -36 + ^ r5: .cfa -32 + ^ r6: .cfa -28 + ^ r7: .cfa -24 + ^ r8: .cfa -20 + ^ r9: .cfa -16 + ^
STACK CFI 11420 .cfa: sp 80 +
STACK CFI INIT 11b20 730 .cfa: sp 0 + .ra: lr
STACK CFI 11b24 .cfa: sp 36 +
STACK CFI 11b28 .cfa: sp 176 +
STACK CFI 11b2c .ra: .cfa -4 + ^ r10: .cfa -12 + ^ r11: .cfa -8 + ^ r4: .cfa -36 + ^ r5: .cfa -32 + ^ r6: .cfa -28 + ^ r7: .cfa -24 + ^ r8: .cfa -20 + ^ r9: .cfa -16 + ^
STACK CFI INIT 12250 28 .cfa: sp 0 + .ra: lr
STACK CFI 12254 .cfa: sp 4 +
STACK CFI 12258 .cfa: sp 24 +
STACK CFI 12260 .ra: .cfa -4 + ^
STACK CFI INIT 12278 9c .cfa: sp 0 + .ra: lr
STACK CFI 1227c .cfa: sp 16 +
STACK CFI 12280 .ra: .cfa -4 + ^ r4: .cfa -16 + ^ r5: .cfa -12 + ^ r6: .cfa -8 + ^
STACK CFI 1228c .cfa: sp 24 +
STACK CFI INIT 12314 348 .cfa: sp 0 + .ra: lr
STACK CFI 12318 .cfa: sp 40 +
STACK CFI 1231c .ra: .cfa -4 + ^ r10: .cfa -12 + ^ r11: .cfa -8 + ^ r3: .cfa -40 + ^ r4: .cfa -36 + ^ r5: .cfa -32 + ^ r6: .cfa -28 + ^ r7: .cfa -24 + ^ r8: .cfa -20 + ^ r9: .cfa -16 + ^
STACK CFI INIT 1265c 6c0 .cfa: sp 0 + .ra: lr
STACK CFI 12660 .cfa: sp 36 +
STACK CFI 12664 .ra: .cfa -4 + ^ r10: .cfa -12 + ^ r11: .cfa -8 + ^ r4: .cfa -36 + ^ r5: .cfa -32 + ^ r6: .cfa -28 + ^ r7: .cfa -24 + ^ r8: .cfa -20 + ^ r9: .cfa -16 + ^
STACK CFI 1266c .cfa: sp 48 +
STACK CFI INIT 12d1c 3f4 .cfa: sp 0 + .ra: lr
STACK CFI 12d20 .cfa: sp 36 +
STACK CFI 12d28 .cfa: sp 48 +
STACK CFI 12d30 .ra: .cfa -4 + ^ r10: .cfa -12 + ^ r11: .cfa -8 + ^ r4: .cfa -36 + ^ r5: .cfa -32 + ^ r6: .cfa -28 + ^ r7: .cfa -24 + ^ r8: .cfa -20 + ^ r9: .cfa -16 + ^
STACK CFI INIT 13110 5c .cfa: sp 0 + .ra: lr
STACK CFI 13114 .cfa: sp 8 +
STACK CFI 1311c r4: .cfa -8 + ^ r5: .cfa -4 + ^
STACK CFI INIT 1316c 7c8 .cfa: sp 0 + .ra: lr
STACK CFI 13170 .cfa: sp 32 +
STACK CFI 13174 r10: .cfa -8 + ^ r11: .cfa -4 + ^ r4: .cfa -32 + ^ r5: .cfa -28 + ^ r6: .cfa -24 + ^ r7: .cfa -20 + ^ r8: .cfa -16 + ^ r9: .cfa -12 + ^
STACK CFI 13178 .cfa: sp 72 +
STACK CFI INIT 13934 d8 .cfa: sp 0 + .ra: lr
STACK CFI 1393c .cfa: sp 20 +
STACK CFI 13940 .ra: .cfa -4 + ^ r4: .cfa -20 + ^ r5: .cfa -16 + ^ r6: .cfa -12 + ^ r7: .cfa -8 + ^
STACK CFI 13944 .cfa: sp 32 +
STACK CFI INIT 13a0c 710 .cfa: sp 0 + .ra: lr
STACK CFI 13a14 .cfa: sp 36 +
STACK CFI 13a18 .ra: .cfa -4 + ^ r10: .cfa -12 + ^ r11: .cfa -8 + ^ r4: .cfa -36 + ^ r5: .cfa -32 + ^ r6: .cfa -28 + ^ r7: .cfa -24 + ^ r8: .cfa -20 + ^ r9: .cfa -16 + ^
STACK CFI 13a1c .cfa: sp 80 +
STACK CFI INIT 1411c 128 .cfa: sp 0 + .ra: lr
STACK CFI 14138 .cfa: sp 12 +
STACK CFI 1413c r4: .cfa -12 + ^ r5: .cfa -8 + ^ r6: .cfa -4 + ^
STACK CFI INIT 14244 6a4 .cfa: sp 0 + .ra: lr
STACK CFI 14248 .cfa: sp 36 +
STACK CFI 14250 .cfa: sp 168 +
STACK CFI 14254 .ra: .cfa -4 + ^ r10: .cfa -12 + ^ r11: .cfa -8 + ^ r4: .cfa -36 + ^ r5: .cfa -32 + ^ r6: .cfa -28 + ^ r7: .cfa -24 + ^ r8: .cfa -20 + ^ r9: .cfa -16 + ^
STACK CFI INIT 148e8 28 .cfa: sp 0 + .ra: lr
STACK CFI 148ec .cfa: sp 4 +
STACK CFI 148f0 .cfa: sp 24 +
STACK CFI 148f8 .ra: .cfa -4 + ^
STACK CFI INIT 14910 2dc .cfa: sp 0 + .ra: lr
STACK CFI 14914 .cfa: sp 28 +
STACK CFI 14920 r10: .cfa -4 + ^ r4: .cfa -28 + ^ r5: .cfa -24 + ^ r6: .cfa -20 + ^ r7: .cfa -16 + ^ r8: .cfa -12 + ^ r9: .cfa -8 + ^
STACK CFI INIT 14bec 480 .cfa: sp 0 + .ra: lr
STACK CFI 14bf0 .cfa: sp 32 +
STACK CFI 14bf8 r10: .cfa -8 + ^ r11: .cfa -4 + ^ r4: .cfa -32 + ^ r5: .cfa -28 + ^ r6: .cfa -24 + ^ r7: .cfa -20 + ^ r8: .cfa -16 + ^ r9: .cfa -12 + ^
STACK CFI INIT 1506c 4b4 .cfa: sp 0 + .ra: lr
STACK CFI 15070 .cfa: sp 32 +
STACK CFI 15074 .cfa: sp 64 +
STACK CFI 1507c r10: .cfa -8 + ^ r11: .cfa -4 + ^ r4: .cfa -32 + ^ r5: .cfa -28 + ^ r6: .cfa -24 + ^ r7: .cfa -20 + ^ r8: .cfa -16 + ^ r9: .cfa -12 + ^
STACK CFI INIT 15520 3fc .cfa: sp 0 + .ra: lr
STACK CFI 15524 .cfa: sp 36 +
STACK CFI 1552c .cfa: sp 64 +
STACK CFI 1553c .ra: .cfa -4 + ^ r10: .cfa -12 + ^ r11: .cfa -8 + ^ r4: .cfa -36 + ^ r5: .cfa -32 + ^ r6: .cfa -28 + ^ r7: .cfa -24 + ^ r8: .cfa -20 + ^ r9: .cfa -16 + ^
STACK CFI INIT 1591c 4b4 .cfa: sp 0 + .ra: lr
STACK CFI 15920 .cfa: sp 32 +
STACK CFI 15924 .cfa: sp 64 +
STACK CFI 1592c r10: .cfa -8 + ^ r11: .cfa -4 + ^ r4: .cfa -32 + ^ r5: .cfa -28 + ^ r6: .cfa -24 + ^ r7: .cfa -20 + ^ r8: .cfa -16 + ^ r9: .cfa -12 + ^
STACK CFI INIT 15dd0 3fc .cfa: sp 0 + .ra: lr
STACK CFI 15dd4 .cfa: sp 36 +
STACK CFI 15ddc .cfa: sp 64 +
STACK CFI 15dec .ra: .cfa -4 + ^ r10: .cfa -12 + ^ r11: .cfa -8 + ^ r4: .cfa -36 + ^ r5: .cfa -32 + ^ r6: .cfa -28 + ^ r7: .cfa -24 + ^ r8: .cfa -20 + ^ r9: .cfa -16 + ^
STACK CFI INIT 161cc 4b4 .cfa: sp 0 + .ra: lr
STACK CFI 161d0 .cfa: sp 32 +
STACK CFI 161d4 .cfa: sp 64 +
STACK CFI 161dc r10: .cfa -8 + ^ r11: .cfa -4 + ^ r4: .cfa -32 + ^ r5: .cfa -28 + ^ r6: .cfa -24 + ^ r7: .cfa -20 + ^ r8: .cfa -16 + ^ r9: .cfa -12 + ^
STACK CFI INIT 16680 3fc .cfa: sp 0 + .ra: lr
STACK CFI 16684 .cfa: sp 36 +
STACK CFI 1668c .cfa: sp 64 +
STACK CFI 1669c .ra: .cfa -4 + ^ r10: .cfa -12 + ^ r11: .cfa -8 + ^ r4: .cfa -36 + ^ r5: .cfa -32 + ^ r6: .cfa -28 + ^ r7: .cfa -24 + ^ r8: .cfa -20 + ^ r9: .cfa -16 + ^
STACK CFI INIT 16a7c 4b4 .cfa: sp 0 + .ra: lr
STACK CFI 16a80 .cfa: sp 32 +
STACK CFI 16a84 .cfa: sp 64 +
STACK CFI 16a8c r10: .cfa -8 + ^ r11: .cfa -4 + ^ r4: .cfa -32 + ^ r5: .cfa -28 + ^ r6: .cfa -24 + ^ r7: .cfa -20 + ^ r8: .cfa -16 + ^ r9: .cfa -12 + ^
STACK CFI INIT 16f30 3fc .cfa: sp 0 + .ra: lr
STACK CFI 16f34 .cfa: sp 36 +
STACK CFI 16f3c .cfa: sp 64 +
STACK CFI 16f4c .ra: .cfa -4 + ^ r10: .cfa -12 + ^ r11: .cfa -8 + ^ r4: .cfa -36 + ^ r5: .cfa -32 + ^ r6: .cfa -28 + ^ r7: .cfa -24 + ^ r8: .cfa -20 + ^ r9: .cfa -16 + ^
STACK CFI INIT 1732c 29c .cfa: sp 0 + .ra: lr
STACK CFI 17330 .cfa: sp 20 +
STACK CFI 17334 r4: .cfa -20 + ^ r5: .cfa -16 + ^ r6: .cfa -12 + ^ r7: .cfa -8 + ^ r8: .cfa -4 + ^
STACK CFI INIT 175c8 16c .cfa: sp 0 + .ra: lr
STACK CFI 175cc .cfa: sp 16 +
STACK CFI 175d4 r4: .cfa -16 + ^ r5: .cfa -12 + ^ r6: .cfa -8 + ^ r7: .cfa -4 + ^
STACK CFI INIT 17734 16c .cfa: sp 0 + .ra: lr
STACK CFI INIT 178a0 cc .cfa: sp 0 + .ra: lr
STACK CFI 178a8 .cfa: sp 12 +
STACK CFI 178b0 r4: .cfa -12 + ^ r5: .cfa -8 + ^ r6: .cfa -4 + ^
STACK CFI INIT 1796c 8ac .cfa: sp 0 + .ra: lr
STACK CFI 17974 .cfa: sp 36 +
STACK CFI 17978 .ra: .cfa -4 + ^ r10: .cfa -12 + ^ r11: .cfa -8 + ^ r4: .cfa -36 + ^ r5: .cfa -32 + ^ r6: .cfa -28 + ^ r7: .cfa -24 + ^ r8: .cfa -20 + ^ r9: .cfa -16 + ^
STACK CFI 1797c .cfa: sp 80 +
STACK CFI INIT 18218 bb0 .cfa: sp 0 + .ra: lr
STACK CFI 1821c .cfa: sp 36 +
STACK CFI 18220 .cfa: sp 232 +
STACK CFI 18224 .ra: .cfa -4 + ^ r10: .cfa -12 + ^ r11: .cfa -8 + ^ r4: .cfa -36 + ^ r5: .cfa -32 + ^ r6: .cfa -28 + ^ r7: .cfa -24 + ^ r8: .cfa -20 + ^ r9: .cfa -16 + ^
STACK CFI INIT 18dc8 8c .cfa: sp 0 + .ra: lr
STACK CFI 18dcc .cfa: sp 20 +
STACK CFI 18dd0 .cfa: sp 64 +
STACK CFI 18de4 .ra: .cfa -4 + ^ r4: .cfa -20 + ^ r5: .cfa -16 + ^ r6: .cfa -12 + ^ r7: .cfa -8 + ^
STACK CFI INIT 18e54 3c .cfa: sp 0 + .ra: lr
STACK CFI 18e58 .cfa: sp 4 +
STACK CFI 18e5c .cfa: sp 32 +
STACK CFI 18e64 .ra: .cfa -4 + ^
STACK CFI INIT 18e90 34 .cfa: sp 0 + .ra: lr
STACK CFI 18e94 .cfa: sp 4 +
STACK CFI 18e9c .cfa: sp 32 +
STACK CFI 18ea0 .ra: .cfa -4 + ^
STACK CFI INIT 18ec4 410 .cfa: sp 0 + .ra: lr
STACK CFI 18ecc .cfa: sp 28 +
STACK CFI 18ee0 r10: .cfa -4 + ^ r4: .cfa -28 + ^ r5: .cfa -24 + ^ r6: .cfa -20 + ^ r7: .cfa -16 + ^ r8: .cfa -12 + ^ r9: .cfa -8 + ^
STACK CFI INIT 192d4 620 .cfa: sp 0 + .ra: lr
STACK CFI 192dc .cfa: sp 32 +
STACK CFI 192e4 r10: .cfa -8 + ^ r11: .cfa -4 + ^ r4: .cfa -32 + ^ r5: .cfa -28 + ^ r6: .cfa -24 + ^ r7: .cfa -20 + ^ r8: .cfa -16 + ^ r9: .cfa -12 + ^
STACK CFI INIT 198f4 8a0 .cfa: sp 0 + .ra: lr
STACK CFI 198f8 .cfa: sp 36 +
STACK CFI 198fc .cfa: sp 56 +
STACK CFI 19904 .ra: .cfa -4 + ^ r10: .cfa -12 + ^ r11: .cfa -8 + ^ r4: .cfa -36 + ^ r5: .cfa -32 + ^ r6: .cfa -28 + ^ r7: .cfa -24 + ^ r8: .cfa -20 + ^ r9: .cfa -16 + ^
STACK CFI INIT 1a194 3c .cfa: sp 0 + .ra: lr
STACK CFI INIT 1a1d0 864 .cfa: sp 0 + .ra: lr
STACK CFI 1a1d4 .cfa: sp 36 +
STACK CFI 1a1d8 .ra: .cfa -4 + ^ r10: .cfa -12 + ^ r11: .cfa -8 + ^ r4: .cfa -36 + ^ r5: .cfa -32 + ^ r6: .cfa -28 + ^ r7: .cfa -24 + ^ r8: .cfa -20 + ^ r9: .cfa -16 + ^
STACK CFI 1a1e8 .cfa: sp 64 +
STACK CFI INIT 1aa34 4b4 .cfa: sp 0 + .ra: lr
STACK CFI 1aa38 .cfa: sp 32 +
STACK CFI 1aa3c .cfa: sp 64 +
STACK CFI 1aa44 r10: .cfa -8 + ^ r11: .cfa -4 + ^ r4: .cfa -32 + ^ r5: .cfa -28 + ^ r6: .cfa -24 + ^ r7: .cfa -20 + ^ r8: .cfa -16 + ^ r9: .cfa -12 + ^
STACK CFI INIT 1aee8 3fc .cfa: sp 0 + .ra: lr
STACK CFI 1aeec .cfa: sp 36 +
STACK CFI 1aef4 .cfa: sp 64 +
STACK CFI 1af04 .ra: .cfa -4 + ^ r10: .cfa -12 + ^ r11: .cfa -8 + ^ r4: .cfa -36 + ^ r5: .cfa -32 + ^ r6: .cfa -28 + ^ r7: .cfa -24 + ^ r8: .cfa -20 + ^ r9: .cfa -16 + ^
STACK CFI INIT 1b2e4 29c .cfa: sp 0 + .ra: lr
STACK CFI 1b2e8 .cfa: sp 20 +
STACK CFI 1b2ec r4: .cfa -20 + ^ r5: .cfa -16 + ^ r6: .cfa -12 + ^ r7: .cfa -8 + ^ r8: .cfa -4 + ^
STACK CFI INIT 1b580 16c .cfa: sp 0 + .ra: lr
STACK CFI 1b584 .cfa: sp 16 +
STACK CFI 1b58c r4: .cfa -16 + ^ r5: .cfa -12 + ^ r6: .cfa -8 + ^ r7: .cfa -4 + ^
STACK CFI INIT 1b6ec 16c .cfa: sp 0 + .ra: lr
STACK CFI INIT 1b858 d4 .cfa: sp 0 + .ra: lr
STACK CFI 1b860 .cfa: sp 12 +
STACK CFI 1b868 r4: .cfa -12 + ^ r5: .cfa -8 + ^ r6: .cfa -4 + ^
STACK CFI INIT 1b92c 8ac .cfa: sp 0 + .ra: lr
STACK CFI 1b934 .cfa: sp 36 +
STACK CFI 1b938 .ra: .cfa -4 + ^ r10: .cfa -12 + ^ r11: .cfa -8 + ^ r4: .cfa -36 + ^ r5: .cfa -32 + ^ r6: .cfa -28 + ^ r7: .cfa -24 + ^ r8: .cfa -20 + ^ r9: .cfa -16 + ^
STACK CFI 1b93c .cfa: sp 80 +
STACK CFI INIT 1c1d8 bb0 .cfa: sp 0 + .ra: lr
STACK CFI 1c1dc .cfa: sp 36 +
STACK CFI 1c1e0 .cfa: sp 232 +
STACK CFI 1c1e4 .ra: .cfa -4 + ^ r10: .cfa -12 + ^ r11: .cfa -8 + ^ r4: .cfa -36 + ^ r5: .cfa -32 + ^ r6: .cfa -28 + ^ r7: .cfa -24 + ^ r8: .cfa -20 + ^ r9: .cfa -16 + ^
STACK CFI INIT 1cd88 8c .cfa: sp 0 + .ra: lr
STACK CFI 1cd8c .cfa: sp 20 +
STACK CFI 1cd90 .cfa: sp 64 +
STACK CFI 1cda4 .ra: .cfa -4 + ^ r4: .cfa -20 + ^ r5: .cfa -16 + ^ r6: .cfa -12 + ^ r7: .cfa -8 + ^
STACK CFI INIT 1ce14 3c .cfa: sp 0 + .ra: lr
STACK CFI 1ce18 .cfa: sp 4 +
STACK CFI 1ce1c .cfa: sp 32 +
STACK CFI 1ce24 .ra: .cfa -4 + ^
STACK CFI INIT 1ce50 34 .cfa: sp 0 + .ra: lr
STACK CFI 1ce54 .cfa: sp 4 +
STACK CFI 1ce5c .cfa: sp 32 +
STACK CFI 1ce60 .ra: .cfa -4 + ^
STACK CFI INIT 1ce84 410 .cfa: sp 0 + .ra: lr
STACK CFI 1ce8c .cfa: sp 28 +
STACK CFI 1cea0 r10: .cfa -4 + ^ r4: .cfa -28 + ^ r5: .cfa -24 + ^ r6: .cfa -20 + ^ r7: .cfa -16 + ^ r8: .cfa -12 + ^ r9: .cfa -8 + ^
STACK CFI INIT 1d294 620 .cfa: sp 0 + .ra: lr
STACK CFI 1d29c .cfa: sp 32 +
STACK CFI 1d2a4 r10: .cfa -8 + ^ r11: .cfa -4 + ^ r4: .cfa -32 + ^ r5: .cfa -28 + ^ r6: .cfa -24 + ^ r7: .cfa -20 + ^ r8: .cfa -16 + ^ r9: .cfa -12 + ^
STACK CFI INIT 1d8b4 8a0 .cfa: sp 0 + .ra: lr
STACK CFI 1d8b8 .cfa: sp 36 +
STACK CFI 1d8bc .cfa: sp 56 +
STACK CFI 1d8c4 .ra: .cfa -4 + ^ r10: .cfa -12 + ^ r11: .cfa -8 + ^ r4: .cfa -36 + ^ r5: .cfa -32 + ^ r6: .cfa -28 + ^ r7: .cfa -24 + ^ r8: .cfa -20 + ^ r9: .cfa -16 + ^
STACK CFI INIT 1e154 3c .cfa: sp 0 + .ra: lr
STACK CFI INIT 1e190 864 .cfa: sp 0 + .ra: lr
STACK CFI 1e194 .cfa: sp 36 +
STACK CFI 1e198 .ra: .cfa -4 + ^ r10: .cfa -12 + ^ r11: .cfa -8 + ^ r4: .cfa -36 + ^ r5: .cfa -32 + ^ r6: .cfa -28 + ^ r7: .cfa -24 + ^ r8: .cfa -20 + ^ r9: .cfa -16 + ^
STACK CFI 1e1a8 .cfa: sp 64 +
STACK CFI INIT 1e9f4 2c4 .cfa: sp 0 + .ra: lr
STACK CFI 1e9f8 .cfa: sp 20 +
STACK CFI 1e9fc r4: .cfa -20 + ^ r5: .cfa -16 + ^ r6: .cfa -12 + ^ r7: .cfa -8 + ^ r8: .cfa -4 + ^
STACK CFI INIT 1ecb8 16c .cfa: sp 0 + .ra: lr
STACK CFI 1ecbc .cfa: sp 16 +
STACK CFI 1ecc4 r4: .cfa -16 + ^ r5: .cfa -12 + ^ r6: .cfa -8 + ^ r7: .cfa -4 + ^
STACK CFI INIT 1ee24 16c .cfa: sp 0 + .ra: lr
STACK CFI INIT 1ef90 130 .cfa: sp 0 + .ra: lr
STACK CFI 1ef98 .cfa: sp 16 +
STACK CFI 1efa0 r4: .cfa -16 + ^ r5: .cfa -12 + ^ r6: .cfa -8 + ^ r7: .cfa -4 + ^
STACK CFI INIT 1f0c0 8ac .cfa: sp 0 + .ra: lr
STACK CFI 1f0c8 .cfa: sp 36 +
STACK CFI 1f0cc .ra: .cfa -4 + ^ r10: .cfa -12 + ^ r11: .cfa -8 + ^ r4: .cfa -36 + ^ r5: .cfa -32 + ^ r6: .cfa -28 + ^ r7: .cfa -24 + ^ r8: .cfa -20 + ^ r9: .cfa -16 + ^
STACK CFI 1f0d0 .cfa: sp 80 +
STACK CFI INIT 1f96c c6c .cfa: sp 0 + .ra: lr
STACK CFI 1f970 .cfa: sp 36 +
STACK CFI 1f974 .cfa: sp 232 +
STACK CFI 1f978 .ra: .cfa -4 + ^ r10: .cfa -12 + ^ r11: .cfa -8 + ^ r4: .cfa -36 + ^ r5: .cfa -32 + ^ r6: .cfa -28 + ^ r7: .cfa -24 + ^ r8: .cfa -20 + ^ r9: .cfa -16 + ^
STACK CFI INIT 205d8 8c .cfa: sp 0 + .ra: lr
STACK CFI 205dc .cfa: sp 20 +
STACK CFI 205e0 .cfa: sp 64 +
STACK CFI 205f4 .ra: .cfa -4 + ^ r4: .cfa -20 + ^ r5: .cfa -16 + ^ r6: .cfa -12 + ^ r7: .cfa -8 + ^
STACK CFI INIT 20664 3c .cfa: sp 0 + .ra: lr
STACK CFI 20668 .cfa: sp 4 +
STACK CFI 2066c .cfa: sp 32 +
STACK CFI 20674 .ra: .cfa -4 + ^
STACK CFI INIT 206a0 34 .cfa: sp 0 + .ra: lr
STACK CFI 206a4 .cfa: sp 4 +
STACK CFI 206ac .cfa: sp 32 +
STACK CFI 206b0 .ra: .cfa -4 + ^
STACK CFI INIT 206d4 420 .cfa: sp 0 + .ra: lr
STACK CFI 206d8 .cfa: sp 32 +
STACK CFI 206dc r10: .cfa -8 + ^ r11: .cfa -4 + ^ r4: .cfa -32 + ^ r5: .cfa -28 + ^ r6: .cfa -24 + ^ r7: .cfa -20 + ^ r8: .cfa -16 + ^ r9: .cfa -12 + ^
STACK CFI INIT 20af4 64c .cfa: sp 0 + .ra: lr
STACK CFI 20afc .cfa: sp 32 +
STACK CFI 20b04 r10: .cfa -8 + ^ r11: .cfa -4 + ^ r4: .cfa -32 + ^ r5: .cfa -28 + ^ r6: .cfa -24 + ^ r7: .cfa -20 + ^ r8: .cfa -16 + ^ r9: .cfa -12 + ^
STACK CFI 20b0c .cfa: sp 40 +
STACK CFI INIT 21140 8cc .cfa: sp 0 + .ra: lr
STACK CFI 21144 .cfa: sp 36 +
STACK CFI 21148 .cfa: sp 64 +
STACK CFI 21150 .ra: .cfa -4 + ^ r10: .cfa -12 + ^ r11: .cfa -8 + ^ r4: .cfa -36 + ^ r5: .cfa -32 + ^ r6: .cfa -28 + ^ r7: .cfa -24 + ^ r8: .cfa -20 + ^ r9: .cfa -16 + ^
STACK CFI INIT 21a0c 844 .cfa: sp 0 + .ra: lr
STACK CFI 21a14 .cfa: sp 36 +
STACK CFI 21a18 .ra: .cfa -4 + ^ r10: .cfa -12 + ^ r11: .cfa -8 + ^ r4: .cfa -36 + ^ r5: .cfa -32 + ^ r6: .cfa -28 + ^ r7: .cfa -24 + ^ r8: .cfa -20 + ^ r9: .cfa -16 + ^
STACK CFI 21a1c .cfa: sp 80 +
STACK CFI INIT 22250 8e4 .cfa: sp 0 + .ra: lr
STACK CFI 22254 .cfa: sp 36 +
STACK CFI 22258 .ra: .cfa -4 + ^ r10: .cfa -12 + ^ r11: .cfa -8 + ^ r4: .cfa -36 + ^ r5: .cfa -32 + ^ r6: .cfa -28 + ^ r7: .cfa -24 + ^ r8: .cfa -20 + ^ r9: .cfa -16 + ^
STACK CFI 2225c .cfa: sp 168 +
STACK CFI INIT 22b34 28 .cfa: sp 0 + .ra: lr
STACK CFI 22b38 .cfa: sp 4 +
STACK CFI 22b3c .cfa: sp 24 +
STACK CFI 22b44 .ra: .cfa -4 + ^
STACK CFI INIT 22b5c 230 .cfa: sp 0 + .ra: lr
STACK CFI 22b60 .cfa: sp 32 +
STACK CFI 22b68 .cfa: sp 40 +
STACK CFI 22b70 r10: .cfa -8 + ^ r11: .cfa -4 + ^ r4: .cfa -32 + ^ r5: .cfa -28 + ^ r6: .cfa -24 + ^ r7: .cfa -20 + ^ r8: .cfa -16 + ^ r9: .cfa -12 + ^
STACK CFI INIT 22d8c 368 .cfa: sp 0 + .ra: lr
STACK CFI 22d90 .cfa: sp 32 +
STACK CFI 22d98 r10: .cfa -8 + ^ r11: .cfa -4 + ^ r4: .cfa -32 + ^ r5: .cfa -28 + ^ r6: .cfa -24 + ^ r7: .cfa -20 + ^ r8: .cfa -16 + ^ r9: .cfa -12 + ^
STACK CFI 22d9c .cfa: sp 40 +
STACK CFI INIT 230f4 10 .cfa: sp 0 + .ra: lr
STACK CFI INIT 23104 234 .cfa: sp 0 + .ra: lr
STACK CFI 2310c .cfa: sp 16 +
STACK CFI 23114 r4: .cfa -16 + ^ r5: .cfa -12 + ^ r6: .cfa -8 + ^ r7: .cfa -4 + ^
STACK CFI INIT 23338 8 .cfa: sp 0 + .ra: lr
STACK CFI INIT 23340 27c .cfa: sp 0 + .ra: lr
STACK CFI 23344 .cfa: sp 36 +
STACK CFI 23348 .cfa: sp 88 +
STACK CFI 2334c .ra: .cfa -4 + ^ r10: .cfa -12 + ^ r11: .cfa -8 + ^ r4: .cfa -36 + ^ r5: .cfa -32 + ^ r6: .cfa -28 + ^ r7: .cfa -24 + ^ r8: .cfa -20 + ^ r9: .cfa -16 + ^
STACK CFI INIT 235bc a4 .cfa: sp 0 + .ra: lr
STACK CFI 235c0 .cfa: sp 16 +
STACK CFI 235d0 r4: .cfa -16 + ^ r5: .cfa -12 + ^ r6: .cfa -8 + ^ r7: .cfa -4 + ^
STACK CFI INIT 23660 4 .cfa: sp 0 + .ra: lr
STACK CFI INIT 23664 38 .cfa: sp 0 + .ra: lr
STACK CFI 2366c .cfa: sp 8 +
STACK CFI 23674 .ra: .cfa -4 + ^ r4: .cfa -8 + ^
STACK CFI INIT 2369c 4 .cfa: sp 0 + .ra: lr
STACK CFI INIT 236a0 4 .cfa: sp 0 + .ra: lr
STACK CFI INIT 236a4 4 .cfa: sp 0 + .ra: lr
STACK CFI INIT 236a8 4 .cfa: sp 0 + .ra: lr
STACK CFI INIT 236ac 10 .cfa: sp 0 + .ra: lr
STACK CFI INIT 236bc c .cfa: sp 0 + .ra: lr
STACK CFI INIT 236c8 14 .cfa: sp 0 + .ra: lr
STACK CFI INIT 236dc 14 .cfa: sp 0 + .ra: lr
STACK CFI INIT 236f0 14 .cfa: sp 0 + .ra: lr
STACK CFI INIT 23704 14 .cfa: sp 0 + .ra: lr
STACK CFI INIT 23718 1e4 .cfa: sp 0 + .ra: lr
STACK CFI 23720 .cfa: sp 32 +
STACK CFI 23728 r10: .cfa -8 + ^ r11: .cfa -4 + ^ r4: .cfa -32 + ^ r5: .cfa -28 + ^ r6: .cfa -24 + ^ r7: .cfa -20 + ^ r8: .cfa -16 + ^ r9: .cfa -12 + ^
