MODULE Linux arm CF414F50BBF57A25CD4D3C3EF6499D680 libdirectfb_linux_input.so
FUNC 1178 4f0 0 keyboard_get_symbol
FUNC 1668 2c 0 is_created
FUNC 1694 18 0 driver_set_configuration
FUNC 16ac 604 0 touchpad_fsm
FUNC 1cb0 dc 0 driver_get_axis_info
FUNC 1d8c 110 0 stop_hotplug
FUNC 1e9c 13c 0 launch_hotplug
FUNC 1fd8 44 0 driver_resume
FUNC 201c 48 0 driver_suspend
FUNC 2064 650 0 get_device_info
FUNC 26b4 48 0 driver_get_info
FUNC 26fc 744 0 udev_hotplug_EventThread
FUNC 2e40 78 0 get_capability
FUNC 2eb8 100 0 check_device
FUNC 2fb8 1214 0 driver_get_available
FUNC 41cc 290 0 translate_event
FUNC 445c 15c 0 driver_close_device
FUNC 45b8 458 0 driver_open_device
FUNC 4a10 600 0 driver_get_keymap_entry
FUNC 5010 b40 0 linux_input_EventThread
FUNC 5b50 38 0 directfb_linux_input_ctor
FUNC 5b88 28 0 directfb_linux_input_dtor
STACK CFI INIT 1178 4f0 .cfa: sp 0 + .ra: lr
STACK CFI INIT 1668 2c .cfa: sp 0 + .ra: lr
STACK CFI INIT 1694 18 .cfa: sp 0 + .ra: lr
STACK CFI INIT 16ac 604 .cfa: sp 0 + .ra: lr
STACK CFI 16b0 .cfa: sp 16 +
STACK CFI 16b4 .ra: .cfa -4 + ^ r4: .cfa -16 + ^ r5: .cfa -12 + ^ r6: .cfa -8 + ^
STACK CFI 16bc .cfa: sp 24 +
STACK CFI INIT 1cb0 dc .cfa: sp 0 + .ra: lr
STACK CFI 1cb8 .cfa: sp 16 +
STACK CFI 1cbc .ra: .cfa -4 + ^ r4: .cfa -16 + ^ r5: .cfa -12 + ^ r6: .cfa -8 + ^
STACK CFI 1ccc .cfa: sp 48 +
STACK CFI INIT 1d8c 110 .cfa: sp 0 + .ra: lr
STACK CFI 1d90 .cfa: sp 16 +
STACK CFI 1d94 .ra: .cfa -4 + ^ r4: .cfa -16 + ^ r5: .cfa -12 + ^ r6: .cfa -8 + ^
STACK CFI INIT 1e9c 13c .cfa: sp 0 + .ra: lr
STACK CFI 1ea0 .cfa: sp 24 +
STACK CFI 1ea4 .ra: .cfa -4 + ^ r3: .cfa -24 + ^ r4: .cfa -20 + ^ r5: .cfa -16 + ^ r6: .cfa -12 + ^ r7: .cfa -8 + ^
STACK CFI INIT 1fd8 44 .cfa: sp 0 + .ra: lr
STACK CFI 1fdc .cfa: sp 16 +
STACK CFI 1fe0 .ra: .cfa -4 + ^ r4: .cfa -16 + ^ r5: .cfa -12 + ^ r6: .cfa -8 + ^
STACK CFI INIT 201c 48 .cfa: sp 0 + .ra: lr
STACK CFI 2020 .cfa: sp 16 +
STACK CFI 2024 .ra: .cfa -4 + ^ r4: .cfa -16 + ^ r5: .cfa -12 + ^ r6: .cfa -8 + ^
STACK CFI INIT 2064 650 .cfa: sp 0 + .ra: lr
STACK CFI 2068 .cfa: sp 36 +
STACK CFI 206c .ra: .cfa -4 + ^ r10: .cfa -12 + ^ r11: .cfa -8 + ^ r4: .cfa -36 + ^ r5: .cfa -32 + ^ r6: .cfa -28 + ^ r7: .cfa -24 + ^ r8: .cfa -20 + ^ r9: .cfa -16 + ^
STACK CFI 2070 .cfa: sp 160 +
STACK CFI INIT 26b4 48 .cfa: sp 0 + .ra: lr
STACK CFI 26bc .cfa: sp 8 +
STACK CFI 26c4 .ra: .cfa -4 + ^ r4: .cfa -8 + ^
STACK CFI INIT 26fc 744 .cfa: sp 0 + .ra: lr
STACK CFI 2700 .cfa: sp 36 +
STACK CFI 2704 .cfa: sp 1348 +
STACK CFI 2708 .cfa: sp 1360 +
STACK CFI 2710 .ra: .cfa -4 + ^ r10: .cfa -12 + ^ r11: .cfa -8 + ^ r4: .cfa -36 + ^ r5: .cfa -32 + ^ r6: .cfa -28 + ^ r7: .cfa -24 + ^ r8: .cfa -20 + ^ r9: .cfa -16 + ^
STACK CFI INIT 2e40 78 .cfa: sp 0 + .ra: lr
STACK CFI 2e50 .cfa: sp 8 +
STACK CFI 2e5c .ra: .cfa -4 + ^ r4: .cfa -8 + ^
STACK CFI INIT 2eb8 100 .cfa: sp 0 + .ra: lr
STACK CFI 2ebc .cfa: sp 12 +
STACK CFI 2ec4 .cfa: sp 128 + .ra: .cfa -4 + ^ r4: .cfa -12 + ^ r5: .cfa -8 + ^
STACK CFI INIT 2fb8 1214 .cfa: sp 0 + .ra: lr
STACK CFI 2fc8 .cfa: sp 24 +
STACK CFI 2fcc .ra: .cfa -4 + ^ r4: .cfa -24 + ^ r5: .cfa -20 + ^ r6: .cfa -16 + ^ r7: .cfa -12 + ^ r8: .cfa -8 + ^
STACK CFI 2fd0 .cfa: sp 56 +
STACK CFI INIT 41cc 290 .cfa: sp 0 + .ra: lr
STACK CFI 41d4 .cfa: sp 12 +
STACK CFI 41dc r4: .cfa -12 + ^ r5: .cfa -8 + ^ r6: .cfa -4 + ^
STACK CFI INIT 445c 15c .cfa: sp 0 + .ra: lr
STACK CFI 4464 .cfa: sp 12 +
STACK CFI 446c .ra: .cfa -4 + ^ r4: .cfa -12 + ^ r5: .cfa -8 + ^
STACK CFI 4470 .cfa: sp 32 +
STACK CFI INIT 45b8 458 .cfa: sp 0 + .ra: lr
STACK CFI 45bc .cfa: sp 36 +
STACK CFI 45c0 .ra: .cfa -4 + ^ r10: .cfa -12 + ^ r11: .cfa -8 + ^ r4: .cfa -36 + ^ r5: .cfa -32 + ^ r6: .cfa -28 + ^ r7: .cfa -24 + ^ r8: .cfa -20 + ^ r9: .cfa -16 + ^
STACK CFI 45d0 .cfa: sp 64 +
STACK CFI INIT 4a10 600 .cfa: sp 0 + .ra: lr
STACK CFI 4a18 .cfa: sp 32 +
STACK CFI 4a1c .ra: .cfa -4 + ^ r10: .cfa -8 + ^ r4: .cfa -32 + ^ r5: .cfa -28 + ^ r6: .cfa -24 + ^ r7: .cfa -20 + ^ r8: .cfa -16 + ^ r9: .cfa -12 + ^
STACK CFI 4a24 .cfa: sp 40 +
STACK CFI INIT 5010 b40 .cfa: sp 0 + .ra: lr
STACK CFI 5014 .cfa: sp 36 +
STACK CFI 501c .ra: .cfa -4 + ^ r10: .cfa -12 + ^ r11: .cfa -8 + ^ r4: .cfa -36 + ^ r5: .cfa -32 + ^ r6: .cfa -28 + ^ r7: .cfa -24 + ^ r8: .cfa -20 + ^ r9: .cfa -16 + ^
STACK CFI 502c .cfa: sp 1700 +
STACK CFI 5030 .cfa: sp 1712 +
STACK CFI INIT 5b50 38 .cfa: sp 0 + .ra: lr
STACK CFI INIT 5b88 28 .cfa: sp 0 + .ra: lr
STACK CFI INIT 5bb0 220 .cfa: sp 0 + .ra: lr
