MODULE Linux arm 166C203231483005FAA0233756D2BCFD0 libdirectfb-1.7.so.4.0.0
FUNC 30e54 40 0 IDirectFB_AddRef
FUNC 30e94 3c 0 input_filter_global
FUNC 30ed0 c 0 dfb_surface_unref
FUNC 30edc 64 0 focus_listener
FUNC 30f40 d0 0 IDirectFB_GetInterface
FUNC 31010 40 0 IDirectFB_WaitForSync
FUNC 31050 48 0 IDirectFB_WaitIdle
FUNC 31098 34 0 IDirectFB_Resume
FUNC 310cc 34 0 IDirectFB_Suspend
FUNC 31100 a4 0 IDirectFB_GetClipboardTimeStamp
FUNC 311a4 170 0 IDirectFB_GetClipboardData
FUNC 31314 c8 0 IDirectFB_SetClipboardData
FUNC 313dc 1e4 0 IDirectFB_CreateDataBuffer
FUNC 315c0 128 0 IDirectFB_CreateFont
FUNC 316e8 ac 0 IDirectFB_CreateVideoProvider
FUNC 31794 b0 0 IDirectFB_CreateImageProvider
FUNC 31844 bc 0 IDirectFB_CreateEventBuffer
FUNC 31900 98 0 IDirectFB_GetInputDevice
FUNC 31998 78 0 IDirectFB_EnumInputDevices
FUNC 31a10 228 0 IDirectFB_CreateInputEventBuffer
FUNC 31c38 34 0 CreateEventBuffer_Callback
FUNC 31c6c dc 0 input_filter_local
FUNC 31d48 58 0 EnumInputDevices_Callback
FUNC 31da0 b0 0 GetInputDevice_Callback
FUNC 31e50 d8 0 IDirectFB_GetDisplayLayer
FUNC 31f28 74 0 IDirectFB_EnumDisplayLayers
FUNC 31f9c b8 0 GetDisplayLayer_Callback
FUNC 32054 ac 0 EnumDisplayLayers_Callback
FUNC 32100 cc 0 IDirectFB_GetScreen
FUNC 321cc 74 0 IDirectFB_EnumScreens
FUNC 32240 b0 0 GetScreen_Callback
FUNC 322f0 a0 0 EnumScreens_Callback
FUNC 32390 6c 0 init_palette
FUNC 323fc 290 0 IDirectFB_SetVideoMode
FUNC 3268c 8c 0 IDirectFB_EnumVideoModes
FUNC 32718 e0 0 IDirectFB_GetDeviceDescription
FUNC 327f8 15c 0 IDirectFB_CreatePalette
FUNC 32954 108 0 IDirectFB_GetSurface
FUNC 32a5c 1670 0 IDirectFB_CreateSurface
FUNC 340cc 17c 0 IDirectFB_SetCooperativeLevel
FUNC 34248 78 0 containers_attach_device
FUNC 342c0 54 0 containers_detach_device
FUNC 34314 d0 0 containers_remove_input_eventbuffer
FUNC 343e4 638 0 IDirectFB_Destruct
FUNC 34a1c 4c 0 IDirectFB_Release
FUNC 34a68 ac0 0 IDirectFB_InitLayers
FUNC 35528 11c 0 InitIDirectFB_Async
FUNC 35644 3b4 0 IDirectFB_Construct
FUNC 359f8 90 0 IDirectFB_WaitInitialised
FUNC 35a88 40 0 IDirectFB_SetAppFocus
FUNC 35ac8 94 0 DirectFBCheckVersion
FUNC 35b5c 4 0 DirectFBUsageString
FUNC 35b60 4 0 DirectFBInit
FUNC 35b64 84 0 DirectFBSetOption
FUNC 35be8 2b0 0 DirectFBCreate
FUNC 35e98 4 0 DirectFBErrorString
FUNC 35e9c 64 0 DirectFBError
FUNC 35f00 14 0 DirectFBErrorFatal
FUNC 35f14 78 0 DFBResult__init
FUNC 35f8c 10 0 DFBResult__deinit
FUNC 35f9c 14 0 __DFB_init_all
FUNC 35fb0 14 0 __DFB_deinit_all
FUNC 35fc4 118 0 DirectFB::ICore_Requestor::CreatePalette(unsigned int, _CorePalette**)
FUNC 360dc c0 0 DirectFB::ICore_Requestor::Roundtrip()
FUNC 3619c d8 0 DirectFB::ICore_Requestor::ClipboardGetTimestamp(unsigned long long*)
FUNC 36274 188 0 DirectFB::ICore_Requestor::ClipboardGet(char*, unsigned int*, char*, unsigned int*)
FUNC 363fc 1a8 0 DirectFB::ICore_Requestor::ClipboardSet(char const*, unsigned int, char const*, unsigned int, unsigned long long)
FUNC 365a4 178 0 DirectFB::ICore_Requestor::AllowSurface(__DFB_CoreSurface*, char const*, unsigned int)
FUNC 3671c d8 0 DirectFB::ICore_Requestor::CreateImageProvider(unsigned int, unsigned int*)
FUNC 367f4 c0 0 DirectFB::ICore_Requestor::Register(unsigned int)
FUNC 368b4 c0 0 DirectFB::ICore_Requestor::Initialize()
FUNC 36974 120 0 DirectFB::ICore_Requestor::GetSurface(unsigned int, __DFB_CoreSurface**)
FUNC 36a94 164 0 DirectFB::ICore_Requestor::CreateSurface(CoreSurfaceConfig const*, CoreSurfaceTypeFlags, unsigned long long, _CorePalette*, __DFB_CoreSurface**)
FUNC 36bf8 120 0 DirectFB::ICore_Requestor::CreateState(__DFB_CoreGraphicsState**)
FUNC 36d18 6c4 0 DirectFB::__CoreDFBDispatch__Dispatch
FUNC 373dc cc 0 CoreDFB_Initialize
FUNC 374a8 d8 0 CoreDFB_Register
FUNC 37580 110 0 CoreDFB_CreateSurface
FUNC 37690 e4 0 CoreDFB_CreatePalette
FUNC 37774 d8 0 CoreDFB_CreateState
FUNC 3784c e4 0 CoreDFB_CreateImageProvider
FUNC 37930 f0 0 CoreDFB_AllowSurface
FUNC 37a20 e4 0 CoreDFB_GetSurface
FUNC 37b04 114 0 CoreDFB_ClipboardSet
FUNC 37c18 104 0 CoreDFB_ClipboardGet
FUNC 37d1c d8 0 CoreDFB_ClipboardGetTimestamp
FUNC 37df4 cc 0 CoreDFB_Roundtrip
FUNC 37ec0 20 0 CoreDFB_Init_Dispatch
FUNC 37ee0 4 0 CoreDFB_Deinit_Dispatch
FUNC 37ee4 54 0 DirectFB::CoreDFBDispatch__Dispatch(__DFB_CoreDFB*, unsigned long, int, void*, unsigned int, void*, unsigned int, unsigned int*)
FUNC 37f38 50 0 CoreDFB_Dispatch
FUNC 37f88 8 0 DirectFB::ICore_Real::Roundtrip()
FUNC 37f90 48 0 DirectFB::ICore_Real::ClipboardGetTimestamp(unsigned long long*)
FUNC 37fd8 bc 0 DirectFB::ICore_Real::ClipboardGet(char*, unsigned int*, char*, unsigned int*)
FUNC 38094 78 0 DirectFB::ICore_Real::ClipboardSet(char const*, unsigned int, char const*, unsigned int, unsigned long long)
FUNC 3810c 10c 0 DirectFB::ICore_Real::GetSurface(unsigned int, __DFB_CoreSurface**)
FUNC 38218 c 0 DirectFB::ICore_Real::AllowSurface(__DFB_CoreSurface*, char const*, unsigned int)
FUNC 38224 120 0 DirectFB::ICore_Real::CreateImageProvider(unsigned int, unsigned int*)
FUNC 38344 8 0 DirectFB::ICore_Real::CreateState(__DFB_CoreGraphicsState**)
FUNC 3834c 8 0 DirectFB::ICore_Real::CreatePalette(unsigned int, _CorePalette**)
FUNC 38354 84 0 DirectFB::ICore_Real::CreateSurface(CoreSurfaceConfig const*, CoreSurfaceTypeFlags, unsigned long long, _CorePalette*, __DFB_CoreSurface**)
FUNC 383d8 18 0 DirectFB::ICore_Real::Register(unsigned int)
FUNC 383f0 2c 0 DirectFB::ICore_Real::Initialize()
FUNC 3841c 16c 0 DirectFB::ICoreSlave_Requestor::GetData(void*, unsigned int, unsigned char*)
FUNC 38588 168 0 DirectFB::ICoreSlave_Requestor::PutData(void*, unsigned int, unsigned char const*)
FUNC 386f0 ac 0 CoreSlave_GetData
FUNC 3879c ac 0 CoreSlave_PutData
FUNC 38848 20 0 CoreSlave_Init_Dispatch
FUNC 38868 4 0 CoreSlave_Deinit_Dispatch
FUNC 3886c d0 0 DirectFB::CoreSlaveDispatch__Dispatch(__DFB_CoreDFB*, unsigned long, int, void*, unsigned int, void*, unsigned int, unsigned int*)
FUNC 3893c 50 0 CoreSlave_Dispatch
FUNC 3898c 60 0 DirectFB::ICoreSlave_Real::PutData(void*, unsigned int, unsigned char const*)
FUNC 389ec 60 0 DirectFB::ICoreSlave_Real::GetData(void*, unsigned int, unsigned char*)
FUNC 38a4c a8 0 DirectFB::IGraphicsState_Requestor::flushCalls()
FUNC 38afc 94 0 DirectFB::IGraphicsState_Requestor::SetSrcConvolution(DFBConvolutionFilter const*)
FUNC 38b90 74 0 DirectFB::IGraphicsState_Requestor::ReleaseSource()
FUNC 38c04 fc 0 DirectFB::IGraphicsState_Requestor::TextureTriangles(DFBVertex const*, unsigned int, DFBTriangleFormation)
FUNC 38d00 2d8 0 DirectFB::IGraphicsState_Requestor::TileBlit(DFBRectangle const*, DFBPoint const*, DFBPoint const*, unsigned int)
FUNC 38fd8 258 0 DirectFB::IGraphicsState_Requestor::StretchBlit(DFBRectangle const*, DFBRectangle const*, unsigned int)
FUNC 39230 2d8 0 DirectFB::IGraphicsState_Requestor::Blit2(DFBRectangle const*, DFBPoint const*, DFBPoint const*, unsigned int)
FUNC 39508 12c 0 DirectFB::IGraphicsState_Requestor::Blit(DFBRectangle const*, DFBPoint const*, unsigned int)
FUNC 39634 20c 0 DirectFB::IGraphicsState_Requestor::FillSpans(int, DFBSpan const*, unsigned int)
FUNC 39840 e8 0 DirectFB::IGraphicsState_Requestor::FillTrapezoids(DFBTrapezoid const*, unsigned int)
FUNC 39928 e8 0 DirectFB::IGraphicsState_Requestor::FillTriangles(DFBTriangle const*, unsigned int)
FUNC 39a10 2d8 0 DirectFB::IGraphicsState_Requestor::FillRectangles(DFBRectangle const*, unsigned int)
FUNC 39ce8 2d8 0 DirectFB::IGraphicsState_Requestor::DrawLines(DFBRegion const*, unsigned int)
FUNC 39fc0 2d4 0 DirectFB::IGraphicsState_Requestor::DrawRectangles(DFBRectangle const*, unsigned int)
FUNC 3a294 84 0 DirectFB::IGraphicsState_Requestor::SetTo(CoreSurfaceBufferRole, DFBSurfaceStereoEye)
FUNC 3a318 84 0 DirectFB::IGraphicsState_Requestor::SetFrom(CoreSurfaceBufferRole, DFBSurfaceStereoEye)
FUNC 3a39c 80 0 DirectFB::IGraphicsState_Requestor::SetSource2(__DFB_CoreSurface*)
FUNC 3a41c a4 0 DirectFB::IGraphicsState_Requestor::SetMatrix(int const*)
FUNC 3a4c0 7c 0 DirectFB::IGraphicsState_Requestor::SetRenderOptions(DFBSurfaceRenderOptions)
FUNC 3a53c 84 0 DirectFB::IGraphicsState_Requestor::SetColorKey(DFBColorKey const*)
FUNC 3a5c0 ac 0 DirectFB::IGraphicsState_Requestor::SetIndexTranslation(int const*, unsigned int)
FUNC 3a66c 88 0 DirectFB::IGraphicsState_Requestor::SetSourceMaskVals(DFBPoint const*, DFBSurfaceMaskFlags)
FUNC 3a6f4 80 0 DirectFB::IGraphicsState_Requestor::SetSourceMask(__DFB_CoreSurface*)
FUNC 3a774 80 0 DirectFB::IGraphicsState_Requestor::SetSource(__DFB_CoreSurface*)
FUNC 3a7f4 80 0 DirectFB::IGraphicsState_Requestor::SetDestination(__DFB_CoreSurface*)
FUNC 3a874 7c 0 DirectFB::IGraphicsState_Requestor::SetDstColorKey(unsigned int)
FUNC 3a8f0 78 0 DirectFB::IGraphicsState_Requestor::SetSrcColorKey(unsigned int)
FUNC 3a968 7c 0 DirectFB::IGraphicsState_Requestor::SetDstBlend(DFBSurfaceBlendFunction)
FUNC 3a9e4 7c 0 DirectFB::IGraphicsState_Requestor::SetSrcBlend(DFBSurfaceBlendFunction)
FUNC 3aa60 8c 0 DirectFB::IGraphicsState_Requestor::SetColorAndIndex(DFBColor const*, unsigned int)
FUNC 3aaec 80 0 DirectFB::IGraphicsState_Requestor::SetColor(DFBColor const*)
FUNC 3ab6c 80 0 DirectFB::IGraphicsState_Requestor::SetClip(DFBRegion const*)
FUNC 3abec 7c 0 DirectFB::IGraphicsState_Requestor::SetBlittingFlags(DFBSurfaceBlittingFlags)
FUNC 3ac68 7c 0 DirectFB::IGraphicsState_Requestor::SetDrawingFlags(DFBSurfaceDrawingFlags)
FUNC 3ace4 cc 0 DirectFB::IGraphicsState_Requestor::Flush(unsigned int, unsigned int)
FUNC 3adb0 d8 0 DirectFB::IGraphicsState_Requestor::GetAccelerationMask(DFBAccelerationMask*)
FUNC 3ae88 6e0 0 DirectFB::__CoreGraphicsStateDispatch__Dispatch
FUNC 3b568 134 0 CoreGraphicsState_SetDrawingFlags
FUNC 3b69c 134 0 CoreGraphicsState_SetBlittingFlags
FUNC 3b7d0 134 0 CoreGraphicsState_SetClip
FUNC 3b904 134 0 CoreGraphicsState_SetColor
FUNC 3ba38 140 0 CoreGraphicsState_SetColorAndIndex
FUNC 3bb78 134 0 CoreGraphicsState_SetSrcBlend
FUNC 3bcac 134 0 CoreGraphicsState_SetDstBlend
FUNC 3bde0 134 0 CoreGraphicsState_SetSrcColorKey
FUNC 3bf14 134 0 CoreGraphicsState_SetDstColorKey
FUNC 3c048 134 0 CoreGraphicsState_SetDestination
FUNC 3c17c 134 0 CoreGraphicsState_SetSource
FUNC 3c2b0 134 0 CoreGraphicsState_SetSourceMask
FUNC 3c3e4 140 0 CoreGraphicsState_SetSourceMaskVals
FUNC 3c524 140 0 CoreGraphicsState_SetIndexTranslation
FUNC 3c664 134 0 CoreGraphicsState_SetColorKey
FUNC 3c798 134 0 CoreGraphicsState_SetRenderOptions
FUNC 3c8cc 134 0 CoreGraphicsState_SetMatrix
FUNC 3ca00 134 0 CoreGraphicsState_SetSource2
FUNC 3cb34 140 0 CoreGraphicsState_SetFrom
FUNC 3cc74 140 0 CoreGraphicsState_SetTo
FUNC 3cdb4 140 0 CoreGraphicsState_DrawRectangles
FUNC 3cef4 140 0 CoreGraphicsState_DrawLines
FUNC 3d034 140 0 CoreGraphicsState_FillRectangles
FUNC 3d174 140 0 CoreGraphicsState_FillTriangles
FUNC 3d2b4 140 0 CoreGraphicsState_FillTrapezoids
FUNC 3d3f4 14c 0 CoreGraphicsState_FillSpans
FUNC 3d540 14c 0 CoreGraphicsState_Blit
FUNC 3d68c 160 0 CoreGraphicsState_Blit2
FUNC 3d7ec 14c 0 CoreGraphicsState_StretchBlit
FUNC 3d938 160 0 CoreGraphicsState_TileBlit
FUNC 3da98 14c 0 CoreGraphicsState_TextureTriangles
FUNC 3dbe4 140 0 CoreGraphicsState_Flush
FUNC 3dd24 128 0 CoreGraphicsState_ReleaseSource
FUNC 3de4c 134 0 CoreGraphicsState_SetSrcConvolution
FUNC 3df80 134 0 CoreGraphicsState_GetAccelerationMask
FUNC 3e0b4 20 0 CoreGraphicsState_Init_Dispatch
FUNC 3e0d4 4 0 CoreGraphicsState_Deinit_Dispatch
FUNC 3e0d8 138 0 DirectFB::CoreGraphicsStateDispatch__Dispatch(__DFB_CoreGraphicsState*, unsigned long, int, void*, unsigned int, void*, unsigned int, unsigned int*)
FUNC 3e210 50 0 CoreGraphicsState_Dispatch
FUNC 3e260 3c 0 DirectFB::IGraphicsState_Requestor::~IGraphicsState_Requestor
FUNC 3e2a4 44 0 DirectFB::IGraphicsState_Requestor::~IGraphicsState_Requestor
FUNC 3e2f0 24 0 DirectFB::IGraphicsState_Real::SetDrawingFlags(DFBSurfaceDrawingFlags)
FUNC 3e314 24 0 DirectFB::IGraphicsState_Real::SetBlittingFlags(DFBSurfaceBlittingFlags)
FUNC 3e338 70 0 DirectFB::IGraphicsState_Real::SetClip(DFBRegion const*)
FUNC 3e3a8 6c 0 DirectFB::IGraphicsState_Real::SetColor(DFBColor const*)
FUNC 3e414 b0 0 DirectFB::IGraphicsState_Real::SetColorAndIndex(DFBColor const*, unsigned int)
FUNC 3e4c4 24 0 DirectFB::IGraphicsState_Real::SetSrcBlend(DFBSurfaceBlendFunction)
FUNC 3e4e8 24 0 DirectFB::IGraphicsState_Real::SetDstBlend(DFBSurfaceBlendFunction)
FUNC 3e50c 24 0 DirectFB::IGraphicsState_Real::SetSrcColorKey(unsigned int)
FUNC 3e530 24 0 DirectFB::IGraphicsState_Real::SetDstColorKey(unsigned int)
FUNC 3e554 60 0 DirectFB::IGraphicsState_Real::SetSourceMaskVals(DFBPoint const*, DFBSurfaceMaskFlags)
FUNC 3e5b4 6c 0 DirectFB::IGraphicsState_Real::SetColorKey(DFBColorKey const*)
FUNC 3e620 24 0 DirectFB::IGraphicsState_Real::SetRenderOptions(DFBSurfaceRenderOptions)
FUNC 3e644 44 0 DirectFB::IGraphicsState_Real::SetFrom(CoreSurfaceBufferRole, DFBSurfaceStereoEye)
FUNC 3e688 40 0 DirectFB::IGraphicsState_Real::SetTo(CoreSurfaceBufferRole, DFBSurfaceStereoEye)
FUNC 3e6c8 c 0 DirectFB::IGraphicsState_Real::GetAccelerationMask(DFBAccelerationMask*)
FUNC 3e6d4 18 0 DirectFB::IGraphicsState_Real::SetSrcConvolution(DFBConvolutionFilter const*)
FUNC 3e6ec 18 0 DirectFB::IGraphicsState_Real::SetSource(__DFB_CoreSurface*)
FUNC 3e704 18 0 DirectFB::IGraphicsState_Real::SetSourceMask(__DFB_CoreSurface*)
FUNC 3e71c 40 0 DirectFB::IGraphicsState_Real::ReleaseSource()
FUNC 3e75c 18 0 DirectFB::IGraphicsState_Real::SetSource2(__DFB_CoreSurface*)
FUNC 3e774 7c 0 DirectFB::IGraphicsState_Real::Flush(unsigned int, unsigned int)
FUNC 3e7f0 18 0 DirectFB::IGraphicsState_Real::SetMatrix(int const*)
FUNC 3e808 18 0 DirectFB::IGraphicsState_Real::SetIndexTranslation(int const*, unsigned int)
FUNC 3e820 2c 0 DirectFB::IGraphicsState_Real::SetDestination(__DFB_CoreSurface*)
FUNC 3e84c 134 0 DirectFB::CoreGraphicsState_SetupRenderer
FUNC 3e980 c8 0 DirectFB::IGraphicsState_Real::TextureTriangles(DFBVertex const*, unsigned int, DFBTriangleFormation)
FUNC 3ea48 264 0 DirectFB::IGraphicsState_Real::TileBlit(DFBRectangle const*, DFBPoint const*, DFBPoint const*, unsigned int)
FUNC 3ecac c8 0 DirectFB::IGraphicsState_Real::StretchBlit(DFBRectangle const*, DFBRectangle const*, unsigned int)
FUNC 3ed74 e4 0 DirectFB::IGraphicsState_Real::Blit2(DFBRectangle const*, DFBPoint const*, DFBPoint const*, unsigned int)
FUNC 3ee58 c8 0 DirectFB::IGraphicsState_Real::Blit(DFBRectangle const*, DFBPoint const*, unsigned int)
FUNC 3ef20 9c 0 DirectFB::IGraphicsState_Real::FillSpans(int, DFBSpan const*, unsigned int)
FUNC 3efbc 90 0 DirectFB::IGraphicsState_Real::FillTrapezoids(DFBTrapezoid const*, unsigned int)
FUNC 3f04c 90 0 DirectFB::IGraphicsState_Real::FillTriangles(DFBTriangle const*, unsigned int)
FUNC 3f0dc 90 0 DirectFB::IGraphicsState_Real::FillRectangles(DFBRectangle const*, unsigned int)
FUNC 3f16c 90 0 DirectFB::IGraphicsState_Real::DrawLines(DFBRegion const*, unsigned int)
FUNC 3f1fc 14c 0 DirectFB::IGraphicsState_Real::DrawRectangles(DFBRectangle const*, unsigned int)
FUNC 3f348 24 0 DirectFB::CoreGraphicsState_Destruct
FUNC 3f36c 44 0 DirectFB::ThrottleGraphicsState::SetThrottle(int)
FUNC 3f3b0 34 0 DirectFB::ThrottleGraphicsState::~ThrottleGraphicsState
FUNC 3f3e4 3c 0 DirectFB::ThrottleGraphicsState::~ThrottleGraphicsState
FUNC 3f420 20 0 CoreGraphicsStateClient_ReleaseSource
FUNC 3f440 20 0 CoreGraphicsStateClient_SetColorAndIndex
FUNC 3f460 34c 0 CoreGraphicsStateClient_SetState
FUNC 3f7ac 10c 0 _GLOBAL__I_CoreGraphicsStateClient.cpp
FUNC 3f8b8 338 0 CoreGraphicsStateClient_Flush
FUNC 3fbf0 1ec 0 CoreGraphicsStateClient_Update
FUNC 3fddc d0 0 CoreGraphicsStateClient_TextureTriangles
FUNC 3feac 2b4 0 CoreGraphicsStateClient_TileBlit
FUNC 40160 194 0 CoreGraphicsStateClient_StretchBlit
FUNC 402f4 ec 0 CoreGraphicsStateClient_Blit2
FUNC 403e0 10c 0 CoreGraphicsStateClient_Blit
FUNC 404ec d0 0 CoreGraphicsStateClient_FillSpans
FUNC 405bc c4 0 CoreGraphicsStateClient_FillTrapezoids
FUNC 40680 c4 0 CoreGraphicsStateClient_FillTriangles
FUNC 40744 c4 0 CoreGraphicsStateClient_FillRectangles
FUNC 40808 c4 0 CoreGraphicsStateClient_DrawLines
FUNC 408cc 184 0 CoreGraphicsStateClient_DrawRectangles
FUNC 40a50 d0 0 CoreGraphicsStateClient_GetAccelerationMask
FUNC 40b20 3a8 0 CoreGraphicsStateClient_FlushCurrent
FUNC 40ec8 1dc 0 CoreGraphicsStateClient_Deinit
FUNC 410a4 50 0 CoreGraphicsStateClient_FlushAll
FUNC 410f4 78 0 CoreGraphicsStateClient_Reaction
FUNC 4116c 470 0 CoreGraphicsStateClient_Init
FUNC 415dc 4 0 Direct::TLSObject2<StateHolder, StateHolder, StateHolder>::destructor(void*)
FUNC 415e0 24 0 Direct::LockWQ::Lock::~Lock
FUNC 41604 2c 0 std::_List_base<__DFB_CoreGraphicsStateClient*, std::allocator<__DFB_CoreGraphicsStateClient*> >::_M_clear()
FUNC 41630 48 0 DirectFB::ClientList::~ClientList
FUNC 41678 2c 0 std::_List_base<StateHolder*, std::allocator<StateHolder*> >::_M_clear()
FUNC 416a4 7c 0 Direct::TLSObject2<StateHolder, StateHolder, StateHolder>::~TLSObject2
FUNC 41720 114 0 ThrottleBlocking::AddTask(DirectFB::SurfaceTask*, unsigned int)
FUNC 41834 94 0 ThrottleBlocking::SetThrottle(int)
FUNC 418c8 30 0 Direct::LockWQ::~LockWQ
FUNC 418f8 74 0 ThrottleBlocking::~ThrottleBlocking
FUNC 4196c 74 0 CoreGraphicsStateClientPrivate::~CoreGraphicsStateClientPrivate
FUNC 419e0 84 0 ThrottleBlocking::~ThrottleBlocking
FUNC 41a64 7c 0 CoreGraphicsStateClientPrivate::~CoreGraphicsStateClientPrivate
FUNC 41ae0 cc 0 DirectFB::IInputDevice_Requestor::SetKeymapEntry(int, DFBInputDeviceKeymapEntry const*)
FUNC 41bac b0 0 DirectFB::IInputDevice_Requestor::SetConfiguration(DFBInputDeviceConfig const*)
FUNC 41c5c a4 0 DirectFB::IInputDevice_Requestor::ReloadKeymap()
FUNC 41d00 e4 0 CoreInputDevice_SetKeymapEntry
FUNC 41de4 cc 0 CoreInputDevice_ReloadKeymap
FUNC 41eb0 d8 0 CoreInputDevice_SetConfiguration
FUNC 41f88 20 0 CoreInputDevice_Init_Dispatch
FUNC 41fa8 4 0 CoreInputDevice_Deinit_Dispatch
FUNC 41fac ec 0 DirectFB::CoreInputDeviceDispatch__Dispatch(__DFB_CoreInputDevice*, unsigned long, int, void*, unsigned int, void*, unsigned int, unsigned int*)
FUNC 42098 50 0 CoreInputDevice_Dispatch
FUNC 420e8 8 0 DirectFB::IInputDevice_Real::SetConfiguration(DFBInputDeviceConfig const*)
FUNC 420f0 8 0 DirectFB::IInputDevice_Real::ReloadKeymap()
FUNC 420f8 8 0 DirectFB::IInputDevice_Real::SetKeymapEntry(int, DFBInputDeviceKeymapEntry const*)
FUNC 42100 118 0 DirectFB::ILayer_Requestor::CreateContext(__DFB_CoreLayerContext**)
FUNC 42218 c0 0 DirectFB::ILayer_Requestor::WaitVSync()
FUNC 422d8 c0 0 DirectFB::ILayer_Requestor::SetLevel(int)
FUNC 42398 d8 0 DirectFB::ILayer_Requestor::GetCurrentOutputField(int*)
FUNC 42470 c4 0 DirectFB::ILayer_Requestor::ActivateContext(__DFB_CoreLayerContext*)
FUNC 42534 120 0 DirectFB::ILayer_Requestor::GetPrimaryContext(DFBBoolean, __DFB_CoreLayerContext**)
FUNC 42654 d8 0 CoreLayer_CreateContext
FUNC 4272c e4 0 CoreLayer_GetPrimaryContext
FUNC 42810 d8 0 CoreLayer_ActivateContext
FUNC 428e8 d8 0 CoreLayer_GetCurrentOutputField
FUNC 429c0 d8 0 CoreLayer_SetLevel
FUNC 42a98 cc 0 CoreLayer_WaitVSync
FUNC 42b64 20 0 CoreLayer_Init_Dispatch
FUNC 42b84 4 0 CoreLayer_Deinit_Dispatch
FUNC 42b88 294 0 DirectFB::CoreLayerDispatch__Dispatch(__DFB_CoreLayer*, unsigned long, int, void*, unsigned int, void*, unsigned int, unsigned int*)
FUNC 42e1c 50 0 CoreLayer_Dispatch
FUNC 42e6c 8 0 DirectFB::ILayer_Real::WaitVSync()
FUNC 42e74 8 0 DirectFB::ILayer_Real::SetLevel(int)
FUNC 42e7c 8 0 DirectFB::ILayer_Real::GetCurrentOutputField(int*)
FUNC 42e84 8 0 DirectFB::ILayer_Real::ActivateContext(__DFB_CoreLayerContext*)
FUNC 42e8c 10 0 DirectFB::ILayer_Real::GetPrimaryContext(DFBBoolean, __DFB_CoreLayerContext**)
FUNC 42e9c 10 0 DirectFB::ILayer_Real::CreateContext(__DFB_CoreLayerContext**)
FUNC 42eac 114 0 DirectFB::ILayerContext_Requestor::GetPrimaryRegion(DFBBoolean, __DFB_CoreLayerRegion**)
FUNC 42fc0 12c 0 DirectFB::ILayerContext_Requestor::FindWindowByResourceID(unsigned long long, __DFB_CoreWindow**)
FUNC 430ec 11c 0 DirectFB::ILayerContext_Requestor::FindWindow(unsigned int, __DFB_CoreWindow**)
FUNC 43208 14c 0 DirectFB::ILayerContext_Requestor::CreateWindow(DFBWindowDescription const*, __DFB_CoreWindow**)
FUNC 43354 16c 0 DirectFB::ILayerContext_Requestor::SetClipRegions(DFBRegion const*, unsigned int, DFBBoolean)
FUNC 434c0 bc 0 DirectFB::ILayerContext_Requestor::SetFieldParity(unsigned int)
FUNC 4357c c4 0 DirectFB::ILayerContext_Requestor::SetStereoDepth(DFBBoolean, int)
FUNC 43640 c8 0 DirectFB::ILayerContext_Requestor::SetColorAdjustment(DFBColorAdjustment const*)
FUNC 43708 bc 0 DirectFB::ILayerContext_Requestor::SetRotation(int)
FUNC 437c4 c0 0 DirectFB::ILayerContext_Requestor::SetOpacity(unsigned char)
FUNC 43884 c8 0 DirectFB::ILayerContext_Requestor::SetScreenPosition(DFBPoint const*)
FUNC 4394c cc 0 DirectFB::ILayerContext_Requestor::SetScreenRectangle(DFBRectangle const*)
FUNC 43a18 cc 0 DirectFB::ILayerContext_Requestor::SetScreenLocation(DFBLocation const*)
FUNC 43ae4 cc 0 DirectFB::ILayerContext_Requestor::SetSourceRectangle(DFBRectangle const*)
FUNC 43bb0 c0 0 DirectFB::ILayerContext_Requestor::SetDstColorKey(DFBColorKey const*)
FUNC 43c70 c0 0 DirectFB::ILayerContext_Requestor::SetSrcColorKey(DFBColorKey const*)
FUNC 43d30 e0 0 DirectFB::ILayerContext_Requestor::SetConfiguration(DFBDisplayLayerConfig const*)
FUNC 43e10 100 0 DirectFB::ILayerContext_Requestor::TestConfiguration(DFBDisplayLayerConfig const*, DFBDisplayLayerConfigFlags*)
FUNC 43f10 e4 0 CoreLayerContext_GetPrimaryRegion
FUNC 43ff4 e4 0 CoreLayerContext_TestConfiguration
FUNC 440d8 d8 0 CoreLayerContext_SetConfiguration
FUNC 441b0 d8 0 CoreLayerContext_SetSrcColorKey
FUNC 44288 d8 0 CoreLayerContext_SetDstColorKey
FUNC 44360 d8 0 CoreLayerContext_SetSourceRectangle
FUNC 44438 d8 0 CoreLayerContext_SetScreenLocation
FUNC 44510 d8 0 CoreLayerContext_SetScreenRectangle
FUNC 445e8 d8 0 CoreLayerContext_SetScreenPosition
FUNC 446c0 d8 0 CoreLayerContext_SetOpacity
FUNC 44798 d8 0 CoreLayerContext_SetRotation
FUNC 44870 d8 0 CoreLayerContext_SetColorAdjustment
FUNC 44948 e4 0 CoreLayerContext_SetStereoDepth
FUNC 44a2c d8 0 CoreLayerContext_SetFieldParity
FUNC 44b04 f0 0 CoreLayerContext_SetClipRegions
FUNC 44bf4 e4 0 CoreLayerContext_CreateWindow
FUNC 44cd8 e4 0 CoreLayerContext_FindWindow
FUNC 44dbc f0 0 CoreLayerContext_FindWindowByResourceID
FUNC 44eac 20 0 CoreLayerContext_Init_Dispatch
FUNC 44ecc 4 0 CoreLayerContext_Deinit_Dispatch
FUNC 44ed0 404 0 DirectFB::CoreLayerContextDispatch__Dispatch(__DFB_CoreLayerContext*, unsigned long, int, void*, unsigned int, void*, unsigned int, unsigned int*)
FUNC 452d4 50 0 CoreLayerContext_Dispatch
FUNC 45324 2c 0 DirectFB::FindWindowByResourceID_WindowCallback
FUNC 45350 94 0 DirectFB::ILayerContext_Real::FindWindowByResourceID(unsigned long long, __DFB_CoreWindow**)
FUNC 453e4 10 0 DirectFB::ILayerContext_Real::SetClipRegions(DFBRegion const*, unsigned int, DFBBoolean)
FUNC 453f4 8 0 DirectFB::ILayerContext_Real::SetFieldParity(unsigned int)
FUNC 453fc 10 0 DirectFB::ILayerContext_Real::SetStereoDepth(DFBBoolean, int)
FUNC 4540c 8 0 DirectFB::ILayerContext_Real::SetColorAdjustment(DFBColorAdjustment const*)
FUNC 45414 8 0 DirectFB::ILayerContext_Real::SetRotation(int)
FUNC 4541c 8 0 DirectFB::ILayerContext_Real::SetOpacity(unsigned char)
FUNC 45424 14 0 DirectFB::ILayerContext_Real::SetScreenPosition(DFBPoint const*)
FUNC 45438 8 0 DirectFB::ILayerContext_Real::SetScreenRectangle(DFBRectangle const*)
FUNC 45440 8 0 DirectFB::ILayerContext_Real::SetScreenLocation(DFBLocation const*)
FUNC 45448 8 0 DirectFB::ILayerContext_Real::SetSourceRectangle(DFBRectangle const*)
FUNC 45450 30 0 DirectFB::ILayerContext_Real::SetDstColorKey(DFBColorKey const*)
FUNC 45480 30 0 DirectFB::ILayerContext_Real::SetSrcColorKey(DFBColorKey const*)
FUNC 454b0 8 0 DirectFB::ILayerContext_Real::SetConfiguration(DFBDisplayLayerConfig const*)
FUNC 454b8 8 0 DirectFB::ILayerContext_Real::TestConfiguration(DFBDisplayLayerConfig const*, DFBDisplayLayerConfigFlags*)
FUNC 454c0 10 0 DirectFB::ILayerContext_Real::GetPrimaryRegion(DFBBoolean, __DFB_CoreLayerRegion**)
FUNC 454d0 a0 0 DirectFB::ILayerContext_Real::FindWindow(unsigned int, __DFB_CoreWindow**)
FUNC 45570 f8 0 DirectFB::ILayerContext_Real::CreateWindow(DFBWindowDescription const*, __DFB_CoreWindow**)
FUNC 45668 114 0 DirectFB::ILayerRegion_Requestor::GetSurface(__DFB_CoreSurface**)
FUNC 4577c c0 0 DirectFB::ILayerRegion_Requestor::SetSurface(__DFB_CoreSurface*)
FUNC 4583c 11c 0 DirectFB::ILayerRegion_Requestor::FlipUpdate2(DFBRegion const*, DFBRegion const*, DFBSurfaceFlipFlags, long long)
FUNC 45958 10c 0 DirectFB::ILayerRegion_Requestor::FlipUpdateStereo(DFBRegion const*, DFBRegion const*, DFBSurfaceFlipFlags)
FUNC 45a64 e0 0 DirectFB::ILayerRegion_Requestor::FlipUpdate(DFBRegion const*, DFBSurfaceFlipFlags)
FUNC 45b44 d8 0 CoreLayerRegion_GetSurface
FUNC 45c1c e4 0 CoreLayerRegion_FlipUpdate
FUNC 45d00 f0 0 CoreLayerRegion_FlipUpdateStereo
FUNC 45df0 100 0 CoreLayerRegion_FlipUpdate2
FUNC 45ef0 d8 0 CoreLayerRegion_SetSurface
FUNC 45fc8 20 0 CoreLayerRegion_Init_Dispatch
FUNC 45fe8 4 0 CoreLayerRegion_Deinit_Dispatch
FUNC 45fec 294 0 DirectFB::CoreLayerRegionDispatch__Dispatch(__DFB_CoreLayerRegion*, unsigned long, int, void*, unsigned int, void*, unsigned int, unsigned int*)
FUNC 46280 50 0 CoreLayerRegion_Dispatch
FUNC 462d0 8 0 DirectFB::ILayerRegion_Real::FlipUpdateStereo(DFBRegion const*, DFBRegion const*, DFBSurfaceFlipFlags)
FUNC 462d8 8 0 DirectFB::ILayerRegion_Real::FlipUpdate(DFBRegion const*, DFBSurfaceFlipFlags)
FUNC 462e0 18 0 DirectFB::ILayerRegion_Real::SetSurface(__DFB_CoreSurface*)
FUNC 462f8 28 0 DirectFB::ILayerRegion_Real::FlipUpdate2(DFBRegion const*, DFBRegion const*, DFBSurfaceFlipFlags, long long)
FUNC 46320 8 0 DirectFB::ILayerRegion_Real::GetSurface(__DFB_CoreSurface**)
FUNC 46328 1fc 0 DirectFB::CoreLayersFPSHandle
FUNC 46524 3b0 0 DirectFB::dfb_layer_region_flip_update2
FUNC 468d4 158 0 DirectFB::IPalette_Requestor::SetEntries(DFBColor const*, unsigned int, unsigned int)
FUNC 46a2c 160 0 DirectFB::IPalette_Requestor::SetEntriesYUV(DFBColorYUV const*, unsigned int, unsigned int)
FUNC 46b8c f0 0 CorePalette_SetEntries
FUNC 46c7c f0 0 CorePalette_SetEntriesYUV
FUNC 46d6c 20 0 CorePalette_Init_Dispatch
FUNC 46d8c 4 0 CorePalette_Deinit_Dispatch
FUNC 46d90 cc 0 DirectFB::CorePaletteDispatch__Dispatch(_CorePalette*, unsigned long, int, void*, unsigned int, void*, unsigned int, unsigned int*)
FUNC 46e5c 50 0 CorePalette_Dispatch
FUNC 46eac 194 0 DirectFB::IPalette_Real::SetEntriesYUV(DFBColorYUV const*, unsigned int, unsigned int)
FUNC 47040 174 0 DirectFB::IPalette_Real::SetEntries(DFBColor const*, unsigned int, unsigned int)
FUNC 471b4 bc 0 DirectFB::IScreen_Requestor::SetPowerMode(DFBScreenPowerMode)
FUNC 47270 e0 0 DirectFB::IScreen_Requestor::GetLayerDimension(__DFB_CoreLayer*, DFBDimension*)
FUNC 47350 dc 0 DirectFB::IScreen_Requestor::GetScreenSize(DFBDimension*)
FUNC 4742c e4 0 DirectFB::IScreen_Requestor::SetOutputConfig(unsigned int, DFBScreenOutputConfig const*)
FUNC 47510 100 0 DirectFB::IScreen_Requestor::TestOutputConfig(unsigned int, DFBScreenOutputConfig const*, DFBScreenOutputConfigFlags*)
FUNC 47610 f4 0 DirectFB::IScreen_Requestor::SetEncoderConfig(unsigned int, DFBScreenEncoderConfig const*)
FUNC 47704 11c 0 DirectFB::IScreen_Requestor::TestEncoderConfig(unsigned int, DFBScreenEncoderConfig const*, DFBScreenEncoderConfigFlags*)
FUNC 47820 e8 0 DirectFB::IScreen_Requestor::SetMixerConfig(unsigned int, DFBScreenMixerConfig const*)
FUNC 47908 104 0 DirectFB::IScreen_Requestor::TestMixerConfig(unsigned int, DFBScreenMixerConfig const*, DFBScreenMixerConfigFlags*)
FUNC 47a0c d8 0 DirectFB::IScreen_Requestor::GetVSyncCount(unsigned long long*)
FUNC 47ae4 c0 0 DirectFB::IScreen_Requestor::WaitVSync()
FUNC 47ba4 d8 0 CoreScreen_SetPowerMode
FUNC 47c7c cc 0 CoreScreen_WaitVSync
FUNC 47d48 d8 0 CoreScreen_GetVSyncCount
FUNC 47e20 f0 0 CoreScreen_TestMixerConfig
FUNC 47f10 e4 0 CoreScreen_SetMixerConfig
FUNC 47ff4 f0 0 CoreScreen_TestEncoderConfig
FUNC 480e4 e4 0 CoreScreen_SetEncoderConfig
FUNC 481c8 f0 0 CoreScreen_TestOutputConfig
FUNC 482b8 e4 0 CoreScreen_SetOutputConfig
FUNC 4839c d8 0 CoreScreen_GetScreenSize
FUNC 48474 e4 0 CoreScreen_GetLayerDimension
FUNC 48558 20 0 CoreScreen_Init_Dispatch
FUNC 48578 4 0 CoreScreen_Deinit_Dispatch
FUNC 4857c 2a4 0 DirectFB::CoreScreenDispatch__Dispatch(__DFB_CoreScreen*, unsigned long, int, void*, unsigned int, void*, unsigned int, unsigned int*)
FUNC 48820 50 0 CoreScreen_Dispatch
FUNC 48870 c 0 DirectFB::IScreen_Real::GetLayerDimension(__DFB_CoreLayer*, DFBDimension*)
FUNC 4887c c 0 DirectFB::IScreen_Real::GetScreenSize(DFBDimension*)
FUNC 48888 8 0 DirectFB::IScreen_Real::SetOutputConfig(unsigned int, DFBScreenOutputConfig const*)
FUNC 48890 8 0 DirectFB::IScreen_Real::TestOutputConfig(unsigned int, DFBScreenOutputConfig const*, DFBScreenOutputConfigFlags*)
FUNC 48898 8 0 DirectFB::IScreen_Real::SetEncoderConfig(unsigned int, DFBScreenEncoderConfig const*)
FUNC 488a0 8 0 DirectFB::IScreen_Real::TestEncoderConfig(unsigned int, DFBScreenEncoderConfig const*, DFBScreenEncoderConfigFlags*)
FUNC 488a8 8 0 DirectFB::IScreen_Real::SetMixerConfig(unsigned int, DFBScreenMixerConfig const*)
FUNC 488b0 8 0 DirectFB::IScreen_Real::TestMixerConfig(unsigned int, DFBScreenMixerConfig const*, DFBScreenMixerConfigFlags*)
FUNC 488b8 30 0 DirectFB::IScreen_Real::GetVSyncCount(unsigned long long*)
FUNC 488e8 8 0 DirectFB::IScreen_Real::WaitVSync()
FUNC 488f0 8 0 DirectFB::IScreen_Real::SetPowerMode(DFBScreenPowerMode)
FUNC 488f8 110 0 DirectFB::ISurface_Requestor::GetPalette(_CorePalette**)
FUNC 48a08 10c 0 DirectFB::ISurface_Requestor::Flip2(DFBBoolean, DFBRegion const*, DFBRegion const*, DFBSurfaceFlipFlags, long long)
FUNC 48b14 bc 0 DirectFB::ISurface_Requestor::SetField(int)
FUNC 48bd0 cc 0 DirectFB::ISurface_Requestor::SetAlphaRamp(unsigned char, unsigned char, unsigned char, unsigned char)
FUNC 48c9c c0 0 DirectFB::ISurface_Requestor::SetPalette(_CorePalette*)
FUNC 48d5c bc 0 DirectFB::ISurface_Requestor::Flip(DFBBoolean)
FUNC 48e18 c0 0 DirectFB::ISurface_Requestor::SetConfig(CoreSurfaceConfig const*)
FUNC 48ed8 11c 0 DirectFB::ISurface_Requestor::CreateClient(__DFB_CoreSurfaceClient**)
FUNC 48ff4 148 0 DirectFB::ISurface_Requestor::PreLockBuffer3(CoreSurfaceBufferRole, unsigned int, DFBSurfaceStereoEye, CoreSurfaceAccessorID, CoreSurfaceAccessFlags, DFBBoolean, __DFB_CoreSurfaceAllocation**)
FUNC 4913c 134 0 DirectFB::ISurface_Requestor::PreWriteBuffer(__DFB_CoreSurfaceBuffer*, DFBRectangle const*, __DFB_CoreSurfaceAllocation**)
FUNC 49270 134 0 DirectFB::ISurface_Requestor::PreReadBuffer(__DFB_CoreSurfaceBuffer*, DFBRectangle const*, __DFB_CoreSurfaceAllocation**)
FUNC 493a4 140 0 DirectFB::ISurface_Requestor::PreLockBuffer2(CoreSurfaceBufferRole, DFBSurfaceStereoEye, CoreSurfaceAccessorID, CoreSurfaceAccessFlags, DFBBoolean, __DFB_CoreSurfaceAllocation**)
FUNC 494e4 130 0 DirectFB::ISurface_Requestor::PreLockBuffer(__DFB_CoreSurfaceBuffer*, CoreSurfaceAccessorID, CoreSurfaceAccessFlags, __DFB_CoreSurfaceAllocation**)
FUNC 49614 d8 0 CoreSurface_SetConfig
FUNC 496ec d8 0 CoreSurface_Flip
FUNC 497c4 d8 0 CoreSurface_GetPalette
FUNC 4989c d8 0 CoreSurface_SetPalette
FUNC 49974 104 0 CoreSurface_SetAlphaRamp
FUNC 49a78 d8 0 CoreSurface_SetField
FUNC 49b50 104 0 CoreSurface_PreLockBuffer
FUNC 49c54 120 0 CoreSurface_PreLockBuffer2
FUNC 49d74 f0 0 CoreSurface_PreReadBuffer
FUNC 49e64 f0 0 CoreSurface_PreWriteBuffer
FUNC 49f54 12c 0 CoreSurface_PreLockBuffer3
FUNC 4a080 d8 0 CoreSurface_CreateClient
FUNC 4a158 114 0 CoreSurface_Flip2
FUNC 4a26c 20 0 CoreSurface_Init_Dispatch
FUNC 4a28c 4 0 CoreSurface_Deinit_Dispatch
FUNC 4a290 6dc 0 DirectFB::CoreSurfaceDispatch__Dispatch(__DFB_CoreSurface*, unsigned long, int, void*, unsigned int, void*, unsigned int, unsigned int*)
FUNC 4a96c 50 0 CoreSurface_Dispatch
FUNC 4a9bc 2a0 0 DirectFB::ISurface_Real::Flip2(DFBBoolean, DFBRegion const*, DFBRegion const*, DFBSurfaceFlipFlags, long long)
FUNC 4ac5c 40 0 DirectFB::ISurface_Real::Flip(DFBBoolean)
FUNC 4ac9c 14 0 DirectFB::ISurface_Real::CreateClient(__DFB_CoreSurfaceClient**)
FUNC 4acb0 d0 0 DirectFB::manage_interlocks
FUNC 4ad80 48 0 DirectFB::ISurface_Real::GetPalette(_CorePalette**)
FUNC 4adc8 8 0 DirectFB::ISurface_Real::SetField(int)
FUNC 4add0 10 0 DirectFB::ISurface_Real::SetAlphaRamp(unsigned char, unsigned char, unsigned char, unsigned char)
FUNC 4ade0 8 0 DirectFB::ISurface_Real::SetPalette(_CorePalette*)
FUNC 4ade8 8 0 DirectFB::ISurface_Real::SetConfig(CoreSurfaceConfig const*)
FUNC 4adf0 420 0 DirectFB::ISurface_Real::PreLockBuffer2(CoreSurfaceBufferRole, DFBSurfaceStereoEye, CoreSurfaceAccessorID, CoreSurfaceAccessFlags, DFBBoolean, __DFB_CoreSurfaceAllocation**)
FUNC 4b210 33c 0 DirectFB::ISurface_Real::PreLockBuffer(__DFB_CoreSurfaceBuffer*, CoreSurfaceAccessorID, CoreSurfaceAccessFlags, __DFB_CoreSurfaceAllocation**)
FUNC 4b54c 378 0 DirectFB::ISurface_Real::PreWriteBuffer(__DFB_CoreSurfaceBuffer*, DFBRectangle const*, __DFB_CoreSurfaceAllocation**)
FUNC 4b8c4 378 0 DirectFB::ISurface_Real::PreReadBuffer(__DFB_CoreSurfaceBuffer*, DFBRectangle const*, __DFB_CoreSurfaceAllocation**)
FUNC 4bc3c 3ec 0 DirectFB::ISurface_Real::PreLockBuffer3(CoreSurfaceBufferRole, unsigned int, DFBSurfaceStereoEye, CoreSurfaceAccessorID, CoreSurfaceAccessFlags, DFBBoolean, __DFB_CoreSurfaceAllocation**)
FUNC 4c028 14 0 DirectFB::LockTask::Push()
FUNC 4c03c 58 0 DirectFB::SurfaceTask::~SurfaceTask
FUNC 4c094 60 0 DirectFB::SurfaceTask::~SurfaceTask
FUNC 4c0f4 8c 0 DirectFB::LockTask::Run()
FUNC 4c180 98 0 DirectFB::LockTask::~LockTask
FUNC 4c218 a0 0 DirectFB::LockTask::~LockTask
FUNC 4c2b8 d0 0 DirectFB::ISurfaceClient_Requestor::SetFrameTimeConfig(DFBFrameTimeConfig const*)
FUNC 4c388 b8 0 DirectFB::ISurfaceClient_Requestor::FrameAck(unsigned int)
FUNC 4c440 d8 0 CoreSurfaceClient_FrameAck
FUNC 4c518 d8 0 CoreSurfaceClient_SetFrameTimeConfig
FUNC 4c5f0 20 0 CoreSurfaceClient_Init_Dispatch
FUNC 4c610 4 0 CoreSurfaceClient_Deinit_Dispatch
FUNC 4c614 a4 0 DirectFB::CoreSurfaceClientDispatch__Dispatch(__DFB_CoreSurfaceClient*, unsigned long, int, void*, unsigned int, void*, unsigned int, unsigned int*)
FUNC 4c6b8 50 0 CoreSurfaceClient_Dispatch
FUNC 4c708 158 0 DirectFB::ISurfaceClient_Real::SetFrameTimeConfig(DFBFrameTimeConfig const*)
FUNC 4c860 168 0 DirectFB::ISurfaceClient_Real::FrameAck(unsigned int)
FUNC 4c9c8 d8 0 DirectFB::IWindow_Requestor::Repaint(DFBRegion const*, DFBRegion const*, DFBSurfaceFlipFlags, long long)
FUNC 4caa0 118 0 DirectFB::IWindow_Requestor::GetSurface(__DFB_CoreSurface**)
FUNC 4cbb8 c0 0 DirectFB::IWindow_Requestor::PostEvent(DFBWindowEvent const*)
FUNC 4cc78 d4 0 DirectFB::IWindow_Requestor::GetInsets(DFBInsets*)
FUNC 4cd4c bc 0 DirectFB::IWindow_Requestor::AllowFocus()
FUNC 4ce08 e4 0 DirectFB::IWindow_Requestor::SetCursorShape(__DFB_CoreSurface*, DFBPoint const*)
FUNC 4ceec bc 0 DirectFB::IWindow_Requestor::SetRotation(int)
FUNC 4cfa8 184 0 DirectFB::IWindow_Requestor::SetKeySelection(DFBWindowKeySelection, DFBInputDeviceKeySymbol const*, unsigned int)
FUNC 4d12c cc 0 DirectFB::IWindow_Requestor::SetBounds(DFBRectangle const*)
FUNC 4d1f8 bc 0 DirectFB::IWindow_Requestor::SetStacking(DFBWindowStackingClass)
FUNC 4d2b4 c0 0 DirectFB::IWindow_Requestor::SetOpacity(unsigned char)
FUNC 4d374 cc 0 DirectFB::IWindow_Requestor::SetOpaque(DFBRegion const*)
FUNC 4d440 bc 0 DirectFB::IWindow_Requestor::SetColorKey(unsigned int)
FUNC 4d4fc c0 0 DirectFB::IWindow_Requestor::SetColor(DFBColor const*)
FUNC 4d5bc c4 0 DirectFB::IWindow_Requestor::ChangeOptions(DFBWindowOptions, DFBWindowOptions)
FUNC 4d680 c4 0 DirectFB::IWindow_Requestor::ChangeEvents(DFBWindowEventType, DFBWindowEventType)
FUNC 4d744 c4 0 DirectFB::IWindow_Requestor::SetCursorPosition(int, int)
FUNC 4d808 bc 0 DirectFB::IWindow_Requestor::Destroy()
FUNC 4d8c4 c4 0 DirectFB::IWindow_Requestor::Resize(int, int)
FUNC 4d988 c4 0 DirectFB::IWindow_Requestor::MoveTo(int, int)
FUNC 4da4c c4 0 DirectFB::IWindow_Requestor::Move(int, int)
FUNC 4db10 c4 0 DirectFB::IWindow_Requestor::UngrabKey(DFBInputDeviceKeySymbol, DFBInputDeviceModifierMask)
FUNC 4dbd4 c4 0 DirectFB::IWindow_Requestor::GrabKey(DFBInputDeviceKeySymbol, DFBInputDeviceModifierMask)
FUNC 4dc98 c4 0 DirectFB::IWindow_Requestor::ChangeGrab(CoreWMGrabTarget, DFBBoolean)
FUNC 4dd5c bc 0 DirectFB::IWindow_Requestor::RequestFocus()
FUNC 4de18 c0 0 DirectFB::IWindow_Requestor::Unbind(__DFB_CoreWindow*)
FUNC 4ded8 cc 0 DirectFB::IWindow_Requestor::Bind(__DFB_CoreWindow*, int, int)
FUNC 4dfa4 1a0 0 DirectFB::IWindow_Requestor::SetConfig(__DFB_CoreWindowConfig const*, DFBInputDeviceKeySymbol const*, unsigned int, DFBWindowConfigFlags)
FUNC 4e144 d8 0 DirectFB::IWindow_Requestor::Restack(__DFB_CoreWindow*, int)
FUNC 4e21c e0 0 DirectFB::IWindow_Requestor::BeginUpdates(DFBRegion const*)
FUNC 4e2fc 100 0 CoreWindow_Repaint
FUNC 4e3fc d8 0 CoreWindow_BeginUpdates
FUNC 4e4d4 e4 0 CoreWindow_Restack
FUNC 4e5b8 104 0 CoreWindow_SetConfig
FUNC 4e6bc f0 0 CoreWindow_Bind
FUNC 4e7ac d8 0 CoreWindow_Unbind
FUNC 4e884 cc 0 CoreWindow_RequestFocus
FUNC 4e950 e4 0 CoreWindow_ChangeGrab
FUNC 4ea34 e4 0 CoreWindow_GrabKey
FUNC 4eb18 e4 0 CoreWindow_UngrabKey
FUNC 4ebfc e4 0 CoreWindow_Move
FUNC 4ece0 e4 0 CoreWindow_MoveTo
FUNC 4edc4 e4 0 CoreWindow_Resize
FUNC 4eea8 cc 0 CoreWindow_Destroy
FUNC 4ef74 e4 0 CoreWindow_SetCursorPosition
FUNC 4f058 e4 0 CoreWindow_ChangeEvents
FUNC 4f13c e4 0 CoreWindow_ChangeOptions
FUNC 4f220 d8 0 CoreWindow_SetColor
FUNC 4f2f8 d8 0 CoreWindow_SetColorKey
FUNC 4f3d0 d8 0 CoreWindow_SetOpaque
FUNC 4f4a8 d8 0 CoreWindow_SetOpacity
FUNC 4f580 d8 0 CoreWindow_SetStacking
FUNC 4f658 d8 0 CoreWindow_SetBounds
FUNC 4f730 f0 0 CoreWindow_SetKeySelection
FUNC 4f820 d8 0 CoreWindow_SetRotation
FUNC 4f8f8 d8 0 CoreWindow_GetSurface
FUNC 4f9d0 e4 0 CoreWindow_SetCursorShape
FUNC 4fab4 cc 0 CoreWindow_AllowFocus
FUNC 4fb80 d8 0 CoreWindow_GetInsets
FUNC 4fc58 d8 0 CoreWindow_PostEvent
FUNC 4fd30 20 0 CoreWindow_Init_Dispatch
FUNC 4fd50 4 0 CoreWindow_Deinit_Dispatch
FUNC 4fd54 85c 0 DirectFB::CoreWindowDispatch__Dispatch(__DFB_CoreWindow*, unsigned long, int, void*, unsigned int, void*, unsigned int, unsigned int*)
FUNC 505b0 50 0 CoreWindow_Dispatch
FUNC 50600 24 0 DirectFB::IWindow_Real::AllowFocus()
FUNC 50624 30 0 DirectFB::IWindow_Real::PostEvent(DFBWindowEvent const*)
FUNC 50654 50 0 DirectFB::IWindow_Real::GetInsets(DFBInsets*)
FUNC 506a4 14 0 DirectFB::IWindow_Real::SetCursorShape(__DFB_CoreSurface*, DFBPoint const*)
FUNC 506b8 48 0 DirectFB::IWindow_Real::GetSurface(__DFB_CoreSurface**)
FUNC 50700 8 0 DirectFB::IWindow_Real::SetRotation(int)
FUNC 50708 8 0 DirectFB::IWindow_Real::SetKeySelection(DFBWindowKeySelection, DFBInputDeviceKeySymbol const*, unsigned int)
FUNC 50710 28 0 DirectFB::IWindow_Real::SetBounds(DFBRectangle const*)
FUNC 50738 8 0 DirectFB::IWindow_Real::SetStacking(DFBWindowStackingClass)
FUNC 50740 8 0 DirectFB::IWindow_Real::SetOpacity(unsigned char)
FUNC 50748 8 0 DirectFB::IWindow_Real::SetOpaque(DFBRegion const*)
FUNC 50750 8 0 DirectFB::IWindow_Real::SetColorKey(unsigned int)
FUNC 50758 24 0 DirectFB::IWindow_Real::SetColor(DFBColor const*)
FUNC 5077c 8 0 DirectFB::IWindow_Real::ChangeOptions(DFBWindowOptions, DFBWindowOptions)
FUNC 50784 8 0 DirectFB::IWindow_Real::ChangeEvents(DFBWindowEventType, DFBWindowEventType)
FUNC 5078c 44 0 DirectFB::IWindow_Real::SetCursorPosition(int, int)
FUNC 507d0 3c 0 DirectFB::IWindow_Real::BeginUpdates(DFBRegion const*)
FUNC 5080c 14 0 DirectFB::IWindow_Real::Destroy()
FUNC 50820 78 0 DirectFB::IWindow_Real::Resize(int, int)
FUNC 50898 68 0 DirectFB::IWindow_Real::MoveTo(int, int)
FUNC 50900 c 0 DirectFB::IWindow_Real::Move(int, int)
FUNC 5090c 8 0 DirectFB::IWindow_Real::UngrabKey(DFBInputDeviceKeySymbol, DFBInputDeviceModifierMask)
FUNC 50914 8 0 DirectFB::IWindow_Real::GrabKey(DFBInputDeviceKeySymbol, DFBInputDeviceModifierMask)
FUNC 5091c 10 0 DirectFB::IWindow_Real::ChangeGrab(CoreWMGrabTarget, DFBBoolean)
FUNC 5092c 8 0 DirectFB::IWindow_Real::RequestFocus()
FUNC 50934 8 0 DirectFB::IWindow_Real::Unbind(__DFB_CoreWindow*)
FUNC 5093c 8 0 DirectFB::IWindow_Real::Bind(__DFB_CoreWindow*, int, int)
FUNC 50944 c8 0 DirectFB::IWindow_Real::SetConfig(__DFB_CoreWindowConfig const*, DFBInputDeviceKeySymbol const*, unsigned int, DFBWindowConfigFlags)
FUNC 50a0c 80 0 DirectFB::IWindow_Real::Restack(__DFB_CoreWindow*, int)
FUNC 50a8c 8 0 DirectFB::IWindow_Real::Repaint(DFBRegion const*, DFBRegion const*, DFBSurfaceFlipFlags, long long)
FUNC 50a94 b8 0 DirectFB::IWindowStack_Requestor::RepaintAll()
FUNC 50b4c bc 0 DirectFB::IWindowStack_Requestor::BackgroundSetColorIndex(int)
FUNC 50c08 c0 0 DirectFB::IWindowStack_Requestor::BackgroundSetColor(DFBColor const*)
FUNC 50cc8 c0 0 DirectFB::IWindowStack_Requestor::BackgroundSetImage(__DFB_CoreSurface*)
FUNC 50d88 bc 0 DirectFB::IWindowStack_Requestor::BackgroundSetMode(DFBDisplayLayerBackgroundMode)
FUNC 50e44 d4 0 DirectFB::IWindowStack_Requestor::CursorGetPosition(DFBPoint*)
FUNC 50f18 c8 0 DirectFB::IWindowStack_Requestor::CursorWarp(DFBPoint const*)
FUNC 50fe0 c8 0 DirectFB::IWindowStack_Requestor::CursorSetAcceleration(unsigned int, unsigned int, unsigned int)
FUNC 510a8 c0 0 DirectFB::IWindowStack_Requestor::CursorSetOpacity(unsigned char)
FUNC 51168 d8 0 DirectFB::IWindowStack_Requestor::CursorSetShape(__DFB_CoreSurface*, DFBPoint const*)
FUNC 51240 c0 0 DirectFB::IWindowStack_Requestor::CursorEnable(bool)
FUNC 51300 cc 0 CoreWindowStack_RepaintAll
FUNC 513cc d8 0 CoreWindowStack_CursorEnable
FUNC 514a4 e4 0 CoreWindowStack_CursorSetShape
FUNC 51588 d8 0 CoreWindowStack_CursorSetOpacity
FUNC 51660 f0 0 CoreWindowStack_CursorSetAcceleration
FUNC 51750 d8 0 CoreWindowStack_CursorWarp
FUNC 51828 d8 0 CoreWindowStack_CursorGetPosition
FUNC 51900 d8 0 CoreWindowStack_BackgroundSetMode
FUNC 519d8 d8 0 CoreWindowStack_BackgroundSetImage
FUNC 51ab0 d8 0 CoreWindowStack_BackgroundSetColor
FUNC 51b88 d8 0 CoreWindowStack_BackgroundSetColorIndex
FUNC 51c60 20 0 CoreWindowStack_Init_Dispatch
FUNC 51c80 4 0 CoreWindowStack_Deinit_Dispatch
FUNC 51c84 354 0 DirectFB::CoreWindowStackDispatch__Dispatch(__DFB_CoreWindowStack*, unsigned long, int, void*, unsigned int, void*, unsigned int, unsigned int*)
FUNC 51fd8 50 0 CoreWindowStack_Dispatch
FUNC 52028 8 0 DirectFB::IWindowStack_Real::BackgroundSetColorIndex(int)
FUNC 52030 8 0 DirectFB::IWindowStack_Real::BackgroundSetColor(DFBColor const*)
FUNC 52038 8 0 DirectFB::IWindowStack_Real::BackgroundSetImage(__DFB_CoreSurface*)
FUNC 52040 8 0 DirectFB::IWindowStack_Real::BackgroundSetMode(DFBDisplayLayerBackgroundMode)
FUNC 52048 c 0 DirectFB::IWindowStack_Real::CursorGetPosition(DFBPoint*)
FUNC 52054 14 0 DirectFB::IWindowStack_Real::CursorWarp(DFBPoint const*)
FUNC 52068 8 0 DirectFB::IWindowStack_Real::CursorSetAcceleration(unsigned int, unsigned int, unsigned int)
FUNC 52070 8 0 DirectFB::IWindowStack_Real::CursorSetOpacity(unsigned char)
FUNC 52078 14 0 DirectFB::IWindowStack_Real::CursorSetShape(__DFB_CoreSurface*, DFBPoint const*)
FUNC 5208c 14 0 DirectFB::IWindowStack_Real::CursorEnable(bool)
FUNC 520a0 8 0 DirectFB::IWindowStack_Real::RepaintAll()
FUNC 520a8 60 0 ToString<DFBResult>::ToString
FUNC 52108 b4 0 ToString<CoreSurfaceTypeFlags>::ToString
FUNC 521bc b4 0 ToString<DFBAccelerationMask>::ToString
FUNC 52270 b4 0 ToString<DFBSurfaceBlittingFlags>::ToString
FUNC 52324 b4 0 ToString<DFBSurfaceCapabilities>::ToString
FUNC 523d8 b4 0 ToString<DFBSurfaceDrawingFlags>::ToString
FUNC 5248c cc 0 ToString<DFBSurfacePixelFormat>::ToString
FUNC 52558 b4 0 ToString<DFBSurfaceFlipFlags>::ToString
FUNC 5260c ec 0 ToString<DFBSurfacePorterDuffRule>::ToString
FUNC 526f8 5c 0 ToString<DFBDimension>::ToString
FUNC 52754 e4 0 ToString<DFBDisplayLayerBufferMode>::ToString
FUNC 52838 180 0 ToString<CoreSurfaceConfig>::ToString
FUNC 529b8 1b4 0 ToString<CoreSurfaceAccessFlags>::ToString
FUNC 52b6c 1dc 0 ToString<__DFB_CoreLayerRegionConfig>::ToString
FUNC 52d48 1b4 0 ToString<CoreLayerRegionStateFlags>::ToString
FUNC 52efc 1d0 0 ToString<__DFB_CoreLayerRegion>::ToString
FUNC 530cc 1f8 0 ToString<__DFB_CoreSurfaceAllocation>::ToString
FUNC 532c4 1dc 0 ToString<__DFB_CoreSurfaceBuffer>::ToString
FUNC 534a0 1dc 0 ToString<__DFB_CoreSurface>::ToString
FUNC 5367c 118 0 ToString<__DFB_CoreSurfaceBufferLock>::ToString
FUNC 53794 54 0 ToString<DirectFB::Task>::ToString
FUNC 537e8 17c 0 ToString<DirectFB::TaskState>::ToString
FUNC 53964 2d4 0 ToString<DirectFB::TaskFlags>::ToString
FUNC 53c38 e8 0 ToString<DirectFB::SurfaceAllocationAccess>::ToString
FUNC 53d20 ac 0 ToString_CoreSurfaceTypeFlags
FUNC 53dcc ac 0 ToString_DFBAccelerationMask
FUNC 53e78 ac 0 ToString_DFBSurfaceBlittingFlags
FUNC 53f24 ac 0 ToString_DFBSurfaceCapabilities
FUNC 53fd0 ac 0 ToString_DFBSurfaceDrawingFlags
FUNC 5407c ac 0 ToString_DFBSurfacePixelFormat
FUNC 54128 ac 0 ToString_DFBSurfaceFlipFlags
FUNC 541d4 a8 0 ToString_DFBDimension
FUNC 5427c a8 0 ToString_CoreSurfaceConfig
FUNC 54324 a8 0 ToString_CoreLayerRegionConfig
FUNC 543cc a8 0 ToString_CoreLayerRegion
FUNC 54474 a8 0 ToString_CoreSurfaceAllocation
FUNC 5451c a8 0 ToString_CoreSurfaceBuffer
FUNC 545c4 a8 0 ToString_CoreSurface
FUNC 5466c a8 0 ToString_Task
FUNC 54714 88 0 ToString<DFBSurfacePixelFormat>::~ToString
FUNC 5479c 88 0 ToString<DFBSurfaceCapabilities>::~ToString
FUNC 54824 88 0 ToString<DFBDisplayLayerBufferMode>::~ToString
FUNC 548ac 88 0 ToString<__Fusion_FusionObject>::~ToString
FUNC 54934 88 0 ToString<CoreLayerRegionStateFlags>::~ToString
FUNC 549bc 88 0 ToString<__DFB_CoreLayerRegionConfig>::~ToString
FUNC 54a44 88 0 ToString<CoreSurfaceTypeFlags>::~ToString
FUNC 54acc 88 0 ToString<CoreSurfaceConfig>::~ToString
FUNC 54b54 88 0 ToString<CoreSurfaceAccessFlags>::~ToString
FUNC 54bdc 88 0 ToString<DFBAccelerationMask>::~ToString
FUNC 54c64 88 0 ToString<DFBSurfaceBlittingFlags>::~ToString
FUNC 54cec 88 0 ToString<DFBSurfaceDrawingFlags>::~ToString
FUNC 54d74 88 0 ToString<DFBSurfaceFlipFlags>::~ToString
FUNC 54dfc 88 0 ToString<DFBDimension>::~ToString
FUNC 54e84 88 0 ToString<__DFB_CoreLayerRegion>::~ToString
FUNC 54f0c 88 0 ToString<__DFB_CoreSurfaceAllocation>::~ToString
FUNC 54f94 88 0 ToString<__DFB_CoreSurfaceBuffer>::~ToString
FUNC 5501c 88 0 ToString<__DFB_CoreSurface>::~ToString
FUNC 550a4 88 0 ToString<DirectFB::Task>::~ToString
FUNC 5512c 1c 0 DirectFB::DisplayTask::TypeName() const
FUNC 55148 54 0 DirectFB::DisplayTask::Describe(Direct::StringBase<char>&) const
FUNC 5519c 8c4 0 DirectFB::DisplayTask::Run()
FUNC 55a60 18 0 DirectFB::DisplayTask::Finalise()
FUNC 55a78 5c 0 DirectFB::DisplayTask::Flush()
FUNC 55ad4 38 0 DirectFB::DisplayTask::Setup()
FUNC 55b0c 10 0 DirectFB::DisplayTask_GetPTS
FUNC 55b1c a8 0 DirectFB::DisplayTask::~DisplayTask
FUNC 55bc4 1c 0 DirectFB::DisplayTask::~DisplayTask
FUNC 55be0 10c 0 DirectFB::DisplayTask::DisplayTask
FUNC 55cec 248 0 DirectFB::DisplayTask::Generate(__DFB_CoreLayerRegion*, DFBRegion const*, DFBRegion const*, DFBSurfaceFlipFlags, long long, DirectFB::DisplayTask**)
FUNC 55f34 4 0 DirectFB::DisplayTask_Generate
FUNC 55f38 64 0 _GLOBAL__I_DisplayTask.cpp
FUNC 55f9c 88 0 Direct::StringBase<char>::~StringBase
FUNC 56024 b0 0 DirectFB::CallBuffer::~CallBuffer
FUNC 560d4 1c 0 DirectFB::CallBuffer::~CallBuffer
FUNC 560f0 50 0 DirectFB::CallBuffer::CallBuffer
FUNC 56140 100 0 DirectFB::CallBuffer::flush(bool)
FUNC 56240 58 0 DirectFB::CallBuffer::commit(unsigned int)
FUNC 56298 160 0 DirectFB::CallBuffer::prepare(int, unsigned int)
FUNC 563f8 5c 0 DirectFB::Throttle::Hook::setup(DirectFB::SurfaceTask*)
FUNC 56454 c 0 DirectFB::Engine::DrawRectangles(DirectFB::SurfaceTask*, DFBRectangle const*, unsigned int&)
FUNC 56460 c 0 DirectFB::Engine::DrawLines(DirectFB::SurfaceTask*, DFBRegion const*, unsigned int&)
FUNC 5646c c 0 DirectFB::Engine::FillRectangles(DirectFB::SurfaceTask*, DFBRectangle const*, unsigned int&)
FUNC 56478 c 0 DirectFB::Engine::FillTriangles(DirectFB::SurfaceTask*, DFBTriangle const*, unsigned int&)
FUNC 56484 c 0 DirectFB::Engine::FillTrapezoids(DirectFB::SurfaceTask*, DFBTrapezoid const*, unsigned int&)
FUNC 56490 c 0 DirectFB::Engine::FillSpans(DirectFB::SurfaceTask*, int, DFBSpan const*, unsigned int&)
FUNC 5649c c 0 DirectFB::Engine::FillQuadrangles(DirectFB::SurfaceTask*, DFBPoint const*, unsigned int&)
FUNC 564a8 c 0 DirectFB::Engine::Blit(DirectFB::SurfaceTask*, DFBRectangle const*, DFBPoint const*, unsigned int&)
FUNC 564b4 c 0 DirectFB::Engine::Blit2(DirectFB::SurfaceTask*, DFBRectangle const*, DFBPoint const*, DFBPoint const*, unsigned int&)
FUNC 564c0 c 0 DirectFB::Engine::StretchBlit(DirectFB::SurfaceTask*, DFBRectangle const*, DFBRectangle const*, unsigned int&)
FUNC 564cc c 0 DirectFB::Engine::TileBlit(DirectFB::SurfaceTask*, DFBRectangle const*, DFBPoint const*, DFBPoint const*, unsigned int&)
FUNC 564d8 c 0 DirectFB::Engine::TextureTriangles(DirectFB::SurfaceTask*, DFBVertex const*, unsigned int&, DFBTriangleFormation)
FUNC 564e4 c 0 DirectFB::Engine::TextureTriangles(DirectFB::SurfaceTask*, DFBVertex1616 const*, unsigned int&, DFBTriangleFormation)
FUNC 564f0 104 0 DirectFB::Primitives::Quadrangles::render(DirectFB::Renderer::Setup*, DirectFB::Engine*)
FUNC 565f4 10c 0 DirectFB::Primitives::TexTriangles1616::render(DirectFB::Renderer::Setup*, DirectFB::Engine*)
FUNC 56700 80 0 DirectFB::Primitives::TexTriangles1616::tesselate(DFBAccelerationMask, DFBRegion const*, int const*)
FUNC 56780 10c 0 DirectFB::Primitives::TexTriangles::render(DirectFB::Renderer::Setup*, DirectFB::Engine*)
FUNC 5688c 80 0 DirectFB::Primitives::TexTriangles::tesselate(DFBAccelerationMask, DFBRegion const*, int const*)
FUNC 5690c 104 0 DirectFB::Primitives::Trapezoids::render(DirectFB::Renderer::Setup*, DirectFB::Engine*)
FUNC 56a10 104 0 DirectFB::Primitives::Triangles::render(DirectFB::Renderer::Setup*, DirectFB::Engine*)
FUNC 56b14 10c 0 DirectFB::Primitives::Spans::render(DirectFB::Renderer::Setup*, DirectFB::Engine*)
FUNC 56c20 114 0 DirectFB::Primitives::Blits2::render(DirectFB::Renderer::Setup*, DirectFB::Engine*)
FUNC 56d34 e4 0 DirectFB::Primitives::Blits2::tesselate(DFBAccelerationMask, DFBRegion const*, int const*)
FUNC 56e18 114 0 DirectFB::Primitives::TileBlits::render(DirectFB::Renderer::Setup*, DirectFB::Engine*)
FUNC 56f2c 774 0 DirectFB::Primitives::TileBlits::tesselate(DFBAccelerationMask, DFBRegion const*, int const*)
FUNC 576a0 1e0 0 DirectFB::Primitives::Lines::tesselate(DFBAccelerationMask, DFBRegion const*, int const*)
FUNC 57880 290 0 DirectFB::Primitives::Quadrangles::tesselate(DFBAccelerationMask, DFBRegion const*, int const*)
FUNC 57b10 86c 0 DirectFB::Primitives::Trapezoids::tesselate(DFBAccelerationMask, DFBRegion const*, int const*)
FUNC 5837c 940 0 DirectFB::Primitives::Spans::tesselate(DFBAccelerationMask, DFBRegion const*, int const*)
FUNC 58cbc 60c 0 DirectFB::Primitives::StretchBlits::tesselate(DFBAccelerationMask, DFBRegion const*, int const*)
FUNC 592c8 62c 0 DirectFB::Primitives::Blits::tesselate(DFBAccelerationMask, DFBRegion const*, int const*)
FUNC 598f4 1044 0 DirectFB::Primitives::Rectangles::tesselate(DFBAccelerationMask, DFBRegion const*, int const*)
FUNC 5a938 c 0 renderer_tls_destroy
FUNC 5a944 8c 0 DirectFB::Primitives::StretchBlits::render(DirectFB::Renderer::Setup*, DirectFB::Engine*, DirectFB::SurfaceTask*, DFBRectangle const*, DFBRectangle const*, unsigned int)
FUNC 5a9d0 2c 0 DirectFB::Throttle::ref()
FUNC 5a9fc 50 0 DirectFB::Throttle::AddTask(DirectFB::SurfaceTask*, unsigned int)
FUNC 5aa4c 50 0 DirectFB::Throttle::unref()
FUNC 5aa9c 60 0 DirectFB::Renderer::Renderer
FUNC 5aafc 2c 0 DirectFB::Renderer::SetThrottle(DirectFB::Throttle*)
FUNC 5ab28 68 0 DirectFB::Renderer::enterLock(__DFB_CoreSurfaceBufferLock*, __DFB_CoreSurfaceAllocation*, CoreSurfaceAccessFlags)
FUNC 5ab90 38 0 DirectFB::Renderer::leaveLock(__DFB_CoreSurfaceBufferLock*)
FUNC 5abc8 184 0 DirectFB::Renderer::getTransformAccel(DFBAccelerationMask, WaterTransformType)
FUNC 5ad4c 14c 0 DirectFB::Renderer::getEngine(DFBAccelerationMask, WaterTransformType)
FUNC 5ae98 384 0 DirectFB::Renderer::bindEngine(DirectFB::Engine*, DFBAccelerationMask)
FUNC 5b21c 3c 0 DirectFB::Renderer::RegisterEngine(DirectFB::Engine*)
FUNC 5b258 a8 0 DirectFB::Renderer::UnregisterEngine(DirectFB::Engine*)
FUNC 5b300 78 0 DirectFB::Renderer::DeleteEngines()
FUNC 5b378 4 0 Renderer_DeleteEngines
FUNC 5b37c 338 0 DirectFB::Primitives::StretchBlits::render(DirectFB::Renderer::Setup*, DirectFB::Engine*)
FUNC 5b6b4 51c 0 DirectFB::Primitives::Rectangles::render(DirectFB::Renderer::Setup*, DirectFB::Engine*)
FUNC 5bbd0 380 0 DirectFB::Primitives::Blits::render(DirectFB::Renderer::Setup*, DirectFB::Engine*)
FUNC 5bf50 1b0 0 DirectFB::Primitives::Lines::render(DirectFB::Renderer::Setup*, DirectFB::Engine*)
FUNC 5c100 db4 0 DirectFB::Primitives::Triangles::tesselate(DFBAccelerationMask, DFBRegion const*, int const*)
FUNC 5ceb4 208 0 DirectFB::Renderer::flushTask(unsigned int, CoreGraphicsStateClientFlushFlags, bool)
FUNC 5d0bc 4c 0 DirectFB::Renderer::rebindEngine(DFBAccelerationMask)
FUNC 5d108 50 0 DirectFB::Renderer::unbindEngine(unsigned int, CoreGraphicsStateClientFlushFlags, bool)
FUNC 5d158 2e4 0 DirectFB::Renderer::updateLock(__DFB_CoreSurfaceBufferLock*, __DFB_CoreSurface*, CoreSurfaceBufferRole, DFBSurfaceStereoEye, unsigned int, CoreSurfaceAccessFlags)
FUNC 5d43c 3c4 0 DirectFB::Renderer::update(DFBAccelerationMask)
FUNC 5d800 3c 0 _GLOBAL__I_Renderer.cpp
FUNC 5d83c a0 0 Renderer_GetTLS
FUNC 5d8dc 10 0 DirectFB::Renderer::GetCurrent()
FUNC 5d8ec c4 0 DirectFB::Throttle::Hook::finalise(DirectFB::SurfaceTask*)
FUNC 5d9b0 1b0 0 DirectFB::Throttle::waitDone(unsigned long)
FUNC 5db60 e0 0 DirectFB::Renderer::Flush(unsigned int, CoreGraphicsStateClientFlushFlags)
FUNC 5dc40 494 0 DirectFB::Renderer::render(DirectFB::Primitives::Base*)
FUNC 5e0d4 84 0 DirectFB::Renderer::TextureTriangles(DFBVertex const*, int, DFBTriangleFormation)
FUNC 5e158 9c 0 DirectFB::Renderer::TileBlit(DFBRectangle const*, DFBPoint const*, DFBPoint const*, unsigned int)
FUNC 5e1f4 144 0 DirectFB::Renderer::StretchBlit(DFBRectangle const*, DFBRectangle const*, unsigned int)
FUNC 5e338 9c 0 DirectFB::Renderer::Blit2(DFBRectangle const*, DFBPoint const*, DFBPoint const*, unsigned int)
FUNC 5e3d4 8c 0 DirectFB::Renderer::Blit(DFBRectangle const*, DFBPoint const*, unsigned int)
FUNC 5e460 84 0 DirectFB::Renderer::FillSpans(int, DFBSpan const*, unsigned int)
FUNC 5e4e4 80 0 DirectFB::Renderer::FillTrapezoids(DFBTrapezoid const*, unsigned int)
FUNC 5e564 80 0 DirectFB::Renderer::FillTriangles(DFBTriangle const*, unsigned int)
FUNC 5e5e4 80 0 DirectFB::Renderer::FillQuadrangles(DFBPoint const*, unsigned int)
FUNC 5e664 80 0 DirectFB::Renderer::FillRectangles(DFBRectangle const*, unsigned int)
FUNC 5e6e4 80 0 DirectFB::Renderer::DrawLines(DFBRegion const*, unsigned int)
FUNC 5e764 80 0 DirectFB::Renderer::DrawRectangles(DFBRectangle const*, unsigned int)
FUNC 5e7e4 28 0 DirectFB::Renderer::FlushCurrent(unsigned int)
FUNC 5e80c c8 0 DirectFB::Renderer::~Renderer
FUNC 5e8d4 90 0 DirectFB::Throttle::Throttle
FUNC 5e964 70 0 DirectFB::Throttle::~Throttle
FUNC 5e9d4 1c 0 DirectFB::Throttle::~Throttle
FUNC 5e9f0 38 0 Renderer_TLS__deinit
FUNC 5ea28 38 0 Renderer_TLS__init
FUNC 5ea60 8 0 DirectFB::SurfaceTask::Hook::setup(DirectFB::SurfaceTask*)
FUNC 5ea68 4 0 DirectFB::SurfaceTask::Hook::finalise(DirectFB::SurfaceTask*)
FUNC 5ea6c 24 0 DirectFB::Primitives::Base::~Base
FUNC 5ea90 8 0 DirectFB::Primitives::Base::tesselate(DFBAccelerationMask, DFBRegion const*, int const*)
FUNC 5ea98 8 0 DirectFB::Primitives::Rectangles::count() const
FUNC 5eaa0 8 0 DirectFB::Primitives::Blits::count() const
FUNC 5eaa8 8 0 DirectFB::Primitives::StretchBlits::count() const
FUNC 5eab0 8 0 DirectFB::Primitives::TileBlits::count() const
FUNC 5eab8 8 0 DirectFB::Primitives::Blits2::count() const
FUNC 5eac0 8 0 DirectFB::Primitives::Lines::count() const
FUNC 5eac8 8 0 DirectFB::Primitives::Spans::count() const
FUNC 5ead0 8 0 DirectFB::Primitives::Trapezoids::count() const
FUNC 5ead8 8 0 DirectFB::Primitives::Triangles::count() const
FUNC 5eae0 8 0 DirectFB::Primitives::TexTriangles::count() const
FUNC 5eae8 8 0 DirectFB::Primitives::TexTriangles1616::count() const
FUNC 5eaf0 8 0 DirectFB::Primitives::Quadrangles::count() const
FUNC 5eaf8 70 0 DirectFB::Primitives::Rectangles::~Rectangles
FUNC 5eb68 34 0 DirectFB::Primitives::Base::~Base
FUNC 5eb9c 78 0 DirectFB::Primitives::Blits::~Blits
FUNC 5ec14 78 0 DirectFB::Primitives::StretchBlits::~StretchBlits
FUNC 5ec8c 80 0 DirectFB::Primitives::TileBlits::~TileBlits
FUNC 5ed0c 80 0 DirectFB::Primitives::Blits2::~Blits2
FUNC 5ed8c 70 0 DirectFB::Primitives::Lines::~Lines
FUNC 5edfc 70 0 DirectFB::Primitives::Spans::~Spans
FUNC 5ee6c 70 0 DirectFB::Primitives::Trapezoids::~Trapezoids
FUNC 5eedc 70 0 DirectFB::Primitives::Triangles::~Triangles
FUNC 5ef4c 70 0 DirectFB::Primitives::TexTriangles::~TexTriangles
FUNC 5efbc 70 0 DirectFB::Primitives::TexTriangles1616::~TexTriangles1616
FUNC 5f02c 70 0 DirectFB::Primitives::Quadrangles::~Quadrangles
FUNC 5f09c 64 0 DirectFB::Primitives::TexTriangles1616::~TexTriangles1616
FUNC 5f100 64 0 DirectFB::Primitives::Quadrangles::~Quadrangles
FUNC 5f164 64 0 DirectFB::Primitives::TexTriangles::~TexTriangles
FUNC 5f1c8 64 0 DirectFB::Primitives::Lines::~Lines
FUNC 5f22c 64 0 DirectFB::Primitives::Spans::~Spans
FUNC 5f290 64 0 DirectFB::Primitives::Trapezoids::~Trapezoids
FUNC 5f2f4 64 0 DirectFB::Primitives::Triangles::~Triangles
FUNC 5f358 64 0 DirectFB::Primitives::Rectangles::~Rectangles
FUNC 5f3bc 6c 0 DirectFB::Primitives::StretchBlits::~StretchBlits
FUNC 5f428 6c 0 DirectFB::Primitives::Blits::~Blits
FUNC 5f494 74 0 DirectFB::Primitives::TileBlits::~TileBlits
FUNC 5f508 74 0 DirectFB::Primitives::Blits2::~Blits2
FUNC 5f57c 30 0 std::list<DirectFB::Engine*, std::allocator<DirectFB::Engine*> >::~list
FUNC 5f5ac a4 0 DirectFB::Engine::~Engine
FUNC 5f650 9c 0 DirectFB::Engine::~Engine
FUNC 5f6ec 2c 0 DirectFB::Util::TempArray<DFBRectangle>::~TempArray
FUNC 5f718 2c 0 DirectFB::Util::TempArray<DFBPoint>::~TempArray
FUNC 5f744 2c 0 DirectFB::Util::TempArray<DFBRegion>::~TempArray
FUNC 5f770 2c 0 DirectFB::Util::TempArray<DFBTriangle>::~TempArray
FUNC 5f79c 160 0 std::_Rb_tree<DirectFB::SurfaceAllocationKey, std::pair<DirectFB::SurfaceAllocationKey const, __DFB_CoreSurfaceAllocation*>, std::_Select1st<std::pair<DirectFB::SurfaceAllocationKey const, __DFB_CoreSurfaceAllocation*> >, std::less<DirectFB::SurfaceAllocationKey>, std::allocator<std::pair<DirectFB::SurfaceAllocationKey const, __DFB_CoreSurfaceAllocation*> > >::_M_erase(std::_Rb_tree_node<std::pair<DirectFB::SurfaceAllocationKey const, __DFB_CoreSurfaceAllocation*> >*)
FUNC 5f8fc 118 0 std::_Rb_tree<DirectFB::SurfaceAllocationKey, std::pair<DirectFB::SurfaceAllocationKey const, __DFB_CoreSurfaceAllocation*>, std::_Select1st<std::pair<DirectFB::SurfaceAllocationKey const, __DFB_CoreSurfaceAllocation*> >, std::less<DirectFB::SurfaceAllocationKey>, std::allocator<std::pair<DirectFB::SurfaceAllocationKey const, __DFB_CoreSurfaceAllocation*> > >::find(DirectFB::SurfaceAllocationKey const&)
FUNC 5fa14 e0 0 std::_Rb_tree<DirectFB::SurfaceAllocationKey, std::pair<DirectFB::SurfaceAllocationKey const, __DFB_CoreSurfaceAllocation*>, std::_Select1st<std::pair<DirectFB::SurfaceAllocationKey const, __DFB_CoreSurfaceAllocation*> >, std::less<DirectFB::SurfaceAllocationKey>, std::allocator<std::pair<DirectFB::SurfaceAllocationKey const, __DFB_CoreSurfaceAllocation*> > >::_M_insert_(std::_Rb_tree_node_base const*, std::_Rb_tree_node_base const*, std::pair<DirectFB::SurfaceAllocationKey const, __DFB_CoreSurfaceAllocation*> const&)
FUNC 5faf4 168 0 std::_Rb_tree<DirectFB::SurfaceAllocationKey, std::pair<DirectFB::SurfaceAllocationKey const, __DFB_CoreSurfaceAllocation*>, std::_Select1st<std::pair<DirectFB::SurfaceAllocationKey const, __DFB_CoreSurfaceAllocation*> >, std::less<DirectFB::SurfaceAllocationKey>, std::allocator<std::pair<DirectFB::SurfaceAllocationKey const, __DFB_CoreSurfaceAllocation*> > >::_M_insert_unique(std::pair<DirectFB::SurfaceAllocationKey const, __DFB_CoreSurfaceAllocation*> const&)
FUNC 5fc5c 1c 0 DirectFB::SurfaceTask::TypeName() const
FUNC 5fc78 6c 0 DirectFB::SurfaceTask::Describe(Direct::StringBase<char>&) const
FUNC 5fce4 c8 0 DirectFB::SurfaceTask::Finalise()
FUNC 5fdac 100 0 DirectFB::SurfaceTask::CacheFlush()
FUNC 5feac 108 0 DirectFB::SurfaceTask::CacheInvalidate()
FUNC 5ffb4 334 0 DirectFB::SurfaceTask::Setup()
FUNC 602e8 58 0 DirectFB::SurfaceTask::SurfaceTask
FUNC 60340 30 0 DirectFB::SurfaceTask_New
FUNC 60370 9c 0 DirectFB::SurfaceTask::AddAccess(__DFB_CoreSurfaceAllocation*, CoreSurfaceAccessFlags)
FUNC 6040c 4 0 DirectFB::SurfaceTask_AddAccess
FUNC 60410 68 0 DirectFB::SurfaceTask::AddHook(DirectFB::SurfaceTask::Hook*)
FUNC 60478 64 0 _GLOBAL__I_SurfaceTask.cpp
FUNC 604dc 8 0 Direct::ListSimple<DirectFB::SurfaceTask*>::Length() const
FUNC 604e4 24 0 Direct::List<DirectFB::SurfaceTask*>::~List
FUNC 60508 34 0 Direct::List<DirectFB::SurfaceTask*>::~List
FUNC 6053c 41c 0 std::vector<DirectFB::SurfaceAllocationAccess, std::allocator<DirectFB::SurfaceAllocationAccess> >::_M_insert_aux(__gnu_cxx::__normal_iterator<DirectFB::SurfaceAllocationAccess*, std::vector<DirectFB::SurfaceAllocationAccess, std::allocator<DirectFB::SurfaceAllocationAccess> > >, DirectFB::SurfaceAllocationAccess const&)
FUNC 60958 150 0 std::vector<DirectFB::SurfaceTask::Hook*, std::allocator<DirectFB::SurfaceTask::Hook*> >::_M_insert_aux(__gnu_cxx::__normal_iterator<DirectFB::SurfaceTask::Hook**, std::vector<DirectFB::SurfaceTask::Hook*, std::allocator<DirectFB::SurfaceTask::Hook*> > >, DirectFB::SurfaceTask::Hook* const&)
FUNC 60aa8 160 0 std::_Rb_tree<DirectFB::SurfaceTask*, std::pair<DirectFB::SurfaceTask* const, DirectFB::SurfaceTask*>, std::_Select1st<std::pair<DirectFB::SurfaceTask* const, DirectFB::SurfaceTask*> >, std::less<DirectFB::SurfaceTask*>, std::allocator<std::pair<DirectFB::SurfaceTask* const, DirectFB::SurfaceTask*> > >::_M_erase(std::_Rb_tree_node<std::pair<DirectFB::SurfaceTask* const, DirectFB::SurfaceTask*> >*)
FUNC 60c08 130 0 Direct::ListSimple<DirectFB::SurfaceTask*>::Remove(DirectFB::SurfaceTask* const&)
FUNC 60d38 4c 0 Direct::ListSimple<DirectFB::SurfaceTask*>::~ListSimple
FUNC 60d84 54 0 Direct::ListSimple<DirectFB::SurfaceTask*>::~ListSimple
FUNC 60dd8 30 0 Direct::ListSimple<DirectFB::SurfaceTask*>::Clear()
FUNC 60e08 16c 0 std::_Rb_tree<DirectFB::SurfaceTask*, std::pair<DirectFB::SurfaceTask* const, DirectFB::SurfaceTask*>, std::_Select1st<std::pair<DirectFB::SurfaceTask* const, DirectFB::SurfaceTask*> >, std::less<DirectFB::SurfaceTask*>, std::allocator<std::pair<DirectFB::SurfaceTask* const, DirectFB::SurfaceTask*> > >::_M_insert_unique(std::pair<DirectFB::SurfaceTask* const, DirectFB::SurfaceTask*> const&)
FUNC 60f74 224 0 std::_Rb_tree<DirectFB::SurfaceTask*, std::pair<DirectFB::SurfaceTask* const, DirectFB::SurfaceTask*>, std::_Select1st<std::pair<DirectFB::SurfaceTask* const, DirectFB::SurfaceTask*> >, std::less<DirectFB::SurfaceTask*>, std::allocator<std::pair<DirectFB::SurfaceTask* const, DirectFB::SurfaceTask*> > >::_M_insert_unique_(std::_Rb_tree_const_iterator<std::pair<DirectFB::SurfaceTask* const, DirectFB::SurfaceTask*> >, std::pair<DirectFB::SurfaceTask* const, DirectFB::SurfaceTask*> const&)
FUNC 61198 88 0 Direct::ListSimple<DirectFB::SurfaceTask*>::Append(DirectFB::SurfaceTask* const&)
FUNC 61220 88 0 Direct::ListSimple<DirectFB::SurfaceTask*>::Prepend(DirectFB::SurfaceTask* const&)
FUNC 612a8 20 0 DirectFB::Task::Setup()
FUNC 612c8 34 0 DirectFB::Task::Run()
FUNC 612fc 4 0 DirectFB::Task::Finalise()
FUNC 61300 1c 0 DirectFB::Task::TypeName() const
FUNC 6131c c 0 DirectFB::Task::Flush()
FUNC 61328 e4 0 DirectFB::TaskList_New
FUNC 6140c 1c 0 DirectFB::TaskList_IsEmpty
FUNC 61428 1c 0 DirectFB::TaskList_Delete
FUNC 61444 14 0 DirectFB::Task_Flush
FUNC 61458 18 0 DirectFB::Task_Done
FUNC 61470 14 0 DirectFB::Task_DoneFail
FUNC 61484 4 0 DirectFB::Task_Log
FUNC 61488 a0 0 DirectFB::Task::Task
FUNC 61528 84 0 DirectFB::SimpleTask_Create
FUNC 615ac c 0 DirectFB::Task::AddRef()
FUNC 615b8 4 0 DirectFB::Task_AddRef
FUNC 615bc 6c 0 DirectFB::Task::Release()
FUNC 61628 4 0 DirectFB::Task_Release
FUNC 6162c 24 0 DirectFB::Task::AddSlave(DirectFB::Task*)
FUNC 61650 1c0 0 DirectFB::Task::Describe(Direct::StringBase<char>&) const
FUNC 61810 24 0 DirectFB::Task::handleNotify()
FUNC 61834 118 0 DirectFB::Task::notifyAll(DirectFB::TaskState)
FUNC 6194c cc 0 DirectFB::Task::finish()
FUNC 61a18 c0 0 DirectFB::Task::emit()
FUNC 61ad8 8c 0 DirectFB::Task::checkEmit()
FUNC 61b64 14 0 DirectFB::Task::enableDump()
FUNC 61b78 28 0 DirectFB::Task::Done(DFBResult)
FUNC 61ba0 1c 0 DirectFB::Task::append(DirectFB::Task*)
FUNC 61bbc 4 0 DirectFB::Task::Log(std::string const&)
FUNC 61bc0 30 0 DirectFB::Task::Description()
FUNC 61bf0 c4 0 DirectFB::Task::DumpLog(DirectLogDomain&, DirectLogLevel)
FUNC 61cb4 174 0 DirectFB::Task::~Task
FUNC 61e28 1c 0 DirectFB::Task::~Task
FUNC 61e44 b4 0 DirectFB::Task::DumpTree(int, int)
FUNC 61ef8 18 0 DirectFB::Task::AddFlags(DirectFB::TaskFlags)
FUNC 61f10 c8 0 DirectFB::Task::AddNotify(DirectFB::Task*, bool)
FUNC 61fd8 4 0 DirectFB::Task_AddNotify
FUNC 61fdc 64 0 _GLOBAL__I_Task.cpp
FUNC 62040 210 0 DirectFB::Task::Push()
FUNC 62250 bc 0 DirectFB::TaskList_WaitEmpty
FUNC 6230c 28 0 DirectFB::SimpleTask::Run()
FUNC 62334 24 0 Direct::List<DirectFB::Task*>::~List
FUNC 62358 8 0 Direct::ListSimple<DirectFB::Task*>::Length() const
FUNC 62360 8 0 Direct::ListLocked<DirectFB::Task*>::Length() const
FUNC 62368 34 0 Direct::List<DirectFB::Task*>::~List
FUNC 6239c 88 0 ToString<DirectFB::TaskState>::~ToString
FUNC 62424 88 0 ToString<DirectFB::TaskFlags>::~ToString
FUNC 624ac 34 0 DirectFB::SimpleTask::~SimpleTask
FUNC 624e0 3c 0 DirectFB::SimpleTask::~SimpleTask
FUNC 6251c 3a0 0 std::vector<std::pair<DirectFB::Task*, DirectFB::TaskState>, std::allocator<std::pair<DirectFB::Task*, DirectFB::TaskState> > >::_M_insert_aux(__gnu_cxx::__normal_iterator<std::pair<DirectFB::Task*, DirectFB::TaskState>*, std::vector<std::pair<DirectFB::Task*, DirectFB::TaskState>, std::allocator<std::pair<DirectFB::Task*, DirectFB::TaskState> > > >, std::pair<DirectFB::Task*, DirectFB::TaskState> const&)
FUNC 628bc 160 0 std::_Rb_tree<DirectFB::Task*, std::pair<DirectFB::Task* const, DirectFB::Task*>, std::_Select1st<std::pair<DirectFB::Task* const, DirectFB::Task*> >, std::less<DirectFB::Task*>, std::allocator<std::pair<DirectFB::Task* const, DirectFB::Task*> > >::_M_erase(std::_Rb_tree_node<std::pair<DirectFB::Task* const, DirectFB::Task*> >*)
FUNC 62a1c 4c 0 Direct::ListSimple<DirectFB::Task*>::~ListSimple
FUNC 62a68 54 0 Direct::ListSimple<DirectFB::Task*>::~ListSimple
FUNC 62abc 30 0 Direct::ListSimple<DirectFB::Task*>::Clear()
FUNC 62aec 130 0 Direct::ListSimple<DirectFB::Task*>::Remove(DirectFB::Task* const&)
FUNC 62c1c 16c 0 std::_Rb_tree<DirectFB::Task*, std::pair<DirectFB::Task* const, DirectFB::Task*>, std::_Select1st<std::pair<DirectFB::Task* const, DirectFB::Task*> >, std::less<DirectFB::Task*>, std::allocator<std::pair<DirectFB::Task* const, DirectFB::Task*> > >::_M_insert_unique(std::pair<DirectFB::Task* const, DirectFB::Task*> const&)
FUNC 62d88 224 0 std::_Rb_tree<DirectFB::Task*, std::pair<DirectFB::Task* const, DirectFB::Task*>, std::_Select1st<std::pair<DirectFB::Task* const, DirectFB::Task*> >, std::less<DirectFB::Task*>, std::allocator<std::pair<DirectFB::Task* const, DirectFB::Task*> > >::_M_insert_unique_(std::_Rb_tree_const_iterator<std::pair<DirectFB::Task* const, DirectFB::Task*> >, std::pair<DirectFB::Task* const, DirectFB::Task*> const&)
FUNC 62fac 88 0 Direct::ListSimple<DirectFB::Task*>::Append(DirectFB::Task* const&)
FUNC 63034 c0 0 Direct::ListLocked<DirectFB::Task*>::Append(DirectFB::Task* const&)
FUNC 630f4 c0 0 Direct::ListLocked<DirectFB::Task*>::Prepend(DirectFB::Task* const&)
FUNC 631b4 88 0 Direct::ListSimple<DirectFB::Task*>::Prepend(DirectFB::Task* const&)
FUNC 6323c 28 0 DirectFB::SimpleTask::Push()
FUNC 63264 1a4 0 Direct::ListLocked<DirectFB::Task*>::Remove(DirectFB::Task* const&)
FUNC 63408 98 0 Direct::ListLocked<DirectFB::Task*>::Clear()
FUNC 634a0 9c 0 Direct::ListLocked<DirectFB::Task*>::~ListLocked
FUNC 6353c 90 0 Direct::ListLocked<DirectFB::Task*>::~ListLocked
FUNC 635cc 128 0 std::deque<DirectFB::Task*, std::allocator<DirectFB::Task*> >::_M_reallocate_map(unsigned int, bool)
FUNC 636f4 4 0 DirectFB::TaskManager::SyncAll()
FUNC 636f8 4 0 DirectFB::TaskManager_SyncAll
FUNC 636fc 33c 0 DirectFB::TaskManager::handleTask(DirectFB::Task*)
FUNC 63a38 b0 0 DirectFB::TaskManager::handleTimedEmits()
FUNC 63ae8 4 0 DirectFB::TaskManager::dumpTasks()
FUNC 63aec 4 0 DirectFB::TaskManager_DumpTasks
FUNC 63af0 88 0 _GLOBAL__I_TaskManager.cpp
FUNC 63b78 4c8 0 DirectFB::TaskManager::Initialise()
FUNC 64040 4 0 DirectFB::TaskManager_Initialise
FUNC 64044 298 0 DirectFB::TaskManager::pullTask()
FUNC 642dc 64 0 DirectFB::TaskManager::managerLoop(__D_DirectThread*, void*)
FUNC 64340 3c0 0 DirectFB::TaskManager::Shutdown()
FUNC 64700 4 0 DirectFB::TaskManager_Shutdown
FUNC 64704 e8 0 DirectFB::TaskManager::pushTask(DirectFB::Task*)
FUNC 647ec 150 0 std::vector<__D_DirectThread*, std::allocator<__D_DirectThread*> >::_M_insert_aux(__gnu_cxx::__normal_iterator<__D_DirectThread**, std::vector<__D_DirectThread*, std::allocator<__D_DirectThread*> > >, __D_DirectThread* const&)
FUNC 6493c c4 0 std::_Deque_base<DirectFB::Task*, std::allocator<DirectFB::Task*> >::~_Deque_base
FUNC 64a00 160 0 std::_Rb_tree<DirectFB::Task*, DirectFB::Task*, std::_Identity<DirectFB::Task*>, DirectFB::TaskManager, std::allocator<DirectFB::Task*> >::_M_erase(std::_Rb_tree_node<DirectFB::Task*>*)
FUNC 64b60 18 0 std::set<DirectFB::Task*, DirectFB::TaskManager, std::allocator<DirectFB::Task*> >::~set
FUNC 64b78 194 0 std::_Deque_base<DirectFB::Task*, std::allocator<DirectFB::Task*> >::_M_initialize_map(unsigned int)
FUNC 64d0c 3a0 0 DirectFB::FIFO<DirectFB::Task*>::FIFO
FUNC 650ac 114 0 DirectFB::FIFO<DirectFB::Task*>::~FIFO
FUNC 651c0 178 0 DirectFB::TaskThreads::taskLoop(__D_DirectThread*, void*)
FUNC 65338 128 0 std::deque<DirectFB::Task*, std::allocator<DirectFB::Task*> >::_M_reallocate_map(unsigned int, bool)
FUNC 65460 48 0 DirectFB::TaskThreadsQ::Runner::Runner
FUNC 654a8 20 0 DirectFB::TaskThreadsQ::Runner::~Runner
FUNC 654c8 1f0 0 DirectFB::TaskThreadsQ::Push(DirectFB::Task*)
FUNC 656b8 274 0 DirectFB::TaskThreadsQ::taskLoop(__D_DirectThread*, void*)
FUNC 6592c 228 0 DirectFB::TaskThreadsQ::Finalise(DirectFB::Task*)
FUNC 65b54 494 0 DirectFB::TaskThreadsQ::TaskThreadsQ
FUNC 65fe8 2b4 0 DirectFB::TaskThreadsQ::~TaskThreadsQ
FUNC 6629c 160 0 std::_Rb_tree<unsigned long long, std::pair<unsigned long long const, DirectFB::Task*>, std::_Select1st<std::pair<unsigned long long const, DirectFB::Task*> >, std::less<unsigned long long>, std::allocator<std::pair<unsigned long long const, DirectFB::Task*> > >::_M_erase(std::_Rb_tree_node<std::pair<unsigned long long const, DirectFB::Task*> >*)
FUNC 663fc 160 0 std::_Rb_tree<unsigned long long, std::pair<unsigned long long const, Direct::PerfCounter>, std::_Select1st<std::pair<unsigned long long const, Direct::PerfCounter> >, std::less<unsigned long long>, std::allocator<std::pair<unsigned long long const, Direct::PerfCounter> > >::_M_erase(std::_Rb_tree_node<std::pair<unsigned long long const, Direct::PerfCounter> >*)
FUNC 6655c 150 0 std::vector<DirectFB::TaskThreadsQ::Runner*, std::allocator<DirectFB::TaskThreadsQ::Runner*> >::_M_insert_aux(__gnu_cxx::__normal_iterator<DirectFB::TaskThreadsQ::Runner**, std::vector<DirectFB::TaskThreadsQ::Runner*, std::allocator<DirectFB::TaskThreadsQ::Runner*> > >, DirectFB::TaskThreadsQ::Runner* const&)
FUNC 666ac 1a0 0 std::_Rb_tree<unsigned long long, std::pair<unsigned long long const, DirectFB::Task*>, std::_Select1st<std::pair<unsigned long long const, DirectFB::Task*> >, std::less<unsigned long long>, std::allocator<std::pair<unsigned long long const, DirectFB::Task*> > >::_M_insert_unique(std::pair<unsigned long long const, DirectFB::Task*> const&)
FUNC 6684c 25c 0 std::_Rb_tree<unsigned long long, std::pair<unsigned long long const, DirectFB::Task*>, std::_Select1st<std::pair<unsigned long long const, DirectFB::Task*> >, std::less<unsigned long long>, std::allocator<std::pair<unsigned long long const, DirectFB::Task*> > >::_M_insert_unique_(std::_Rb_tree_const_iterator<std::pair<unsigned long long const, DirectFB::Task*> >, std::pair<unsigned long long const, DirectFB::Task*> const&)
FUNC 66aa8 4 0 FPS_Delete
FUNC 66aac 18 0 dfb_clipboard_core_join
FUNC 66ac4 10 0 dfb_clipboard_core_leave
FUNC 66ad4 8 0 dfb_clipboard_core_suspend
FUNC 66adc 8 0 dfb_clipboard_core_resume
FUNC 66ae4 b8 0 dfb_clipboard_core_shutdown
FUNC 66b9c 7c 0 dfb_clipboard_core_initialize
FUNC 66c18 230 0 dfb_clipboard_set
FUNC 66e48 cc 0 dfb_clipboard_get
FUNC 66f14 48 0 dfb_clipboard_get_timestamp
FUNC 66f5c 8 0 dfb_colorhash_core_suspend
FUNC 66f64 8 0 dfb_colorhash_core_resume
FUNC 66f6c 24 0 dfb_colorhash_core_leave
FUNC 66f90 24 0 dfb_colorhash_core_shutdown
FUNC 66fb4 90 0 dfb_colorhash_core_join
FUNC 67044 a8 0 dfb_colorhash_core_initialize
FUNC 670ec 4a0 0 dfb_colorhash_lookup
FUNC 6758c bc 0 dfb_colorhash_invalidate
FUNC 67648 1c 0 Core_AsyncCall_Handler
FUNC 67664 c 0 core_tls_destroy
FUNC 67670 20 0 region_callback
FUNC 67690 4 0 dfb_core_thread_init_handler
FUNC 67694 14c 0 dfb_core_get_part
FUNC 677e0 58 0 dfb_core_get_graphics_state
FUNC 67838 58 0 dfb_core_get_layer_context
FUNC 67890 58 0 dfb_core_get_layer_region
FUNC 678e8 58 0 dfb_core_get_palette
FUNC 67940 58 0 dfb_core_get_surface
FUNC 67998 58 0 dfb_core_lookup_surface
FUNC 679f0 58 0 dfb_core_get_surface_allocation
FUNC 67a48 58 0 dfb_core_get_surface_buffer
FUNC 67aa0 58 0 dfb_core_get_surface_client
FUNC 67af8 58 0 dfb_core_get_window
FUNC 67b50 34 0 dfb_core_enum_surfaces
FUNC 67b84 34 0 dfb_core_enum_graphics_states
FUNC 67bb8 34 0 dfb_core_enum_layer_contexts
FUNC 67bec 34 0 dfb_core_enum_layer_regions
FUNC 67c20 4b4 0 dfb_core_dump_all
FUNC 680d4 1a4 0 dfb_core_wait_all
FUNC 68278 a4 0 core_arena_add_shared_field
FUNC 6831c 2c 0 core_arena_get_shared_field
FUNC 68348 14 0 dfb_core_is_master
FUNC 6835c e4 0 dump_objects
FUNC 68440 5f4 0 dfb_core_arena_shutdown
FUNC 68a34 3c0 0 dfb_core_destroy
FUNC 68df4 9c 0 dfb_core_deinit_check
FUNC 68e90 44 0 dfb_core_signal_handler
FUNC 68ed4 7dc 0 dfb_core_create
FUNC 696b0 8 0 dfb_core_activate
FUNC 696b8 34 0 dfb_core_world
FUNC 696ec 3c 0 dfb_core_shmpool
FUNC 69728 3c 0 dfb_core_shmpool_data
FUNC 69764 118 0 dfb_core_suspend
FUNC 6987c 114 0 dfb_core_resume
FUNC 69990 88 0 dfb_core_cleanup_add
FUNC 69a18 68 0 dfb_core_cleanup_remove
FUNC 69a80 34 0 dfb_core_font_manager
FUNC 69ab4 cc 0 dfb_core_memory_permissions_add
FUNC 69b80 68 0 dfb_core_memory_permissions_remove
FUNC 69be8 148 0 dfb_core_memory_permissions_check
FUNC 69d30 344 0 dfb_core_initialize
FUNC 6a074 3c 0 Core_TLS__init
FUNC 6a0b0 38 0 Core_TLS__deinit
FUNC 6a0e8 a4 0 Core_GetTLS
FUNC 6a18c fc 0 Core_PushIdentity
FUNC 6a288 d4 0 Core_PopIdentity
FUNC 6a35c 108 0 Core_GetIdentity
FUNC 6a464 50 0 dfb_core_create_window
FUNC 6a4b4 50 0 dfb_core_create_surface_client
FUNC 6a504 50 0 dfb_core_create_surface_buffer
FUNC 6a554 50 0 dfb_core_create_surface_allocation
FUNC 6a5a4 50 0 dfb_core_create_surface
FUNC 6a5f4 50 0 dfb_core_create_palette
FUNC 6a644 50 0 dfb_core_create_layer_region
FUNC 6a694 50 0 dfb_core_create_layer_context
FUNC 6a6e4 50 0 dfb_core_create_graphics_state
FUNC 6a734 270 0 Core_Resource_AddIdentity
FUNC 6a9a4 d4 0 Core_Resource_DisposeIdentity
FUNC 6aa78 8 0 dfb_core_leave_callback
FUNC 6aa80 38 0 Core_Resource_GetClient
FUNC 6aab8 80 0 Core_Resource_UpdateSurface
FUNC 6ab38 78 0 Core_Resource_RemoveSurface
FUNC 6abb0 78 0 Core_Resource_AddSurface
FUNC 6ac28 80 0 Core_Resource_CheckSurfaceUpdate
FUNC 6aca8 94 0 Core_Resource_CheckSurface
FUNC 6ad3c 38 0 Core_Resource_GetSlave
FUNC 6ad74 104 0 Core_Resource_AddCleanup
FUNC 6ae78 90 0 Core_Resource_DisposeCleanup
FUNC 6af08 1d4 0 dfb_core_part_initialize
FUNC 6b0dc 170 0 dfb_core_part_join
FUNC 6b24c 100 0 dfb_core_part_shutdown
FUNC 6b34c a8 0 dfb_core_part_leave
FUNC 6b3f4 24 0 font_cache_map_hash
FUNC 6b418 60 0 find_lru_row
FUNC 6b478 20 0 font_cache_map_compare
FUNC 6b498 88 0 dfb_font_manager_init
FUNC 6b520 88 0 dfb_font_manager_create
FUNC 6b5a8 3c 0 dfb_font_manager_deinit
FUNC 6b5e4 1c 0 dfb_font_manager_destroy
FUNC 6b600 14 0 dfb_font_manager_lock
FUNC 6b614 14 0 dfb_font_manager_unlock
FUNC 6b628 84 0 dfb_font_cache_init
FUNC 6b6ac 98 0 dfb_font_cache_create
FUNC 6b744 294 0 dfb_font_cache_row_init
FUNC 6b9d8 90 0 dfb_font_cache_row_create
FUNC 6ba68 a4 0 dfb_font_cache_row_deinit
FUNC 6bb0c 1c 0 dfb_font_cache_row_destroy
FUNC 6bb28 dc 0 free_glyphs
FUNC 6bc04 60 0 dfb_font_cache_deinit
FUNC 6bc64 1c 0 dfb_font_cache_destroy
FUNC 6bc80 98 0 dfb_font_manager_get_cache
FUNC 6bd18 14 0 destroy_caches
FUNC 6bd2c dc 0 dfb_font_manager_remove_lru_row
FUNC 6be08 120 0 dfb_font_cache_get_row
FUNC 6bf28 1bc 0 dfb_font_create
FUNC 6c0e4 70 0 dfb_font_dispose
FUNC 6c154 90 0 dfb_font_destroy
FUNC 6c1e4 418 0 dfb_font_get_glyph_data
FUNC 6c5fc 198 0 dfb_font_register_encoding
FUNC 6c794 44c 0 dfb_font_decode_text
FUNC 6cbe0 74 0 dfb_font_decode_character
FUNC 6cc54 5c 0 dfb_graphics_core_leave
FUNC 6ccb0 298 0 dfb_graphics_core_join
FUNC 6cf48 12c 0 InitDevice_Async
FUNC 6d074 514 0 dfb_graphics_core_initialize
FUNC 6d588 394 0 clip_blits
FUNC 6d91c 344 0 fill_tri
FUNC 6dc60 150 0 font_state_prepare
FUNC 6ddb0 3cc 0 GenefxVertexAffine_Transform
FUNC 6e17c 28 0 dfb_gfxcard_unlock
FUNC 6e1a4 10 0 dfb_graphics_core_resume
FUNC 6e1b4 50 0 dfb_gfxcard_start_drawing
FUNC 6e204 50 0 dfb_gfxcard_stop_drawing
FUNC 6e254 4b8 0 dfb_gfxcard_state_check
FUNC 6e70c 64 0 dfb_gfxcard_state_init
FUNC 6e770 64 0 dfb_gfxcard_state_destroy
FUNC 6e7d4 434 0 dfb_gfxcard_drawstring
FUNC 6ec08 370 0 dfb_gfxcard_drawglyph
FUNC 6ef78 1a8 0 dfb_gfxcard_drawstring_check_state
FUNC 6f120 2c 0 dfb_gfxcard_invalidate_state
FUNC 6f14c 6c 0 dfb_gfxcard_flush_texture_cache
FUNC 6f1b8 6c 0 dfb_gfxcard_flush_read_cache
FUNC 6f224 6c 0 dfb_gfxcard_after_set_var
FUNC 6f290 74 0 dfb_gfxcard_surface_enter
FUNC 6f304 70 0 dfb_gfxcard_surface_leave
FUNC 6f374 8 0 dfb_gfxcard_adjust_heap_offset
FUNC 6f37c 40 0 dfb_gfxcard_get_capabilities
FUNC 6f3bc 34 0 dfb_gfxcard_get_device_info
FUNC 6f3f0 34 0 dfb_gfxcard_get_driver_info
FUNC 6f424 110 0 dfb_gfxcard_reserve_memory
FUNC 6f534 20 0 dfb_gfxcard_reserve_auxmemory
FUNC 6f554 28 0 dfb_gfxcard_memory_length
FUNC 6f57c 28 0 dfb_gfxcard_auxmemory_length
FUNC 6f5a4 c 0 dfb_gfxcard_map_mmio
FUNC 6f5b0 c 0 dfb_gfxcard_unmap_mmio
FUNC 6f5bc 4 0 dfb_gfxcard_get_accelerator
FUNC 6f5c0 64 0 dfb_gfxcard_get_limits
FUNC 6f624 220 0 dfb_gfxcard_calc_buffer_size
FUNC 6f844 8 0 dfb_gfxcard_memory_physical
FUNC 6f84c 8 0 dfb_gfxcard_memory_virtual
FUNC 6f854 8 0 dfb_gfxcard_auxmemory_physical
FUNC 6f85c 8 0 dfb_gfxcard_auxmemory_virtual
FUNC 6f864 28 0 dfb_gfxcard_get_device_data
FUNC 6f88c 24 0 dfb_gfxcard_get_driver_data
FUNC 6f8b0 20 0 dfb_gfxcard_get_primary
FUNC 6f8d0 120 0 dfb_gfxcard_update_stats
FUNC 6f9f0 94 0 dfb_gfxcard_switch_busy
FUNC 6fa84 178 0 dfb_gfxcard_state_release
FUNC 6fbfc c0 0 dfb_gfxcard_flush
FUNC 6fcbc 88 0 dfb_gfxcard_switch_idle
FUNC 6fd44 198 0 dfb_gfxcard_lock
FUNC 6fedc 14 0 dfb_graphics_core_suspend
FUNC 6fef0 160 0 dfb_graphics_core_shutdown
FUNC 70050 74 0 dfb_gfxcard_sync
FUNC 700c4 a54 0 dfb_gfxcard_state_check_acquire
FUNC 70b18 168 0 dfb_gfxcard_texture_triangles
FUNC 70c80 5d0 0 dfb_gfxcard_blit_locked
FUNC 71250 68 0 dfb_gfxcard_blit
FUNC 712b8 6d4 0 dfb_gfxcard_batchstretchblit
FUNC 7198c a4 0 dfb_gfxcard_stretchblit
FUNC 71a30 85c 0 dfb_gfxcard_tileblit
FUNC 7228c 5b8 0 dfb_gfxcard_batchblit2
FUNC 72844 c30 0 dfb_gfxcard_batchblit
FUNC 73474 3c0 0 dfb_gfxcard_draw_mono_glyphs
FUNC 73834 5f0 0 dfb_gfxcard_fillquadrangles
FUNC 73e24 b68 0 dfb_gfxcard_filltriangles
FUNC 7498c 10b8 0 dfb_gfxcard_fillspans
FUNC 75a44 4f8 0 dfb_gfxcard_drawlines
FUNC 75f3c 7a4 0 dfb_gfxcard_drawrectangle
FUNC 766e0 12e8 0 dfb_gfxcard_fillrectangles
FUNC 779c8 17b4 0 dfb_gfxcard_filltrapezoids
FUNC 7917c 14c 0 dfb_gfxcard_wait_serial
FUNC 792c8 90 0 state_describe
FUNC 79358 64 0 state_destructor
FUNC 793bc 58 0 dfb_graphics_state_pool_create
FUNC 79414 9c 0 dfb_graphics_state_create
FUNC 794b0 30 0 dfb_graphics_state_dispatch_done
FUNC 794e0 2bc 0 symbol_to_id
FUNC 7979c 124 0 dfb_input_core_resume
FUNC 798c0 48 0 dfb_input_core_leave
FUNC 79908 2a4 0 dfb_input_core_shutdown
FUNC 79bac 124 0 get_keymap_entry
FUNC 79cd0 18c 0 lookup_keysymbol
FUNC 79e5c 474 0 load_keymap
FUNC 7a2d0 bd8 0 dfb_input_core_initialize
FUNC 7aea8 110 0 dfb_input_core_join
FUNC 7afb8 c 0 CoreInputDevice_Call
FUNC 7afc4 cc 0 dfb_input_add_global
FUNC 7b090 18 0 dfb_input_set_global
FUNC 7b0a8 74 0 dfb_input_enumerate_devices
FUNC 7b11c c 0 dfb_input_attach
FUNC 7b128 c 0 dfb_input_detach
FUNC 7b134 c 0 dfb_input_attach_global
FUNC 7b140 c 0 dfb_input_detach_global
FUNC 7b14c 94 0 dfb_input_event_type_name
FUNC 7b1e0 f08 0 dfb_input_dispatch
FUNC 7c0e8 418 0 dfb_input_core_suspend
FUNC 7c500 c 0 dfb_input_device_id
FUNC 7c50c 40 0 dfb_input_device_at
FUNC 7c54c 2ac 0 local_processing_hotplug
FUNC 7c7f8 c 0 dfb_input_device_caps
FUNC 7c804 1c 0 dfb_input_device_description
FUNC 7c820 38 0 dfb_input_device_get_keymap_entry
FUNC 7c858 68 0 dfb_input_device_set_keymap_entry
FUNC 7c8c0 4 0 dfb_input_device_load_keymap
FUNC 7c8c4 178 0 dfb_input_device_reload_keymap
FUNC 7ca3c 1c 0 dfb_input_device_get_state
FUNC 7ca58 34 0 dfb_input_device_set_configuration
FUNC 7ca8c 73c 0 dfb_input_create_device
FUNC 7d1c8 260 0 dfb_input_remove_device
FUNC 7d428 c 0 CoreInputHub_Create
FUNC 7d434 c 0 CoreInputHub_Destroy
FUNC 7d440 c 0 CoreInputHub_AddDevice
FUNC 7d44c c 0 CoreInputHub_RemoveDevice
FUNC 7d458 c 0 CoreInputHub_DispatchEvent
FUNC 7d464 c 0 CoreInputHubClient_Create
FUNC 7d470 c 0 CoreInputHubClient_Destroy
FUNC 7d47c c 0 CoreInputHubClient_Activate
FUNC 7d488 69c 0 build_updated_config
FUNC 7db24 160 0 screen_rectangle
FUNC 7dc84 40 0 dfb_layer_context_pool_create
FUNC 7dcc4 34 0 dfb_layer_context_get_configuration
FUNC 7dcf8 b4 0 dfb_layer_context_set_coloradjustment
FUNC 7ddac 18 0 dfb_layer_context_get_coloradjustment
FUNC 7ddc4 60 0 dfb_layer_context_set_stereo_depth
FUNC 7de24 18 0 dfb_layer_context_get_stereo_depth
FUNC 7de3c 8 0 dfb_layer_context_windowstack
FUNC 7de44 8 0 dfb_layer_context_active
FUNC 7de4c 30 0 dfb_layer_context_lock
FUNC 7de7c cc 0 context_destructor
FUNC 7df48 8 0 dfb_layer_context_unlock
FUNC 7df50 90 0 dfb_layer_context_find_window
FUNC 7dfe0 c0 0 dfb_layer_context_create_window
FUNC 7e0a0 228 0 dfb_layer_context_set_clip_regions
FUNC 7e2c8 c4 0 dfb_layer_context_set_field_parity
FUNC 7e38c 134 0 dfb_layer_context_set_rotation
FUNC 7e4c0 c8 0 dfb_layer_context_set_opacity
FUNC 7e588 f0 0 dfb_layer_context_set_screenposition
FUNC 7e678 d0 0 dfb_layer_context_set_screenrectangle
FUNC 7e748 e4 0 dfb_layer_context_set_screenlocation
FUNC 7e82c 1b0 0 dfb_layer_context_set_sourcerectangle
FUNC 7e9dc d4 0 dfb_layer_context_set_dst_colorkey
FUNC 7eab0 d4 0 dfb_layer_context_set_src_colorkey
FUNC 7eb84 fc 0 dfb_layer_context_test_configuration
FUNC 7ec80 108 0 dfb_layer_context_remove_region
FUNC 7ed88 128 0 dfb_layer_context_add_region
FUNC 7eeb0 c4 0 dfb_layer_context_deactivate
FUNC 7ef74 360 0 dfb_layer_context_init
FUNC 7f2d4 2b4 0 dfb_layer_context_allocate_surface
FUNC 7f588 330 0 dfb_layer_context_reallocate_surface
FUNC 7f8b8 1e4 0 dfb_layer_context_activate
FUNC 7fa9c 84 0 dfb_layer_context_deallocate_surface
FUNC 7fb20 59c 0 dfb_layer_context_set_configuration
FUNC 800bc 260 0 dfb_layer_context_get_primary_region
FUNC 8031c c4 0 dfb_layer_suspend
FUNC 803e0 c4 0 dfb_layer_resume
FUNC 804a4 c8 0 dfb_layer_create_context
FUNC 8056c 88 0 dfb_layer_get_active_context
FUNC 805f4 1a0 0 dfb_layer_activate_context
FUNC 80794 144 0 dfb_layer_get_primary_context
FUNC 808d8 1b4 0 dfb_layer_remove_context
FUNC 80a8c 34 0 dfb_layer_get_current_output_field
FUNC 80ac0 34 0 dfb_layer_get_level
FUNC 80af4 34 0 dfb_layer_set_level
FUNC 80b28 8 0 dfb_layer_wait_vsync
FUNC 80b30 3c 0 dfb_layer_get_source_info
FUNC 80b6c 128 0 region_buffer_lock
FUNC 80c94 48 0 region_buffer_unlock
FUNC 80cdc 40 0 dfb_layer_region_pool_create
FUNC 80d1c 128 0 dfb_layer_region_create
FUNC 80e44 8 0 dfb_layer_region_lock
FUNC 80e4c 8 0 dfb_layer_region_unlock
FUNC 80e54 44 0 dfb_layer_region_get_configuration
FUNC 80e98 7c 0 dfb_layer_region_get_surface
FUNC 80f14 260 0 _dfb_layer_region_surface_listener
FUNC 81174 1a4 0 dfb_layer_region_set
FUNC 81318 238 0 dfb_layer_region_set_configuration
FUNC 81550 214 0 dfb_layer_region_unrealize
FUNC 81764 1e4 0 dfb_layer_region_realize
FUNC 81948 7a0 0 dfb_layer_region_flip_update_stereo
FUNC 820e8 60c 0 dfb_layer_region_flip_update
FUNC 826f4 190 0 dfb_layer_region_set_surface
FUNC 82884 7c 0 dfb_layer_region_enable
FUNC 82900 7c 0 dfb_layer_region_activate
FUNC 8297c 84 0 dfb_layer_region_disable
FUNC 82a00 120 0 region_destructor
FUNC 82b20 8c 0 dfb_layer_region_deactivate
FUNC 82bac 44 0 dfb_layer_core_resume
FUNC 82bf0 b4 0 dfb_layer_core_suspend
FUNC 82ca4 78 0 dfb_layer_core_leave
FUNC 82d1c 27c 0 dfb_layer_core_shutdown
FUNC 82f98 1b8 0 dfb_layer_core_join
FUNC 83150 3ec 0 dfb_layer_core_initialize
FUNC 8353c b4 0 dfb_layers_register
FUNC 835f0 c4 0 dfb_layers_hook_primary
FUNC 836b4 24 0 dfb_layers_replace_primary
FUNC 836d8 5c 0 dfb_layers_enumerate
FUNC 83734 10 0 dfb_layer_num
FUNC 83744 18 0 dfb_layer_at
FUNC 8375c 60 0 dfb_layer_at_translated
FUNC 837bc 44 0 dfb_layer_get_description
FUNC 83800 8 0 dfb_layer_screen
FUNC 83808 8 0 dfb_layer_state
FUNC 83810 c 0 dfb_layer_id
FUNC 8381c 64 0 dfb_layer_id_translated
FUNC 83880 54 0 dfb_layer_id_translate
FUNC 838d4 18 0 dfb_primary_layer_pixelformat
FUNC 838ec 8 0 localPoolDataSize
FUNC 838f4 8 0 localPoolLocalDataSize
FUNC 838fc 8 0 localAllocationDataSize
FUNC 83904 8 0 localJoinPool
FUNC 8390c 8 0 localDestroyPool
FUNC 83914 8 0 localLeavePool
FUNC 8391c 18 0 localLock
FUNC 83934 8 0 localUnlock
FUNC 8393c 64 0 localDeallocateBuffer
FUNC 839a0 5c 0 localInitPool
FUNC 839fc 234 0 localAllocateBuffer
FUNC 83c30 d0 0 palette_destructor
FUNC 83d00 40 0 dfb_palette_pool_create
FUNC 83d40 164 0 dfb_palette_create
FUNC 83ea4 12c 0 dfb_palette_generate_rgb332_map
FUNC 83fd0 1a8 0 dfb_palette_generate_rgb121_map
FUNC 84178 3c 0 dfb_palette_search
FUNC 841b4 50 0 dfb_palette_update
FUNC 84204 118 0 dfb_palette_equal
FUNC 8431c 8 0 preallocAllocationDataSize
FUNC 84324 13c 0 preallocPrealloc
FUNC 84460 8 0 preallocDeallocateBuffer
FUNC 84468 8 0 preallocUnlock
FUNC 84470 44 0 preallocTestConfig
FUNC 844b4 8c 0 preallocLock
FUNC 84540 108 0 preallocAllocateBuffer
FUNC 84648 44 0 preallocInitPool
FUNC 8468c 8 0 preallocPoolBridgeDataSize
FUNC 84694 8 0 preallocPoolBridgeLocalDataSize
FUNC 8469c 8 0 preallocPoolTransferDataSize
FUNC 846a4 8 0 preallocJoinPoolBridge
FUNC 846ac 8 0 preallocDestroyPoolBridge
FUNC 846b4 8 0 preallocLeavePoolBridge
FUNC 846bc 8 0 preallocFinishTransfer
FUNC 846c4 64 0 preallocCheckTransfer
FUNC 84728 40 0 preallocInitPoolBridge
FUNC 84768 208 0 prealloc_transfer_locked
FUNC 84970 204 0 prealloc_transfer_readwrite
FUNC 84b74 178 0 preallocStartTransfer
FUNC 84cec 50 0 dfb_screen_get_info
FUNC 84d3c 8 0 dfb_screen_suspend
FUNC 84d44 8 0 dfb_screen_resume
FUNC 84d4c 34 0 dfb_screen_set_powermode
FUNC 84d80 30 0 dfb_screen_wait_vsync
FUNC 84db0 34 0 dfb_screen_get_vsync_count
FUNC 84de4 40 0 dfb_screen_get_mixer_info
FUNC 84e24 38 0 dfb_screen_get_mixer_config
FUNC 84e5c 58 0 dfb_screen_test_mixer_config
FUNC 84eb4 b0 0 dfb_screen_set_mixer_config
FUNC 84f64 48 0 dfb_screen_get_encoder_info
FUNC 84fac 54 0 dfb_screen_get_encoder_config
FUNC 85000 58 0 dfb_screen_test_encoder_config
FUNC 85058 c8 0 dfb_screen_set_encoder_config
FUNC 85120 3c 0 dfb_screen_get_output_info
FUNC 8515c 34 0 dfb_screen_get_output_config
FUNC 85190 58 0 dfb_screen_test_output_config
FUNC 851e8 ac 0 dfb_screen_set_output_config
FUNC 85294 34 0 dfb_screen_get_screen_size
FUNC 852c8 1ec 0 dfb_screen_get_layer_dimension
FUNC 854b4 114 0 dfb_screen_get_frame_interval
FUNC 855c8 44 0 dfb_screen_core_resume
FUNC 8560c b4 0 dfb_screen_core_suspend
FUNC 856c0 60 0 dfb_screen_core_leave
FUNC 85720 1ac 0 dfb_screen_core_join
FUNC 858cc 270 0 dfb_screen_core_shutdown
FUNC 85b3c 68c 0 dfb_screen_core_initialize
FUNC 861c8 a0 0 dfb_screens_register
FUNC 86268 144 0 dfb_screens_hook_primary
FUNC 863ac 24 0 dfb_screens_register_primary
FUNC 863d0 5c 0 dfb_screens_enumerate
FUNC 8642c 10 0 dfb_screens_num
FUNC 8643c 18 0 dfb_screens_at
FUNC 86454 6c 0 dfb_screens_at_translated
FUNC 864c0 c 0 dfb_screen_id
FUNC 864cc 70 0 dfb_screen_id_translated
FUNC 8653c 8 0 sharedSecurePoolDataSize
FUNC 86544 8 0 sharedSecurePoolLocalDataSize
FUNC 8654c 8 0 sharedSecureAllocationDataSize
FUNC 86554 48 0 sharedSecureUnlock
FUNC 8659c 154 0 sharedSecureLock
FUNC 866f0 b0 0 sharedSecureDeallocateBuffer
FUNC 867a0 264 0 sharedSecureAllocateBuffer
FUNC 86a04 6c 0 sharedSecureDestroyPool
FUNC 86a70 2b4 0 sharedSecureInitPool
FUNC 86d24 8 0 sharedPoolDataSize
FUNC 86d2c 8 0 sharedPoolLocalDataSize
FUNC 86d34 8 0 sharedAllocationDataSize
FUNC 86d3c 20 0 sharedLock
FUNC 86d5c 8 0 sharedUnlock
FUNC 86d64 54 0 sharedDeallocateBuffer
FUNC 86db8 18 0 sharedDestroyPool
FUNC 86dd0 d4 0 sharedInitPool
FUNC 86ea4 25c 0 sharedAllocateBuffer
FUNC 87100 158 0 dfb_state_init
FUNC 87258 6c 0 dfb_state_destroy
FUNC 872c4 1ac 0 dfb_state_set_destination
FUNC 87470 10c 0 dfb_state_set_source
FUNC 8757c 138 0 dfb_state_set_source_2
FUNC 876b4 10c 0 dfb_state_set_source2
FUNC 877c0 10c 0 dfb_state_set_source_mask
FUNC 878cc 3a4 0 dfb_state_update
FUNC 87c70 2a0 0 dfb_state_update_destination
FUNC 87f10 10c 0 dfb_state_update_sources
FUNC 8801c ec 0 dfb_state_set_index_translation
FUNC 88108 90 0 dfb_state_set_matrix
FUNC 88198 144 0 dfb_state_set_rop_pattern
FUNC 882dc 60 0 dfb_state_set_src_colormatrix
FUNC 8833c 60 0 dfb_state_set_src_convolution
FUNC 8839c 168 0 dfb_state_set_color_or_index
FUNC 88504 f4 0 dfb_state_get_acceleration_mask
FUNC 885f8 40 0 dfb_surface_pool_create
FUNC 88638 60 0 dfb_surface_create_simple
FUNC 88698 6c 0 dfb_surface_notify
FUNC 88704 60 0 dfb_surface_notify_display2
FUNC 88764 c 0 dfb_surface_notify_display
FUNC 88770 5c 0 dfb_surface_notify_frame
FUNC 887cc 68 0 dfb_surface_pool_notify
FUNC 88834 c0 0 dfb_surface_flip_buffers
FUNC 888f4 34 0 dfb_surface_flip
FUNC 88928 5c 0 dfb_surface_dispatch_event
FUNC 88984 174 0 surface_destructor
FUNC 88af8 138 0 dfb_surface_dispatch_update
FUNC 88c30 d0 0 dfb_surface_destroy_buffers
FUNC 88d00 cc 0 dfb_surface_deallocate_buffers
FUNC 88dcc 4c 0 dfb_surface_destroy
FUNC 88e18 10c 0 dfb_surface_lock_buffer
FUNC 88f24 f8 0 dfb_surface_lock_buffer2
FUNC 8901c 8 0 dfb_surface_unlock_buffer
FUNC 89024 3fc 0 dfb_surface_read_buffer
FUNC 89420 31c 0 dfb_surface_write_buffer
FUNC 8973c 90 0 dfb_surface_clear_buffers
FUNC 897cc 910 0 dfb_surface_reconfig
FUNC 8a0dc b0 0 dfb_surface_dump_buffer
FUNC 8a18c 94 0 dfb_surface_dump_raw_buffer
FUNC 8a220 eb0 0 dfb_surface_dump_buffer2
FUNC 8b0d0 ac 0 dfb_surface_set_palette
FUNC 8b17c d0 0 dfb_surface_init_palette
FUNC 8b24c a18 0 dfb_surface_create
FUNC 8bc64 4c 0 dfb_surface_set_field
FUNC 8bcb0 64 0 dfb_surface_set_alpha_ramp
FUNC 8bd14 58 0 _dfb_surface_palette_listener
FUNC 8bd6c c8 0 surface_allocation_destructor
FUNC 8be34 144 0 allocation_update_write
FUNC 8bf78 14c 0 allocation_update_read
FUNC 8c0c4 56c 0 allocation_update_copy
FUNC 8c630 40 0 dfb_surface_allocation_pool_create
FUNC 8c670 174 0 dfb_surface_allocation_create
FUNC 8c7e4 380 0 dfb_surface_allocation_decouple
FUNC 8cb64 390 0 DirectFB::dfb_surface_allocation_update
FUNC 8cef4 1ac 0 DirectFB::dfb_surface_allocation_dump
FUNC 8d0a0 168 0 DirectFB::TransferTask::Run()
FUNC 8d208 88 0 DirectFB::TransferTask::~TransferTask
FUNC 8d290 90 0 DirectFB::TransferTask::~TransferTask
FUNC 8d320 b0 0 surface_buffer_destructor
FUNC 8d3d0 40 0 dfb_surface_buffer_pool_create
FUNC 8d410 148 0 dfb_surface_buffer_create
FUNC 8d558 1ac 0 dfb_surface_buffer_deallocate
FUNC 8d704 28 0 dfb_surface_buffer_decouple
FUNC 8d72c 1bc 0 dfb_surface_buffer_find_allocation
FUNC 8d8e8 184 0 dfb_surface_buffer_lock
FUNC 8da6c b8 0 dfb_surface_buffer_unlock
FUNC 8db24 3dc 0 dfb_surface_buffer_read
FUNC 8df00 304 0 dfb_surface_buffer_write
FUNC 8e204 fa0 0 dfb_surface_buffer_dump_type_locked2
FUNC 8f1a4 28 0 dfb_surface_buffer_dump_type_locked
FUNC 8f1cc 60 0 dfb_surface_buffer_dump
FUNC 8f22c 60 0 dfb_surface_buffer_dump_raw
FUNC 8f28c 11c 0 surface_client_destructor
FUNC 8f3a8 40 0 dfb_surface_client_pool_create
FUNC 8f3e8 a4 0 dfb_surface_client_create
FUNC 8f48c 8 0 dfb_surface_core_suspend
FUNC 8f494 8 0 dfb_surface_core_resume
FUNC 8f49c 38 0 dfb_surface_core_leave
FUNC 8f4d4 40 0 dfb_surface_core_shutdown
FUNC 8f514 fc 0 dfb_surface_core_join
FUNC 8f610 20 0 dfb_surface_core_dump_handler
FUNC 8f630 b4 0 surface_pool_callback
FUNC 8f6e4 41c 0 alloc_callback
FUNC 8fb00 1c0 0 dfb_surface_core_initialize
FUNC 8fcc0 23c 0 remove_pool_local
FUNC 8fefc 1c 0 dfb_surface_pool_get_local
FUNC 8ff18 6bc 0 dfb_surface_pool_initialize2
FUNC 905d4 2c 0 dfb_surface_pool_initialize
FUNC 90600 404 0 dfb_surface_pool_join2
FUNC 90a04 2c 0 dfb_surface_pool_join
FUNC 90a30 f4 0 dfb_surface_pool_destroy
FUNC 90b24 44 0 dfb_surface_pool_leave
FUNC 90b68 e8 0 dfb_surface_pools_prealloc
FUNC 90c50 35c 0 dfb_surface_pools_negotiate
FUNC 90fac 68 0 dfb_surface_pools_enumerate
FUNC 91014 10c 0 dfb_surface_pools_lookup
FUNC 91120 23c 0 dfb_surface_pool_allocate
FUNC 9135c 1c8 0 dfb_surface_pool_deallocate
FUNC 91524 7b0 0 dfb_surface_pool_displace
FUNC 91cd4 1c0 0 dfb_surface_pools_allocate
FUNC 91e94 a8 0 dfb_surface_pool_prelock
FUNC 91f3c cc 0 dfb_surface_pool_lock
FUNC 92008 bc 0 dfb_surface_pool_unlock
FUNC 920c4 128 0 dfb_surface_pool_read
FUNC 921ec 128 0 dfb_surface_pool_write
FUNC 92314 b8 0 dfb_surface_pool_cache_op
FUNC 923cc 6c 0 dfb_surface_pool_enumerate
FUNC 92438 1e0 0 dfb_surface_pool_gfx_driver_update
FUNC 92618 23c 0 remove_bridge_local
FUNC 92854 628 0 dfb_surface_pool_bridge_initialize
FUNC 92e7c 41c 0 dfb_surface_pool_bridge_join
FUNC 93298 ec 0 dfb_surface_pool_bridge_destroy
FUNC 93384 44 0 dfb_surface_pool_bridge_leave
FUNC 933c8 68 0 dfb_surface_pool_bridges_enumerate
FUNC 93430 2f4 0 dfb_surface_pool_bridges_transfer
FUNC 93724 6c 0 dfb_system_core_initialize
FUNC 93790 20 0 dfb_system_core_suspend
FUNC 937b0 20 0 dfb_system_core_resume
FUNC 937d0 50 0 dfb_system_core_leave
FUNC 93820 58 0 dfb_system_core_shutdown
FUNC 93878 16c 0 dfb_system_core_join
FUNC 939e4 140 0 dfb_system_lookup
FUNC 93b24 14 0 dfb_system_type
FUNC 93b38 14 0 dfb_system_caps
FUNC 93b4c 14 0 dfb_system_data
FUNC 93b60 20 0 dfb_system_map_mmio
FUNC 93b80 20 0 dfb_system_unmap_mmio
FUNC 93ba0 20 0 dfb_system_get_accelerator
FUNC 93bc0 20 0 dfb_system_modes
FUNC 93be0 20 0 dfb_system_current_mode
FUNC 93c00 20 0 dfb_system_thread_init
FUNC 93c20 20 0 dfb_system_input_filter
FUNC 93c40 20 0 dfb_system_video_memory_physical
FUNC 93c60 20 0 dfb_system_video_memory_virtual
FUNC 93c80 20 0 dfb_system_videoram_length
FUNC 93ca0 20 0 dfb_system_aux_memory_physical
FUNC 93cc0 20 0 dfb_system_aux_memory_virtual
FUNC 93ce0 20 0 dfb_system_auxram_length
FUNC 93d00 74 0 dfb_system_get_busid
FUNC 93d74 5c 0 dfb_system_get_deviceid
FUNC 93dd0 20 0 dfb_system_surface_data_size
FUNC 93df0 20 0 dfb_system_surface_data_init
FUNC 93e10 20 0 dfb_system_surface_data_destroy
FUNC 93e30 3bc 0 move_window
FUNC 941ec 40 0 dfb_window_pool_create
FUNC 9422c 2c4 0 dfb_window_create_region
FUNC 944f0 b3c 0 dfb_window_create
FUNC 9502c 7c 0 dfb_window_change_stacking
FUNC 950a8 74 0 dfb_window_raise
FUNC 9511c 74 0 dfb_window_lower
FUNC 95190 70 0 dfb_window_raisetotop
FUNC 95200 70 0 dfb_window_lowertobottom
FUNC 95270 78 0 dfb_window_putatop
FUNC 952e8 78 0 dfb_window_putbelow
FUNC 95360 7c 0 dfb_window_set_config
FUNC 953dc d8 0 dfb_window_set_cursor_shape
FUNC 954b4 d8 0 dfb_window_move
FUNC 9558c 144 0 dfb_window_set_bounds
FUNC 956d0 c4 0 dfb_window_resize
FUNC 95794 1bc 0 dfb_window_unbind
FUNC 95950 1a0 0 dfb_window_bind
FUNC 95af0 d0 0 dfb_window_set_color
FUNC 95bc0 98 0 dfb_window_set_colorkey
FUNC 95c58 98 0 dfb_window_set_opacity
FUNC 95cf0 9c 0 dfb_window_change_options
FUNC 95d8c fc 0 dfb_window_set_opaque
FUNC 95e88 9c 0 dfb_window_change_events
FUNC 95f24 8c 0 dfb_window_set_key_selection
FUNC 95fb0 98 0 dfb_window_change_grab
FUNC 96048 80 0 dfb_window_grab_key
FUNC 960c8 80 0 dfb_window_ungrab_key
FUNC 96148 120 0 dfb_window_repaint
FUNC 96268 180 0 dfb_window_event_type_name
FUNC 963e8 b8 0 dfb_window_post_event
FUNC 964a0 34c 0 dfb_window_destroy
FUNC 967ec 260 0 window_destructor
FUNC 96a4c 44 0 dfb_window_send_configuration
FUNC 96a90 6c 0 dfb_window_request_focus
FUNC 96afc 8 0 dfb_window_id
FUNC 96b04 8 0 dfb_window_surface
FUNC 96b0c c8 0 dfb_window_set_rotation
FUNC 96bd4 1d0 0 create_cursor_surface
FUNC 96da4 fc 0 stack_attach_devices
FUNC 96ea0 150 0 stack_containers_attach_device
FUNC 96ff0 10c 0 stack_containers_detach_device
FUNC 970fc 270 0 dfb_windowstack_create
FUNC 9736c 14c 0 dfb_windowstack_detach_devices
FUNC 974b8 11c 0 dfb_windowstack_destroy
FUNC 975d4 8 0 dfb_windowstack_lock
FUNC 975dc 8 0 dfb_windowstack_unlock
FUNC 975e4 b4 0 WindowStack_Input_Flush
FUNC 97698 20 0 WindowStack_Input_DispatchCleanup
FUNC 976b8 310 0 _dfb_windowstack_inputdevice_listener
FUNC 979c8 160 0 dfb_windowstack_resize
FUNC 97b28 68 0 dfb_windowstack_repaint_all
FUNC 97b90 94 0 dfb_windowstack_set_background_mode
FUNC 97c24 cc 0 dfb_windowstack_set_background_image
FUNC 97cf0 a0 0 dfb_windowstack_set_background_color
FUNC 97d90 5c 0 dfb_windowstack_set_background_color_index
FUNC 97dec 3f4 0 dfb_windowstack_cursor_enable
FUNC 981e0 88 0 dfb_windowstack_cursor_set_opacity
FUNC 98268 194 0 dfb_windowstack_cursor_set_shape
FUNC 983fc e4 0 dfb_windowstack_cursor_warp
FUNC 984e0 48 0 dfb_windowstack_cursor_set_acceleration
FUNC 98528 50 0 dfb_windowstack_get_cursor_position
FUNC 98578 70 0 _dfb_windowstack_background_image_listener
FUNC 985e8 2c 0 dfb_wm_core_suspend
FUNC 98614 2c 0 dfb_wm_core_resume
FUNC 98640 e0 0 convert_config
FUNC 98720 7c 0 dfb_wm_core_leave
FUNC 9879c 118 0 dfb_wm_core_shutdown
FUNC 988b4 19c 0 load_module
FUNC 98a50 244 0 dfb_wm_core_join
FUNC 98c94 3d4 0 dfb_wm_core_initialize
FUNC 99068 ac 0 wm_window_attach_callback
FUNC 99114 204 0 apply_geometry
FUNC 99318 24 0 dfb_wm_deactivate_all_stacks
FUNC 9933c 24 0 dfb_wm_close_all_stacks
FUNC 99360 8c 0 dfb_wm_attach
FUNC 993ec 18 0 dfb_wm_detach
FUNC 99404 38 0 dfb_wm_dispatch
FUNC 9943c c0 0 dfb_wm_dispatch_WindowAdd
FUNC 994fc 28 0 dfb_wm_dispatch_WindowRemove
FUNC 99524 44 0 dfb_wm_dispatch_WindowConfig
FUNC 99568 6c 0 dfb_wm_dispatch_WindowState
FUNC 995d4 2c 0 dfb_wm_dispatch_WindowRestack
FUNC 99600 28 0 dfb_wm_dispatch_WindowFocus
FUNC 99628 24 0 dfb_wm_get_info
FUNC 9964c 14 0 dfb_wm_get_data
FUNC 99660 2c 0 dfb_wm_post_init
FUNC 9968c 1f8 0 dfb_wm_init_stack
FUNC 99884 98 0 dfb_wm_set_active
FUNC 9991c 64 0 dfb_wm_close_stack
FUNC 99980 80 0 dfb_wm_layer_context_callback
FUNC 99a00 40 0 dfb_wm_resize_stack
FUNC 99a40 2c 0 dfb_wm_process_input
FUNC 99a6c 28 0 dfb_wm_flush_keys
FUNC 99a94 44 0 dfb_wm_window_at
FUNC 99ad8 40 0 dfb_wm_window_lookup
FUNC 99b18 40 0 dfb_wm_enum_windows
FUNC 99b58 ec 0 dfb_wm_layer_context_WINDOW_ADD_callback
FUNC 99c44 20 0 dfb_wm_get_insets
FUNC 99c64 198 0 dfb_wm_preconfigure_window
FUNC 99dfc a0 0 dfb_wm_add_window
FUNC 99e9c a0 0 dfb_wm_remove_window
FUNC 99f3c 54 0 dfb_wm_set_window_property
FUNC 99f90 48 0 dfb_wm_get_window_property
FUNC 99fd8 48 0 dfb_wm_remove_window_property
FUNC 9a020 58c 0 dfb_wm_set_window_config
FUNC 9a5ac 48 0 dfb_wm_restack_window
FUNC 9a5f4 2c 0 dfb_wm_grab
FUNC 9a620 2c 0 dfb_wm_ungrab
FUNC 9a64c 28 0 dfb_wm_request_focus
FUNC 9a674 2c 0 dfb_wm_begin_updates
FUNC 9a6a0 40 0 dfb_wm_set_cursor_position
FUNC 9a6e0 40 0 dfb_wm_update_stack
FUNC 9a720 44 0 dfb_wm_update_window
FUNC 9a764 70 0 dfb_wm_update_cursor
FUNC 9a7d4 40 0 IDirectFBPalette_AddRef
FUNC 9a814 60 0 IDirectFBPalette_GetCapabilities
FUNC 9a874 68 0 IDirectFBPalette_GetSize
FUNC 9a8dc ac 0 IDirectFBPalette_GetEntries
FUNC 9a988 ac 0 IDirectFBPalette_GetEntriesYUV
FUNC 9aa34 104 0 IDirectFBPalette_FindBestMatchYUV
FUNC 9ab38 84 0 IDirectFBPalette_FindBestMatch
FUNC 9abbc 80 0 IDirectFBPalette_SetEntriesYUV
FUNC 9ac3c 80 0 IDirectFBPalette_SetEntries
FUNC 9acbc 90 0 IDirectFBPalette_Release
FUNC 9ad4c 13c 0 IDirectFBPalette_Construct
FUNC 9ae88 128 0 IDirectFBPalette_CreateCopy
FUNC 9afb0 40 0 IDirectFBSurface_AddRef
FUNC 9aff0 68 0 IDirectFBSurface_GetPixelFormat
FUNC 9b058 68 0 IDirectFBSurface_GetColorSpace
FUNC 9b0c0 70 0 IDirectFBSurface_GetPosition
FUNC 9b130 70 0 IDirectFBSurface_GetSize
FUNC 9b1a0 80 0 IDirectFBSurface_GetVisibleRectangle
FUNC 9b220 50 0 IDirectFBSurface_GetCapabilities
FUNC 9b270 c 0 IDirectFBSurface_GetFramebufferOffset
FUNC 9b27c 90 0 IDirectFBSurface_GetPhysicalAddress
FUNC 9b30c a8 0 IDirectFBSurface_GetClip
FUNC 9b3b4 70 0 IDirectFBSurface_SetSrcBlendFunction
FUNC 9b424 70 0 IDirectFBSurface_SetDstBlendFunction
FUNC 9b494 164 0 IDirectFBSurface_SetPorterDuff
FUNC 9b5f8 c8 0 IDirectFBSurface_SetSrcColorKeyIndex
FUNC 9b6c0 e8 0 IDirectFBSurface_SetDstColorKeyIndex
FUNC 9b7a8 9c 0 IDirectFBSurface_SetFont
FUNC 9b844 7c 0 IDirectFBSurface_GetFont
FUNC 9b8c0 58 0 IDirectFBSurface_SetDrawingFlags
FUNC 9b918 58 0 IDirectFBSurface_SetBlittingFlags
FUNC 9b970 34 0 IDirectFBSurface_SetEncoding
FUNC 9b9a4 50 0 IDirectFBSurface_DisableAcceleration
FUNC 9b9f4 58 0 IDirectFBSurface_SetRenderOptions
FUNC 9ba4c 6c 0 IDirectFBSurface_GetStereoEye
FUNC 9bab8 a0 0 IDirectFBSurface_SetStereoEye
FUNC 9bb58 64 0 IDirectFBSurface_SetWriteMaskBits
FUNC 9bbbc 8c 0 IDirectFBSurface_SetSrcColorKeyExtended
FUNC 9bc48 8c 0 IDirectFBSurface_SetDstColorKeyExtended
FUNC 9bcd4 68 0 IDirectFBSurface_GetID
FUNC 9bd3c 1d0 0 IDirectFBSurface_MakeSubSurface
FUNC 9bf0c 1b4 0 IDirectFBSurface_listener
FUNC 9c0c0 84 0 IDirectFBSurface_SetFrameTimeConfig
FUNC 9c144 15c 0 IDirectFBSurface_GetFrameTime
FUNC 9c2a0 7c 0 IDirectFBSurface_FrameAck
FUNC 9c31c 54 0 IDirectFBSurface_MakeClient
FUNC 9c370 38 0 IDirectFBSurface_DetachEventBuffer
FUNC 9c3a8 5c 0 IDirectFBSurface_AttachEventBuffer
FUNC 9c404 cc 0 IDirectFBSurface_CreateEventBuffer
FUNC 9c4d0 6c 0 IDirectFBSurface_AllowAccess
FUNC 9c53c 54 0 IDirectFBSurface_SetSrcConvolution
FUNC 9c590 54 0 IDirectFBSurface_SetSrcColorMatrix
FUNC 9c5e4 31c 0 IDirectFBSurface_DrawMonoGlyphs
FUNC 9c900 124 0 IDirectFBSurface_SetRop
FUNC 9ca24 2b0 0 IDirectFBSurface_SetColors
FUNC 9ccd4 128 0 IDirectFBSurface_SetColor
FUNC 9cdfc d8 0 IDirectFBSurface_Read
FUNC 9ced4 e8 0 IDirectFBSurface_Write
FUNC 9cfbc e8 0 IDirectFBSurface_SetSourceMask
FUNC 9d0a4 54 0 IDirectFBSurface_SetMatrix
FUNC 9d0f8 6c 0 IDirectFBSurface_ReleaseSource
FUNC 9d164 12c 0 IDirectFBSurface_DumpRaw
FUNC 9d290 14c 0 IDirectFBSurface_Dump
FUNC 9d3dc 10c 0 IDirectFBSurface_GetGL
FUNC 9d4e8 2b0 0 IDirectFBSurface_FillTrapezoids
FUNC 9d798 2cc 0 IDirectFBSurface_FillTriangles
FUNC 9da64 f4 0 IDirectFBSurface_FillTriangle
FUNC 9db58 2b8 0 IDirectFBSurface_FillSpans
FUNC 9de10 378 0 IDirectFBSurface_FillRectangles
FUNC 9e188 e8 0 IDirectFBSurface_FillRectangle
FUNC 9e270 e8 0 IDirectFBSurface_DrawRectangle
FUNC 9e358 750 0 IDirectFBSurface_DrawLines
FUNC 9eaa8 168 0 IDirectFBSurface_DrawLine
FUNC 9ec10 b80 0 IDirectFBSurface_TextureTriangles
FUNC 9f790 4ac 0 IDirectFBSurface_BatchStretchBlit
FUNC 9fc3c 488 0 IDirectFBSurface_BatchBlit2
FUNC a00c4 53c 0 IDirectFBSurface_BatchBlit
FUNC a0600 2ac 0 IDirectFBSurface_TileBlit
FUNC a08ac 288 0 IDirectFBSurface_Blit
FUNC a0b34 b0 0 IDirectFBSurface_SetIndexTranslation
FUNC a0be4 cc 0 IDirectFBSurface_SetDstColorKey
FUNC a0cb0 b0 0 IDirectFBSurface_SetSrcColorKey
FUNC a0d60 144 0 IDirectFBSurface_SetColorIndex
FUNC a0ea4 180 0 IDirectFBSurface_SetClip
FUNC a1024 2c0 0 IDirectFBSurface_Clear
FUNC a12e4 80 0 IDirectFBSurface_SetField
FUNC a1364 70 0 IDirectFBSurface_Unlock
FUNC a13d4 138 0 IDirectFBSurface_Lock
FUNC a150c 64 0 IDirectFBSurface_SetAlphaRamp
FUNC a1570 a0 0 IDirectFBSurface_SetPalette
FUNC a1610 11c 0 IDirectFBSurface_GetPalette
FUNC a172c f8 0 IDirectFBSurface_GetAccelerationMask
FUNC a1824 440 0 IDirectFBSurface_BatchStretchBlit
FUNC a1c64 dc 0 IDirectFBSurface_StretchBlit
FUNC a1d40 418 0 IDirectFBSurface_DrawGlyph
FUNC a2158 430 0 IDirectFBSurface_DrawString
FUNC a2588 260 0 IDirectFBSurface_Destruct
FUNC a27e8 58 0 IDirectFBSurface_Release
FUNC a2840 9b8 0 IDirectFBSurface_Construct
FUNC a31f8 1e0 0 IDirectFBSurface_GetSubSurface
FUNC a33d8 cc 0 IDirectFBSurface_StopAll
FUNC a34a4 6c 0 IDirectFBSurface_WaitForBackBuffer
FUNC a3510 3c0 0 IDirectFBSurface_FlipStereo
FUNC a38d0 298 0 IDirectFBSurface_Flip
FUNC a3b68 3d8 0 IDirectFBSurface_Layer_FlipStereo
FUNC a3f40 6c 0 IDirectFBSurface_Layer_Release
FUNC a3fac 2a0 0 IDirectFBSurface_Layer_Flip
FUNC a424c 174 0 IDirectFBSurface_Layer_Construct
FUNC a43c0 1cc 0 IDirectFBSurface_Layer_GetSubSurface
FUNC a458c 430 0 IDirectFBSurface_Window_FlipStereo
FUNC a49bc 8c 0 IDirectFBSurface_Window_Release
FUNC a4a48 70 0 Flipping_Thread
FUNC a4ab8 2ec 0 IDirectFBSurface_Window_Flip
FUNC a4da4 1e4 0 IDirectFBSurface_Window_Construct
FUNC a4f88 1e4 0 IDirectFBSurface_Window_GetSubSurface
FUNC a516c 40 0 IDirectFBDisplayLayer_AddRef
FUNC a51ac 88 0 IDirectFBDisplayLayer_GetDescription
FUNC a5234 54 0 IDirectFBDisplayLayer_GetRotation
FUNC a5288 78 0 IDirectFBDisplayLayer_SetSurface
FUNC a5300 68 0 IDirectFBDisplayLayer_GetStereoDepth
FUNC a5368 78 0 IDirectFBDisplayLayer_SetStereoDepth
FUNC a53e0 f0 0 IDirectFBDisplayLayer_GetWindowByResourceID
FUNC a54d0 4c 0 IDirectFBDisplayLayer_SetRotation
FUNC a551c 98 0 IDirectFBDisplayLayer_SetScreenRectangle
FUNC a55b4 84 0 IDirectFBDisplayLayer_SetScreenPosition
FUNC a5638 a4 0 IDirectFBDisplayLayer_GetSourceDescriptions
FUNC a56dc 34 0 IDirectFBDisplayLayer_WaitForSync
FUNC a5710 8c 0 IDirectFBDisplayLayer_SetClipRegions
FUNC a579c 4c 0 IDirectFBDisplayLayer_SetFieldParity
FUNC a57e8 54 0 IDirectFBDisplayLayer_SetCursorOpacity
FUNC a583c a8 0 IDirectFBDisplayLayer_SetCursorShape
FUNC a58e4 9c 0 IDirectFBDisplayLayer_GetCursorPosition
FUNC a5980 5c 0 IDirectFBDisplayLayer_EnableCursor
FUNC a59dc 90 0 IDirectFBDisplayLayer_SetCursorAcceleration
FUNC a5a6c 6c 0 IDirectFBDisplayLayer_WarpCursor
FUNC a5ad8 e8 0 IDirectFBDisplayLayer_GetWindow
FUNC a5bc0 284 0 IDirectFBDisplayLayer_CreateWindow
FUNC a5e44 74 0 IDirectFBDisplayLayer_SetColorAdjustment
FUNC a5eb8 48 0 IDirectFBDisplayLayer_GetColorAdjustment
FUNC a5f00 b0 0 IDirectFBDisplayLayer_SetBackgroundImage
FUNC a5fb0 7c 0 IDirectFBDisplayLayer_SetBackgroundColor
FUNC a602c 68 0 IDirectFBDisplayLayer_SetBackgroundMode
FUNC a6094 90 0 IDirectFBDisplayLayer_SetConfiguration
FUNC a6124 7c 0 IDirectFBDisplayLayer_TestConfiguration
FUNC a61a0 48 0 IDirectFBDisplayLayer_GetConfiguration
FUNC a61e8 64 0 IDirectFBDisplayLayer_SetLevel
FUNC a624c 6c 0 IDirectFBDisplayLayer_GetLevel
FUNC a62b8 78 0 IDirectFBDisplayLayer_SetDstColorKey
FUNC a6330 78 0 IDirectFBDisplayLayer_SetSrcColorKey
FUNC a63a8 c0 0 IDirectFBDisplayLayer_SetScreenLocation
FUNC a6468 88 0 IDirectFBDisplayLayer_SetSourceRectangle
FUNC a64f0 34 0 IDirectFBDisplayLayer_GetCurrentOutputField
FUNC a6524 4c 0 IDirectFBDisplayLayer_SetOpacity
FUNC a6570 b8 0 IDirectFBDisplayLayer_GetScreen
FUNC a6628 64 0 IDirectFBDisplayLayer_GetID
FUNC a668c 1f8 0 IDirectFBDisplayLayer_GetSurface
FUNC a6884 98 0 IDirectFBDisplayLayer_Release
FUNC a691c 9c 0 IDirectFBDisplayLayer_SwitchContext
FUNC a69b8 14c 0 IDirectFBDisplayLayer_SetCooperativeLevel
FUNC a6b04 3c0 0 IDirectFBDisplayLayer_Construct
FUNC a6ec4 40 0 IDirectFBScreen_AddRef
FUNC a6f04 50 0 IDirectFBScreen_GetID
FUNC a6f54 7c 0 IDirectFBScreen_GetDescription
FUNC a6fd0 158 0 PatchEncoderConfig
FUNC a7128 84 0 IDirectFBScreen_GetOutputConfiguration
FUNC a71ac 100 0 IDirectFBScreen_SetOutputConfiguration
FUNC a72ac 108 0 IDirectFBScreen_TestOutputConfiguration
FUNC a73b4 a4 0 IDirectFBScreen_GetOutputDescriptions
FUNC a7458 84 0 IDirectFBScreen_GetEncoderConfiguration
FUNC a74dc d0 0 IDirectFBScreen_SetEncoderConfiguration
FUNC a75ac d8 0 IDirectFBScreen_TestEncoderConfiguration
FUNC a7684 a4 0 IDirectFBScreen_GetEncoderDescriptions
FUNC a7728 84 0 IDirectFBScreen_GetMixerConfiguration
FUNC a77ac f4 0 IDirectFBScreen_SetMixerConfiguration
FUNC a78a0 fc 0 IDirectFBScreen_TestMixerConfiguration
FUNC a799c a4 0 IDirectFBScreen_GetMixerDescriptions
FUNC a7a40 58 0 IDirectFBScreen_GetVSyncCount
FUNC a7a98 34 0 IDirectFBScreen_WaitForSync
FUNC a7acc 48 0 IDirectFBScreen_SetPowerMode
FUNC a7b14 7c 0 IDirectFBScreen_EnumDisplayLayers
FUNC a7b90 c4 0 EnumDisplayLayers_Callback
FUNC a7c54 80 0 IDirectFBScreen_GetSize
FUNC a7cd4 68 0 IDirectFBScreen_Release
FUNC a7d3c 1b0 0 IDirectFBScreen_Construct
FUNC a7eec 40 0 IDirectFBWindow_AddRef
FUNC a7f2c 68 0 IDirectFBWindow_GetID
FUNC a7f94 68 0 IDirectFBWindow_GetOptions
FUNC a7ffc 68 0 IDirectFBWindow_GetOpacity
FUNC a8064 150 0 CheckGeometry
FUNC a81b4 68 0 IDirectFBWindow_GetApplicationID
FUNC a821c 7c 0 IDirectFBWindow_GetStereoDepth
FUNC a8298 e8 0 IDirectFBWindow_SetGeometry
FUNC a8380 98 0 IDirectFBWindow_SetStereoDepth
FUNC a8418 88 0 IDirectFBWindow_SetCursorResolution
FUNC a84a0 9c 0 IDirectFBWindow_SetCursorFlags
FUNC a853c 74 0 IDirectFBWindow_SetApplicationID
FUNC a85b0 74 0 IDirectFBWindow_SetAssociation
FUNC a8624 b4 0 IDirectFBWindow_SetDstGeometry
FUNC a86d8 b4 0 IDirectFBWindow_SetSrcGeometry
FUNC a878c 4c 0 IDirectFBWindow_SetCursorPosition
FUNC a87d8 84 0 IDirectFBWindow_SendEvent
FUNC a885c 4c 0 IDirectFBWindow_BeginUpdates
FUNC a88a8 58 0 IDirectFBWindow_SetRotation
FUNC a8900 50 0 IDirectFBWindow_UngrabUnselectedKeys
FUNC a8950 54 0 IDirectFBWindow_GrabUnselectedKeys
FUNC a89a4 50 0 IDirectFBWindow_UngrabPointer
FUNC a89f4 54 0 IDirectFBWindow_GrabPointer
FUNC a8a48 50 0 IDirectFBWindow_UngrabKeyboard
FUNC a8a98 50 0 IDirectFBWindow_GrabKeyboard
FUNC a8ae8 80 0 IDirectFBWindow_SetKeySelection
FUNC a8b68 70 0 IDirectFBWindow_Unbind
FUNC a8bd8 70 0 IDirectFBWindow_Bind
FUNC a8c48 d0 0 IDirectFBWindow_ResizeSurface
FUNC a8d18 70 0 IDirectFBWindow_SetBounds
FUNC a8d88 58 0 IDirectFBWindow_Destroy
FUNC a8de0 6c 0 IDirectFBWindow_Close
FUNC a8e4c 84 0 IDirectFBWindow_PutBelow
FUNC a8ed0 84 0 IDirectFBWindow_PutAtop
FUNC a8f54 50 0 IDirectFBWindow_LowerToBottom
FUNC a8fa4 50 0 IDirectFBWindow_RaiseToTop
FUNC a8ff4 54 0 IDirectFBWindow_Lower
FUNC a9048 54 0 IDirectFBWindow_Raise
FUNC a909c 60 0 IDirectFBWindow_SetStackingClass
FUNC a90fc 94 0 IDirectFBWindow_Resize
FUNC a9190 4c 0 IDirectFBWindow_MoveTo
FUNC a91dc 6c 0 IDirectFBWindow_Move
FUNC a9248 4c 0 IDirectFBWindow_UngrabKey
FUNC a9294 4c 0 IDirectFBWindow_GrabKey
FUNC a92e0 84 0 IDirectFBWindow_RequestFocus
FUNC a9364 128 0 IDirectFBWindow_SetCursorShape
FUNC a948c 4c 0 IDirectFBWindow_SetOpacity
FUNC a94d8 88 0 IDirectFBWindow_SetOpaqueRegion
FUNC a9560 64 0 IDirectFBWindow_SetColorKeyIndex
FUNC a95c4 c4 0 IDirectFBWindow_SetColorKey
FUNC a9688 78 0 IDirectFBWindow_SetColor
FUNC a9700 84 0 IDirectFBWindow_SetOptions
FUNC a9784 a4 0 IDirectFBWindow_RemoveProperty
FUNC a9828 ac 0 IDirectFBWindow_GetProperty
FUNC a98d4 ac 0 IDirectFBWindow_SetProperty
FUNC a9980 144 0 IDirectFBWindow_GetSurface
FUNC a9ac4 d0 0 IDirectFBWindow_GetSize
FUNC a9b94 bc 0 IDirectFBWindow_GetPosition
FUNC a9c50 6c 0 IDirectFBWindow_DisableEvents
FUNC a9cbc 70 0 IDirectFBWindow_EnableEvents
FUNC a9d2c 38 0 IDirectFBWindow_DetachEventBuffer
FUNC a9d64 64 0 IDirectFBWindow_AttachEventBuffer
FUNC a9dc8 d0 0 IDirectFBWindow_CreateEventBuffer
FUNC a9e98 100 0 IDirectFBWindow_Release
FUNC a9f98 50 0 IDirectFBWindow_React
FUNC a9fe8 47c 0 IDirectFBWindow_Construct
FUNC aa464 34 0 IDirectFBDataBuffer_Client_PutData
FUNC aa498 34 0 IDirectFBDataBuffer_Client_HasData
FUNC aa4cc 7c 0 IDirectFBDataBuffer_Client_PeekData
FUNC aa548 6c 0 IDirectFBDataBuffer_Client_GetData
FUNC aa5b4 60 0 IDirectFBDataBuffer_Client_WaitForDataWithTimeout
FUNC aa614 3c 0 IDirectFBDataBuffer_Client_WaitForData
FUNC aa650 6c 0 IDirectFBDataBuffer_Client_GetLength
FUNC aa6bc 6c 0 IDirectFBDataBuffer_Client_GetPosition
FUNC aa728 3c 0 IDirectFBDataBuffer_Client_SeekTo
FUNC aa764 34 0 IDirectFBDataBuffer_Client_Finish
FUNC aa798 34 0 IDirectFBDataBuffer_Client_Flush
FUNC aa7cc 58 0 IDirectFBDataBuffer_Client_Release
FUNC aa824 218 0 IDirectFBDataBuffer_Client_Construct
FUNC aaa3c 40 0 IDirectFBFont_AddRef
FUNC aaa7c 54 0 IDirectFBFont_GetAscender
FUNC aaad0 54 0 IDirectFBFont_GetDescender
FUNC aab24 54 0 IDirectFBFont_GetHeight
FUNC aab78 b4 0 IDirectFBFont_GetLineSpacingVector
FUNC aac2c 54 0 IDirectFBFont_GetMaxAdvance
FUNC aac80 50 0 IDirectFBFont_SetEncoding
FUNC aacd0 c8 0 IDirectFBFont_EnumEncodings
FUNC aad98 60 0 IDirectFBFont_GetUnderline
FUNC aadf8 7c 0 IDirectFBFont_GetDescription
FUNC aae74 34 0 IDirectFBFont_Dispose
FUNC aaea8 1d4 0 IDirectFBFont_FindEncoding
FUNC ab07c 418 0 IDirectFBFont_GetStringExtents
FUNC ab494 180 0 IDirectFBFont_GetGlyphExtentsXY
FUNC ab614 118 0 IDirectFBFont_GetGlyphExtents
FUNC ab72c 4c4 0 IDirectFBFont_GetStringBreak
FUNC abbf0 120 0 IDirectFBFont_GetKerning
FUNC abd10 234 0 IDirectFBFont_GetStringWidth
FUNC abf44 ec 0 IDirectFBFont_Destruct
FUNC ac030 58 0 IDirectFBFont_Release
FUNC ac088 16c 0 IDirectFBFont_Construct
FUNC ac1f4 548 0 IDirectFBFont_CreateFromBuffer
FUNC ac73c 40 0 IDirectFBImageProvider_AddRef
FUNC ac77c 20 0 IDirectFBImageProvider_GetSurfaceDescription
FUNC ac79c 20 0 IDirectFBImageProvider_GetImageDescription
FUNC ac7bc c 0 IDirectFBImageProvider_RenderTo
FUNC ac7c8 38 0 IDirectFBImageProvider_SetRenderCallback
FUNC ac800 c 0 IDirectFBImageProvider_SetRenderFlags
FUNC ac80c c 0 IDirectFBImageProvider_WriteBack
FUNC ac818 a0 0 IDirectFBImageProvider_Release
FUNC ac8b8 298 0 IDirectFBImageProvider_CreateFromBuffer
FUNC acb50 40 0 IDirectFBImageProvider_Client_AddRef
FUNC acb90 c 0 IDirectFBImageProvider_Client_WriteBack
FUNC acb9c a4 0 IDirectFBImageProvider_Client_SetRenderCallback
FUNC acc40 4c 0 IDirectFBImageProvider_Client_RenderTo
FUNC acc8c 34 0 IDirectFBImageProvider_Client_GetImageDescription
FUNC accc0 34 0 IDirectFBImageProvider_Client_GetSurfaceDescription
FUNC accf4 98 0 IDirectFBImageProvider_Client_Release
FUNC acd8c 148 0 IDirectFBImageProvider_Client_Construct
FUNC aced4 c 0 IDirectFBVideoProvider_AddRef
FUNC acee0 c 0 IDirectFBVideoProvider_Release
FUNC aceec 20 0 IDirectFBVideoProvider_GetCapabilities
FUNC acf0c 20 0 IDirectFBVideoProvider_GetSurfaceDescription
FUNC acf2c 1c 0 IDirectFBVideoProvider_SetBufferThresholds
FUNC acf48 c 0 IDirectFBVideoProvider_PlayTo
FUNC acf54 c 0 IDirectFBVideoProvider_SetDestination
FUNC acf60 c 0 IDirectFBVideoProvider_Stop
FUNC acf6c 20 0 IDirectFBVideoProvider_GetStatus
FUNC acf8c c 0 IDirectFBVideoProvider_SeekTo
FUNC acf98 2c 0 IDirectFBVideoProvider_GetPos
FUNC acfc4 2c 0 IDirectFBVideoProvider_GetLength
FUNC acff0 c 0 IDirectFBVideoProvider_GetColorAdjustment
FUNC acffc c 0 IDirectFBVideoProvider_SetColorAdjustment
FUNC ad008 c 0 IDirectFBVideoProvider_SendEvent
FUNC ad014 c 0 IDirectFBVideoProvider_SetPlaybackFlags
FUNC ad020 c 0 IDirectFBVideoProvider_SetSpeed
FUNC ad02c c 0 IDirectFBVideoProvider_GetSpeed
FUNC ad038 c 0 IDirectFBVideoProvider_SetVolume
FUNC ad044 c 0 IDirectFBVideoProvider_GetVolume
FUNC ad050 1c 0 IDirectFBVideoProvider_SetStreamAttributes
FUNC ad06c c 0 IDirectFBVideoProvider_SetAudioOutputs
FUNC ad078 c 0 IDirectFBVideoProvider_GetAudioOutputs
FUNC ad084 c 0 IDirectFBVideoProvider_SetAudioDelay
FUNC ad090 c 0 IDirectFBVideoProvider_CreateEventBuffer
FUNC ad09c c 0 IDirectFBVideoProvider_AttachEventBuffer
FUNC ad0a8 c 0 IDirectFBVideoProvider_EnableEvents
FUNC ad0b4 c 0 IDirectFBVideoProvider_DisableEvents
FUNC ad0c0 c 0 IDirectFBVideoProvider_DetachEventBuffer
FUNC ad0cc 50 0 IDirectFBVideoProvider_GetBufferThresholds
FUNC ad11c 50 0 IDirectFBVideoProvider_GetBufferOccupancy
FUNC ad16c 34 0 IDirectFBVideoProvider_GetStreamDescription
FUNC ad1a0 344 0 IDirectFBVideoProvider_CreateFromBuffer
FUNC ad4e4 b4 0 DirectFB::IDataBuffer_Requestor::Flush()
FUNC ad598 160 0 DirectFB::IDataBuffer_Requestor::PutData(unsigned char const*, unsigned int)
FUNC ad6f8 b8 0 DirectFB::IDataBuffer_Requestor::HasData()
FUNC ad7b0 17c 0 DirectFB::IDataBuffer_Requestor::PeekData(unsigned int, long long, unsigned char*, unsigned int*)
FUNC ad92c 174 0 DirectFB::IDataBuffer_Requestor::GetData(unsigned int, unsigned char*, unsigned int*)
FUNC adaa0 cc 0 DirectFB::IDataBuffer_Requestor::WaitForDataWithTimeout(unsigned long long, unsigned long long)
FUNC adb6c c0 0 DirectFB::IDataBuffer_Requestor::WaitForData(unsigned long long)
FUNC adc2c cc 0 DirectFB::IDataBuffer_Requestor::GetLength(unsigned long long*)
FUNC adcf8 cc 0 DirectFB::IDataBuffer_Requestor::GetPosition(unsigned long long*)
FUNC addc4 c0 0 DirectFB::IDataBuffer_Requestor::SeekTo(unsigned long long)
FUNC ade84 b8 0 DirectFB::IDataBuffer_Requestor::Finish()
FUNC adf3c 50 0 DataBuffer_Flush
FUNC adf8c 50 0 DataBuffer_Finish
FUNC adfdc 50 0 DataBuffer_SeekTo
FUNC ae02c 50 0 DataBuffer_GetPosition
FUNC ae07c 50 0 DataBuffer_GetLength
FUNC ae0cc 50 0 DataBuffer_WaitForData
FUNC ae11c 58 0 DataBuffer_WaitForDataWithTimeout
FUNC ae174 50 0 DataBuffer_GetData
FUNC ae1c4 60 0 DataBuffer_PeekData
FUNC ae224 50 0 DataBuffer_HasData
FUNC ae274 50 0 DataBuffer_PutData
FUNC ae2c4 20 0 DataBuffer_Init_Dispatch
FUNC ae2e4 4 0 DataBuffer_Deinit_Dispatch
FUNC ae2e8 220 0 DirectFB::DataBufferDispatch__Dispatch(_IDirectFBDataBuffer*, unsigned long, int, void*, unsigned int, void*, unsigned int, unsigned int*)
FUNC ae508 50 0 DataBuffer_Dispatch
FUNC ae558 14 0 DirectFB::IDataBuffer_Real::Flush()
FUNC ae56c 14 0 DirectFB::IDataBuffer_Real::Finish()
FUNC ae580 18 0 DirectFB::IDataBuffer_Real::SeekTo(unsigned long long)
FUNC ae598 34 0 DirectFB::IDataBuffer_Real::GetPosition(unsigned long long*)
FUNC ae5cc 34 0 DirectFB::IDataBuffer_Real::GetLength(unsigned long long*)
FUNC ae600 18 0 DirectFB::IDataBuffer_Real::WaitForData(unsigned long long)
FUNC ae618 58 0 DirectFB::IDataBuffer_Real::WaitForDataWithTimeout(unsigned long long, unsigned long long)
FUNC ae670 14 0 DirectFB::IDataBuffer_Real::GetData(unsigned int, unsigned char*, unsigned int*)
FUNC ae684 2c 0 DirectFB::IDataBuffer_Real::PeekData(unsigned int, long long, unsigned char*, unsigned int*)
FUNC ae6b0 14 0 DirectFB::IDataBuffer_Real::HasData()
FUNC ae6c4 14 0 DirectFB::IDataBuffer_Real::PutData(unsigned char const*, unsigned int)
FUNC ae6d8 b4 0 DirectFB::IImageProvider_Requestor::Dispose()
FUNC ae78c e4 0 DirectFB::IImageProvider_Requestor::RenderTo(__DFB_CoreSurface*, DFBRectangle const*)
FUNC ae870 d0 0 DirectFB::IImageProvider_Requestor::GetImageDescription(DFBImageDescription*)
FUNC ae940 f4 0 DirectFB::IImageProvider_Requestor::GetSurfaceDescription(DFBSurfaceDescription*)
FUNC aea34 50 0 ImageProvider_Dispose
FUNC aea84 50 0 ImageProvider_GetSurfaceDescription
FUNC aead4 50 0 ImageProvider_GetImageDescription
FUNC aeb24 50 0 ImageProvider_RenderTo
FUNC aeb74 20 0 ImageProvider_Init_Dispatch
FUNC aeb94 4 0 ImageProvider_Deinit_Dispatch
FUNC aeb98 1c4 0 DirectFB::ImageProviderDispatch__Dispatch(ImageProviderDispatch*, unsigned long, int, void*, unsigned int, void*, unsigned int, unsigned int*)
FUNC aed5c 50 0 ImageProvider_Dispatch
FUNC aedac 18 0 DirectFB::IImageProvider_Real::GetSurfaceDescription(DFBSurfaceDescription*)
FUNC aedc4 18 0 DirectFB::IImageProvider_Real::GetImageDescription(DFBImageDescription*)
FUNC aeddc f4 0 DirectFB::IImageProvider_Real::RenderTo(__DFB_CoreSurface*, DFBRectangle const*)
FUNC aeed0 24 0 ImageProviderDispatch_destruct
FUNC aeef4 f4 0 ImageProviderDispatch_Create
FUNC aefe8 84 0 ImageProviderDispatch_Destroy
FUNC af06c 24 0 DirectFB::IImageProvider_Real::Dispose()
FUNC af090 4 0 ImageProviderDispatch_cleanup
FUNC af094 40 0 IDirectFBDataBuffer_AddRef
FUNC af0d4 c 0 IDirectFBDataBuffer_Flush
FUNC af0e0 c 0 IDirectFBDataBuffer_Finish
FUNC af0ec c 0 IDirectFBDataBuffer_SeekTo
FUNC af0f8 c 0 IDirectFBDataBuffer_GetPosition
FUNC af104 c 0 IDirectFBDataBuffer_GetLength
FUNC af110 c 0 IDirectFBDataBuffer_WaitForData
FUNC af11c c 0 IDirectFBDataBuffer_WaitForDataWithTimeout
FUNC af128 c 0 IDirectFBDataBuffer_GetData
FUNC af134 c 0 IDirectFBDataBuffer_PeekData
FUNC af140 c 0 IDirectFBDataBuffer_HasData
FUNC af14c c 0 IDirectFBDataBuffer_PutData
FUNC af158 64 0 IDirectFBDataBuffer_CreateFont
FUNC af1bc 4c 0 IDirectFBDataBuffer_CreateVideoProvider
FUNC af208 50 0 IDirectFBDataBuffer_CreateImageProvider
FUNC af258 90 0 IDirectFBDataBuffer_Destruct
FUNC af2e8 58 0 IDirectFBDataBuffer_Release
FUNC af340 1b0 0 IDirectFBDataBuffer_Construct
FUNC af4f0 c 0 IDirectFBDataBuffer_File_Flush
FUNC af4fc c 0 IDirectFBDataBuffer_File_Finish
FUNC af508 c 0 IDirectFBDataBuffer_File_PutData
FUNC af514 58 0 IDirectFBDataBuffer_File_HasData
FUNC af56c 98 0 IDirectFBDataBuffer_File_PeekData
FUNC af604 68 0 IDirectFBDataBuffer_File_WaitForData
FUNC af66c 8c 0 IDirectFBDataBuffer_File_GetData
FUNC af6f8 13c 0 IDirectFBDataBuffer_File_WaitForDataWithTimeout
FUNC af834 64 0 IDirectFBDataBuffer_File_GetLength
FUNC af898 64 0 IDirectFBDataBuffer_File_GetPosition
FUNC af8fc 84 0 IDirectFBDataBuffer_File_SeekTo
FUNC af980 6c 0 IDirectFBDataBuffer_File_Release
FUNC af9ec 170 0 IDirectFBDataBuffer_File_Construct
FUNC afb5c c 0 IDirectFBDataBuffer_Memory_Flush
FUNC afb68 c 0 IDirectFBDataBuffer_Memory_Finish
FUNC afb74 4c 0 IDirectFBDataBuffer_Memory_SeekTo
FUNC afbc0 50 0 IDirectFBDataBuffer_Memory_GetPosition
FUNC afc10 50 0 IDirectFBDataBuffer_Memory_GetLength
FUNC afc60 50 0 IDirectFBDataBuffer_Memory_WaitForData
FUNC afcb0 50 0 IDirectFBDataBuffer_Memory_WaitForDataWithTimeout
FUNC afd00 d0 0 IDirectFBDataBuffer_Memory_GetData
FUNC afdd0 cc 0 IDirectFBDataBuffer_Memory_PeekData
FUNC afe9c 4c 0 IDirectFBDataBuffer_Memory_HasData
FUNC afee8 c 0 IDirectFBDataBuffer_Memory_PutData
FUNC afef4 58 0 IDirectFBDataBuffer_Memory_Release
FUNC aff4c 134 0 IDirectFBDataBuffer_Memory_Construct
FUNC b0080 c 0 IDirectFBDataBuffer_Streamed_SeekTo
FUNC b008c c 0 IDirectFBDataBuffer_Streamed_GetPosition
FUNC b0098 50 0 IDirectFBDataBuffer_Streamed_GetLength
FUNC b00e8 64 0 IDirectFBDataBuffer_Streamed_HasData
FUNC b014c 88 0 IDirectFBDataBuffer_Streamed_Flush
FUNC b01d4 14c 0 IDirectFBDataBuffer_Streamed_PutData
FUNC b0320 17c 0 IDirectFBDataBuffer_Streamed_WaitForDataWithTimeout
FUNC b049c c4 0 IDirectFBDataBuffer_Streamed_WaitForData
FUNC b0560 84 0 IDirectFBDataBuffer_Streamed_Release
FUNC b05e4 164 0 ReadChunkData
FUNC b0748 fc 0 IDirectFBDataBuffer_Streamed_PeekData
FUNC b0844 f4 0 IDirectFBDataBuffer_Streamed_GetData
FUNC b0938 94 0 IDirectFBDataBuffer_Streamed_Finish
FUNC b09cc 154 0 IDirectFBDataBuffer_Streamed_Construct
FUNC b0b20 40 0 IDirectFBInputDevice_AddRef
FUNC b0b60 5c 0 IDirectFBInputDevice_GetDescription
FUNC b0bbc 64 0 IDirectFBInputDevice_GetKeyState
FUNC b0c20 68 0 IDirectFBInputDevice_GetAxis
FUNC b0c88 70 0 IDirectFBInputDevice_GetXY
FUNC b0cf8 c0 0 IDirectFBInputDevice_React
FUNC b0db8 34 0 IDirectFBInputDevice_SetConfiguration
FUNC b0dec 94 0 IDirectFBInputDevice_GetButtonState
FUNC b0e80 6c 0 IDirectFBInputDevice_GetButtons
FUNC b0eec 6c 0 IDirectFBInputDevice_GetLockState
FUNC b0f58 70 0 IDirectFBInputDevice_GetModifiers
FUNC b0fc8 38 0 IDirectFBInputDevice_DetachEventBuffer
FUNC b1000 38 0 IDirectFBInputDevice_AttachEventBuffer
FUNC b1038 ac 0 IDirectFBInputDevice_CreateEventBuffer
FUNC b10e4 48 0 IDirectFBInputDevice_LoadKeymap
FUNC b112c 8c 0 IDirectFBInputDevice_SetKeymapEntry
FUNC b11b8 8c 0 IDirectFBInputDevice_GetKeymapEntry
FUNC b1244 64 0 IDirectFBInputDevice_GetID
FUNC b12a8 84 0 IDirectFBInputDevice_Release
FUNC b132c 18c 0 IDirectFBInputDevice_Construct
FUNC b14b8 40 0 IDirectFBEventBuffer_AddRef
FUNC b14f8 60 0 IDirectFBEventBuffer_HasEvent
FUNC b1558 94 0 IDirectFBEventBuffer_GetStatistics
FUNC b15ec 9c 0 IDirectFBEventBuffer_Reset
FUNC b1688 1b0 0 IDirectFBEventBuffer_PeekEvent
FUNC b1838 150 0 IDirectFBEventBuffer_CreateFileDescriptor
FUNC b1988 b0 0 IDirectFBEventBuffer_WaitForEvent
FUNC b1a38 16c 0 IDirectFBEventBuffer_WaitForEventWithTimeout
FUNC b1ba4 548 0 CollectEventStatistics
FUNC b20ec 218 0 IDirectFBEventBuffer_GetEvent
FUNC b2304 c8 0 IDirectFBEventBuffer_EnableStatistics
FUNC b23cc 188 0 IDirectFBEventBuffer_Feed
FUNC b2554 c4 0 IDirectFBEventBuffer_AddItem
FUNC b2618 d4 0 IDirectFBEventBuffer_SurfaceReact
FUNC b26ec 7c 0 IDirectFBEventBuffer_InputReact
FUNC b2768 218 0 IDirectFBEventBuffer_PostEvent
FUNC b2980 f0 0 IDirectFBEventBuffer_WindowReact
FUNC b2a70 6c 0 IDirectFBEventBuffer_WakeUp
FUNC b2adc 2a4 0 IDirectFBEventBuffer_Release
FUNC b2d80 150 0 IDirectFBEventBuffer_Construct
FUNC b2ed0 bc 0 IDirectFBEventBuffer_AttachInputDevice
FUNC b2f8c c4 0 IDirectFBEventBuffer_DetachInputDevice
FUNC b3050 ac 0 IDirectFBEventBuffer_AttachWindow
FUNC b30fc e8 0 IDirectFBEventBuffer_DetachWindow
FUNC b31e4 188 0 IDirectFBEventBuffer_AttachSurface
FUNC b336c e8 0 IDirectFBEventBuffer_DetachSurface
FUNC b3454 330 0 scale_pixel
FUNC b3784 b44 0 bilinear_make_fast_weights
FUNC b42c8 3710 0 write_argb_span
FUNC b79d8 884 0 dfb_copy_buffer_32
FUNC b825c ecc 0 dfb_scale_linear_32
FUNC b9128 58c 0 config_allocate
FUNC b96b4 b8 0 print_config_usage
FUNC b976c 6c 0 config_values_free
FUNC b97d8 108 0 config_values_parse
FUNC b98e0 a4 0 dfb_config_parse_pixelformat
FUNC b9984 10 0 dfb_config_usage
FUNC b9994 328 0 dfb_config_read
FUNC b9cbc 5618 0 dfb_config_set
FUNC bf2d4 1c0 0 parse_args
FUNC bf494 954 0 dfb_config_init
FUNC bfde8 8c 0 dfb_region_rectangle_intersect
FUNC bfe74 94 0 dfb_unsafe_region_intersect
FUNC bff08 2c 0 dfb_unsafe_region_rectangle_intersect
FUNC bff34 e4 0 dfb_rectangle_intersect_by_unsafe_region
FUNC c0018 b4 0 dfb_rectangle_intersect_by_region
FUNC c00cc bc 0 dfb_rectangle_intersect
FUNC c0188 c4 0 dfb_rectangle_union
FUNC c024c 20 0 dfb_updates_init
FUNC c026c 880 0 dfb_updates_add
FUNC c0aec 214 0 dfb_updates_stat
FUNC c0d00 268 0 dfb_updates_get_rectangles
FUNC c0f68 58 0 dfb_pixelformat_name
FUNC c0fc0 54 0 dfb_colorspace_name
FUNC c1014 28 0 dfb_pixelformat_for_depth
FUNC c103c 498 0 dfb_clip_line
FUNC c14d4 cc 0 dfb_clip_edges
FUNC c15a0 bc 0 dfb_clip_rectangle
FUNC c165c b8 0 dfb_clip_triangle_precheck
FUNC c1714 674 0 dfb_clip_triangle
FUNC c1d88 154 0 dfb_build_clipped_rectangle_outlines
FUNC c1edc f8 0 dfb_clip_blit
FUNC c1fd4 160 0 dfb_clip_stretchblit
FUNC c2134 260 0 dfb_clip_blit_flipped_rotated
FUNC c2394 298 0 back_to_front_copy
FUNC c262c e4 0 dfb_gfx_init_tls
FUNC c2710 27c 0 dfb_gfx_copy_stereo
FUNC c298c 38 0 dfb_gfx_copy_to
FUNC c29c4 44 0 dfb_gfx_copy
FUNC c2a08 1e0 0 dfb_gfx_clear
FUNC c2be8 26c 0 dfb_gfx_stretch_stereo
FUNC c2e54 30 0 dfb_gfx_stretch_to
FUNC c2e84 4b0 0 dfb_gfx_copy_regions_stereo
FUNC c3334 4c 0 dfb_gfx_copy_regions
FUNC c3380 518 0 dfb_gfx_copy_regions_client
FUNC c3898 10 0 dfb_back_to_front_copy
FUNC c38a8 14 0 dfb_back_to_front_copy_rotation
FUNC c38bc 54 0 dfb_back_to_front_copy_stereo
FUNC c3910 4 0 dfb_clear_depth
FUNC c3914 88 0 dfb_sort_triangle
FUNC c399c 44 0 dfb_sort_trapezoid
FUNC c39e0 1b4 0 dfb_gfx_cleanup
FUNC c3b94 b0 0 _GLOBAL__I_util.cpp
FUNC c3c44 28 0 Direct::TLSObject2<StateClient, StateClient, StateClient>::destructor(void*)
FUNC c3c6c 2c 0 std::_List_base<StateClient*, std::allocator<StateClient*> >::_M_clear()
FUNC c3c98 7c 0 Direct::TLSObject2<StateClient, StateClient, StateClient>::~TLSObject2
FUNC c3d14 3e8 0 dfb_pixel_to_color
FUNC c40fc 964 0 dfb_pixel_from_color
FUNC c4a60 3cc 0 dfb_pixel_to_components
FUNC c4e2c 1afc 0 dfb_convert_to_rgb16
FUNC c6928 1934 0 dfb_convert_to_rgb555
FUNC c825c 1ba4 0 dfb_convert_to_rgb32
FUNC c9e00 217c 0 dfb_convert_to_argb
FUNC cbf7c 2efc 0 dfb_convert_to_rgb24
FUNC cee78 d68 0 dfb_convert_to_a8
FUNC cfbe0 cd0 0 dfb_convert_to_a4
FUNC d08b0 200 0 dfb_convert_to_yuy2
FUNC d0ab0 200 0 dfb_convert_to_uyvy
FUNC d0cb0 1c 0 DirectFB::GenefxTask::TypeName() const
FUNC d0ccc 30 0 DirectFB::GenefxTask::Finalise()
FUNC d0cfc 5c 0 DirectFB::GenefxTask::Push()
FUNC d0d58 50 0 DirectFB::GenefxTask::Setup()
FUNC d0da8 58 0 DirectFB::GenefxTask::Describe(Direct::StringBase<char>&) const
FUNC d0e00 1d8 0 DirectFB::register_genefx
FUNC d0fd8 1b78 0 DirectFB::GenefxTask::Run()
FUNC d2b50 64 0 _GLOBAL__I_GenefxEngine.cpp
FUNC d2bb4 40 0 DirectFB::GenefxEngine::check(DirectFB::Renderer::Setup*)
FUNC d2bf4 5c 0 DirectFB::GenefxEngine::CheckState(_CardState*, DFBAccelerationMask)
FUNC d2c50 fc 0 DirectFB::GenefxEngine::bind(DirectFB::Renderer::Setup*)
FUNC d2d4c d8 0 DirectFB::GenefxEngine::~GenefxEngine
FUNC d2e24 d0 0 DirectFB::GenefxEngine::~GenefxEngine
FUNC d2ef4 d4 0 DirectFB::GenefxTask::~GenefxTask
FUNC d2fc8 dc 0 DirectFB::GenefxTask::~GenefxTask
FUNC d30a4 2c 0 DirectFB::Util::TempArray<GenefxVertexAffine>::~TempArray
FUNC d30d0 150 0 std::vector<DirectFB::Util::HeapBuffer*, std::allocator<DirectFB::Util::HeapBuffer*> >::_M_insert_aux(__gnu_cxx::__normal_iterator<DirectFB::Util::HeapBuffer**, std::vector<DirectFB::Util::HeapBuffer*, std::allocator<DirectFB::Util::HeapBuffer*> > >, DirectFB::Util::HeapBuffer* const&)
FUNC d3220 cc 0 DirectFB::Util::PacketBuffer<DirectFB::Util::HeapBuffer>::GetBuffer(unsigned int)
FUNC d32ec 108 0 DirectFB::GenefxEngine::TextureTriangles(DirectFB::SurfaceTask*, DFBVertex1616 const*, unsigned int&, DFBTriangleFormation)
FUNC d33f4 1bc 0 DirectFB::GenefxEngine::StretchBlit(DirectFB::SurfaceTask*, DFBRectangle const*, DFBRectangle const*, unsigned int&)
FUNC d35b0 1d4 0 DirectFB::GenefxEngine::Blit(DirectFB::SurfaceTask*, DFBRectangle const*, DFBPoint const*, unsigned int&)
FUNC d3784 138 0 DirectFB::GenefxEngine::FillRectangles(DirectFB::SurfaceTask*, DFBRectangle const*, unsigned int&)
FUNC d38bc 144 0 DirectFB::GenefxEngine::DrawLines(DirectFB::SurfaceTask*, DFBRegion const*, unsigned int&)
FUNC d3a00 168 0 DirectFB::GenefxEngine::DrawRectangles(DirectFB::SurfaceTask*, DFBRectangle const*, unsigned int&)
FUNC d3b68 5b0 0 DirectFB::GenefxEngine::SetState(DirectFB::SurfaceTask*, _CardState*, StateModificationFlags, DFBAccelerationMask)
FUNC d4118 f4 0 Cop_toK_Aop_16
FUNC d420c 41c 0 Bop_16_Kto_Aop
FUNC d4628 504 0 Bop_16_toK_Aop
FUNC d4b2c 16c 0 Bop_16_KtoK_Aop
FUNC d4c98 134 0 Bop_16_SKto_Aop
FUNC d4dcc 13c 0 Bop_16_StoK_Aop
FUNC d4f08 194 0 Bop_16_SKtoK_Aop
FUNC d509c 114 0 Cop_toK_Aop_15
FUNC d51b0 4a8 0 Bop_15_Kto_Aop
FUNC d5658 5a8 0 Bop_15_toK_Aop
FUNC d5c00 1a4 0 Bop_15_KtoK_Aop
FUNC d5da4 150 0 Bop_15_SKto_Aop
FUNC d5ef4 158 0 Bop_15_StoK_Aop
FUNC d604c 1cc 0 Bop_15_SKtoK_Aop
FUNC d6218 114 0 Cop_toK_Aop_14
FUNC d632c 4a8 0 Bop_14_Kto_Aop
FUNC d67d4 5a8 0 Bop_14_toK_Aop
FUNC d6d7c 1a4 0 Bop_14_KtoK_Aop
FUNC d6f20 150 0 Bop_14_SKto_Aop
FUNC d7070 158 0 Bop_14_StoK_Aop
FUNC d71c8 1cc 0 Bop_14_SKtoK_Aop
FUNC d7394 114 0 Cop_toK_Aop_12
FUNC d74a8 4a8 0 Bop_12_Kto_Aop
FUNC d7950 5a8 0 Bop_12_toK_Aop
FUNC d7ef8 1a4 0 Bop_12_KtoK_Aop
FUNC d809c 150 0 Bop_12_SKto_Aop
FUNC d81ec 158 0 Bop_12_StoK_Aop
FUNC d8344 1cc 0 Bop_12_SKtoK_Aop
FUNC d8510 134 0 Cop_toK_Aop_12vv
FUNC d8644 4b8 0 Bop_12vv_Kto_Aop
FUNC d8afc 5d0 0 Bop_12vv_toK_Aop
FUNC d90cc 1e0 0 Bop_12vv_KtoK_Aop
FUNC d92ac 170 0 Bop_12vv_SKto_Aop
FUNC d941c 178 0 Bop_12vv_StoK_Aop
FUNC d9594 208 0 Bop_12vv_SKtoK_Aop
FUNC d979c 1ec 0 Cop_toK_Aop_24_24
FUNC d9988 200 0 Bop_24_24_Kto_Aop
FUNC d9b88 254 0 Bop_24_24_toK_Aop
FUNC d9ddc 164 0 Bop_24_24_KtoK_Aop
FUNC d9f40 18c 0 Bop_24_24_SKto_Aop
FUNC da0cc 2c0 0 Bop_24_24_StoK_Aop
FUNC da38c 1e4 0 Bop_24_24_SKtoK_Aop
FUNC da570 18c 0 Cop_toK_Aop_24_16
FUNC da6fc 1ac 0 Bop_24_16_Kto_Aop
FUNC da8a8 200 0 Bop_24_16_toK_Aop
FUNC daaa8 11c 0 Bop_24_16_KtoK_Aop
FUNC dabc4 15c 0 Bop_24_16_SKto_Aop
FUNC dad20 26c 0 Bop_24_16_StoK_Aop
FUNC daf8c 18c 0 Bop_24_16_SKtoK_Aop
FUNC db118 20c 0 Cop_toK_Aop_24_18
FUNC db324 21c 0 Bop_24_18_Kto_Aop
FUNC db540 270 0 Bop_24_18_toK_Aop
FUNC db7b0 17c 0 Bop_24_18_KtoK_Aop
FUNC db92c 188 0 Bop_24_18_SKto_Aop
FUNC dbab4 2dc 0 Bop_24_18_StoK_Aop
FUNC dbd90 1fc 0 Bop_24_18_SKtoK_Aop
FUNC dbf8c 104 0 Cop_toK_Aop_32
FUNC dc090 128 0 Bop_32_Kto_Aop
FUNC dc1b8 148 0 Bop_32_toK_Aop
FUNC dc300 19c 0 Bop_32_KtoK_Aop
FUNC dc49c 134 0 Bop_32_SKto_Aop
FUNC dc5d0 154 0 Bop_32_StoK_Aop
FUNC dc724 1a8 0 Bop_32_SKtoK_Aop
FUNC dc8cc 104 0 Cop_toK_Aop_32_24
FUNC dc9d0 128 0 Bop_32_24_Kto_Aop
FUNC dcaf8 148 0 Bop_32_24_toK_Aop
FUNC dcc40 19c 0 Bop_32_24_KtoK_Aop
FUNC dcddc 134 0 Bop_32_24_SKto_Aop
FUNC dcf10 154 0 Bop_32_24_StoK_Aop
FUNC dd064 1a8 0 Bop_32_24_SKtoK_Aop
FUNC dd20c 328 0 Sop_rgb16_to_Dacc
FUNC dd534 164 0 Sop_rgb16_Kto_Dacc
FUNC dd698 554 0 Sacc_to_Aop_rgb16
FUNC ddbec 430 0 Sacc_Sto_Aop_rgb16
FUNC de01c 384 0 Sacc_toK_Aop_rgb16
FUNC de3a0 3d8 0 Sacc_StoK_Aop_rgb16
FUNC de778 308 0 Sop_argb1555_to_Dacc
FUNC dea80 190 0 Sop_argb1555_Kto_Dacc
FUNC dec10 47c 0 Sacc_to_Aop_argb1555
FUNC df08c 50c 0 Sacc_Sto_Aop_argb1555
FUNC df598 20c 0 Sacc_toK_Aop_argb1555
FUNC df7a4 238 0 Sacc_StoK_Aop_argb1555
FUNC df9dc 2d4 0 Sop_rgba5551_to_Dacc
FUNC dfcb0 188 0 Sop_rgba5551_Kto_Dacc
FUNC dfe38 464 0 Sacc_to_Aop_rgba5551
FUNC e029c 4f4 0 Sacc_Sto_Aop_rgba5551
FUNC e0790 210 0 Sacc_toK_Aop_rgba5551
FUNC e09a0 23c 0 Sacc_StoK_Aop_rgba5551
FUNC e0bdc 32c 0 Sop_xrgb1555_to_Dacc
FUNC e0f08 170 0 Sop_xrgb1555_Kto_Dacc
FUNC e1078 554 0 Sacc_to_Aop_xrgb1555
FUNC e15cc 430 0 Sacc_Sto_Aop_xrgb1555
FUNC e19fc 3a0 0 Sacc_toK_Aop_xrgb1555
FUNC e1d9c 3f4 0 Sacc_StoK_Aop_xrgb1555
FUNC e2190 330 0 Sop_xbgr1555_to_Dacc
FUNC e24c0 170 0 Sop_xbgr1555_Kto_Dacc
FUNC e2630 554 0 Sacc_to_Aop_xbgr1555
FUNC e2b84 3e8 0 Sacc_Sto_Aop_xbgr1555
FUNC e2f6c 3a0 0 Sacc_toK_Aop_xbgr1555
FUNC e330c 3f4 0 Sacc_StoK_Aop_xbgr1555
FUNC e3700 3a0 0 Sop_argb2554_to_Dacc
FUNC e3aa0 198 0 Sop_argb2554_Kto_Dacc
FUNC e3c38 460 0 Sacc_to_Aop_argb2554
FUNC e4098 4f0 0 Sacc_Sto_Aop_argb2554
FUNC e4588 200 0 Sacc_toK_Aop_argb2554
FUNC e4788 22c 0 Sacc_StoK_Aop_argb2554
FUNC e49b4 35c 0 Sop_argb4444_to_Dacc
FUNC e4d10 178 0 Sop_argb4444_Kto_Dacc
FUNC e4e88 43c 0 Sacc_to_Aop_argb4444
FUNC e52c4 4cc 0 Sacc_Sto_Aop_argb4444
FUNC e5790 1f4 0 Sacc_toK_Aop_argb4444
FUNC e5984 220 0 Sacc_StoK_Aop_argb4444
FUNC e5ba4 33c 0 Sop_rgba4444_to_Dacc
FUNC e5ee0 188 0 Sop_rgba4444_Kto_Dacc
FUNC e6068 3e4 0 Sacc_to_Aop_rgba4444
FUNC e644c 4d0 0 Sacc_Sto_Aop_rgba4444
FUNC e691c 204 0 Sacc_toK_Aop_rgba4444
FUNC e6b20 230 0 Sacc_StoK_Aop_rgba4444
FUNC e6d50 318 0 Sop_xrgb4444_to_Dacc
FUNC e7068 164 0 Sop_xrgb4444_Kto_Dacc
FUNC e71cc 520 0 Sacc_to_Aop_xrgb4444
FUNC e76ec 40c 0 Sacc_Sto_Aop_xrgb4444
FUNC e7af8 384 0 Sacc_toK_Aop_xrgb4444
FUNC e7e7c 3d8 0 Sacc_StoK_Aop_xrgb4444
FUNC e8254 1f8 0 Sop_argb_to_Dacc
FUNC e844c 254 0 Sop_argb_Kto_Dacc
FUNC e86a0 2ec 0 Sacc_to_Aop_argb
FUNC e898c 184 0 Sacc_Sto_Aop_argb
FUNC e8b10 398 0 Sacc_toK_Aop_argb
FUNC e8ea8 3ec 0 Sacc_StoK_Aop_argb
FUNC e9294 1f8 0 Sop_abgr_to_Dacc
FUNC e948c 254 0 Sop_abgr_Kto_Dacc
FUNC e96e0 2ec 0 Sacc_to_Aop_abgr
FUNC e99cc 184 0 Sacc_Sto_Aop_abgr
FUNC e9b50 398 0 Sacc_toK_Aop_abgr
FUNC e9ee8 3ec 0 Sacc_StoK_Aop_abgr
FUNC ea2d4 1ec 0 Sop_rgb32_to_Dacc
FUNC ea4c0 254 0 Sop_rgb32_Kto_Dacc
FUNC ea714 29c 0 Sacc_to_Aop_rgb32
FUNC ea9b0 164 0 Sacc_Sto_Aop_rgb32
FUNC eab14 348 0 Sacc_toK_Aop_rgb32
FUNC eae5c 39c 0 Sacc_StoK_Aop_rgb32
FUNC eb1f8 218 0 Sop_airgb_to_Dacc
FUNC eb410 270 0 Sop_airgb_Kto_Dacc
FUNC eb680 2fc 0 Sacc_to_Aop_airgb
FUNC eb97c 190 0 Sacc_Sto_Aop_airgb
FUNC ebb0c 398 0 Sacc_toK_Aop_airgb
FUNC ebea4 3ec 0 Sacc_StoK_Aop_airgb
FUNC ec290 1c0 0 Sop_argb8565_to_Dacc
FUNC ec450 1a8 0 Sop_argb8565_Kto_Dacc
FUNC ec5f8 1c0 0 Sacc_to_Aop_argb8565
FUNC ec7b8 1e4 0 Sacc_Sto_Aop_argb8565
FUNC ec99c 228 0 Sacc_toK_Aop_argb8565
FUNC ecbc4 254 0 Sacc_StoK_Aop_argb8565
FUNC ece18 160 0 Sop_rgb24_to_Dacc
FUNC ecf78 290 0 Sop_rgb24_Kto_Dacc
FUNC ed208 30c 0 Sacc_to_Aop_rgb24
FUNC ed514 194 0 Sacc_Sto_Aop_rgb24
FUNC ed6a8 428 0 Sacc_toK_Aop_rgb24
FUNC edad0 47c 0 Sacc_StoK_Aop_rgb24
FUNC edf4c 16c 0 Sop_argb1666_to_Dacc
FUNC ee0b8 1c4 0 Sop_argb1666_Kto_Dacc
FUNC ee27c 1cc 0 Sacc_to_Aop_argb1666
FUNC ee448 1f0 0 Sacc_Sto_Aop_argb1666
FUNC ee638 264 0 Sacc_toK_Aop_argb1666
FUNC ee89c 290 0 Sacc_StoK_Aop_argb1666
FUNC eeb2c 1e0 0 Sop_argb6666_to_Dacc
FUNC eed0c 1ec 0 Sop_argb6666_Kto_Dacc
FUNC eeef8 1cc 0 Sacc_to_Aop_argb6666
FUNC ef0c4 1f0 0 Sacc_Sto_Aop_argb6666
FUNC ef2b4 264 0 Sacc_toK_Aop_argb6666
FUNC ef518 290 0 Sacc_StoK_Aop_argb6666
FUNC ef7a8 1bc 0 Sop_rgb18_to_Dacc
FUNC ef964 184 0 Sop_rgb18_Kto_Dacc
FUNC efae8 35c 0 Sacc_to_Aop_rgb18
FUNC efe44 1b4 0 Sacc_Sto_Aop_rgb18
FUNC efff8 494 0 Sacc_toK_Aop_rgb18
FUNC f048c 254 0 Sacc_StoK_Aop_rgb18
FUNC f06e0 218 0 Sop_rgbaf88871_to_Dacc
FUNC f08f8 270 0 Sop_rgbaf88871_Kto_Dacc
FUNC f0b68 308 0 Sacc_to_Aop_rgbaf88871
FUNC f0e70 190 0 Sacc_Sto_Aop_rgbaf88871
FUNC f1000 3b4 0 Sacc_toK_Aop_rgbaf88871
FUNC f13b4 408 0 Sacc_StoK_Aop_rgbaf88871
FUNC f17bc a4 0 Cop_to_Aop_16
FUNC f1860 248 0 Cop_to_Aop_18
FUNC f1aa8 248 0 Cop_to_Aop_argb8565
FUNC f1cf0 248 0 Cop_to_Aop_24
FUNC f1f38 138 0 Cop_to_Aop_vyu
FUNC f2070 c0 0 Cop_to_Aop_32
FUNC f2130 b0 0 Cop_to_Aop_yuv422
FUNC f21e0 e8 0 Cop_toK_Aop_8
FUNC f22c8 12c 0 Cop_toK_Aop_yuv422
FUNC f23f4 108 0 Cop_toK_Aop_alut44
FUNC f24fc 22c 0 Cop_toK_Aop_yuv444p
FUNC f2728 104 0 Cop_toK_Aop_avyu
FUNC f282c cc 0 Bop_4_toR_Aop
FUNC f28f8 cc 0 Bop_8_toR_Aop
FUNC f29c4 b8 0 Bop_16_toR_Aop
FUNC f2a7c 164 0 Bop_24_toR_Aop
FUNC f2be0 b8 0 Bop_32_toR_Aop
FUNC f2c98 1f4 0 Bop_i420_toR_Aop
FUNC f2e8c 1f0 0 Bop_yv16_toR_Aop
FUNC f307c 1ac 0 Bop_NV_toR_Aop
FUNC f3228 1a4 0 Bop_yuv444p_toR_Aop
FUNC f33cc 164 0 Bop_yuv422_Kto_Aop
FUNC f3530 21c 0 Bop_8_Kto_Aop
FUNC f374c 11c 0 Bop_alut44_Kto_Aop
FUNC f3868 260 0 Bop_yuv444p_Kto_Aop
FUNC f3ac8 18c 0 Bop_yuv422_toK_Aop
FUNC f3c54 10c 0 Bop_rgb332_toK_Aop
FUNC f3d60 2c4 0 Bop_yuv444p_toK_Aop
FUNC f4024 10c 0 Bop_8_toK_Aop
FUNC f4130 3b4 0 Bop_yuv444p_KtoK_Aop
FUNC f44e4 2a0 0 Bop_16_Sto_Aop
FUNC f4784 1c4 0 Bop_24_Sto_Aop
FUNC f4948 ec 0 Bop_32_Sto_Aop
FUNC f4a34 198 0 Bop_yuy2_Sto_Aop
FUNC f4bcc d0 0 Bop_8_Sto_Aop
FUNC f4c9c 1e0 0 Bop_uyvy_Sto_Aop
FUNC f4e7c 254 0 Bop_i420_Sto_Aop
FUNC f50d0 1f0 0 Bop_yv16_Sto_Aop
FUNC f52c0 1f0 0 Bop_NV_Sto_Aop
FUNC f54b0 1bc 0 Bop_yuv444p_Sto_Aop
FUNC f566c d0 0 Bop_a8_SKto_Aop
FUNC f573c 208 0 Bop_yuy2_SKto_Aop
FUNC f5944 f4 0 Bop_8_SKto_Aop
FUNC f5a38 248 0 Bop_uyvy_SKto_Aop
FUNC f5c80 110 0 Bop_alut44_SKto_Aop
FUNC f5d90 228 0 Bop_yuv444p_SKto_Aop
FUNC f5fb8 2bc 0 Bop_yuv444p_StoK_Aop
FUNC f6274 1a0 0 Bop_yuv444p_SKtoK_Aop
FUNC f6414 184 0 Bop_32_TEX_to_Aop
FUNC f6598 278 0 Bop_24_TEX_to_Aop
FUNC f6810 170 0 Sop_a8_Sto_Dacc
FUNC f6980 210 0 Sop_yuy2_Sto_Dacc
FUNC f6b90 150 0 Sop_rgb332_Sto_Dacc
FUNC f6ce0 234 0 Sop_uyvy_Sto_Dacc
FUNC f6f14 1f8 0 Sop_lut8_Sto_Dacc
FUNC f710c 218 0 Sop_alut44_Sto_Dacc
FUNC f7324 1c4 0 Sop_i420_Sto_Dacc
FUNC f74e8 214 0 Sop_nv12_Sto_Dacc
FUNC f76fc 210 0 Sop_nv21_Sto_Dacc
FUNC f790c 230 0 Sop_ayuv_Sto_Dacc
FUNC f7b3c 1c4 0 Sop_yuv444p_Sto_Dacc
FUNC f7d00 230 0 Sop_avyu_Sto_Dacc
FUNC f7f30 20c 0 Sop_vyu_Sto_Dacc
FUNC f813c 214 0 Sop_a4_Sto_Dacc
FUNC f8350 170 0 Sop_a8_SKto_Dacc
FUNC f84c0 208 0 Sop_lut8_SKto_Dacc
FUNC f86c8 258 0 Sop_alut44_SKto_Dacc
FUNC f8920 368 0 Sop_yuy2_SKto_Dacc
FUNC f8c88 128 0 Sop_rgb332_SKto_Dacc
FUNC f8db0 1bc 0 Sop_uyvy_SKto_Dacc
FUNC f8f6c 248 0 Sop_yuv444p_SKto_Dacc
FUNC f91b4 26c 0 Sop_avyu_SKto_Dacc
FUNC f9420 16c 0 Sop_vyu_SKto_Dacc
FUNC f958c 148 0 Sop_a8_to_Dacc
FUNC f96d4 74 0 Sop_a4_to_Dacc
FUNC f9748 1a4 0 Sop_yuy2_to_Dacc
FUNC f98ec 150 0 Sop_rgb332_to_Dacc
FUNC f9a3c 1a4 0 Sop_uyvy_to_Dacc
FUNC f9be0 1d8 0 Sop_lut8_to_Dacc
FUNC f9db8 1f8 0 Sop_alut44_to_Dacc
FUNC f9fb0 150 0 Sop_i420_to_Dacc
FUNC fa100 160 0 Sop_nv12_to_Dacc
FUNC fa260 160 0 Sop_nv21_to_Dacc
FUNC fa3c0 1ec 0 Sop_ayuv_to_Dacc
FUNC fa5ac 1a0 0 Sop_yuv444p_to_Dacc
FUNC fa74c 1ec 0 Sop_avyu_to_Dacc
FUNC fa938 194 0 Sop_vyu_to_Dacc
FUNC faacc 148 0 Sop_a8_Kto_Dacc
FUNC fac14 488 0 Sop_yuy2_Kto_Dacc
FUNC fb09c 2ac 0 Sop_rgb332_Kto_Dacc
FUNC fb348 488 0 Sop_uyvy_Kto_Dacc
FUNC fb7d0 230 0 Sop_lut8_Kto_Dacc
FUNC fba00 288 0 Sop_alut44_Kto_Dacc
FUNC fbc88 258 0 Sop_yuv444p_Kto_Dacc
FUNC fbee0 280 0 Sop_avyu_Kto_Dacc
FUNC fc160 2cc 0 Sop_vyu_Kto_Dacc
FUNC fc42c 180 0 Sacc_to_Aop_a8
FUNC fc5ac 4a0 0 Sacc_to_Aop_yuy2
FUNC fca4c 328 0 Sacc_to_Aop_rgb332
FUNC fcd74 3f8 0 Sacc_to_Aop_uyvy
FUNC fd16c 4b8 0 Sacc_to_Aop_i420
FUNC fd624 4f0 0 Sacc_to_Aop_yv16
FUNC fdb14 4bc 0 Sacc_to_Aop_nv12
FUNC fdfd0 524 0 Sacc_to_Aop_nv21
FUNC fe4f4 348 0 Sacc_to_Aop_ayuv
FUNC fe83c 348 0 Sacc_to_Aop_avyu
FUNC feb84 550 0 Sacc_to_Aop_a4
FUNC ff0d4 2f0 0 Sacc_to_Aop_yuv444p
FUNC ff3c4 290 0 Sacc_to_Aop_vyu
FUNC ff654 1f0 0 Sop_a8_TEX_to_Dacc
FUNC ff844 19c 0 Sacc_Sto_Aop_a8
FUNC ff9e0 60c 0 Sacc_Sto_Aop_yuy2
FUNC fffec 170 0 Sacc_Sto_Aop_rgb332
FUNC 10015c 5c4 0 Sacc_Sto_Aop_uyvy
FUNC 100720 4f8 0 Sacc_Sto_Aop_i420
FUNC 100c18 4f0 0 Sacc_Sto_Aop_yv16
FUNC 101108 488 0 Sacc_Sto_Aop_nv12
FUNC 101590 4ac 0 Sacc_Sto_Aop_nv21
FUNC 101a3c 17c 0 Sacc_Sto_Aop_ayuv
FUNC 101bb8 2e0 0 Sacc_Sto_Aop_yuv444p
FUNC 101e98 17c 0 Sacc_Sto_Aop_avyu
FUNC 102014 2dc 0 Sacc_Sto_Aop_vyu
FUNC 1022f0 180 0 Sacc_toK_Aop_a8
FUNC 102470 4f4 0 Sacc_toK_Aop_yuy2
FUNC 102964 3bc 0 Sacc_toK_Aop_rgb332
FUNC 102d20 464 0 Sacc_toK_Aop_uyvy
FUNC 103184 418 0 Sacc_toK_Aop_yuv444p
FUNC 10359c 3fc 0 Sacc_toK_Aop_avyu
FUNC 103998 1d8 0 Sacc_toK_Aop_vyu
FUNC 103b70 414 0 Sacc_StoK_Aop_yuv444p
FUNC 103f84 3e8 0 Sacc_StoK_Aop_avyu
FUNC 10436c 1ec 0 Sacc_StoK_Aop_vyu
FUNC 104558 4bc 0 Bop_a8_set_alphapixel_Aop_argb1555
FUNC 104a14 4bc 0 Bop_a8_set_alphapixel_Aop_rgba5551
FUNC 104ed0 3c0 0 Bop_a8_set_alphapixel_Aop_rgb16
FUNC 105290 2d8 0 Bop_a8_set_alphapixel_Aop_argb6666
FUNC 105568 2d8 0 Bop_a8_set_alphapixel_Aop_argb1666
FUNC 105840 2d8 0 Bop_a8_set_alphapixel_Aop_rgb18
FUNC 105b18 8d0 0 Bop_a8_set_alphapixel_Aop_argb8565
FUNC 1063e8 668 0 Bop_a8_set_alphapixel_Aop_rgb24
FUNC 106a50 39c 0 Bop_a8_set_alphapixel_Aop_rgb32
FUNC 106dec 668 0 Bop_a8_set_alphapixel_Aop_vyu
FUNC 107454 434 0 Bop_a8_set_alphapixel_Aop_argb
FUNC 107888 434 0 Bop_a8_set_alphapixel_Aop_airgb
FUNC 107cbc 20c 0 Bop_a8_set_alphapixel_Aop_a8
FUNC 107ec8 500 0 Bop_a8_set_alphapixel_Aop_yuy2
FUNC 1083c8 364 0 Bop_a8_set_alphapixel_Aop_rgb332
FUNC 10872c 510 0 Bop_a8_set_alphapixel_Aop_uyvy
FUNC 108c3c ec 0 Bop_a8_set_alphapixel_Aop_lut8
FUNC 108d28 5c0 0 Bop_a8_set_alphapixel_Aop_yuv444p
FUNC 1092e8 128 0 Bop_a1_set_alphapixel_Aop_argb1555
FUNC 109410 124 0 Bop_a1_set_alphapixel_Aop_rgba5551
FUNC 109534 120 0 Bop_a1_set_alphapixel_Aop_rgb16
FUNC 109654 160 0 Bop_a1_set_alphapixel_Aop_argb6666
FUNC 1097b4 160 0 Bop_a1_set_alphapixel_Aop_argb1666
FUNC 109914 154 0 Bop_a1_set_alphapixel_Aop_rgb18
FUNC 109a68 13c 0 Bop_a1_set_alphapixel_Aop_argb8565
FUNC 109ba4 130 0 Bop_a1_set_alphapixel_Aop_rgb24
FUNC 109cd4 100 0 Bop_a1_set_alphapixel_Aop_rgb32
FUNC 109dd4 104 0 Bop_a1_set_alphapixel_Aop_argb
FUNC 109ed8 104 0 Bop_a1_set_alphapixel_Aop_airgb
FUNC 109fdc 100 0 Bop_a1_set_alphapixel_Aop_a8
FUNC 10a0dc 1b4 0 Bop_a1_set_alphapixel_Aop_yuy2
FUNC 10a290 100 0 Bop_a1_set_alphapixel_Aop_rgb332
FUNC 10a390 1b8 0 Bop_a1_set_alphapixel_Aop_uyvy
FUNC 10a548 100 0 Bop_a1_set_alphapixel_Aop_lut8
FUNC 10a648 100 0 Bop_a1_set_alphapixel_Aop_alut44
FUNC 10a748 128 0 Bop_a1_set_alphapixel_Aop_argb2554
FUNC 10a870 128 0 Bop_a1_set_alphapixel_Aop_argb4444
FUNC 10a998 124 0 Bop_a1_set_alphapixel_Aop_rgba4444
FUNC 10aabc 1c4 0 Bop_a1_set_alphapixel_Aop_yuv444p
FUNC 10ac80 140 0 Bop_a1_lsb_set_alphapixel_Aop_argb1555
FUNC 10adc0 138 0 Bop_a1_lsb_set_alphapixel_Aop_rgb16
FUNC 10aef8 174 0 Bop_a1_lsb_set_alphapixel_Aop_argb6666
FUNC 10b06c 174 0 Bop_a1_lsb_set_alphapixel_Aop_argb1666
FUNC 10b1e0 168 0 Bop_a1_lsb_set_alphapixel_Aop_rgb18
FUNC 10b348 144 0 Bop_a1_lsb_set_alphapixel_Aop_rgb24
FUNC 10b48c 118 0 Bop_a1_lsb_set_alphapixel_Aop_rgb32
FUNC 10b5a4 11c 0 Bop_a1_lsb_set_alphapixel_Aop_argb
FUNC 10b6c0 11c 0 Bop_a1_lsb_set_alphapixel_Aop_airgb
FUNC 10b7dc 118 0 Bop_a1_lsb_set_alphapixel_Aop_a8
FUNC 10b8f4 1cc 0 Bop_a1_lsb_set_alphapixel_Aop_yuy2
FUNC 10bac0 118 0 Bop_a1_lsb_set_alphapixel_Aop_rgb332
FUNC 10bbd8 1d0 0 Bop_a1_lsb_set_alphapixel_Aop_uyvy
FUNC 10bda8 118 0 Bop_a1_lsb_set_alphapixel_Aop_lut8
FUNC 10bec0 118 0 Bop_a1_lsb_set_alphapixel_Aop_alut44
FUNC 10bfd8 140 0 Bop_a1_lsb_set_alphapixel_Aop_argb2554
FUNC 10c118 140 0 Bop_a1_lsb_set_alphapixel_Aop_argb4444
FUNC 10c258 280 0 Bop_lut2_translate_to_Aop_lut8
FUNC 10c4d8 28c 0 Xacc_blend_zero
FUNC 10c764 108 0 Xacc_blend_one
FUNC 10c86c 660 0 Xacc_blend_srccolor
FUNC 10cecc 6a8 0 Xacc_blend_invsrccolor
FUNC 10d574 604 0 Xacc_blend_srcalpha
FUNC 10db78 60c 0 Xacc_blend_invsrcalpha
FUNC 10e184 250 0 Xacc_blend_dstalpha
FUNC 10e3d4 250 0 Xacc_blend_invdstalpha
FUNC 10e624 23c 0 Xacc_blend_destcolor
FUNC 10e860 284 0 Xacc_blend_invdestcolor
FUNC 10eae4 4c8 0 Xacc_blend_srcalphasat
FUNC 10efac f0 0 Dacc_set_alpha
FUNC 10f09c 138 0 Dacc_modulate_alpha
FUNC 10f1d4 288 0 Dacc_modulate_rgb
FUNC 10f45c 2ac 0 Dacc_modulate_rgb_set_alpha
FUNC 10f708 2f0 0 Dacc_modulate_argb
FUNC 10f9f8 18c 0 Dacc_modulate_mask_alpha_ARGB
FUNC 10fb84 16c 0 Dacc_modulate_mask_alpha_A8
FUNC 10fcf0 354 0 Dacc_modulate_mask_rgb_ARGB
FUNC 110044 2b4 0 Dacc_modulate_mask_argb_ARGB
FUNC 1102f8 2d0 0 Dacc_premultiply
FUNC 1105c8 27c 0 Dacc_premultiply_color_alpha
FUNC 110844 338 0 Dacc_demultiply
FUNC 110b7c 260 0 Dacc_xor_C
FUNC 110ddc 2d4 0 Dacc_clamp_C
FUNC 1110b0 328 0 Sacc_xor_Dacc_C
FUNC 1113d8 10c 0 Cacc_to_Dacc
FUNC 1114e4 270 0 SCacc_add_to_Dacc_C
FUNC 111754 328 0 Sacc_add_to_Dacc_C
FUNC 111a7c 4d4 0 Dacc_RGB_to_YCbCr_C
FUNC 111f50 378 0 Dacc_YCbCr_to_RGB_C
FUNC 1122c8 518 0 Bop_argb_blend_alphachannel_src_invsrc_Aop_rgb16
FUNC 1127e0 1d8 0 Bop_argb_blend_alphachannel_src_invsrc_Aop_rgb32
FUNC 1129b8 c0 0 Bop_argb_blend_alphachannel_src_invsrc_Aop_argb8565
FUNC 112a78 394 0 Bop_argb_blend_alphachannel_one_invsrc_Aop_argb
FUNC 112e0c 4a4 0 Bop_argb_blend_alphachannel_one_invsrc_premultiply_Aop_argb
FUNC 1132b0 170 0 Dacc_Alpha_to_YCbCr
FUNC 113420 14 0 Sop_is_Aop
FUNC 113434 14 0 Sop_is_Bop
FUNC 113448 c 0 Slut_is_Alut
FUNC 113454 c 0 Slut_is_Blut
FUNC 113460 c 0 Sacc_is_NULL
FUNC 11346c c 0 Sacc_is_Aacc
FUNC 113478 c 0 Sacc_is_Bacc
FUNC 113484 c 0 Sacc_is_Tacc
FUNC 113490 c 0 Dacc_is_Aacc
FUNC 11349c c 0 Dacc_is_Bacc
FUNC 1134a8 c 0 Dacc_is_Tacc
FUNC 1134b4 c 0 Xacc_is_Bacc
FUNC 1134c0 c 0 Xacc_is_Tacc
FUNC 1134cc c 0 Yacc_is_Aacc
FUNC 1134d8 c 0 Yacc_is_Bacc
FUNC 1134e4 c 0 Len_is_Slen
FUNC 1134f0 c 0 Len_is_Dlen
FUNC 1134fc 4d4 0 Bop_rgb24_to_Aop_rgb16_LE
FUNC 1139d0 1dc 0 Bop_rgb32_to_Aop_rgb16_LE
FUNC 113bac 3e8 0 Sacc_Sto_Aop_alut44
FUNC 113f94 190 0 Sacc_Sto_Aop_lut8
FUNC 114124 3a4 0 Bop_a8_set_alphapixel_Aop_alut44
FUNC 1144c8 3d8 0 Sacc_to_Aop_alut44
FUNC 1148a0 18c 0 Sacc_to_Aop_lut8
FUNC 114a2c 498 0 Sacc_toK_Aop_alut44
FUNC 114ec4 404 0 Sacc_toK_Aop_lut8
FUNC 1152c8 2c8 0 Sop_rgbaf88871_Sto_Dacc
FUNC 115590 2a8 0 Sop_abgr_Sto_Dacc
FUNC 115838 27c 0 Sop_argb8565_Sto_Dacc
FUNC 115ab4 1bc 0 Sop_rgba5551_Sto_Dacc
FUNC 115c70 210 0 Sop_xbgr1555_Sto_Dacc
FUNC 115e80 210 0 Sop_xrgb1555_Sto_Dacc
FUNC 116090 20c 0 Sop_xrgb4444_Sto_Dacc
FUNC 11629c 274 0 Sop_rgb18_Sto_Dacc
FUNC 116510 124 0 Sop_argb6666_Sto_Dacc
FUNC 116634 120 0 Sop_argb1666_Sto_Dacc
FUNC 116754 214 0 Sop_rgba4444_Sto_Dacc
FUNC 116968 220 0 Sop_argb4444_Sto_Dacc
FUNC 116b88 234 0 Sop_argb2554_Sto_Dacc
FUNC 116dbc 2c8 0 Sop_airgb_Sto_Dacc
FUNC 117084 2a8 0 Sop_argb_Sto_Dacc
FUNC 11732c 2a8 0 Sop_rgb32_Sto_Dacc
FUNC 1175d4 214 0 Sop_rgb24_Sto_Dacc
FUNC 1177e8 210 0 Sop_rgb16_Sto_Dacc
FUNC 1179f8 1d4 0 Sop_argb1555_Sto_Dacc
FUNC 117bcc 300 0 Sop_rgbaf88871_SKto_Dacc
FUNC 117ecc 2e4 0 Sop_abgr_SKto_Dacc
FUNC 1181b0 250 0 Sop_argb8565_SKto_Dacc
FUNC 118400 234 0 Sop_rgba5551_SKto_Dacc
FUNC 118634 1ec 0 Sop_xbgr1555_SKto_Dacc
FUNC 118820 1d4 0 Sop_xrgb1555_SKto_Dacc
FUNC 1189f4 1d4 0 Sop_xrgb4444_SKto_Dacc
FUNC 118bc8 228 0 Sop_rgb18_SKto_Dacc
FUNC 118df0 290 0 Sop_argb6666_SKto_Dacc
FUNC 119080 26c 0 Sop_argb1666_SKto_Dacc
FUNC 1192ec 21c 0 Sop_rgba4444_SKto_Dacc
FUNC 119508 1f4 0 Sop_argb4444_SKto_Dacc
FUNC 1196fc 23c 0 Sop_argb2554_SKto_Dacc
FUNC 119938 300 0 Sop_airgb_SKto_Dacc
FUNC 119c38 2e4 0 Sop_argb_SKto_Dacc
FUNC 119f1c 2e4 0 Sop_rgb32_SKto_Dacc
FUNC 11a200 1b8 0 Sop_rgb24_SKto_Dacc
FUNC 11a3b8 1e0 0 Sop_rgb16_SKto_Dacc
FUNC 11a598 23c 0 Sop_argb1555_SKto_Dacc
FUNC 11a7d4 220 0 Sop_rgbaf88871_TEX_to_Dacc
FUNC 11a9f4 210 0 Sop_abgr_TEX_to_Dacc
FUNC 11ac04 158 0 Sop_argb8565_TEX_to_Dacc
FUNC 11ad5c 220 0 Sop_rgba5551_TEX_to_Dacc
FUNC 11af7c 28c 0 Sop_xbgr1555_TEX_to_Dacc
FUNC 11b208 28c 0 Sop_xrgb1555_TEX_to_Dacc
FUNC 11b494 290 0 Sop_xrgb4444_TEX_to_Dacc
FUNC 11b724 15c 0 Sop_rgb18_TEX_to_Dacc
FUNC 11b880 168 0 Sop_argb6666_TEX_to_Dacc
FUNC 11b9e8 160 0 Sop_argb1666_TEX_to_Dacc
FUNC 11bb48 284 0 Sop_rgba4444_TEX_to_Dacc
FUNC 11bdcc 298 0 Sop_argb4444_TEX_to_Dacc
FUNC 11c064 2b0 0 Sop_argb2554_TEX_to_Dacc
FUNC 11c314 224 0 Sop_airgb_TEX_to_Dacc
FUNC 11c538 214 0 Sop_argb_TEX_to_Dacc
FUNC 11c74c 350 0 Sop_rgb32_TEX_to_Dacc
FUNC 11ca9c 268 0 Sop_rgb24_TEX_to_Dacc
FUNC 11cd04 290 0 Sop_rgb16_TEX_to_Dacc
FUNC 11cf94 240 0 Sop_argb1555_TEX_to_Dacc
FUNC 11d1d4 20c 0 Sop_rgbaf88871_TEX_Kto_Dacc
FUNC 11d3e0 204 0 Sop_abgr_TEX_Kto_Dacc
FUNC 11d5e4 188 0 Sop_argb8565_TEX_Kto_Dacc
FUNC 11d76c 26c 0 Sop_rgba5551_TEX_Kto_Dacc
FUNC 11d9d8 278 0 Sop_xbgr1555_TEX_Kto_Dacc
FUNC 11dc50 274 0 Sop_xrgb1555_TEX_Kto_Dacc
FUNC 11dec4 270 0 Sop_xrgb4444_TEX_Kto_Dacc
FUNC 11e134 2a0 0 Sop_rgb18_TEX_Kto_Dacc
FUNC 11e3d4 19c 0 Sop_argb6666_TEX_Kto_Dacc
FUNC 11e570 190 0 Sop_argb1666_TEX_Kto_Dacc
FUNC 11e700 26c 0 Sop_rgba4444_TEX_Kto_Dacc
FUNC 11e96c 284 0 Sop_argb4444_TEX_Kto_Dacc
FUNC 11ebf0 29c 0 Sop_argb2554_TEX_Kto_Dacc
FUNC 11ee8c 210 0 Sop_airgb_TEX_Kto_Dacc
FUNC 11f09c 204 0 Sop_argb_TEX_Kto_Dacc
FUNC 11f2a0 3a8 0 Sop_rgb32_TEX_Kto_Dacc
FUNC 11f648 224 0 Sop_rgb24_TEX_Kto_Dacc
FUNC 11f86c 26c 0 Sop_rgb16_TEX_Kto_Dacc
FUNC 11fad8 290 0 Sop_argb1555_TEX_Kto_Dacc
FUNC 11fd68 4c 0 Cop_to_Aop_yv16
FUNC 11fdb4 3c 0 Cop_to_Aop_yuv444p
FUNC 11fdf0 214 0 Cop_to_Aop_nv21
FUNC 120004 214 0 Cop_to_Aop_nv12
FUNC 120218 50 0 Cop_to_Aop_i420
FUNC 120268 14 0 Cop_to_Aop_8
FUNC 12027c f8 0 Bop_yv16_to_Aop
FUNC 120374 e8 0 Bop_yuv444p_to_Aop
FUNC 12045c 68 0 Bop_4_to_Aop
FUNC 1204c4 64 0 Bop_8_to_Aop
FUNC 120528 68 0 Bop_32_to_Aop
FUNC 120590 68 0 Bop_24_to_Aop
FUNC 1205f8 68 0 Bop_16_to_Aop
FUNC 120660 64 0 Bop_a8_Kto_Aop
FUNC 1206c4 c8 0 Bop_NV_to_Aop
FUNC 12078c 108 0 Bop_i420_to_Aop
FUNC 120894 48 0 gGetDriverInfo
FUNC 1208dc 4c 0 gGetDeviceInfo
FUNC 120928 24c 0 gAcquireCheck
FUNC 120b74 2f04 0 gAcquireSetup
FUNC 123a78 28c 0 gAcquire
FUNC 123d04 64 0 gRelease
FUNC 123d68 28 0 gAcquire2
FUNC 123d90 b50 0 gBlit
FUNC 1248e0 42c 0 gDrawLine
FUNC 124d0c 208 0 gFillRectangle
FUNC 124f14 a48 0 gStretchBlit
FUNC 12595c 10ec 0 Genefx_TextureTriangleAffine
FUNC 126a48 3b4 0 Genefx_TextureTrianglesAffine
FUNC 126dfc 2a8 0 Genefx_TextureTriangles
FUNC 1270a4 180 0 Genefx_Aop_xy
FUNC 127224 20 0 Genefx_Aop_crab
FUNC 127244 20 0 Genefx_Aop_prev_crab
FUNC 127264 314 0 Genefx_Aop_next
FUNC 127578 344 0 Genefx_Aop_prev
FUNC 1278bc 180 0 Genefx_Bop_xy
FUNC 127a3c 314 0 Genefx_Bop_next
FUNC 127d50 344 0 Genefx_Bop_prev
FUNC 128094 180 0 Genefx_Mop_xy
FUNC 128214 314 0 Genefx_Mop_next
FUNC 128528 344 0 Genefx_Mop_prev
FUNC 12886c 100 0 Genefx_ABacc_prepare
FUNC 12896c 64 0 Genefx_ABacc_flush
STACK CFI INIT 30e54 40 .cfa: sp 0 + .ra: lr
STACK CFI INIT 30e94 3c .cfa: sp 0 + .ra: lr
STACK CFI INIT 30ed0 c .cfa: sp 0 + .ra: lr
STACK CFI INIT 30edc 64 .cfa: sp 0 + .ra: lr
STACK CFI 30ee4 .cfa: sp 8 +
STACK CFI 30ef0 .ra: .cfa -4 + ^ r4: .cfa -8 + ^
STACK CFI INIT 30f40 d0 .cfa: sp 0 + .ra: lr
STACK CFI 30f48 .cfa: sp 20 +
STACK CFI 30f50 .cfa: sp 40 +
STACK CFI 30f54 .ra: .cfa -4 + ^ r4: .cfa -20 + ^ r5: .cfa -16 + ^ r6: .cfa -12 + ^ r7: .cfa -8 + ^
STACK CFI INIT 31010 40 .cfa: sp 0 + .ra: lr
STACK CFI 31018 .cfa: sp 8 +
STACK CFI 3101c .ra: .cfa -4 + ^ r3: .cfa -8 + ^
STACK CFI INIT 31050 48 .cfa: sp 0 + .ra: lr
STACK CFI 31058 .cfa: sp 8 +
STACK CFI 3105c .ra: .cfa -4 + ^ r3: .cfa -8 + ^
STACK CFI INIT 31098 34 .cfa: sp 0 + .ra: lr
STACK CFI INIT 310cc 34 .cfa: sp 0 + .ra: lr
STACK CFI INIT 31100 a4 .cfa: sp 0 + .ra: lr
STACK CFI 31108 .cfa: sp 20 +
STACK CFI 3110c .ra: .cfa -4 + ^ r4: .cfa -20 + ^ r5: .cfa -16 + ^ r6: .cfa -12 + ^ r7: .cfa -8 + ^
STACK CFI 31110 .cfa: sp 32 +
STACK CFI INIT 311a4 170 .cfa: sp 0 + .ra: lr
STACK CFI 311a8 .cfa: sp 28 +
STACK CFI 311ac .ra: .cfa -4 + ^ r10: .cfa -8 + ^ r4: .cfa -28 + ^ r5: .cfa -24 + ^ r6: .cfa -20 + ^ r7: .cfa -16 + ^ r8: .cfa -12 + ^
STACK CFI 311b0 .cfa: sp 49180 +
STACK CFI 311bc .cfa: sp 49328 +
STACK CFI INIT 31314 c8 .cfa: sp 0 + .ra: lr
STACK CFI 31318 .cfa: sp 20 +
STACK CFI 31320 .cfa: sp 48 +
STACK CFI 31324 .ra: .cfa -4 + ^ r4: .cfa -20 + ^ r5: .cfa -16 + ^ r6: .cfa -12 + ^ r7: .cfa -8 + ^
STACK CFI INIT 313dc 1e4 .cfa: sp 0 + .ra: lr
STACK CFI 313e0 .cfa: sp 24 +
STACK CFI 313e4 .ra: .cfa -4 + ^ r4: .cfa -24 + ^ r5: .cfa -20 + ^ r6: .cfa -16 + ^ r7: .cfa -12 + ^ r8: .cfa -8 + ^
STACK CFI 313e8 .cfa: sp 32 +
STACK CFI INIT 315c0 128 .cfa: sp 0 + .ra: lr
STACK CFI 315c4 .cfa: sp 24 +
STACK CFI 315c8 .ra: .cfa -4 + ^ r4: .cfa -24 + ^ r5: .cfa -20 + ^ r6: .cfa -16 + ^ r7: .cfa -12 + ^ r8: .cfa -8 + ^
STACK CFI 315cc .cfa: sp 48 +
STACK CFI INIT 316e8 ac .cfa: sp 0 + .ra: lr
STACK CFI 316f0 .cfa: sp 16 +
STACK CFI 316f4 .ra: .cfa -4 + ^ r4: .cfa -16 + ^ r5: .cfa -12 + ^ r6: .cfa -8 + ^
STACK CFI 316f8 .cfa: sp 40 +
STACK CFI INIT 31794 b0 .cfa: sp 0 + .ra: lr
STACK CFI 31798 .cfa: sp 20 +
STACK CFI 3179c .ra: .cfa -4 + ^ r4: .cfa -20 + ^ r5: .cfa -16 + ^ r6: .cfa -12 + ^ r7: .cfa -8 + ^
STACK CFI 317a0 .cfa: sp 48 +
STACK CFI INIT 31844 bc .cfa: sp 0 + .ra: lr
STACK CFI 3184c .cfa: sp 16 +
STACK CFI 31850 .ra: .cfa -4 + ^ r3: .cfa -16 + ^ r4: .cfa -12 + ^ r5: .cfa -8 + ^
STACK CFI INIT 31900 98 .cfa: sp 0 + .ra: lr
STACK CFI 31908 .cfa: sp 8 +
STACK CFI 31910 .cfa: sp 24 +
STACK CFI 31914 .ra: .cfa -4 + ^ r4: .cfa -8 + ^
STACK CFI INIT 31998 78 .cfa: sp 0 + .ra: lr
STACK CFI 319a0 .cfa: sp 4 +
STACK CFI 319a8 .cfa: sp 16 +
STACK CFI 319b0 .ra: .cfa -4 + ^
STACK CFI INIT 31a10 228 .cfa: sp 0 + .ra: lr
STACK CFI 31a14 .cfa: sp 28 +
STACK CFI 31a18 .ra: .cfa -4 + ^ r10: .cfa -8 + ^ r4: .cfa -28 + ^ r5: .cfa -24 + ^ r6: .cfa -20 + ^ r7: .cfa -16 + ^ r8: .cfa -12 + ^
STACK CFI 31a24 .cfa: sp 48 +
STACK CFI INIT 31c38 34 .cfa: sp 0 + .ra: lr
STACK CFI 31c3c .cfa: sp 12 +
STACK CFI 31c40 .cfa: sp 120 +
STACK CFI 31c44 .ra: .cfa -4 + ^ r4: .cfa -12 + ^ r5: .cfa -8 + ^
STACK CFI INIT 31c6c dc .cfa: sp 0 + .ra: lr
STACK CFI 31c70 .cfa: sp 8 +
STACK CFI 31c78 .ra: .cfa -4 + ^ r3: .cfa -8 + ^
STACK CFI INIT 31d48 58 .cfa: sp 0 + .ra: lr
STACK CFI 31d4c .cfa: sp 20 +
STACK CFI 31d50 .cfa: sp 224 +
STACK CFI 31d54 .ra: .cfa -4 + ^ r4: .cfa -20 + ^ r5: .cfa -16 + ^ r6: .cfa -12 + ^ r7: .cfa -8 + ^
STACK CFI INIT 31da0 b0 .cfa: sp 0 + .ra: lr
STACK CFI 31da4 .cfa: sp 16 +
STACK CFI 31da8 .ra: .cfa -4 + ^ r4: .cfa -16 + ^ r5: .cfa -12 + ^ r6: .cfa -8 + ^
STACK CFI INIT 31e50 d8 .cfa: sp 0 + .ra: lr
STACK CFI 31e5c .cfa: sp 8 +
STACK CFI 31e64 .cfa: sp 32 +
STACK CFI 31e6c .ra: .cfa -4 + ^ r4: .cfa -8 + ^
STACK CFI INIT 31f28 74 .cfa: sp 0 + .ra: lr
STACK CFI 31f30 .cfa: sp 4 +
STACK CFI 31f38 .cfa: sp 16 +
STACK CFI 31f3c .ra: .cfa -4 + ^
STACK CFI INIT 31f9c b8 .cfa: sp 0 + .ra: lr
STACK CFI 31fa0 .cfa: sp 16 +
STACK CFI 31fa4 .ra: .cfa -4 + ^ r4: .cfa -16 + ^ r5: .cfa -12 + ^ r6: .cfa -8 + ^
STACK CFI INIT 32054 ac .cfa: sp 0 + .ra: lr
STACK CFI 32058 .cfa: sp 20 +
STACK CFI 3205c .cfa: sp 144 +
STACK CFI 32060 .ra: .cfa -4 + ^ r4: .cfa -20 + ^ r5: .cfa -16 + ^ r6: .cfa -12 + ^ r7: .cfa -8 + ^
STACK CFI INIT 32100 cc .cfa: sp 0 + .ra: lr
STACK CFI 3210c .cfa: sp 8 +
STACK CFI 32114 .cfa: sp 24 +
STACK CFI 3211c .ra: .cfa -4 + ^ r4: .cfa -8 + ^
STACK CFI INIT 321cc 74 .cfa: sp 0 + .ra: lr
STACK CFI 321d4 .cfa: sp 4 +
STACK CFI 321dc .cfa: sp 16 +
STACK CFI 321e0 .ra: .cfa -4 + ^
STACK CFI INIT 32240 b0 .cfa: sp 0 + .ra: lr
STACK CFI 32244 .cfa: sp 16 +
STACK CFI 32248 .ra: .cfa -4 + ^ r4: .cfa -16 + ^ r5: .cfa -12 + ^ r6: .cfa -8 + ^
STACK CFI INIT 322f0 a0 .cfa: sp 0 + .ra: lr
STACK CFI 322f4 .cfa: sp 24 +
STACK CFI 322f8 .cfa: sp 112 +
STACK CFI 322fc .ra: .cfa -4 + ^ r4: .cfa -24 + ^ r5: .cfa -20 + ^ r6: .cfa -16 + ^ r7: .cfa -12 + ^ r8: .cfa -8 + ^
STACK CFI INIT 32390 6c .cfa: sp 0 + .ra: lr
STACK CFI 32394 .cfa: sp 12 +
STACK CFI 32398 .ra: .cfa -4 + ^ r4: .cfa -12 + ^ r5: .cfa -8 + ^
STACK CFI 3239c .cfa: sp 24 +
STACK CFI INIT 323fc 290 .cfa: sp 0 + .ra: lr
STACK CFI 32404 .cfa: sp 24 +
STACK CFI 32408 .ra: .cfa -4 + ^ r4: .cfa -24 + ^ r5: .cfa -20 + ^ r6: .cfa -16 + ^ r7: .cfa -12 + ^ r8: .cfa -8 + ^
STACK CFI 3240c .cfa: sp 64 +
STACK CFI INIT 3268c 8c .cfa: sp 0 + .ra: lr
STACK CFI 32694 .cfa: sp 16 +
STACK CFI 32698 .ra: .cfa -4 + ^ r4: .cfa -16 + ^ r5: .cfa -12 + ^ r6: .cfa -8 + ^
STACK CFI INIT 32718 e0 .cfa: sp 0 + .ra: lr
STACK CFI 32720 .cfa: sp 8 +
STACK CFI 32724 .ra: .cfa -4 + ^ r4: .cfa -8 + ^
STACK CFI 32728 .cfa: sp 456 +
STACK CFI INIT 327f8 15c .cfa: sp 0 + .ra: lr
STACK CFI 327fc .cfa: sp 24 +
STACK CFI 32804 .cfa: sp 32 +
STACK CFI 3280c .ra: .cfa -4 + ^ r4: .cfa -24 + ^ r5: .cfa -20 + ^ r6: .cfa -16 + ^ r7: .cfa -12 + ^ r8: .cfa -8 + ^
STACK CFI INIT 32954 108 .cfa: sp 0 + .ra: lr
STACK CFI 32958 .cfa: sp 28 +
STACK CFI 3295c .ra: .cfa -4 + ^ r10: .cfa -8 + ^ r4: .cfa -28 + ^ r5: .cfa -24 + ^ r6: .cfa -20 + ^ r7: .cfa -16 + ^ r8: .cfa -12 + ^
STACK CFI 32960 .cfa: sp 64 +
STACK CFI INIT 32a5c 1670 .cfa: sp 0 + .ra: lr
STACK CFI 32a60 .cfa: sp 36 +
STACK CFI 32a64 .ra: .cfa -4 + ^ r10: .cfa -12 + ^ r11: .cfa -8 + ^ r4: .cfa -36 + ^ r5: .cfa -32 + ^ r6: .cfa -28 + ^ r7: .cfa -24 + ^ r8: .cfa -20 + ^ r9: .cfa -16 + ^
STACK CFI 32a68 .cfa: sp 368 +
STACK CFI INIT 340cc 17c .cfa: sp 0 + .ra: lr
STACK CFI 340d8 .cfa: sp 20 +
STACK CFI 340e0 .cfa: sp 32 +
STACK CFI 340e4 .ra: .cfa -4 + ^ r4: .cfa -20 + ^ r5: .cfa -16 + ^ r6: .cfa -12 + ^ r7: .cfa -8 + ^
STACK CFI INIT 34248 78 .cfa: sp 0 + .ra: lr
STACK CFI 3424c .cfa: sp 16 +
STACK CFI 34250 .ra: .cfa -4 + ^ r4: .cfa -16 + ^ r5: .cfa -12 + ^ r6: .cfa -8 + ^
STACK CFI INIT 342c0 54 .cfa: sp 0 + .ra: lr
STACK CFI 342c4 .cfa: sp 16 +
STACK CFI 342c8 .ra: .cfa -4 + ^ r4: .cfa -16 + ^ r5: .cfa -12 + ^ r6: .cfa -8 + ^
STACK CFI INIT 34314 d0 .cfa: sp 0 + .ra: lr
STACK CFI 34318 .cfa: sp 24 +
STACK CFI 3431c .ra: .cfa -4 + ^ r4: .cfa -24 + ^ r5: .cfa -20 + ^ r6: .cfa -16 + ^ r7: .cfa -12 + ^ r8: .cfa -8 + ^
STACK CFI INIT 343e4 638 .cfa: sp 0 + .ra: lr
STACK CFI 343e8 .cfa: sp 24 +
STACK CFI 343ec .ra: .cfa -4 + ^ r3: .cfa -24 + ^ r4: .cfa -20 + ^ r5: .cfa -16 + ^ r6: .cfa -12 + ^ r7: .cfa -8 + ^
STACK CFI INIT 34a1c 4c .cfa: sp 0 + .ra: lr
STACK CFI INIT 34a68 ac0 .cfa: sp 0 + .ra: lr
STACK CFI 34a6c .cfa: sp 36 +
STACK CFI 34a70 .cfa: sp 192 +
STACK CFI 34a80 .ra: .cfa -4 + ^ r10: .cfa -12 + ^ r11: .cfa -8 + ^ r4: .cfa -36 + ^ r5: .cfa -32 + ^ r6: .cfa -28 + ^ r7: .cfa -24 + ^ r8: .cfa -20 + ^ r9: .cfa -16 + ^
STACK CFI INIT 35528 11c .cfa: sp 0 + .ra: lr
STACK CFI 3552c .cfa: sp 16 +
STACK CFI 35530 .ra: .cfa -4 + ^ r4: .cfa -16 + ^ r5: .cfa -12 + ^ r6: .cfa -8 + ^
STACK CFI INIT 35644 3b4 .cfa: sp 0 + .ra: lr
STACK CFI 35648 .cfa: sp 24 +
STACK CFI 3564c .ra: .cfa -4 + ^ r4: .cfa -24 + ^ r5: .cfa -20 + ^ r6: .cfa -16 + ^ r7: .cfa -12 + ^ r8: .cfa -8 + ^
STACK CFI 35658 .cfa: sp 48 +
STACK CFI INIT 359f8 90 .cfa: sp 0 + .ra: lr
STACK CFI 35a00 .cfa: sp 16 +
STACK CFI 35a04 .ra: .cfa -4 + ^ r4: .cfa -16 + ^ r5: .cfa -12 + ^ r6: .cfa -8 + ^
STACK CFI INIT 35a88 40 .cfa: sp 0 + .ra: lr
STACK CFI INIT 35ac8 94 .cfa: sp 0 + .ra: lr
STACK CFI INIT 35b5c 4 .cfa: sp 0 + .ra: lr
STACK CFI INIT 35b60 4 .cfa: sp 0 + .ra: lr
STACK CFI INIT 35b64 84 .cfa: sp 0 + .ra: lr
STACK CFI 35b74 .cfa: sp 8 +
STACK CFI 35b84 .ra: .cfa -4 + ^ r4: .cfa -8 + ^
STACK CFI INIT 35be8 2b0 .cfa: sp 0 + .ra: lr
STACK CFI 35bec .cfa: sp 28 +
STACK CFI 35bf0 .ra: .cfa -4 + ^ r10: .cfa -8 + ^ r4: .cfa -28 + ^ r5: .cfa -24 + ^ r6: .cfa -20 + ^ r7: .cfa -16 + ^ r8: .cfa -12 + ^
STACK CFI 35c08 .cfa: sp 48 +
STACK CFI INIT 35e98 4 .cfa: sp 0 + .ra: lr
STACK CFI INIT 35e9c 64 .cfa: sp 0 + .ra: lr
STACK CFI 35ea0 .cfa: sp 16 +
STACK CFI 35ea4 .ra: .cfa -4 + ^ r3: .cfa -16 + ^ r4: .cfa -12 + ^ r5: .cfa -8 + ^
STACK CFI INIT 35f00 14 .cfa: sp 0 + .ra: lr
STACK CFI 35f04 .cfa: sp 8 +
STACK CFI 35f08 .ra: .cfa -4 + ^ r4: .cfa -8 + ^
STACK CFI INIT 35f14 78 .cfa: sp 0 + .ra: lr
STACK CFI INIT 35f8c 10 .cfa: sp 0 + .ra: lr
STACK CFI INIT 35f9c 14 .cfa: sp 0 + .ra: lr
STACK CFI 35fa0 .cfa: sp 8 + .ra: .cfa -4 + ^ r4: .cfa -8 + ^
STACK CFI INIT 35fb0 14 .cfa: sp 0 + .ra: lr
STACK CFI 35fb4 .cfa: sp 8 + .ra: .cfa -4 + ^ r4: .cfa -8 + ^
STACK CFI INIT 35fc4 118 .cfa: sp 0 + .ra: lr
STACK CFI 35fc8 .cfa: sp 24 +
STACK CFI 35fcc .ra: .cfa -4 + ^ r4: .cfa -24 + ^ r5: .cfa -20 + ^ r6: .cfa -16 + ^ r7: .cfa -12 + ^ r8: .cfa -8 + ^
STACK CFI 35fd4 .cfa: sp 2088 +
STACK CFI INIT 360dc c0 .cfa: sp 0 + .ra: lr
STACK CFI 360e0 .cfa: sp 12 +
STACK CFI 360e4 .ra: .cfa -4 + ^ r4: .cfa -12 + ^ r5: .cfa -8 + ^
STACK CFI 36100 .cfa: sp 2076 +
STACK CFI 36104 .cfa: sp 2080 +
STACK CFI INIT 3619c d8 .cfa: sp 0 + .ra: lr
STACK CFI 361a0 .cfa: sp 20 +
STACK CFI 361a4 .ra: .cfa -4 + ^ r4: .cfa -20 + ^ r5: .cfa -16 + ^ r6: .cfa -12 + ^ r7: .cfa -8 + ^
STACK CFI 361c4 .cfa: sp 2084 +
STACK CFI 361c8 .cfa: sp 2088 +
STACK CFI INIT 36274 188 .cfa: sp 0 + .ra: lr
STACK CFI 36278 .cfa: sp 32 +
STACK CFI 3627c .ra: .cfa -4 + ^ r10: .cfa -8 + ^ r4: .cfa -32 + ^ r5: .cfa -28 + ^ r6: .cfa -24 + ^ r7: .cfa -20 + ^ r8: .cfa -16 + ^ r9: .cfa -12 + ^
STACK CFI 36280 .cfa: sp 2096 +
STACK CFI INIT 363fc 1a8 .cfa: sp 0 + .ra: lr
STACK CFI 36400 .cfa: sp 36 +
STACK CFI 36404 .cfa: sp 2116 +
STACK CFI 36408 .cfa: sp 2128 +
STACK CFI 3640c .ra: .cfa -4 + ^ r10: .cfa -12 + ^ r11: .cfa -8 + ^ r4: .cfa -36 + ^ r5: .cfa -32 + ^ r6: .cfa -28 + ^ r7: .cfa -24 + ^ r8: .cfa -20 + ^ r9: .cfa -16 + ^
STACK CFI INIT 365a4 178 .cfa: sp 0 + .ra: lr
STACK CFI 365a8 .cfa: sp 28 +
STACK CFI 365ac .ra: .cfa -4 + ^ r10: .cfa -8 + ^ r4: .cfa -28 + ^ r5: .cfa -24 + ^ r6: .cfa -20 + ^ r7: .cfa -16 + ^ r8: .cfa -12 + ^
STACK CFI 365b4 .cfa: sp 2092 +
STACK CFI 365c0 .cfa: sp 2104 +
STACK CFI INIT 3671c d8 .cfa: sp 0 + .ra: lr
STACK CFI 36720 .cfa: sp 20 +
STACK CFI 36724 .ra: .cfa -4 + ^ r4: .cfa -20 + ^ r5: .cfa -16 + ^ r6: .cfa -12 + ^ r7: .cfa -8 + ^
STACK CFI 3672c .cfa: sp 2084 +
STACK CFI 36730 .cfa: sp 2088 +
STACK CFI INIT 367f4 c0 .cfa: sp 0 + .ra: lr
STACK CFI 367f8 .cfa: sp 12 +
STACK CFI 367fc .ra: .cfa -4 + ^ r4: .cfa -12 + ^ r5: .cfa -8 + ^
STACK CFI 36804 .cfa: sp 2076 +
STACK CFI 36808 .cfa: sp 2080 +
STACK CFI INIT 368b4 c0 .cfa: sp 0 + .ra: lr
STACK CFI 368b8 .cfa: sp 12 +
STACK CFI 368bc .ra: .cfa -4 + ^ r4: .cfa -12 + ^ r5: .cfa -8 + ^
STACK CFI 368d8 .cfa: sp 2076 +
STACK CFI 368dc .cfa: sp 2080 +
STACK CFI INIT 36974 120 .cfa: sp 0 + .ra: lr
STACK CFI 36978 .cfa: sp 24 +
STACK CFI 3697c .ra: .cfa -4 + ^ r4: .cfa -24 + ^ r5: .cfa -20 + ^ r6: .cfa -16 + ^ r7: .cfa -12 + ^ r8: .cfa -8 + ^
STACK CFI 36984 .cfa: sp 2088 +
STACK CFI INIT 36a94 164 .cfa: sp 0 + .ra: lr
STACK CFI 36a98 .cfa: sp 24 +
STACK CFI 36a9c .cfa: sp 2088 +
STACK CFI 36aa0 .ra: .cfa -4 + ^ r4: .cfa -24 + ^ r5: .cfa -20 + ^ r6: .cfa -16 + ^ r7: .cfa -12 + ^ r8: .cfa -8 + ^
STACK CFI INIT 36bf8 120 .cfa: sp 0 + .ra: lr
STACK CFI 36bfc .cfa: sp 24 +
STACK CFI 36c00 .ra: .cfa -4 + ^ r4: .cfa -24 + ^ r5: .cfa -20 + ^ r6: .cfa -16 + ^ r7: .cfa -12 + ^ r8: .cfa -8 + ^
STACK CFI 36c20 .cfa: sp 2088 +
STACK CFI INIT 36d18 6c4 .cfa: sp 0 + .ra: lr
STACK CFI 36d1c .cfa: sp 36 +
STACK CFI 36d20 .ra: .cfa -4 + ^ r10: .cfa -12 + ^ r11: .cfa -8 + ^ r4: .cfa -36 + ^ r5: .cfa -32 + ^ r6: .cfa -28 + ^ r7: .cfa -24 + ^ r8: .cfa -20 + ^ r9: .cfa -16 + ^
STACK CFI 36d30 .cfa: sp 49188 +
STACK CFI 36d34 .cfa: sp 49240 +
STACK CFI INIT 373dc cc .cfa: sp 0 + .ra: lr
STACK CFI 373e0 .cfa: sp 24 +
STACK CFI 373e4 .ra: .cfa -4 + ^ r4: .cfa -24 + ^ r5: .cfa -20 + ^ r6: .cfa -16 + ^ r7: .cfa -12 + ^ r8: .cfa -8 + ^
STACK CFI 37404 .cfa: sp 48 +
STACK CFI INIT 374a8 d8 .cfa: sp 0 + .ra: lr
STACK CFI 374ac .cfa: sp 28 +
STACK CFI 374b0 .ra: .cfa -4 + ^ r10: .cfa -8 + ^ r4: .cfa -28 + ^ r5: .cfa -24 + ^ r6: .cfa -20 + ^ r7: .cfa -16 + ^ r8: .cfa -12 + ^
STACK CFI 374d0 .cfa: sp 56 +
STACK CFI INIT 37580 110 .cfa: sp 0 + .ra: lr
STACK CFI 37584 .cfa: sp 36 +
STACK CFI 37588 .ra: .cfa -4 + ^ r10: .cfa -12 + ^ r11: .cfa -8 + ^ r4: .cfa -36 + ^ r5: .cfa -32 + ^ r6: .cfa -28 + ^ r7: .cfa -24 + ^ r8: .cfa -20 + ^ r9: .cfa -16 + ^
STACK CFI 375a8 .cfa: sp 88 +
STACK CFI INIT 37690 e4 .cfa: sp 0 + .ra: lr
STACK CFI 37694 .cfa: sp 32 +
STACK CFI 37698 .ra: .cfa -4 + ^ r10: .cfa -8 + ^ r4: .cfa -32 + ^ r5: .cfa -28 + ^ r6: .cfa -24 + ^ r7: .cfa -20 + ^ r8: .cfa -16 + ^ r9: .cfa -12 + ^
STACK CFI 376b8 .cfa: sp 56 +
STACK CFI INIT 37774 d8 .cfa: sp 0 + .ra: lr
STACK CFI 37778 .cfa: sp 28 +
STACK CFI 3777c .ra: .cfa -4 + ^ r10: .cfa -8 + ^ r4: .cfa -28 + ^ r5: .cfa -24 + ^ r6: .cfa -20 + ^ r7: .cfa -16 + ^ r8: .cfa -12 + ^
STACK CFI 3779c .cfa: sp 56 +
STACK CFI INIT 3784c e4 .cfa: sp 0 + .ra: lr
STACK CFI 37850 .cfa: sp 32 +
STACK CFI 37854 .ra: .cfa -4 + ^ r10: .cfa -8 + ^ r4: .cfa -32 + ^ r5: .cfa -28 + ^ r6: .cfa -24 + ^ r7: .cfa -20 + ^ r8: .cfa -16 + ^ r9: .cfa -12 + ^
STACK CFI 37874 .cfa: sp 56 +
STACK CFI INIT 37930 f0 .cfa: sp 0 + .ra: lr
STACK CFI 37934 .cfa: sp 36 +
STACK CFI 37938 .ra: .cfa -4 + ^ r10: .cfa -12 + ^ r11: .cfa -8 + ^ r4: .cfa -36 + ^ r5: .cfa -32 + ^ r6: .cfa -28 + ^ r7: .cfa -24 + ^ r8: .cfa -20 + ^ r9: .cfa -16 + ^
STACK CFI 37958 .cfa: sp 64 +
STACK CFI INIT 37a20 e4 .cfa: sp 0 + .ra: lr
STACK CFI 37a24 .cfa: sp 32 +
STACK CFI 37a28 .ra: .cfa -4 + ^ r10: .cfa -8 + ^ r4: .cfa -32 + ^ r5: .cfa -28 + ^ r6: .cfa -24 + ^ r7: .cfa -20 + ^ r8: .cfa -16 + ^ r9: .cfa -12 + ^
STACK CFI 37a48 .cfa: sp 56 +
STACK CFI INIT 37b04 114 .cfa: sp 0 + .ra: lr
STACK CFI 37b08 .cfa: sp 36 +
STACK CFI 37b0c .ra: .cfa -4 + ^ r10: .cfa -12 + ^ r11: .cfa -8 + ^ r4: .cfa -36 + ^ r5: .cfa -32 + ^ r6: .cfa -28 + ^ r7: .cfa -24 + ^ r8: .cfa -20 + ^ r9: .cfa -16 + ^
STACK CFI 37b2c .cfa: sp 88 +
STACK CFI INIT 37c18 104 .cfa: sp 0 + .ra: lr
STACK CFI 37c1c .cfa: sp 36 +
STACK CFI 37c20 .ra: .cfa -4 + ^ r10: .cfa -12 + ^ r11: .cfa -8 + ^ r4: .cfa -36 + ^ r5: .cfa -32 + ^ r6: .cfa -28 + ^ r7: .cfa -24 + ^ r8: .cfa -20 + ^ r9: .cfa -16 + ^
STACK CFI 37c40 .cfa: sp 80 +
STACK CFI INIT 37d1c d8 .cfa: sp 0 + .ra: lr
STACK CFI 37d20 .cfa: sp 28 +
STACK CFI 37d24 .ra: .cfa -4 + ^ r10: .cfa -8 + ^ r4: .cfa -28 + ^ r5: .cfa -24 + ^ r6: .cfa -20 + ^ r7: .cfa -16 + ^ r8: .cfa -12 + ^
STACK CFI 37d44 .cfa: sp 56 +
STACK CFI INIT 37df4 cc .cfa: sp 0 + .ra: lr
STACK CFI 37df8 .cfa: sp 24 +
STACK CFI 37dfc .ra: .cfa -4 + ^ r4: .cfa -24 + ^ r5: .cfa -20 + ^ r6: .cfa -16 + ^ r7: .cfa -12 + ^ r8: .cfa -8 + ^
STACK CFI 37e1c .cfa: sp 48 +
STACK CFI INIT 37ec0 20 .cfa: sp 0 + .ra: lr
STACK CFI INIT 37ee0 4 .cfa: sp 0 + .ra: lr
STACK CFI INIT 37ee4 54 .cfa: sp 0 + .ra: lr
STACK CFI 37ee8 .cfa: sp 20 +
STACK CFI 37eec .ra: .cfa -4 + ^ r4: .cfa -20 + ^ r5: .cfa -16 + ^ r6: .cfa -12 + ^ r7: .cfa -8 + ^
STACK CFI 37ef0 .cfa: sp 32 +
STACK CFI INIT 37f38 50 .cfa: sp 0 + .ra: lr
STACK CFI 37f3c .cfa: sp 8 +
STACK CFI 37f44 .cfa: sp 24 +
STACK CFI 37f48 .ra: .cfa -4 + ^ r4: .cfa -8 + ^
STACK CFI INIT 37f88 8 .cfa: sp 0 + .ra: lr
STACK CFI INIT 37f90 48 .cfa: sp 0 + .ra: lr
STACK CFI 37f94 .cfa: sp 8 +
STACK CFI 37f9c .cfa: sp 16 +
STACK CFI 37fa0 .ra: .cfa -4 + ^ r4: .cfa -8 + ^
STACK CFI INIT 37fd8 bc .cfa: sp 0 + .ra: lr
STACK CFI 37fdc .cfa: sp 28 +
STACK CFI 37fe4 .cfa: sp 48 +
STACK CFI 37fe8 .ra: .cfa -4 + ^ r10: .cfa -8 + ^ r4: .cfa -28 + ^ r5: .cfa -24 + ^ r6: .cfa -20 + ^ r7: .cfa -16 + ^ r8: .cfa -12 + ^
STACK CFI INIT 38094 78 .cfa: sp 0 + .ra: lr
STACK CFI 38098 .cfa: sp 24 +
STACK CFI 3809c .cfa: sp 40 +
STACK CFI 380a0 .ra: .cfa -4 + ^ r4: .cfa -24 + ^ r5: .cfa -20 + ^ r6: .cfa -16 + ^ r8: .cfa -12 + ^ r9: .cfa -8 + ^
STACK CFI INIT 3810c 10c .cfa: sp 0 + .ra: lr
STACK CFI 38110 .cfa: sp 28 +
STACK CFI 38114 .ra: .cfa -4 + ^ r10: .cfa -8 + ^ r4: .cfa -28 + ^ r5: .cfa -24 + ^ r6: .cfa -20 + ^ r7: .cfa -16 + ^ r8: .cfa -12 + ^
STACK CFI 3812c .cfa: sp 1048 +
STACK CFI INIT 38218 c .cfa: sp 0 + .ra: lr
STACK CFI INIT 38224 120 .cfa: sp 0 + .ra: lr
STACK CFI 38228 .cfa: sp 24 +
STACK CFI 3822c .ra: .cfa -4 + ^ r4: .cfa -24 + ^ r5: .cfa -20 + ^ r6: .cfa -16 + ^ r7: .cfa -12 + ^ r8: .cfa -8 + ^
STACK CFI 38230 .cfa: sp 32 +
STACK CFI INIT 38344 8 .cfa: sp 0 + .ra: lr
STACK CFI INIT 3834c 8 .cfa: sp 0 + .ra: lr
STACK CFI INIT 38354 84 .cfa: sp 0 + .ra: lr
STACK CFI 38358 .cfa: sp 28 +
STACK CFI 3835c .cfa: sp 48 +
STACK CFI 38360 .ra: .cfa -4 + ^ r10: .cfa -8 + ^ r4: .cfa -28 + ^ r5: .cfa -24 + ^ r6: .cfa -20 + ^ r7: .cfa -16 + ^ r8: .cfa -12 + ^
STACK CFI INIT 383d8 18 .cfa: sp 0 + .ra: lr
STACK CFI 383dc .cfa: sp 8 +
STACK CFI 383e0 .ra: .cfa -4 + ^ r4: .cfa -8 + ^
STACK CFI INIT 383f0 2c .cfa: sp 0 + .ra: lr
STACK CFI 383f4 .cfa: sp 8 +
STACK CFI 383f8 .ra: .cfa -4 + ^ r4: .cfa -8 + ^
STACK CFI INIT 3841c 16c .cfa: sp 0 + .ra: lr
STACK CFI 38420 .cfa: sp 28 +
STACK CFI 38424 .ra: .cfa -4 + ^ r10: .cfa -8 + ^ r4: .cfa -28 + ^ r5: .cfa -24 + ^ r6: .cfa -20 + ^ r7: .cfa -16 + ^ r8: .cfa -12 + ^
STACK CFI 38428 .cfa: sp 2092 +
STACK CFI 38430 .cfa: sp 2104 +
STACK CFI INIT 38588 168 .cfa: sp 0 + .ra: lr
STACK CFI 3858c .cfa: sp 28 +
STACK CFI 38590 .ra: .cfa -4 + ^ r10: .cfa -8 + ^ r4: .cfa -28 + ^ r5: .cfa -24 + ^ r6: .cfa -20 + ^ r7: .cfa -16 + ^ r8: .cfa -12 + ^
STACK CFI 38598 .cfa: sp 2092 +
STACK CFI 385a4 .cfa: sp 2104 +
STACK CFI INIT 386f0 ac .cfa: sp 0 + .ra: lr
STACK CFI 386f4 .cfa: sp 36 +
STACK CFI 386f8 .ra: .cfa -4 + ^ r10: .cfa -12 + ^ r11: .cfa -8 + ^ r4: .cfa -36 + ^ r5: .cfa -32 + ^ r6: .cfa -28 + ^ r7: .cfa -24 + ^ r8: .cfa -20 + ^ r9: .cfa -16 + ^
STACK CFI 38718 .cfa: sp 56 +
STACK CFI INIT 3879c ac .cfa: sp 0 + .ra: lr
STACK CFI 387a0 .cfa: sp 36 +
STACK CFI 387a4 .ra: .cfa -4 + ^ r10: .cfa -12 + ^ r11: .cfa -8 + ^ r4: .cfa -36 + ^ r5: .cfa -32 + ^ r6: .cfa -28 + ^ r7: .cfa -24 + ^ r8: .cfa -20 + ^ r9: .cfa -16 + ^
STACK CFI 387c4 .cfa: sp 56 +
STACK CFI INIT 38848 20 .cfa: sp 0 + .ra: lr
STACK CFI INIT 38868 4 .cfa: sp 0 + .ra: lr
STACK CFI INIT 3886c d0 .cfa: sp 0 + .ra: lr
STACK CFI 38870 .cfa: sp 28 +
STACK CFI 38874 .ra: .cfa -4 + ^ r10: .cfa -8 + ^ r4: .cfa -28 + ^ r5: .cfa -24 + ^ r6: .cfa -20 + ^ r7: .cfa -16 + ^ r8: .cfa -12 + ^
STACK CFI 38878 .cfa: sp 48 +
STACK CFI INIT 3893c 50 .cfa: sp 0 + .ra: lr
STACK CFI 38940 .cfa: sp 8 +
STACK CFI 38948 .cfa: sp 24 +
STACK CFI 3894c .ra: .cfa -4 + ^ r4: .cfa -8 + ^
STACK CFI INIT 3898c 60 .cfa: sp 0 + .ra: lr
STACK CFI 38990 .cfa: sp 24 +
STACK CFI 38994 .ra: .cfa -4 + ^ r4: .cfa -24 + ^ r5: .cfa -20 + ^ r6: .cfa -16 + ^ r7: .cfa -12 + ^ r8: .cfa -8 + ^
STACK CFI INIT 389ec 60 .cfa: sp 0 + .ra: lr
STACK CFI 389f0 .cfa: sp 24 +
STACK CFI 389f4 .ra: .cfa -4 + ^ r4: .cfa -24 + ^ r5: .cfa -20 + ^ r6: .cfa -16 + ^ r7: .cfa -12 + ^ r8: .cfa -8 + ^
STACK CFI INIT 3e260 3c .cfa: sp 0 + .ra: lr
STACK CFI 3e268 .cfa: sp 8 +
STACK CFI 3e26c .ra: .cfa -4 + ^ r4: .cfa -8 + ^
STACK CFI INIT 38a4c a8 .cfa: sp 0 + .ra: lr
STACK CFI 38a50 .cfa: sp 12 +
STACK CFI 38a54 .ra: .cfa -4 + ^ r4: .cfa -12 + ^ r5: .cfa -8 + ^
STACK CFI 38a74 .cfa: sp 32 +
STACK CFI INIT 38afc 94 .cfa: sp 0 + .ra: lr
STACK CFI 38b00 .cfa: sp 16 +
STACK CFI 38b04 .ra: .cfa -4 + ^ r3: .cfa -16 + ^ r4: .cfa -12 + ^ r5: .cfa -8 + ^
STACK CFI INIT 38b90 74 .cfa: sp 0 + .ra: lr
STACK CFI 38b94 .cfa: sp 8 +
STACK CFI 38b98 .ra: .cfa -4 + ^ r4: .cfa -8 + ^
STACK CFI INIT 38c04 fc .cfa: sp 0 + .ra: lr
STACK CFI 38c08 .cfa: sp 36 +
STACK CFI 38c0c .ra: .cfa -4 + ^ r10: .cfa -12 + ^ r11: .cfa -8 + ^ r4: .cfa -36 + ^ r5: .cfa -32 + ^ r6: .cfa -28 + ^ r7: .cfa -24 + ^ r8: .cfa -20 + ^ r9: .cfa -16 + ^
STACK CFI 38c10 .cfa: sp 48 +
STACK CFI INIT 38d00 2d8 .cfa: sp 0 + .ra: lr
STACK CFI 38d04 .cfa: sp 36 +
STACK CFI 38d08 .cfa: sp 72 +
STACK CFI 38d30 .ra: .cfa -4 + ^ r10: .cfa -12 + ^ r11: .cfa -8 + ^ r4: .cfa -36 + ^ r5: .cfa -32 + ^ r6: .cfa -28 + ^ r7: .cfa -24 + ^ r8: .cfa -20 + ^ r9: .cfa -16 + ^
STACK CFI INIT 38fd8 258 .cfa: sp 0 + .ra: lr
STACK CFI 38fdc .cfa: sp 36 +
STACK CFI 38fe0 .ra: .cfa -4 + ^ r10: .cfa -12 + ^ r11: .cfa -8 + ^ r4: .cfa -36 + ^ r5: .cfa -32 + ^ r6: .cfa -28 + ^ r7: .cfa -24 + ^ r8: .cfa -20 + ^ r9: .cfa -16 + ^
STACK CFI 38fe4 .cfa: sp 56 +
STACK CFI INIT 39230 2d8 .cfa: sp 0 + .ra: lr
STACK CFI 39234 .cfa: sp 36 +
STACK CFI 39238 .cfa: sp 72 +
STACK CFI 39260 .ra: .cfa -4 + ^ r10: .cfa -12 + ^ r11: .cfa -8 + ^ r4: .cfa -36 + ^ r5: .cfa -32 + ^ r6: .cfa -28 + ^ r7: .cfa -24 + ^ r8: .cfa -20 + ^ r9: .cfa -16 + ^
STACK CFI INIT 39508 12c .cfa: sp 0 + .ra: lr
STACK CFI 3950c .cfa: sp 36 +
STACK CFI 39510 .ra: .cfa -4 + ^ r10: .cfa -12 + ^ r11: .cfa -8 + ^ r4: .cfa -36 + ^ r5: .cfa -32 + ^ r6: .cfa -28 + ^ r7: .cfa -24 + ^ r8: .cfa -20 + ^ r9: .cfa -16 + ^
STACK CFI 39514 .cfa: sp 64 +
STACK CFI INIT 39634 20c .cfa: sp 0 + .ra: lr
STACK CFI 39638 .cfa: sp 36 +
STACK CFI 3963c .ra: .cfa -4 + ^ r10: .cfa -12 + ^ r11: .cfa -8 + ^ r4: .cfa -36 + ^ r5: .cfa -32 + ^ r6: .cfa -28 + ^ r7: .cfa -24 + ^ r8: .cfa -20 + ^ r9: .cfa -16 + ^
STACK CFI 39640 .cfa: sp 56 +
STACK CFI INIT 39840 e8 .cfa: sp 0 + .ra: lr
STACK CFI 39844 .cfa: sp 40 +
STACK CFI 39848 .ra: .cfa -4 + ^ r10: .cfa -12 + ^ r11: .cfa -8 + ^ r3: .cfa -40 + ^ r4: .cfa -36 + ^ r5: .cfa -32 + ^ r6: .cfa -28 + ^ r7: .cfa -24 + ^ r8: .cfa -20 + ^ r9: .cfa -16 + ^
STACK CFI INIT 39928 e8 .cfa: sp 0 + .ra: lr
STACK CFI 3992c .cfa: sp 40 +
STACK CFI 39930 .ra: .cfa -4 + ^ r10: .cfa -12 + ^ r11: .cfa -8 + ^ r3: .cfa -40 + ^ r4: .cfa -36 + ^ r5: .cfa -32 + ^ r6: .cfa -28 + ^ r7: .cfa -24 + ^ r8: .cfa -20 + ^ r9: .cfa -16 + ^
STACK CFI INIT 39a10 2d8 .cfa: sp 0 + .ra: lr
STACK CFI 39a14 .cfa: sp 36 +
STACK CFI 39a18 .ra: .cfa -4 + ^ r10: .cfa -12 + ^ r11: .cfa -8 + ^ r4: .cfa -36 + ^ r5: .cfa -32 + ^ r6: .cfa -28 + ^ r7: .cfa -24 + ^ r8: .cfa -20 + ^ r9: .cfa -16 + ^
STACK CFI 39a20 .cfa: sp 48 +
STACK CFI INIT 39ce8 2d8 .cfa: sp 0 + .ra: lr
STACK CFI 39cec .cfa: sp 36 +
STACK CFI 39cf0 .ra: .cfa -4 + ^ r10: .cfa -12 + ^ r11: .cfa -8 + ^ r4: .cfa -36 + ^ r5: .cfa -32 + ^ r6: .cfa -28 + ^ r7: .cfa -24 + ^ r8: .cfa -20 + ^ r9: .cfa -16 + ^
STACK CFI 39cf8 .cfa: sp 48 +
STACK CFI INIT 39fc0 2d4 .cfa: sp 0 + .ra: lr
STACK CFI 39fc4 .cfa: sp 36 +
STACK CFI 39fc8 .ra: .cfa -4 + ^ r10: .cfa -12 + ^ r11: .cfa -8 + ^ r4: .cfa -36 + ^ r5: .cfa -32 + ^ r6: .cfa -28 + ^ r7: .cfa -24 + ^ r8: .cfa -20 + ^ r9: .cfa -16 + ^
STACK CFI 39fd0 .cfa: sp 48 +
STACK CFI INIT 3a294 84 .cfa: sp 0 + .ra: lr
STACK CFI 3a298 .cfa: sp 16 +
STACK CFI 3a29c .ra: .cfa -4 + ^ r4: .cfa -16 + ^ r5: .cfa -12 + ^ r6: .cfa -8 + ^
STACK CFI INIT 3a318 84 .cfa: sp 0 + .ra: lr
STACK CFI 3a31c .cfa: sp 16 +
STACK CFI 3a320 .ra: .cfa -4 + ^ r4: .cfa -16 + ^ r5: .cfa -12 + ^ r6: .cfa -8 + ^
STACK CFI INIT 3a39c 80 .cfa: sp 0 + .ra: lr
STACK CFI 3a3a0 .cfa: sp 16 +
STACK CFI 3a3a4 .ra: .cfa -4 + ^ r3: .cfa -16 + ^ r4: .cfa -12 + ^ r5: .cfa -8 + ^
STACK CFI INIT 3a41c a4 .cfa: sp 0 + .ra: lr
STACK CFI 3a420 .cfa: sp 16 +
STACK CFI 3a424 .ra: .cfa -4 + ^ r4: .cfa -16 + ^ r5: .cfa -12 + ^ r6: .cfa -8 + ^
STACK CFI INIT 3a4c0 7c .cfa: sp 0 + .ra: lr
STACK CFI 3a4c4 .cfa: sp 16 +
STACK CFI 3a4c8 .ra: .cfa -4 + ^ r3: .cfa -16 + ^ r4: .cfa -12 + ^ r5: .cfa -8 + ^
STACK CFI INIT 3a53c 84 .cfa: sp 0 + .ra: lr
STACK CFI 3a540 .cfa: sp 16 +
STACK CFI 3a544 .ra: .cfa -4 + ^ r3: .cfa -16 + ^ r4: .cfa -12 + ^ r5: .cfa -8 + ^
STACK CFI INIT 3a5c0 ac .cfa: sp 0 + .ra: lr
STACK CFI 3a5c4 .cfa: sp 24 +
STACK CFI 3a5c8 .ra: .cfa -4 + ^ r3: .cfa -24 + ^ r4: .cfa -20 + ^ r5: .cfa -16 + ^ r6: .cfa -12 + ^ r7: .cfa -8 + ^
STACK CFI INIT 3a66c 88 .cfa: sp 0 + .ra: lr
STACK CFI 3a670 .cfa: sp 16 +
STACK CFI 3a674 .ra: .cfa -4 + ^ r4: .cfa -16 + ^ r5: .cfa -12 + ^ r6: .cfa -8 + ^
STACK CFI INIT 3a6f4 80 .cfa: sp 0 + .ra: lr
STACK CFI 3a6f8 .cfa: sp 16 +
STACK CFI 3a6fc .ra: .cfa -4 + ^ r3: .cfa -16 + ^ r4: .cfa -12 + ^ r5: .cfa -8 + ^
STACK CFI INIT 3a774 80 .cfa: sp 0 + .ra: lr
STACK CFI 3a778 .cfa: sp 16 +
STACK CFI 3a77c .ra: .cfa -4 + ^ r3: .cfa -16 + ^ r4: .cfa -12 + ^ r5: .cfa -8 + ^
STACK CFI INIT 3a7f4 80 .cfa: sp 0 + .ra: lr
STACK CFI 3a7f8 .cfa: sp 16 +
STACK CFI 3a7fc .ra: .cfa -4 + ^ r3: .cfa -16 + ^ r4: .cfa -12 + ^ r5: .cfa -8 + ^
STACK CFI INIT 3a874 7c .cfa: sp 0 + .ra: lr
STACK CFI 3a878 .cfa: sp 16 +
STACK CFI 3a87c .ra: .cfa -4 + ^ r3: .cfa -16 + ^ r4: .cfa -12 + ^ r5: .cfa -8 + ^
STACK CFI INIT 3a8f0 78 .cfa: sp 0 + .ra: lr
STACK CFI 3a8f4 .cfa: sp 16 +
STACK CFI 3a8f8 .ra: .cfa -4 + ^ r3: .cfa -16 + ^ r4: .cfa -12 + ^ r5: .cfa -8 + ^
STACK CFI INIT 3a968 7c .cfa: sp 0 + .ra: lr
STACK CFI 3a96c .cfa: sp 16 +
STACK CFI 3a970 .ra: .cfa -4 + ^ r3: .cfa -16 + ^ r4: .cfa -12 + ^ r5: .cfa -8 + ^
STACK CFI INIT 3a9e4 7c .cfa: sp 0 + .ra: lr
STACK CFI 3a9e8 .cfa: sp 16 +
STACK CFI 3a9ec .ra: .cfa -4 + ^ r3: .cfa -16 + ^ r4: .cfa -12 + ^ r5: .cfa -8 + ^
STACK CFI INIT 3aa60 8c .cfa: sp 0 + .ra: lr
STACK CFI 3aa64 .cfa: sp 24 +
STACK CFI 3aa68 .ra: .cfa -4 + ^ r3: .cfa -24 + ^ r4: .cfa -20 + ^ r5: .cfa -16 + ^ r6: .cfa -12 + ^ r7: .cfa -8 + ^
STACK CFI INIT 3aaec 80 .cfa: sp 0 + .ra: lr
STACK CFI 3aaf0 .cfa: sp 16 +
STACK CFI 3aaf4 .ra: .cfa -4 + ^ r3: .cfa -16 + ^ r4: .cfa -12 + ^ r5: .cfa -8 + ^
STACK CFI INIT 3ab6c 80 .cfa: sp 0 + .ra: lr
STACK CFI 3ab70 .cfa: sp 16 +
STACK CFI 3ab74 .ra: .cfa -4 + ^ r3: .cfa -16 + ^ r4: .cfa -12 + ^ r5: .cfa -8 + ^
STACK CFI INIT 3abec 7c .cfa: sp 0 + .ra: lr
STACK CFI 3abf0 .cfa: sp 16 +
STACK CFI 3abf4 .ra: .cfa -4 + ^ r3: .cfa -16 + ^ r4: .cfa -12 + ^ r5: .cfa -8 + ^
STACK CFI INIT 3ac68 7c .cfa: sp 0 + .ra: lr
STACK CFI 3ac6c .cfa: sp 16 +
STACK CFI 3ac70 .ra: .cfa -4 + ^ r3: .cfa -16 + ^ r4: .cfa -12 + ^ r5: .cfa -8 + ^
STACK CFI INIT 3ace4 cc .cfa: sp 0 + .ra: lr
STACK CFI 3ace8 .cfa: sp 12 +
STACK CFI 3acec .cfa: sp 1052 +
STACK CFI 3acf0 .cfa: sp 1056 +
STACK CFI 3acf4 .ra: .cfa -4 + ^ r4: .cfa -12 + ^ r5: .cfa -8 + ^
STACK CFI INIT 3adb0 d8 .cfa: sp 0 + .ra: lr
STACK CFI 3adb4 .cfa: sp 20 +
STACK CFI 3adb8 .cfa: sp 2084 +
STACK CFI 3adbc .cfa: sp 2088 +
STACK CFI 3adc0 .ra: .cfa -4 + ^ r4: .cfa -20 + ^ r5: .cfa -16 + ^ r6: .cfa -12 + ^ r7: .cfa -8 + ^
STACK CFI INIT 3e2a4 44 .cfa: sp 0 + .ra: lr
STACK CFI 3e2ac .cfa: sp 8 +
STACK CFI 3e2b0 .ra: .cfa -4 + ^ r4: .cfa -8 + ^
STACK CFI INIT 3ae88 6e0 .cfa: sp 0 + .ra: lr
STACK CFI 3ae8c .cfa: sp 20 +
STACK CFI 3ae90 .ra: .cfa -4 + ^ r4: .cfa -20 + ^ r5: .cfa -16 + ^ r6: .cfa -12 + ^ r7: .cfa -8 + ^
STACK CFI 3aea4 .cfa: sp 56 +
STACK CFI INIT 3b568 134 .cfa: sp 0 + .ra: lr
STACK CFI 3b56c .cfa: sp 28 +
STACK CFI 3b570 .ra: .cfa -4 + ^ r10: .cfa -8 + ^ r4: .cfa -28 + ^ r5: .cfa -24 + ^ r6: .cfa -20 + ^ r7: .cfa -16 + ^ r8: .cfa -12 + ^
STACK CFI 3b590 .cfa: sp 88 +
STACK CFI INIT 3b69c 134 .cfa: sp 0 + .ra: lr
STACK CFI 3b6a0 .cfa: sp 28 +
STACK CFI 3b6a4 .ra: .cfa -4 + ^ r10: .cfa -8 + ^ r4: .cfa -28 + ^ r5: .cfa -24 + ^ r6: .cfa -20 + ^ r7: .cfa -16 + ^ r8: .cfa -12 + ^
STACK CFI 3b6c4 .cfa: sp 88 +
STACK CFI INIT 3b7d0 134 .cfa: sp 0 + .ra: lr
STACK CFI 3b7d4 .cfa: sp 28 +
STACK CFI 3b7d8 .ra: .cfa -4 + ^ r10: .cfa -8 + ^ r4: .cfa -28 + ^ r5: .cfa -24 + ^ r6: .cfa -20 + ^ r7: .cfa -16 + ^ r8: .cfa -12 + ^
STACK CFI 3b7f8 .cfa: sp 88 +
STACK CFI INIT 3b904 134 .cfa: sp 0 + .ra: lr
STACK CFI 3b908 .cfa: sp 28 +
STACK CFI 3b90c .ra: .cfa -4 + ^ r10: .cfa -8 + ^ r4: .cfa -28 + ^ r5: .cfa -24 + ^ r6: .cfa -20 + ^ r7: .cfa -16 + ^ r8: .cfa -12 + ^
STACK CFI 3b92c .cfa: sp 88 +
STACK CFI INIT 3ba38 140 .cfa: sp 0 + .ra: lr
STACK CFI 3ba3c .cfa: sp 32 +
STACK CFI 3ba40 .ra: .cfa -4 + ^ r10: .cfa -8 + ^ r4: .cfa -32 + ^ r5: .cfa -28 + ^ r6: .cfa -24 + ^ r7: .cfa -20 + ^ r8: .cfa -16 + ^ r9: .cfa -12 + ^
STACK CFI 3ba60 .cfa: sp 88 +
STACK CFI INIT 3bb78 134 .cfa: sp 0 + .ra: lr
STACK CFI 3bb7c .cfa: sp 28 +
STACK CFI 3bb80 .ra: .cfa -4 + ^ r10: .cfa -8 + ^ r4: .cfa -28 + ^ r5: .cfa -24 + ^ r6: .cfa -20 + ^ r7: .cfa -16 + ^ r8: .cfa -12 + ^
STACK CFI 3bba0 .cfa: sp 88 +
STACK CFI INIT 3bcac 134 .cfa: sp 0 + .ra: lr
STACK CFI 3bcb0 .cfa: sp 28 +
STACK CFI 3bcb4 .ra: .cfa -4 + ^ r10: .cfa -8 + ^ r4: .cfa -28 + ^ r5: .cfa -24 + ^ r6: .cfa -20 + ^ r7: .cfa -16 + ^ r8: .cfa -12 + ^
STACK CFI 3bcd4 .cfa: sp 88 +
STACK CFI INIT 3bde0 134 .cfa: sp 0 + .ra: lr
STACK CFI 3bde4 .cfa: sp 28 +
STACK CFI 3bde8 .ra: .cfa -4 + ^ r10: .cfa -8 + ^ r4: .cfa -28 + ^ r5: .cfa -24 + ^ r6: .cfa -20 + ^ r7: .cfa -16 + ^ r8: .cfa -12 + ^
STACK CFI 3be08 .cfa: sp 88 +
STACK CFI INIT 3bf14 134 .cfa: sp 0 + .ra: lr
STACK CFI 3bf18 .cfa: sp 28 +
STACK CFI 3bf1c .ra: .cfa -4 + ^ r10: .cfa -8 + ^ r4: .cfa -28 + ^ r5: .cfa -24 + ^ r6: .cfa -20 + ^ r7: .cfa -16 + ^ r8: .cfa -12 + ^
STACK CFI 3bf3c .cfa: sp 88 +
STACK CFI INIT 3c048 134 .cfa: sp 0 + .ra: lr
STACK CFI 3c04c .cfa: sp 28 +
STACK CFI 3c050 .ra: .cfa -4 + ^ r10: .cfa -8 + ^ r4: .cfa -28 + ^ r5: .cfa -24 + ^ r6: .cfa -20 + ^ r7: .cfa -16 + ^ r8: .cfa -12 + ^
STACK CFI 3c070 .cfa: sp 88 +
STACK CFI INIT 3c17c 134 .cfa: sp 0 + .ra: lr
STACK CFI 3c180 .cfa: sp 28 +
STACK CFI 3c184 .ra: .cfa -4 + ^ r10: .cfa -8 + ^ r4: .cfa -28 + ^ r5: .cfa -24 + ^ r6: .cfa -20 + ^ r7: .cfa -16 + ^ r8: .cfa -12 + ^
STACK CFI 3c1a4 .cfa: sp 88 +
STACK CFI INIT 3c2b0 134 .cfa: sp 0 + .ra: lr
STACK CFI 3c2b4 .cfa: sp 28 +
STACK CFI 3c2b8 .ra: .cfa -4 + ^ r10: .cfa -8 + ^ r4: .cfa -28 + ^ r5: .cfa -24 + ^ r6: .cfa -20 + ^ r7: .cfa -16 + ^ r8: .cfa -12 + ^
STACK CFI 3c2d8 .cfa: sp 88 +
STACK CFI INIT 3c3e4 140 .cfa: sp 0 + .ra: lr
STACK CFI 3c3e8 .cfa: sp 32 +
STACK CFI 3c3ec .ra: .cfa -4 + ^ r10: .cfa -8 + ^ r4: .cfa -32 + ^ r5: .cfa -28 + ^ r6: .cfa -24 + ^ r7: .cfa -20 + ^ r8: .cfa -16 + ^ r9: .cfa -12 + ^
STACK CFI 3c40c .cfa: sp 88 +
STACK CFI INIT 3c524 140 .cfa: sp 0 + .ra: lr
STACK CFI 3c528 .cfa: sp 32 +
STACK CFI 3c52c .ra: .cfa -4 + ^ r10: .cfa -8 + ^ r4: .cfa -32 + ^ r5: .cfa -28 + ^ r6: .cfa -24 + ^ r7: .cfa -20 + ^ r8: .cfa -16 + ^ r9: .cfa -12 + ^
STACK CFI 3c54c .cfa: sp 88 +
STACK CFI INIT 3c664 134 .cfa: sp 0 + .ra: lr
STACK CFI 3c668 .cfa: sp 28 +
STACK CFI 3c66c .ra: .cfa -4 + ^ r10: .cfa -8 + ^ r4: .cfa -28 + ^ r5: .cfa -24 + ^ r6: .cfa -20 + ^ r7: .cfa -16 + ^ r8: .cfa -12 + ^
STACK CFI 3c68c .cfa: sp 88 +
STACK CFI INIT 3c798 134 .cfa: sp 0 + .ra: lr
STACK CFI 3c79c .cfa: sp 28 +
STACK CFI 3c7a0 .ra: .cfa -4 + ^ r10: .cfa -8 + ^ r4: .cfa -28 + ^ r5: .cfa -24 + ^ r6: .cfa -20 + ^ r7: .cfa -16 + ^ r8: .cfa -12 + ^
STACK CFI 3c7c0 .cfa: sp 88 +
STACK CFI INIT 3c8cc 134 .cfa: sp 0 + .ra: lr
STACK CFI 3c8d0 .cfa: sp 28 +
STACK CFI 3c8d4 .ra: .cfa -4 + ^ r10: .cfa -8 + ^ r4: .cfa -28 + ^ r5: .cfa -24 + ^ r6: .cfa -20 + ^ r7: .cfa -16 + ^ r8: .cfa -12 + ^
STACK CFI 3c8f4 .cfa: sp 88 +
STACK CFI INIT 3ca00 134 .cfa: sp 0 + .ra: lr
STACK CFI 3ca04 .cfa: sp 28 +
STACK CFI 3ca08 .ra: .cfa -4 + ^ r10: .cfa -8 + ^ r4: .cfa -28 + ^ r5: .cfa -24 + ^ r6: .cfa -20 + ^ r7: .cfa -16 + ^ r8: .cfa -12 + ^
STACK CFI 3ca28 .cfa: sp 88 +
STACK CFI INIT 3cb34 140 .cfa: sp 0 + .ra: lr
STACK CFI 3cb38 .cfa: sp 32 +
STACK CFI 3cb3c .ra: .cfa -4 + ^ r10: .cfa -8 + ^ r4: .cfa -32 + ^ r5: .cfa -28 + ^ r6: .cfa -24 + ^ r7: .cfa -20 + ^ r8: .cfa -16 + ^ r9: .cfa -12 + ^
STACK CFI 3cb5c .cfa: sp 88 +
STACK CFI INIT 3cc74 140 .cfa: sp 0 + .ra: lr
STACK CFI 3cc78 .cfa: sp 32 +
STACK CFI 3cc7c .ra: .cfa -4 + ^ r10: .cfa -8 + ^ r4: .cfa -32 + ^ r5: .cfa -28 + ^ r6: .cfa -24 + ^ r7: .cfa -20 + ^ r8: .cfa -16 + ^ r9: .cfa -12 + ^
STACK CFI 3cc9c .cfa: sp 88 +
STACK CFI INIT 3cdb4 140 .cfa: sp 0 + .ra: lr
STACK CFI 3cdb8 .cfa: sp 32 +
STACK CFI 3cdbc .ra: .cfa -4 + ^ r10: .cfa -8 + ^ r4: .cfa -32 + ^ r5: .cfa -28 + ^ r6: .cfa -24 + ^ r7: .cfa -20 + ^ r8: .cfa -16 + ^ r9: .cfa -12 + ^
STACK CFI 3cddc .cfa: sp 88 +
STACK CFI INIT 3cef4 140 .cfa: sp 0 + .ra: lr
STACK CFI 3cef8 .cfa: sp 32 +
STACK CFI 3cefc .ra: .cfa -4 + ^ r10: .cfa -8 + ^ r4: .cfa -32 + ^ r5: .cfa -28 + ^ r6: .cfa -24 + ^ r7: .cfa -20 + ^ r8: .cfa -16 + ^ r9: .cfa -12 + ^
STACK CFI 3cf1c .cfa: sp 88 +
STACK CFI INIT 3d034 140 .cfa: sp 0 + .ra: lr
STACK CFI 3d038 .cfa: sp 32 +
STACK CFI 3d03c .ra: .cfa -4 + ^ r10: .cfa -8 + ^ r4: .cfa -32 + ^ r5: .cfa -28 + ^ r6: .cfa -24 + ^ r7: .cfa -20 + ^ r8: .cfa -16 + ^ r9: .cfa -12 + ^
STACK CFI 3d05c .cfa: sp 88 +
STACK CFI INIT 3d174 140 .cfa: sp 0 + .ra: lr
STACK CFI 3d178 .cfa: sp 32 +
STACK CFI 3d17c .ra: .cfa -4 + ^ r10: .cfa -8 + ^ r4: .cfa -32 + ^ r5: .cfa -28 + ^ r6: .cfa -24 + ^ r7: .cfa -20 + ^ r8: .cfa -16 + ^ r9: .cfa -12 + ^
STACK CFI 3d19c .cfa: sp 88 +
STACK CFI INIT 3d2b4 140 .cfa: sp 0 + .ra: lr
STACK CFI 3d2b8 .cfa: sp 32 +
STACK CFI 3d2bc .ra: .cfa -4 + ^ r10: .cfa -8 + ^ r4: .cfa -32 + ^ r5: .cfa -28 + ^ r6: .cfa -24 + ^ r7: .cfa -20 + ^ r8: .cfa -16 + ^ r9: .cfa -12 + ^
STACK CFI 3d2dc .cfa: sp 88 +
STACK CFI INIT 3d3f4 14c .cfa: sp 0 + .ra: lr
STACK CFI 3d3f8 .cfa: sp 36 +
STACK CFI 3d3fc .ra: .cfa -4 + ^ r10: .cfa -12 + ^ r11: .cfa -8 + ^ r4: .cfa -36 + ^ r5: .cfa -32 + ^ r6: .cfa -28 + ^ r7: .cfa -24 + ^ r8: .cfa -20 + ^ r9: .cfa -16 + ^
STACK CFI 3d41c .cfa: sp 96 +
STACK CFI INIT 3d540 14c .cfa: sp 0 + .ra: lr
STACK CFI 3d544 .cfa: sp 36 +
STACK CFI 3d548 .ra: .cfa -4 + ^ r10: .cfa -12 + ^ r11: .cfa -8 + ^ r4: .cfa -36 + ^ r5: .cfa -32 + ^ r6: .cfa -28 + ^ r7: .cfa -24 + ^ r8: .cfa -20 + ^ r9: .cfa -16 + ^
STACK CFI 3d568 .cfa: sp 96 +
STACK CFI INIT 3d68c 160 .cfa: sp 0 + .ra: lr
STACK CFI 3d690 .cfa: sp 36 +
STACK CFI 3d694 .ra: .cfa -4 + ^ r10: .cfa -12 + ^ r11: .cfa -8 + ^ r4: .cfa -36 + ^ r5: .cfa -32 + ^ r6: .cfa -28 + ^ r7: .cfa -24 + ^ r8: .cfa -20 + ^ r9: .cfa -16 + ^
STACK CFI 3d6b4 .cfa: sp 112 +
STACK CFI INIT 3d7ec 14c .cfa: sp 0 + .ra: lr
STACK CFI 3d7f0 .cfa: sp 36 +
STACK CFI 3d7f4 .ra: .cfa -4 + ^ r10: .cfa -12 + ^ r11: .cfa -8 + ^ r4: .cfa -36 + ^ r5: .cfa -32 + ^ r6: .cfa -28 + ^ r7: .cfa -24 + ^ r8: .cfa -20 + ^ r9: .cfa -16 + ^
STACK CFI 3d814 .cfa: sp 96 +
STACK CFI INIT 3d938 160 .cfa: sp 0 + .ra: lr
STACK CFI 3d93c .cfa: sp 36 +
STACK CFI 3d940 .ra: .cfa -4 + ^ r10: .cfa -12 + ^ r11: .cfa -8 + ^ r4: .cfa -36 + ^ r5: .cfa -32 + ^ r6: .cfa -28 + ^ r7: .cfa -24 + ^ r8: .cfa -20 + ^ r9: .cfa -16 + ^
STACK CFI 3d960 .cfa: sp 112 +
STACK CFI INIT 3da98 14c .cfa: sp 0 + .ra: lr
STACK CFI 3da9c .cfa: sp 36 +
STACK CFI 3daa0 .ra: .cfa -4 + ^ r10: .cfa -12 + ^ r11: .cfa -8 + ^ r4: .cfa -36 + ^ r5: .cfa -32 + ^ r6: .cfa -28 + ^ r7: .cfa -24 + ^ r8: .cfa -20 + ^ r9: .cfa -16 + ^
STACK CFI 3dac0 .cfa: sp 96 +
STACK CFI INIT 3dbe4 140 .cfa: sp 0 + .ra: lr
STACK CFI 3dbe8 .cfa: sp 32 +
STACK CFI 3dbec .ra: .cfa -4 + ^ r10: .cfa -8 + ^ r4: .cfa -32 + ^ r5: .cfa -28 + ^ r6: .cfa -24 + ^ r7: .cfa -20 + ^ r8: .cfa -16 + ^ r9: .cfa -12 + ^
STACK CFI 3dc0c .cfa: sp 88 +
STACK CFI INIT 3dd24 128 .cfa: sp 0 + .ra: lr
STACK CFI 3dd28 .cfa: sp 24 +
STACK CFI 3dd2c .ra: .cfa -4 + ^ r4: .cfa -24 + ^ r5: .cfa -20 + ^ r6: .cfa -16 + ^ r7: .cfa -12 + ^ r8: .cfa -8 + ^
STACK CFI 3dd4c .cfa: sp 80 +
STACK CFI INIT 3de4c 134 .cfa: sp 0 + .ra: lr
STACK CFI 3de50 .cfa: sp 28 +
STACK CFI 3de54 .ra: .cfa -4 + ^ r10: .cfa -8 + ^ r4: .cfa -28 + ^ r5: .cfa -24 + ^ r6: .cfa -20 + ^ r7: .cfa -16 + ^ r8: .cfa -12 + ^
STACK CFI 3de74 .cfa: sp 88 +
STACK CFI INIT 3df80 134 .cfa: sp 0 + .ra: lr
STACK CFI 3df84 .cfa: sp 28 +
STACK CFI 3df88 .ra: .cfa -4 + ^ r10: .cfa -8 + ^ r4: .cfa -28 + ^ r5: .cfa -24 + ^ r6: .cfa -20 + ^ r7: .cfa -16 + ^ r8: .cfa -12 + ^
STACK CFI 3dfa8 .cfa: sp 88 +
STACK CFI INIT 3e0b4 20 .cfa: sp 0 + .ra: lr
STACK CFI INIT 3e0d4 4 .cfa: sp 0 + .ra: lr
STACK CFI INIT 3e0d8 138 .cfa: sp 0 + .ra: lr
STACK CFI 3e0dc .cfa: sp 36 +
STACK CFI 3e0e0 .ra: .cfa -4 + ^ r10: .cfa -12 + ^ r11: .cfa -8 + ^ r4: .cfa -36 + ^ r5: .cfa -32 + ^ r6: .cfa -28 + ^ r7: .cfa -24 + ^ r8: .cfa -20 + ^ r9: .cfa -16 + ^
STACK CFI 3e0e4 .cfa: sp 48 +
STACK CFI INIT 3e210 50 .cfa: sp 0 + .ra: lr
STACK CFI 3e214 .cfa: sp 8 +
STACK CFI 3e21c .cfa: sp 24 +
STACK CFI 3e220 .ra: .cfa -4 + ^ r4: .cfa -8 + ^
STACK CFI INIT 3e2f0 24 .cfa: sp 0 + .ra: lr
STACK CFI INIT 3e314 24 .cfa: sp 0 + .ra: lr
STACK CFI INIT 3e338 70 .cfa: sp 0 + .ra: lr
STACK CFI 3e348 .cfa: sp 8 +
STACK CFI 3e350 r4: .cfa -8 + ^ r5: .cfa -4 + ^
STACK CFI INIT 3e3a8 6c .cfa: sp 0 + .ra: lr
STACK CFI 3e3ac .cfa: sp 8 +
STACK CFI 3e3b0 .ra: .cfa -4 + ^ r4: .cfa -8 + ^
STACK CFI INIT 3e414 b0 .cfa: sp 0 + .ra: lr
STACK CFI 3e418 .cfa: sp 24 +
STACK CFI 3e41c .ra: .cfa -4 + ^ r3: .cfa -24 + ^ r4: .cfa -20 + ^ r5: .cfa -16 + ^ r6: .cfa -12 + ^ r7: .cfa -8 + ^
STACK CFI INIT 3e4c4 24 .cfa: sp 0 + .ra: lr
STACK CFI INIT 3e4e8 24 .cfa: sp 0 + .ra: lr
STACK CFI INIT 3e50c 24 .cfa: sp 0 + .ra: lr
STACK CFI INIT 3e530 24 .cfa: sp 0 + .ra: lr
STACK CFI INIT 3e554 60 .cfa: sp 0 + .ra: lr
STACK CFI 3e564 .cfa: sp 4 +
STACK CFI 3e56c r4: .cfa -4 + ^
STACK CFI INIT 3e5b4 6c .cfa: sp 0 + .ra: lr
STACK CFI 3e5b8 .cfa: sp 8 +
STACK CFI 3e5bc .ra: .cfa -4 + ^ r4: .cfa -8 + ^
STACK CFI INIT 3e620 24 .cfa: sp 0 + .ra: lr
STACK CFI INIT 3e644 44 .cfa: sp 0 + .ra: lr
STACK CFI INIT 3e688 40 .cfa: sp 0 + .ra: lr
STACK CFI INIT 3e6c8 c .cfa: sp 0 + .ra: lr
STACK CFI INIT 3e6d4 18 .cfa: sp 0 + .ra: lr
STACK CFI 3e6dc .cfa: sp 8 +
STACK CFI 3e6e0 .ra: .cfa -4 + ^ r3: .cfa -8 + ^
STACK CFI INIT 3e6ec 18 .cfa: sp 0 + .ra: lr
STACK CFI 3e6f4 .cfa: sp 8 +
STACK CFI 3e6f8 .ra: .cfa -4 + ^ r3: .cfa -8 + ^
STACK CFI INIT 3e704 18 .cfa: sp 0 + .ra: lr
STACK CFI 3e70c .cfa: sp 8 +
STACK CFI 3e710 .ra: .cfa -4 + ^ r3: .cfa -8 + ^
STACK CFI INIT 3e71c 40 .cfa: sp 0 + .ra: lr
STACK CFI 3e724 .cfa: sp 8 +
STACK CFI 3e72c .ra: .cfa -4 + ^ r4: .cfa -8 + ^
STACK CFI INIT 3e75c 18 .cfa: sp 0 + .ra: lr
STACK CFI 3e764 .cfa: sp 8 +
STACK CFI 3e768 .ra: .cfa -4 + ^ r3: .cfa -8 + ^
STACK CFI INIT 3e774 7c .cfa: sp 0 + .ra: lr
STACK CFI 3e778 .cfa: sp 16 +
STACK CFI 3e77c .ra: .cfa -4 + ^ r3: .cfa -16 + ^ r4: .cfa -12 + ^ r5: .cfa -8 + ^
STACK CFI INIT 3f36c 44 .cfa: sp 0 + .ra: lr
STACK CFI INIT 3f3b0 34 .cfa: sp 0 + .ra: lr
STACK CFI 3f3b8 .cfa: sp 8 +
STACK CFI 3f3bc .ra: .cfa -4 + ^ r4: .cfa -8 + ^
STACK CFI INIT 3f3e4 3c .cfa: sp 0 + .ra: lr
STACK CFI 3f3ec .cfa: sp 8 +
STACK CFI 3f3f0 .ra: .cfa -4 + ^ r4: .cfa -8 + ^
STACK CFI INIT 3e7f0 18 .cfa: sp 0 + .ra: lr
STACK CFI 3e7f8 .cfa: sp 8 +
STACK CFI 3e7fc .ra: .cfa -4 + ^ r3: .cfa -8 + ^
STACK CFI INIT 3e808 18 .cfa: sp 0 + .ra: lr
STACK CFI 3e810 .cfa: sp 8 +
STACK CFI 3e814 .ra: .cfa -4 + ^ r3: .cfa -8 + ^
STACK CFI INIT 3e820 2c .cfa: sp 0 + .ra: lr
STACK CFI 3e824 .cfa: sp 8 +
STACK CFI 3e828 .ra: .cfa -4 + ^ r4: .cfa -8 + ^
STACK CFI INIT 3e84c 134 .cfa: sp 0 + .ra: lr
STACK CFI 3e854 .cfa: sp 20 +
STACK CFI 3e858 .ra: .cfa -4 + ^ r4: .cfa -20 + ^ r5: .cfa -16 + ^ r6: .cfa -12 + ^ r7: .cfa -8 + ^
STACK CFI 3e860 .cfa: sp 40 +
STACK CFI INIT 3e980 c8 .cfa: sp 0 + .ra: lr
STACK CFI 3e988 .cfa: sp 24 +
STACK CFI 3e98c .ra: .cfa -4 + ^ r4: .cfa -24 + ^ r5: .cfa -20 + ^ r6: .cfa -16 + ^ r7: .cfa -12 + ^ r8: .cfa -8 + ^
STACK CFI INIT 3ea48 264 .cfa: sp 0 + .ra: lr
STACK CFI 3ea4c .cfa: sp 36 +
STACK CFI 3ea50 .ra: .cfa -4 + ^ r10: .cfa -12 + ^ r11: .cfa -8 + ^ r4: .cfa -36 + ^ r5: .cfa -32 + ^ r6: .cfa -28 + ^ r7: .cfa -24 + ^ r8: .cfa -20 + ^ r9: .cfa -16 + ^
STACK CFI 3ea60 .cfa: sp 64 +
STACK CFI INIT 3ecac c8 .cfa: sp 0 + .ra: lr
STACK CFI 3ecb4 .cfa: sp 24 +
STACK CFI 3ecb8 .ra: .cfa -4 + ^ r4: .cfa -24 + ^ r5: .cfa -20 + ^ r6: .cfa -16 + ^ r7: .cfa -12 + ^ r8: .cfa -8 + ^
STACK CFI INIT 3ed74 e4 .cfa: sp 0 + .ra: lr
STACK CFI 3ed7c .cfa: sp 28 +
STACK CFI 3ed80 .ra: .cfa -4 + ^ r10: .cfa -8 + ^ r4: .cfa -28 + ^ r5: .cfa -24 + ^ r6: .cfa -20 + ^ r7: .cfa -16 + ^ r8: .cfa -12 + ^
STACK CFI 3ed8c .cfa: sp 40 +
STACK CFI INIT 3ee58 c8 .cfa: sp 0 + .ra: lr
STACK CFI 3ee60 .cfa: sp 24 +
STACK CFI 3ee64 .ra: .cfa -4 + ^ r4: .cfa -24 + ^ r5: .cfa -20 + ^ r6: .cfa -16 + ^ r7: .cfa -12 + ^ r8: .cfa -8 + ^
STACK CFI INIT 3ef20 9c .cfa: sp 0 + .ra: lr
STACK CFI 3ef28 .cfa: sp 24 +
STACK CFI 3ef2c .ra: .cfa -4 + ^ r4: .cfa -24 + ^ r5: .cfa -20 + ^ r6: .cfa -16 + ^ r7: .cfa -12 + ^ r8: .cfa -8 + ^
STACK CFI INIT 3efbc 90 .cfa: sp 0 + .ra: lr
STACK CFI 3efc0 .cfa: sp 24 +
STACK CFI 3efc4 .ra: .cfa -4 + ^ r3: .cfa -24 + ^ r4: .cfa -20 + ^ r5: .cfa -16 + ^ r6: .cfa -12 + ^ r7: .cfa -8 + ^
STACK CFI INIT 3f04c 90 .cfa: sp 0 + .ra: lr
STACK CFI 3f050 .cfa: sp 24 +
STACK CFI 3f054 .ra: .cfa -4 + ^ r3: .cfa -24 + ^ r4: .cfa -20 + ^ r5: .cfa -16 + ^ r6: .cfa -12 + ^ r7: .cfa -8 + ^
STACK CFI INIT 3f0dc 90 .cfa: sp 0 + .ra: lr
STACK CFI 3f0e0 .cfa: sp 24 +
STACK CFI 3f0e4 .ra: .cfa -4 + ^ r3: .cfa -24 + ^ r4: .cfa -20 + ^ r5: .cfa -16 + ^ r6: .cfa -12 + ^ r7: .cfa -8 + ^
STACK CFI INIT 3f16c 90 .cfa: sp 0 + .ra: lr
STACK CFI 3f170 .cfa: sp 24 +
STACK CFI 3f174 .ra: .cfa -4 + ^ r3: .cfa -24 + ^ r4: .cfa -20 + ^ r5: .cfa -16 + ^ r6: .cfa -12 + ^ r7: .cfa -8 + ^
STACK CFI INIT 3f1fc 14c .cfa: sp 0 + .ra: lr
STACK CFI 3f204 .cfa: sp 24 +
STACK CFI 3f20c .ra: .cfa -4 + ^ r4: .cfa -24 + ^ r5: .cfa -20 + ^ r6: .cfa -16 + ^ r7: .cfa -12 + ^ r8: .cfa -8 + ^
STACK CFI INIT 3f348 24 .cfa: sp 0 + .ra: lr
STACK CFI 3f34c .cfa: sp 8 +
STACK CFI 3f350 .ra: .cfa -4 + ^ r4: .cfa -8 + ^
STACK CFI INIT 415dc 4 .cfa: sp 0 + .ra: lr
STACK CFI INIT 415e0 24 .cfa: sp 0 + .ra: lr
STACK CFI 415e8 .cfa: sp 8 +
STACK CFI 415f0 .ra: .cfa -4 + ^ r4: .cfa -8 + ^
STACK CFI INIT 3f420 20 .cfa: sp 0 + .ra: lr
STACK CFI 3f428 .cfa: sp 8 +
STACK CFI 3f430 .ra: .cfa -4 + ^ r3: .cfa -8 + ^
STACK CFI INIT 3f440 20 .cfa: sp 0 + .ra: lr
STACK CFI 3f448 .cfa: sp 8 +
STACK CFI 3f450 .ra: .cfa -4 + ^ r3: .cfa -8 + ^
STACK CFI INIT 3f460 34c .cfa: sp 0 + .ra: lr
STACK CFI 3f468 .cfa: sp 16 +
STACK CFI 3f46c .ra: .cfa -4 + ^ r4: .cfa -16 + ^ r5: .cfa -12 + ^ r6: .cfa -8 + ^
STACK CFI INIT 41604 2c .cfa: sp 0 + .ra: lr
STACK CFI 41608 .cfa: sp 16 +
STACK CFI 4160c .ra: .cfa -4 + ^ r3: .cfa -16 + ^ r4: .cfa -12 + ^ r5: .cfa -8 + ^
STACK CFI INIT 41630 48 .cfa: sp 0 + .ra: lr
STACK CFI 41634 .cfa: sp 16 +
STACK CFI 41638 .ra: .cfa -4 + ^ r4: .cfa -16 + ^ r5: .cfa -12 + ^ r6: .cfa -8 + ^
STACK CFI INIT 41678 2c .cfa: sp 0 + .ra: lr
STACK CFI 4167c .cfa: sp 16 +
STACK CFI 41680 .ra: .cfa -4 + ^ r3: .cfa -16 + ^ r4: .cfa -12 + ^ r5: .cfa -8 + ^
STACK CFI INIT 3f7ac 10c .cfa: sp 0 + .ra: lr
STACK CFI 3f7b4 .cfa: sp 24 +
STACK CFI 3f7c0 .ra: .cfa -4 + ^ r4: .cfa -24 + ^ r5: .cfa -20 + ^ r6: .cfa -16 + ^ r7: .cfa -12 + ^ r8: .cfa -8 + ^
STACK CFI INIT 416a4 7c .cfa: sp 0 + .ra: lr
STACK CFI 416a8 .cfa: sp 16 +
STACK CFI 416ac .ra: .cfa -4 + ^ r4: .cfa -16 + ^ r5: .cfa -12 + ^ r6: .cfa -8 + ^
STACK CFI INIT 41720 114 .cfa: sp 0 + .ra: lr
STACK CFI 41724 .cfa: sp 24 +
STACK CFI 41728 .ra: .cfa -4 + ^ r4: .cfa -24 + ^ r5: .cfa -20 + ^ r6: .cfa -16 + ^ r7: .cfa -12 + ^ r8: .cfa -8 + ^
STACK CFI 4172c .cfa: sp 48 +
STACK CFI INIT 3f8b8 338 .cfa: sp 0 + .ra: lr
STACK CFI 3f8bc .cfa: sp 36 +
STACK CFI 3f8c0 .ra: .cfa -4 + ^ r10: .cfa -12 + ^ r11: .cfa -8 + ^ r4: .cfa -36 + ^ r5: .cfa -32 + ^ r6: .cfa -28 + ^ r7: .cfa -24 + ^ r8: .cfa -20 + ^ r9: .cfa -16 + ^
STACK CFI 3f8d4 .cfa: sp 64 +
STACK CFI INIT 3fbf0 1ec .cfa: sp 0 + .ra: lr
STACK CFI 3fbf4 .cfa: sp 32 +
STACK CFI 3fbf8 .ra: .cfa -4 + ^ r10: .cfa -8 + ^ r3: .cfa -32 + ^ r4: .cfa -28 + ^ r5: .cfa -24 + ^ r6: .cfa -20 + ^ r7: .cfa -16 + ^ r8: .cfa -12 + ^
STACK CFI INIT 3fddc d0 .cfa: sp 0 + .ra: lr
STACK CFI 3fde0 .cfa: sp 24 +
STACK CFI 3fde4 .ra: .cfa -4 + ^ r4: .cfa -24 + ^ r5: .cfa -20 + ^ r6: .cfa -16 + ^ r7: .cfa -12 + ^ r8: .cfa -8 + ^
STACK CFI INIT 3feac 2b4 .cfa: sp 0 + .ra: lr
STACK CFI 3feb0 .cfa: sp 36 +
STACK CFI 3feb4 .ra: .cfa -4 + ^ r10: .cfa -12 + ^ r11: .cfa -8 + ^ r4: .cfa -36 + ^ r5: .cfa -32 + ^ r6: .cfa -28 + ^ r7: .cfa -24 + ^ r8: .cfa -20 + ^ r9: .cfa -16 + ^
STACK CFI 3fec0 .cfa: sp 56 +
STACK CFI INIT 40160 194 .cfa: sp 0 + .ra: lr
STACK CFI 40164 .cfa: sp 24 +
STACK CFI 40168 .ra: .cfa -4 + ^ r4: .cfa -24 + ^ r5: .cfa -20 + ^ r6: .cfa -16 + ^ r7: .cfa -12 + ^ r8: .cfa -8 + ^
STACK CFI 40178 .cfa: sp 32 +
STACK CFI INIT 402f4 ec .cfa: sp 0 + .ra: lr
STACK CFI 402f8 .cfa: sp 28 +
STACK CFI 402fc .ra: .cfa -4 + ^ r10: .cfa -8 + ^ r4: .cfa -28 + ^ r5: .cfa -24 + ^ r6: .cfa -20 + ^ r7: .cfa -16 + ^ r8: .cfa -12 + ^
STACK CFI 40308 .cfa: sp 40 +
STACK CFI INIT 403e0 10c .cfa: sp 0 + .ra: lr
STACK CFI 403e4 .cfa: sp 24 +
STACK CFI 403e8 .ra: .cfa -4 + ^ r4: .cfa -24 + ^ r5: .cfa -20 + ^ r6: .cfa -16 + ^ r7: .cfa -12 + ^ r8: .cfa -8 + ^
STACK CFI INIT 404ec d0 .cfa: sp 0 + .ra: lr
STACK CFI 404f0 .cfa: sp 24 +
STACK CFI 404f4 .ra: .cfa -4 + ^ r4: .cfa -24 + ^ r5: .cfa -20 + ^ r6: .cfa -16 + ^ r7: .cfa -12 + ^ r8: .cfa -8 + ^
STACK CFI INIT 405bc c4 .cfa: sp 0 + .ra: lr
STACK CFI 405c0 .cfa: sp 24 +
STACK CFI 405c4 .ra: .cfa -4 + ^ r3: .cfa -24 + ^ r4: .cfa -20 + ^ r5: .cfa -16 + ^ r6: .cfa -12 + ^ r7: .cfa -8 + ^
STACK CFI INIT 40680 c4 .cfa: sp 0 + .ra: lr
STACK CFI 40684 .cfa: sp 24 +
STACK CFI 40688 .ra: .cfa -4 + ^ r3: .cfa -24 + ^ r4: .cfa -20 + ^ r5: .cfa -16 + ^ r6: .cfa -12 + ^ r7: .cfa -8 + ^
STACK CFI INIT 40744 c4 .cfa: sp 0 + .ra: lr
STACK CFI 40748 .cfa: sp 24 +
STACK CFI 4074c .ra: .cfa -4 + ^ r3: .cfa -24 + ^ r4: .cfa -20 + ^ r5: .cfa -16 + ^ r6: .cfa -12 + ^ r7: .cfa -8 + ^
STACK CFI INIT 40808 c4 .cfa: sp 0 + .ra: lr
STACK CFI 4080c .cfa: sp 24 +
STACK CFI 40810 .ra: .cfa -4 + ^ r3: .cfa -24 + ^ r4: .cfa -20 + ^ r5: .cfa -16 + ^ r6: .cfa -12 + ^ r7: .cfa -8 + ^
STACK CFI INIT 408cc 184 .cfa: sp 0 + .ra: lr
STACK CFI 408d0 .cfa: sp 24 +
STACK CFI 408d4 .ra: .cfa -4 + ^ r4: .cfa -24 + ^ r5: .cfa -20 + ^ r6: .cfa -16 + ^ r7: .cfa -12 + ^ r8: .cfa -8 + ^
STACK CFI INIT 40a50 d0 .cfa: sp 0 + .ra: lr
STACK CFI 40a58 .cfa: sp 16 +
STACK CFI 40a5c .ra: .cfa -4 + ^ r4: .cfa -16 + ^ r5: .cfa -12 + ^ r6: .cfa -8 + ^
STACK CFI INIT 40b20 3a8 .cfa: sp 0 + .ra: lr
STACK CFI 40b24 .cfa: sp 28 +
STACK CFI 40b28 .ra: .cfa -4 + ^ r10: .cfa -8 + ^ r4: .cfa -28 + ^ r5: .cfa -24 + ^ r6: .cfa -20 + ^ r7: .cfa -16 + ^ r8: .cfa -12 + ^
STACK CFI 40b2c .cfa: sp 56 +
STACK CFI INIT 40ec8 1dc .cfa: sp 0 + .ra: lr
STACK CFI 40ecc .cfa: sp 28 +
STACK CFI 40ed0 .ra: .cfa -4 + ^ r10: .cfa -8 + ^ r4: .cfa -28 + ^ r5: .cfa -24 + ^ r6: .cfa -20 + ^ r7: .cfa -16 + ^ r8: .cfa -12 + ^
STACK CFI 40ed4 .cfa: sp 40 +
STACK CFI INIT 410a4 50 .cfa: sp 0 + .ra: lr
STACK CFI 410ac .cfa: sp 16 +
STACK CFI 410b0 .ra: .cfa -4 + ^ r4: .cfa -16 + ^ r5: .cfa -12 + ^ r6: .cfa -8 + ^
STACK CFI INIT 41834 94 .cfa: sp 0 + .ra: lr
STACK CFI 4183c .cfa: sp 12 +
STACK CFI 41844 .cfa: sp 24 +
STACK CFI 41848 .ra: .cfa -4 + ^ r4: .cfa -12 + ^ r5: .cfa -8 + ^
STACK CFI INIT 410f4 78 .cfa: sp 0 + .ra: lr
STACK CFI 410f8 .cfa: sp 12 +
STACK CFI 410fc .ra: .cfa -4 + ^ r4: .cfa -12 + ^ r5: .cfa -8 + ^
STACK CFI 41104 .cfa: sp 24 +
STACK CFI INIT 418c8 30 .cfa: sp 0 + .ra: lr
STACK CFI 418cc .cfa: sp 8 +
STACK CFI 418d0 .ra: .cfa -4 + ^ r4: .cfa -8 + ^
STACK CFI INIT 4116c 470 .cfa: sp 0 + .ra: lr
STACK CFI 41174 .cfa: sp 36 +
STACK CFI 4117c .ra: .cfa -4 + ^ r10: .cfa -12 + ^ r11: .cfa -8 + ^ r4: .cfa -36 + ^ r5: .cfa -32 + ^ r6: .cfa -28 + ^ r7: .cfa -24 + ^ r8: .cfa -20 + ^ r9: .cfa -16 + ^
STACK CFI 41198 .cfa: sp 72 +
STACK CFI INIT 418f8 74 .cfa: sp 0 + .ra: lr
STACK CFI 41900 .cfa: sp 8 +
STACK CFI 41904 .ra: .cfa -4 + ^ r4: .cfa -8 + ^
STACK CFI INIT 4196c 74 .cfa: sp 0 + .ra: lr
STACK CFI 41974 .cfa: sp 8 +
STACK CFI 41978 .ra: .cfa -4 + ^ r4: .cfa -8 + ^
STACK CFI INIT 419e0 84 .cfa: sp 0 + .ra: lr
STACK CFI 419e8 .cfa: sp 8 +
STACK CFI 419ec .ra: .cfa -4 + ^ r4: .cfa -8 + ^
STACK CFI INIT 41a64 7c .cfa: sp 0 + .ra: lr
STACK CFI 41a6c .cfa: sp 8 +
STACK CFI 41a70 .ra: .cfa -4 + ^ r4: .cfa -8 + ^
STACK CFI INIT 41ae0 cc .cfa: sp 0 + .ra: lr
STACK CFI 41ae4 .cfa: sp 12 +
STACK CFI 41ae8 .cfa: sp 2076 +
STACK CFI 41aec .cfa: sp 2080 +
STACK CFI 41af0 .ra: .cfa -4 + ^ r4: .cfa -12 + ^ r5: .cfa -8 + ^
STACK CFI INIT 41bac b0 .cfa: sp 0 + .ra: lr
STACK CFI 41bb0 .cfa: sp 12 +
STACK CFI 41bb4 .cfa: sp 2076 +
STACK CFI 41bb8 .cfa: sp 2080 +
STACK CFI 41bcc .ra: .cfa -4 + ^ r4: .cfa -12 + ^ r5: .cfa -8 + ^
STACK CFI INIT 41c5c a4 .cfa: sp 0 + .ra: lr
STACK CFI 41c60 .cfa: sp 12 +
STACK CFI 41c64 .cfa: sp 2076 +
STACK CFI 41c68 .cfa: sp 2080 +
STACK CFI 41c70 .ra: .cfa -4 + ^ r4: .cfa -12 + ^ r5: .cfa -8 + ^
STACK CFI INIT 41d00 e4 .cfa: sp 0 + .ra: lr
STACK CFI 41d04 .cfa: sp 32 +
STACK CFI 41d08 .ra: .cfa -4 + ^ r10: .cfa -8 + ^ r4: .cfa -32 + ^ r5: .cfa -28 + ^ r6: .cfa -24 + ^ r7: .cfa -20 + ^ r8: .cfa -16 + ^ r9: .cfa -12 + ^
STACK CFI 41d28 .cfa: sp 56 +
STACK CFI INIT 41de4 cc .cfa: sp 0 + .ra: lr
STACK CFI 41de8 .cfa: sp 24 +
STACK CFI 41dec .ra: .cfa -4 + ^ r4: .cfa -24 + ^ r5: .cfa -20 + ^ r6: .cfa -16 + ^ r7: .cfa -12 + ^ r8: .cfa -8 + ^
STACK CFI 41e0c .cfa: sp 48 +
STACK CFI INIT 41eb0 d8 .cfa: sp 0 + .ra: lr
STACK CFI 41eb4 .cfa: sp 28 +
STACK CFI 41eb8 .ra: .cfa -4 + ^ r10: .cfa -8 + ^ r4: .cfa -28 + ^ r5: .cfa -24 + ^ r6: .cfa -20 + ^ r7: .cfa -16 + ^ r8: .cfa -12 + ^
STACK CFI 41ed8 .cfa: sp 56 +
STACK CFI INIT 41f88 20 .cfa: sp 0 + .ra: lr
STACK CFI INIT 41fa8 4 .cfa: sp 0 + .ra: lr
STACK CFI INIT 41fac ec .cfa: sp 0 + .ra: lr
STACK CFI 41fb0 .cfa: sp 28 +
STACK CFI 41fb4 .ra: .cfa -4 + ^ r10: .cfa -8 + ^ r4: .cfa -28 + ^ r5: .cfa -24 + ^ r6: .cfa -20 + ^ r7: .cfa -16 + ^ r8: .cfa -12 + ^
STACK CFI 41fb8 .cfa: sp 48 +
STACK CFI INIT 42098 50 .cfa: sp 0 + .ra: lr
STACK CFI 4209c .cfa: sp 8 +
STACK CFI 420a4 .cfa: sp 24 +
STACK CFI 420a8 .ra: .cfa -4 + ^ r4: .cfa -8 + ^
STACK CFI INIT 420e8 8 .cfa: sp 0 + .ra: lr
STACK CFI INIT 420f0 8 .cfa: sp 0 + .ra: lr
STACK CFI INIT 420f8 8 .cfa: sp 0 + .ra: lr
STACK CFI INIT 42100 118 .cfa: sp 0 + .ra: lr
STACK CFI 42104 .cfa: sp 24 +
STACK CFI 42108 .ra: .cfa -4 + ^ r4: .cfa -24 + ^ r5: .cfa -20 + ^ r6: .cfa -16 + ^ r7: .cfa -12 + ^ r8: .cfa -8 + ^
STACK CFI 42128 .cfa: sp 2088 +
STACK CFI INIT 42218 c0 .cfa: sp 0 + .ra: lr
STACK CFI 4221c .cfa: sp 12 +
STACK CFI 42220 .ra: .cfa -4 + ^ r4: .cfa -12 + ^ r5: .cfa -8 + ^
STACK CFI 4223c .cfa: sp 2076 +
STACK CFI 42240 .cfa: sp 2080 +
STACK CFI INIT 422d8 c0 .cfa: sp 0 + .ra: lr
STACK CFI 422dc .cfa: sp 12 +
STACK CFI 422e0 .ra: .cfa -4 + ^ r4: .cfa -12 + ^ r5: .cfa -8 + ^
STACK CFI 422e8 .cfa: sp 2076 +
STACK CFI 422ec .cfa: sp 2080 +
STACK CFI INIT 42398 d8 .cfa: sp 0 + .ra: lr
STACK CFI 4239c .cfa: sp 20 +
STACK CFI 423a0 .ra: .cfa -4 + ^ r4: .cfa -20 + ^ r5: .cfa -16 + ^ r6: .cfa -12 + ^ r7: .cfa -8 + ^
STACK CFI 423c0 .cfa: sp 2084 +
STACK CFI 423c4 .cfa: sp 2088 +
STACK CFI INIT 42470 c4 .cfa: sp 0 + .ra: lr
STACK CFI 42474 .cfa: sp 12 +
STACK CFI 42478 .ra: .cfa -4 + ^ r4: .cfa -12 + ^ r5: .cfa -8 + ^
STACK CFI 42480 .cfa: sp 2076 +
STACK CFI 42484 .cfa: sp 2080 +
STACK CFI INIT 42534 120 .cfa: sp 0 + .ra: lr
STACK CFI 42538 .cfa: sp 24 +
STACK CFI 4253c .ra: .cfa -4 + ^ r4: .cfa -24 + ^ r5: .cfa -20 + ^ r6: .cfa -16 + ^ r7: .cfa -12 + ^ r8: .cfa -8 + ^
STACK CFI 42544 .cfa: sp 2088 +
STACK CFI INIT 42654 d8 .cfa: sp 0 + .ra: lr
STACK CFI 42658 .cfa: sp 28 +
STACK CFI 4265c .ra: .cfa -4 + ^ r10: .cfa -8 + ^ r4: .cfa -28 + ^ r5: .cfa -24 + ^ r6: .cfa -20 + ^ r7: .cfa -16 + ^ r8: .cfa -12 + ^
STACK CFI 4267c .cfa: sp 56 +
STACK CFI INIT 4272c e4 .cfa: sp 0 + .ra: lr
STACK CFI 42730 .cfa: sp 32 +
STACK CFI 42734 .ra: .cfa -4 + ^ r10: .cfa -8 + ^ r4: .cfa -32 + ^ r5: .cfa -28 + ^ r6: .cfa -24 + ^ r7: .cfa -20 + ^ r8: .cfa -16 + ^ r9: .cfa -12 + ^
STACK CFI 42754 .cfa: sp 56 +
STACK CFI INIT 42810 d8 .cfa: sp 0 + .ra: lr
STACK CFI 42814 .cfa: sp 28 +
STACK CFI 42818 .ra: .cfa -4 + ^ r10: .cfa -8 + ^ r4: .cfa -28 + ^ r5: .cfa -24 + ^ r6: .cfa -20 + ^ r7: .cfa -16 + ^ r8: .cfa -12 + ^
STACK CFI 42838 .cfa: sp 56 +
STACK CFI INIT 428e8 d8 .cfa: sp 0 + .ra: lr
STACK CFI 428ec .cfa: sp 28 +
STACK CFI 428f0 .ra: .cfa -4 + ^ r10: .cfa -8 + ^ r4: .cfa -28 + ^ r5: .cfa -24 + ^ r6: .cfa -20 + ^ r7: .cfa -16 + ^ r8: .cfa -12 + ^
STACK CFI 42910 .cfa: sp 56 +
STACK CFI INIT 429c0 d8 .cfa: sp 0 + .ra: lr
STACK CFI 429c4 .cfa: sp 28 +
STACK CFI 429c8 .ra: .cfa -4 + ^ r10: .cfa -8 + ^ r4: .cfa -28 + ^ r5: .cfa -24 + ^ r6: .cfa -20 + ^ r7: .cfa -16 + ^ r8: .cfa -12 + ^
STACK CFI 429e8 .cfa: sp 56 +
STACK CFI INIT 42a98 cc .cfa: sp 0 + .ra: lr
STACK CFI 42a9c .cfa: sp 24 +
STACK CFI 42aa0 .ra: .cfa -4 + ^ r4: .cfa -24 + ^ r5: .cfa -20 + ^ r6: .cfa -16 + ^ r7: .cfa -12 + ^ r8: .cfa -8 + ^
STACK CFI 42ac0 .cfa: sp 48 +
STACK CFI INIT 42b64 20 .cfa: sp 0 + .ra: lr
STACK CFI INIT 42b84 4 .cfa: sp 0 + .ra: lr
STACK CFI INIT 42b88 294 .cfa: sp 0 + .ra: lr
STACK CFI 42b8c .cfa: sp 32 +
STACK CFI 42b90 .ra: .cfa -4 + ^ r10: .cfa -8 + ^ r4: .cfa -32 + ^ r5: .cfa -28 + ^ r6: .cfa -24 + ^ r7: .cfa -20 + ^ r8: .cfa -16 + ^ r9: .cfa -12 + ^
STACK CFI 42b94 .cfa: sp 48 +
STACK CFI INIT 42e1c 50 .cfa: sp 0 + .ra: lr
STACK CFI 42e20 .cfa: sp 8 +
STACK CFI 42e28 .cfa: sp 24 +
STACK CFI 42e2c .ra: .cfa -4 + ^ r4: .cfa -8 + ^
STACK CFI INIT 42e6c 8 .cfa: sp 0 + .ra: lr
STACK CFI INIT 42e74 8 .cfa: sp 0 + .ra: lr
STACK CFI INIT 42e7c 8 .cfa: sp 0 + .ra: lr
STACK CFI INIT 42e84 8 .cfa: sp 0 + .ra: lr
STACK CFI INIT 42e8c 10 .cfa: sp 0 + .ra: lr
STACK CFI INIT 42e9c 10 .cfa: sp 0 + .ra: lr
STACK CFI INIT 42eac 114 .cfa: sp 0 + .ra: lr
STACK CFI 42eb0 .cfa: sp 24 +
STACK CFI 42eb4 .ra: .cfa -4 + ^ r4: .cfa -24 + ^ r5: .cfa -20 + ^ r6: .cfa -16 + ^ r7: .cfa -12 + ^ r8: .cfa -8 + ^
STACK CFI 42ebc .cfa: sp 2088 +
STACK CFI INIT 42fc0 12c .cfa: sp 0 + .ra: lr
STACK CFI 42fc4 .cfa: sp 20 +
STACK CFI 42fc8 .ra: .cfa -4 + ^ r4: .cfa -20 + ^ r5: .cfa -16 + ^ r6: .cfa -12 + ^ r7: .cfa -8 + ^
STACK CFI 42fcc .cfa: sp 2084 +
STACK CFI 42fd0 .cfa: sp 2088 +
STACK CFI INIT 430ec 11c .cfa: sp 0 + .ra: lr
STACK CFI 430f0 .cfa: sp 24 +
STACK CFI 430f4 .ra: .cfa -4 + ^ r4: .cfa -24 + ^ r5: .cfa -20 + ^ r6: .cfa -16 + ^ r7: .cfa -12 + ^ r8: .cfa -8 + ^
STACK CFI 430fc .cfa: sp 2088 +
STACK CFI INIT 43208 14c .cfa: sp 0 + .ra: lr
STACK CFI 4320c .cfa: sp 24 +
STACK CFI 43210 .ra: .cfa -4 + ^ r4: .cfa -24 + ^ r5: .cfa -20 + ^ r6: .cfa -16 + ^ r7: .cfa -12 + ^ r8: .cfa -8 + ^
STACK CFI 43214 .cfa: sp 2088 +
STACK CFI INIT 43354 16c .cfa: sp 0 + .ra: lr
STACK CFI 43358 .cfa: sp 28 +
STACK CFI 4335c .ra: .cfa -4 + ^ r10: .cfa -8 + ^ r4: .cfa -28 + ^ r5: .cfa -24 + ^ r6: .cfa -20 + ^ r7: .cfa -16 + ^ r8: .cfa -12 + ^
STACK CFI 43360 .cfa: sp 2108 +
STACK CFI 4336c .cfa: sp 2112 +
STACK CFI INIT 434c0 bc .cfa: sp 0 + .ra: lr
STACK CFI 434c4 .cfa: sp 12 +
STACK CFI 434c8 .ra: .cfa -4 + ^ r4: .cfa -12 + ^ r5: .cfa -8 + ^
STACK CFI 434d0 .cfa: sp 2076 +
STACK CFI 434d4 .cfa: sp 2080 +
STACK CFI INIT 4357c c4 .cfa: sp 0 + .ra: lr
STACK CFI 43580 .cfa: sp 12 +
STACK CFI 43584 .cfa: sp 2076 +
STACK CFI 43588 .cfa: sp 2080 +
STACK CFI 4358c .ra: .cfa -4 + ^ r4: .cfa -12 + ^ r5: .cfa -8 + ^
STACK CFI INIT 43640 c8 .cfa: sp 0 + .ra: lr
STACK CFI 43644 .cfa: sp 12 +
STACK CFI 43648 .ra: .cfa -4 + ^ r4: .cfa -12 + ^ r5: .cfa -8 + ^
STACK CFI 4364c .cfa: sp 2076 +
STACK CFI 43658 .cfa: sp 2080 +
STACK CFI INIT 43708 bc .cfa: sp 0 + .ra: lr
STACK CFI 4370c .cfa: sp 12 +
STACK CFI 43710 .ra: .cfa -4 + ^ r4: .cfa -12 + ^ r5: .cfa -8 + ^
STACK CFI 43718 .cfa: sp 2076 +
STACK CFI 4371c .cfa: sp 2080 +
STACK CFI INIT 437c4 c0 .cfa: sp 0 + .ra: lr
STACK CFI 437c8 .cfa: sp 12 +
STACK CFI 437cc .ra: .cfa -4 + ^ r4: .cfa -12 + ^ r5: .cfa -8 + ^
STACK CFI 437d4 .cfa: sp 2076 +
STACK CFI 437d8 .cfa: sp 2080 +
STACK CFI INIT 43884 c8 .cfa: sp 0 + .ra: lr
STACK CFI 43888 .cfa: sp 12 +
STACK CFI 4388c .ra: .cfa -4 + ^ r4: .cfa -12 + ^ r5: .cfa -8 + ^
STACK CFI 43890 .cfa: sp 2076 +
STACK CFI 43894 .cfa: sp 2080 +
STACK CFI INIT 4394c cc .cfa: sp 0 + .ra: lr
STACK CFI 43950 .cfa: sp 12 +
STACK CFI 43954 .ra: .cfa -4 + ^ r4: .cfa -12 + ^ r5: .cfa -8 + ^
STACK CFI 43958 .cfa: sp 2076 +
STACK CFI 43960 .cfa: sp 2080 +
STACK CFI INIT 43a18 cc .cfa: sp 0 + .ra: lr
STACK CFI 43a1c .cfa: sp 12 +
STACK CFI 43a20 .ra: .cfa -4 + ^ r4: .cfa -12 + ^ r5: .cfa -8 + ^
STACK CFI 43a24 .cfa: sp 2076 +
STACK CFI 43a2c .cfa: sp 2080 +
STACK CFI INIT 43ae4 cc .cfa: sp 0 + .ra: lr
STACK CFI 43ae8 .cfa: sp 12 +
STACK CFI 43aec .ra: .cfa -4 + ^ r4: .cfa -12 + ^ r5: .cfa -8 + ^
STACK CFI 43af0 .cfa: sp 2076 +
STACK CFI 43af8 .cfa: sp 2080 +
STACK CFI INIT 43bb0 c0 .cfa: sp 0 + .ra: lr
STACK CFI 43bb4 .cfa: sp 16 +
STACK CFI 43bb8 .ra: .cfa -4 + ^ r4: .cfa -16 + ^ r5: .cfa -12 + ^ r6: .cfa -8 + ^
STACK CFI 43bbc .cfa: sp 2080 +
STACK CFI INIT 43c70 c0 .cfa: sp 0 + .ra: lr
STACK CFI 43c74 .cfa: sp 16 +
STACK CFI 43c78 .ra: .cfa -4 + ^ r4: .cfa -16 + ^ r5: .cfa -12 + ^ r6: .cfa -8 + ^
STACK CFI 43c7c .cfa: sp 2080 +
STACK CFI INIT 43d30 e0 .cfa: sp 0 + .ra: lr
STACK CFI 43d34 .cfa: sp 16 +
STACK CFI 43d38 .ra: .cfa -4 + ^ r4: .cfa -16 + ^ r5: .cfa -12 + ^ r6: .cfa -8 + ^
STACK CFI 43d3c .cfa: sp 2080 +
STACK CFI INIT 43e10 100 .cfa: sp 0 + .ra: lr
STACK CFI 43e14 .cfa: sp 20 +
STACK CFI 43e18 .ra: .cfa -4 + ^ r4: .cfa -20 + ^ r5: .cfa -16 + ^ r6: .cfa -12 + ^ r7: .cfa -8 + ^
STACK CFI 43e1c .cfa: sp 2084 +
STACK CFI 43e20 .cfa: sp 2088 +
STACK CFI INIT 43f10 e4 .cfa: sp 0 + .ra: lr
STACK CFI 43f14 .cfa: sp 32 +
STACK CFI 43f18 .ra: .cfa -4 + ^ r10: .cfa -8 + ^ r4: .cfa -32 + ^ r5: .cfa -28 + ^ r6: .cfa -24 + ^ r7: .cfa -20 + ^ r8: .cfa -16 + ^ r9: .cfa -12 + ^
STACK CFI 43f38 .cfa: sp 56 +
STACK CFI INIT 43ff4 e4 .cfa: sp 0 + .ra: lr
STACK CFI 43ff8 .cfa: sp 32 +
STACK CFI 43ffc .ra: .cfa -4 + ^ r10: .cfa -8 + ^ r4: .cfa -32 + ^ r5: .cfa -28 + ^ r6: .cfa -24 + ^ r7: .cfa -20 + ^ r8: .cfa -16 + ^ r9: .cfa -12 + ^
STACK CFI 4401c .cfa: sp 56 +
STACK CFI INIT 440d8 d8 .cfa: sp 0 + .ra: lr
STACK CFI 440dc .cfa: sp 28 +
STACK CFI 440e0 .ra: .cfa -4 + ^ r10: .cfa -8 + ^ r4: .cfa -28 + ^ r5: .cfa -24 + ^ r6: .cfa -20 + ^ r7: .cfa -16 + ^ r8: .cfa -12 + ^
STACK CFI 44100 .cfa: sp 56 +
STACK CFI INIT 441b0 d8 .cfa: sp 0 + .ra: lr
STACK CFI 441b4 .cfa: sp 28 +
STACK CFI 441b8 .ra: .cfa -4 + ^ r10: .cfa -8 + ^ r4: .cfa -28 + ^ r5: .cfa -24 + ^ r6: .cfa -20 + ^ r7: .cfa -16 + ^ r8: .cfa -12 + ^
STACK CFI 441d8 .cfa: sp 56 +
STACK CFI INIT 44288 d8 .cfa: sp 0 + .ra: lr
STACK CFI 4428c .cfa: sp 28 +
STACK CFI 44290 .ra: .cfa -4 + ^ r10: .cfa -8 + ^ r4: .cfa -28 + ^ r5: .cfa -24 + ^ r6: .cfa -20 + ^ r7: .cfa -16 + ^ r8: .cfa -12 + ^
STACK CFI 442b0 .cfa: sp 56 +
STACK CFI INIT 44360 d8 .cfa: sp 0 + .ra: lr
STACK CFI 44364 .cfa: sp 28 +
STACK CFI 44368 .ra: .cfa -4 + ^ r10: .cfa -8 + ^ r4: .cfa -28 + ^ r5: .cfa -24 + ^ r6: .cfa -20 + ^ r7: .cfa -16 + ^ r8: .cfa -12 + ^
STACK CFI 44388 .cfa: sp 56 +
STACK CFI INIT 44438 d8 .cfa: sp 0 + .ra: lr
STACK CFI 4443c .cfa: sp 28 +
STACK CFI 44440 .ra: .cfa -4 + ^ r10: .cfa -8 + ^ r4: .cfa -28 + ^ r5: .cfa -24 + ^ r6: .cfa -20 + ^ r7: .cfa -16 + ^ r8: .cfa -12 + ^
STACK CFI 44460 .cfa: sp 56 +
STACK CFI INIT 44510 d8 .cfa: sp 0 + .ra: lr
STACK CFI 44514 .cfa: sp 28 +
STACK CFI 44518 .ra: .cfa -4 + ^ r10: .cfa -8 + ^ r4: .cfa -28 + ^ r5: .cfa -24 + ^ r6: .cfa -20 + ^ r7: .cfa -16 + ^ r8: .cfa -12 + ^
STACK CFI 44538 .cfa: sp 56 +
STACK CFI INIT 445e8 d8 .cfa: sp 0 + .ra: lr
STACK CFI 445ec .cfa: sp 28 +
STACK CFI 445f0 .ra: .cfa -4 + ^ r10: .cfa -8 + ^ r4: .cfa -28 + ^ r5: .cfa -24 + ^ r6: .cfa -20 + ^ r7: .cfa -16 + ^ r8: .cfa -12 + ^
STACK CFI 44610 .cfa: sp 56 +
STACK CFI INIT 446c0 d8 .cfa: sp 0 + .ra: lr
STACK CFI 446c4 .cfa: sp 28 +
STACK CFI 446c8 .ra: .cfa -4 + ^ r10: .cfa -8 + ^ r4: .cfa -28 + ^ r5: .cfa -24 + ^ r6: .cfa -20 + ^ r7: .cfa -16 + ^ r8: .cfa -12 + ^
STACK CFI 446e8 .cfa: sp 56 +
STACK CFI INIT 44798 d8 .cfa: sp 0 + .ra: lr
STACK CFI 4479c .cfa: sp 28 +
STACK CFI 447a0 .ra: .cfa -4 + ^ r10: .cfa -8 + ^ r4: .cfa -28 + ^ r5: .cfa -24 + ^ r6: .cfa -20 + ^ r7: .cfa -16 + ^ r8: .cfa -12 + ^
STACK CFI 447c0 .cfa: sp 56 +
STACK CFI INIT 44870 d8 .cfa: sp 0 + .ra: lr
STACK CFI 44874 .cfa: sp 28 +
STACK CFI 44878 .ra: .cfa -4 + ^ r10: .cfa -8 + ^ r4: .cfa -28 + ^ r5: .cfa -24 + ^ r6: .cfa -20 + ^ r7: .cfa -16 + ^ r8: .cfa -12 + ^
STACK CFI 44898 .cfa: sp 56 +
STACK CFI INIT 44948 e4 .cfa: sp 0 + .ra: lr
STACK CFI 4494c .cfa: sp 32 +
STACK CFI 44950 .ra: .cfa -4 + ^ r10: .cfa -8 + ^ r4: .cfa -32 + ^ r5: .cfa -28 + ^ r6: .cfa -24 + ^ r7: .cfa -20 + ^ r8: .cfa -16 + ^ r9: .cfa -12 + ^
STACK CFI 44970 .cfa: sp 56 +
STACK CFI INIT 44a2c d8 .cfa: sp 0 + .ra: lr
STACK CFI 44a30 .cfa: sp 28 +
STACK CFI 44a34 .ra: .cfa -4 + ^ r10: .cfa -8 + ^ r4: .cfa -28 + ^ r5: .cfa -24 + ^ r6: .cfa -20 + ^ r7: .cfa -16 + ^ r8: .cfa -12 + ^
STACK CFI 44a54 .cfa: sp 56 +
STACK CFI INIT 44b04 f0 .cfa: sp 0 + .ra: lr
STACK CFI 44b08 .cfa: sp 36 +
STACK CFI 44b0c .ra: .cfa -4 + ^ r10: .cfa -12 + ^ r11: .cfa -8 + ^ r4: .cfa -36 + ^ r5: .cfa -32 + ^ r6: .cfa -28 + ^ r7: .cfa -24 + ^ r8: .cfa -20 + ^ r9: .cfa -16 + ^
STACK CFI 44b2c .cfa: sp 64 +
STACK CFI INIT 44bf4 e4 .cfa: sp 0 + .ra: lr
STACK CFI 44bf8 .cfa: sp 32 +
STACK CFI 44bfc .ra: .cfa -4 + ^ r10: .cfa -8 + ^ r4: .cfa -32 + ^ r5: .cfa -28 + ^ r6: .cfa -24 + ^ r7: .cfa -20 + ^ r8: .cfa -16 + ^ r9: .cfa -12 + ^
STACK CFI 44c1c .cfa: sp 56 +
STACK CFI INIT 44cd8 e4 .cfa: sp 0 + .ra: lr
STACK CFI 44cdc .cfa: sp 32 +
STACK CFI 44ce0 .ra: .cfa -4 + ^ r10: .cfa -8 + ^ r4: .cfa -32 + ^ r5: .cfa -28 + ^ r6: .cfa -24 + ^ r7: .cfa -20 + ^ r8: .cfa -16 + ^ r9: .cfa -12 + ^
STACK CFI 44d00 .cfa: sp 56 +
STACK CFI INIT 44dbc f0 .cfa: sp 0 + .ra: lr
STACK CFI 44dc0 .cfa: sp 36 +
STACK CFI 44dc4 .ra: .cfa -4 + ^ r10: .cfa -12 + ^ r11: .cfa -8 + ^ r4: .cfa -36 + ^ r5: .cfa -32 + ^ r6: .cfa -28 + ^ r7: .cfa -24 + ^ r8: .cfa -20 + ^ r9: .cfa -16 + ^
STACK CFI 44de4 .cfa: sp 72 +
STACK CFI INIT 44eac 20 .cfa: sp 0 + .ra: lr
STACK CFI INIT 44ecc 4 .cfa: sp 0 + .ra: lr
STACK CFI INIT 44ed0 404 .cfa: sp 0 + .ra: lr
STACK CFI 44ed4 .cfa: sp 32 +
STACK CFI 44ed8 .ra: .cfa -4 + ^ r10: .cfa -8 + ^ r4: .cfa -32 + ^ r5: .cfa -28 + ^ r6: .cfa -24 + ^ r7: .cfa -20 + ^ r8: .cfa -16 + ^ r9: .cfa -12 + ^
STACK CFI 44edc .cfa: sp 64 +
STACK CFI INIT 452d4 50 .cfa: sp 0 + .ra: lr
STACK CFI 452d8 .cfa: sp 8 +
STACK CFI 452e0 .cfa: sp 24 +
STACK CFI 452e4 .ra: .cfa -4 + ^ r4: .cfa -8 + ^
STACK CFI INIT 45324 2c .cfa: sp 0 + .ra: lr
STACK CFI INIT 45350 94 .cfa: sp 0 + .ra: lr
STACK CFI 45354 .cfa: sp 16 +
STACK CFI 45358 .ra: .cfa -4 + ^ r4: .cfa -16 + ^ r5: .cfa -12 + ^ r6: .cfa -8 + ^
STACK CFI 4535c .cfa: sp 24 +
STACK CFI INIT 453e4 10 .cfa: sp 0 + .ra: lr
STACK CFI INIT 453f4 8 .cfa: sp 0 + .ra: lr
STACK CFI INIT 453fc 10 .cfa: sp 0 + .ra: lr
STACK CFI INIT 4540c 8 .cfa: sp 0 + .ra: lr
STACK CFI INIT 45414 8 .cfa: sp 0 + .ra: lr
STACK CFI INIT 4541c 8 .cfa: sp 0 + .ra: lr
STACK CFI INIT 45424 14 .cfa: sp 0 + .ra: lr
STACK CFI INIT 45438 8 .cfa: sp 0 + .ra: lr
STACK CFI INIT 45440 8 .cfa: sp 0 + .ra: lr
STACK CFI INIT 45448 8 .cfa: sp 0 + .ra: lr
STACK CFI INIT 45450 30 .cfa: sp 0 + .ra: lr
STACK CFI 45454 .cfa: sp 4 +
STACK CFI 45458 .ra: .cfa -4 + ^
STACK CFI 45468 .cfa: sp 16 +
STACK CFI INIT 45480 30 .cfa: sp 0 + .ra: lr
STACK CFI 45484 .cfa: sp 4 +
STACK CFI 45488 .ra: .cfa -4 + ^
STACK CFI 45498 .cfa: sp 16 +
STACK CFI INIT 454b0 8 .cfa: sp 0 + .ra: lr
STACK CFI INIT 454b8 8 .cfa: sp 0 + .ra: lr
STACK CFI INIT 454c0 10 .cfa: sp 0 + .ra: lr
STACK CFI INIT 454d0 a0 .cfa: sp 0 + .ra: lr
STACK CFI 454d4 .cfa: sp 16 +
STACK CFI 454dc .ra: .cfa -4 + ^ r4: .cfa -16 + ^ r5: .cfa -12 + ^ r6: .cfa -8 + ^
STACK CFI INIT 45570 f8 .cfa: sp 0 + .ra: lr
STACK CFI 45578 .cfa: sp 24 +
STACK CFI 45580 .cfa: sp 32 +
STACK CFI 45584 .ra: .cfa -4 + ^ r4: .cfa -24 + ^ r5: .cfa -20 + ^ r6: .cfa -16 + ^ r7: .cfa -12 + ^ r8: .cfa -8 + ^
STACK CFI INIT 45668 114 .cfa: sp 0 + .ra: lr
STACK CFI 4566c .cfa: sp 24 +
STACK CFI 45670 .ra: .cfa -4 + ^ r4: .cfa -24 + ^ r5: .cfa -20 + ^ r6: .cfa -16 + ^ r7: .cfa -12 + ^ r8: .cfa -8 + ^
STACK CFI 45688 .cfa: sp 2088 +
STACK CFI INIT 4577c c0 .cfa: sp 0 + .ra: lr
STACK CFI 45780 .cfa: sp 12 +
STACK CFI 45784 .ra: .cfa -4 + ^ r4: .cfa -12 + ^ r5: .cfa -8 + ^
STACK CFI 4578c .cfa: sp 2076 +
STACK CFI 45790 .cfa: sp 2080 +
STACK CFI INIT 4583c 11c .cfa: sp 0 + .ra: lr
STACK CFI 45840 .cfa: sp 20 +
STACK CFI 45848 .cfa: sp 2084 +
STACK CFI 4584c .cfa: sp 2088 +
STACK CFI 45854 .ra: .cfa -4 + ^ r4: .cfa -20 + ^ r5: .cfa -16 + ^ r6: .cfa -12 + ^ r7: .cfa -8 + ^
STACK CFI INIT 45958 10c .cfa: sp 0 + .ra: lr
STACK CFI 4595c .cfa: sp 20 +
STACK CFI 45964 .cfa: sp 2084 +
STACK CFI 45968 .cfa: sp 2088 +
STACK CFI 45970 .ra: .cfa -4 + ^ r4: .cfa -20 + ^ r5: .cfa -16 + ^ r6: .cfa -12 + ^ r7: .cfa -8 + ^
STACK CFI INIT 45a64 e0 .cfa: sp 0 + .ra: lr
STACK CFI 45a6c .cfa: sp 16 +
STACK CFI 45a70 .ra: .cfa -4 + ^ r4: .cfa -16 + ^ r5: .cfa -12 + ^ r6: .cfa -8 + ^
STACK CFI 45a74 .cfa: sp 2080 +
STACK CFI INIT 45b44 d8 .cfa: sp 0 + .ra: lr
STACK CFI 45b48 .cfa: sp 28 +
STACK CFI 45b4c .ra: .cfa -4 + ^ r10: .cfa -8 + ^ r4: .cfa -28 + ^ r5: .cfa -24 + ^ r6: .cfa -20 + ^ r7: .cfa -16 + ^ r8: .cfa -12 + ^
STACK CFI 45b6c .cfa: sp 56 +
STACK CFI INIT 45c1c e4 .cfa: sp 0 + .ra: lr
STACK CFI 45c20 .cfa: sp 32 +
STACK CFI 45c24 .ra: .cfa -4 + ^ r10: .cfa -8 + ^ r4: .cfa -32 + ^ r5: .cfa -28 + ^ r6: .cfa -24 + ^ r7: .cfa -20 + ^ r8: .cfa -16 + ^ r9: .cfa -12 + ^
STACK CFI 45c44 .cfa: sp 56 +
STACK CFI INIT 45d00 f0 .cfa: sp 0 + .ra: lr
STACK CFI 45d04 .cfa: sp 36 +
STACK CFI 45d08 .ra: .cfa -4 + ^ r10: .cfa -12 + ^ r11: .cfa -8 + ^ r4: .cfa -36 + ^ r5: .cfa -32 + ^ r6: .cfa -28 + ^ r7: .cfa -24 + ^ r8: .cfa -20 + ^ r9: .cfa -16 + ^
STACK CFI 45d28 .cfa: sp 64 +
STACK CFI INIT 45df0 100 .cfa: sp 0 + .ra: lr
STACK CFI 45df4 .cfa: sp 36 +
STACK CFI 45df8 .ra: .cfa -4 + ^ r10: .cfa -12 + ^ r11: .cfa -8 + ^ r4: .cfa -36 + ^ r5: .cfa -32 + ^ r6: .cfa -28 + ^ r7: .cfa -24 + ^ r8: .cfa -20 + ^ r9: .cfa -16 + ^
STACK CFI 45e18 .cfa: sp 72 +
STACK CFI INIT 45ef0 d8 .cfa: sp 0 + .ra: lr
STACK CFI 45ef4 .cfa: sp 28 +
STACK CFI 45ef8 .ra: .cfa -4 + ^ r10: .cfa -8 + ^ r4: .cfa -28 + ^ r5: .cfa -24 + ^ r6: .cfa -20 + ^ r7: .cfa -16 + ^ r8: .cfa -12 + ^
STACK CFI 45f18 .cfa: sp 56 +
STACK CFI INIT 45fc8 20 .cfa: sp 0 + .ra: lr
STACK CFI INIT 45fe8 4 .cfa: sp 0 + .ra: lr
STACK CFI INIT 45fec 294 .cfa: sp 0 + .ra: lr
STACK CFI 45ff0 .cfa: sp 32 +
STACK CFI 45ff4 .ra: .cfa -4 + ^ r10: .cfa -8 + ^ r4: .cfa -32 + ^ r5: .cfa -28 + ^ r6: .cfa -24 + ^ r7: .cfa -20 + ^ r8: .cfa -16 + ^ r9: .cfa -12 + ^
STACK CFI 45ff8 .cfa: sp 56 +
STACK CFI INIT 46280 50 .cfa: sp 0 + .ra: lr
STACK CFI 46284 .cfa: sp 8 +
STACK CFI 4628c .cfa: sp 24 +
STACK CFI 46290 .ra: .cfa -4 + ^ r4: .cfa -8 + ^
STACK CFI INIT 462d0 8 .cfa: sp 0 + .ra: lr
STACK CFI INIT 462d8 8 .cfa: sp 0 + .ra: lr
STACK CFI INIT 462e0 18 .cfa: sp 0 + .ra: lr
STACK CFI 462e4 .cfa: sp 8 +
STACK CFI 462ec .ra: .cfa -4 + ^ r3: .cfa -8 + ^
STACK CFI INIT 462f8 28 .cfa: sp 0 + .ra: lr
STACK CFI 462fc .cfa: sp 12 +
STACK CFI 46300 .cfa: sp 32 +
STACK CFI 46304 .ra: .cfa -4 + ^ r4: .cfa -12 + ^ r5: .cfa -8 + ^
STACK CFI INIT 46320 8 .cfa: sp 0 + .ra: lr
STACK CFI INIT 46328 1fc .cfa: sp 0 + .ra: lr
STACK CFI 4632c .cfa: sp 32 +
STACK CFI 46330 .ra: .cfa -4 + ^ r10: .cfa -8 + ^ r4: .cfa -32 + ^ r5: .cfa -28 + ^ r6: .cfa -24 + ^ r7: .cfa -20 + ^ r8: .cfa -16 + ^ r9: .cfa -12 + ^
STACK CFI 46340 .cfa: sp 56 +
STACK CFI INIT 46524 3b0 .cfa: sp 0 + .ra: lr
STACK CFI 46528 .cfa: sp 36 +
STACK CFI 4652c .ra: .cfa -4 + ^ r10: .cfa -12 + ^ r11: .cfa -8 + ^ r4: .cfa -36 + ^ r5: .cfa -32 + ^ r6: .cfa -28 + ^ r7: .cfa -24 + ^ r8: .cfa -20 + ^ r9: .cfa -16 + ^
STACK CFI 4653c .cfa: sp 80 +
STACK CFI INIT 468d4 158 .cfa: sp 0 + .ra: lr
STACK CFI 468d8 .cfa: sp 24 +
STACK CFI 468dc .ra: .cfa -4 + ^ r4: .cfa -24 + ^ r5: .cfa -20 + ^ r6: .cfa -16 + ^ r7: .cfa -12 + ^ r8: .cfa -8 + ^
STACK CFI 468e8 .cfa: sp 2104 +
STACK CFI INIT 46a2c 160 .cfa: sp 0 + .ra: lr
STACK CFI 46a30 .cfa: sp 24 +
STACK CFI 46a34 .ra: .cfa -4 + ^ r4: .cfa -24 + ^ r5: .cfa -20 + ^ r6: .cfa -16 + ^ r7: .cfa -12 + ^ r8: .cfa -8 + ^
STACK CFI 46a40 .cfa: sp 2104 +
STACK CFI INIT 46b8c f0 .cfa: sp 0 + .ra: lr
STACK CFI 46b90 .cfa: sp 36 +
STACK CFI 46b94 .ra: .cfa -4 + ^ r10: .cfa -12 + ^ r11: .cfa -8 + ^ r4: .cfa -36 + ^ r5: .cfa -32 + ^ r6: .cfa -28 + ^ r7: .cfa -24 + ^ r8: .cfa -20 + ^ r9: .cfa -16 + ^
STACK CFI 46bb4 .cfa: sp 64 +
STACK CFI INIT 46c7c f0 .cfa: sp 0 + .ra: lr
STACK CFI 46c80 .cfa: sp 36 +
STACK CFI 46c84 .ra: .cfa -4 + ^ r10: .cfa -12 + ^ r11: .cfa -8 + ^ r4: .cfa -36 + ^ r5: .cfa -32 + ^ r6: .cfa -28 + ^ r7: .cfa -24 + ^ r8: .cfa -20 + ^ r9: .cfa -16 + ^
STACK CFI 46ca4 .cfa: sp 64 +
STACK CFI INIT 46d6c 20 .cfa: sp 0 + .ra: lr
STACK CFI INIT 46d8c 4 .cfa: sp 0 + .ra: lr
STACK CFI INIT 46d90 cc .cfa: sp 0 + .ra: lr
STACK CFI 46d94 .cfa: sp 28 +
STACK CFI 46d98 .ra: .cfa -4 + ^ r10: .cfa -8 + ^ r4: .cfa -28 + ^ r5: .cfa -24 + ^ r6: .cfa -20 + ^ r7: .cfa -16 + ^ r8: .cfa -12 + ^
STACK CFI 46d9c .cfa: sp 48 +
STACK CFI INIT 46e5c 50 .cfa: sp 0 + .ra: lr
STACK CFI 46e60 .cfa: sp 8 +
STACK CFI 46e68 .cfa: sp 24 +
STACK CFI 46e6c .ra: .cfa -4 + ^ r4: .cfa -8 + ^
STACK CFI INIT 46eac 194 .cfa: sp 0 + .ra: lr
STACK CFI 46eb0 .cfa: sp 32 +
STACK CFI 46eb4 .ra: .cfa -4 + ^ r10: .cfa -8 + ^ r4: .cfa -32 + ^ r5: .cfa -28 + ^ r6: .cfa -24 + ^ r7: .cfa -20 + ^ r8: .cfa -16 + ^ r9: .cfa -12 + ^
STACK CFI INIT 47040 174 .cfa: sp 0 + .ra: lr
STACK CFI 47044 .cfa: sp 36 +
STACK CFI 47048 .cfa: sp 48 +
STACK CFI 47050 .ra: .cfa -4 + ^ r10: .cfa -12 + ^ r11: .cfa -8 + ^ r4: .cfa -36 + ^ r5: .cfa -32 + ^ r6: .cfa -28 + ^ r7: .cfa -24 + ^ r8: .cfa -20 + ^ r9: .cfa -16 + ^
STACK CFI INIT 471b4 bc .cfa: sp 0 + .ra: lr
STACK CFI 471b8 .cfa: sp 12 +
STACK CFI 471bc .ra: .cfa -4 + ^ r4: .cfa -12 + ^ r5: .cfa -8 + ^
STACK CFI 471c4 .cfa: sp 2076 +
STACK CFI 471c8 .cfa: sp 2080 +
STACK CFI INIT 47270 e0 .cfa: sp 0 + .ra: lr
STACK CFI 47274 .cfa: sp 20 +
STACK CFI 47278 .cfa: sp 2084 +
STACK CFI 4727c .cfa: sp 2088 +
STACK CFI 47280 .ra: .cfa -4 + ^ r4: .cfa -20 + ^ r5: .cfa -16 + ^ r6: .cfa -12 + ^ r7: .cfa -8 + ^
STACK CFI INIT 47350 dc .cfa: sp 0 + .ra: lr
STACK CFI 47354 .cfa: sp 20 +
STACK CFI 47358 .ra: .cfa -4 + ^ r4: .cfa -20 + ^ r5: .cfa -16 + ^ r6: .cfa -12 + ^ r7: .cfa -8 + ^
STACK CFI 47378 .cfa: sp 2084 +
STACK CFI 4737c .cfa: sp 2088 +
STACK CFI INIT 4742c e4 .cfa: sp 0 + .ra: lr
STACK CFI 47430 .cfa: sp 12 +
STACK CFI 47434 .cfa: sp 2076 +
STACK CFI 47438 .cfa: sp 2080 +
STACK CFI 4743c .ra: .cfa -4 + ^ r4: .cfa -12 + ^ r5: .cfa -8 + ^
STACK CFI INIT 47510 100 .cfa: sp 0 + .ra: lr
STACK CFI 47514 .cfa: sp 20 +
STACK CFI 47518 .cfa: sp 2084 +
STACK CFI 4751c .cfa: sp 2088 +
STACK CFI 47520 .ra: .cfa -4 + ^ r4: .cfa -20 + ^ r5: .cfa -16 + ^ r6: .cfa -12 + ^ r7: .cfa -8 + ^
STACK CFI INIT 47610 f4 .cfa: sp 0 + .ra: lr
STACK CFI 47614 .cfa: sp 16 +
STACK CFI 47618 .ra: .cfa -4 + ^ r4: .cfa -16 + ^ r5: .cfa -12 + ^ r6: .cfa -8 + ^
STACK CFI 4761c .cfa: sp 2080 +
STACK CFI INIT 47704 11c .cfa: sp 0 + .ra: lr
STACK CFI 47708 .cfa: sp 20 +
STACK CFI 4770c .cfa: sp 2084 +
STACK CFI 47710 .cfa: sp 2088 +
STACK CFI 47714 .ra: .cfa -4 + ^ r4: .cfa -20 + ^ r5: .cfa -16 + ^ r6: .cfa -12 + ^ r7: .cfa -8 + ^
STACK CFI INIT 47820 e8 .cfa: sp 0 + .ra: lr
STACK CFI 47824 .cfa: sp 12 +
STACK CFI 47828 .cfa: sp 2076 +
STACK CFI 4782c .cfa: sp 2080 +
STACK CFI 47830 .ra: .cfa -4 + ^ r4: .cfa -12 + ^ r5: .cfa -8 + ^
STACK CFI INIT 47908 104 .cfa: sp 0 + .ra: lr
STACK CFI 4790c .cfa: sp 20 +
STACK CFI 47910 .cfa: sp 2084 +
STACK CFI 47914 .cfa: sp 2088 +
STACK CFI 47918 .ra: .cfa -4 + ^ r4: .cfa -20 + ^ r5: .cfa -16 + ^ r6: .cfa -12 + ^ r7: .cfa -8 + ^
STACK CFI INIT 47a0c d8 .cfa: sp 0 + .ra: lr
STACK CFI 47a10 .cfa: sp 20 +
STACK CFI 47a14 .ra: .cfa -4 + ^ r4: .cfa -20 + ^ r5: .cfa -16 + ^ r6: .cfa -12 + ^ r7: .cfa -8 + ^
STACK CFI 47a34 .cfa: sp 2084 +
STACK CFI 47a38 .cfa: sp 2088 +
STACK CFI INIT 47ae4 c0 .cfa: sp 0 + .ra: lr
STACK CFI 47ae8 .cfa: sp 12 +
STACK CFI 47aec .ra: .cfa -4 + ^ r4: .cfa -12 + ^ r5: .cfa -8 + ^
STACK CFI 47b08 .cfa: sp 2076 +
STACK CFI 47b0c .cfa: sp 2080 +
STACK CFI INIT 47ba4 d8 .cfa: sp 0 + .ra: lr
STACK CFI 47ba8 .cfa: sp 28 +
STACK CFI 47bac .ra: .cfa -4 + ^ r10: .cfa -8 + ^ r4: .cfa -28 + ^ r5: .cfa -24 + ^ r6: .cfa -20 + ^ r7: .cfa -16 + ^ r8: .cfa -12 + ^
STACK CFI 47bcc .cfa: sp 56 +
STACK CFI INIT 47c7c cc .cfa: sp 0 + .ra: lr
STACK CFI 47c80 .cfa: sp 24 +
STACK CFI 47c84 .ra: .cfa -4 + ^ r4: .cfa -24 + ^ r5: .cfa -20 + ^ r6: .cfa -16 + ^ r7: .cfa -12 + ^ r8: .cfa -8 + ^
STACK CFI 47ca4 .cfa: sp 48 +
STACK CFI INIT 47d48 d8 .cfa: sp 0 + .ra: lr
STACK CFI 47d4c .cfa: sp 28 +
STACK CFI 47d50 .ra: .cfa -4 + ^ r10: .cfa -8 + ^ r4: .cfa -28 + ^ r5: .cfa -24 + ^ r6: .cfa -20 + ^ r7: .cfa -16 + ^ r8: .cfa -12 + ^
STACK CFI 47d70 .cfa: sp 56 +
STACK CFI INIT 47e20 f0 .cfa: sp 0 + .ra: lr
STACK CFI 47e24 .cfa: sp 36 +
STACK CFI 47e28 .ra: .cfa -4 + ^ r10: .cfa -12 + ^ r11: .cfa -8 + ^ r4: .cfa -36 + ^ r5: .cfa -32 + ^ r6: .cfa -28 + ^ r7: .cfa -24 + ^ r8: .cfa -20 + ^ r9: .cfa -16 + ^
STACK CFI 47e48 .cfa: sp 64 +
STACK CFI INIT 47f10 e4 .cfa: sp 0 + .ra: lr
STACK CFI 47f14 .cfa: sp 32 +
STACK CFI 47f18 .ra: .cfa -4 + ^ r10: .cfa -8 + ^ r4: .cfa -32 + ^ r5: .cfa -28 + ^ r6: .cfa -24 + ^ r7: .cfa -20 + ^ r8: .cfa -16 + ^ r9: .cfa -12 + ^
STACK CFI 47f38 .cfa: sp 56 +
STACK CFI INIT 47ff4 f0 .cfa: sp 0 + .ra: lr
STACK CFI 47ff8 .cfa: sp 36 +
STACK CFI 47ffc .ra: .cfa -4 + ^ r10: .cfa -12 + ^ r11: .cfa -8 + ^ r4: .cfa -36 + ^ r5: .cfa -32 + ^ r6: .cfa -28 + ^ r7: .cfa -24 + ^ r8: .cfa -20 + ^ r9: .cfa -16 + ^
STACK CFI 4801c .cfa: sp 64 +
STACK CFI INIT 480e4 e4 .cfa: sp 0 + .ra: lr
STACK CFI 480e8 .cfa: sp 32 +
STACK CFI 480ec .ra: .cfa -4 + ^ r10: .cfa -8 + ^ r4: .cfa -32 + ^ r5: .cfa -28 + ^ r6: .cfa -24 + ^ r7: .cfa -20 + ^ r8: .cfa -16 + ^ r9: .cfa -12 + ^
STACK CFI 4810c .cfa: sp 56 +
STACK CFI INIT 481c8 f0 .cfa: sp 0 + .ra: lr
STACK CFI 481cc .cfa: sp 36 +
STACK CFI 481d0 .ra: .cfa -4 + ^ r10: .cfa -12 + ^ r11: .cfa -8 + ^ r4: .cfa -36 + ^ r5: .cfa -32 + ^ r6: .cfa -28 + ^ r7: .cfa -24 + ^ r8: .cfa -20 + ^ r9: .cfa -16 + ^
STACK CFI 481f0 .cfa: sp 64 +
STACK CFI INIT 482b8 e4 .cfa: sp 0 + .ra: lr
STACK CFI 482bc .cfa: sp 32 +
STACK CFI 482c0 .ra: .cfa -4 + ^ r10: .cfa -8 + ^ r4: .cfa -32 + ^ r5: .cfa -28 + ^ r6: .cfa -24 + ^ r7: .cfa -20 + ^ r8: .cfa -16 + ^ r9: .cfa -12 + ^
STACK CFI 482e0 .cfa: sp 56 +
STACK CFI INIT 4839c d8 .cfa: sp 0 + .ra: lr
STACK CFI 483a0 .cfa: sp 28 +
STACK CFI 483a4 .ra: .cfa -4 + ^ r10: .cfa -8 + ^ r4: .cfa -28 + ^ r5: .cfa -24 + ^ r6: .cfa -20 + ^ r7: .cfa -16 + ^ r8: .cfa -12 + ^
STACK CFI 483c4 .cfa: sp 56 +
STACK CFI INIT 48474 e4 .cfa: sp 0 + .ra: lr
STACK CFI 48478 .cfa: sp 32 +
STACK CFI 4847c .ra: .cfa -4 + ^ r10: .cfa -8 + ^ r4: .cfa -32 + ^ r5: .cfa -28 + ^ r6: .cfa -24 + ^ r7: .cfa -20 + ^ r8: .cfa -16 + ^ r9: .cfa -12 + ^
STACK CFI 4849c .cfa: sp 56 +
STACK CFI INIT 48558 20 .cfa: sp 0 + .ra: lr
STACK CFI INIT 48578 4 .cfa: sp 0 + .ra: lr
STACK CFI INIT 4857c 2a4 .cfa: sp 0 + .ra: lr
STACK CFI 48580 .cfa: sp 28 +
STACK CFI 48584 .ra: .cfa -4 + ^ r10: .cfa -8 + ^ r4: .cfa -28 + ^ r5: .cfa -24 + ^ r6: .cfa -20 + ^ r7: .cfa -16 + ^ r8: .cfa -12 + ^
STACK CFI 48588 .cfa: sp 48 +
STACK CFI INIT 48820 50 .cfa: sp 0 + .ra: lr
STACK CFI 48824 .cfa: sp 8 +
STACK CFI 4882c .cfa: sp 24 +
STACK CFI 48830 .ra: .cfa -4 + ^ r4: .cfa -8 + ^
STACK CFI INIT 48870 c .cfa: sp 0 + .ra: lr
STACK CFI INIT 4887c c .cfa: sp 0 + .ra: lr
STACK CFI INIT 48888 8 .cfa: sp 0 + .ra: lr
STACK CFI INIT 48890 8 .cfa: sp 0 + .ra: lr
STACK CFI INIT 48898 8 .cfa: sp 0 + .ra: lr
STACK CFI INIT 488a0 8 .cfa: sp 0 + .ra: lr
STACK CFI INIT 488a8 8 .cfa: sp 0 + .ra: lr
STACK CFI INIT 488b0 8 .cfa: sp 0 + .ra: lr
STACK CFI INIT 488b8 30 .cfa: sp 0 + .ra: lr
STACK CFI 488bc .cfa: sp 8 +
STACK CFI 488c0 .cfa: sp 16 +
STACK CFI 488c4 .ra: .cfa -4 + ^ r4: .cfa -8 + ^
STACK CFI INIT 488e8 8 .cfa: sp 0 + .ra: lr
STACK CFI INIT 488f0 8 .cfa: sp 0 + .ra: lr
STACK CFI INIT 488f8 110 .cfa: sp 0 + .ra: lr
STACK CFI 488fc .cfa: sp 24 +
STACK CFI 48900 .ra: .cfa -4 + ^ r4: .cfa -24 + ^ r5: .cfa -20 + ^ r6: .cfa -16 + ^ r7: .cfa -12 + ^ r8: .cfa -8 + ^
STACK CFI 48918 .cfa: sp 2088 +
STACK CFI INIT 48a08 10c .cfa: sp 0 + .ra: lr
STACK CFI 48a0c .cfa: sp 16 +
STACK CFI 48a14 .cfa: sp 1056 +
STACK CFI 48a20 .ra: .cfa -4 + ^ r4: .cfa -16 + ^ r5: .cfa -12 + ^ r6: .cfa -8 + ^
STACK CFI INIT 48b14 bc .cfa: sp 0 + .ra: lr
STACK CFI 48b18 .cfa: sp 12 +
STACK CFI 48b1c .ra: .cfa -4 + ^ r4: .cfa -12 + ^ r5: .cfa -8 + ^
STACK CFI 48b24 .cfa: sp 2076 +
STACK CFI 48b28 .cfa: sp 2080 +
STACK CFI INIT 48bd0 cc .cfa: sp 0 + .ra: lr
STACK CFI 48bd4 .cfa: sp 12 +
STACK CFI 48bd8 .cfa: sp 2076 +
STACK CFI 48bdc .cfa: sp 2080 +
STACK CFI 48be0 .ra: .cfa -4 + ^ r4: .cfa -12 + ^ r5: .cfa -8 + ^
STACK CFI INIT 48c9c c0 .cfa: sp 0 + .ra: lr
STACK CFI 48ca0 .cfa: sp 12 +
STACK CFI 48ca4 .ra: .cfa -4 + ^ r4: .cfa -12 + ^ r5: .cfa -8 + ^
STACK CFI 48cac .cfa: sp 2076 +
STACK CFI 48cb0 .cfa: sp 2080 +
STACK CFI INIT 48d5c bc .cfa: sp 0 + .ra: lr
STACK CFI 48d60 .cfa: sp 12 +
STACK CFI 48d64 .ra: .cfa -4 + ^ r4: .cfa -12 + ^ r5: .cfa -8 + ^
STACK CFI 48d6c .cfa: sp 2076 +
STACK CFI 48d70 .cfa: sp 2080 +
STACK CFI INIT 48e18 c0 .cfa: sp 0 + .ra: lr
STACK CFI 48e1c .cfa: sp 16 +
STACK CFI 48e20 .ra: .cfa -4 + ^ r4: .cfa -16 + ^ r5: .cfa -12 + ^ r6: .cfa -8 + ^
STACK CFI 48e24 .cfa: sp 2080 +
STACK CFI INIT 48ed8 11c .cfa: sp 0 + .ra: lr
STACK CFI 48edc .cfa: sp 24 +
STACK CFI 48ee0 .ra: .cfa -4 + ^ r4: .cfa -24 + ^ r5: .cfa -20 + ^ r6: .cfa -16 + ^ r7: .cfa -12 + ^ r8: .cfa -8 + ^
STACK CFI 48ef8 .cfa: sp 2088 +
STACK CFI INIT 48ff4 148 .cfa: sp 0 + .ra: lr
STACK CFI 48ff8 .cfa: sp 20 +
STACK CFI 48ffc .cfa: sp 2084 +
STACK CFI 49000 .cfa: sp 2088 +
STACK CFI 49004 .ra: .cfa -4 + ^ r4: .cfa -20 + ^ r5: .cfa -16 + ^ r6: .cfa -12 + ^ r7: .cfa -8 + ^
STACK CFI INIT 4913c 134 .cfa: sp 0 + .ra: lr
STACK CFI 49140 .cfa: sp 24 +
STACK CFI 49144 .ra: .cfa -4 + ^ r4: .cfa -24 + ^ r5: .cfa -20 + ^ r6: .cfa -16 + ^ r7: .cfa -12 + ^ r8: .cfa -8 + ^
STACK CFI 49148 .cfa: sp 2088 +
STACK CFI INIT 49270 134 .cfa: sp 0 + .ra: lr
STACK CFI 49274 .cfa: sp 24 +
STACK CFI 49278 .ra: .cfa -4 + ^ r4: .cfa -24 + ^ r5: .cfa -20 + ^ r6: .cfa -16 + ^ r7: .cfa -12 + ^ r8: .cfa -8 + ^
STACK CFI 4927c .cfa: sp 2088 +
STACK CFI INIT 493a4 140 .cfa: sp 0 + .ra: lr
STACK CFI 493a8 .cfa: sp 20 +
STACK CFI 493ac .cfa: sp 2084 +
STACK CFI 493b0 .cfa: sp 2088 +
STACK CFI 493b4 .ra: .cfa -4 + ^ r4: .cfa -20 + ^ r5: .cfa -16 + ^ r6: .cfa -12 + ^ r7: .cfa -8 + ^
STACK CFI INIT 494e4 130 .cfa: sp 0 + .ra: lr
STACK CFI 494e8 .cfa: sp 20 +
STACK CFI 494ec .cfa: sp 2084 +
STACK CFI 494f0 .cfa: sp 2088 +
STACK CFI 494f4 .ra: .cfa -4 + ^ r4: .cfa -20 + ^ r5: .cfa -16 + ^ r6: .cfa -12 + ^ r7: .cfa -8 + ^
STACK CFI INIT 49614 d8 .cfa: sp 0 + .ra: lr
STACK CFI 49618 .cfa: sp 28 +
STACK CFI 4961c .ra: .cfa -4 + ^ r10: .cfa -8 + ^ r4: .cfa -28 + ^ r5: .cfa -24 + ^ r6: .cfa -20 + ^ r7: .cfa -16 + ^ r8: .cfa -12 + ^
STACK CFI 4963c .cfa: sp 56 +
STACK CFI INIT 496ec d8 .cfa: sp 0 + .ra: lr
STACK CFI 496f0 .cfa: sp 28 +
STACK CFI 496f4 .ra: .cfa -4 + ^ r10: .cfa -8 + ^ r4: .cfa -28 + ^ r5: .cfa -24 + ^ r6: .cfa -20 + ^ r7: .cfa -16 + ^ r8: .cfa -12 + ^
STACK CFI 49714 .cfa: sp 56 +
STACK CFI INIT 497c4 d8 .cfa: sp 0 + .ra: lr
STACK CFI 497c8 .cfa: sp 28 +
STACK CFI 497cc .ra: .cfa -4 + ^ r10: .cfa -8 + ^ r4: .cfa -28 + ^ r5: .cfa -24 + ^ r6: .cfa -20 + ^ r7: .cfa -16 + ^ r8: .cfa -12 + ^
STACK CFI 497ec .cfa: sp 56 +
STACK CFI INIT 4989c d8 .cfa: sp 0 + .ra: lr
STACK CFI 498a0 .cfa: sp 28 +
STACK CFI 498a4 .ra: .cfa -4 + ^ r10: .cfa -8 + ^ r4: .cfa -28 + ^ r5: .cfa -24 + ^ r6: .cfa -20 + ^ r7: .cfa -16 + ^ r8: .cfa -12 + ^
STACK CFI 498c4 .cfa: sp 56 +
STACK CFI INIT 49974 104 .cfa: sp 0 + .ra: lr
STACK CFI 49978 .cfa: sp 36 +
STACK CFI 4997c .ra: .cfa -4 + ^ r10: .cfa -12 + ^ r11: .cfa -8 + ^ r4: .cfa -36 + ^ r5: .cfa -32 + ^ r6: .cfa -28 + ^ r7: .cfa -24 + ^ r8: .cfa -20 + ^ r9: .cfa -16 + ^
STACK CFI 4999c .cfa: sp 80 +
STACK CFI INIT 49a78 d8 .cfa: sp 0 + .ra: lr
STACK CFI 49a7c .cfa: sp 28 +
STACK CFI 49a80 .ra: .cfa -4 + ^ r10: .cfa -8 + ^ r4: .cfa -28 + ^ r5: .cfa -24 + ^ r6: .cfa -20 + ^ r7: .cfa -16 + ^ r8: .cfa -12 + ^
STACK CFI 49aa0 .cfa: sp 56 +
STACK CFI INIT 49b50 104 .cfa: sp 0 + .ra: lr
STACK CFI 49b54 .cfa: sp 36 +
STACK CFI 49b58 .ra: .cfa -4 + ^ r10: .cfa -12 + ^ r11: .cfa -8 + ^ r4: .cfa -36 + ^ r5: .cfa -32 + ^ r6: .cfa -28 + ^ r7: .cfa -24 + ^ r8: .cfa -20 + ^ r9: .cfa -16 + ^
STACK CFI 49b78 .cfa: sp 80 +
STACK CFI INIT 49c54 120 .cfa: sp 0 + .ra: lr
STACK CFI 49c58 .cfa: sp 36 +
STACK CFI 49c5c .ra: .cfa -4 + ^ r10: .cfa -12 + ^ r11: .cfa -8 + ^ r4: .cfa -36 + ^ r5: .cfa -32 + ^ r6: .cfa -28 + ^ r7: .cfa -24 + ^ r8: .cfa -20 + ^ r9: .cfa -16 + ^
STACK CFI 49c7c .cfa: sp 88 +
STACK CFI INIT 49d74 f0 .cfa: sp 0 + .ra: lr
STACK CFI 49d78 .cfa: sp 36 +
STACK CFI 49d7c .ra: .cfa -4 + ^ r10: .cfa -12 + ^ r11: .cfa -8 + ^ r4: .cfa -36 + ^ r5: .cfa -32 + ^ r6: .cfa -28 + ^ r7: .cfa -24 + ^ r8: .cfa -20 + ^ r9: .cfa -16 + ^
STACK CFI 49d9c .cfa: sp 64 +
STACK CFI INIT 49e64 f0 .cfa: sp 0 + .ra: lr
STACK CFI 49e68 .cfa: sp 36 +
STACK CFI 49e6c .ra: .cfa -4 + ^ r10: .cfa -12 + ^ r11: .cfa -8 + ^ r4: .cfa -36 + ^ r5: .cfa -32 + ^ r6: .cfa -28 + ^ r7: .cfa -24 + ^ r8: .cfa -20 + ^ r9: .cfa -16 + ^
STACK CFI 49e8c .cfa: sp 64 +
STACK CFI INIT 49f54 12c .cfa: sp 0 + .ra: lr
STACK CFI 49f58 .cfa: sp 36 +
STACK CFI 49f5c .ra: .cfa -4 + ^ r10: .cfa -12 + ^ r11: .cfa -8 + ^ r4: .cfa -36 + ^ r5: .cfa -32 + ^ r6: .cfa -28 + ^ r7: .cfa -24 + ^ r8: .cfa -20 + ^ r9: .cfa -16 + ^
STACK CFI 49f7c .cfa: sp 88 +
STACK CFI INIT 4a080 d8 .cfa: sp 0 + .ra: lr
STACK CFI 4a084 .cfa: sp 28 +
STACK CFI 4a088 .ra: .cfa -4 + ^ r10: .cfa -8 + ^ r4: .cfa -28 + ^ r5: .cfa -24 + ^ r6: .cfa -20 + ^ r7: .cfa -16 + ^ r8: .cfa -12 + ^
STACK CFI 4a0a8 .cfa: sp 56 +
STACK CFI INIT 4a158 114 .cfa: sp 0 + .ra: lr
STACK CFI 4a15c .cfa: sp 36 +
STACK CFI 4a160 .ra: .cfa -4 + ^ r10: .cfa -12 + ^ r11: .cfa -8 + ^ r4: .cfa -36 + ^ r5: .cfa -32 + ^ r6: .cfa -28 + ^ r7: .cfa -24 + ^ r8: .cfa -20 + ^ r9: .cfa -16 + ^
STACK CFI 4a180 .cfa: sp 88 +
STACK CFI INIT 4a26c 20 .cfa: sp 0 + .ra: lr
STACK CFI INIT 4a28c 4 .cfa: sp 0 + .ra: lr
STACK CFI INIT 4a290 6dc .cfa: sp 0 + .ra: lr
STACK CFI 4a294 .cfa: sp 32 +
STACK CFI 4a298 .ra: .cfa -4 + ^ r10: .cfa -8 + ^ r4: .cfa -32 + ^ r5: .cfa -28 + ^ r6: .cfa -24 + ^ r7: .cfa -20 + ^ r8: .cfa -16 + ^ r9: .cfa -12 + ^
STACK CFI 4a29c .cfa: sp 80 +
STACK CFI INIT 4a96c 50 .cfa: sp 0 + .ra: lr
STACK CFI 4a970 .cfa: sp 8 +
STACK CFI 4a978 .cfa: sp 24 +
STACK CFI 4a97c .ra: .cfa -4 + ^ r4: .cfa -8 + ^
STACK CFI INIT 4c028 14 .cfa: sp 0 + .ra: lr
STACK CFI 4c030 .cfa: sp 8 +
STACK CFI 4c034 .ra: .cfa -4 + ^ r3: .cfa -8 + ^
STACK CFI INIT 4a9bc 2a0 .cfa: sp 0 + .ra: lr
STACK CFI 4a9c0 .cfa: sp 28 +
STACK CFI 4a9c4 .ra: .cfa -4 + ^ r10: .cfa -8 + ^ r4: .cfa -28 + ^ r5: .cfa -24 + ^ r6: .cfa -20 + ^ r7: .cfa -16 + ^ r8: .cfa -12 + ^
STACK CFI 4a9cc .cfa: sp 96 +
STACK CFI INIT 4ac5c 40 .cfa: sp 0 + .ra: lr
STACK CFI 4ac64 .cfa: sp 16 +
STACK CFI 4ac68 .ra: .cfa -4 + ^ r3: .cfa -16 + ^ r4: .cfa -12 + ^ r5: .cfa -8 + ^
STACK CFI INIT 4ac9c 14 .cfa: sp 0 + .ra: lr
STACK CFI INIT 4acb0 d0 .cfa: sp 0 + .ra: lr
STACK CFI 4acb4 .cfa: sp 20 +
STACK CFI 4acb8 .cfa: sp 32 +
STACK CFI 4acbc .ra: .cfa -4 + ^ r4: .cfa -20 + ^ r5: .cfa -16 + ^ r6: .cfa -12 + ^ r7: .cfa -8 + ^
STACK CFI INIT 4ad80 48 .cfa: sp 0 + .ra: lr
STACK CFI 4ad84 .cfa: sp 16 +
STACK CFI 4ad88 .ra: .cfa -4 + ^ r3: .cfa -16 + ^ r4: .cfa -12 + ^ r5: .cfa -8 + ^
STACK CFI INIT 4adc8 8 .cfa: sp 0 + .ra: lr
STACK CFI INIT 4add0 10 .cfa: sp 0 + .ra: lr
STACK CFI INIT 4ade0 8 .cfa: sp 0 + .ra: lr
STACK CFI INIT 4ade8 8 .cfa: sp 0 + .ra: lr
STACK CFI INIT 4c03c 58 .cfa: sp 0 + .ra: lr
STACK CFI 4c044 .cfa: sp 8 +
STACK CFI 4c048 .ra: .cfa -4 + ^ r4: .cfa -8 + ^
STACK CFI INIT 4c094 60 .cfa: sp 0 + .ra: lr
STACK CFI 4c09c .cfa: sp 8 +
STACK CFI 4c0a0 .ra: .cfa -4 + ^ r4: .cfa -8 + ^
STACK CFI INIT 4c0f4 8c .cfa: sp 0 + .ra: lr
STACK CFI 4c0f8 .cfa: sp 16 +
STACK CFI 4c0fc .ra: .cfa -4 + ^ r3: .cfa -16 + ^ r4: .cfa -12 + ^ r5: .cfa -8 + ^
STACK CFI INIT 4c180 98 .cfa: sp 0 + .ra: lr
STACK CFI 4c184 .cfa: sp 16 +
STACK CFI 4c188 .ra: .cfa -4 + ^ r3: .cfa -16 + ^ r4: .cfa -12 + ^ r5: .cfa -8 + ^
STACK CFI INIT 4c218 a0 .cfa: sp 0 + .ra: lr
STACK CFI 4c21c .cfa: sp 16 +
STACK CFI 4c220 .ra: .cfa -4 + ^ r3: .cfa -16 + ^ r4: .cfa -12 + ^ r5: .cfa -8 + ^
STACK CFI INIT 4adf0 420 .cfa: sp 0 + .ra: lr
STACK CFI 4adf4 .cfa: sp 36 +
STACK CFI 4adf8 .ra: .cfa -4 + ^ r10: .cfa -12 + ^ r11: .cfa -8 + ^ r4: .cfa -36 + ^ r5: .cfa -32 + ^ r6: .cfa -28 + ^ r7: .cfa -24 + ^ r8: .cfa -20 + ^ r9: .cfa -16 + ^
STACK CFI 4adfc .cfa: sp 64 +
STACK CFI INIT 4b210 33c .cfa: sp 0 + .ra: lr
STACK CFI 4b214 .cfa: sp 36 +
STACK CFI 4b218 .ra: .cfa -4 + ^ r10: .cfa -12 + ^ r11: .cfa -8 + ^ r4: .cfa -36 + ^ r5: .cfa -32 + ^ r6: .cfa -28 + ^ r7: .cfa -24 + ^ r8: .cfa -20 + ^ r9: .cfa -16 + ^
STACK CFI 4b21c .cfa: sp 64 +
STACK CFI INIT 4b54c 378 .cfa: sp 0 + .ra: lr
STACK CFI 4b550 .cfa: sp 36 +
STACK CFI 4b554 .ra: .cfa -4 + ^ r10: .cfa -12 + ^ r11: .cfa -8 + ^ r4: .cfa -36 + ^ r5: .cfa -32 + ^ r6: .cfa -28 + ^ r7: .cfa -24 + ^ r8: .cfa -20 + ^ r9: .cfa -16 + ^
STACK CFI 4b558 .cfa: sp 72 +
STACK CFI INIT 4b8c4 378 .cfa: sp 0 + .ra: lr
STACK CFI 4b8c8 .cfa: sp 36 +
STACK CFI 4b8cc .ra: .cfa -4 + ^ r10: .cfa -12 + ^ r11: .cfa -8 + ^ r4: .cfa -36 + ^ r5: .cfa -32 + ^ r6: .cfa -28 + ^ r7: .cfa -24 + ^ r8: .cfa -20 + ^ r9: .cfa -16 + ^
STACK CFI 4b8d0 .cfa: sp 72 +
STACK CFI INIT 4bc3c 3ec .cfa: sp 0 + .ra: lr
STACK CFI 4bc40 .cfa: sp 36 +
STACK CFI 4bc44 .ra: .cfa -4 + ^ r10: .cfa -12 + ^ r11: .cfa -8 + ^ r4: .cfa -36 + ^ r5: .cfa -32 + ^ r6: .cfa -28 + ^ r7: .cfa -24 + ^ r8: .cfa -20 + ^ r9: .cfa -16 + ^
STACK CFI 4bc48 .cfa: sp 72 +
STACK CFI INIT 4c2b8 d0 .cfa: sp 0 + .ra: lr
STACK CFI 4c2bc .cfa: sp 12 +
STACK CFI 4c2c0 .ra: .cfa -4 + ^ r4: .cfa -12 + ^ r5: .cfa -8 + ^
STACK CFI 4c2c4 .cfa: sp 1052 +
STACK CFI 4c2c8 .cfa: sp 1056 +
STACK CFI INIT 4c388 b8 .cfa: sp 0 + .ra: lr
STACK CFI 4c38c .cfa: sp 12 +
STACK CFI 4c390 .ra: .cfa -4 + ^ r4: .cfa -12 + ^ r5: .cfa -8 + ^
STACK CFI 4c398 .cfa: sp 1052 +
STACK CFI 4c39c .cfa: sp 1056 +
STACK CFI INIT 4c440 d8 .cfa: sp 0 + .ra: lr
STACK CFI 4c444 .cfa: sp 28 +
STACK CFI 4c448 .ra: .cfa -4 + ^ r10: .cfa -8 + ^ r4: .cfa -28 + ^ r5: .cfa -24 + ^ r6: .cfa -20 + ^ r7: .cfa -16 + ^ r8: .cfa -12 + ^
STACK CFI 4c468 .cfa: sp 56 +
STACK CFI INIT 4c518 d8 .cfa: sp 0 + .ra: lr
STACK CFI 4c51c .cfa: sp 28 +
STACK CFI 4c520 .ra: .cfa -4 + ^ r10: .cfa -8 + ^ r4: .cfa -28 + ^ r5: .cfa -24 + ^ r6: .cfa -20 + ^ r7: .cfa -16 + ^ r8: .cfa -12 + ^
STACK CFI 4c540 .cfa: sp 56 +
STACK CFI INIT 4c5f0 20 .cfa: sp 0 + .ra: lr
STACK CFI INIT 4c610 4 .cfa: sp 0 + .ra: lr
STACK CFI INIT 4c614 a4 .cfa: sp 0 + .ra: lr
STACK CFI 4c618 .cfa: sp 20 +
STACK CFI 4c61c .ra: .cfa -4 + ^ r4: .cfa -20 + ^ r5: .cfa -16 + ^ r6: .cfa -12 + ^ r7: .cfa -8 + ^
STACK CFI 4c620 .cfa: sp 40 +
STACK CFI INIT 4c6b8 50 .cfa: sp 0 + .ra: lr
STACK CFI 4c6bc .cfa: sp 8 +
STACK CFI 4c6c4 .cfa: sp 24 +
STACK CFI 4c6c8 .ra: .cfa -4 + ^ r4: .cfa -8 + ^
STACK CFI INIT 4c708 158 .cfa: sp 0 + .ra: lr
STACK CFI 4c70c .cfa: sp 24 +
STACK CFI 4c710 .ra: .cfa -4 + ^ r4: .cfa -24 + ^ r5: .cfa -20 + ^ r6: .cfa -16 + ^ r7: .cfa -12 + ^ r8: .cfa -8 + ^
STACK CFI INIT 4c860 168 .cfa: sp 0 + .ra: lr
STACK CFI 4c864 .cfa: sp 24 +
STACK CFI 4c868 .ra: .cfa -4 + ^ r3: .cfa -24 + ^ r4: .cfa -20 + ^ r5: .cfa -16 + ^ r6: .cfa -12 + ^ r7: .cfa -8 + ^
STACK CFI INIT 4c9c8 d8 .cfa: sp 0 + .ra: lr
STACK CFI 4c9cc .cfa: sp 16 +
STACK CFI 4c9d0 .ra: .cfa -4 + ^ r4: .cfa -16 + ^ r5: .cfa -12 + ^ r6: .cfa -8 + ^
STACK CFI 4c9e0 .cfa: sp 1056 +
STACK CFI INIT 4caa0 118 .cfa: sp 0 + .ra: lr
STACK CFI 4caa4 .cfa: sp 24 +
STACK CFI 4caa8 .ra: .cfa -4 + ^ r4: .cfa -24 + ^ r5: .cfa -20 + ^ r6: .cfa -16 + ^ r7: .cfa -12 + ^ r8: .cfa -8 + ^
STACK CFI 4cac0 .cfa: sp 2088 +
STACK CFI INIT 4cbb8 c0 .cfa: sp 0 + .ra: lr
STACK CFI 4cbbc .cfa: sp 16 +
STACK CFI 4cbc0 .ra: .cfa -4 + ^ r4: .cfa -16 + ^ r5: .cfa -12 + ^ r6: .cfa -8 + ^
STACK CFI 4cbc4 .cfa: sp 2080 +
STACK CFI INIT 4cc78 d4 .cfa: sp 0 + .ra: lr
STACK CFI 4cc7c .cfa: sp 20 +
STACK CFI 4cc80 .ra: .cfa -4 + ^ r4: .cfa -20 + ^ r5: .cfa -16 + ^ r6: .cfa -12 + ^ r7: .cfa -8 + ^
STACK CFI 4cc98 .cfa: sp 2084 +
STACK CFI 4cc9c .cfa: sp 2088 +
STACK CFI INIT 4cd4c bc .cfa: sp 0 + .ra: lr
STACK CFI 4cd50 .cfa: sp 12 +
STACK CFI 4cd54 .ra: .cfa -4 + ^ r4: .cfa -12 + ^ r5: .cfa -8 + ^
STACK CFI 4cd6c .cfa: sp 2076 +
STACK CFI 4cd70 .cfa: sp 2080 +
STACK CFI INIT 4ce08 e4 .cfa: sp 0 + .ra: lr
STACK CFI 4ce0c .cfa: sp 12 +
STACK CFI 4ce14 .cfa: sp 2076 +
STACK CFI 4ce18 .cfa: sp 2080 +
STACK CFI 4ce28 .ra: .cfa -4 + ^ r4: .cfa -12 + ^ r5: .cfa -8 + ^
STACK CFI INIT 4ceec bc .cfa: sp 0 + .ra: lr
STACK CFI 4cef0 .cfa: sp 12 +
STACK CFI 4cef4 .ra: .cfa -4 + ^ r4: .cfa -12 + ^ r5: .cfa -8 + ^
STACK CFI 4cefc .cfa: sp 2076 +
STACK CFI 4cf00 .cfa: sp 2080 +
STACK CFI INIT 4cfa8 184 .cfa: sp 0 + .ra: lr
STACK CFI 4cfac .cfa: sp 24 +
STACK CFI 4cfb0 .ra: .cfa -4 + ^ r4: .cfa -24 + ^ r5: .cfa -20 + ^ r6: .cfa -16 + ^ r7: .cfa -12 + ^ r8: .cfa -8 + ^
STACK CFI 4cfbc .cfa: sp 2104 +
STACK CFI INIT 4d12c cc .cfa: sp 0 + .ra: lr
STACK CFI 4d130 .cfa: sp 12 +
STACK CFI 4d134 .ra: .cfa -4 + ^ r4: .cfa -12 + ^ r5: .cfa -8 + ^
STACK CFI 4d138 .cfa: sp 2076 +
STACK CFI 4d140 .cfa: sp 2080 +
STACK CFI INIT 4d1f8 bc .cfa: sp 0 + .ra: lr
STACK CFI 4d1fc .cfa: sp 12 +
STACK CFI 4d200 .ra: .cfa -4 + ^ r4: .cfa -12 + ^ r5: .cfa -8 + ^
STACK CFI 4d208 .cfa: sp 2076 +
STACK CFI 4d20c .cfa: sp 2080 +
STACK CFI INIT 4d2b4 c0 .cfa: sp 0 + .ra: lr
STACK CFI 4d2b8 .cfa: sp 12 +
STACK CFI 4d2bc .ra: .cfa -4 + ^ r4: .cfa -12 + ^ r5: .cfa -8 + ^
STACK CFI 4d2c4 .cfa: sp 2076 +
STACK CFI 4d2c8 .cfa: sp 2080 +
STACK CFI INIT 4d374 cc .cfa: sp 0 + .ra: lr
STACK CFI 4d378 .cfa: sp 12 +
STACK CFI 4d37c .ra: .cfa -4 + ^ r4: .cfa -12 + ^ r5: .cfa -8 + ^
STACK CFI 4d380 .cfa: sp 2076 +
STACK CFI 4d388 .cfa: sp 2080 +
STACK CFI INIT 4d440 bc .cfa: sp 0 + .ra: lr
STACK CFI 4d444 .cfa: sp 12 +
STACK CFI 4d448 .ra: .cfa -4 + ^ r4: .cfa -12 + ^ r5: .cfa -8 + ^
STACK CFI 4d450 .cfa: sp 2076 +
STACK CFI 4d454 .cfa: sp 2080 +
STACK CFI INIT 4d4fc c0 .cfa: sp 0 + .ra: lr
STACK CFI 4d500 .cfa: sp 16 +
STACK CFI 4d504 .ra: .cfa -4 + ^ r4: .cfa -16 + ^ r5: .cfa -12 + ^ r6: .cfa -8 + ^
STACK CFI 4d508 .cfa: sp 2080 +
STACK CFI INIT 4d5bc c4 .cfa: sp 0 + .ra: lr
STACK CFI 4d5c0 .cfa: sp 12 +
STACK CFI 4d5c4 .cfa: sp 2076 +
STACK CFI 4d5c8 .cfa: sp 2080 +
STACK CFI 4d5cc .ra: .cfa -4 + ^ r4: .cfa -12 + ^ r5: .cfa -8 + ^
STACK CFI INIT 4d680 c4 .cfa: sp 0 + .ra: lr
STACK CFI 4d684 .cfa: sp 12 +
STACK CFI 4d688 .cfa: sp 2076 +
STACK CFI 4d68c .cfa: sp 2080 +
STACK CFI 4d690 .ra: .cfa -4 + ^ r4: .cfa -12 + ^ r5: .cfa -8 + ^
STACK CFI INIT 4d744 c4 .cfa: sp 0 + .ra: lr
STACK CFI 4d748 .cfa: sp 12 +
STACK CFI 4d74c .cfa: sp 2076 +
STACK CFI 4d750 .cfa: sp 2080 +
STACK CFI 4d754 .ra: .cfa -4 + ^ r4: .cfa -12 + ^ r5: .cfa -8 + ^
STACK CFI INIT 4d808 bc .cfa: sp 0 + .ra: lr
STACK CFI 4d80c .cfa: sp 12 +
STACK CFI 4d810 .ra: .cfa -4 + ^ r4: .cfa -12 + ^ r5: .cfa -8 + ^
STACK CFI 4d828 .cfa: sp 2076 +
STACK CFI 4d82c .cfa: sp 2080 +
STACK CFI INIT 4d8c4 c4 .cfa: sp 0 + .ra: lr
STACK CFI 4d8c8 .cfa: sp 12 +
STACK CFI 4d8cc .cfa: sp 2076 +
STACK CFI 4d8d0 .cfa: sp 2080 +
STACK CFI 4d8d4 .ra: .cfa -4 + ^ r4: .cfa -12 + ^ r5: .cfa -8 + ^
STACK CFI INIT 4d988 c4 .cfa: sp 0 + .ra: lr
STACK CFI 4d98c .cfa: sp 12 +
STACK CFI 4d990 .cfa: sp 2076 +
STACK CFI 4d994 .cfa: sp 2080 +
STACK CFI 4d998 .ra: .cfa -4 + ^ r4: .cfa -12 + ^ r5: .cfa -8 + ^
STACK CFI INIT 4da4c c4 .cfa: sp 0 + .ra: lr
STACK CFI 4da50 .cfa: sp 12 +
STACK CFI 4da54 .cfa: sp 2076 +
STACK CFI 4da58 .cfa: sp 2080 +
STACK CFI 4da5c .ra: .cfa -4 + ^ r4: .cfa -12 + ^ r5: .cfa -8 + ^
STACK CFI INIT 4db10 c4 .cfa: sp 0 + .ra: lr
STACK CFI 4db14 .cfa: sp 12 +
STACK CFI 4db18 .cfa: sp 2076 +
STACK CFI 4db1c .cfa: sp 2080 +
STACK CFI 4db20 .ra: .cfa -4 + ^ r4: .cfa -12 + ^ r5: .cfa -8 + ^
STACK CFI INIT 4dbd4 c4 .cfa: sp 0 + .ra: lr
STACK CFI 4dbd8 .cfa: sp 12 +
STACK CFI 4dbdc .cfa: sp 2076 +
STACK CFI 4dbe0 .cfa: sp 2080 +
STACK CFI 4dbe4 .ra: .cfa -4 + ^ r4: .cfa -12 + ^ r5: .cfa -8 + ^
STACK CFI INIT 4dc98 c4 .cfa: sp 0 + .ra: lr
STACK CFI 4dc9c .cfa: sp 12 +
STACK CFI 4dca0 .cfa: sp 2076 +
STACK CFI 4dca4 .cfa: sp 2080 +
STACK CFI 4dca8 .ra: .cfa -4 + ^ r4: .cfa -12 + ^ r5: .cfa -8 + ^
STACK CFI INIT 4dd5c bc .cfa: sp 0 + .ra: lr
STACK CFI 4dd60 .cfa: sp 12 +
STACK CFI 4dd64 .ra: .cfa -4 + ^ r4: .cfa -12 + ^ r5: .cfa -8 + ^
STACK CFI 4dd7c .cfa: sp 2076 +
STACK CFI 4dd80 .cfa: sp 2080 +
STACK CFI INIT 4de18 c0 .cfa: sp 0 + .ra: lr
STACK CFI 4de1c .cfa: sp 12 +
STACK CFI 4de20 .ra: .cfa -4 + ^ r4: .cfa -12 + ^ r5: .cfa -8 + ^
STACK CFI 4de28 .cfa: sp 2076 +
STACK CFI 4de2c .cfa: sp 2080 +
STACK CFI INIT 4ded8 cc .cfa: sp 0 + .ra: lr
STACK CFI 4dedc .cfa: sp 12 +
STACK CFI 4dee0 .cfa: sp 2076 +
STACK CFI 4dee4 .cfa: sp 2080 +
STACK CFI 4dee8 .ra: .cfa -4 + ^ r4: .cfa -12 + ^ r5: .cfa -8 + ^
STACK CFI INIT 4dfa4 1a0 .cfa: sp 0 + .ra: lr
STACK CFI 4dfa8 .cfa: sp 32 +
STACK CFI 4dfac .ra: .cfa -4 + ^ r10: .cfa -8 + ^ r4: .cfa -32 + ^ r5: .cfa -28 + ^ r6: .cfa -24 + ^ r7: .cfa -20 + ^ r8: .cfa -16 + ^ r9: .cfa -12 + ^
STACK CFI 4dfb8 .cfa: sp 2096 +
STACK CFI 4dfc4 .cfa: sp 2104 +
STACK CFI INIT 4e144 d8 .cfa: sp 0 + .ra: lr
STACK CFI 4e148 .cfa: sp 12 +
STACK CFI 4e14c .cfa: sp 2076 +
STACK CFI 4e150 .cfa: sp 2080 +
STACK CFI 4e158 .ra: .cfa -4 + ^ r4: .cfa -12 + ^ r5: .cfa -8 + ^
STACK CFI INIT 4e21c e0 .cfa: sp 0 + .ra: lr
STACK CFI 4e220 .cfa: sp 12 +
STACK CFI 4e228 .cfa: sp 2076 +
STACK CFI 4e22c .cfa: sp 2080 +
STACK CFI 4e230 .ra: .cfa -4 + ^ r4: .cfa -12 + ^ r5: .cfa -8 + ^
STACK CFI INIT 4e2fc 100 .cfa: sp 0 + .ra: lr
STACK CFI 4e300 .cfa: sp 36 +
STACK CFI 4e304 .ra: .cfa -4 + ^ r10: .cfa -12 + ^ r11: .cfa -8 + ^ r4: .cfa -36 + ^ r5: .cfa -32 + ^ r6: .cfa -28 + ^ r7: .cfa -24 + ^ r8: .cfa -20 + ^ r9: .cfa -16 + ^
STACK CFI 4e324 .cfa: sp 72 +
STACK CFI INIT 4e3fc d8 .cfa: sp 0 + .ra: lr
STACK CFI 4e400 .cfa: sp 28 +
STACK CFI 4e404 .ra: .cfa -4 + ^ r10: .cfa -8 + ^ r4: .cfa -28 + ^ r5: .cfa -24 + ^ r6: .cfa -20 + ^ r7: .cfa -16 + ^ r8: .cfa -12 + ^
STACK CFI 4e424 .cfa: sp 56 +
STACK CFI INIT 4e4d4 e4 .cfa: sp 0 + .ra: lr
STACK CFI 4e4d8 .cfa: sp 32 +
STACK CFI 4e4dc .ra: .cfa -4 + ^ r10: .cfa -8 + ^ r4: .cfa -32 + ^ r5: .cfa -28 + ^ r6: .cfa -24 + ^ r7: .cfa -20 + ^ r8: .cfa -16 + ^ r9: .cfa -12 + ^
STACK CFI 4e4fc .cfa: sp 56 +
STACK CFI INIT 4e5b8 104 .cfa: sp 0 + .ra: lr
STACK CFI 4e5bc .cfa: sp 36 +
STACK CFI 4e5c0 .ra: .cfa -4 + ^ r10: .cfa -12 + ^ r11: .cfa -8 + ^ r4: .cfa -36 + ^ r5: .cfa -32 + ^ r6: .cfa -28 + ^ r7: .cfa -24 + ^ r8: .cfa -20 + ^ r9: .cfa -16 + ^
STACK CFI 4e5e0 .cfa: sp 80 +
STACK CFI INIT 4e6bc f0 .cfa: sp 0 + .ra: lr
STACK CFI 4e6c0 .cfa: sp 36 +
STACK CFI 4e6c4 .ra: .cfa -4 + ^ r10: .cfa -12 + ^ r11: .cfa -8 + ^ r4: .cfa -36 + ^ r5: .cfa -32 + ^ r6: .cfa -28 + ^ r7: .cfa -24 + ^ r8: .cfa -20 + ^ r9: .cfa -16 + ^
STACK CFI 4e6e4 .cfa: sp 64 +
STACK CFI INIT 4e7ac d8 .cfa: sp 0 + .ra: lr
STACK CFI 4e7b0 .cfa: sp 28 +
STACK CFI 4e7b4 .ra: .cfa -4 + ^ r10: .cfa -8 + ^ r4: .cfa -28 + ^ r5: .cfa -24 + ^ r6: .cfa -20 + ^ r7: .cfa -16 + ^ r8: .cfa -12 + ^
STACK CFI 4e7d4 .cfa: sp 56 +
STACK CFI INIT 4e884 cc .cfa: sp 0 + .ra: lr
STACK CFI 4e888 .cfa: sp 24 +
STACK CFI 4e88c .ra: .cfa -4 + ^ r4: .cfa -24 + ^ r5: .cfa -20 + ^ r6: .cfa -16 + ^ r7: .cfa -12 + ^ r8: .cfa -8 + ^
STACK CFI 4e8ac .cfa: sp 48 +
STACK CFI INIT 4e950 e4 .cfa: sp 0 + .ra: lr
STACK CFI 4e954 .cfa: sp 32 +
STACK CFI 4e958 .ra: .cfa -4 + ^ r10: .cfa -8 + ^ r4: .cfa -32 + ^ r5: .cfa -28 + ^ r6: .cfa -24 + ^ r7: .cfa -20 + ^ r8: .cfa -16 + ^ r9: .cfa -12 + ^
STACK CFI 4e978 .cfa: sp 56 +
STACK CFI INIT 4ea34 e4 .cfa: sp 0 + .ra: lr
STACK CFI 4ea38 .cfa: sp 32 +
STACK CFI 4ea3c .ra: .cfa -4 + ^ r10: .cfa -8 + ^ r4: .cfa -32 + ^ r5: .cfa -28 + ^ r6: .cfa -24 + ^ r7: .cfa -20 + ^ r8: .cfa -16 + ^ r9: .cfa -12 + ^
STACK CFI 4ea5c .cfa: sp 56 +
STACK CFI INIT 4eb18 e4 .cfa: sp 0 + .ra: lr
STACK CFI 4eb1c .cfa: sp 32 +
STACK CFI 4eb20 .ra: .cfa -4 + ^ r10: .cfa -8 + ^ r4: .cfa -32 + ^ r5: .cfa -28 + ^ r6: .cfa -24 + ^ r7: .cfa -20 + ^ r8: .cfa -16 + ^ r9: .cfa -12 + ^
STACK CFI 4eb40 .cfa: sp 56 +
STACK CFI INIT 4ebfc e4 .cfa: sp 0 + .ra: lr
STACK CFI 4ec00 .cfa: sp 32 +
STACK CFI 4ec04 .ra: .cfa -4 + ^ r10: .cfa -8 + ^ r4: .cfa -32 + ^ r5: .cfa -28 + ^ r6: .cfa -24 + ^ r7: .cfa -20 + ^ r8: .cfa -16 + ^ r9: .cfa -12 + ^
STACK CFI 4ec24 .cfa: sp 56 +
STACK CFI INIT 4ece0 e4 .cfa: sp 0 + .ra: lr
STACK CFI 4ece4 .cfa: sp 32 +
STACK CFI 4ece8 .ra: .cfa -4 + ^ r10: .cfa -8 + ^ r4: .cfa -32 + ^ r5: .cfa -28 + ^ r6: .cfa -24 + ^ r7: .cfa -20 + ^ r8: .cfa -16 + ^ r9: .cfa -12 + ^
STACK CFI 4ed08 .cfa: sp 56 +
STACK CFI INIT 4edc4 e4 .cfa: sp 0 + .ra: lr
STACK CFI 4edc8 .cfa: sp 32 +
STACK CFI 4edcc .ra: .cfa -4 + ^ r10: .cfa -8 + ^ r4: .cfa -32 + ^ r5: .cfa -28 + ^ r6: .cfa -24 + ^ r7: .cfa -20 + ^ r8: .cfa -16 + ^ r9: .cfa -12 + ^
STACK CFI 4edec .cfa: sp 56 +
STACK CFI INIT 4eea8 cc .cfa: sp 0 + .ra: lr
STACK CFI 4eeac .cfa: sp 24 +
STACK CFI 4eeb0 .ra: .cfa -4 + ^ r4: .cfa -24 + ^ r5: .cfa -20 + ^ r6: .cfa -16 + ^ r7: .cfa -12 + ^ r8: .cfa -8 + ^
STACK CFI 4eed0 .cfa: sp 48 +
STACK CFI INIT 4ef74 e4 .cfa: sp 0 + .ra: lr
STACK CFI 4ef78 .cfa: sp 32 +
STACK CFI 4ef7c .ra: .cfa -4 + ^ r10: .cfa -8 + ^ r4: .cfa -32 + ^ r5: .cfa -28 + ^ r6: .cfa -24 + ^ r7: .cfa -20 + ^ r8: .cfa -16 + ^ r9: .cfa -12 + ^
STACK CFI 4ef9c .cfa: sp 56 +
STACK CFI INIT 4f058 e4 .cfa: sp 0 + .ra: lr
STACK CFI 4f05c .cfa: sp 32 +
STACK CFI 4f060 .ra: .cfa -4 + ^ r10: .cfa -8 + ^ r4: .cfa -32 + ^ r5: .cfa -28 + ^ r6: .cfa -24 + ^ r7: .cfa -20 + ^ r8: .cfa -16 + ^ r9: .cfa -12 + ^
STACK CFI 4f080 .cfa: sp 56 +
STACK CFI INIT 4f13c e4 .cfa: sp 0 + .ra: lr
STACK CFI 4f140 .cfa: sp 32 +
STACK CFI 4f144 .ra: .cfa -4 + ^ r10: .cfa -8 + ^ r4: .cfa -32 + ^ r5: .cfa -28 + ^ r6: .cfa -24 + ^ r7: .cfa -20 + ^ r8: .cfa -16 + ^ r9: .cfa -12 + ^
STACK CFI 4f164 .cfa: sp 56 +
STACK CFI INIT 4f220 d8 .cfa: sp 0 + .ra: lr
STACK CFI 4f224 .cfa: sp 28 +
STACK CFI 4f228 .ra: .cfa -4 + ^ r10: .cfa -8 + ^ r4: .cfa -28 + ^ r5: .cfa -24 + ^ r6: .cfa -20 + ^ r7: .cfa -16 + ^ r8: .cfa -12 + ^
STACK CFI 4f248 .cfa: sp 56 +
STACK CFI INIT 4f2f8 d8 .cfa: sp 0 + .ra: lr
STACK CFI 4f2fc .cfa: sp 28 +
STACK CFI 4f300 .ra: .cfa -4 + ^ r10: .cfa -8 + ^ r4: .cfa -28 + ^ r5: .cfa -24 + ^ r6: .cfa -20 + ^ r7: .cfa -16 + ^ r8: .cfa -12 + ^
STACK CFI 4f320 .cfa: sp 56 +
STACK CFI INIT 4f3d0 d8 .cfa: sp 0 + .ra: lr
STACK CFI 4f3d4 .cfa: sp 28 +
STACK CFI 4f3d8 .ra: .cfa -4 + ^ r10: .cfa -8 + ^ r4: .cfa -28 + ^ r5: .cfa -24 + ^ r6: .cfa -20 + ^ r7: .cfa -16 + ^ r8: .cfa -12 + ^
STACK CFI 4f3f8 .cfa: sp 56 +
STACK CFI INIT 4f4a8 d8 .cfa: sp 0 + .ra: lr
STACK CFI 4f4ac .cfa: sp 28 +
STACK CFI 4f4b0 .ra: .cfa -4 + ^ r10: .cfa -8 + ^ r4: .cfa -28 + ^ r5: .cfa -24 + ^ r6: .cfa -20 + ^ r7: .cfa -16 + ^ r8: .cfa -12 + ^
STACK CFI 4f4d0 .cfa: sp 56 +
STACK CFI INIT 4f580 d8 .cfa: sp 0 + .ra: lr
STACK CFI 4f584 .cfa: sp 28 +
STACK CFI 4f588 .ra: .cfa -4 + ^ r10: .cfa -8 + ^ r4: .cfa -28 + ^ r5: .cfa -24 + ^ r6: .cfa -20 + ^ r7: .cfa -16 + ^ r8: .cfa -12 + ^
STACK CFI 4f5a8 .cfa: sp 56 +
STACK CFI INIT 4f658 d8 .cfa: sp 0 + .ra: lr
STACK CFI 4f65c .cfa: sp 28 +
STACK CFI 4f660 .ra: .cfa -4 + ^ r10: .cfa -8 + ^ r4: .cfa -28 + ^ r5: .cfa -24 + ^ r6: .cfa -20 + ^ r7: .cfa -16 + ^ r8: .cfa -12 + ^
STACK CFI 4f680 .cfa: sp 56 +
STACK CFI INIT 4f730 f0 .cfa: sp 0 + .ra: lr
STACK CFI 4f734 .cfa: sp 36 +
STACK CFI 4f738 .ra: .cfa -4 + ^ r10: .cfa -12 + ^ r11: .cfa -8 + ^ r4: .cfa -36 + ^ r5: .cfa -32 + ^ r6: .cfa -28 + ^ r7: .cfa -24 + ^ r8: .cfa -20 + ^ r9: .cfa -16 + ^
STACK CFI 4f758 .cfa: sp 64 +
STACK CFI INIT 4f820 d8 .cfa: sp 0 + .ra: lr
STACK CFI 4f824 .cfa: sp 28 +
STACK CFI 4f828 .ra: .cfa -4 + ^ r10: .cfa -8 + ^ r4: .cfa -28 + ^ r5: .cfa -24 + ^ r6: .cfa -20 + ^ r7: .cfa -16 + ^ r8: .cfa -12 + ^
STACK CFI 4f848 .cfa: sp 56 +
STACK CFI INIT 4f8f8 d8 .cfa: sp 0 + .ra: lr
STACK CFI 4f8fc .cfa: sp 28 +
STACK CFI 4f900 .ra: .cfa -4 + ^ r10: .cfa -8 + ^ r4: .cfa -28 + ^ r5: .cfa -24 + ^ r6: .cfa -20 + ^ r7: .cfa -16 + ^ r8: .cfa -12 + ^
STACK CFI 4f920 .cfa: sp 56 +
STACK CFI INIT 4f9d0 e4 .cfa: sp 0 + .ra: lr
STACK CFI 4f9d4 .cfa: sp 32 +
STACK CFI 4f9d8 .ra: .cfa -4 + ^ r10: .cfa -8 + ^ r4: .cfa -32 + ^ r5: .cfa -28 + ^ r6: .cfa -24 + ^ r7: .cfa -20 + ^ r8: .cfa -16 + ^ r9: .cfa -12 + ^
STACK CFI 4f9f8 .cfa: sp 56 +
STACK CFI INIT 4fab4 cc .cfa: sp 0 + .ra: lr
STACK CFI 4fab8 .cfa: sp 24 +
STACK CFI 4fabc .ra: .cfa -4 + ^ r4: .cfa -24 + ^ r5: .cfa -20 + ^ r6: .cfa -16 + ^ r7: .cfa -12 + ^ r8: .cfa -8 + ^
STACK CFI 4fadc .cfa: sp 48 +
STACK CFI INIT 4fb80 d8 .cfa: sp 0 + .ra: lr
STACK CFI 4fb84 .cfa: sp 28 +
STACK CFI 4fb88 .ra: .cfa -4 + ^ r10: .cfa -8 + ^ r4: .cfa -28 + ^ r5: .cfa -24 + ^ r6: .cfa -20 + ^ r7: .cfa -16 + ^ r8: .cfa -12 + ^
STACK CFI 4fba8 .cfa: sp 56 +
STACK CFI INIT 4fc58 d8 .cfa: sp 0 + .ra: lr
STACK CFI 4fc5c .cfa: sp 28 +
STACK CFI 4fc60 .ra: .cfa -4 + ^ r10: .cfa -8 + ^ r4: .cfa -28 + ^ r5: .cfa -24 + ^ r6: .cfa -20 + ^ r7: .cfa -16 + ^ r8: .cfa -12 + ^
STACK CFI 4fc80 .cfa: sp 56 +
STACK CFI INIT 4fd30 20 .cfa: sp 0 + .ra: lr
STACK CFI INIT 4fd50 4 .cfa: sp 0 + .ra: lr
STACK CFI INIT 4fd54 85c .cfa: sp 0 + .ra: lr
STACK CFI 4fd58 .cfa: sp 32 +
STACK CFI 4fd5c .ra: .cfa -4 + ^ r10: .cfa -8 + ^ r4: .cfa -32 + ^ r5: .cfa -28 + ^ r6: .cfa -24 + ^ r7: .cfa -20 + ^ r8: .cfa -16 + ^ r9: .cfa -12 + ^
STACK CFI 4fd60 .cfa: sp 64 +
STACK CFI INIT 505b0 50 .cfa: sp 0 + .ra: lr
STACK CFI 505b4 .cfa: sp 8 +
STACK CFI 505bc .cfa: sp 24 +
STACK CFI 505c0 .ra: .cfa -4 + ^ r4: .cfa -8 + ^
STACK CFI INIT 50600 24 .cfa: sp 0 + .ra: lr
STACK CFI INIT 50624 30 .cfa: sp 0 + .ra: lr
STACK CFI 50628 .cfa: sp 8 +
STACK CFI 5062c .cfa: sp 96 +
STACK CFI 50630 .ra: .cfa -4 + ^ r4: .cfa -8 + ^
STACK CFI INIT 50654 50 .cfa: sp 0 + .ra: lr
STACK CFI 50658 .cfa: sp 16 +
STACK CFI 5065c .ra: .cfa -4 + ^ r4: .cfa -16 + ^ r5: .cfa -12 + ^ r6: .cfa -8 + ^
STACK CFI INIT 506a4 14 .cfa: sp 0 + .ra: lr
STACK CFI INIT 506b8 48 .cfa: sp 0 + .ra: lr
STACK CFI 506bc .cfa: sp 16 +
STACK CFI 506c0 .ra: .cfa -4 + ^ r3: .cfa -16 + ^ r4: .cfa -12 + ^ r5: .cfa -8 + ^
STACK CFI INIT 50700 8 .cfa: sp 0 + .ra: lr
STACK CFI INIT 50708 8 .cfa: sp 0 + .ra: lr
STACK CFI INIT 50710 28 .cfa: sp 0 + .ra: lr
STACK CFI 50714 .cfa: sp 4 +
STACK CFI 50718 .ra: .cfa -4 + ^
STACK CFI 50720 .cfa: sp 16 +
STACK CFI INIT 50738 8 .cfa: sp 0 + .ra: lr
STACK CFI INIT 50740 8 .cfa: sp 0 + .ra: lr
STACK CFI INIT 50748 8 .cfa: sp 0 + .ra: lr
STACK CFI INIT 50750 8 .cfa: sp 0 + .ra: lr
STACK CFI INIT 50758 24 .cfa: sp 0 + .ra: lr
STACK CFI INIT 5077c 8 .cfa: sp 0 + .ra: lr
STACK CFI INIT 50784 8 .cfa: sp 0 + .ra: lr
STACK CFI INIT 5078c 44 .cfa: sp 0 + .ra: lr
STACK CFI 50790 .cfa: sp 16 +
STACK CFI 50794 .ra: .cfa -4 + ^ r4: .cfa -16 + ^ r5: .cfa -12 + ^ r6: .cfa -8 + ^
STACK CFI INIT 507d0 3c .cfa: sp 0 + .ra: lr
STACK CFI 507d4 .cfa: sp 16 +
STACK CFI 507d8 .ra: .cfa -4 + ^ r3: .cfa -16 + ^ r4: .cfa -12 + ^ r5: .cfa -8 + ^
STACK CFI INIT 5080c 14 .cfa: sp 0 + .ra: lr
STACK CFI 50810 .cfa: sp 8 +
STACK CFI 50814 .ra: .cfa -4 + ^ r3: .cfa -8 + ^
STACK CFI INIT 50820 78 .cfa: sp 0 + .ra: lr
STACK CFI 50824 .cfa: sp 16 +
STACK CFI 50828 .ra: .cfa -4 + ^ r4: .cfa -16 + ^ r5: .cfa -12 + ^ r6: .cfa -8 + ^
STACK CFI 5082c .cfa: sp 32 +
STACK CFI INIT 50898 68 .cfa: sp 0 + .ra: lr
STACK CFI 508a0 .cfa: sp 16 +
STACK CFI 508a4 .ra: .cfa -4 + ^ r4: .cfa -16 + ^ r5: .cfa -12 + ^ r6: .cfa -8 + ^
STACK CFI 508a8 .cfa: sp 32 +
STACK CFI INIT 50900 c .cfa: sp 0 + .ra: lr
STACK CFI INIT 5090c 8 .cfa: sp 0 + .ra: lr
STACK CFI INIT 50914 8 .cfa: sp 0 + .ra: lr
STACK CFI INIT 5091c 10 .cfa: sp 0 + .ra: lr
STACK CFI INIT 5092c 8 .cfa: sp 0 + .ra: lr
STACK CFI INIT 50934 8 .cfa: sp 0 + .ra: lr
STACK CFI INIT 5093c 8 .cfa: sp 0 + .ra: lr
STACK CFI INIT 50944 c8 .cfa: sp 0 + .ra: lr
STACK CFI 50948 .cfa: sp 32 +
STACK CFI 5094c .cfa: sp 208 +
STACK CFI 50950 .ra: .cfa -4 + ^ r10: .cfa -8 + ^ r4: .cfa -32 + ^ r5: .cfa -28 + ^ r6: .cfa -24 + ^ r7: .cfa -20 + ^ r8: .cfa -16 + ^ r9: .cfa -12 + ^
STACK CFI INIT 50a0c 80 .cfa: sp 0 + .ra: lr
STACK CFI 50a10 .cfa: sp 24 +
STACK CFI 50a14 .ra: .cfa -4 + ^ r3: .cfa -24 + ^ r4: .cfa -20 + ^ r5: .cfa -16 + ^ r6: .cfa -12 + ^ r7: .cfa -8 + ^
STACK CFI INIT 50a8c 8 .cfa: sp 0 + .ra: lr
STACK CFI INIT 50a94 b8 .cfa: sp 0 + .ra: lr
STACK CFI 50a98 .cfa: sp 12 +
STACK CFI 50a9c .ra: .cfa -4 + ^ r4: .cfa -12 + ^ r5: .cfa -8 + ^
STACK CFI 50ab4 .cfa: sp 2076 +
STACK CFI 50ab8 .cfa: sp 2080 +
STACK CFI INIT 50b4c bc .cfa: sp 0 + .ra: lr
STACK CFI 50b50 .cfa: sp 12 +
STACK CFI 50b54 .ra: .cfa -4 + ^ r4: .cfa -12 + ^ r5: .cfa -8 + ^
STACK CFI 50b5c .cfa: sp 2076 +
STACK CFI 50b60 .cfa: sp 2080 +
STACK CFI INIT 50c08 c0 .cfa: sp 0 + .ra: lr
STACK CFI 50c0c .cfa: sp 16 +
STACK CFI 50c10 .ra: .cfa -4 + ^ r4: .cfa -16 + ^ r5: .cfa -12 + ^ r6: .cfa -8 + ^
STACK CFI 50c14 .cfa: sp 2080 +
STACK CFI INIT 50cc8 c0 .cfa: sp 0 + .ra: lr
STACK CFI 50ccc .cfa: sp 12 +
STACK CFI 50cd0 .ra: .cfa -4 + ^ r4: .cfa -12 + ^ r5: .cfa -8 + ^
STACK CFI 50cd8 .cfa: sp 2076 +
STACK CFI 50cdc .cfa: sp 2080 +
STACK CFI INIT 50d88 bc .cfa: sp 0 + .ra: lr
STACK CFI 50d8c .cfa: sp 12 +
STACK CFI 50d90 .ra: .cfa -4 + ^ r4: .cfa -12 + ^ r5: .cfa -8 + ^
STACK CFI 50d98 .cfa: sp 2076 +
STACK CFI 50d9c .cfa: sp 2080 +
STACK CFI INIT 50e44 d4 .cfa: sp 0 + .ra: lr
STACK CFI 50e48 .cfa: sp 20 +
STACK CFI 50e4c .ra: .cfa -4 + ^ r4: .cfa -20 + ^ r5: .cfa -16 + ^ r6: .cfa -12 + ^ r7: .cfa -8 + ^
STACK CFI 50e64 .cfa: sp 2084 +
STACK CFI 50e68 .cfa: sp 2088 +
STACK CFI INIT 50f18 c8 .cfa: sp 0 + .ra: lr
STACK CFI 50f1c .cfa: sp 12 +
STACK CFI 50f20 .ra: .cfa -4 + ^ r4: .cfa -12 + ^ r5: .cfa -8 + ^
STACK CFI 50f24 .cfa: sp 2076 +
STACK CFI 50f28 .cfa: sp 2080 +
STACK CFI INIT 50fe0 c8 .cfa: sp 0 + .ra: lr
STACK CFI 50fe4 .cfa: sp 12 +
STACK CFI 50fe8 .cfa: sp 2076 +
STACK CFI 50fec .cfa: sp 2080 +
STACK CFI 50ff0 .ra: .cfa -4 + ^ r4: .cfa -12 + ^ r5: .cfa -8 + ^
STACK CFI INIT 510a8 c0 .cfa: sp 0 + .ra: lr
STACK CFI 510ac .cfa: sp 12 +
STACK CFI 510b0 .ra: .cfa -4 + ^ r4: .cfa -12 + ^ r5: .cfa -8 + ^
STACK CFI 510b8 .cfa: sp 2076 +
STACK CFI 510bc .cfa: sp 2080 +
STACK CFI INIT 51168 d8 .cfa: sp 0 + .ra: lr
STACK CFI 5116c .cfa: sp 12 +
STACK CFI 51170 .cfa: sp 2076 +
STACK CFI 51174 .cfa: sp 2080 +
STACK CFI 51178 .ra: .cfa -4 + ^ r4: .cfa -12 + ^ r5: .cfa -8 + ^
STACK CFI INIT 51240 c0 .cfa: sp 0 + .ra: lr
STACK CFI 51244 .cfa: sp 12 +
STACK CFI 51248 .ra: .cfa -4 + ^ r4: .cfa -12 + ^ r5: .cfa -8 + ^
STACK CFI 51250 .cfa: sp 2076 +
STACK CFI 51254 .cfa: sp 2080 +
STACK CFI INIT 51300 cc .cfa: sp 0 + .ra: lr
STACK CFI 51304 .cfa: sp 24 +
STACK CFI 51308 .ra: .cfa -4 + ^ r4: .cfa -24 + ^ r5: .cfa -20 + ^ r6: .cfa -16 + ^ r7: .cfa -12 + ^ r8: .cfa -8 + ^
STACK CFI 51328 .cfa: sp 48 +
STACK CFI INIT 513cc d8 .cfa: sp 0 + .ra: lr
STACK CFI 513d0 .cfa: sp 28 +
STACK CFI 513d4 .ra: .cfa -4 + ^ r10: .cfa -8 + ^ r4: .cfa -28 + ^ r5: .cfa -24 + ^ r6: .cfa -20 + ^ r7: .cfa -16 + ^ r8: .cfa -12 + ^
STACK CFI 513f4 .cfa: sp 56 +
STACK CFI INIT 514a4 e4 .cfa: sp 0 + .ra: lr
STACK CFI 514a8 .cfa: sp 32 +
STACK CFI 514ac .ra: .cfa -4 + ^ r10: .cfa -8 + ^ r4: .cfa -32 + ^ r5: .cfa -28 + ^ r6: .cfa -24 + ^ r7: .cfa -20 + ^ r8: .cfa -16 + ^ r9: .cfa -12 + ^
STACK CFI 514cc .cfa: sp 56 +
STACK CFI INIT 51588 d8 .cfa: sp 0 + .ra: lr
STACK CFI 5158c .cfa: sp 28 +
STACK CFI 51590 .ra: .cfa -4 + ^ r10: .cfa -8 + ^ r4: .cfa -28 + ^ r5: .cfa -24 + ^ r6: .cfa -20 + ^ r7: .cfa -16 + ^ r8: .cfa -12 + ^
STACK CFI 515b0 .cfa: sp 56 +
STACK CFI INIT 51660 f0 .cfa: sp 0 + .ra: lr
STACK CFI 51664 .cfa: sp 36 +
STACK CFI 51668 .ra: .cfa -4 + ^ r10: .cfa -12 + ^ r11: .cfa -8 + ^ r4: .cfa -36 + ^ r5: .cfa -32 + ^ r6: .cfa -28 + ^ r7: .cfa -24 + ^ r8: .cfa -20 + ^ r9: .cfa -16 + ^
STACK CFI 51688 .cfa: sp 64 +
STACK CFI INIT 51750 d8 .cfa: sp 0 + .ra: lr
STACK CFI 51754 .cfa: sp 28 +
STACK CFI 51758 .ra: .cfa -4 + ^ r10: .cfa -8 + ^ r4: .cfa -28 + ^ r5: .cfa -24 + ^ r6: .cfa -20 + ^ r7: .cfa -16 + ^ r8: .cfa -12 + ^
STACK CFI 51778 .cfa: sp 56 +
STACK CFI INIT 51828 d8 .cfa: sp 0 + .ra: lr
STACK CFI 5182c .cfa: sp 28 +
STACK CFI 51830 .ra: .cfa -4 + ^ r10: .cfa -8 + ^ r4: .cfa -28 + ^ r5: .cfa -24 + ^ r6: .cfa -20 + ^ r7: .cfa -16 + ^ r8: .cfa -12 + ^
STACK CFI 51850 .cfa: sp 56 +
STACK CFI INIT 51900 d8 .cfa: sp 0 + .ra: lr
STACK CFI 51904 .cfa: sp 28 +
STACK CFI 51908 .ra: .cfa -4 + ^ r10: .cfa -8 + ^ r4: .cfa -28 + ^ r5: .cfa -24 + ^ r6: .cfa -20 + ^ r7: .cfa -16 + ^ r8: .cfa -12 + ^
STACK CFI 51928 .cfa: sp 56 +
STACK CFI INIT 519d8 d8 .cfa: sp 0 + .ra: lr
STACK CFI 519dc .cfa: sp 28 +
STACK CFI 519e0 .ra: .cfa -4 + ^ r10: .cfa -8 + ^ r4: .cfa -28 + ^ r5: .cfa -24 + ^ r6: .cfa -20 + ^ r7: .cfa -16 + ^ r8: .cfa -12 + ^
STACK CFI 51a00 .cfa: sp 56 +
STACK CFI INIT 51ab0 d8 .cfa: sp 0 + .ra: lr
STACK CFI 51ab4 .cfa: sp 28 +
STACK CFI 51ab8 .ra: .cfa -4 + ^ r10: .cfa -8 + ^ r4: .cfa -28 + ^ r5: .cfa -24 + ^ r6: .cfa -20 + ^ r7: .cfa -16 + ^ r8: .cfa -12 + ^
STACK CFI 51ad8 .cfa: sp 56 +
STACK CFI INIT 51b88 d8 .cfa: sp 0 + .ra: lr
STACK CFI 51b8c .cfa: sp 28 +
STACK CFI 51b90 .ra: .cfa -4 + ^ r10: .cfa -8 + ^ r4: .cfa -28 + ^ r5: .cfa -24 + ^ r6: .cfa -20 + ^ r7: .cfa -16 + ^ r8: .cfa -12 + ^
STACK CFI 51bb0 .cfa: sp 56 +
STACK CFI INIT 51c60 20 .cfa: sp 0 + .ra: lr
STACK CFI INIT 51c80 4 .cfa: sp 0 + .ra: lr
STACK CFI INIT 51c84 354 .cfa: sp 0 + .ra: lr
STACK CFI 51c88 .cfa: sp 32 +
STACK CFI 51c8c .ra: .cfa -4 + ^ r10: .cfa -8 + ^ r4: .cfa -32 + ^ r5: .cfa -28 + ^ r6: .cfa -24 + ^ r7: .cfa -20 + ^ r8: .cfa -16 + ^ r9: .cfa -12 + ^
STACK CFI 51c90 .cfa: sp 48 +
STACK CFI INIT 51fd8 50 .cfa: sp 0 + .ra: lr
STACK CFI 51fdc .cfa: sp 8 +
STACK CFI 51fe4 .cfa: sp 24 +
STACK CFI 51fe8 .ra: .cfa -4 + ^ r4: .cfa -8 + ^
STACK CFI INIT 52028 8 .cfa: sp 0 + .ra: lr
STACK CFI INIT 52030 8 .cfa: sp 0 + .ra: lr
STACK CFI INIT 52038 8 .cfa: sp 0 + .ra: lr
STACK CFI INIT 52040 8 .cfa: sp 0 + .ra: lr
STACK CFI INIT 52048 c .cfa: sp 0 + .ra: lr
STACK CFI INIT 52054 14 .cfa: sp 0 + .ra: lr
STACK CFI INIT 52068 8 .cfa: sp 0 + .ra: lr
STACK CFI INIT 52070 8 .cfa: sp 0 + .ra: lr
STACK CFI INIT 52078 14 .cfa: sp 0 + .ra: lr
STACK CFI INIT 5208c 14 .cfa: sp 0 + .ra: lr
STACK CFI INIT 520a0 8 .cfa: sp 0 + .ra: lr
STACK CFI INIT 520a8 60 .cfa: sp 0 + .ra: lr
STACK CFI 520b0 .cfa: sp 8 +
STACK CFI 520b4 .ra: .cfa -4 + ^ r4: .cfa -8 + ^
STACK CFI INIT 52108 b4 .cfa: sp 0 + .ra: lr
STACK CFI 52110 .cfa: sp 32 +
STACK CFI 52114 .ra: .cfa -4 + ^ r10: .cfa -8 + ^ r4: .cfa -32 + ^ r5: .cfa -28 + ^ r6: .cfa -24 + ^ r7: .cfa -20 + ^ r8: .cfa -16 + ^ r9: .cfa -12 + ^
STACK CFI INIT 521bc b4 .cfa: sp 0 + .ra: lr
STACK CFI 521c4 .cfa: sp 32 +
STACK CFI 521c8 .ra: .cfa -4 + ^ r10: .cfa -8 + ^ r4: .cfa -32 + ^ r5: .cfa -28 + ^ r6: .cfa -24 + ^ r7: .cfa -20 + ^ r8: .cfa -16 + ^ r9: .cfa -12 + ^
STACK CFI INIT 52270 b4 .cfa: sp 0 + .ra: lr
STACK CFI 52278 .cfa: sp 32 +
STACK CFI 5227c .ra: .cfa -4 + ^ r10: .cfa -8 + ^ r4: .cfa -32 + ^ r5: .cfa -28 + ^ r6: .cfa -24 + ^ r7: .cfa -20 + ^ r8: .cfa -16 + ^ r9: .cfa -12 + ^
STACK CFI INIT 52324 b4 .cfa: sp 0 + .ra: lr
STACK CFI 5232c .cfa: sp 32 +
STACK CFI 52330 .ra: .cfa -4 + ^ r10: .cfa -8 + ^ r4: .cfa -32 + ^ r5: .cfa -28 + ^ r6: .cfa -24 + ^ r7: .cfa -20 + ^ r8: .cfa -16 + ^ r9: .cfa -12 + ^
STACK CFI INIT 523d8 b4 .cfa: sp 0 + .ra: lr
STACK CFI 523e0 .cfa: sp 32 +
STACK CFI 523e4 .ra: .cfa -4 + ^ r10: .cfa -8 + ^ r4: .cfa -32 + ^ r5: .cfa -28 + ^ r6: .cfa -24 + ^ r7: .cfa -20 + ^ r8: .cfa -16 + ^ r9: .cfa -12 + ^
STACK CFI INIT 5248c cc .cfa: sp 0 + .ra: lr
STACK CFI 52494 .cfa: sp 8 +
STACK CFI 52498 .ra: .cfa -4 + ^ r4: .cfa -8 + ^
STACK CFI INIT 52558 b4 .cfa: sp 0 + .ra: lr
STACK CFI 52560 .cfa: sp 32 +
STACK CFI 52564 .ra: .cfa -4 + ^ r10: .cfa -8 + ^ r4: .cfa -32 + ^ r5: .cfa -28 + ^ r6: .cfa -24 + ^ r7: .cfa -20 + ^ r8: .cfa -16 + ^ r9: .cfa -12 + ^
STACK CFI INIT 5260c ec .cfa: sp 0 + .ra: lr
STACK CFI 5261c .cfa: sp 8 +
STACK CFI 52620 .ra: .cfa -4 + ^ r4: .cfa -8 + ^
STACK CFI INIT 526f8 5c .cfa: sp 0 + .ra: lr
STACK CFI 52700 .cfa: sp 8 +
STACK CFI 52704 .ra: .cfa -4 + ^ r4: .cfa -8 + ^
STACK CFI INIT 52754 e4 .cfa: sp 0 + .ra: lr
STACK CFI 52764 .cfa: sp 8 +
STACK CFI 52768 .ra: .cfa -4 + ^ r4: .cfa -8 + ^
STACK CFI INIT 54714 88 .cfa: sp 0 + .ra: lr
STACK CFI 5471c .cfa: sp 12 +
STACK CFI 54724 .ra: .cfa -4 + ^ r4: .cfa -12 + ^ r5: .cfa -8 + ^
STACK CFI 5473c .cfa: sp 24 +
STACK CFI INIT 5479c 88 .cfa: sp 0 + .ra: lr
STACK CFI 547a4 .cfa: sp 12 +
STACK CFI 547ac .ra: .cfa -4 + ^ r4: .cfa -12 + ^ r5: .cfa -8 + ^
STACK CFI 547c4 .cfa: sp 24 +
STACK CFI INIT 52838 180 .cfa: sp 0 + .ra: lr
STACK CFI 5283c .cfa: sp 32 +
STACK CFI 52840 .ra: .cfa -4 + ^ r10: .cfa -8 + ^ r4: .cfa -32 + ^ r5: .cfa -28 + ^ r6: .cfa -24 + ^ r7: .cfa -20 + ^ r8: .cfa -16 + ^ r9: .cfa -12 + ^
STACK CFI 52860 .cfa: sp 72 +
STACK CFI INIT 529b8 1b4 .cfa: sp 0 + .ra: lr
STACK CFI 529c8 .cfa: sp 16 +
STACK CFI 529d4 .ra: .cfa -4 + ^ r4: .cfa -16 + ^ r5: .cfa -12 + ^ r6: .cfa -8 + ^
STACK CFI INIT 54824 88 .cfa: sp 0 + .ra: lr
STACK CFI 5482c .cfa: sp 12 +
STACK CFI 54834 .ra: .cfa -4 + ^ r4: .cfa -12 + ^ r5: .cfa -8 + ^
STACK CFI 5484c .cfa: sp 24 +
STACK CFI INIT 52b6c 1dc .cfa: sp 0 + .ra: lr
STACK CFI 52b70 .cfa: sp 32 +
STACK CFI 52b74 .ra: .cfa -4 + ^ r10: .cfa -8 + ^ r4: .cfa -32 + ^ r5: .cfa -28 + ^ r6: .cfa -24 + ^ r7: .cfa -20 + ^ r8: .cfa -16 + ^ r9: .cfa -12 + ^
STACK CFI 52b88 .cfa: sp 88 +
STACK CFI INIT 52d48 1b4 .cfa: sp 0 + .ra: lr
STACK CFI 52d58 .cfa: sp 16 +
STACK CFI 52d64 .ra: .cfa -4 + ^ r4: .cfa -16 + ^ r5: .cfa -12 + ^ r6: .cfa -8 + ^
STACK CFI INIT 548ac 88 .cfa: sp 0 + .ra: lr
STACK CFI 548b4 .cfa: sp 12 +
STACK CFI 548bc .ra: .cfa -4 + ^ r4: .cfa -12 + ^ r5: .cfa -8 + ^
STACK CFI 548d4 .cfa: sp 24 +
STACK CFI INIT 54934 88 .cfa: sp 0 + .ra: lr
STACK CFI 5493c .cfa: sp 12 +
STACK CFI 54944 .ra: .cfa -4 + ^ r4: .cfa -12 + ^ r5: .cfa -8 + ^
STACK CFI 5495c .cfa: sp 24 +
STACK CFI INIT 549bc 88 .cfa: sp 0 + .ra: lr
STACK CFI 549c4 .cfa: sp 12 +
STACK CFI 549cc .ra: .cfa -4 + ^ r4: .cfa -12 + ^ r5: .cfa -8 + ^
STACK CFI 549e4 .cfa: sp 24 +
STACK CFI INIT 52efc 1d0 .cfa: sp 0 + .ra: lr
STACK CFI 52f00 .cfa: sp 28 +
STACK CFI 52f04 .ra: .cfa -4 + ^ r10: .cfa -8 + ^ r4: .cfa -28 + ^ r5: .cfa -24 + ^ r6: .cfa -20 + ^ r7: .cfa -16 + ^ r8: .cfa -12 + ^
STACK CFI 52f18 .cfa: sp 80 +
STACK CFI INIT 54a44 88 .cfa: sp 0 + .ra: lr
STACK CFI 54a4c .cfa: sp 12 +
STACK CFI 54a54 .ra: .cfa -4 + ^ r4: .cfa -12 + ^ r5: .cfa -8 + ^
STACK CFI 54a6c .cfa: sp 24 +
STACK CFI INIT 54acc 88 .cfa: sp 0 + .ra: lr
STACK CFI 54ad4 .cfa: sp 12 +
STACK CFI 54adc .ra: .cfa -4 + ^ r4: .cfa -12 + ^ r5: .cfa -8 + ^
STACK CFI 54af4 .cfa: sp 24 +
STACK CFI INIT 530cc 1f8 .cfa: sp 0 + .ra: lr
STACK CFI 530d0 .cfa: sp 36 +
STACK CFI 530d4 .ra: .cfa -4 + ^ r10: .cfa -12 + ^ r11: .cfa -8 + ^ r4: .cfa -36 + ^ r5: .cfa -32 + ^ r6: .cfa -28 + ^ r7: .cfa -24 + ^ r8: .cfa -20 + ^ r9: .cfa -16 + ^
STACK CFI 530e8 .cfa: sp 112 +
STACK CFI INIT 532c4 1dc .cfa: sp 0 + .ra: lr
STACK CFI 532c8 .cfa: sp 36 +
STACK CFI 532cc .ra: .cfa -4 + ^ r10: .cfa -12 + ^ r11: .cfa -8 + ^ r4: .cfa -36 + ^ r5: .cfa -32 + ^ r6: .cfa -28 + ^ r7: .cfa -24 + ^ r8: .cfa -20 + ^ r9: .cfa -16 + ^
STACK CFI 532e0 .cfa: sp 96 +
STACK CFI INIT 534a0 1dc .cfa: sp 0 + .ra: lr
STACK CFI 534a4 .cfa: sp 36 +
STACK CFI 534a8 .ra: .cfa -4 + ^ r10: .cfa -12 + ^ r11: .cfa -8 + ^ r4: .cfa -36 + ^ r5: .cfa -32 + ^ r6: .cfa -28 + ^ r7: .cfa -24 + ^ r8: .cfa -20 + ^ r9: .cfa -16 + ^
STACK CFI 534bc .cfa: sp 96 +
STACK CFI INIT 54b54 88 .cfa: sp 0 + .ra: lr
STACK CFI 54b5c .cfa: sp 12 +
STACK CFI 54b64 .ra: .cfa -4 + ^ r4: .cfa -12 + ^ r5: .cfa -8 + ^
STACK CFI 54b7c .cfa: sp 24 +
STACK CFI INIT 5367c 118 .cfa: sp 0 + .ra: lr
STACK CFI 53680 .cfa: sp 36 +
STACK CFI 53684 .ra: .cfa -4 + ^ r10: .cfa -12 + ^ r11: .cfa -8 + ^ r4: .cfa -36 + ^ r5: .cfa -32 + ^ r6: .cfa -28 + ^ r7: .cfa -24 + ^ r8: .cfa -20 + ^ r9: .cfa -16 + ^
STACK CFI 53698 .cfa: sp 96 +
STACK CFI INIT 53794 54 .cfa: sp 0 + .ra: lr
STACK CFI 5379c .cfa: sp 8 +
STACK CFI 537a0 .ra: .cfa -4 + ^ r4: .cfa -8 + ^
STACK CFI INIT 537e8 17c .cfa: sp 0 + .ra: lr
STACK CFI 537f8 .cfa: sp 8 +
STACK CFI 537fc .ra: .cfa -4 + ^ r4: .cfa -8 + ^
STACK CFI INIT 53964 2d4 .cfa: sp 0 + .ra: lr
STACK CFI 53974 .cfa: sp 16 +
STACK CFI 53980 .ra: .cfa -4 + ^ r4: .cfa -16 + ^ r5: .cfa -12 + ^ r6: .cfa -8 + ^
STACK CFI INIT 53c38 e8 .cfa: sp 0 + .ra: lr
STACK CFI 53c3c .cfa: sp 24 +
STACK CFI 53c40 .ra: .cfa -4 + ^ r4: .cfa -24 + ^ r5: .cfa -20 + ^ r6: .cfa -16 + ^ r7: .cfa -12 + ^ r8: .cfa -8 + ^
STACK CFI 53c58 .cfa: sp 48 +
STACK CFI INIT 53d20 ac .cfa: sp 0 + .ra: lr
STACK CFI 53d24 .cfa: sp 16 +
STACK CFI 53d28 .cfa: sp 40 +
STACK CFI 53d38 .ra: .cfa -4 + ^ r4: .cfa -16 + ^ r5: .cfa -12 + ^ r6: .cfa -8 + ^
STACK CFI INIT 54bdc 88 .cfa: sp 0 + .ra: lr
STACK CFI 54be4 .cfa: sp 12 +
STACK CFI 54bec .ra: .cfa -4 + ^ r4: .cfa -12 + ^ r5: .cfa -8 + ^
STACK CFI 54c04 .cfa: sp 24 +
STACK CFI INIT 53dcc ac .cfa: sp 0 + .ra: lr
STACK CFI 53dd0 .cfa: sp 16 +
STACK CFI 53dd4 .cfa: sp 40 +
STACK CFI 53de4 .ra: .cfa -4 + ^ r4: .cfa -16 + ^ r5: .cfa -12 + ^ r6: .cfa -8 + ^
STACK CFI INIT 54c64 88 .cfa: sp 0 + .ra: lr
STACK CFI 54c6c .cfa: sp 12 +
STACK CFI 54c74 .ra: .cfa -4 + ^ r4: .cfa -12 + ^ r5: .cfa -8 + ^
STACK CFI 54c8c .cfa: sp 24 +
STACK CFI INIT 53e78 ac .cfa: sp 0 + .ra: lr
STACK CFI 53e7c .cfa: sp 16 +
STACK CFI 53e80 .cfa: sp 40 +
STACK CFI 53e90 .ra: .cfa -4 + ^ r4: .cfa -16 + ^ r5: .cfa -12 + ^ r6: .cfa -8 + ^
STACK CFI INIT 53f24 ac .cfa: sp 0 + .ra: lr
STACK CFI 53f28 .cfa: sp 16 +
STACK CFI 53f2c .cfa: sp 40 +
STACK CFI 53f3c .ra: .cfa -4 + ^ r4: .cfa -16 + ^ r5: .cfa -12 + ^ r6: .cfa -8 + ^
STACK CFI INIT 54cec 88 .cfa: sp 0 + .ra: lr
STACK CFI 54cf4 .cfa: sp 12 +
STACK CFI 54cfc .ra: .cfa -4 + ^ r4: .cfa -12 + ^ r5: .cfa -8 + ^
STACK CFI 54d14 .cfa: sp 24 +
STACK CFI INIT 53fd0 ac .cfa: sp 0 + .ra: lr
STACK CFI 53fd4 .cfa: sp 16 +
STACK CFI 53fd8 .cfa: sp 40 +
STACK CFI 53fe8 .ra: .cfa -4 + ^ r4: .cfa -16 + ^ r5: .cfa -12 + ^ r6: .cfa -8 + ^
STACK CFI INIT 5407c ac .cfa: sp 0 + .ra: lr
STACK CFI 54080 .cfa: sp 16 +
STACK CFI 54084 .cfa: sp 40 +
STACK CFI 54094 .ra: .cfa -4 + ^ r4: .cfa -16 + ^ r5: .cfa -12 + ^ r6: .cfa -8 + ^
STACK CFI INIT 54d74 88 .cfa: sp 0 + .ra: lr
STACK CFI 54d7c .cfa: sp 12 +
STACK CFI 54d84 .ra: .cfa -4 + ^ r4: .cfa -12 + ^ r5: .cfa -8 + ^
STACK CFI 54d9c .cfa: sp 24 +
STACK CFI INIT 54128 ac .cfa: sp 0 + .ra: lr
STACK CFI 5412c .cfa: sp 16 +
STACK CFI 54130 .cfa: sp 40 +
STACK CFI 54140 .ra: .cfa -4 + ^ r4: .cfa -16 + ^ r5: .cfa -12 + ^ r6: .cfa -8 + ^
STACK CFI INIT 54dfc 88 .cfa: sp 0 + .ra: lr
STACK CFI 54e04 .cfa: sp 12 +
STACK CFI 54e0c .ra: .cfa -4 + ^ r4: .cfa -12 + ^ r5: .cfa -8 + ^
STACK CFI 54e24 .cfa: sp 24 +
STACK CFI INIT 541d4 a8 .cfa: sp 0 + .ra: lr
STACK CFI 541d8 .cfa: sp 16 +
STACK CFI 541dc .cfa: sp 32 +
STACK CFI 541e4 .ra: .cfa -4 + ^ r4: .cfa -16 + ^ r5: .cfa -12 + ^ r6: .cfa -8 + ^
STACK CFI INIT 5427c a8 .cfa: sp 0 + .ra: lr
STACK CFI 54280 .cfa: sp 16 +
STACK CFI 54284 .cfa: sp 32 +
STACK CFI 5428c .ra: .cfa -4 + ^ r4: .cfa -16 + ^ r5: .cfa -12 + ^ r6: .cfa -8 + ^
STACK CFI INIT 54324 a8 .cfa: sp 0 + .ra: lr
STACK CFI 54328 .cfa: sp 16 +
STACK CFI 5432c .cfa: sp 32 +
STACK CFI 54334 .ra: .cfa -4 + ^ r4: .cfa -16 + ^ r5: .cfa -12 + ^ r6: .cfa -8 + ^
STACK CFI INIT 54e84 88 .cfa: sp 0 + .ra: lr
STACK CFI 54e8c .cfa: sp 12 +
STACK CFI 54e94 .ra: .cfa -4 + ^ r4: .cfa -12 + ^ r5: .cfa -8 + ^
STACK CFI 54eac .cfa: sp 24 +
STACK CFI INIT 543cc a8 .cfa: sp 0 + .ra: lr
STACK CFI 543d0 .cfa: sp 16 +
STACK CFI 543d4 .cfa: sp 32 +
STACK CFI 543dc .ra: .cfa -4 + ^ r4: .cfa -16 + ^ r5: .cfa -12 + ^ r6: .cfa -8 + ^
STACK CFI INIT 54f0c 88 .cfa: sp 0 + .ra: lr
STACK CFI 54f14 .cfa: sp 12 +
STACK CFI 54f1c .ra: .cfa -4 + ^ r4: .cfa -12 + ^ r5: .cfa -8 + ^
STACK CFI 54f34 .cfa: sp 24 +
STACK CFI INIT 54474 a8 .cfa: sp 0 + .ra: lr
STACK CFI 54478 .cfa: sp 16 +
STACK CFI 5447c .cfa: sp 32 +
STACK CFI 54484 .ra: .cfa -4 + ^ r4: .cfa -16 + ^ r5: .cfa -12 + ^ r6: .cfa -8 + ^
STACK CFI INIT 54f94 88 .cfa: sp 0 + .ra: lr
STACK CFI 54f9c .cfa: sp 12 +
STACK CFI 54fa4 .ra: .cfa -4 + ^ r4: .cfa -12 + ^ r5: .cfa -8 + ^
STACK CFI 54fbc .cfa: sp 24 +
STACK CFI INIT 5451c a8 .cfa: sp 0 + .ra: lr
STACK CFI 54520 .cfa: sp 16 +
STACK CFI 54524 .cfa: sp 32 +
STACK CFI 5452c .ra: .cfa -4 + ^ r4: .cfa -16 + ^ r5: .cfa -12 + ^ r6: .cfa -8 + ^
STACK CFI INIT 5501c 88 .cfa: sp 0 + .ra: lr
STACK CFI 55024 .cfa: sp 12 +
STACK CFI 5502c .ra: .cfa -4 + ^ r4: .cfa -12 + ^ r5: .cfa -8 + ^
STACK CFI 55044 .cfa: sp 24 +
STACK CFI INIT 545c4 a8 .cfa: sp 0 + .ra: lr
STACK CFI 545c8 .cfa: sp 16 +
STACK CFI 545cc .cfa: sp 32 +
STACK CFI 545d4 .ra: .cfa -4 + ^ r4: .cfa -16 + ^ r5: .cfa -12 + ^ r6: .cfa -8 + ^
STACK CFI INIT 550a4 88 .cfa: sp 0 + .ra: lr
STACK CFI 550ac .cfa: sp 12 +
STACK CFI 550b4 .ra: .cfa -4 + ^ r4: .cfa -12 + ^ r5: .cfa -8 + ^
STACK CFI 550cc .cfa: sp 24 +
STACK CFI INIT 5466c a8 .cfa: sp 0 + .ra: lr
STACK CFI 54670 .cfa: sp 16 +
STACK CFI 54674 .cfa: sp 32 +
STACK CFI 5467c .ra: .cfa -4 + ^ r4: .cfa -16 + ^ r5: .cfa -12 + ^ r6: .cfa -8 + ^
STACK CFI INIT 5512c 1c .cfa: sp 0 + .ra: lr
STACK CFI INIT 55f9c 88 .cfa: sp 0 + .ra: lr
STACK CFI 55fa4 .cfa: sp 12 +
STACK CFI 55fac .ra: .cfa -4 + ^ r4: .cfa -12 + ^ r5: .cfa -8 + ^
STACK CFI 55fc4 .cfa: sp 24 +
STACK CFI INIT 55148 54 .cfa: sp 0 + .ra: lr
STACK CFI 5514c .cfa: sp 16 +
STACK CFI 55150 .ra: .cfa -4 + ^ r4: .cfa -16 + ^ r5: .cfa -12 + ^ r6: .cfa -8 + ^
STACK CFI INIT 5519c 8c4 .cfa: sp 0 + .ra: lr
STACK CFI 551a0 .cfa: sp 36 +
STACK CFI 551a4 .cfa: sp 240 +
STACK CFI 551a8 .ra: .cfa -4 + ^ r10: .cfa -12 + ^ r11: .cfa -8 + ^ r4: .cfa -36 + ^ r5: .cfa -32 + ^ r6: .cfa -28 + ^ r7: .cfa -24 + ^ r8: .cfa -20 + ^ r9: .cfa -16 + ^
STACK CFI INIT 55a60 18 .cfa: sp 0 + .ra: lr
STACK CFI INIT 55a78 5c .cfa: sp 0 + .ra: lr
STACK CFI 55a7c .cfa: sp 8 +
STACK CFI 55a80 .ra: .cfa -4 + ^ r4: .cfa -8 + ^
STACK CFI 55a84 .cfa: sp 16 +
STACK CFI INIT 55ad4 38 .cfa: sp 0 + .ra: lr
STACK CFI 55adc .cfa: sp 8 +
STACK CFI 55ae0 .ra: .cfa -4 + ^ r4: .cfa -8 + ^
STACK CFI INIT 55b0c 10 .cfa: sp 0 + .ra: lr
STACK CFI INIT 4c03c 58 .cfa: sp 0 + .ra: lr
STACK CFI 4c044 .cfa: sp 8 +
STACK CFI 4c048 .ra: .cfa -4 + ^ r4: .cfa -8 + ^
STACK CFI INIT 55b1c a8 .cfa: sp 0 + .ra: lr
STACK CFI 55b20 .cfa: sp 16 +
STACK CFI 55b24 .ra: .cfa -4 + ^ r3: .cfa -16 + ^ r4: .cfa -12 + ^ r5: .cfa -8 + ^
STACK CFI INIT 55bc4 1c .cfa: sp 0 + .ra: lr
STACK CFI 55bc8 .cfa: sp 8 +
STACK CFI 55bcc .ra: .cfa -4 + ^ r4: .cfa -8 + ^
STACK CFI INIT 4c094 60 .cfa: sp 0 + .ra: lr
STACK CFI 4c09c .cfa: sp 8 +
STACK CFI 4c0a0 .ra: .cfa -4 + ^ r4: .cfa -8 + ^
STACK CFI INIT 55be0 10c .cfa: sp 0 + .ra: lr
STACK CFI 55be4 .cfa: sp 40 +
STACK CFI 55be8 .ra: .cfa -4 + ^ r10: .cfa -12 + ^ r11: .cfa -8 + ^ r3: .cfa -40 + ^ r4: .cfa -36 + ^ r5: .cfa -32 + ^ r6: .cfa -28 + ^ r7: .cfa -24 + ^ r8: .cfa -20 + ^ r9: .cfa -16 + ^
STACK CFI INIT 55cec 248 .cfa: sp 0 + .ra: lr
STACK CFI 55cf0 .cfa: sp 36 +
STACK CFI 55cf4 .ra: .cfa -4 + ^ r10: .cfa -12 + ^ r11: .cfa -8 + ^ r4: .cfa -36 + ^ r5: .cfa -32 + ^ r6: .cfa -28 + ^ r7: .cfa -24 + ^ r8: .cfa -20 + ^ r9: .cfa -16 + ^
STACK CFI 55d00 .cfa: sp 88 +
STACK CFI INIT 55f34 4 .cfa: sp 0 + .ra: lr
STACK CFI INIT 55f38 64 .cfa: sp 0 + .ra: lr
STACK CFI 55f3c .cfa: sp 12 +
STACK CFI 55f40 .ra: .cfa -4 + ^ r4: .cfa -12 + ^ r5: .cfa -8 + ^
STACK CFI 55f54 .cfa: sp 24 +
STACK CFI INIT 56024 b0 .cfa: sp 0 + .ra: lr
STACK CFI 56028 .cfa: sp 16 +
STACK CFI 5602c .ra: .cfa -4 + ^ r3: .cfa -16 + ^ r4: .cfa -12 + ^ r5: .cfa -8 + ^
STACK CFI INIT 560d4 1c .cfa: sp 0 + .ra: lr
STACK CFI 560d8 .cfa: sp 8 +
STACK CFI 560dc .ra: .cfa -4 + ^ r4: .cfa -8 + ^
STACK CFI INIT 560f0 50 .cfa: sp 0 + .ra: lr
STACK CFI 56100 .cfa: sp 4 +
STACK CFI 56104 r4: .cfa -4 + ^
STACK CFI INIT 56140 100 .cfa: sp 0 + .ra: lr
STACK CFI 56144 .cfa: sp 24 +
STACK CFI 56148 .ra: .cfa -4 + ^ r3: .cfa -24 + ^ r4: .cfa -20 + ^ r5: .cfa -16 + ^ r6: .cfa -12 + ^ r7: .cfa -8 + ^
STACK CFI INIT 56240 58 .cfa: sp 0 + .ra: lr
STACK CFI INIT 56298 160 .cfa: sp 0 + .ra: lr
STACK CFI 5629c .cfa: sp 32 +
STACK CFI 562a0 .ra: .cfa -4 + ^ r10: .cfa -8 + ^ r3: .cfa -32 + ^ r4: .cfa -28 + ^ r5: .cfa -24 + ^ r6: .cfa -20 + ^ r7: .cfa -16 + ^ r8: .cfa -12 + ^
STACK CFI INIT 5ea60 8 .cfa: sp 0 + .ra: lr
STACK CFI INIT 5ea68 4 .cfa: sp 0 + .ra: lr
STACK CFI INIT 5ea6c 24 .cfa: sp 0 + .ra: lr
STACK CFI INIT 5ea90 8 .cfa: sp 0 + .ra: lr
STACK CFI INIT 5ea98 8 .cfa: sp 0 + .ra: lr
STACK CFI INIT 5eaa0 8 .cfa: sp 0 + .ra: lr
STACK CFI INIT 5eaa8 8 .cfa: sp 0 + .ra: lr
STACK CFI INIT 5eab0 8 .cfa: sp 0 + .ra: lr
STACK CFI INIT 5eab8 8 .cfa: sp 0 + .ra: lr
STACK CFI INIT 5eac0 8 .cfa: sp 0 + .ra: lr
STACK CFI INIT 5eac8 8 .cfa: sp 0 + .ra: lr
STACK CFI INIT 5ead0 8 .cfa: sp 0 + .ra: lr
STACK CFI INIT 5ead8 8 .cfa: sp 0 + .ra: lr
STACK CFI INIT 5eae0 8 .cfa: sp 0 + .ra: lr
STACK CFI INIT 5eae8 8 .cfa: sp 0 + .ra: lr
STACK CFI INIT 5eaf0 8 .cfa: sp 0 + .ra: lr
STACK CFI INIT 563f8 5c .cfa: sp 0 + .ra: lr
STACK CFI 56400 .cfa: sp 8 +
STACK CFI 56408 .ra: .cfa -4 + ^ r3: .cfa -8 + ^
STACK CFI INIT 56454 c .cfa: sp 0 + .ra: lr
STACK CFI INIT 56460 c .cfa: sp 0 + .ra: lr
STACK CFI INIT 5646c c .cfa: sp 0 + .ra: lr
STACK CFI INIT 56478 c .cfa: sp 0 + .ra: lr
STACK CFI INIT 56484 c .cfa: sp 0 + .ra: lr
STACK CFI INIT 56490 c .cfa: sp 0 + .ra: lr
STACK CFI INIT 5649c c .cfa: sp 0 + .ra: lr
STACK CFI INIT 564a8 c .cfa: sp 0 + .ra: lr
STACK CFI INIT 564b4 c .cfa: sp 0 + .ra: lr
STACK CFI INIT 564c0 c .cfa: sp 0 + .ra: lr
STACK CFI INIT 564cc c .cfa: sp 0 + .ra: lr
STACK CFI INIT 564d8 c .cfa: sp 0 + .ra: lr
STACK CFI INIT 564e4 c .cfa: sp 0 + .ra: lr
STACK CFI INIT 5eaf8 70 .cfa: sp 0 + .ra: lr
STACK CFI 5eafc .cfa: sp 16 +
STACK CFI 5eb00 .ra: .cfa -4 + ^ r3: .cfa -16 + ^ r4: .cfa -12 + ^ r5: .cfa -8 + ^
STACK CFI INIT 5eb68 34 .cfa: sp 0 + .ra: lr
STACK CFI 5eb70 .cfa: sp 8 +
STACK CFI 5eb74 .ra: .cfa -4 + ^ r4: .cfa -8 + ^
STACK CFI INIT 5eb9c 78 .cfa: sp 0 + .ra: lr
STACK CFI 5eba0 .cfa: sp 16 +
STACK CFI 5eba4 .ra: .cfa -4 + ^ r3: .cfa -16 + ^ r4: .cfa -12 + ^ r5: .cfa -8 + ^
STACK CFI INIT 5ec14 78 .cfa: sp 0 + .ra: lr
STACK CFI 5ec18 .cfa: sp 16 +
STACK CFI 5ec1c .ra: .cfa -4 + ^ r3: .cfa -16 + ^ r4: .cfa -12 + ^ r5: .cfa -8 + ^
STACK CFI INIT 5ec8c 80 .cfa: sp 0 + .ra: lr
STACK CFI 5ec90 .cfa: sp 16 +
STACK CFI 5ec94 .ra: .cfa -4 + ^ r3: .cfa -16 + ^ r4: .cfa -12 + ^ r5: .cfa -8 + ^
STACK CFI INIT 5ed0c 80 .cfa: sp 0 + .ra: lr
STACK CFI 5ed10 .cfa: sp 16 +
STACK CFI 5ed14 .ra: .cfa -4 + ^ r3: .cfa -16 + ^ r4: .cfa -12 + ^ r5: .cfa -8 + ^
STACK CFI INIT 5ed8c 70 .cfa: sp 0 + .ra: lr
STACK CFI 5ed90 .cfa: sp 16 +
STACK CFI 5ed94 .ra: .cfa -4 + ^ r3: .cfa -16 + ^ r4: .cfa -12 + ^ r5: .cfa -8 + ^
STACK CFI INIT 5edfc 70 .cfa: sp 0 + .ra: lr
STACK CFI 5ee00 .cfa: sp 16 +
STACK CFI 5ee04 .ra: .cfa -4 + ^ r3: .cfa -16 + ^ r4: .cfa -12 + ^ r5: .cfa -8 + ^
STACK CFI INIT 5ee6c 70 .cfa: sp 0 + .ra: lr
STACK CFI 5ee70 .cfa: sp 16 +
STACK CFI 5ee74 .ra: .cfa -4 + ^ r3: .cfa -16 + ^ r4: .cfa -12 + ^ r5: .cfa -8 + ^
STACK CFI INIT 5eedc 70 .cfa: sp 0 + .ra: lr
STACK CFI 5eee0 .cfa: sp 16 +
STACK CFI 5eee4 .ra: .cfa -4 + ^ r3: .cfa -16 + ^ r4: .cfa -12 + ^ r5: .cfa -8 + ^
STACK CFI INIT 5ef4c 70 .cfa: sp 0 + .ra: lr
STACK CFI 5ef50 .cfa: sp 16 +
STACK CFI 5ef54 .ra: .cfa -4 + ^ r3: .cfa -16 + ^ r4: .cfa -12 + ^ r5: .cfa -8 + ^
STACK CFI INIT 5efbc 70 .cfa: sp 0 + .ra: lr
STACK CFI 5efc0 .cfa: sp 16 +
STACK CFI 5efc4 .ra: .cfa -4 + ^ r3: .cfa -16 + ^ r4: .cfa -12 + ^ r5: .cfa -8 + ^
STACK CFI INIT 5f02c 70 .cfa: sp 0 + .ra: lr
STACK CFI 5f030 .cfa: sp 16 +
STACK CFI 5f034 .ra: .cfa -4 + ^ r3: .cfa -16 + ^ r4: .cfa -12 + ^ r5: .cfa -8 + ^
STACK CFI INIT 564f0 104 .cfa: sp 0 + .ra: lr
STACK CFI 564f8 .cfa: sp 36 +
STACK CFI 564fc .ra: .cfa -4 + ^ r10: .cfa -12 + ^ r11: .cfa -8 + ^ r4: .cfa -36 + ^ r5: .cfa -32 + ^ r6: .cfa -28 + ^ r7: .cfa -24 + ^ r8: .cfa -20 + ^ r9: .cfa -16 + ^
STACK CFI 56508 .cfa: sp 48 +
STACK CFI INIT 565f4 10c .cfa: sp 0 + .ra: lr
STACK CFI 565fc .cfa: sp 36 +
STACK CFI 56600 .ra: .cfa -4 + ^ r10: .cfa -12 + ^ r11: .cfa -8 + ^ r4: .cfa -36 + ^ r5: .cfa -32 + ^ r6: .cfa -28 + ^ r7: .cfa -24 + ^ r8: .cfa -20 + ^ r9: .cfa -16 + ^
STACK CFI 5660c .cfa: sp 56 +
STACK CFI INIT 56700 80 .cfa: sp 0 + .ra: lr
STACK CFI 5670c .cfa: sp 16 +
STACK CFI 56710 .ra: .cfa -4 + ^ r3: .cfa -16 + ^ r4: .cfa -12 + ^ r5: .cfa -8 + ^
STACK CFI INIT 56780 10c .cfa: sp 0 + .ra: lr
STACK CFI 56788 .cfa: sp 36 +
STACK CFI 5678c .ra: .cfa -4 + ^ r10: .cfa -12 + ^ r11: .cfa -8 + ^ r4: .cfa -36 + ^ r5: .cfa -32 + ^ r6: .cfa -28 + ^ r7: .cfa -24 + ^ r8: .cfa -20 + ^ r9: .cfa -16 + ^
STACK CFI 56798 .cfa: sp 56 +
STACK CFI INIT 5688c 80 .cfa: sp 0 + .ra: lr
STACK CFI 56898 .cfa: sp 16 +
STACK CFI 5689c .ra: .cfa -4 + ^ r3: .cfa -16 + ^ r4: .cfa -12 + ^ r5: .cfa -8 + ^
STACK CFI INIT 5690c 104 .cfa: sp 0 + .ra: lr
STACK CFI 56914 .cfa: sp 36 +
STACK CFI 56918 .ra: .cfa -4 + ^ r10: .cfa -12 + ^ r11: .cfa -8 + ^ r4: .cfa -36 + ^ r5: .cfa -32 + ^ r6: .cfa -28 + ^ r7: .cfa -24 + ^ r8: .cfa -20 + ^ r9: .cfa -16 + ^
STACK CFI 56924 .cfa: sp 48 +
STACK CFI INIT 56a10 104 .cfa: sp 0 + .ra: lr
STACK CFI 56a18 .cfa: sp 36 +
STACK CFI 56a1c .ra: .cfa -4 + ^ r10: .cfa -12 + ^ r11: .cfa -8 + ^ r4: .cfa -36 + ^ r5: .cfa -32 + ^ r6: .cfa -28 + ^ r7: .cfa -24 + ^ r8: .cfa -20 + ^ r9: .cfa -16 + ^
STACK CFI 56a28 .cfa: sp 48 +
STACK CFI INIT 56b14 10c .cfa: sp 0 + .ra: lr
STACK CFI 56b1c .cfa: sp 36 +
STACK CFI 56b20 .ra: .cfa -4 + ^ r10: .cfa -12 + ^ r11: .cfa -8 + ^ r4: .cfa -36 + ^ r5: .cfa -32 + ^ r6: .cfa -28 + ^ r7: .cfa -24 + ^ r8: .cfa -20 + ^ r9: .cfa -16 + ^
STACK CFI 56b2c .cfa: sp 56 +
STACK CFI INIT 56c20 114 .cfa: sp 0 + .ra: lr
STACK CFI 56c28 .cfa: sp 36 +
STACK CFI 56c2c .ra: .cfa -4 + ^ r10: .cfa -12 + ^ r11: .cfa -8 + ^ r4: .cfa -36 + ^ r5: .cfa -32 + ^ r6: .cfa -28 + ^ r7: .cfa -24 + ^ r8: .cfa -20 + ^ r9: .cfa -16 + ^
STACK CFI 56c38 .cfa: sp 56 +
STACK CFI INIT 56d34 e4 .cfa: sp 0 + .ra: lr
STACK CFI 56d44 .cfa: sp 12 +
STACK CFI 56d4c .cfa: sp 24 +
STACK CFI 56d50 .ra: .cfa -4 + ^ r4: .cfa -12 + ^ r5: .cfa -8 + ^
STACK CFI INIT 56e18 114 .cfa: sp 0 + .ra: lr
STACK CFI 56e20 .cfa: sp 36 +
STACK CFI 56e24 .ra: .cfa -4 + ^ r10: .cfa -12 + ^ r11: .cfa -8 + ^ r4: .cfa -36 + ^ r5: .cfa -32 + ^ r6: .cfa -28 + ^ r7: .cfa -24 + ^ r8: .cfa -20 + ^ r9: .cfa -16 + ^
STACK CFI 56e30 .cfa: sp 56 +
STACK CFI INIT 56f2c 774 .cfa: sp 0 + .ra: lr
STACK CFI 56f30 .cfa: sp 36 +
STACK CFI 56f34 .cfa: sp 120 +
STACK CFI 56f58 .ra: .cfa -4 + ^ r10: .cfa -12 + ^ r11: .cfa -8 + ^ r4: .cfa -36 + ^ r5: .cfa -32 + ^ r6: .cfa -28 + ^ r7: .cfa -24 + ^ r8: .cfa -20 + ^ r9: .cfa -16 + ^
STACK CFI INIT 576a0 1e0 .cfa: sp 0 + .ra: lr
STACK CFI 576a8 .cfa: sp 36 +
STACK CFI 576b0 .cfa: sp 56 +
STACK CFI 576bc .ra: .cfa -4 + ^ r10: .cfa -12 + ^ r11: .cfa -8 + ^ r4: .cfa -36 + ^ r5: .cfa -32 + ^ r6: .cfa -28 + ^ r7: .cfa -24 + ^ r8: .cfa -20 + ^ r9: .cfa -16 + ^
STACK CFI INIT 57880 290 .cfa: sp 0 + .ra: lr
STACK CFI 57884 .cfa: sp 32 +
STACK CFI 57888 .ra: .cfa -4 + ^ r10: .cfa -8 + ^ r3: .cfa -32 + ^ r4: .cfa -28 + ^ r5: .cfa -24 + ^ r6: .cfa -20 + ^ r7: .cfa -16 + ^ r8: .cfa -12 + ^
STACK CFI INIT 57b10 86c .cfa: sp 0 + .ra: lr
STACK CFI 57b14 .cfa: sp 36 +
STACK CFI 57b18 .ra: .cfa -4 + ^ r10: .cfa -12 + ^ r11: .cfa -8 + ^ r4: .cfa -36 + ^ r5: .cfa -32 + ^ r6: .cfa -28 + ^ r7: .cfa -24 + ^ r8: .cfa -20 + ^ r9: .cfa -16 + ^
STACK CFI 57b1c .cfa: sp 120 +
STACK CFI INIT 5837c 940 .cfa: sp 0 + .ra: lr
STACK CFI 58380 .cfa: sp 36 +
STACK CFI 58388 .ra: .cfa -4 + ^ r10: .cfa -12 + ^ r11: .cfa -8 + ^ r4: .cfa -36 + ^ r5: .cfa -32 + ^ r6: .cfa -28 + ^ r7: .cfa -24 + ^ r8: .cfa -20 + ^ r9: .cfa -16 + ^
STACK CFI 58390 .cfa: sp 96 +
STACK CFI INIT 58cbc 60c .cfa: sp 0 + .ra: lr
STACK CFI 58cc8 .cfa: sp 36 +
STACK CFI 58cd0 .cfa: sp 144 +
STACK CFI 58ce0 .ra: .cfa -4 + ^ r10: .cfa -12 + ^ r11: .cfa -8 + ^ r4: .cfa -36 + ^ r5: .cfa -32 + ^ r6: .cfa -28 + ^ r7: .cfa -24 + ^ r8: .cfa -20 + ^ r9: .cfa -16 + ^
STACK CFI INIT 592c8 62c .cfa: sp 0 + .ra: lr
STACK CFI 592cc .cfa: sp 36 +
STACK CFI 592d4 .ra: .cfa -4 + ^ r10: .cfa -12 + ^ r11: .cfa -8 + ^ r4: .cfa -36 + ^ r5: .cfa -32 + ^ r6: .cfa -28 + ^ r7: .cfa -24 + ^ r8: .cfa -20 + ^ r9: .cfa -16 + ^
STACK CFI 592d8 .cfa: sp 136 +
STACK CFI INIT 598f4 1044 .cfa: sp 0 + .ra: lr
STACK CFI 598f8 .cfa: sp 36 +
STACK CFI 598fc .ra: .cfa -4 + ^ r10: .cfa -12 + ^ r11: .cfa -8 + ^ r4: .cfa -36 + ^ r5: .cfa -32 + ^ r6: .cfa -28 + ^ r7: .cfa -24 + ^ r8: .cfa -20 + ^ r9: .cfa -16 + ^
STACK CFI 59904 .cfa: sp 104 +
STACK CFI INIT 5a938 c .cfa: sp 0 + .ra: lr
STACK CFI INIT 5f09c 64 .cfa: sp 0 + .ra: lr
STACK CFI 5f0a0 .cfa: sp 16 +
STACK CFI 5f0a4 .ra: .cfa -4 + ^ r3: .cfa -16 + ^ r4: .cfa -12 + ^ r5: .cfa -8 + ^
STACK CFI INIT 5f100 64 .cfa: sp 0 + .ra: lr
STACK CFI 5f104 .cfa: sp 16 +
STACK CFI 5f108 .ra: .cfa -4 + ^ r3: .cfa -16 + ^ r4: .cfa -12 + ^ r5: .cfa -8 + ^
STACK CFI INIT 5f164 64 .cfa: sp 0 + .ra: lr
STACK CFI 5f168 .cfa: sp 16 +
STACK CFI 5f16c .ra: .cfa -4 + ^ r3: .cfa -16 + ^ r4: .cfa -12 + ^ r5: .cfa -8 + ^
STACK CFI INIT 5f1c8 64 .cfa: sp 0 + .ra: lr
STACK CFI 5f1cc .cfa: sp 16 +
STACK CFI 5f1d0 .ra: .cfa -4 + ^ r3: .cfa -16 + ^ r4: .cfa -12 + ^ r5: .cfa -8 + ^
STACK CFI INIT 5f22c 64 .cfa: sp 0 + .ra: lr
STACK CFI 5f230 .cfa: sp 16 +
STACK CFI 5f234 .ra: .cfa -4 + ^ r3: .cfa -16 + ^ r4: .cfa -12 + ^ r5: .cfa -8 + ^
STACK CFI INIT 5f290 64 .cfa: sp 0 + .ra: lr
STACK CFI 5f294 .cfa: sp 16 +
STACK CFI 5f298 .ra: .cfa -4 + ^ r3: .cfa -16 + ^ r4: .cfa -12 + ^ r5: .cfa -8 + ^
STACK CFI INIT 5f2f4 64 .cfa: sp 0 + .ra: lr
STACK CFI 5f2f8 .cfa: sp 16 +
STACK CFI 5f2fc .ra: .cfa -4 + ^ r3: .cfa -16 + ^ r4: .cfa -12 + ^ r5: .cfa -8 + ^
STACK CFI INIT 5f358 64 .cfa: sp 0 + .ra: lr
STACK CFI 5f35c .cfa: sp 16 +
STACK CFI 5f360 .ra: .cfa -4 + ^ r3: .cfa -16 + ^ r4: .cfa -12 + ^ r5: .cfa -8 + ^
STACK CFI INIT 5f3bc 6c .cfa: sp 0 + .ra: lr
STACK CFI 5f3c0 .cfa: sp 16 +
STACK CFI 5f3c4 .ra: .cfa -4 + ^ r3: .cfa -16 + ^ r4: .cfa -12 + ^ r5: .cfa -8 + ^
STACK CFI INIT 5f428 6c .cfa: sp 0 + .ra: lr
STACK CFI 5f42c .cfa: sp 16 +
STACK CFI 5f430 .ra: .cfa -4 + ^ r3: .cfa -16 + ^ r4: .cfa -12 + ^ r5: .cfa -8 + ^
STACK CFI INIT 5f494 74 .cfa: sp 0 + .ra: lr
STACK CFI 5f498 .cfa: sp 16 +
STACK CFI 5f49c .ra: .cfa -4 + ^ r3: .cfa -16 + ^ r4: .cfa -12 + ^ r5: .cfa -8 + ^
STACK CFI INIT 5f508 74 .cfa: sp 0 + .ra: lr
STACK CFI 5f50c .cfa: sp 16 +
STACK CFI 5f510 .ra: .cfa -4 + ^ r3: .cfa -16 + ^ r4: .cfa -12 + ^ r5: .cfa -8 + ^
STACK CFI INIT 5f57c 30 .cfa: sp 0 + .ra: lr
STACK CFI 5f580 .cfa: sp 16 +
STACK CFI 5f584 .ra: .cfa -4 + ^ r3: .cfa -16 + ^ r4: .cfa -12 + ^ r5: .cfa -8 + ^
STACK CFI INIT 5f5ac a4 .cfa: sp 0 + .ra: lr
STACK CFI 5f5b4 .cfa: sp 12 +
STACK CFI 5f5b8 .ra: .cfa -4 + ^ r4: .cfa -12 + ^ r5: .cfa -8 + ^
STACK CFI 5f5e0 .cfa: sp 24 +
STACK CFI INIT 5f650 9c .cfa: sp 0 + .ra: lr
STACK CFI 5f658 .cfa: sp 12 +
STACK CFI 5f65c .ra: .cfa -4 + ^ r4: .cfa -12 + ^ r5: .cfa -8 + ^
STACK CFI 5f684 .cfa: sp 24 +
STACK CFI INIT 415e0 24 .cfa: sp 0 + .ra: lr
STACK CFI 415e8 .cfa: sp 8 +
STACK CFI 415f0 .ra: .cfa -4 + ^ r4: .cfa -8 + ^
STACK CFI INIT 5a944 8c .cfa: sp 0 + .ra: lr
STACK CFI 5a948 .cfa: sp 8 +
STACK CFI 5a94c .cfa: sp 24 +
STACK CFI 5a954 .ra: .cfa -4 + ^ r4: .cfa -8 + ^
STACK CFI INIT 5a9d0 2c .cfa: sp 0 + .ra: lr
STACK CFI 5a9d4 .cfa: sp 16 +
STACK CFI 5a9d8 .ra: .cfa -4 + ^ r4: .cfa -16 + ^ r5: .cfa -12 + ^ r6: .cfa -8 + ^
STACK CFI INIT 5a9fc 50 .cfa: sp 0 + .ra: lr
STACK CFI 5aa00 .cfa: sp 24 +
STACK CFI 5aa04 .ra: .cfa -4 + ^ r4: .cfa -24 + ^ r5: .cfa -20 + ^ r6: .cfa -16 + ^ r7: .cfa -12 + ^ r8: .cfa -8 + ^
STACK CFI INIT 5aa4c 50 .cfa: sp 0 + .ra: lr
STACK CFI 5aa50 .cfa: sp 16 +
STACK CFI 5aa54 .ra: .cfa -4 + ^ r4: .cfa -16 + ^ r5: .cfa -12 + ^ r6: .cfa -8 + ^
STACK CFI INIT 5aa9c 60 .cfa: sp 0 + .ra: lr
STACK CFI 5aaa0 .cfa: sp 16 +
STACK CFI 5aaa4 .ra: .cfa -4 + ^ r3: .cfa -16 + ^ r4: .cfa -12 + ^ r5: .cfa -8 + ^
STACK CFI INIT 5aafc 2c .cfa: sp 0 + .ra: lr
STACK CFI 5ab00 .cfa: sp 16 +
STACK CFI 5ab04 .ra: .cfa -4 + ^ r3: .cfa -16 + ^ r4: .cfa -12 + ^ r5: .cfa -8 + ^
STACK CFI INIT 5ab28 68 .cfa: sp 0 + .ra: lr
STACK CFI 5ab38 .cfa: sp 4 +
STACK CFI 5ab3c r4: .cfa -4 + ^
STACK CFI INIT 5ab90 38 .cfa: sp 0 + .ra: lr
STACK CFI 5ab98 .cfa: sp 8 +
STACK CFI 5aba0 .ra: .cfa -4 + ^ r4: .cfa -8 + ^
STACK CFI INIT 54f94 88 .cfa: sp 0 + .ra: lr
STACK CFI 54f9c .cfa: sp 12 +
STACK CFI 54fa4 .ra: .cfa -4 + ^ r4: .cfa -12 + ^ r5: .cfa -8 + ^
STACK CFI 54fbc .cfa: sp 24 +
STACK CFI INIT 54bdc 88 .cfa: sp 0 + .ra: lr
STACK CFI 54be4 .cfa: sp 12 +
STACK CFI 54bec .ra: .cfa -4 + ^ r4: .cfa -12 + ^ r5: .cfa -8 + ^
STACK CFI 54c04 .cfa: sp 24 +
STACK CFI INIT 5abc8 184 .cfa: sp 0 + .ra: lr
STACK CFI 5abd4 .cfa: sp 8 +
STACK CFI 5abdc .cfa: sp 16 +
STACK CFI 5abe8 .ra: .cfa -4 + ^ r4: .cfa -8 + ^
STACK CFI INIT 5ad4c 14c .cfa: sp 0 + .ra: lr
STACK CFI 5ad50 .cfa: sp 32 +
STACK CFI 5ad54 .ra: .cfa -4 + ^ r10: .cfa -8 + ^ r4: .cfa -32 + ^ r5: .cfa -28 + ^ r6: .cfa -24 + ^ r7: .cfa -20 + ^ r8: .cfa -16 + ^ r9: .cfa -12 + ^
STACK CFI INIT 5ae98 384 .cfa: sp 0 + .ra: lr
STACK CFI 5ae9c .cfa: sp 36 +
STACK CFI 5aea0 .ra: .cfa -4 + ^ r10: .cfa -12 + ^ r11: .cfa -8 + ^ r4: .cfa -36 + ^ r5: .cfa -32 + ^ r6: .cfa -28 + ^ r7: .cfa -24 + ^ r8: .cfa -20 + ^ r9: .cfa -16 + ^
STACK CFI 5aeac .cfa: sp 96 +
STACK CFI INIT 5b21c 3c .cfa: sp 0 + .ra: lr
STACK CFI 5b220 .cfa: sp 16 +
STACK CFI 5b224 .ra: .cfa -4 + ^ r3: .cfa -16 + ^ r4: .cfa -12 + ^ r5: .cfa -8 + ^
STACK CFI INIT 5b258 a8 .cfa: sp 0 + .ra: lr
STACK CFI 5b264 .cfa: sp 28 +
STACK CFI 5b26c .cfa: sp 40 +
STACK CFI 5b274 .ra: .cfa -4 + ^ r10: .cfa -8 + ^ r4: .cfa -28 + ^ r5: .cfa -24 + ^ r6: .cfa -20 + ^ r7: .cfa -16 + ^ r8: .cfa -12 + ^
STACK CFI INIT 5b300 78 .cfa: sp 0 + .ra: lr
STACK CFI 5b304 .cfa: sp 16 +
STACK CFI 5b308 .ra: .cfa -4 + ^ r3: .cfa -16 + ^ r4: .cfa -12 + ^ r5: .cfa -8 + ^
STACK CFI INIT 5b378 4 .cfa: sp 0 + .ra: lr
STACK CFI INIT 5f6ec 2c .cfa: sp 0 + .ra: lr
STACK CFI 5f6f0 .cfa: sp 8 +
STACK CFI 5f6f4 .ra: .cfa -4 + ^ r4: .cfa -8 + ^
STACK CFI INIT 5b37c 338 .cfa: sp 0 + .ra: lr
STACK CFI 5b384 .cfa: sp 36 +
STACK CFI 5b388 .cfa: sp 4196 +
STACK CFI 5b38c .cfa: sp 4208 +
STACK CFI 5b394 .ra: .cfa -4 + ^ r10: .cfa -12 + ^ r11: .cfa -8 + ^ r4: .cfa -36 + ^ r5: .cfa -32 + ^ r6: .cfa -28 + ^ r7: .cfa -24 + ^ r8: .cfa -20 + ^ r9: .cfa -16 + ^
STACK CFI INIT 5b6b4 51c .cfa: sp 0 + .ra: lr
STACK CFI 5b6bc .cfa: sp 36 +
STACK CFI 5b6c4 .cfa: sp 2196 +
STACK CFI 5b6c8 .cfa: sp 2200 +
STACK CFI 5b6d4 .ra: .cfa -4 + ^ r10: .cfa -12 + ^ r11: .cfa -8 + ^ r4: .cfa -36 + ^ r5: .cfa -32 + ^ r6: .cfa -28 + ^ r7: .cfa -24 + ^ r8: .cfa -20 + ^ r9: .cfa -16 + ^
STACK CFI INIT 5f718 2c .cfa: sp 0 + .ra: lr
STACK CFI 5f71c .cfa: sp 8 +
STACK CFI 5f720 .ra: .cfa -4 + ^ r4: .cfa -8 + ^
STACK CFI INIT 5bbd0 380 .cfa: sp 0 + .ra: lr
STACK CFI 5bbd8 .cfa: sp 36 +
STACK CFI 5bbdc .cfa: sp 4196 +
STACK CFI 5bbe0 .cfa: sp 4208 +
STACK CFI 5bbe8 .ra: .cfa -4 + ^ r10: .cfa -12 + ^ r11: .cfa -8 + ^ r4: .cfa -36 + ^ r5: .cfa -32 + ^ r6: .cfa -28 + ^ r7: .cfa -24 + ^ r8: .cfa -20 + ^ r9: .cfa -16 + ^
STACK CFI INIT 5f744 2c .cfa: sp 0 + .ra: lr
STACK CFI 5f748 .cfa: sp 8 +
STACK CFI 5f74c .ra: .cfa -4 + ^ r4: .cfa -8 + ^
STACK CFI INIT 5bf50 1b0 .cfa: sp 0 + .ra: lr
STACK CFI 5bf58 .cfa: sp 36 +
STACK CFI 5bf60 .cfa: sp 2100 +
STACK CFI 5bf64 .cfa: sp 2112 +
STACK CFI 5bf68 .ra: .cfa -4 + ^ r10: .cfa -12 + ^ r11: .cfa -8 + ^ r4: .cfa -36 + ^ r5: .cfa -32 + ^ r6: .cfa -28 + ^ r7: .cfa -24 + ^ r8: .cfa -20 + ^ r9: .cfa -16 + ^
STACK CFI INIT 5f770 2c .cfa: sp 0 + .ra: lr
STACK CFI 5f774 .cfa: sp 8 +
STACK CFI 5f778 .ra: .cfa -4 + ^ r4: .cfa -8 + ^
STACK CFI INIT 5c100 db4 .cfa: sp 0 + .ra: lr
STACK CFI 5c108 .cfa: sp 36 +
STACK CFI 5c10c .cfa: sp 2164 +
STACK CFI 5c110 .cfa: sp 2168 +
STACK CFI 5c124 .ra: .cfa -4 + ^ r10: .cfa -12 + ^ r11: .cfa -8 + ^ r4: .cfa -36 + ^ r5: .cfa -32 + ^ r6: .cfa -28 + ^ r7: .cfa -24 + ^ r8: .cfa -20 + ^ r9: .cfa -16 + ^
STACK CFI INIT 5f79c 160 .cfa: sp 0 + .ra: lr
STACK CFI 5f7a0 .cfa: sp 36 +
STACK CFI 5f7a4 .ra: .cfa -4 + ^ r10: .cfa -12 + ^ r11: .cfa -8 + ^ r4: .cfa -36 + ^ r5: .cfa -32 + ^ r6: .cfa -28 + ^ r7: .cfa -24 + ^ r8: .cfa -20 + ^ r9: .cfa -16 + ^
STACK CFI 5f7a8 .cfa: sp 56 +
STACK CFI INIT 5ceb4 208 .cfa: sp 0 + .ra: lr
STACK CFI 5cebc .cfa: sp 24 +
STACK CFI 5cec0 .ra: .cfa -4 + ^ r3: .cfa -24 + ^ r4: .cfa -20 + ^ r5: .cfa -16 + ^ r6: .cfa -12 + ^ r7: .cfa -8 + ^
STACK CFI INIT 5d0bc 4c .cfa: sp 0 + .ra: lr
STACK CFI 5d0c0 .cfa: sp 16 +
STACK CFI 5d0c4 .ra: .cfa -4 + ^ r4: .cfa -16 + ^ r5: .cfa -12 + ^ r6: .cfa -8 + ^
STACK CFI INIT 5d108 50 .cfa: sp 0 + .ra: lr
STACK CFI 5d10c .cfa: sp 16 +
STACK CFI 5d110 .ra: .cfa -4 + ^ r3: .cfa -16 + ^ r4: .cfa -12 + ^ r5: .cfa -8 + ^
STACK CFI INIT 5f8fc 118 .cfa: sp 0 + .ra: lr
STACK CFI 5f90c .cfa: sp 8 +
STACK CFI 5f910 r4: .cfa -8 + ^ r5: .cfa -4 + ^
STACK CFI INIT 5fa14 e0 .cfa: sp 0 + .ra: lr
STACK CFI 5fa1c .cfa: sp 32 +
STACK CFI 5fa20 .ra: .cfa -4 + ^ r10: .cfa -8 + ^ r3: .cfa -32 + ^ r4: .cfa -28 + ^ r5: .cfa -24 + ^ r6: .cfa -20 + ^ r7: .cfa -16 + ^ r8: .cfa -12 + ^
STACK CFI INIT 5faf4 168 .cfa: sp 0 + .ra: lr
STACK CFI 5faf8 .cfa: sp 24 +
STACK CFI 5fafc .ra: .cfa -4 + ^ r3: .cfa -24 + ^ r4: .cfa -20 + ^ r5: .cfa -16 + ^ r6: .cfa -12 + ^ r7: .cfa -8 + ^
STACK CFI INIT 5d158 2e4 .cfa: sp 0 + .ra: lr
STACK CFI 5d15c .cfa: sp 36 +
STACK CFI 5d160 .ra: .cfa -4 + ^ r10: .cfa -12 + ^ r11: .cfa -8 + ^ r4: .cfa -36 + ^ r5: .cfa -32 + ^ r6: .cfa -28 + ^ r7: .cfa -24 + ^ r8: .cfa -20 + ^ r9: .cfa -16 + ^
STACK CFI 5d168 .cfa: sp 128 +
STACK CFI INIT 5d43c 3c4 .cfa: sp 0 + .ra: lr
STACK CFI 5d444 .cfa: sp 36 +
STACK CFI 5d44c .cfa: sp 88 +
STACK CFI 5d450 .ra: .cfa -4 + ^ r10: .cfa -12 + ^ r11: .cfa -8 + ^ r4: .cfa -36 + ^ r5: .cfa -32 + ^ r6: .cfa -28 + ^ r7: .cfa -24 + ^ r8: .cfa -20 + ^ r9: .cfa -16 + ^
STACK CFI INIT 5d800 3c .cfa: sp 0 + .ra: lr
STACK CFI INIT 5d83c a0 .cfa: sp 0 + .ra: lr
STACK CFI 5d840 .cfa: sp 16 +
STACK CFI 5d844 .ra: .cfa -4 + ^ r3: .cfa -16 + ^ r4: .cfa -12 + ^ r5: .cfa -8 + ^
STACK CFI INIT 5d8dc 10 .cfa: sp 0 + .ra: lr
STACK CFI 5d8e0 .cfa: sp 8 + .ra: .cfa -4 + ^ r3: .cfa -8 + ^
STACK CFI INIT 5d8ec c4 .cfa: sp 0 + .ra: lr
STACK CFI 5d8f4 .cfa: sp 8 +
STACK CFI 5d8f8 .ra: .cfa -4 + ^ r4: .cfa -8 + ^
STACK CFI INIT 5d9b0 1b0 .cfa: sp 0 + .ra: lr
STACK CFI 5d9b8 .cfa: sp 24 +
STACK CFI 5d9bc .ra: .cfa -4 + ^ r4: .cfa -24 + ^ r5: .cfa -20 + ^ r6: .cfa -16 + ^ r7: .cfa -12 + ^ r8: .cfa -8 + ^
STACK CFI 5d9c0 .cfa: sp 64 +
STACK CFI INIT 5db60 e0 .cfa: sp 0 + .ra: lr
STACK CFI 5db64 .cfa: sp 16 +
STACK CFI 5db68 .ra: .cfa -4 + ^ r4: .cfa -16 + ^ r5: .cfa -12 + ^ r6: .cfa -8 + ^
STACK CFI INIT 5dc40 494 .cfa: sp 0 + .ra: lr
STACK CFI 5dc44 .cfa: sp 28 +
STACK CFI 5dc48 .cfa: sp 56 +
STACK CFI 5dc4c .ra: .cfa -4 + ^ r10: .cfa -8 + ^ r4: .cfa -28 + ^ r5: .cfa -24 + ^ r6: .cfa -20 + ^ r7: .cfa -16 + ^ r8: .cfa -12 + ^
STACK CFI INIT 5e0d4 84 .cfa: sp 0 + .ra: lr
STACK CFI 5e0d8 .cfa: sp 8 +
STACK CFI 5e0e0 .cfa: sp 32 +
STACK CFI 5e0e4 .ra: .cfa -4 + ^ r4: .cfa -8 + ^
STACK CFI INIT 5e158 9c .cfa: sp 0 + .ra: lr
STACK CFI 5e15c .cfa: sp 8 +
STACK CFI 5e164 .cfa: sp 40 +
STACK CFI 5e168 .ra: .cfa -4 + ^ r4: .cfa -8 + ^
STACK CFI INIT 5e1f4 144 .cfa: sp 0 + .ra: lr
STACK CFI 5e200 .cfa: sp 12 +
STACK CFI 5e208 .cfa: sp 72 +
STACK CFI 5e20c .ra: .cfa -4 + ^ r4: .cfa -12 + ^ r5: .cfa -8 + ^
STACK CFI INIT 5e338 9c .cfa: sp 0 + .ra: lr
STACK CFI 5e33c .cfa: sp 8 +
STACK CFI 5e344 .cfa: sp 40 +
STACK CFI 5e348 .ra: .cfa -4 + ^ r4: .cfa -8 + ^
STACK CFI INIT 5e3d4 8c .cfa: sp 0 + .ra: lr
STACK CFI 5e3d8 .cfa: sp 8 +
STACK CFI 5e3e0 .cfa: sp 32 +
STACK CFI 5e3e4 .ra: .cfa -4 + ^ r4: .cfa -8 + ^
STACK CFI INIT 5e460 84 .cfa: sp 0 + .ra: lr
STACK CFI 5e464 .cfa: sp 8 +
STACK CFI 5e46c .cfa: sp 32 +
STACK CFI 5e470 .ra: .cfa -4 + ^ r4: .cfa -8 + ^
STACK CFI INIT 5e4e4 80 .cfa: sp 0 + .ra: lr
STACK CFI 5e4ec .cfa: sp 8 +
STACK CFI 5e4f0 .ra: .cfa -4 + ^ r4: .cfa -8 + ^
STACK CFI 5e4f4 .cfa: sp 32 +
STACK CFI INIT 5e564 80 .cfa: sp 0 + .ra: lr
STACK CFI 5e56c .cfa: sp 8 +
STACK CFI 5e570 .ra: .cfa -4 + ^ r4: .cfa -8 + ^
STACK CFI 5e574 .cfa: sp 32 +
STACK CFI INIT 5e5e4 80 .cfa: sp 0 + .ra: lr
STACK CFI 5e5ec .cfa: sp 8 +
STACK CFI 5e5f0 .ra: .cfa -4 + ^ r4: .cfa -8 + ^
STACK CFI 5e5f4 .cfa: sp 32 +
STACK CFI INIT 5e664 80 .cfa: sp 0 + .ra: lr
STACK CFI 5e66c .cfa: sp 8 +
STACK CFI 5e670 .ra: .cfa -4 + ^ r4: .cfa -8 + ^
STACK CFI 5e674 .cfa: sp 32 +
STACK CFI INIT 5e6e4 80 .cfa: sp 0 + .ra: lr
STACK CFI 5e6ec .cfa: sp 8 +
STACK CFI 5e6f0 .ra: .cfa -4 + ^ r4: .cfa -8 + ^
STACK CFI 5e6f4 .cfa: sp 32 +
STACK CFI INIT 5e764 80 .cfa: sp 0 + .ra: lr
STACK CFI 5e76c .cfa: sp 8 +
STACK CFI 5e770 .ra: .cfa -4 + ^ r4: .cfa -8 + ^
STACK CFI 5e774 .cfa: sp 32 +
STACK CFI INIT 5e7e4 28 .cfa: sp 0 + .ra: lr
STACK CFI 5e7e8 .cfa: sp 8 +
STACK CFI 5e7ec .ra: .cfa -4 + ^ r4: .cfa -8 + ^
STACK CFI INIT 5e80c c8 .cfa: sp 0 + .ra: lr
STACK CFI 5e810 .cfa: sp 16 +
STACK CFI 5e818 .ra: .cfa -4 + ^ r4: .cfa -16 + ^ r5: .cfa -12 + ^ r6: .cfa -8 + ^
STACK CFI 5e81c .cfa: sp 24 +
STACK CFI INIT 418c8 30 .cfa: sp 0 + .ra: lr
STACK CFI 418cc .cfa: sp 8 +
STACK CFI 418d0 .ra: .cfa -4 + ^ r4: .cfa -8 + ^
STACK CFI INIT 5e8d4 90 .cfa: sp 0 + .ra: lr
STACK CFI 5e8d8 .cfa: sp 24 +
STACK CFI 5e8dc .ra: .cfa -4 + ^ r3: .cfa -24 + ^ r4: .cfa -20 + ^ r5: .cfa -16 + ^ r6: .cfa -12 + ^ r7: .cfa -8 + ^
STACK CFI INIT 5e964 70 .cfa: sp 0 + .ra: lr
STACK CFI 5e974 .cfa: sp 8 +
STACK CFI 5e97c .ra: .cfa -4 + ^ r4: .cfa -8 + ^
STACK CFI INIT 5e9d4 1c .cfa: sp 0 + .ra: lr
STACK CFI 5e9d8 .cfa: sp 8 +
STACK CFI 5e9dc .ra: .cfa -4 + ^ r4: .cfa -8 + ^
STACK CFI INIT 5e9f0 38 .cfa: sp 0 + .ra: lr
STACK CFI 5e9f4 .cfa: sp 8 +
STACK CFI 5e9f8 .ra: .cfa -4 + ^ r4: .cfa -8 + ^
STACK CFI INIT 5ea28 38 .cfa: sp 0 + .ra: lr
STACK CFI 5ea34 .cfa: sp 8 +
STACK CFI 5ea3c .ra: .cfa -4 + ^ r4: .cfa -8 + ^
STACK CFI INIT 5fc5c 1c .cfa: sp 0 + .ra: lr
STACK CFI INIT 604dc 8 .cfa: sp 0 + .ra: lr
STACK CFI INIT 604e4 24 .cfa: sp 0 + .ra: lr
STACK CFI INIT 60508 34 .cfa: sp 0 + .ra: lr
STACK CFI 60510 .cfa: sp 8 +
STACK CFI 60514 .ra: .cfa -4 + ^ r4: .cfa -8 + ^
STACK CFI INIT 55f9c 88 .cfa: sp 0 + .ra: lr
STACK CFI 55fa4 .cfa: sp 12 +
STACK CFI 55fac .ra: .cfa -4 + ^ r4: .cfa -12 + ^ r5: .cfa -8 + ^
STACK CFI 55fc4 .cfa: sp 24 +
STACK CFI INIT 5fc78 6c .cfa: sp 0 + .ra: lr
STACK CFI 5fc7c .cfa: sp 12 +
STACK CFI 5fc80 .cfa: sp 24 +
STACK CFI 5fc84 .ra: .cfa -4 + ^ r4: .cfa -12 + ^ r5: .cfa -8 + ^
STACK CFI INIT 5fce4 c8 .cfa: sp 0 + .ra: lr
STACK CFI 5fcec .cfa: sp 20 +
STACK CFI 5fcf4 .cfa: sp 32 +
STACK CFI 5fcf8 .ra: .cfa -4 + ^ r4: .cfa -20 + ^ r5: .cfa -16 + ^ r6: .cfa -12 + ^ r7: .cfa -8 + ^
STACK CFI INIT 5fdac 100 .cfa: sp 0 + .ra: lr
STACK CFI 5fdb4 .cfa: sp 24 +
STACK CFI 5fdbc .cfa: sp 32 +
STACK CFI 5fdc0 .ra: .cfa -4 + ^ r4: .cfa -24 + ^ r5: .cfa -20 + ^ r6: .cfa -16 + ^ r7: .cfa -12 + ^ r8: .cfa -8 + ^
STACK CFI INIT 5feac 108 .cfa: sp 0 + .ra: lr
STACK CFI 5feb4 .cfa: sp 28 +
STACK CFI 5febc .cfa: sp 40 +
STACK CFI 5fec0 .ra: .cfa -4 + ^ r10: .cfa -8 + ^ r4: .cfa -28 + ^ r5: .cfa -24 + ^ r6: .cfa -20 + ^ r7: .cfa -16 + ^ r8: .cfa -12 + ^
STACK CFI INIT 5ffb4 334 .cfa: sp 0 + .ra: lr
STACK CFI 5ffb8 .cfa: sp 36 +
STACK CFI 5ffc0 .ra: .cfa -4 + ^ r10: .cfa -12 + ^ r11: .cfa -8 + ^ r4: .cfa -36 + ^ r5: .cfa -32 + ^ r6: .cfa -28 + ^ r7: .cfa -24 + ^ r8: .cfa -20 + ^ r9: .cfa -16 + ^
STACK CFI 5ffc8 .cfa: sp 64 +
STACK CFI INIT 4c03c 58 .cfa: sp 0 + .ra: lr
STACK CFI 4c044 .cfa: sp 8 +
STACK CFI 4c048 .ra: .cfa -4 + ^ r4: .cfa -8 + ^
STACK CFI INIT 4c094 60 .cfa: sp 0 + .ra: lr
STACK CFI 4c09c .cfa: sp 8 +
STACK CFI 4c0a0 .ra: .cfa -4 + ^ r4: .cfa -8 + ^
STACK CFI INIT 602e8 58 .cfa: sp 0 + .ra: lr
STACK CFI 602ec .cfa: sp 16 +
STACK CFI 602f0 .ra: .cfa -4 + ^ r4: .cfa -16 + ^ r5: .cfa -12 + ^ r6: .cfa -8 + ^
STACK CFI INIT 60340 30 .cfa: sp 0 + .ra: lr
STACK CFI 60344 .cfa: sp 16 +
STACK CFI 60348 .ra: .cfa -4 + ^ r3: .cfa -16 + ^ r4: .cfa -12 + ^ r5: .cfa -8 + ^
STACK CFI INIT 6053c 41c .cfa: sp 0 + .ra: lr
STACK CFI 60548 .cfa: sp 36 +
STACK CFI 60550 .cfa: sp 64 +
STACK CFI 60554 .ra: .cfa -4 + ^ r10: .cfa -12 + ^ r11: .cfa -8 + ^ r4: .cfa -36 + ^ r5: .cfa -32 + ^ r6: .cfa -28 + ^ r7: .cfa -24 + ^ r8: .cfa -20 + ^ r9: .cfa -16 + ^
STACK CFI INIT 60370 9c .cfa: sp 0 + .ra: lr
STACK CFI 60378 .cfa: sp 20 +
STACK CFI 60380 .cfa: sp 40 +
STACK CFI 60384 .ra: .cfa -4 + ^ r4: .cfa -20 + ^ r5: .cfa -16 + ^ r6: .cfa -12 + ^ r7: .cfa -8 + ^
STACK CFI INIT 6040c 4 .cfa: sp 0 + .ra: lr
STACK CFI INIT 60958 150 .cfa: sp 0 + .ra: lr
STACK CFI 6095c .cfa: sp 28 +
STACK CFI 60960 .ra: .cfa -4 + ^ r10: .cfa -8 + ^ r4: .cfa -28 + ^ r5: .cfa -24 + ^ r6: .cfa -20 + ^ r7: .cfa -16 + ^ r8: .cfa -12 + ^
STACK CFI 6096c .cfa: sp 40 +
STACK CFI INIT 60410 68 .cfa: sp 0 + .ra: lr
STACK CFI 60418 .cfa: sp 4 +
STACK CFI 60420 .cfa: sp 16 +
STACK CFI 60428 .ra: .cfa -4 + ^
STACK CFI INIT 60aa8 160 .cfa: sp 0 + .ra: lr
STACK CFI 60aac .cfa: sp 36 +
STACK CFI 60ab0 .ra: .cfa -4 + ^ r10: .cfa -12 + ^ r11: .cfa -8 + ^ r4: .cfa -36 + ^ r5: .cfa -32 + ^ r6: .cfa -28 + ^ r7: .cfa -24 + ^ r8: .cfa -20 + ^ r9: .cfa -16 + ^
STACK CFI 60ab4 .cfa: sp 56 +
STACK CFI INIT 60c08 130 .cfa: sp 0 + .ra: lr
STACK CFI 60c10 .cfa: sp 24 +
STACK CFI 60c18 .ra: .cfa -4 + ^ r4: .cfa -24 + ^ r5: .cfa -20 + ^ r6: .cfa -16 + ^ r7: .cfa -12 + ^ r8: .cfa -8 + ^
STACK CFI INIT 60d38 4c .cfa: sp 0 + .ra: lr
STACK CFI 60d3c .cfa: sp 16 +
STACK CFI 60d40 .ra: .cfa -4 + ^ r3: .cfa -16 + ^ r4: .cfa -12 + ^ r5: .cfa -8 + ^
STACK CFI INIT 60d84 54 .cfa: sp 0 + .ra: lr
STACK CFI 60d88 .cfa: sp 16 +
STACK CFI 60d8c .ra: .cfa -4 + ^ r3: .cfa -16 + ^ r4: .cfa -12 + ^ r5: .cfa -8 + ^
STACK CFI INIT 60dd8 30 .cfa: sp 0 + .ra: lr
STACK CFI 60ddc .cfa: sp 8 +
STACK CFI 60de0 .ra: .cfa -4 + ^ r4: .cfa -8 + ^
STACK CFI INIT 60e08 16c .cfa: sp 0 + .ra: lr
STACK CFI 60e10 .cfa: sp 32 +
STACK CFI 60e18 .ra: .cfa -4 + ^ r10: .cfa -8 + ^ r4: .cfa -32 + ^ r5: .cfa -28 + ^ r6: .cfa -24 + ^ r7: .cfa -20 + ^ r8: .cfa -16 + ^ r9: .cfa -12 + ^
STACK CFI INIT 60f74 224 .cfa: sp 0 + .ra: lr
STACK CFI 60f78 .cfa: sp 32 +
STACK CFI 60f7c .ra: .cfa -4 + ^ r10: .cfa -8 + ^ r4: .cfa -32 + ^ r5: .cfa -28 + ^ r6: .cfa -24 + ^ r7: .cfa -20 + ^ r8: .cfa -16 + ^ r9: .cfa -12 + ^
STACK CFI 60f84 .cfa: sp 56 +
STACK CFI INIT 61198 88 .cfa: sp 0 + .ra: lr
STACK CFI 611a0 .cfa: sp 12 +
STACK CFI 611a8 .ra: .cfa -4 + ^ r4: .cfa -12 + ^ r5: .cfa -8 + ^
STACK CFI 611b0 .cfa: sp 24 +
STACK CFI INIT 61220 88 .cfa: sp 0 + .ra: lr
STACK CFI 61228 .cfa: sp 12 +
STACK CFI 61230 .ra: .cfa -4 + ^ r4: .cfa -12 + ^ r5: .cfa -8 + ^
STACK CFI 61238 .cfa: sp 24 +
STACK CFI INIT 60478 64 .cfa: sp 0 + .ra: lr
STACK CFI 6047c .cfa: sp 12 +
STACK CFI 60480 .ra: .cfa -4 + ^ r4: .cfa -12 + ^ r5: .cfa -8 + ^
STACK CFI 60494 .cfa: sp 24 +
STACK CFI INIT 612a8 20 .cfa: sp 0 + .ra: lr
STACK CFI INIT 612c8 34 .cfa: sp 0 + .ra: lr
STACK CFI 612d0 .cfa: sp 8 +
STACK CFI 612d8 .ra: .cfa -4 + ^ r3: .cfa -8 + ^
STACK CFI INIT 6230c 28 .cfa: sp 0 + .ra: lr
STACK CFI 62314 .cfa: sp 8 +
STACK CFI 62320 .ra: .cfa -4 + ^ r4: .cfa -8 + ^
STACK CFI INIT 612fc 4 .cfa: sp 0 + .ra: lr
STACK CFI INIT 61300 1c .cfa: sp 0 + .ra: lr
STACK CFI INIT 62334 24 .cfa: sp 0 + .ra: lr
STACK CFI INIT 62358 8 .cfa: sp 0 + .ra: lr
STACK CFI INIT 62360 8 .cfa: sp 0 + .ra: lr
STACK CFI INIT 62368 34 .cfa: sp 0 + .ra: lr
STACK CFI 62370 .cfa: sp 8 +
STACK CFI 62374 .ra: .cfa -4 + ^ r4: .cfa -8 + ^
STACK CFI INIT 6131c c .cfa: sp 0 + .ra: lr
STACK CFI INIT 55f9c 88 .cfa: sp 0 + .ra: lr
STACK CFI 55fa4 .cfa: sp 12 +
STACK CFI 55fac .ra: .cfa -4 + ^ r4: .cfa -12 + ^ r5: .cfa -8 + ^
STACK CFI 55fc4 .cfa: sp 24 +
STACK CFI INIT 415e0 24 .cfa: sp 0 + .ra: lr
STACK CFI 415e8 .cfa: sp 8 +
STACK CFI 415f0 .ra: .cfa -4 + ^ r4: .cfa -8 + ^
STACK CFI INIT 61328 e4 .cfa: sp 0 + .ra: lr
STACK CFI 6132c .cfa: sp 16 +
STACK CFI 61330 .ra: .cfa -4 + ^ r4: .cfa -16 + ^ r5: .cfa -12 + ^ r6: .cfa -8 + ^
STACK CFI INIT 6140c 1c .cfa: sp 0 + .ra: lr
STACK CFI 61414 .cfa: sp 8 +
STACK CFI 61418 .ra: .cfa -4 + ^ r3: .cfa -8 + ^
STACK CFI INIT 61428 1c .cfa: sp 0 + .ra: lr
STACK CFI 6142c .cfa: sp 8 +
STACK CFI 61430 .ra: .cfa -4 + ^ r3: .cfa -8 + ^
STACK CFI INIT 61444 14 .cfa: sp 0 + .ra: lr
STACK CFI 6144c .cfa: sp 8 +
STACK CFI 61450 .ra: .cfa -4 + ^ r3: .cfa -8 + ^
STACK CFI INIT 61458 18 .cfa: sp 0 + .ra: lr
STACK CFI 61460 .cfa: sp 8 +
STACK CFI 61468 .ra: .cfa -4 + ^ r3: .cfa -8 + ^
STACK CFI INIT 61470 14 .cfa: sp 0 + .ra: lr
STACK CFI 61478 .cfa: sp 8 +
STACK CFI 6147c .ra: .cfa -4 + ^ r3: .cfa -8 + ^
STACK CFI INIT 61484 4 .cfa: sp 0 + .ra: lr
STACK CFI INIT 61488 a0 .cfa: sp 0 + .ra: lr
STACK CFI 6148c .cfa: sp 12 +
STACK CFI 61490 r4: .cfa -12 + ^ r5: .cfa -8 + ^ r6: .cfa -4 + ^
STACK CFI INIT 61528 84 .cfa: sp 0 + .ra: lr
STACK CFI 6152c .cfa: sp 32 +
STACK CFI 61530 .ra: .cfa -4 + ^ r10: .cfa -8 + ^ r3: .cfa -32 + ^ r4: .cfa -28 + ^ r5: .cfa -24 + ^ r6: .cfa -20 + ^ r7: .cfa -16 + ^ r8: .cfa -12 + ^
STACK CFI INIT 615ac c .cfa: sp 0 + .ra: lr
STACK CFI INIT 615b8 4 .cfa: sp 0 + .ra: lr
STACK CFI INIT 615bc 6c .cfa: sp 0 + .ra: lr
STACK CFI 615c0 .cfa: sp 16 +
STACK CFI 615c8 .ra: .cfa -4 + ^ r4: .cfa -16 + ^ r5: .cfa -12 + ^ r6: .cfa -8 + ^
STACK CFI INIT 61628 4 .cfa: sp 0 + .ra: lr
STACK CFI INIT 6162c 24 .cfa: sp 0 + .ra: lr
STACK CFI INIT 6239c 88 .cfa: sp 0 + .ra: lr
STACK CFI 623a4 .cfa: sp 12 +
STACK CFI 623ac .ra: .cfa -4 + ^ r4: .cfa -12 + ^ r5: .cfa -8 + ^
STACK CFI 623c4 .cfa: sp 24 +
STACK CFI INIT 62424 88 .cfa: sp 0 + .ra: lr
STACK CFI 6242c .cfa: sp 12 +
STACK CFI 62434 .ra: .cfa -4 + ^ r4: .cfa -12 + ^ r5: .cfa -8 + ^
STACK CFI 6244c .cfa: sp 24 +
STACK CFI INIT 61650 1c0 .cfa: sp 0 + .ra: lr
STACK CFI 61654 .cfa: sp 36 +
STACK CFI 61658 .ra: .cfa -4 + ^ r10: .cfa -12 + ^ r11: .cfa -8 + ^ r4: .cfa -36 + ^ r5: .cfa -32 + ^ r6: .cfa -28 + ^ r7: .cfa -24 + ^ r8: .cfa -20 + ^ r9: .cfa -16 + ^
STACK CFI 61660 .cfa: sp 152 +
STACK CFI INIT 61810 24 .cfa: sp 0 + .ra: lr
STACK CFI INIT 61834 118 .cfa: sp 0 + .ra: lr
STACK CFI 61838 .cfa: sp 32 +
STACK CFI 6183c .ra: .cfa -4 + ^ r10: .cfa -8 + ^ r3: .cfa -32 + ^ r4: .cfa -28 + ^ r5: .cfa -24 + ^ r6: .cfa -20 + ^ r7: .cfa -16 + ^ r8: .cfa -12 + ^
STACK CFI INIT 6194c cc .cfa: sp 0 + .ra: lr
STACK CFI 61954 .cfa: sp 16 +
STACK CFI 6195c .ra: .cfa -4 + ^ r4: .cfa -16 + ^ r5: .cfa -12 + ^ r6: .cfa -8 + ^
STACK CFI INIT 61a18 c0 .cfa: sp 0 + .ra: lr
STACK CFI 61a20 .cfa: sp 24 +
STACK CFI 61a28 .ra: .cfa -4 + ^ r4: .cfa -24 + ^ r5: .cfa -20 + ^ r6: .cfa -16 + ^ r7: .cfa -12 + ^ r8: .cfa -8 + ^
STACK CFI INIT 61ad8 8c .cfa: sp 0 + .ra: lr
STACK CFI 61ae0 .cfa: sp 16 +
STACK CFI 61ae4 .ra: .cfa -4 + ^ r4: .cfa -16 + ^ r5: .cfa -12 + ^ r6: .cfa -8 + ^
STACK CFI INIT 61b64 14 .cfa: sp 0 + .ra: lr
STACK CFI INIT 61b78 28 .cfa: sp 0 + .ra: lr
STACK CFI 61b84 .cfa: sp 8 +
STACK CFI 61b88 .ra: .cfa -4 + ^ r4: .cfa -8 + ^
STACK CFI INIT 61ba0 1c .cfa: sp 0 + .ra: lr
STACK CFI INIT 61bbc 4 .cfa: sp 0 + .ra: lr
STACK CFI INIT 61bc0 30 .cfa: sp 0 + .ra: lr
STACK CFI 61bc4 .cfa: sp 16 +
STACK CFI 61bc8 .ra: .cfa -4 + ^ r3: .cfa -16 + ^ r4: .cfa -12 + ^ r5: .cfa -8 + ^
STACK CFI INIT 61bf0 c4 .cfa: sp 0 + .ra: lr
STACK CFI 61bf8 .cfa: sp 28 +
STACK CFI 61c00 .cfa: sp 56 +
STACK CFI 61c04 .ra: .cfa -4 + ^ r10: .cfa -8 + ^ r4: .cfa -28 + ^ r5: .cfa -24 + ^ r6: .cfa -20 + ^ r7: .cfa -16 + ^ r8: .cfa -12 + ^
STACK CFI INIT 61cb4 174 .cfa: sp 0 + .ra: lr
STACK CFI 61cb8 .cfa: sp 16 +
STACK CFI 61cbc .ra: .cfa -4 + ^ r4: .cfa -16 + ^ r5: .cfa -12 + ^ r6: .cfa -8 + ^
STACK CFI 61ce4 .cfa: sp 32 +
STACK CFI INIT 61e28 1c .cfa: sp 0 + .ra: lr
STACK CFI 61e2c .cfa: sp 8 +
STACK CFI 61e30 .ra: .cfa -4 + ^ r4: .cfa -8 + ^
STACK CFI INIT 624ac 34 .cfa: sp 0 + .ra: lr
STACK CFI 624b4 .cfa: sp 8 +
STACK CFI 624b8 .ra: .cfa -4 + ^ r4: .cfa -8 + ^
STACK CFI INIT 624e0 3c .cfa: sp 0 + .ra: lr
STACK CFI 624e8 .cfa: sp 8 +
STACK CFI 624ec .ra: .cfa -4 + ^ r4: .cfa -8 + ^
STACK CFI INIT 61e44 b4 .cfa: sp 0 + .ra: lr
STACK CFI 61e4c .cfa: sp 20 +
STACK CFI 61e50 .ra: .cfa -4 + ^ r4: .cfa -20 + ^ r5: .cfa -16 + ^ r6: .cfa -12 + ^ r7: .cfa -8 + ^
STACK CFI 61e54 .cfa: sp 32 +
STACK CFI INIT 61ef8 18 .cfa: sp 0 + .ra: lr
STACK CFI INIT 6251c 3a0 .cfa: sp 0 + .ra: lr
STACK CFI 62520 .cfa: sp 36 +
STACK CFI 62528 .ra: .cfa -4 + ^ r10: .cfa -12 + ^ r11: .cfa -8 + ^ r4: .cfa -36 + ^ r5: .cfa -32 + ^ r6: .cfa -28 + ^ r7: .cfa -24 + ^ r8: .cfa -20 + ^ r9: .cfa -16 + ^
STACK CFI 62530 .cfa: sp 48 +
STACK CFI INIT 61f10 c8 .cfa: sp 0 + .ra: lr
STACK CFI 61f18 .cfa: sp 8 +
STACK CFI 61f20 .cfa: sp 16 +
STACK CFI 61f24 .ra: .cfa -4 + ^ r4: .cfa -8 + ^
STACK CFI INIT 61fd8 4 .cfa: sp 0 + .ra: lr
STACK CFI INIT 628bc 160 .cfa: sp 0 + .ra: lr
STACK CFI 628c0 .cfa: sp 36 +
STACK CFI 628c4 .ra: .cfa -4 + ^ r10: .cfa -12 + ^ r11: .cfa -8 + ^ r4: .cfa -36 + ^ r5: .cfa -32 + ^ r6: .cfa -28 + ^ r7: .cfa -24 + ^ r8: .cfa -20 + ^ r9: .cfa -16 + ^
STACK CFI 628c8 .cfa: sp 56 +
STACK CFI INIT 62a1c 4c .cfa: sp 0 + .ra: lr
STACK CFI 62a20 .cfa: sp 16 +
STACK CFI 62a24 .ra: .cfa -4 + ^ r3: .cfa -16 + ^ r4: .cfa -12 + ^ r5: .cfa -8 + ^
STACK CFI INIT 62a68 54 .cfa: sp 0 + .ra: lr
STACK CFI 62a6c .cfa: sp 16 +
STACK CFI 62a70 .ra: .cfa -4 + ^ r3: .cfa -16 + ^ r4: .cfa -12 + ^ r5: .cfa -8 + ^
STACK CFI INIT 62abc 30 .cfa: sp 0 + .ra: lr
STACK CFI 62ac0 .cfa: sp 8 +
STACK CFI 62ac4 .ra: .cfa -4 + ^ r4: .cfa -8 + ^
STACK CFI INIT 62aec 130 .cfa: sp 0 + .ra: lr
STACK CFI 62af4 .cfa: sp 24 +
STACK CFI 62afc .ra: .cfa -4 + ^ r4: .cfa -24 + ^ r5: .cfa -20 + ^ r6: .cfa -16 + ^ r7: .cfa -12 + ^ r8: .cfa -8 + ^
STACK CFI INIT 62c1c 16c .cfa: sp 0 + .ra: lr
STACK CFI 62c24 .cfa: sp 32 +
STACK CFI 62c2c .ra: .cfa -4 + ^ r10: .cfa -8 + ^ r4: .cfa -32 + ^ r5: .cfa -28 + ^ r6: .cfa -24 + ^ r7: .cfa -20 + ^ r8: .cfa -16 + ^ r9: .cfa -12 + ^
STACK CFI INIT 62d88 224 .cfa: sp 0 + .ra: lr
STACK CFI 62d8c .cfa: sp 32 +
STACK CFI 62d90 .ra: .cfa -4 + ^ r10: .cfa -8 + ^ r4: .cfa -32 + ^ r5: .cfa -28 + ^ r6: .cfa -24 + ^ r7: .cfa -20 + ^ r8: .cfa -16 + ^ r9: .cfa -12 + ^
STACK CFI 62d98 .cfa: sp 56 +
STACK CFI INIT 62fac 88 .cfa: sp 0 + .ra: lr
STACK CFI 62fb4 .cfa: sp 12 +
STACK CFI 62fbc .ra: .cfa -4 + ^ r4: .cfa -12 + ^ r5: .cfa -8 + ^
STACK CFI 62fc4 .cfa: sp 24 +
STACK CFI INIT 63034 c0 .cfa: sp 0 + .ra: lr
STACK CFI 6303c .cfa: sp 12 +
STACK CFI 63044 .cfa: sp 32 +
STACK CFI 63048 .ra: .cfa -4 + ^ r4: .cfa -12 + ^ r5: .cfa -8 + ^
STACK CFI INIT 630f4 c0 .cfa: sp 0 + .ra: lr
STACK CFI 630fc .cfa: sp 12 +
STACK CFI 63104 .cfa: sp 32 +
STACK CFI 63108 .ra: .cfa -4 + ^ r4: .cfa -12 + ^ r5: .cfa -8 + ^
STACK CFI INIT 631b4 88 .cfa: sp 0 + .ra: lr
STACK CFI 631bc .cfa: sp 12 +
STACK CFI 631c4 .ra: .cfa -4 + ^ r4: .cfa -12 + ^ r5: .cfa -8 + ^
STACK CFI 631cc .cfa: sp 24 +
STACK CFI INIT 61fdc 64 .cfa: sp 0 + .ra: lr
STACK CFI 61fe0 .cfa: sp 12 +
STACK CFI 61fe4 .ra: .cfa -4 + ^ r4: .cfa -12 + ^ r5: .cfa -8 + ^
STACK CFI 61ff8 .cfa: sp 24 +
STACK CFI INIT 62040 210 .cfa: sp 0 + .ra: lr
STACK CFI 62044 .cfa: sp 40 +
STACK CFI 62048 .ra: .cfa -4 + ^ r10: .cfa -12 + ^ r11: .cfa -8 + ^ r3: .cfa -40 + ^ r4: .cfa -36 + ^ r5: .cfa -32 + ^ r6: .cfa -28 + ^ r7: .cfa -24 + ^ r8: .cfa -20 + ^ r9: .cfa -16 + ^
STACK CFI INIT 6323c 28 .cfa: sp 0 + .ra: lr
STACK CFI 63244 .cfa: sp 8 +
STACK CFI 63250 .ra: .cfa -4 + ^ r4: .cfa -8 + ^
STACK CFI INIT 62250 bc .cfa: sp 0 + .ra: lr
STACK CFI 62258 .cfa: sp 8 +
STACK CFI 6225c .ra: .cfa -4 + ^ r4: .cfa -8 + ^
STACK CFI 62260 .cfa: sp 16 +
STACK CFI INIT 63264 1a4 .cfa: sp 0 + .ra: lr
STACK CFI 6326c .cfa: sp 28 +
STACK CFI 63274 .ra: .cfa -4 + ^ r10: .cfa -8 + ^ r4: .cfa -28 + ^ r5: .cfa -24 + ^ r6: .cfa -20 + ^ r7: .cfa -16 + ^ r8: .cfa -12 + ^
STACK CFI 63278 .cfa: sp 40 +
STACK CFI INIT 63408 98 .cfa: sp 0 + .ra: lr
STACK CFI 63410 .cfa: sp 12 +
STACK CFI 63414 .ra: .cfa -4 + ^ r4: .cfa -12 + ^ r5: .cfa -8 + ^
STACK CFI 63418 .cfa: sp 24 +
STACK CFI INIT 634a0 9c .cfa: sp 0 + .ra: lr
STACK CFI 634a4 .cfa: sp 16 +
STACK CFI 634a8 .ra: .cfa -4 + ^ r3: .cfa -16 + ^ r4: .cfa -12 + ^ r5: .cfa -8 + ^
STACK CFI INIT 6353c 90 .cfa: sp 0 + .ra: lr
STACK CFI 63540 .cfa: sp 16 +
STACK CFI 63544 .ra: .cfa -4 + ^ r3: .cfa -16 + ^ r4: .cfa -12 + ^ r5: .cfa -8 + ^
STACK CFI INIT 635cc 128 .cfa: sp 0 + .ra: lr
STACK CFI 635d8 .cfa: sp 24 +
STACK CFI 635e0 .ra: .cfa -4 + ^ r4: .cfa -24 + ^ r5: .cfa -20 + ^ r6: .cfa -16 + ^ r7: .cfa -12 + ^ r8: .cfa -8 + ^
STACK CFI INIT 636f4 4 .cfa: sp 0 + .ra: lr
STACK CFI INIT 636f8 4 .cfa: sp 0 + .ra: lr
STACK CFI INIT 636fc 33c .cfa: sp 0 + .ra: lr
STACK CFI 63704 .cfa: sp 36 +
STACK CFI 63708 .ra: .cfa -4 + ^ r10: .cfa -12 + ^ r11: .cfa -8 + ^ r4: .cfa -36 + ^ r5: .cfa -32 + ^ r6: .cfa -28 + ^ r7: .cfa -24 + ^ r8: .cfa -20 + ^ r9: .cfa -16 + ^
STACK CFI 63710 .cfa: sp 48 +
STACK CFI INIT 63a38 b0 .cfa: sp 0 + .ra: lr
STACK CFI 63a3c .cfa: sp 32 +
STACK CFI 63a40 .ra: .cfa -4 + ^ r10: .cfa -8 + ^ r3: .cfa -32 + ^ r4: .cfa -28 + ^ r5: .cfa -24 + ^ r6: .cfa -20 + ^ r7: .cfa -16 + ^ r8: .cfa -12 + ^
STACK CFI INIT 63ae8 4 .cfa: sp 0 + .ra: lr
STACK CFI INIT 63aec 4 .cfa: sp 0 + .ra: lr
STACK CFI INIT 647ec 150 .cfa: sp 0 + .ra: lr
STACK CFI 647f0 .cfa: sp 28 +
STACK CFI 647f4 .ra: .cfa -4 + ^ r10: .cfa -8 + ^ r4: .cfa -28 + ^ r5: .cfa -24 + ^ r6: .cfa -20 + ^ r7: .cfa -16 + ^ r8: .cfa -12 + ^
STACK CFI 64800 .cfa: sp 40 +
STACK CFI INIT 6493c c4 .cfa: sp 0 + .ra: lr
STACK CFI 64940 .cfa: sp 24 +
STACK CFI 64944 .ra: .cfa -4 + ^ r3: .cfa -24 + ^ r4: .cfa -20 + ^ r5: .cfa -16 + ^ r6: .cfa -12 + ^ r7: .cfa -8 + ^
STACK CFI INIT 64a00 160 .cfa: sp 0 + .ra: lr
STACK CFI 64a04 .cfa: sp 36 +
STACK CFI 64a08 .ra: .cfa -4 + ^ r10: .cfa -12 + ^ r11: .cfa -8 + ^ r4: .cfa -36 + ^ r5: .cfa -32 + ^ r6: .cfa -28 + ^ r7: .cfa -24 + ^ r8: .cfa -20 + ^ r9: .cfa -16 + ^
STACK CFI 64a0c .cfa: sp 56 +
STACK CFI INIT 64b60 18 .cfa: sp 0 + .ra: lr
STACK CFI 64b64 .cfa: sp 8 +
STACK CFI 64b6c .ra: .cfa -4 + ^ r4: .cfa -8 + ^
STACK CFI INIT 64b78 194 .cfa: sp 0 + .ra: lr
STACK CFI 64b7c .cfa: sp 40 +
STACK CFI 64b80 .ra: .cfa -4 + ^ r10: .cfa -12 + ^ r11: .cfa -8 + ^ r3: .cfa -40 + ^ r4: .cfa -36 + ^ r5: .cfa -32 + ^ r6: .cfa -28 + ^ r7: .cfa -24 + ^ r8: .cfa -20 + ^ r9: .cfa -16 + ^
STACK CFI INIT 64d0c 3a0 .cfa: sp 0 + .ra: lr
STACK CFI 64d10 .cfa: sp 32 +
STACK CFI 64d14 .ra: .cfa -4 + ^ r10: .cfa -8 + ^ r4: .cfa -32 + ^ r5: .cfa -28 + ^ r6: .cfa -24 + ^ r7: .cfa -20 + ^ r8: .cfa -16 + ^ r9: .cfa -12 + ^
STACK CFI 64d18 .cfa: sp 72 +
STACK CFI INIT 63af0 88 .cfa: sp 0 + .ra: lr
STACK CFI 63af4 .cfa: sp 16 +
STACK CFI 63af8 .ra: .cfa -4 + ^ r4: .cfa -16 + ^ r5: .cfa -12 + ^ r6: .cfa -8 + ^
STACK CFI INIT 650ac 114 .cfa: sp 0 + .ra: lr
STACK CFI 650b0 .cfa: sp 24 +
STACK CFI 650b4 .ra: .cfa -4 + ^ r3: .cfa -24 + ^ r4: .cfa -20 + ^ r5: .cfa -16 + ^ r6: .cfa -12 + ^ r7: .cfa -8 + ^
STACK CFI INIT 63b78 4c8 .cfa: sp 0 + .ra: lr
STACK CFI 63b7c .cfa: sp 28 +
STACK CFI 63b80 .ra: .cfa -4 + ^ r10: .cfa -8 + ^ r4: .cfa -28 + ^ r5: .cfa -24 + ^ r6: .cfa -20 + ^ r7: .cfa -16 + ^ r8: .cfa -12 + ^
STACK CFI 63b90 .cfa: sp 64 +
STACK CFI INIT 64040 4 .cfa: sp 0 + .ra: lr
STACK CFI INIT 64044 298 .cfa: sp 0 + .ra: lr
STACK CFI 64048 .cfa: sp 36 +
STACK CFI 6404c .ra: .cfa -4 + ^ r10: .cfa -12 + ^ r11: .cfa -8 + ^ r4: .cfa -36 + ^ r5: .cfa -32 + ^ r6: .cfa -28 + ^ r7: .cfa -24 + ^ r8: .cfa -20 + ^ r9: .cfa -16 + ^
STACK CFI 6405c .cfa: sp 56 +
STACK CFI INIT 642dc 64 .cfa: sp 0 + .ra: lr
STACK CFI 642e0 .cfa: sp 16 +
STACK CFI 642e4 .ra: .cfa -4 + ^ r3: .cfa -16 + ^ r4: .cfa -12 + ^ r5: .cfa -8 + ^
STACK CFI INIT 651c0 178 .cfa: sp 0 + .ra: lr
STACK CFI 651c4 .cfa: sp 40 +
STACK CFI 651c8 .ra: .cfa -4 + ^ r10: .cfa -12 + ^ r11: .cfa -8 + ^ r3: .cfa -40 + ^ r4: .cfa -36 + ^ r5: .cfa -32 + ^ r6: .cfa -28 + ^ r7: .cfa -24 + ^ r8: .cfa -20 + ^ r9: .cfa -16 + ^
STACK CFI INIT 64340 3c0 .cfa: sp 0 + .ra: lr
STACK CFI 64344 .cfa: sp 40 +
STACK CFI 64348 .ra: .cfa -4 + ^ r10: .cfa -12 + ^ r11: .cfa -8 + ^ r3: .cfa -40 + ^ r4: .cfa -36 + ^ r5: .cfa -32 + ^ r6: .cfa -28 + ^ r7: .cfa -24 + ^ r8: .cfa -20 + ^ r9: .cfa -16 + ^
STACK CFI INIT 64700 4 .cfa: sp 0 + .ra: lr
STACK CFI INIT 64704 e8 .cfa: sp 0 + .ra: lr
STACK CFI 64714 .cfa: sp 16 +
STACK CFI 64718 .ra: .cfa -4 + ^ r4: .cfa -16 + ^ r5: .cfa -12 + ^ r6: .cfa -8 + ^
STACK CFI INIT 65338 128 .cfa: sp 0 + .ra: lr
STACK CFI 65344 .cfa: sp 24 +
STACK CFI 6534c .ra: .cfa -4 + ^ r4: .cfa -24 + ^ r5: .cfa -20 + ^ r6: .cfa -16 + ^ r7: .cfa -12 + ^ r8: .cfa -8 + ^
STACK CFI INIT 65460 48 .cfa: sp 0 + .ra: lr
STACK CFI 65464 .cfa: sp 8 +
STACK CFI 65468 .ra: .cfa -4 + ^ r4: .cfa -8 + ^
STACK CFI INIT 654a8 20 .cfa: sp 0 + .ra: lr
STACK CFI 654ac .cfa: sp 8 +
STACK CFI 654b0 .ra: .cfa -4 + ^ r4: .cfa -8 + ^
STACK CFI INIT 6629c 160 .cfa: sp 0 + .ra: lr
STACK CFI 662a0 .cfa: sp 36 +
STACK CFI 662a4 .ra: .cfa -4 + ^ r10: .cfa -12 + ^ r11: .cfa -8 + ^ r4: .cfa -36 + ^ r5: .cfa -32 + ^ r6: .cfa -28 + ^ r7: .cfa -24 + ^ r8: .cfa -20 + ^ r9: .cfa -16 + ^
STACK CFI 662a8 .cfa: sp 56 +
STACK CFI INIT 663fc 160 .cfa: sp 0 + .ra: lr
STACK CFI 66400 .cfa: sp 36 +
STACK CFI 66404 .ra: .cfa -4 + ^ r10: .cfa -12 + ^ r11: .cfa -8 + ^ r4: .cfa -36 + ^ r5: .cfa -32 + ^ r6: .cfa -28 + ^ r7: .cfa -24 + ^ r8: .cfa -20 + ^ r9: .cfa -16 + ^
STACK CFI 66408 .cfa: sp 56 +
STACK CFI INIT 6655c 150 .cfa: sp 0 + .ra: lr
STACK CFI 66560 .cfa: sp 28 +
STACK CFI 66564 .ra: .cfa -4 + ^ r10: .cfa -8 + ^ r4: .cfa -28 + ^ r5: .cfa -24 + ^ r6: .cfa -20 + ^ r7: .cfa -16 + ^ r8: .cfa -12 + ^
STACK CFI 66570 .cfa: sp 40 +
STACK CFI INIT 6493c c4 .cfa: sp 0 + .ra: lr
STACK CFI 64940 .cfa: sp 24 +
STACK CFI 64944 .ra: .cfa -4 + ^ r3: .cfa -24 + ^ r4: .cfa -20 + ^ r5: .cfa -16 + ^ r6: .cfa -12 + ^ r7: .cfa -8 + ^
STACK CFI INIT 64b78 194 .cfa: sp 0 + .ra: lr
STACK CFI 64b7c .cfa: sp 40 +
STACK CFI 64b80 .ra: .cfa -4 + ^ r10: .cfa -12 + ^ r11: .cfa -8 + ^ r3: .cfa -40 + ^ r4: .cfa -36 + ^ r5: .cfa -32 + ^ r6: .cfa -28 + ^ r7: .cfa -24 + ^ r8: .cfa -20 + ^ r9: .cfa -16 + ^
STACK CFI INIT 64d0c 3a0 .cfa: sp 0 + .ra: lr
STACK CFI 64d10 .cfa: sp 32 +
STACK CFI 64d14 .ra: .cfa -4 + ^ r10: .cfa -8 + ^ r4: .cfa -32 + ^ r5: .cfa -28 + ^ r6: .cfa -24 + ^ r7: .cfa -20 + ^ r8: .cfa -16 + ^ r9: .cfa -12 + ^
STACK CFI 64d18 .cfa: sp 72 +
STACK CFI INIT 666ac 1a0 .cfa: sp 0 + .ra: lr
STACK CFI 666b0 .cfa: sp 40 +
STACK CFI 666b4 .ra: .cfa -4 + ^ r10: .cfa -12 + ^ r11: .cfa -8 + ^ r3: .cfa -40 + ^ r4: .cfa -36 + ^ r5: .cfa -32 + ^ r6: .cfa -28 + ^ r7: .cfa -24 + ^ r8: .cfa -20 + ^ r9: .cfa -16 + ^
STACK CFI INIT 6684c 25c .cfa: sp 0 + .ra: lr
STACK CFI 66850 .cfa: sp 36 +
STACK CFI 66854 .ra: .cfa -4 + ^ r10: .cfa -12 + ^ r11: .cfa -8 + ^ r4: .cfa -36 + ^ r5: .cfa -32 + ^ r6: .cfa -28 + ^ r7: .cfa -24 + ^ r8: .cfa -20 + ^ r9: .cfa -16 + ^
STACK CFI 6685c .cfa: sp 64 +
STACK CFI INIT 654c8 1f0 .cfa: sp 0 + .ra: lr
STACK CFI 654d0 .cfa: sp 32 +
STACK CFI 654d8 .ra: .cfa -4 + ^ r10: .cfa -8 + ^ r4: .cfa -32 + ^ r5: .cfa -28 + ^ r6: .cfa -24 + ^ r7: .cfa -20 + ^ r8: .cfa -16 + ^ r9: .cfa -12 + ^
STACK CFI 654dc .cfa: sp 64 +
STACK CFI INIT 656b8 274 .cfa: sp 0 + .ra: lr
STACK CFI 656c4 .cfa: sp 36 +
STACK CFI 656c8 .ra: .cfa -4 + ^ r10: .cfa -12 + ^ r11: .cfa -8 + ^ r4: .cfa -36 + ^ r5: .cfa -32 + ^ r6: .cfa -28 + ^ r7: .cfa -24 + ^ r8: .cfa -20 + ^ r9: .cfa -16 + ^
STACK CFI 656cc .cfa: sp 48 +
STACK CFI INIT 6592c 228 .cfa: sp 0 + .ra: lr
STACK CFI 65934 .cfa: sp 36 +
STACK CFI 6593c .cfa: sp 40 +
STACK CFI 65940 .ra: .cfa -4 + ^ r10: .cfa -12 + ^ r11: .cfa -8 + ^ r4: .cfa -36 + ^ r5: .cfa -32 + ^ r6: .cfa -28 + ^ r7: .cfa -24 + ^ r8: .cfa -20 + ^ r9: .cfa -16 + ^
STACK CFI INIT 650ac 114 .cfa: sp 0 + .ra: lr
STACK CFI 650b0 .cfa: sp 24 +
STACK CFI 650b4 .ra: .cfa -4 + ^ r3: .cfa -24 + ^ r4: .cfa -20 + ^ r5: .cfa -16 + ^ r6: .cfa -12 + ^ r7: .cfa -8 + ^
STACK CFI INIT 65b54 494 .cfa: sp 0 + .ra: lr
STACK CFI 65b58 .cfa: sp 36 +
STACK CFI 65b5c .ra: .cfa -4 + ^ r10: .cfa -12 + ^ r11: .cfa -8 + ^ r4: .cfa -36 + ^ r5: .cfa -32 + ^ r6: .cfa -28 + ^ r7: .cfa -24 + ^ r8: .cfa -20 + ^ r9: .cfa -16 + ^
STACK CFI 65b60 .cfa: sp 88 +
STACK CFI INIT 65fe8 2b4 .cfa: sp 0 + .ra: lr
STACK CFI 65fec .cfa: sp 32 +
STACK CFI 65ff4 .ra: .cfa -4 + ^ r10: .cfa -8 + ^ r4: .cfa -32 + ^ r5: .cfa -28 + ^ r6: .cfa -24 + ^ r7: .cfa -20 + ^ r8: .cfa -16 + ^ r9: .cfa -12 + ^
STACK CFI INIT 66aa8 4 .cfa: sp 0 + .ra: lr
STACK CFI INIT 66aac 18 .cfa: sp 0 + .ra: lr
STACK CFI INIT 66ac4 10 .cfa: sp 0 + .ra: lr
STACK CFI INIT 66ad4 8 .cfa: sp 0 + .ra: lr
STACK CFI INIT 66adc 8 .cfa: sp 0 + .ra: lr
STACK CFI INIT 66ae4 b8 .cfa: sp 0 + .ra: lr
STACK CFI 66ae8 .cfa: sp 12 +
STACK CFI 66aec .ra: .cfa -4 + ^ r4: .cfa -12 + ^ r5: .cfa -8 + ^
STACK CFI 66af0 .cfa: sp 24 +
STACK CFI INIT 66b9c 7c .cfa: sp 0 + .ra: lr
STACK CFI 66ba0 .cfa: sp 24 +
STACK CFI 66ba4 .ra: .cfa -4 + ^ r3: .cfa -24 + ^ r4: .cfa -20 + ^ r5: .cfa -16 + ^ r6: .cfa -12 + ^ r7: .cfa -8 + ^
STACK CFI INIT 66c18 230 .cfa: sp 0 + .ra: lr
STACK CFI 66c1c .cfa: sp 36 +
STACK CFI 66c20 .ra: .cfa -4 + ^ r10: .cfa -12 + ^ r11: .cfa -8 + ^ r4: .cfa -36 + ^ r5: .cfa -32 + ^ r6: .cfa -28 + ^ r7: .cfa -24 + ^ r8: .cfa -20 + ^ r9: .cfa -16 + ^
STACK CFI 66c30 .cfa: sp 48 +
STACK CFI INIT 66e48 cc .cfa: sp 0 + .ra: lr
STACK CFI 66e4c .cfa: sp 32 +
STACK CFI 66e50 .ra: .cfa -4 + ^ r10: .cfa -8 + ^ r3: .cfa -32 + ^ r4: .cfa -28 + ^ r5: .cfa -24 + ^ r6: .cfa -20 + ^ r7: .cfa -16 + ^ r8: .cfa -12 + ^
STACK CFI INIT 66f14 48 .cfa: sp 0 + .ra: lr
STACK CFI 66f18 .cfa: sp 24 +
STACK CFI 66f1c .ra: .cfa -4 + ^ r3: .cfa -24 + ^ r4: .cfa -20 + ^ r5: .cfa -16 + ^ r6: .cfa -12 + ^ r7: .cfa -8 + ^
STACK CFI INIT 66f5c 8 .cfa: sp 0 + .ra: lr
STACK CFI INIT 66f64 8 .cfa: sp 0 + .ra: lr
STACK CFI INIT 66f6c 24 .cfa: sp 0 + .ra: lr
STACK CFI 66f70 .cfa: sp 8 +
STACK CFI 66f74 .ra: .cfa -4 + ^ r4: .cfa -8 + ^
STACK CFI INIT 66f90 24 .cfa: sp 0 + .ra: lr
STACK CFI 66f94 .cfa: sp 8 +
STACK CFI 66f98 .ra: .cfa -4 + ^ r4: .cfa -8 + ^
STACK CFI INIT 66fb4 90 .cfa: sp 0 + .ra: lr
STACK CFI 66fb8 .cfa: sp 8 +
STACK CFI 66fc4 .ra: .cfa -4 + ^ r4: .cfa -8 + ^
STACK CFI INIT 67044 a8 .cfa: sp 0 + .ra: lr
STACK CFI 67048 .cfa: sp 16 +
STACK CFI 6704c .ra: .cfa -4 + ^ r3: .cfa -16 + ^ r4: .cfa -12 + ^ r5: .cfa -8 + ^
STACK CFI INIT 670ec 4a0 .cfa: sp 0 + .ra: lr
STACK CFI 670f0 .cfa: sp 36 +
STACK CFI 670f4 .cfa: sp 96 +
STACK CFI 670f8 .ra: .cfa -4 + ^ r10: .cfa -12 + ^ r11: .cfa -8 + ^ r4: .cfa -36 + ^ r5: .cfa -32 + ^ r6: .cfa -28 + ^ r7: .cfa -24 + ^ r8: .cfa -20 + ^ r9: .cfa -16 + ^
STACK CFI INIT 6758c bc .cfa: sp 0 + .ra: lr
STACK CFI 67590 .cfa: sp 16 +
STACK CFI 67594 .ra: .cfa -4 + ^ r4: .cfa -16 + ^ r5: .cfa -12 + ^ r6: .cfa -8 + ^
STACK CFI INIT 67648 1c .cfa: sp 0 + .ra: lr
STACK CFI 6764c .cfa: sp 8 +
STACK CFI 67654 .ra: .cfa -4 + ^ r3: .cfa -8 + ^
STACK CFI INIT 67664 c .cfa: sp 0 + .ra: lr
STACK CFI INIT 67670 20 .cfa: sp 0 + .ra: lr
STACK CFI 67674 .cfa: sp 8 +
STACK CFI 67678 .ra: .cfa -4 + ^ r3: .cfa -8 + ^
STACK CFI INIT 67690 4 .cfa: sp 0 + .ra: lr
STACK CFI INIT 67694 14c .cfa: sp 0 + .ra: lr
STACK CFI 6769c .cfa: sp 8 +
STACK CFI 676ac .ra: .cfa -4 + ^ r4: .cfa -8 + ^
STACK CFI INIT 677e0 58 .cfa: sp 0 + .ra: lr
STACK CFI 677ec .cfa: sp 8 +
STACK CFI 677f4 .cfa: sp 16 +
STACK CFI 677f8 .ra: .cfa -4 + ^ r4: .cfa -8 + ^
STACK CFI INIT 67838 58 .cfa: sp 0 + .ra: lr
STACK CFI 67844 .cfa: sp 8 +
STACK CFI 6784c .cfa: sp 16 +
STACK CFI 67850 .ra: .cfa -4 + ^ r4: .cfa -8 + ^
STACK CFI INIT 67890 58 .cfa: sp 0 + .ra: lr
STACK CFI 6789c .cfa: sp 8 +
STACK CFI 678a4 .cfa: sp 16 +
STACK CFI 678a8 .ra: .cfa -4 + ^ r4: .cfa -8 + ^
STACK CFI INIT 678e8 58 .cfa: sp 0 + .ra: lr
STACK CFI 678f4 .cfa: sp 8 +
STACK CFI 678fc .cfa: sp 16 +
STACK CFI 67900 .ra: .cfa -4 + ^ r4: .cfa -8 + ^
STACK CFI INIT 67940 58 .cfa: sp 0 + .ra: lr
STACK CFI 6794c .cfa: sp 8 +
STACK CFI 67954 .cfa: sp 16 +
STACK CFI 67958 .ra: .cfa -4 + ^ r4: .cfa -8 + ^
STACK CFI INIT 67998 58 .cfa: sp 0 + .ra: lr
STACK CFI 679a4 .cfa: sp 8 +
STACK CFI 679ac .cfa: sp 16 +
STACK CFI 679b0 .ra: .cfa -4 + ^ r4: .cfa -8 + ^
STACK CFI INIT 679f0 58 .cfa: sp 0 + .ra: lr
STACK CFI 679fc .cfa: sp 8 +
STACK CFI 67a04 .cfa: sp 16 +
STACK CFI 67a08 .ra: .cfa -4 + ^ r4: .cfa -8 + ^
STACK CFI INIT 67a48 58 .cfa: sp 0 + .ra: lr
STACK CFI 67a54 .cfa: sp 8 +
STACK CFI 67a5c .cfa: sp 16 +
STACK CFI 67a60 .ra: .cfa -4 + ^ r4: .cfa -8 + ^
STACK CFI INIT 67aa0 58 .cfa: sp 0 + .ra: lr
STACK CFI 67aac .cfa: sp 8 +
STACK CFI 67ab4 .cfa: sp 16 +
STACK CFI 67ab8 .ra: .cfa -4 + ^ r4: .cfa -8 + ^
STACK CFI INIT 67af8 58 .cfa: sp 0 + .ra: lr
STACK CFI 67b04 .cfa: sp 8 +
STACK CFI 67b0c .cfa: sp 16 +
STACK CFI 67b10 .ra: .cfa -4 + ^ r4: .cfa -8 + ^
STACK CFI INIT 67b50 34 .cfa: sp 0 + .ra: lr
STACK CFI INIT 67b84 34 .cfa: sp 0 + .ra: lr
STACK CFI INIT 67bb8 34 .cfa: sp 0 + .ra: lr
STACK CFI INIT 67bec 34 .cfa: sp 0 + .ra: lr
STACK CFI INIT 67c20 4b4 .cfa: sp 0 + .ra: lr
STACK CFI 67c2c .cfa: sp 32 +
STACK CFI 67c34 .cfa: sp 96 +
STACK CFI 67c38 .ra: .cfa -4 + ^ r10: .cfa -8 + ^ r4: .cfa -32 + ^ r5: .cfa -28 + ^ r6: .cfa -24 + ^ r7: .cfa -20 + ^ r8: .cfa -16 + ^ r9: .cfa -12 + ^
STACK CFI INIT 680d4 1a4 .cfa: sp 0 + .ra: lr
STACK CFI 680e0 .cfa: sp 36 +
STACK CFI 680e4 .cfa: sp 72 +
STACK CFI 680f0 .ra: .cfa -4 + ^ r10: .cfa -12 + ^ r11: .cfa -8 + ^ r4: .cfa -36 + ^ r5: .cfa -32 + ^ r6: .cfa -28 + ^ r7: .cfa -24 + ^ r8: .cfa -20 + ^ r9: .cfa -16 + ^
STACK CFI INIT 68278 a4 .cfa: sp 0 + .ra: lr
STACK CFI 68280 .cfa: sp 20 +
STACK CFI 68284 .ra: .cfa -4 + ^ r4: .cfa -20 + ^ r5: .cfa -16 + ^ r6: .cfa -12 + ^ r7: .cfa -8 + ^
STACK CFI 68294 .cfa: sp 32 +
STACK CFI INIT 6831c 2c .cfa: sp 0 + .ra: lr
STACK CFI 68324 .cfa: sp 8 +
STACK CFI 6832c .ra: .cfa -4 + ^ r4: .cfa -8 + ^
STACK CFI INIT 68348 14 .cfa: sp 0 + .ra: lr
STACK CFI INIT 6835c e4 .cfa: sp 0 + .ra: lr
STACK CFI 68364 .cfa: sp 20 +
STACK CFI 68368 .ra: .cfa -4 + ^ r4: .cfa -20 + ^ r5: .cfa -16 + ^ r6: .cfa -12 + ^ r7: .cfa -8 + ^
STACK CFI 68374 .cfa: sp 40 +
STACK CFI INIT 68440 5f4 .cfa: sp 0 + .ra: lr
STACK CFI 68444 .cfa: sp 36 +
STACK CFI 68448 .ra: .cfa -4 + ^ r10: .cfa -12 + ^ r11: .cfa -8 + ^ r4: .cfa -36 + ^ r5: .cfa -32 + ^ r6: .cfa -28 + ^ r7: .cfa -24 + ^ r8: .cfa -20 + ^ r9: .cfa -16 + ^
STACK CFI 6844c .cfa: sp 56 +
STACK CFI INIT 68a34 3c0 .cfa: sp 0 + .ra: lr
STACK CFI 68a38 .cfa: sp 32 +
STACK CFI 68a3c .ra: .cfa -4 + ^ r10: .cfa -8 + ^ r3: .cfa -32 + ^ r4: .cfa -28 + ^ r5: .cfa -24 + ^ r6: .cfa -20 + ^ r7: .cfa -16 + ^ r8: .cfa -12 + ^
STACK CFI INIT 68df4 9c .cfa: sp 0 + .ra: lr
STACK CFI 68e04 .cfa: sp 8 +
STACK CFI 68e08 .ra: .cfa -4 + ^ r4: .cfa -8 + ^
STACK CFI INIT 68e90 44 .cfa: sp 0 + .ra: lr
STACK CFI 68e94 .cfa: sp 16 +
STACK CFI 68e98 .ra: .cfa -4 + ^ r4: .cfa -16 + ^ r5: .cfa -12 + ^ r6: .cfa -8 + ^
STACK CFI INIT 68ed4 7dc .cfa: sp 0 + .ra: lr
STACK CFI 68ed8 .cfa: sp 36 +
STACK CFI 68edc .ra: .cfa -4 + ^ r10: .cfa -12 + ^ r11: .cfa -8 + ^ r4: .cfa -36 + ^ r5: .cfa -32 + ^ r6: .cfa -28 + ^ r7: .cfa -24 + ^ r8: .cfa -20 + ^ r9: .cfa -16 + ^
STACK CFI 68ee0 .cfa: sp 64 +
STACK CFI INIT 696b0 8 .cfa: sp 0 + .ra: lr
STACK CFI INIT 696b8 34 .cfa: sp 0 + .ra: lr
STACK CFI INIT 696ec 3c .cfa: sp 0 + .ra: lr
STACK CFI INIT 69728 3c .cfa: sp 0 + .ra: lr
STACK CFI INIT 69764 118 .cfa: sp 0 + .ra: lr
STACK CFI 69768 .cfa: sp 32 +
STACK CFI 6976c .ra: .cfa -4 + ^ r10: .cfa -8 + ^ r3: .cfa -32 + ^ r4: .cfa -28 + ^ r5: .cfa -24 + ^ r6: .cfa -20 + ^ r7: .cfa -16 + ^ r8: .cfa -12 + ^
STACK CFI INIT 6987c 114 .cfa: sp 0 + .ra: lr
STACK CFI 69880 .cfa: sp 32 +
STACK CFI 69884 .ra: .cfa -4 + ^ r10: .cfa -8 + ^ r3: .cfa -32 + ^ r4: .cfa -28 + ^ r5: .cfa -24 + ^ r6: .cfa -20 + ^ r7: .cfa -16 + ^ r8: .cfa -12 + ^
STACK CFI INIT 69990 88 .cfa: sp 0 + .ra: lr
STACK CFI 69994 .cfa: sp 24 +
STACK CFI 69998 .ra: .cfa -4 + ^ r3: .cfa -24 + ^ r4: .cfa -20 + ^ r5: .cfa -16 + ^ r6: .cfa -12 + ^ r7: .cfa -8 + ^
STACK CFI INIT 69a18 68 .cfa: sp 0 + .ra: lr
STACK CFI INIT 69a80 34 .cfa: sp 0 + .ra: lr
STACK CFI INIT 69ab4 cc .cfa: sp 0 + .ra: lr
STACK CFI 69ab8 .cfa: sp 32 +
STACK CFI 69abc .ra: .cfa -4 + ^ r10: .cfa -8 + ^ r3: .cfa -32 + ^ r4: .cfa -28 + ^ r5: .cfa -24 + ^ r6: .cfa -20 + ^ r7: .cfa -16 + ^ r8: .cfa -12 + ^
STACK CFI INIT 69b80 68 .cfa: sp 0 + .ra: lr
STACK CFI 69b84 .cfa: sp 16 +
STACK CFI 69b88 .ra: .cfa -4 + ^ r4: .cfa -16 + ^ r5: .cfa -12 + ^ r6: .cfa -8 + ^
STACK CFI INIT 69be8 148 .cfa: sp 0 + .ra: lr
STACK CFI 69bec .cfa: sp 24 +
STACK CFI 69bf0 .ra: .cfa -4 + ^ r4: .cfa -24 + ^ r5: .cfa -20 + ^ r6: .cfa -16 + ^ r7: .cfa -12 + ^ r8: .cfa -8 + ^
STACK CFI 69bf4 .cfa: sp 48 +
STACK CFI INIT 69d30 344 .cfa: sp 0 + .ra: lr
STACK CFI 69d34 .cfa: sp 24 +
STACK CFI 69d3c .cfa: sp 40 +
STACK CFI 69d40 .ra: .cfa -4 + ^ r4: .cfa -24 + ^ r5: .cfa -20 + ^ r6: .cfa -16 + ^ r7: .cfa -12 + ^ r8: .cfa -8 + ^
STACK CFI INIT 6a074 3c .cfa: sp 0 + .ra: lr
STACK CFI 6a084 .cfa: sp 8 +
STACK CFI 6a08c .ra: .cfa -4 + ^ r4: .cfa -8 + ^
STACK CFI INIT 6a0b0 38 .cfa: sp 0 + .ra: lr
STACK CFI 6a0b4 .cfa: sp 8 +
STACK CFI 6a0b8 .ra: .cfa -4 + ^ r4: .cfa -8 + ^
STACK CFI INIT 6a0e8 a4 .cfa: sp 0 + .ra: lr
STACK CFI 6a0ec .cfa: sp 16 +
STACK CFI 6a0f0 .ra: .cfa -4 + ^ r3: .cfa -16 + ^ r4: .cfa -12 + ^ r5: .cfa -8 + ^
STACK CFI INIT 6a18c fc .cfa: sp 0 + .ra: lr
STACK CFI 6a190 .cfa: sp 16 +
STACK CFI 6a194 .ra: .cfa -4 + ^ r4: .cfa -16 + ^ r5: .cfa -12 + ^ r6: .cfa -8 + ^
STACK CFI INIT 6a288 d4 .cfa: sp 0 + .ra: lr
STACK CFI 6a28c .cfa: sp 8 + .ra: .cfa -4 + ^ r4: .cfa -8 + ^
STACK CFI INIT 6a35c 108 .cfa: sp 0 + .ra: lr
STACK CFI 6a360 .cfa: sp 16 + .ra: .cfa -4 + ^ r3: .cfa -16 + ^ r4: .cfa -12 + ^ r5: .cfa -8 + ^
STACK CFI INIT 6a464 50 .cfa: sp 0 + .ra: lr
STACK CFI 6a470 .cfa: sp 16 +
STACK CFI 6a478 .ra: .cfa -4 + ^ r4: .cfa -16 + ^ r5: .cfa -12 + ^ r6: .cfa -8 + ^
STACK CFI INIT 6a4b4 50 .cfa: sp 0 + .ra: lr
STACK CFI 6a4c0 .cfa: sp 16 +
STACK CFI 6a4c8 .ra: .cfa -4 + ^ r4: .cfa -16 + ^ r5: .cfa -12 + ^ r6: .cfa -8 + ^
STACK CFI INIT 6a504 50 .cfa: sp 0 + .ra: lr
STACK CFI 6a510 .cfa: sp 16 +
STACK CFI 6a518 .ra: .cfa -4 + ^ r4: .cfa -16 + ^ r5: .cfa -12 + ^ r6: .cfa -8 + ^
STACK CFI INIT 6a554 50 .cfa: sp 0 + .ra: lr
STACK CFI 6a560 .cfa: sp 16 +
STACK CFI 6a568 .ra: .cfa -4 + ^ r4: .cfa -16 + ^ r5: .cfa -12 + ^ r6: .cfa -8 + ^
STACK CFI INIT 6a5a4 50 .cfa: sp 0 + .ra: lr
STACK CFI 6a5b0 .cfa: sp 16 +
STACK CFI 6a5b8 .ra: .cfa -4 + ^ r4: .cfa -16 + ^ r5: .cfa -12 + ^ r6: .cfa -8 + ^
STACK CFI INIT 6a5f4 50 .cfa: sp 0 + .ra: lr
STACK CFI 6a600 .cfa: sp 16 +
STACK CFI 6a608 .ra: .cfa -4 + ^ r4: .cfa -16 + ^ r5: .cfa -12 + ^ r6: .cfa -8 + ^
STACK CFI INIT 6a644 50 .cfa: sp 0 + .ra: lr
STACK CFI 6a650 .cfa: sp 16 +
STACK CFI 6a658 .ra: .cfa -4 + ^ r4: .cfa -16 + ^ r5: .cfa -12 + ^ r6: .cfa -8 + ^
STACK CFI INIT 6a694 50 .cfa: sp 0 + .ra: lr
STACK CFI 6a6a0 .cfa: sp 16 +
STACK CFI 6a6a8 .ra: .cfa -4 + ^ r4: .cfa -16 + ^ r5: .cfa -12 + ^ r6: .cfa -8 + ^
STACK CFI INIT 6a6e4 50 .cfa: sp 0 + .ra: lr
STACK CFI 6a6f0 .cfa: sp 16 +
STACK CFI 6a6f8 .ra: .cfa -4 + ^ r4: .cfa -16 + ^ r5: .cfa -12 + ^ r6: .cfa -8 + ^
STACK CFI INIT 6a734 270 .cfa: sp 0 + .ra: lr
STACK CFI 6a738 .cfa: sp 28 +
STACK CFI 6a73c .cfa: sp 560 +
STACK CFI 6a740 .ra: .cfa -4 + ^ r10: .cfa -8 + ^ r4: .cfa -28 + ^ r5: .cfa -24 + ^ r6: .cfa -20 + ^ r7: .cfa -16 + ^ r8: .cfa -12 + ^
STACK CFI INIT 6a9a4 d4 .cfa: sp 0 + .ra: lr
STACK CFI 6a9b4 .cfa: sp 32 +
STACK CFI 6a9b8 .ra: .cfa -4 + ^ r10: .cfa -8 + ^ r4: .cfa -32 + ^ r5: .cfa -28 + ^ r6: .cfa -24 + ^ r7: .cfa -20 + ^ r8: .cfa -16 + ^ r9: .cfa -12 + ^
STACK CFI INIT 6aa78 8 .cfa: sp 0 + .ra: lr
STACK CFI INIT 6aa80 38 .cfa: sp 0 + .ra: lr
STACK CFI 6aa84 .cfa: sp 8 +
STACK CFI 6aa88 .ra: .cfa -4 + ^ r3: .cfa -8 + ^
STACK CFI INIT 6aab8 80 .cfa: sp 0 + .ra: lr
STACK CFI 6aabc .cfa: sp 16 +
STACK CFI 6aac0 .ra: .cfa -4 + ^ r3: .cfa -16 + ^ r4: .cfa -12 + ^ r5: .cfa -8 + ^
STACK CFI INIT 6ab38 78 .cfa: sp 0 + .ra: lr
STACK CFI 6ab3c .cfa: sp 8 +
STACK CFI 6ab40 .ra: .cfa -4 + ^ r4: .cfa -8 + ^
STACK CFI INIT 6abb0 78 .cfa: sp 0 + .ra: lr
STACK CFI 6abb4 .cfa: sp 8 +
STACK CFI 6abb8 .ra: .cfa -4 + ^ r4: .cfa -8 + ^
STACK CFI INIT 6ac28 80 .cfa: sp 0 + .ra: lr
STACK CFI 6ac2c .cfa: sp 16 +
STACK CFI 6ac30 .ra: .cfa -4 + ^ r3: .cfa -16 + ^ r4: .cfa -12 + ^ r5: .cfa -8 + ^
STACK CFI INIT 6aca8 94 .cfa: sp 0 + .ra: lr
STACK CFI 6acac .cfa: sp 24 +
STACK CFI 6acb0 .cfa: sp 40 +
STACK CFI 6acb4 .ra: .cfa -4 + ^ r4: .cfa -24 + ^ r5: .cfa -20 + ^ r6: .cfa -16 + ^ r8: .cfa -12 + ^ r9: .cfa -8 + ^
STACK CFI INIT 6ad3c 38 .cfa: sp 0 + .ra: lr
STACK CFI 6ad40 .cfa: sp 8 +
STACK CFI 6ad44 .ra: .cfa -4 + ^ r3: .cfa -8 + ^
STACK CFI INIT 6ad74 104 .cfa: sp 0 + .ra: lr
STACK CFI 6ad7c .cfa: sp 24 +
STACK CFI 6ad80 .ra: .cfa -4 + ^ r4: .cfa -24 + ^ r5: .cfa -20 + ^ r6: .cfa -16 + ^ r7: .cfa -12 + ^ r8: .cfa -8 + ^
STACK CFI INIT 6ae78 90 .cfa: sp 0 + .ra: lr
STACK CFI 6ae7c .cfa: sp 16 +
STACK CFI 6ae80 .ra: .cfa -4 + ^ r3: .cfa -16 + ^ r4: .cfa -12 + ^ r5: .cfa -8 + ^
STACK CFI INIT 6af08 1d4 .cfa: sp 0 + .ra: lr
STACK CFI 6af0c .cfa: sp 32 +
STACK CFI 6af10 .cfa: sp 40 +
STACK CFI 6af14 .ra: .cfa -4 + ^ r10: .cfa -8 + ^ r4: .cfa -32 + ^ r5: .cfa -28 + ^ r6: .cfa -24 + ^ r7: .cfa -20 + ^ r8: .cfa -16 + ^ r9: .cfa -12 + ^
STACK CFI INIT 6b0dc 170 .cfa: sp 0 + .ra: lr
STACK CFI 6b0e0 .cfa: sp 20 +
STACK CFI 6b0e4 .ra: .cfa -4 + ^ r4: .cfa -20 + ^ r5: .cfa -16 + ^ r6: .cfa -12 + ^ r7: .cfa -8 + ^
STACK CFI 6b0f0 .cfa: sp 40 +
STACK CFI INIT 6b24c 100 .cfa: sp 0 + .ra: lr
STACK CFI 6b250 .cfa: sp 20 +
STACK CFI 6b254 .cfa: sp 32 +
STACK CFI 6b258 .ra: .cfa -4 + ^ r4: .cfa -20 + ^ r5: .cfa -16 + ^ r6: .cfa -12 + ^ r7: .cfa -8 + ^
STACK CFI INIT 6b34c a8 .cfa: sp 0 + .ra: lr
STACK CFI 6b350 .cfa: sp 16 +
STACK CFI 6b354 .ra: .cfa -4 + ^ r3: .cfa -16 + ^ r4: .cfa -12 + ^ r5: .cfa -8 + ^
STACK CFI INIT 6b3f4 24 .cfa: sp 0 + .ra: lr
STACK CFI INIT 6b418 60 .cfa: sp 0 + .ra: lr
STACK CFI 6b420 .cfa: sp 8 +
STACK CFI 6b428 r4: .cfa -8 + ^ r5: .cfa -4 + ^
STACK CFI INIT 6b478 20 .cfa: sp 0 + .ra: lr
STACK CFI 6b47c .cfa: sp 8 +
STACK CFI 6b488 .ra: .cfa -4 + ^ r3: .cfa -8 + ^
STACK CFI INIT 6b498 88 .cfa: sp 0 + .ra: lr
STACK CFI 6b4a0 .cfa: sp 12 +
STACK CFI 6b4a4 .ra: .cfa -4 + ^ r4: .cfa -12 + ^ r5: .cfa -8 + ^
STACK CFI 6b4cc .cfa: sp 24 +
STACK CFI INIT 6b520 88 .cfa: sp 0 + .ra: lr
STACK CFI 6b524 .cfa: sp 16 +
STACK CFI 6b528 .ra: .cfa -4 + ^ r4: .cfa -16 + ^ r5: .cfa -12 + ^ r6: .cfa -8 + ^
STACK CFI INIT 6b5a8 3c .cfa: sp 0 + .ra: lr
STACK CFI 6b5b0 .cfa: sp 8 +
STACK CFI 6b5b8 .ra: .cfa -4 + ^ r4: .cfa -8 + ^
STACK CFI INIT 6b5e4 1c .cfa: sp 0 + .ra: lr
STACK CFI 6b5e8 .cfa: sp 8 +
STACK CFI 6b5ec .ra: .cfa -4 + ^ r4: .cfa -8 + ^
STACK CFI INIT 6b600 14 .cfa: sp 0 + .ra: lr
STACK CFI 6b604 .cfa: sp 8 +
STACK CFI 6b608 .ra: .cfa -4 + ^ r3: .cfa -8 + ^
STACK CFI INIT 6b614 14 .cfa: sp 0 + .ra: lr
STACK CFI 6b618 .cfa: sp 8 +
STACK CFI 6b61c .ra: .cfa -4 + ^ r3: .cfa -8 + ^
STACK CFI INIT 6b628 84 .cfa: sp 0 + .ra: lr
STACK CFI 6b62c .cfa: sp 4 +
STACK CFI 6b640 r4: .cfa -4 + ^
STACK CFI INIT 6b6ac 98 .cfa: sp 0 + .ra: lr
STACK CFI 6b6b0 .cfa: sp 24 +
STACK CFI 6b6b4 .ra: .cfa -4 + ^ r3: .cfa -24 + ^ r4: .cfa -20 + ^ r5: .cfa -16 + ^ r6: .cfa -12 + ^ r7: .cfa -8 + ^
STACK CFI INIT 6b744 294 .cfa: sp 0 + .ra: lr
STACK CFI 6b748 .cfa: sp 16 +
STACK CFI 6b750 .ra: .cfa -4 + ^ r4: .cfa -16 + ^ r5: .cfa -12 + ^ r6: .cfa -8 + ^
STACK CFI 6b774 .cfa: sp 40 +
STACK CFI INIT 6b9d8 90 .cfa: sp 0 + .ra: lr
STACK CFI 6b9dc .cfa: sp 16 +
STACK CFI 6b9e0 .ra: .cfa -4 + ^ r4: .cfa -16 + ^ r5: .cfa -12 + ^ r6: .cfa -8 + ^
STACK CFI INIT 6ba68 a4 .cfa: sp 0 + .ra: lr
STACK CFI 6ba6c .cfa: sp 24 +
STACK CFI 6ba70 .ra: .cfa -4 + ^ r4: .cfa -24 + ^ r5: .cfa -20 + ^ r6: .cfa -16 + ^ r7: .cfa -12 + ^ r8: .cfa -8 + ^
STACK CFI INIT 6bb0c 1c .cfa: sp 0 + .ra: lr
STACK CFI 6bb10 .cfa: sp 8 +
STACK CFI 6bb14 .ra: .cfa -4 + ^ r4: .cfa -8 + ^
STACK CFI INIT 6bb28 dc .cfa: sp 0 + .ra: lr
STACK CFI 6bb2c .cfa: sp 16 +
STACK CFI 6bb30 .ra: .cfa -4 + ^ r3: .cfa -16 + ^ r4: .cfa -12 + ^ r5: .cfa -8 + ^
STACK CFI INIT 6bc04 60 .cfa: sp 0 + .ra: lr
STACK CFI 6bc08 .cfa: sp 16 +
STACK CFI 6bc0c .ra: .cfa -4 + ^ r3: .cfa -16 + ^ r4: .cfa -12 + ^ r5: .cfa -8 + ^
STACK CFI INIT 6bc64 1c .cfa: sp 0 + .ra: lr
STACK CFI 6bc68 .cfa: sp 8 +
STACK CFI 6bc6c .ra: .cfa -4 + ^ r4: .cfa -8 + ^
STACK CFI INIT 6bc80 98 .cfa: sp 0 + .ra: lr
STACK CFI 6bc84 .cfa: sp 20 +
STACK CFI 6bc88 .ra: .cfa -4 + ^ r4: .cfa -20 + ^ r5: .cfa -16 + ^ r6: .cfa -12 + ^ r7: .cfa -8 + ^
STACK CFI 6bc94 .cfa: sp 40 +
STACK CFI INIT 6bd18 14 .cfa: sp 0 + .ra: lr
STACK CFI 6bd1c .cfa: sp 8 +
STACK CFI 6bd20 .ra: .cfa -4 + ^ r3: .cfa -8 + ^
STACK CFI INIT 6bd2c dc .cfa: sp 0 + .ra: lr
STACK CFI 6bd34 .cfa: sp 12 +
STACK CFI 6bd38 .cfa: sp 24 +
STACK CFI 6bd40 .ra: .cfa -4 + ^ r4: .cfa -12 + ^ r5: .cfa -8 + ^
STACK CFI INIT 6be08 120 .cfa: sp 0 + .ra: lr
STACK CFI 6be0c .cfa: sp 24 +
STACK CFI 6be10 .ra: .cfa -4 + ^ r4: .cfa -24 + ^ r5: .cfa -20 + ^ r6: .cfa -16 + ^ r7: .cfa -12 + ^ r8: .cfa -8 + ^
STACK CFI 6be18 .cfa: sp 40 +
STACK CFI INIT 6bf28 1bc .cfa: sp 0 + .ra: lr
STACK CFI 6bf2c .cfa: sp 32 +
STACK CFI 6bf30 .ra: .cfa -4 + ^ r10: .cfa -8 + ^ r4: .cfa -32 + ^ r5: .cfa -28 + ^ r6: .cfa -24 + ^ r7: .cfa -20 + ^ r8: .cfa -16 + ^ r9: .cfa -12 + ^
STACK CFI INIT 6c0e4 70 .cfa: sp 0 + .ra: lr
STACK CFI 6c0e8 .cfa: sp 16 +
STACK CFI 6c0ec .ra: .cfa -4 + ^ r4: .cfa -16 + ^ r5: .cfa -12 + ^ r6: .cfa -8 + ^
STACK CFI INIT 6c154 90 .cfa: sp 0 + .ra: lr
STACK CFI 6c158 .cfa: sp 24 +
STACK CFI 6c15c .ra: .cfa -4 + ^ r4: .cfa -24 + ^ r5: .cfa -20 + ^ r6: .cfa -16 + ^ r7: .cfa -12 + ^ r8: .cfa -8 + ^
STACK CFI INIT 6c1e4 418 .cfa: sp 0 + .ra: lr
STACK CFI 6c1e8 .cfa: sp 36 +
STACK CFI 6c1ec .ra: .cfa -4 + ^ r10: .cfa -12 + ^ r11: .cfa -8 + ^ r4: .cfa -36 + ^ r5: .cfa -32 + ^ r6: .cfa -28 + ^ r7: .cfa -24 + ^ r8: .cfa -20 + ^ r9: .cfa -16 + ^
STACK CFI 6c1f0 .cfa: sp 104 +
STACK CFI INIT 6c5fc 198 .cfa: sp 0 + .ra: lr
STACK CFI 6c600 .cfa: sp 24 +
STACK CFI 6c604 .ra: .cfa -4 + ^ r3: .cfa -24 + ^ r4: .cfa -20 + ^ r5: .cfa -16 + ^ r6: .cfa -12 + ^ r7: .cfa -8 + ^
STACK CFI INIT 6c794 44c .cfa: sp 0 + .ra: lr
STACK CFI 6c798 .cfa: sp 36 +
STACK CFI 6c7a0 .cfa: sp 56 +
STACK CFI 6c7a4 .ra: .cfa -4 + ^ r10: .cfa -12 + ^ r11: .cfa -8 + ^ r4: .cfa -36 + ^ r5: .cfa -32 + ^ r6: .cfa -28 + ^ r7: .cfa -24 + ^ r8: .cfa -20 + ^ r9: .cfa -16 + ^
STACK CFI INIT 6cbe0 74 .cfa: sp 0 + .ra: lr
STACK CFI 6cbe4 .cfa: sp 16 +
STACK CFI 6cbe8 .ra: .cfa -4 + ^ r3: .cfa -16 + ^ r4: .cfa -12 + ^ r5: .cfa -8 + ^
STACK CFI INIT 6cc54 5c .cfa: sp 0 + .ra: lr
STACK CFI 6cc58 .cfa: sp 16 +
STACK CFI 6cc5c .ra: .cfa -4 + ^ r3: .cfa -16 + ^ r4: .cfa -12 + ^ r5: .cfa -8 + ^
STACK CFI INIT 6ccb0 298 .cfa: sp 0 + .ra: lr
STACK CFI 6ccb4 .cfa: sp 36 +
STACK CFI 6ccb8 .ra: .cfa -4 + ^ r10: .cfa -12 + ^ r11: .cfa -8 + ^ r4: .cfa -36 + ^ r5: .cfa -32 + ^ r6: .cfa -28 + ^ r7: .cfa -24 + ^ r8: .cfa -20 + ^ r9: .cfa -16 + ^
STACK CFI 6cccc .cfa: sp 312 +
STACK CFI INIT 6cf48 12c .cfa: sp 0 + .ra: lr
STACK CFI 6cf4c .cfa: sp 36 +
STACK CFI 6cf50 .ra: .cfa -4 + ^ r10: .cfa -12 + ^ r11: .cfa -8 + ^ r4: .cfa -36 + ^ r5: .cfa -32 + ^ r6: .cfa -28 + ^ r7: .cfa -24 + ^ r8: .cfa -20 + ^ r9: .cfa -16 + ^
STACK CFI 6cf60 .cfa: sp 48 +
STACK CFI INIT 6d074 514 .cfa: sp 0 + .ra: lr
STACK CFI 6d078 .cfa: sp 36 +
STACK CFI 6d07c .cfa: sp 88 +
STACK CFI 6d080 .ra: .cfa -4 + ^ r10: .cfa -12 + ^ r11: .cfa -8 + ^ r4: .cfa -36 + ^ r5: .cfa -32 + ^ r6: .cfa -28 + ^ r7: .cfa -24 + ^ r8: .cfa -20 + ^ r9: .cfa -16 + ^
STACK CFI INIT 6d588 394 .cfa: sp 0 + .ra: lr
STACK CFI 6d58c .cfa: sp 36 +
STACK CFI 6d590 .ra: .cfa -4 + ^ r10: .cfa -12 + ^ r11: .cfa -8 + ^ r4: .cfa -36 + ^ r5: .cfa -32 + ^ r6: .cfa -28 + ^ r7: .cfa -24 + ^ r8: .cfa -20 + ^ r9: .cfa -16 + ^
STACK CFI 6d594 .cfa: sp 56 +
STACK CFI INIT 6d91c 344 .cfa: sp 0 + .ra: lr
STACK CFI 6d920 .cfa: sp 36 +
STACK CFI 6d928 .ra: .cfa -4 + ^ r10: .cfa -12 + ^ r11: .cfa -8 + ^ r4: .cfa -36 + ^ r5: .cfa -32 + ^ r6: .cfa -28 + ^ r7: .cfa -24 + ^ r8: .cfa -20 + ^ r9: .cfa -16 + ^
STACK CFI 6d938 .cfa: sp 104 +
STACK CFI INIT 6dc60 150 .cfa: sp 0 + .ra: lr
STACK CFI 6dc68 .cfa: sp 16 +
STACK CFI 6dc70 r4: .cfa -16 + ^ r5: .cfa -12 + ^ r6: .cfa -8 + ^ r7: .cfa -4 + ^
STACK CFI INIT 6ddb0 3cc .cfa: sp 0 + .ra: lr
STACK CFI 6ddb8 .cfa: sp 32 +
STACK CFI 6ddbc .ra: .cfa -4 + ^ r10: .cfa -8 + ^ r3: .cfa -32 + ^ r4: .cfa -28 + ^ r5: .cfa -24 + ^ r6: .cfa -20 + ^ r7: .cfa -16 + ^ r8: .cfa -12 + ^
STACK CFI INIT 6e17c 28 .cfa: sp 0 + .ra: lr
STACK CFI INIT 6e1a4 10 .cfa: sp 0 + .ra: lr
STACK CFI 6e1a8 .cfa: sp 8 + .ra: .cfa -4 + ^ r3: .cfa -8 + ^
STACK CFI INIT 6e1b4 50 .cfa: sp 0 + .ra: lr
STACK CFI 6e1b8 .cfa: sp 8 +
STACK CFI 6e1bc .ra: .cfa -4 + ^ r3: .cfa -8 + ^
STACK CFI INIT 6e204 50 .cfa: sp 0 + .ra: lr
STACK CFI 6e208 .cfa: sp 8 +
STACK CFI 6e20c .ra: .cfa -4 + ^ r3: .cfa -8 + ^
STACK CFI INIT 6e254 4b8 .cfa: sp 0 + .ra: lr
STACK CFI 6e258 .cfa: sp 32 +
STACK CFI 6e25c .ra: .cfa -4 + ^ r10: .cfa -8 + ^ r4: .cfa -32 + ^ r5: .cfa -28 + ^ r6: .cfa -24 + ^ r7: .cfa -20 + ^ r8: .cfa -16 + ^ r9: .cfa -12 + ^
STACK CFI INIT 6e70c 64 .cfa: sp 0 + .ra: lr
STACK CFI 6e710 .cfa: sp 8 +
STACK CFI 6e714 .ra: .cfa -4 + ^ r3: .cfa -8 + ^
STACK CFI INIT 6e770 64 .cfa: sp 0 + .ra: lr
STACK CFI 6e774 .cfa: sp 8 +
STACK CFI 6e778 .ra: .cfa -4 + ^ r3: .cfa -8 + ^
STACK CFI INIT 6e7d4 434 .cfa: sp 0 + .ra: lr
STACK CFI 6e7d8 .cfa: sp 36 +
STACK CFI 6e7dc .cfa: r11 4 + .ra: .cfa -4 + ^ r10: .cfa -12 + ^ r11: .cfa -8 + ^ r4: .cfa -36 + ^ r5: .cfa -32 + ^ r6: .cfa -28 + ^ r7: .cfa -24 + ^ r8: .cfa -20 + ^ r9: .cfa -16 + ^
STACK CFI INIT 6ec08 370 .cfa: sp 0 + .ra: lr
STACK CFI 6ec0c .cfa: sp 36 +
STACK CFI 6ec10 .cfa: sp 928 +
STACK CFI 6ec14 .ra: .cfa -4 + ^ r10: .cfa -12 + ^ r11: .cfa -8 + ^ r4: .cfa -36 + ^ r5: .cfa -32 + ^ r6: .cfa -28 + ^ r7: .cfa -24 + ^ r8: .cfa -20 + ^ r9: .cfa -16 + ^
STACK CFI INIT 6ef78 1a8 .cfa: sp 0 + .ra: lr
STACK CFI 6ef7c .cfa: sp 36 +
STACK CFI 6ef80 .cfa: sp 904 +
STACK CFI 6ef84 .ra: .cfa -4 + ^ r10: .cfa -12 + ^ r11: .cfa -8 + ^ r4: .cfa -36 + ^ r5: .cfa -32 + ^ r6: .cfa -28 + ^ r7: .cfa -24 + ^ r8: .cfa -20 + ^ r9: .cfa -16 + ^
STACK CFI INIT 6f120 2c .cfa: sp 0 + .ra: lr
STACK CFI INIT 6f14c 6c .cfa: sp 0 + .ra: lr
STACK CFI 6f150 .cfa: sp 8 +
STACK CFI 6f154 .ra: .cfa -4 + ^ r3: .cfa -8 + ^
STACK CFI INIT 6f1b8 6c .cfa: sp 0 + .ra: lr
STACK CFI 6f1bc .cfa: sp 8 +
STACK CFI 6f1c0 .ra: .cfa -4 + ^ r3: .cfa -8 + ^
STACK CFI INIT 6f224 6c .cfa: sp 0 + .ra: lr
STACK CFI 6f228 .cfa: sp 8 +
STACK CFI 6f22c .ra: .cfa -4 + ^ r3: .cfa -8 + ^
STACK CFI INIT 6f290 74 .cfa: sp 0 + .ra: lr
STACK CFI 6f2a0 .cfa: sp 8 +
STACK CFI 6f2a4 .ra: .cfa -4 + ^ r3: .cfa -8 + ^
STACK CFI INIT 6f304 70 .cfa: sp 0 + .ra: lr
STACK CFI 6f308 .cfa: sp 8 +
STACK CFI 6f30c .ra: .cfa -4 + ^ r3: .cfa -8 + ^
STACK CFI INIT 6f374 8 .cfa: sp 0 + .ra: lr
STACK CFI INIT 6f37c 40 .cfa: sp 0 + .ra: lr
STACK CFI 6f38c .cfa: sp 4 +
STACK CFI 6f398 r4: .cfa -4 + ^
STACK CFI INIT 6f3bc 34 .cfa: sp 0 + .ra: lr
STACK CFI 6f3c0 .cfa: sp 8 +
STACK CFI 6f3c4 .ra: .cfa -4 + ^ r3: .cfa -8 + ^
STACK CFI INIT 6f3f0 34 .cfa: sp 0 + .ra: lr
STACK CFI 6f3f4 .cfa: sp 8 +
STACK CFI 6f3f8 .ra: .cfa -4 + ^ r3: .cfa -8 + ^
STACK CFI INIT 6f424 110 .cfa: sp 0 + .ra: lr
STACK CFI 6f428 .cfa: sp 16 +
STACK CFI 6f42c .ra: .cfa -4 + ^ r4: .cfa -16 + ^ r5: .cfa -12 + ^ r6: .cfa -8 + ^
STACK CFI 6f440 .cfa: sp 24 +
STACK CFI INIT 6f534 20 .cfa: sp 0 + .ra: lr
STACK CFI INIT 6f554 28 .cfa: sp 0 + .ra: lr
STACK CFI INIT 6f57c 28 .cfa: sp 0 + .ra: lr
STACK CFI INIT 6f5a4 c .cfa: sp 0 + .ra: lr
STACK CFI INIT 6f5b0 c .cfa: sp 0 + .ra: lr
STACK CFI INIT 6f5bc 4 .cfa: sp 0 + .ra: lr
STACK CFI INIT 6f5c0 64 .cfa: sp 0 + .ra: lr
STACK CFI 6f5cc .cfa: sp 8 +
STACK CFI 6f5d8 r4: .cfa -8 + ^ r5: .cfa -4 + ^
STACK CFI INIT 6f624 220 .cfa: sp 0 + .ra: lr
STACK CFI 6f62c .cfa: sp 32 +
STACK CFI 6f630 .ra: .cfa -4 + ^ r10: .cfa -8 + ^ r4: .cfa -32 + ^ r5: .cfa -28 + ^ r6: .cfa -24 + ^ r7: .cfa -20 + ^ r8: .cfa -16 + ^ r9: .cfa -12 + ^
STACK CFI 6f644 .cfa: sp 48 +
STACK CFI INIT 6f844 8 .cfa: sp 0 + .ra: lr
STACK CFI INIT 6f84c 8 .cfa: sp 0 + .ra: lr
STACK CFI INIT 6f854 8 .cfa: sp 0 + .ra: lr
STACK CFI INIT 6f85c 8 .cfa: sp 0 + .ra: lr
STACK CFI INIT 6f864 28 .cfa: sp 0 + .ra: lr
STACK CFI INIT 6f88c 24 .cfa: sp 0 + .ra: lr
STACK CFI INIT 6f8b0 20 .cfa: sp 0 + .ra: lr
STACK CFI INIT 6f8d0 120 .cfa: sp 0 + .ra: lr
STACK CFI 6f8d8 .cfa: sp 36 +
STACK CFI 6f8dc .ra: .cfa -4 + ^ r10: .cfa -12 + ^ r11: .cfa -8 + ^ r4: .cfa -36 + ^ r5: .cfa -32 + ^ r6: .cfa -28 + ^ r7: .cfa -24 + ^ r8: .cfa -20 + ^ r9: .cfa -16 + ^
STACK CFI 6f8e8 .cfa: sp 72 +
STACK CFI INIT 6f9f0 94 .cfa: sp 0 + .ra: lr
STACK CFI 6f9f4 .cfa: sp 24 +
STACK CFI 6f9f8 .ra: .cfa -4 + ^ r4: .cfa -24 + ^ r5: .cfa -20 + ^ r6: .cfa -16 + ^ r7: .cfa -12 + ^ r8: .cfa -8 + ^
STACK CFI INIT 6fa84 178 .cfa: sp 0 + .ra: lr
STACK CFI 6fa94 .cfa: sp 16 +
STACK CFI 6fa98 .ra: .cfa -4 + ^ r4: .cfa -16 + ^ r5: .cfa -12 + ^ r6: .cfa -8 + ^
STACK CFI INIT 6fbfc c0 .cfa: sp 0 + .ra: lr
STACK CFI 6fc00 .cfa: sp 24 +
STACK CFI 6fc04 .ra: .cfa -4 + ^ r3: .cfa -24 + ^ r4: .cfa -20 + ^ r5: .cfa -16 + ^ r6: .cfa -12 + ^ r7: .cfa -8 + ^
STACK CFI INIT 6fcbc 88 .cfa: sp 0 + .ra: lr
STACK CFI 6fcc0 .cfa: sp 32 +
STACK CFI 6fcc4 .ra: .cfa -4 + ^ r10: .cfa -8 + ^ r4: .cfa -32 + ^ r5: .cfa -28 + ^ r6: .cfa -24 + ^ r7: .cfa -20 + ^ r8: .cfa -16 + ^ r9: .cfa -12 + ^
STACK CFI INIT 6fd44 198 .cfa: sp 0 + .ra: lr
STACK CFI 6fd54 .cfa: sp 32 +
STACK CFI 6fd58 .ra: .cfa -4 + ^ r10: .cfa -8 + ^ r4: .cfa -32 + ^ r5: .cfa -28 + ^ r6: .cfa -24 + ^ r7: .cfa -20 + ^ r8: .cfa -16 + ^ r9: .cfa -12 + ^
STACK CFI INIT 6fedc 14 .cfa: sp 0 + .ra: lr
STACK CFI 6fee0 .cfa: sp 8 +
STACK CFI 6fee4 .ra: .cfa -4 + ^ r3: .cfa -8 + ^
STACK CFI INIT 6fef0 160 .cfa: sp 0 + .ra: lr
STACK CFI 6fef4 .cfa: sp 24 +
STACK CFI 6fef8 .ra: .cfa -4 + ^ r4: .cfa -24 + ^ r5: .cfa -20 + ^ r6: .cfa -16 + ^ r7: .cfa -12 + ^ r8: .cfa -8 + ^
STACK CFI 6fefc .cfa: sp 32 +
STACK CFI INIT 70050 74 .cfa: sp 0 + .ra: lr
STACK CFI 70060 .cfa: sp 4 +
STACK CFI 70068 .cfa: sp 16 +
STACK CFI 70074 .ra: .cfa -4 + ^
STACK CFI INIT 700c4 a54 .cfa: sp 0 + .ra: lr
STACK CFI 700c8 .cfa: sp 36 +
STACK CFI 700cc .ra: .cfa -4 + ^ r10: .cfa -12 + ^ r11: .cfa -8 + ^ r4: .cfa -36 + ^ r5: .cfa -32 + ^ r6: .cfa -28 + ^ r7: .cfa -24 + ^ r8: .cfa -20 + ^ r9: .cfa -16 + ^
STACK CFI 700ec .cfa: sp 96 +
STACK CFI INIT 70b18 168 .cfa: sp 0 + .ra: lr
STACK CFI 70b1c .cfa: sp 36 +
STACK CFI 70b20 .ra: .cfa -4 + ^ r10: .cfa -12 + ^ r11: .cfa -8 + ^ r4: .cfa -36 + ^ r5: .cfa -32 + ^ r6: .cfa -28 + ^ r7: .cfa -24 + ^ r8: .cfa -20 + ^ r9: .cfa -16 + ^
STACK CFI 70b40 .cfa: sp 48 +
STACK CFI INIT 70c80 5d0 .cfa: sp 0 + .ra: lr
STACK CFI 70c84 .cfa: sp 36 +
STACK CFI 70c88 .ra: .cfa -4 + ^ r10: .cfa -12 + ^ r11: .cfa -8 + ^ r4: .cfa -36 + ^ r5: .cfa -32 + ^ r6: .cfa -28 + ^ r7: .cfa -24 + ^ r8: .cfa -20 + ^ r9: .cfa -16 + ^
STACK CFI 70ca0 .cfa: sp 176 +
STACK CFI INIT 71250 68 .cfa: sp 0 + .ra: lr
STACK CFI 71258 .cfa: sp 24 +
STACK CFI 7125c .ra: .cfa -4 + ^ r4: .cfa -24 + ^ r5: .cfa -20 + ^ r6: .cfa -16 + ^ r7: .cfa -12 + ^ r8: .cfa -8 + ^
STACK CFI INIT 712b8 6d4 .cfa: sp 0 + .ra: lr
STACK CFI 712bc .cfa: sp 36 +
STACK CFI 712c0 .ra: .cfa -4 + ^ r10: .cfa -12 + ^ r11: .cfa -8 + ^ r4: .cfa -36 + ^ r5: .cfa -32 + ^ r6: .cfa -28 + ^ r7: .cfa -24 + ^ r8: .cfa -20 + ^ r9: .cfa -16 + ^
STACK CFI 712d0 .cfa: sp 168 +
STACK CFI INIT 7198c a4 .cfa: sp 0 + .ra: lr
STACK CFI 71990 .cfa: sp 24 +
STACK CFI 71994 .ra: .cfa -4 + ^ r4: .cfa -24 + ^ r5: .cfa -20 + ^ r6: .cfa -16 + ^ r7: .cfa -12 + ^ r8: .cfa -8 + ^
STACK CFI INIT 71a30 85c .cfa: sp 0 + .ra: lr
STACK CFI 71a34 .cfa: sp 36 +
STACK CFI 71a38 .ra: .cfa -4 + ^ r10: .cfa -12 + ^ r11: .cfa -8 + ^ r4: .cfa -36 + ^ r5: .cfa -32 + ^ r6: .cfa -28 + ^ r7: .cfa -24 + ^ r8: .cfa -20 + ^ r9: .cfa -16 + ^
STACK CFI 71a50 .cfa: sp 216 +
STACK CFI INIT 7228c 5b8 .cfa: sp 0 + .ra: lr
STACK CFI 72290 .cfa: sp 36 +
STACK CFI 72294 .ra: .cfa -4 + ^ r10: .cfa -12 + ^ r11: .cfa -8 + ^ r4: .cfa -36 + ^ r5: .cfa -32 + ^ r6: .cfa -28 + ^ r7: .cfa -24 + ^ r8: .cfa -20 + ^ r9: .cfa -16 + ^
STACK CFI 722a4 .cfa: sp 88 +
STACK CFI INIT 72844 c30 .cfa: sp 0 + .ra: lr
STACK CFI 72848 .cfa: sp 36 +
STACK CFI 7284c .ra: .cfa -4 + ^ r10: .cfa -12 + ^ r11: .cfa -8 + ^ r4: .cfa -36 + ^ r5: .cfa -32 + ^ r6: .cfa -28 + ^ r7: .cfa -24 + ^ r8: .cfa -20 + ^ r9: .cfa -16 + ^
STACK CFI 72850 .cfa: r11 4 +
STACK CFI INIT 73474 3c0 .cfa: sp 0 + .ra: lr
STACK CFI 73478 .cfa: sp 36 +
STACK CFI 7347c .ra: .cfa -4 + ^ r10: .cfa -12 + ^ r11: .cfa -8 + ^ r4: .cfa -36 + ^ r5: .cfa -32 + ^ r6: .cfa -28 + ^ r7: .cfa -24 + ^ r8: .cfa -20 + ^ r9: .cfa -16 + ^
STACK CFI 7349c .cfa: sp 128 +
STACK CFI INIT 73834 5f0 .cfa: sp 0 + .ra: lr
STACK CFI 73838 .cfa: sp 36 +
STACK CFI 7383c .ra: .cfa -4 + ^ r10: .cfa -12 + ^ r11: .cfa -8 + ^ r4: .cfa -36 + ^ r5: .cfa -32 + ^ r6: .cfa -28 + ^ r7: .cfa -24 + ^ r8: .cfa -20 + ^ r9: .cfa -16 + ^
STACK CFI 73854 .cfa: sp 136 +
STACK CFI INIT 73e24 b68 .cfa: sp 0 + .ra: lr
STACK CFI 73e28 .cfa: sp 36 +
STACK CFI 73e2c .ra: .cfa -4 + ^ r10: .cfa -12 + ^ r11: .cfa -8 + ^ r4: .cfa -36 + ^ r5: .cfa -32 + ^ r6: .cfa -28 + ^ r7: .cfa -24 + ^ r8: .cfa -20 + ^ r9: .cfa -16 + ^
STACK CFI 73e44 .cfa: sp 176 +
STACK CFI INIT 7498c 10b8 .cfa: sp 0 + .ra: lr
STACK CFI 74990 .cfa: sp 36 +
STACK CFI 74994 .ra: .cfa -4 + ^ r10: .cfa -12 + ^ r11: .cfa -8 + ^ r4: .cfa -36 + ^ r5: .cfa -32 + ^ r6: .cfa -28 + ^ r7: .cfa -24 + ^ r8: .cfa -20 + ^ r9: .cfa -16 + ^
STACK CFI 74998 .cfa: r11 4 +
STACK CFI INIT 75a44 4f8 .cfa: sp 0 + .ra: lr
STACK CFI 75a48 .cfa: sp 36 +
STACK CFI 75a4c .ra: .cfa -4 + ^ r10: .cfa -12 + ^ r11: .cfa -8 + ^ r4: .cfa -36 + ^ r5: .cfa -32 + ^ r6: .cfa -28 + ^ r7: .cfa -24 + ^ r8: .cfa -20 + ^ r9: .cfa -16 + ^
STACK CFI 75a64 .cfa: sp 80 +
STACK CFI INIT 75f3c 7a4 .cfa: sp 0 + .ra: lr
STACK CFI 75f40 .cfa: sp 36 +
STACK CFI 75f44 .ra: .cfa -4 + ^ r10: .cfa -12 + ^ r11: .cfa -8 + ^ r4: .cfa -36 + ^ r5: .cfa -32 + ^ r6: .cfa -28 + ^ r7: .cfa -24 + ^ r8: .cfa -20 + ^ r9: .cfa -16 + ^
STACK CFI 75f54 .cfa: sp 184 +
STACK CFI INIT 766e0 12e8 .cfa: sp 0 + .ra: lr
STACK CFI 766e4 .cfa: sp 36 +
STACK CFI 766e8 .ra: .cfa -4 + ^ r10: .cfa -12 + ^ r11: .cfa -8 + ^ r4: .cfa -36 + ^ r5: .cfa -32 + ^ r6: .cfa -28 + ^ r7: .cfa -24 + ^ r8: .cfa -20 + ^ r9: .cfa -16 + ^
STACK CFI 766ec .cfa: r11 4 +
STACK CFI INIT 779c8 17b4 .cfa: sp 0 + .ra: lr
STACK CFI 779cc .cfa: sp 36 +
STACK CFI 779d0 .ra: .cfa -4 + ^ r10: .cfa -12 + ^ r11: .cfa -8 + ^ r4: .cfa -36 + ^ r5: .cfa -32 + ^ r6: .cfa -28 + ^ r7: .cfa -24 + ^ r8: .cfa -20 + ^ r9: .cfa -16 + ^
STACK CFI 779e8 .cfa: sp 240 +
STACK CFI INIT 7917c 14c .cfa: sp 0 + .ra: lr
STACK CFI 7918c .cfa: sp 16 +
STACK CFI 79190 .ra: .cfa -4 + ^ r4: .cfa -16 + ^ r5: .cfa -12 + ^ r6: .cfa -8 + ^
STACK CFI INIT 792c8 90 .cfa: sp 0 + .ra: lr
STACK CFI 792cc .cfa: sp 24 +
STACK CFI 792d0 .ra: .cfa -4 + ^ r4: .cfa -24 + ^ r5: .cfa -20 + ^ r6: .cfa -16 + ^ r7: .cfa -12 + ^ r8: .cfa -8 + ^
STACK CFI 792d8 .cfa: sp 32 +
STACK CFI INIT 79358 64 .cfa: sp 0 + .ra: lr
STACK CFI 7935c .cfa: sp 16 +
STACK CFI 79360 .ra: .cfa -4 + ^ r4: .cfa -16 + ^ r5: .cfa -12 + ^ r6: .cfa -8 + ^
STACK CFI INIT 793bc 58 .cfa: sp 0 + .ra: lr
STACK CFI 793c0 .cfa: sp 8 +
STACK CFI 793c4 .cfa: sp 16 +
STACK CFI 793e8 .ra: .cfa -4 + ^ r4: .cfa -8 + ^
STACK CFI INIT 79414 9c .cfa: sp 0 + .ra: lr
STACK CFI 79418 .cfa: sp 24 +
STACK CFI 7941c .ra: .cfa -4 + ^ r4: .cfa -24 + ^ r5: .cfa -20 + ^ r6: .cfa -16 + ^ r7: .cfa -12 + ^ r8: .cfa -8 + ^
STACK CFI INIT 794b0 30 .cfa: sp 0 + .ra: lr
STACK CFI 794b4 .cfa: sp 4 +
STACK CFI 794bc .cfa: sp 16 +
STACK CFI 794d4 .ra: .cfa -4 + ^
STACK CFI INIT 794e0 2bc .cfa: sp 0 + .ra: lr
STACK CFI INIT 7979c 124 .cfa: sp 0 + .ra: lr
STACK CFI 797a0 .cfa: sp 24 +
STACK CFI 797a4 .ra: .cfa -4 + ^ r3: .cfa -24 + ^ r4: .cfa -20 + ^ r5: .cfa -16 + ^ r6: .cfa -12 + ^ r7: .cfa -8 + ^
STACK CFI INIT 798c0 48 .cfa: sp 0 + .ra: lr
STACK CFI 798c4 .cfa: sp 16 +
STACK CFI 798c8 .ra: .cfa -4 + ^ r3: .cfa -16 + ^ r4: .cfa -12 + ^ r5: .cfa -8 + ^
STACK CFI INIT 79908 2a4 .cfa: sp 0 + .ra: lr
STACK CFI 7990c .cfa: sp 36 +
STACK CFI 79910 .ra: .cfa -4 + ^ r10: .cfa -12 + ^ r11: .cfa -8 + ^ r4: .cfa -36 + ^ r5: .cfa -32 + ^ r6: .cfa -28 + ^ r7: .cfa -24 + ^ r8: .cfa -20 + ^ r9: .cfa -16 + ^
STACK CFI 79914 .cfa: sp 56 +
STACK CFI INIT 79bac 124 .cfa: sp 0 + .ra: lr
STACK CFI 79bb4 .cfa: sp 16 +
STACK CFI 79bbc .ra: .cfa -4 + ^ r4: .cfa -16 + ^ r5: .cfa -12 + ^ r6: .cfa -8 + ^
STACK CFI INIT 79cd0 18c .cfa: sp 0 + .ra: lr
STACK CFI 79cd4 .cfa: sp 24 +
STACK CFI 79cd8 .ra: .cfa -4 + ^ r4: .cfa -24 + ^ r5: .cfa -20 + ^ r6: .cfa -16 + ^ r7: .cfa -12 + ^ r8: .cfa -8 + ^
STACK CFI INIT 79e5c 474 .cfa: sp 0 + .ra: lr
STACK CFI 79e60 .cfa: sp 36 +
STACK CFI 79e64 .cfa: sp 1332 +
STACK CFI 79e68 .cfa: sp 1344 +
STACK CFI 79e80 .ra: .cfa -4 + ^ r10: .cfa -12 + ^ r11: .cfa -8 + ^ r4: .cfa -36 + ^ r5: .cfa -32 + ^ r6: .cfa -28 + ^ r7: .cfa -24 + ^ r8: .cfa -20 + ^ r9: .cfa -16 + ^
STACK CFI INIT 7a2d0 bd8 .cfa: sp 0 + .ra: lr
STACK CFI 7a2d8 .cfa: sp 36 +
STACK CFI 7a2dc .ra: .cfa -4 + ^ r10: .cfa -12 + ^ r11: .cfa -8 + ^ r4: .cfa -36 + ^ r5: .cfa -32 + ^ r6: .cfa -28 + ^ r7: .cfa -24 + ^ r8: .cfa -20 + ^ r9: .cfa -16 + ^
STACK CFI 7a2e0 .cfa: sp 352 +
STACK CFI INIT 7aea8 110 .cfa: sp 0 + .ra: lr
STACK CFI 7aeac .cfa: sp 32 +
STACK CFI 7aeb4 .ra: .cfa -4 + ^ r10: .cfa -8 + ^ r3: .cfa -32 + ^ r4: .cfa -28 + ^ r5: .cfa -24 + ^ r6: .cfa -20 + ^ r7: .cfa -16 + ^ r8: .cfa -12 + ^
STACK CFI INIT 7afb8 c .cfa: sp 0 + .ra: lr
STACK CFI INIT 7afc4 cc .cfa: sp 0 + .ra: lr
STACK CFI INIT 7b090 18 .cfa: sp 0 + .ra: lr
STACK CFI INIT 7b0a8 74 .cfa: sp 0 + .ra: lr
STACK CFI 7b0ac .cfa: sp 24 +
STACK CFI 7b0b0 .ra: .cfa -4 + ^ r3: .cfa -24 + ^ r4: .cfa -20 + ^ r5: .cfa -16 + ^ r6: .cfa -12 + ^ r7: .cfa -8 + ^
STACK CFI INIT 7b11c c .cfa: sp 0 + .ra: lr
STACK CFI INIT 7b128 c .cfa: sp 0 + .ra: lr
STACK CFI INIT 7b134 c .cfa: sp 0 + .ra: lr
STACK CFI INIT 7b140 c .cfa: sp 0 + .ra: lr
STACK CFI INIT 7b14c 94 .cfa: sp 0 + .ra: lr
STACK CFI INIT 7b1e0 f08 .cfa: sp 0 + .ra: lr
STACK CFI 7b1e8 .cfa: sp 28 +
STACK CFI 7b1ec .ra: .cfa -4 + ^ r10: .cfa -8 + ^ r4: .cfa -28 + ^ r5: .cfa -24 + ^ r6: .cfa -20 + ^ r7: .cfa -16 + ^ r8: .cfa -12 + ^
STACK CFI 7b1f4 .cfa: sp 48 +
STACK CFI INIT 7c0e8 418 .cfa: sp 0 + .ra: lr
STACK CFI 7c0f0 .cfa: sp 24 +
STACK CFI 7c0f8 .ra: .cfa -4 + ^ r4: .cfa -24 + ^ r5: .cfa -20 + ^ r6: .cfa -16 + ^ r7: .cfa -12 + ^ r8: .cfa -8 + ^
STACK CFI 7c108 .cfa: sp 96 +
STACK CFI INIT 7c500 c .cfa: sp 0 + .ra: lr
STACK CFI INIT 7c50c 40 .cfa: sp 0 + .ra: lr
STACK CFI INIT 7c54c 2ac .cfa: sp 0 + .ra: lr
STACK CFI 7c554 .cfa: sp 16 +
STACK CFI 7c558 .ra: .cfa -4 + ^ r4: .cfa -16 + ^ r5: .cfa -12 + ^ r6: .cfa -8 + ^
STACK CFI INIT 7c7f8 c .cfa: sp 0 + .ra: lr
STACK CFI INIT 7c804 1c .cfa: sp 0 + .ra: lr
STACK CFI 7c808 .cfa: sp 8 +
STACK CFI 7c80c .ra: .cfa -4 + ^ r3: .cfa -8 + ^
STACK CFI INIT 7c820 38 .cfa: sp 0 + .ra: lr
STACK CFI 7c824 .cfa: sp 8 +
STACK CFI 7c828 .ra: .cfa -4 + ^ r4: .cfa -8 + ^
STACK CFI INIT 7c858 68 .cfa: sp 0 + .ra: lr
STACK CFI 7c860 .cfa: sp 12 +
STACK CFI 7c864 r4: .cfa -12 + ^ r5: .cfa -8 + ^ r6: .cfa -4 + ^
STACK CFI INIT 7c8c0 4 .cfa: sp 0 + .ra: lr
STACK CFI INIT 7c8c4 178 .cfa: sp 0 + .ra: lr
STACK CFI 7c8c8 .cfa: sp 32 +
STACK CFI 7c8cc .ra: .cfa -4 + ^ r10: .cfa -8 + ^ r3: .cfa -32 + ^ r4: .cfa -28 + ^ r5: .cfa -24 + ^ r6: .cfa -20 + ^ r7: .cfa -16 + ^ r8: .cfa -12 + ^
STACK CFI INIT 7ca3c 1c .cfa: sp 0 + .ra: lr
STACK CFI INIT 7ca58 34 .cfa: sp 0 + .ra: lr
STACK CFI 7ca5c .cfa: sp 8 +
STACK CFI 7ca60 .ra: .cfa -4 + ^ r3: .cfa -8 + ^
STACK CFI INIT 7ca8c 73c .cfa: sp 0 + .ra: lr
STACK CFI 7ca90 .cfa: sp 36 +
STACK CFI 7ca94 .ra: .cfa -4 + ^ r10: .cfa -12 + ^ r11: .cfa -8 + ^ r4: .cfa -36 + ^ r5: .cfa -32 + ^ r6: .cfa -28 + ^ r7: .cfa -24 + ^ r8: .cfa -20 + ^ r9: .cfa -16 + ^
STACK CFI 7ca98 .cfa: sp 320 +
STACK CFI INIT 7d1c8 260 .cfa: sp 0 + .ra: lr
STACK CFI 7d1cc .cfa: sp 24 +
STACK CFI 7d1d0 .ra: .cfa -4 + ^ r4: .cfa -24 + ^ r5: .cfa -20 + ^ r6: .cfa -16 + ^ r7: .cfa -12 + ^ r8: .cfa -8 + ^
STACK CFI 7d1d8 .cfa: sp 48 +
STACK CFI INIT 7d428 c .cfa: sp 0 + .ra: lr
STACK CFI INIT 7d434 c .cfa: sp 0 + .ra: lr
STACK CFI INIT 7d440 c .cfa: sp 0 + .ra: lr
STACK CFI INIT 7d44c c .cfa: sp 0 + .ra: lr
STACK CFI INIT 7d458 c .cfa: sp 0 + .ra: lr
STACK CFI INIT 7d464 c .cfa: sp 0 + .ra: lr
STACK CFI INIT 7d470 c .cfa: sp 0 + .ra: lr
STACK CFI INIT 7d47c c .cfa: sp 0 + .ra: lr
STACK CFI INIT 7d488 69c .cfa: sp 0 + .ra: lr
STACK CFI 7d48c .cfa: sp 28 +
STACK CFI 7d490 .ra: .cfa -4 + ^ r10: .cfa -8 + ^ r4: .cfa -28 + ^ r5: .cfa -24 + ^ r6: .cfa -20 + ^ r7: .cfa -16 + ^ r8: .cfa -12 + ^
STACK CFI 7d494 .cfa: sp 40 +
STACK CFI INIT 7db24 160 .cfa: sp 0 + .ra: lr
STACK CFI 7db28 .cfa: sp 20 +
STACK CFI 7db2c .ra: .cfa -4 + ^ r4: .cfa -20 + ^ r5: .cfa -16 + ^ r6: .cfa -12 + ^ r7: .cfa -8 + ^
STACK CFI 7db30 .cfa: sp 40 +
STACK CFI INIT 7dc84 40 .cfa: sp 0 + .ra: lr
STACK CFI 7dc88 .cfa: sp 4 +
STACK CFI 7dc8c .cfa: sp 16 +
STACK CFI 7dcb0 .ra: .cfa -4 + ^
STACK CFI INIT 7dcc4 34 .cfa: sp 0 + .ra: lr
STACK CFI 7dcc8 .cfa: sp 8 +
STACK CFI 7dccc r4: .cfa -8 + ^ r5: .cfa -4 + ^
STACK CFI INIT 7dcf8 b4 .cfa: sp 0 + .ra: lr
STACK CFI 7dcfc .cfa: sp 20 +
STACK CFI 7dd00 .ra: .cfa -4 + ^ r4: .cfa -20 + ^ r5: .cfa -16 + ^ r6: .cfa -12 + ^ r7: .cfa -8 + ^
STACK CFI 7dd04 .cfa: sp 40 +
STACK CFI INIT 7ddac 18 .cfa: sp 0 + .ra: lr
STACK CFI INIT 7ddc4 60 .cfa: sp 0 + .ra: lr
STACK CFI 7ddc8 .cfa: sp 16 +
STACK CFI 7ddcc .ra: .cfa -4 + ^ r4: .cfa -16 + ^ r5: .cfa -12 + ^ r6: .cfa -8 + ^
STACK CFI 7ddd0 .cfa: sp 24 +
STACK CFI INIT 7de24 18 .cfa: sp 0 + .ra: lr
STACK CFI INIT 7de3c 8 .cfa: sp 0 + .ra: lr
STACK CFI INIT 7de44 8 .cfa: sp 0 + .ra: lr
STACK CFI INIT 7de4c 30 .cfa: sp 0 + .ra: lr
STACK CFI 7de50 .cfa: sp 8 +
STACK CFI 7de54 .ra: .cfa -4 + ^ r4: .cfa -8 + ^
STACK CFI 7de58 .cfa: sp 16 +
STACK CFI INIT 7de7c cc .cfa: sp 0 + .ra: lr
STACK CFI 7de80 .cfa: sp 12 +
STACK CFI 7de84 .ra: .cfa -4 + ^ r4: .cfa -12 + ^ r5: .cfa -8 + ^
STACK CFI 7de88 .cfa: sp 24 +
STACK CFI INIT 7df48 8 .cfa: sp 0 + .ra: lr
STACK CFI INIT 7df50 90 .cfa: sp 0 + .ra: lr
STACK CFI 7df54 .cfa: sp 16 +
STACK CFI 7df58 .ra: .cfa -4 + ^ r4: .cfa -16 + ^ r5: .cfa -12 + ^ r6: .cfa -8 + ^
STACK CFI 7df5c .cfa: sp 24 +
STACK CFI INIT 7dfe0 c0 .cfa: sp 0 + .ra: lr
STACK CFI 7dfe4 .cfa: sp 24 +
STACK CFI 7dfe8 .ra: .cfa -4 + ^ r4: .cfa -24 + ^ r5: .cfa -20 + ^ r6: .cfa -16 + ^ r7: .cfa -12 + ^ r8: .cfa -8 + ^
STACK CFI 7dfec .cfa: sp 32 +
STACK CFI INIT 7e0a0 228 .cfa: sp 0 + .ra: lr
STACK CFI 7e0a4 .cfa: sp 36 +
STACK CFI 7e0a8 .ra: .cfa -4 + ^ r10: .cfa -12 + ^ r11: .cfa -8 + ^ r4: .cfa -36 + ^ r5: .cfa -32 + ^ r6: .cfa -28 + ^ r7: .cfa -24 + ^ r8: .cfa -20 + ^ r9: .cfa -16 + ^
STACK CFI 7e0b8 .cfa: sp 160 +
STACK CFI INIT 7e2c8 c4 .cfa: sp 0 + .ra: lr
STACK CFI 7e2cc .cfa: sp 20 +
STACK CFI 7e2d0 .cfa: sp 136 +
STACK CFI 7e2d4 .ra: .cfa -4 + ^ r4: .cfa -20 + ^ r5: .cfa -16 + ^ r6: .cfa -12 + ^ r7: .cfa -8 + ^
STACK CFI INIT 7e38c 134 .cfa: sp 0 + .ra: lr
STACK CFI 7e390 .cfa: sp 16 +
STACK CFI 7e394 .cfa: sp 24 +
STACK CFI 7e398 .ra: .cfa -4 + ^ r4: .cfa -16 + ^ r5: .cfa -12 + ^ r6: .cfa -8 + ^
STACK CFI INIT 7e4c0 c8 .cfa: sp 0 + .ra: lr
STACK CFI 7e4c4 .cfa: sp 20 +
STACK CFI 7e4c8 .cfa: sp 136 +
STACK CFI 7e4cc .ra: .cfa -4 + ^ r4: .cfa -20 + ^ r5: .cfa -16 + ^ r6: .cfa -12 + ^ r7: .cfa -8 + ^
STACK CFI INIT 7e588 f0 .cfa: sp 0 + .ra: lr
STACK CFI 7e58c .cfa: sp 24 +
STACK CFI 7e590 .cfa: sp 136 +
STACK CFI 7e594 .ra: .cfa -4 + ^ r4: .cfa -24 + ^ r5: .cfa -20 + ^ r6: .cfa -16 + ^ r7: .cfa -12 + ^ r8: .cfa -8 + ^
STACK CFI INIT 7e678 d0 .cfa: sp 0 + .ra: lr
STACK CFI 7e67c .cfa: sp 20 +
STACK CFI 7e680 .cfa: sp 136 +
STACK CFI 7e684 .ra: .cfa -4 + ^ r4: .cfa -20 + ^ r5: .cfa -16 + ^ r6: .cfa -12 + ^ r7: .cfa -8 + ^
STACK CFI INIT 7e748 e4 .cfa: sp 0 + .ra: lr
STACK CFI 7e74c .cfa: sp 20 +
STACK CFI 7e750 .cfa: sp 136 +
STACK CFI 7e754 .ra: .cfa -4 + ^ r4: .cfa -20 + ^ r5: .cfa -16 + ^ r6: .cfa -12 + ^ r7: .cfa -8 + ^
STACK CFI INIT 7e82c 1b0 .cfa: sp 0 + .ra: lr
STACK CFI 7e830 .cfa: sp 20 +
STACK CFI 7e834 .cfa: sp 136 +
STACK CFI 7e838 .ra: .cfa -4 + ^ r4: .cfa -20 + ^ r5: .cfa -16 + ^ r6: .cfa -12 + ^ r7: .cfa -8 + ^
STACK CFI INIT 7e9dc d4 .cfa: sp 0 + .ra: lr
STACK CFI 7e9e0 .cfa: sp 28 +
STACK CFI 7e9e4 .cfa: sp 144 +
STACK CFI 7e9e8 .ra: .cfa -4 + ^ r10: .cfa -8 + ^ r4: .cfa -28 + ^ r5: .cfa -24 + ^ r6: .cfa -20 + ^ r7: .cfa -16 + ^ r8: .cfa -12 + ^
STACK CFI INIT 7eab0 d4 .cfa: sp 0 + .ra: lr
STACK CFI 7eab4 .cfa: sp 28 +
STACK CFI 7eab8 .cfa: sp 144 +
STACK CFI 7eabc .ra: .cfa -4 + ^ r10: .cfa -8 + ^ r4: .cfa -28 + ^ r5: .cfa -24 + ^ r6: .cfa -20 + ^ r7: .cfa -16 + ^ r8: .cfa -12 + ^
STACK CFI INIT 7eb84 fc .cfa: sp 0 + .ra: lr
STACK CFI 7eb88 .cfa: sp 24 +
STACK CFI 7eb8c .cfa: sp 136 +
STACK CFI 7eb90 .ra: .cfa -4 + ^ r4: .cfa -24 + ^ r5: .cfa -20 + ^ r6: .cfa -16 + ^ r7: .cfa -12 + ^ r8: .cfa -8 + ^
STACK CFI INIT 7ec80 108 .cfa: sp 0 + .ra: lr
STACK CFI 7ec84 .cfa: sp 16 +
STACK CFI 7ec88 .ra: .cfa -4 + ^ r3: .cfa -16 + ^ r4: .cfa -12 + ^ r5: .cfa -8 + ^
STACK CFI INIT 7ed88 128 .cfa: sp 0 + .ra: lr
STACK CFI 7ed8c .cfa: sp 16 +
STACK CFI 7ed90 .ra: .cfa -4 + ^ r3: .cfa -16 + ^ r4: .cfa -12 + ^ r5: .cfa -8 + ^
STACK CFI INIT 7eeb0 c4 .cfa: sp 0 + .ra: lr
STACK CFI 7eeb4 .cfa: sp 16 +
STACK CFI 7eeb8 .ra: .cfa -4 + ^ r4: .cfa -16 + ^ r5: .cfa -12 + ^ r6: .cfa -8 + ^
STACK CFI INIT 7ef74 360 .cfa: sp 0 + .ra: lr
STACK CFI 7ef78 .cfa: sp 36 +
STACK CFI 7ef7c .ra: .cfa -4 + ^ r10: .cfa -12 + ^ r11: .cfa -8 + ^ r4: .cfa -36 + ^ r5: .cfa -32 + ^ r6: .cfa -28 + ^ r7: .cfa -24 + ^ r8: .cfa -20 + ^ r9: .cfa -16 + ^
STACK CFI 7ef80 .cfa: sp 56 +
STACK CFI INIT 7f2d4 2b4 .cfa: sp 0 + .ra: lr
STACK CFI 7f2dc .cfa: sp 36 +
STACK CFI 7f2e4 .ra: .cfa -4 + ^ r10: .cfa -12 + ^ r11: .cfa -8 + ^ r4: .cfa -36 + ^ r5: .cfa -32 + ^ r6: .cfa -28 + ^ r7: .cfa -24 + ^ r8: .cfa -20 + ^ r9: .cfa -16 + ^
STACK CFI 7f2e8 .cfa: sp 208 +
STACK CFI INIT 7f588 330 .cfa: sp 0 + .ra: lr
STACK CFI 7f590 .cfa: sp 32 +
STACK CFI 7f598 .ra: .cfa -4 + ^ r10: .cfa -8 + ^ r4: .cfa -32 + ^ r5: .cfa -28 + ^ r6: .cfa -24 + ^ r7: .cfa -20 + ^ r8: .cfa -16 + ^ r9: .cfa -12 + ^
STACK CFI 7f5a4 .cfa: sp 200 +
STACK CFI INIT 7f8b8 1e4 .cfa: sp 0 + .ra: lr
STACK CFI 7f8bc .cfa: sp 36 +
STACK CFI 7f8c0 .ra: .cfa -4 + ^ r10: .cfa -12 + ^ r11: .cfa -8 + ^ r4: .cfa -36 + ^ r5: .cfa -32 + ^ r6: .cfa -28 + ^ r7: .cfa -24 + ^ r8: .cfa -20 + ^ r9: .cfa -16 + ^
STACK CFI 7f8c4 .cfa: sp 48 +
STACK CFI INIT 7fa9c 84 .cfa: sp 0 + .ra: lr
STACK CFI 7faa0 .cfa: sp 12 +
STACK CFI 7faa4 .ra: .cfa -4 + ^ r4: .cfa -12 + ^ r5: .cfa -8 + ^
STACK CFI 7fab8 .cfa: sp 24 +
STACK CFI INIT 7fb20 59c .cfa: sp 0 + .ra: lr
STACK CFI 7fb24 .cfa: sp 36 +
STACK CFI 7fb28 .cfa: sp 168 +
STACK CFI 7fb2c .ra: .cfa -4 + ^ r10: .cfa -12 + ^ r11: .cfa -8 + ^ r4: .cfa -36 + ^ r5: .cfa -32 + ^ r6: .cfa -28 + ^ r7: .cfa -24 + ^ r8: .cfa -20 + ^ r9: .cfa -16 + ^
STACK CFI INIT 800bc 260 .cfa: sp 0 + .ra: lr
STACK CFI 800c0 .cfa: sp 28 +
STACK CFI 800c4 .cfa: sp 40 +
STACK CFI 800c8 .ra: .cfa -4 + ^ r10: .cfa -8 + ^ r4: .cfa -28 + ^ r5: .cfa -24 + ^ r6: .cfa -20 + ^ r7: .cfa -16 + ^ r8: .cfa -12 + ^
STACK CFI INIT 8031c c4 .cfa: sp 0 + .ra: lr
STACK CFI 80320 .cfa: sp 24 +
STACK CFI 80324 .ra: .cfa -4 + ^ r3: .cfa -24 + ^ r4: .cfa -20 + ^ r5: .cfa -16 + ^ r6: .cfa -12 + ^ r7: .cfa -8 + ^
STACK CFI INIT 803e0 c4 .cfa: sp 0 + .ra: lr
STACK CFI 803e4 .cfa: sp 24 +
STACK CFI 803e8 .ra: .cfa -4 + ^ r3: .cfa -24 + ^ r4: .cfa -20 + ^ r5: .cfa -16 + ^ r6: .cfa -12 + ^ r7: .cfa -8 + ^
STACK CFI INIT 804a4 c8 .cfa: sp 0 + .ra: lr
STACK CFI 804a8 .cfa: sp 32 +
STACK CFI 804ac .ra: .cfa -4 + ^ r10: .cfa -8 + ^ r3: .cfa -32 + ^ r4: .cfa -28 + ^ r5: .cfa -24 + ^ r6: .cfa -20 + ^ r7: .cfa -16 + ^ r8: .cfa -12 + ^
STACK CFI INIT 8056c 88 .cfa: sp 0 + .ra: lr
STACK CFI 80570 .cfa: sp 24 +
STACK CFI 80574 .ra: .cfa -4 + ^ r3: .cfa -24 + ^ r4: .cfa -20 + ^ r5: .cfa -16 + ^ r6: .cfa -12 + ^ r7: .cfa -8 + ^
STACK CFI INIT 805f4 1a0 .cfa: sp 0 + .ra: lr
STACK CFI 805f8 .cfa: sp 24 +
STACK CFI 805fc .ra: .cfa -4 + ^ r3: .cfa -24 + ^ r4: .cfa -20 + ^ r5: .cfa -16 + ^ r6: .cfa -12 + ^ r7: .cfa -8 + ^
STACK CFI INIT 80794 144 .cfa: sp 0 + .ra: lr
STACK CFI 80798 .cfa: sp 32 +
STACK CFI 8079c .ra: .cfa -4 + ^ r10: .cfa -8 + ^ r4: .cfa -32 + ^ r5: .cfa -28 + ^ r6: .cfa -24 + ^ r7: .cfa -20 + ^ r8: .cfa -16 + ^ r9: .cfa -12 + ^
STACK CFI 807a0 .cfa: sp 40 +
STACK CFI INIT 808d8 1b4 .cfa: sp 0 + .ra: lr
STACK CFI 808dc .cfa: sp 24 +
STACK CFI 808e0 .ra: .cfa -4 + ^ r4: .cfa -24 + ^ r5: .cfa -20 + ^ r6: .cfa -16 + ^ r7: .cfa -12 + ^ r8: .cfa -8 + ^
STACK CFI INIT 80a8c 34 .cfa: sp 0 + .ra: lr
STACK CFI 80a94 .cfa: sp 8 +
STACK CFI 80a9c .ra: .cfa -4 + ^ r3: .cfa -8 + ^
STACK CFI INIT 80ac0 34 .cfa: sp 0 + .ra: lr
STACK CFI 80ac8 .cfa: sp 8 +
STACK CFI 80ad0 .ra: .cfa -4 + ^ r3: .cfa -8 + ^
STACK CFI INIT 80af4 34 .cfa: sp 0 + .ra: lr
STACK CFI 80afc .cfa: sp 8 +
STACK CFI 80b04 .ra: .cfa -4 + ^ r3: .cfa -8 + ^
STACK CFI INIT 80b28 8 .cfa: sp 0 + .ra: lr
STACK CFI INIT 80b30 3c .cfa: sp 0 + .ra: lr
STACK CFI 80b40 .cfa: sp 8 +
STACK CFI 80b44 r4: .cfa -8 + ^ r5: .cfa -4 + ^
STACK CFI INIT 80b6c 128 .cfa: sp 0 + .ra: lr
STACK CFI 80b70 .cfa: sp 32 +
STACK CFI 80b74 .ra: .cfa -4 + ^ r10: .cfa -8 + ^ r4: .cfa -32 + ^ r5: .cfa -28 + ^ r6: .cfa -24 + ^ r7: .cfa -20 + ^ r8: .cfa -16 + ^ r9: .cfa -12 + ^
STACK CFI INIT 80c94 48 .cfa: sp 0 + .ra: lr
STACK CFI 80ca0 .cfa: sp 8 +
STACK CFI 80ca8 .ra: .cfa -4 + ^ r4: .cfa -8 + ^
STACK CFI INIT 80cdc 40 .cfa: sp 0 + .ra: lr
STACK CFI 80ce0 .cfa: sp 4 +
STACK CFI 80ce4 .cfa: sp 16 +
STACK CFI 80d08 .ra: .cfa -4 + ^
STACK CFI INIT 80d1c 128 .cfa: sp 0 + .ra: lr
STACK CFI 80d20 .cfa: sp 32 +
STACK CFI 80d24 .ra: .cfa -4 + ^ r10: .cfa -8 + ^ r4: .cfa -32 + ^ r5: .cfa -28 + ^ r6: .cfa -24 + ^ r7: .cfa -20 + ^ r8: .cfa -16 + ^ r9: .cfa -12 + ^
STACK CFI INIT 80e44 8 .cfa: sp 0 + .ra: lr
STACK CFI INIT 80e4c 8 .cfa: sp 0 + .ra: lr
STACK CFI INIT 80e54 44 .cfa: sp 0 + .ra: lr
STACK CFI 80e58 .cfa: sp 16 +
STACK CFI 80e5c .ra: .cfa -4 + ^ r4: .cfa -16 + ^ r5: .cfa -12 + ^ r6: .cfa -8 + ^
STACK CFI INIT 80e98 7c .cfa: sp 0 + .ra: lr
STACK CFI 80e9c .cfa: sp 16 +
STACK CFI 80ea0 .ra: .cfa -4 + ^ r4: .cfa -16 + ^ r5: .cfa -12 + ^ r6: .cfa -8 + ^
STACK CFI INIT 80f14 260 .cfa: sp 0 + .ra: lr
STACK CFI 80f20 .cfa: sp 36 +
STACK CFI 80f24 .ra: .cfa -4 + ^ r10: .cfa -12 + ^ r11: .cfa -8 + ^ r4: .cfa -36 + ^ r5: .cfa -32 + ^ r6: .cfa -28 + ^ r7: .cfa -24 + ^ r8: .cfa -20 + ^ r9: .cfa -16 + ^
STACK CFI 80f34 .cfa: sp 160 +
STACK CFI INIT 81174 1a4 .cfa: sp 0 + .ra: lr
STACK CFI 81178 .cfa: sp 36 +
STACK CFI 8117c .ra: .cfa -4 + ^ r10: .cfa -12 + ^ r11: .cfa -8 + ^ r4: .cfa -36 + ^ r5: .cfa -32 + ^ r6: .cfa -28 + ^ r7: .cfa -24 + ^ r8: .cfa -20 + ^ r9: .cfa -16 + ^
STACK CFI 81180 .cfa: sp 168 +
STACK CFI INIT 81318 238 .cfa: sp 0 + .ra: lr
STACK CFI 8131c .cfa: sp 28 +
STACK CFI 81320 .ra: .cfa -4 + ^ r10: .cfa -8 + ^ r4: .cfa -28 + ^ r5: .cfa -24 + ^ r6: .cfa -20 + ^ r7: .cfa -16 + ^ r8: .cfa -12 + ^
STACK CFI 81324 .cfa: sp 144 +
STACK CFI INIT 81550 214 .cfa: sp 0 + .ra: lr
STACK CFI 81554 .cfa: sp 24 +
STACK CFI 81558 .ra: .cfa -4 + ^ r4: .cfa -24 + ^ r5: .cfa -20 + ^ r6: .cfa -16 + ^ r7: .cfa -12 + ^ r8: .cfa -8 + ^
STACK CFI 8155c .cfa: sp 32 +
STACK CFI INIT 81764 1e4 .cfa: sp 0 + .ra: lr
STACK CFI 8176c .cfa: sp 36 +
STACK CFI 81770 .ra: .cfa -4 + ^ r10: .cfa -12 + ^ r11: .cfa -8 + ^ r4: .cfa -36 + ^ r5: .cfa -32 + ^ r6: .cfa -28 + ^ r7: .cfa -24 + ^ r8: .cfa -20 + ^ r9: .cfa -16 + ^
STACK CFI 8177c .cfa: sp 48 +
STACK CFI INIT 81948 7a0 .cfa: sp 0 + .ra: lr
STACK CFI 8194c .cfa: sp 36 +
STACK CFI 81950 .ra: .cfa -4 + ^ r10: .cfa -12 + ^ r11: .cfa -8 + ^ r4: .cfa -36 + ^ r5: .cfa -32 + ^ r6: .cfa -28 + ^ r7: .cfa -24 + ^ r8: .cfa -20 + ^ r9: .cfa -16 + ^
STACK CFI 81960 .cfa: sp 208 +
STACK CFI INIT 820e8 60c .cfa: sp 0 + .ra: lr
STACK CFI 820ec .cfa: sp 36 +
STACK CFI 820f0 .ra: .cfa -4 + ^ r10: .cfa -12 + ^ r11: .cfa -8 + ^ r4: .cfa -36 + ^ r5: .cfa -32 + ^ r6: .cfa -28 + ^ r7: .cfa -24 + ^ r8: .cfa -20 + ^ r9: .cfa -16 + ^
STACK CFI 82100 .cfa: sp 152 +
STACK CFI INIT 826f4 190 .cfa: sp 0 + .ra: lr
STACK CFI 826f8 .cfa: sp 24 +
STACK CFI 826fc .ra: .cfa -4 + ^ r4: .cfa -24 + ^ r5: .cfa -20 + ^ r6: .cfa -16 + ^ r7: .cfa -12 + ^ r8: .cfa -8 + ^
STACK CFI INIT 82884 7c .cfa: sp 0 + .ra: lr
STACK CFI 82888 .cfa: sp 16 +
STACK CFI 8288c .ra: .cfa -4 + ^ r3: .cfa -16 + ^ r4: .cfa -12 + ^ r5: .cfa -8 + ^
STACK CFI INIT 82900 7c .cfa: sp 0 + .ra: lr
STACK CFI 82904 .cfa: sp 16 +
STACK CFI 82908 .ra: .cfa -4 + ^ r3: .cfa -16 + ^ r4: .cfa -12 + ^ r5: .cfa -8 + ^
STACK CFI INIT 8297c 84 .cfa: sp 0 + .ra: lr
STACK CFI 82980 .cfa: sp 16 +
STACK CFI 82984 .ra: .cfa -4 + ^ r3: .cfa -16 + ^ r4: .cfa -12 + ^ r5: .cfa -8 + ^
STACK CFI INIT 82a00 120 .cfa: sp 0 + .ra: lr
STACK CFI 82a04 .cfa: sp 16 +
STACK CFI 82a08 .ra: .cfa -4 + ^ r4: .cfa -16 + ^ r5: .cfa -12 + ^ r6: .cfa -8 + ^
STACK CFI 82a0c .cfa: sp 32 +
STACK CFI INIT 82b20 8c .cfa: sp 0 + .ra: lr
STACK CFI 82b24 .cfa: sp 16 +
STACK CFI 82b28 .ra: .cfa -4 + ^ r3: .cfa -16 + ^ r4: .cfa -12 + ^ r5: .cfa -8 + ^
STACK CFI INIT 82bac 44 .cfa: sp 0 + .ra: lr
STACK CFI 82bb0 .cfa: sp 16 +
STACK CFI 82bb4 .ra: .cfa -4 + ^ r4: .cfa -16 + ^ r5: .cfa -12 + ^ r6: .cfa -8 + ^
STACK CFI INIT 82bf0 b4 .cfa: sp 0 + .ra: lr
STACK CFI 82bf4 .cfa: sp 24 +
STACK CFI 82bf8 .ra: .cfa -4 + ^ r3: .cfa -24 + ^ r4: .cfa -20 + ^ r5: .cfa -16 + ^ r6: .cfa -12 + ^ r7: .cfa -8 + ^
STACK CFI INIT 82ca4 78 .cfa: sp 0 + .ra: lr
STACK CFI 82ca8 .cfa: sp 24 +
STACK CFI 82cac .ra: .cfa -4 + ^ r4: .cfa -24 + ^ r5: .cfa -20 + ^ r6: .cfa -16 + ^ r7: .cfa -12 + ^ r8: .cfa -8 + ^
STACK CFI INIT 82d1c 27c .cfa: sp 0 + .ra: lr
STACK CFI 82d24 .cfa: sp 36 +
STACK CFI 82d30 .ra: .cfa -4 + ^ r10: .cfa -12 + ^ r11: .cfa -8 + ^ r4: .cfa -36 + ^ r5: .cfa -32 + ^ r6: .cfa -28 + ^ r7: .cfa -24 + ^ r8: .cfa -20 + ^ r9: .cfa -16 + ^
STACK CFI 82d34 .cfa: sp 80 +
STACK CFI INIT 82f98 1b8 .cfa: sp 0 + .ra: lr
STACK CFI 82fa0 .cfa: sp 36 +
STACK CFI 82fa8 .ra: .cfa -4 + ^ r10: .cfa -12 + ^ r11: .cfa -8 + ^ r4: .cfa -36 + ^ r5: .cfa -32 + ^ r6: .cfa -28 + ^ r7: .cfa -24 + ^ r8: .cfa -20 + ^ r9: .cfa -16 + ^
STACK CFI 82fb0 .cfa: sp 48 +
STACK CFI INIT 83150 3ec .cfa: sp 0 + .ra: lr
STACK CFI 83154 .cfa: sp 36 +
STACK CFI 83158 .ra: .cfa -4 + ^ r10: .cfa -12 + ^ r11: .cfa -8 + ^ r4: .cfa -36 + ^ r5: .cfa -32 + ^ r6: .cfa -28 + ^ r7: .cfa -24 + ^ r8: .cfa -20 + ^ r9: .cfa -16 + ^
STACK CFI 8315c .cfa: sp 120 +
STACK CFI INIT 8353c b4 .cfa: sp 0 + .ra: lr
STACK CFI 83540 .cfa: sp 24 +
STACK CFI 83544 .ra: .cfa -4 + ^ r4: .cfa -24 + ^ r5: .cfa -20 + ^ r6: .cfa -16 + ^ r7: .cfa -12 + ^ r8: .cfa -8 + ^
STACK CFI INIT 835f0 c4 .cfa: sp 0 + .ra: lr
STACK CFI 835f4 .cfa: sp 24 +
STACK CFI 835f8 .ra: .cfa -4 + ^ r4: .cfa -24 + ^ r5: .cfa -20 + ^ r6: .cfa -16 + ^ r7: .cfa -12 + ^ r8: .cfa -8 + ^
STACK CFI INIT 836b4 24 .cfa: sp 0 + .ra: lr
STACK CFI INIT 836d8 5c .cfa: sp 0 + .ra: lr
STACK CFI 836dc .cfa: sp 24 +
STACK CFI 836e0 .ra: .cfa -4 + ^ r4: .cfa -24 + ^ r5: .cfa -20 + ^ r6: .cfa -16 + ^ r7: .cfa -12 + ^ r8: .cfa -8 + ^
STACK CFI INIT 83734 10 .cfa: sp 0 + .ra: lr
STACK CFI INIT 83744 18 .cfa: sp 0 + .ra: lr
STACK CFI INIT 8375c 60 .cfa: sp 0 + .ra: lr
STACK CFI INIT 837bc 44 .cfa: sp 0 + .ra: lr
STACK CFI 837c0 .cfa: sp 8 +
STACK CFI 837c4 r4: .cfa -8 + ^ r5: .cfa -4 + ^
STACK CFI INIT 83800 8 .cfa: sp 0 + .ra: lr
STACK CFI INIT 83808 8 .cfa: sp 0 + .ra: lr
STACK CFI INIT 83810 c .cfa: sp 0 + .ra: lr
STACK CFI INIT 8381c 64 .cfa: sp 0 + .ra: lr
STACK CFI INIT 83880 54 .cfa: sp 0 + .ra: lr
STACK CFI INIT 838d4 18 .cfa: sp 0 + .ra: lr
STACK CFI 838d8 .cfa: sp 8 +
STACK CFI 838dc .ra: .cfa -4 + ^ r3: .cfa -8 + ^
STACK CFI INIT 838ec 8 .cfa: sp 0 + .ra: lr
STACK CFI INIT 838f4 8 .cfa: sp 0 + .ra: lr
STACK CFI INIT 838fc 8 .cfa: sp 0 + .ra: lr
STACK CFI INIT 83904 8 .cfa: sp 0 + .ra: lr
STACK CFI INIT 8390c 8 .cfa: sp 0 + .ra: lr
STACK CFI INIT 83914 8 .cfa: sp 0 + .ra: lr
STACK CFI INIT 8391c 18 .cfa: sp 0 + .ra: lr
STACK CFI INIT 83934 8 .cfa: sp 0 + .ra: lr
STACK CFI INIT 8393c 64 .cfa: sp 0 + .ra: lr
STACK CFI 8394c .cfa: sp 8 +
STACK CFI 83954 .ra: .cfa -4 + ^ r4: .cfa -8 + ^
STACK CFI INIT 839a0 5c .cfa: sp 0 + .ra: lr
STACK CFI 839a4 .cfa: sp 8 +
STACK CFI 839a8 .ra: .cfa -4 + ^ r4: .cfa -8 + ^
STACK CFI INIT 839fc 234 .cfa: sp 0 + .ra: lr
STACK CFI 83a00 .cfa: sp 36 +
STACK CFI 83a04 .ra: .cfa -4 + ^ r10: .cfa -12 + ^ r11: .cfa -8 + ^ r4: .cfa -36 + ^ r5: .cfa -32 + ^ r6: .cfa -28 + ^ r7: .cfa -24 + ^ r8: .cfa -20 + ^ r9: .cfa -16 + ^
STACK CFI 83a14 .cfa: sp 64 +
STACK CFI INIT 83c30 d0 .cfa: sp 0 + .ra: lr
STACK CFI 83c34 .cfa: sp 16 +
STACK CFI 83c38 .ra: .cfa -4 + ^ r4: .cfa -16 + ^ r5: .cfa -12 + ^ r6: .cfa -8 + ^
STACK CFI 83c40 .cfa: sp 40 +
STACK CFI INIT 83d00 40 .cfa: sp 0 + .ra: lr
STACK CFI 83d04 .cfa: sp 4 +
STACK CFI 83d08 .cfa: sp 16 +
STACK CFI 83d2c .ra: .cfa -4 + ^
STACK CFI INIT 83d40 164 .cfa: sp 0 + .ra: lr
STACK CFI 83d44 .cfa: sp 32 +
STACK CFI 83d48 .cfa: sp 40 +
STACK CFI 83d4c .ra: .cfa -4 + ^ r10: .cfa -8 + ^ r4: .cfa -32 + ^ r5: .cfa -28 + ^ r6: .cfa -24 + ^ r7: .cfa -20 + ^ r8: .cfa -16 + ^ r9: .cfa -12 + ^
STACK CFI INIT 83ea4 12c .cfa: sp 0 + .ra: lr
STACK CFI 83ea8 .cfa: sp 36 +
STACK CFI 83eac .cfa: sp 1060 +
STACK CFI 83eb0 .cfa: sp 1072 +
STACK CFI 83ec4 .ra: .cfa -4 + ^ r10: .cfa -12 + ^ r11: .cfa -8 + ^ r4: .cfa -36 + ^ r5: .cfa -32 + ^ r6: .cfa -28 + ^ r7: .cfa -24 + ^ r8: .cfa -20 + ^ r9: .cfa -16 + ^
STACK CFI INIT 83fd0 1a8 .cfa: sp 0 + .ra: lr
STACK CFI 83fd8 .cfa: sp 28 +
STACK CFI 83fe0 .cfa: sp 1052 +
STACK CFI 83fe4 .cfa: sp 1056 +
STACK CFI 83fe8 .ra: .cfa -4 + ^ r10: .cfa -8 + ^ r4: .cfa -28 + ^ r5: .cfa -24 + ^ r6: .cfa -20 + ^ r7: .cfa -16 + ^ r8: .cfa -12 + ^
STACK CFI INIT 84178 3c .cfa: sp 0 + .ra: lr
STACK CFI 8417c .cfa: sp 12 +
STACK CFI 84180 .ra: .cfa -4 + ^ r4: .cfa -12 + ^ r5: .cfa -8 + ^
STACK CFI 84184 .cfa: sp 24 +
STACK CFI INIT 841b4 50 .cfa: sp 0 + .ra: lr
STACK CFI 841b8 .cfa: sp 12 +
STACK CFI 841bc .ra: .cfa -4 + ^ r4: .cfa -12 + ^ r5: .cfa -8 + ^
STACK CFI 841c0 .cfa: sp 32 +
STACK CFI INIT 84204 118 .cfa: sp 0 + .ra: lr
STACK CFI 8420c .cfa: sp 16 +
STACK CFI 84210 r4: .cfa -16 + ^ r5: .cfa -12 + ^ r6: .cfa -8 + ^ r7: .cfa -4 + ^
STACK CFI INIT 8431c 8 .cfa: sp 0 + .ra: lr
STACK CFI INIT 84324 13c .cfa: sp 0 + .ra: lr
STACK CFI 84328 .cfa: sp 16 +
STACK CFI 84338 r4: .cfa -16 + ^ r5: .cfa -12 + ^ r6: .cfa -8 + ^ r7: .cfa -4 + ^
STACK CFI INIT 84460 8 .cfa: sp 0 + .ra: lr
STACK CFI INIT 84468 8 .cfa: sp 0 + .ra: lr
STACK CFI INIT 84470 44 .cfa: sp 0 + .ra: lr
STACK CFI 84474 .cfa: sp 8 +
STACK CFI 8447c .ra: .cfa -4 + ^ r4: .cfa -8 + ^
STACK CFI INIT 844b4 8c .cfa: sp 0 + .ra: lr
STACK CFI 844b8 .cfa: sp 24 +
STACK CFI 844bc .ra: .cfa -4 + ^ r3: .cfa -24 + ^ r4: .cfa -20 + ^ r5: .cfa -16 + ^ r6: .cfa -12 + ^ r7: .cfa -8 + ^
STACK CFI INIT 84540 108 .cfa: sp 0 + .ra: lr
STACK CFI 84544 .cfa: sp 24 +
STACK CFI 84548 .ra: .cfa -4 + ^ r3: .cfa -24 + ^ r4: .cfa -20 + ^ r5: .cfa -16 + ^ r6: .cfa -12 + ^ r7: .cfa -8 + ^
STACK CFI INIT 84648 44 .cfa: sp 0 + .ra: lr
STACK CFI 8464c .cfa: sp 8 +
STACK CFI 84658 .ra: .cfa -4 + ^ r4: .cfa -8 + ^
STACK CFI INIT 8468c 8 .cfa: sp 0 + .ra: lr
STACK CFI INIT 84694 8 .cfa: sp 0 + .ra: lr
STACK CFI INIT 8469c 8 .cfa: sp 0 + .ra: lr
STACK CFI INIT 846a4 8 .cfa: sp 0 + .ra: lr
STACK CFI INIT 846ac 8 .cfa: sp 0 + .ra: lr
STACK CFI INIT 846b4 8 .cfa: sp 0 + .ra: lr
STACK CFI INIT 846bc 8 .cfa: sp 0 + .ra: lr
STACK CFI INIT 846c4 64 .cfa: sp 0 + .ra: lr
STACK CFI 846cc .cfa: sp 8 +
STACK CFI 846d4 .ra: .cfa -4 + ^ r4: .cfa -8 + ^
STACK CFI INIT 84728 40 .cfa: sp 0 + .ra: lr
STACK CFI 8472c .cfa: sp 16 +
STACK CFI 84738 .ra: .cfa -4 + ^ r3: .cfa -16 + ^ r4: .cfa -12 + ^ r5: .cfa -8 + ^
STACK CFI INIT 84768 208 .cfa: sp 0 + .ra: lr
STACK CFI 8476c .cfa: sp 36 +
STACK CFI 84770 .cfa: sp 112 +
STACK CFI 84780 .ra: .cfa -4 + ^ r10: .cfa -12 + ^ r11: .cfa -8 + ^ r4: .cfa -36 + ^ r5: .cfa -32 + ^ r6: .cfa -28 + ^ r7: .cfa -24 + ^ r8: .cfa -20 + ^ r9: .cfa -16 + ^
STACK CFI INIT 84970 204 .cfa: sp 0 + .ra: lr
STACK CFI 84974 .cfa: sp 36 +
STACK CFI 84978 .cfa: r11 4 + .ra: .cfa -4 + ^ r10: .cfa -12 + ^ r11: .cfa -8 + ^ r4: .cfa -36 + ^ r5: .cfa -32 + ^ r6: .cfa -28 + ^ r7: .cfa -24 + ^ r8: .cfa -20 + ^ r9: .cfa -16 + ^
STACK CFI INIT 84b74 178 .cfa: sp 0 + .ra: lr
STACK CFI 84b78 .cfa: sp 28 +
STACK CFI 84b7c .ra: .cfa -4 + ^ r10: .cfa -8 + ^ r4: .cfa -28 + ^ r5: .cfa -24 + ^ r6: .cfa -20 + ^ r7: .cfa -16 + ^ r8: .cfa -12 + ^
STACK CFI 84b84 .cfa: sp 40 +
STACK CFI INIT 84cec 50 .cfa: sp 0 + .ra: lr
STACK CFI 84cf0 .cfa: sp 8 +
STACK CFI 84cf4 r4: .cfa -8 + ^ r5: .cfa -4 + ^
STACK CFI INIT 84d3c 8 .cfa: sp 0 + .ra: lr
STACK CFI INIT 84d44 8 .cfa: sp 0 + .ra: lr
STACK CFI INIT 84d4c 34 .cfa: sp 0 + .ra: lr
STACK CFI 84d54 .cfa: sp 8 +
STACK CFI 84d5c .ra: .cfa -4 + ^ r3: .cfa -8 + ^
STACK CFI INIT 84d80 30 .cfa: sp 0 + .ra: lr
STACK CFI 84d84 .cfa: sp 8 +
STACK CFI 84d88 .ra: .cfa -4 + ^ r3: .cfa -8 + ^
STACK CFI INIT 84db0 34 .cfa: sp 0 + .ra: lr
STACK CFI 84db8 .cfa: sp 8 +
STACK CFI 84dc0 .ra: .cfa -4 + ^ r3: .cfa -8 + ^
STACK CFI INIT 84de4 40 .cfa: sp 0 + .ra: lr
STACK CFI 84de8 .cfa: sp 8 +
STACK CFI 84dec r4: .cfa -8 + ^ r5: .cfa -4 + ^
STACK CFI INIT 84e24 38 .cfa: sp 0 + .ra: lr
STACK CFI 84e34 .cfa: sp 4 +
STACK CFI 84e38 r4: .cfa -4 + ^
STACK CFI INIT 84e5c 58 .cfa: sp 0 + .ra: lr
STACK CFI 84e60 .cfa: sp 20 +
STACK CFI 84e64 .ra: .cfa -4 + ^ r4: .cfa -20 + ^ r5: .cfa -16 + ^ r6: .cfa -12 + ^ r7: .cfa -8 + ^
STACK CFI 84e68 .cfa: sp 40 +
STACK CFI INIT 84eb4 b0 .cfa: sp 0 + .ra: lr
STACK CFI 84eb8 .cfa: sp 16 +
STACK CFI 84ec0 .cfa: sp 32 +
STACK CFI 84ec8 .ra: .cfa -4 + ^ r4: .cfa -16 + ^ r5: .cfa -12 + ^ r6: .cfa -8 + ^
STACK CFI INIT 84f64 48 .cfa: sp 0 + .ra: lr
STACK CFI 84f68 .cfa: sp 8 +
STACK CFI 84f6c r4: .cfa -8 + ^ r5: .cfa -4 + ^
STACK CFI INIT 84fac 54 .cfa: sp 0 + .ra: lr
STACK CFI 84fbc .cfa: sp 8 +
STACK CFI 84fc0 r4: .cfa -8 + ^ r5: .cfa -4 + ^
STACK CFI INIT 85000 58 .cfa: sp 0 + .ra: lr
STACK CFI 85004 .cfa: sp 20 +
STACK CFI 85008 .ra: .cfa -4 + ^ r4: .cfa -20 + ^ r5: .cfa -16 + ^ r6: .cfa -12 + ^ r7: .cfa -8 + ^
STACK CFI 8500c .cfa: sp 40 +
STACK CFI INIT 85058 c8 .cfa: sp 0 + .ra: lr
STACK CFI 8505c .cfa: sp 20 +
STACK CFI 85064 .cfa: sp 40 +
STACK CFI 8506c .ra: .cfa -4 + ^ r4: .cfa -20 + ^ r5: .cfa -16 + ^ r6: .cfa -12 + ^ r7: .cfa -8 + ^
STACK CFI INIT 85120 3c .cfa: sp 0 + .ra: lr
STACK CFI 85128 .cfa: sp 8 +
STACK CFI 8512c r4: .cfa -8 + ^ r5: .cfa -4 + ^
STACK CFI INIT 8515c 34 .cfa: sp 0 + .ra: lr
STACK CFI 85164 .cfa: sp 4 +
STACK CFI 85170 r4: .cfa -4 + ^
STACK CFI INIT 85190 58 .cfa: sp 0 + .ra: lr
STACK CFI 85194 .cfa: sp 20 +
STACK CFI 85198 .ra: .cfa -4 + ^ r4: .cfa -20 + ^ r5: .cfa -16 + ^ r6: .cfa -12 + ^ r7: .cfa -8 + ^
STACK CFI 8519c .cfa: sp 40 +
STACK CFI INIT 851e8 ac .cfa: sp 0 + .ra: lr
STACK CFI 851ec .cfa: sp 16 +
STACK CFI 851f4 .cfa: sp 32 +
STACK CFI 851fc .ra: .cfa -4 + ^ r4: .cfa -16 + ^ r5: .cfa -12 + ^ r6: .cfa -8 + ^
STACK CFI INIT 85294 34 .cfa: sp 0 + .ra: lr
STACK CFI 85298 .cfa: sp 8 +
STACK CFI 852a0 .ra: .cfa -4 + ^ r4: .cfa -8 + ^
STACK CFI 852a8 .cfa: sp 16 +
STACK CFI INIT 852c8 1ec .cfa: sp 0 + .ra: lr
STACK CFI 852cc .cfa: sp 36 +
STACK CFI 852d0 .ra: .cfa -4 + ^ r10: .cfa -12 + ^ r11: .cfa -8 + ^ r4: .cfa -36 + ^ r5: .cfa -32 + ^ r6: .cfa -28 + ^ r7: .cfa -24 + ^ r8: .cfa -20 + ^ r9: .cfa -16 + ^
STACK CFI 852dc .cfa: sp 80 +
STACK CFI INIT 854b4 114 .cfa: sp 0 + .ra: lr
STACK CFI INIT 855c8 44 .cfa: sp 0 + .ra: lr
STACK CFI 855cc .cfa: sp 16 +
STACK CFI 855d0 .ra: .cfa -4 + ^ r4: .cfa -16 + ^ r5: .cfa -12 + ^ r6: .cfa -8 + ^
STACK CFI INIT 8560c b4 .cfa: sp 0 + .ra: lr
STACK CFI 85610 .cfa: sp 24 +
STACK CFI 85614 .ra: .cfa -4 + ^ r3: .cfa -24 + ^ r4: .cfa -20 + ^ r5: .cfa -16 + ^ r6: .cfa -12 + ^ r7: .cfa -8 + ^
STACK CFI INIT 856c0 60 .cfa: sp 0 + .ra: lr
STACK CFI 856c4 .cfa: sp 24 +
STACK CFI 856c8 .ra: .cfa -4 + ^ r3: .cfa -24 + ^ r4: .cfa -20 + ^ r5: .cfa -16 + ^ r6: .cfa -12 + ^ r7: .cfa -8 + ^
STACK CFI INIT 85720 1ac .cfa: sp 0 + .ra: lr
STACK CFI 85724 .cfa: sp 40 +
STACK CFI 85728 .ra: .cfa -4 + ^ r10: .cfa -12 + ^ r11: .cfa -8 + ^ r3: .cfa -40 + ^ r4: .cfa -36 + ^ r5: .cfa -32 + ^ r6: .cfa -28 + ^ r7: .cfa -24 + ^ r8: .cfa -20 + ^ r9: .cfa -16 + ^
STACK CFI INIT 858cc 270 .cfa: sp 0 + .ra: lr
STACK CFI 858d0 .cfa: sp 36 +
STACK CFI 858d4 .cfa: sp 72 +
STACK CFI 858dc .ra: .cfa -4 + ^ r10: .cfa -12 + ^ r11: .cfa -8 + ^ r4: .cfa -36 + ^ r5: .cfa -32 + ^ r6: .cfa -28 + ^ r7: .cfa -24 + ^ r8: .cfa -20 + ^ r9: .cfa -16 + ^
STACK CFI INIT 85b3c 68c .cfa: sp 0 + .ra: lr
STACK CFI 85b40 .cfa: sp 36 +
STACK CFI 85b44 .ra: .cfa -4 + ^ r10: .cfa -12 + ^ r11: .cfa -8 + ^ r4: .cfa -36 + ^ r5: .cfa -32 + ^ r6: .cfa -28 + ^ r7: .cfa -24 + ^ r8: .cfa -20 + ^ r9: .cfa -16 + ^
STACK CFI 85b4c .cfa: sp 200 +
STACK CFI INIT 861c8 a0 .cfa: sp 0 + .ra: lr
STACK CFI 861cc .cfa: sp 24 +
STACK CFI 861d0 .ra: .cfa -4 + ^ r3: .cfa -24 + ^ r4: .cfa -20 + ^ r5: .cfa -16 + ^ r6: .cfa -12 + ^ r7: .cfa -8 + ^
STACK CFI INIT 86268 144 .cfa: sp 0 + .ra: lr
STACK CFI 8626c .cfa: sp 24 +
STACK CFI 86270 .ra: .cfa -4 + ^ r4: .cfa -24 + ^ r5: .cfa -20 + ^ r6: .cfa -16 + ^ r7: .cfa -12 + ^ r8: .cfa -8 + ^
STACK CFI INIT 863ac 24 .cfa: sp 0 + .ra: lr
STACK CFI INIT 863d0 5c .cfa: sp 0 + .ra: lr
STACK CFI 863d4 .cfa: sp 24 +
STACK CFI 863d8 .ra: .cfa -4 + ^ r4: .cfa -24 + ^ r5: .cfa -20 + ^ r6: .cfa -16 + ^ r7: .cfa -12 + ^ r8: .cfa -8 + ^
STACK CFI INIT 8642c 10 .cfa: sp 0 + .ra: lr
STACK CFI INIT 8643c 18 .cfa: sp 0 + .ra: lr
STACK CFI INIT 86454 6c .cfa: sp 0 + .ra: lr
STACK CFI 86458 .cfa: sp 8 +
STACK CFI 8645c .ra: .cfa -4 + ^ r4: .cfa -8 + ^
STACK CFI INIT 864c0 c .cfa: sp 0 + .ra: lr
STACK CFI INIT 864cc 70 .cfa: sp 0 + .ra: lr
STACK CFI 864d4 .cfa: sp 8 +
STACK CFI 864d8 .ra: .cfa -4 + ^ r4: .cfa -8 + ^
STACK CFI INIT 8653c 8 .cfa: sp 0 + .ra: lr
STACK CFI INIT 86544 8 .cfa: sp 0 + .ra: lr
STACK CFI INIT 8654c 8 .cfa: sp 0 + .ra: lr
STACK CFI INIT 86554 48 .cfa: sp 0 + .ra: lr
STACK CFI 86558 .cfa: sp 8 +
STACK CFI 8655c .ra: .cfa -4 + ^ r3: .cfa -8 + ^
STACK CFI INIT 8659c 154 .cfa: sp 0 + .ra: lr
STACK CFI 865a0 .cfa: sp 24 +
STACK CFI 865a4 .ra: .cfa -4 + ^ r4: .cfa -24 + ^ r5: .cfa -20 + ^ r6: .cfa -16 + ^ r7: .cfa -12 + ^ r8: .cfa -8 + ^
STACK CFI 865b4 .cfa: sp 200 +
STACK CFI INIT 866f0 b0 .cfa: sp 0 + .ra: lr
STACK CFI 866f4 .cfa: sp 12 +
STACK CFI 866f8 .cfa: sp 192 +
STACK CFI 866fc .ra: .cfa -4 + ^ r4: .cfa -12 + ^ r5: .cfa -8 + ^
STACK CFI INIT 867a0 264 .cfa: sp 0 + .ra: lr
STACK CFI 867a8 .cfa: sp 24 +
STACK CFI 867ac .ra: .cfa -4 + ^ r4: .cfa -24 + ^ r5: .cfa -20 + ^ r6: .cfa -16 + ^ r7: .cfa -12 + ^ r8: .cfa -8 + ^
STACK CFI 867c0 .cfa: sp 200 +
STACK CFI INIT 86a04 6c .cfa: sp 0 + .ra: lr
STACK CFI 86a08 .cfa: sp 16 +
STACK CFI 86a10 .ra: .cfa -4 + ^ r3: .cfa -16 + ^ r4: .cfa -12 + ^ r5: .cfa -8 + ^
STACK CFI INIT 86a70 2b4 .cfa: sp 0 + .ra: lr
STACK CFI 86a74 .cfa: sp 32 +
STACK CFI 86a78 .cfa: sp 480 +
STACK CFI 86a7c .ra: .cfa -4 + ^ r10: .cfa -8 + ^ r4: .cfa -32 + ^ r5: .cfa -28 + ^ r6: .cfa -24 + ^ r7: .cfa -20 + ^ r8: .cfa -16 + ^ r9: .cfa -12 + ^
STACK CFI INIT 86d24 8 .cfa: sp 0 + .ra: lr
STACK CFI INIT 86d2c 8 .cfa: sp 0 + .ra: lr
STACK CFI INIT 86d34 8 .cfa: sp 0 + .ra: lr
STACK CFI INIT 86d3c 20 .cfa: sp 0 + .ra: lr
STACK CFI INIT 86d5c 8 .cfa: sp 0 + .ra: lr
STACK CFI INIT 86d64 54 .cfa: sp 0 + .ra: lr
STACK CFI 86d68 .cfa: sp 4 +
STACK CFI 86d6c .cfa: sp 16 +
STACK CFI 86d80 .ra: .cfa -4 + ^
STACK CFI INIT 86db8 18 .cfa: sp 0 + .ra: lr
STACK CFI 86dbc .cfa: sp 8 +
STACK CFI 86dc4 .ra: .cfa -4 + ^ r3: .cfa -8 + ^
STACK CFI INIT 86dd0 d4 .cfa: sp 0 + .ra: lr
STACK CFI 86dd4 .cfa: sp 20 +
STACK CFI 86ddc .cfa: sp 32 +
STACK CFI 86de0 .ra: .cfa -4 + ^ r4: .cfa -20 + ^ r5: .cfa -16 + ^ r6: .cfa -12 + ^ r7: .cfa -8 + ^
STACK CFI INIT 86ea4 25c .cfa: sp 0 + .ra: lr
STACK CFI 86eb4 .cfa: sp 36 +
STACK CFI 86eb8 .ra: .cfa -4 + ^ r10: .cfa -12 + ^ r11: .cfa -8 + ^ r4: .cfa -36 + ^ r5: .cfa -32 + ^ r6: .cfa -28 + ^ r7: .cfa -24 + ^ r8: .cfa -20 + ^ r9: .cfa -16 + ^
STACK CFI 86ebc .cfa: sp 64 +
STACK CFI INIT 87100 158 .cfa: sp 0 + .ra: lr
STACK CFI 87104 .cfa: sp 16 +
STACK CFI 8710c .ra: .cfa -4 + ^ r4: .cfa -16 + ^ r5: .cfa -12 + ^ r6: .cfa -8 + ^
STACK CFI INIT 87258 6c .cfa: sp 0 + .ra: lr
STACK CFI 8725c .cfa: sp 16 +
STACK CFI 87260 .ra: .cfa -4 + ^ r4: .cfa -16 + ^ r5: .cfa -12 + ^ r6: .cfa -8 + ^
STACK CFI INIT 872c4 1ac .cfa: sp 0 + .ra: lr
STACK CFI 872c8 .cfa: sp 24 +
STACK CFI 872cc .ra: .cfa -4 + ^ r3: .cfa -24 + ^ r4: .cfa -20 + ^ r5: .cfa -16 + ^ r6: .cfa -12 + ^ r7: .cfa -8 + ^
STACK CFI INIT 87470 10c .cfa: sp 0 + .ra: lr
STACK CFI 87474 .cfa: sp 24 +
STACK CFI 87478 .ra: .cfa -4 + ^ r3: .cfa -24 + ^ r4: .cfa -20 + ^ r5: .cfa -16 + ^ r6: .cfa -12 + ^ r7: .cfa -8 + ^
STACK CFI INIT 8757c 138 .cfa: sp 0 + .ra: lr
STACK CFI 87580 .cfa: sp 24 +
STACK CFI 87584 .ra: .cfa -4 + ^ r4: .cfa -24 + ^ r5: .cfa -20 + ^ r6: .cfa -16 + ^ r7: .cfa -12 + ^ r8: .cfa -8 + ^
STACK CFI INIT 876b4 10c .cfa: sp 0 + .ra: lr
STACK CFI 876b8 .cfa: sp 24 +
STACK CFI 876bc .ra: .cfa -4 + ^ r3: .cfa -24 + ^ r4: .cfa -20 + ^ r5: .cfa -16 + ^ r6: .cfa -12 + ^ r7: .cfa -8 + ^
STACK CFI INIT 877c0 10c .cfa: sp 0 + .ra: lr
STACK CFI 877c4 .cfa: sp 24 +
STACK CFI 877c8 .ra: .cfa -4 + ^ r3: .cfa -24 + ^ r4: .cfa -20 + ^ r5: .cfa -16 + ^ r6: .cfa -12 + ^ r7: .cfa -8 + ^
STACK CFI INIT 878cc 3a4 .cfa: sp 0 + .ra: lr
STACK CFI 878d0 .cfa: sp 36 +
STACK CFI 878d4 .ra: .cfa -4 + ^ r10: .cfa -12 + ^ r11: .cfa -8 + ^ r4: .cfa -36 + ^ r5: .cfa -32 + ^ r6: .cfa -28 + ^ r7: .cfa -24 + ^ r8: .cfa -20 + ^ r9: .cfa -16 + ^
STACK CFI 878e8 .cfa: sp 64 +
STACK CFI INIT 87c70 2a0 .cfa: sp 0 + .ra: lr
STACK CFI 87c74 .cfa: sp 32 +
STACK CFI 87c78 .ra: .cfa -4 + ^ r10: .cfa -8 + ^ r4: .cfa -32 + ^ r5: .cfa -28 + ^ r6: .cfa -24 + ^ r7: .cfa -20 + ^ r8: .cfa -16 + ^ r9: .cfa -12 + ^
STACK CFI 87c88 .cfa: sp 56 +
STACK CFI INIT 87f10 10c .cfa: sp 0 + .ra: lr
STACK CFI 87f18 .cfa: sp 4 +
STACK CFI 87f24 r4: .cfa -4 + ^
STACK CFI INIT 8801c ec .cfa: sp 0 + .ra: lr
STACK CFI 88020 .cfa: sp 24 +
STACK CFI 88024 .ra: .cfa -4 + ^ r4: .cfa -24 + ^ r5: .cfa -20 + ^ r6: .cfa -16 + ^ r7: .cfa -12 + ^ r8: .cfa -8 + ^
STACK CFI INIT 88108 90 .cfa: sp 0 + .ra: lr
STACK CFI 8810c .cfa: sp 24 +
STACK CFI 88110 .ra: .cfa -4 + ^ r3: .cfa -24 + ^ r4: .cfa -20 + ^ r5: .cfa -16 + ^ r6: .cfa -12 + ^ r7: .cfa -8 + ^
STACK CFI INIT 88198 144 .cfa: sp 0 + .ra: lr
STACK CFI 8819c .cfa: sp 20 +
STACK CFI 881a0 .ra: .cfa -4 + ^ r4: .cfa -20 + ^ r5: .cfa -16 + ^ r6: .cfa -12 + ^ r7: .cfa -8 + ^
STACK CFI 881ac .cfa: sp 32 +
STACK CFI INIT 882dc 60 .cfa: sp 0 + .ra: lr
STACK CFI 882e0 .cfa: sp 24 +
STACK CFI 882e4 .ra: .cfa -4 + ^ r3: .cfa -24 + ^ r4: .cfa -20 + ^ r5: .cfa -16 + ^ r6: .cfa -12 + ^ r7: .cfa -8 + ^
STACK CFI INIT 8833c 60 .cfa: sp 0 + .ra: lr
STACK CFI 88340 .cfa: sp 24 +
STACK CFI 88344 .ra: .cfa -4 + ^ r3: .cfa -24 + ^ r4: .cfa -20 + ^ r5: .cfa -16 + ^ r6: .cfa -12 + ^ r7: .cfa -8 + ^
STACK CFI INIT 8839c 168 .cfa: sp 0 + .ra: lr
STACK CFI 883a0 .cfa: sp 16 +
STACK CFI 883a4 .ra: .cfa -4 + ^ r4: .cfa -16 + ^ r5: .cfa -12 + ^ r6: .cfa -8 + ^
STACK CFI 883a8 .cfa: sp 24 +
STACK CFI INIT 88504 f4 .cfa: sp 0 + .ra: lr
STACK CFI 88508 .cfa: sp 24 +
STACK CFI 8850c .ra: .cfa -4 + ^ r3: .cfa -24 + ^ r4: .cfa -20 + ^ r5: .cfa -16 + ^ r6: .cfa -12 + ^ r7: .cfa -8 + ^
STACK CFI INIT 885f8 40 .cfa: sp 0 + .ra: lr
STACK CFI 885fc .cfa: sp 4 +
STACK CFI 88600 .cfa: sp 16 +
STACK CFI 88624 .ra: .cfa -4 + ^
STACK CFI INIT 88638 60 .cfa: sp 0 + .ra: lr
STACK CFI 8863c .cfa: sp 4 +
STACK CFI 88644 .cfa: sp 184 +
STACK CFI 88648 .ra: .cfa -4 + ^
STACK CFI INIT 88698 6c .cfa: sp 0 + .ra: lr
STACK CFI 886ac .cfa: sp 8 +
STACK CFI 886c8 .cfa: sp 40 +
STACK CFI 886cc .ra: .cfa -4 + ^ r4: .cfa -8 + ^
STACK CFI INIT 88704 60 .cfa: sp 0 + .ra: lr
STACK CFI 8870c .cfa: sp 16 +
STACK CFI 88714 .cfa: sp 48 +
STACK CFI 88718 .ra: .cfa -4 + ^ r4: .cfa -16 + ^ r5: .cfa -12 + ^ r6: .cfa -8 + ^
STACK CFI INIT 88764 c .cfa: sp 0 + .ra: lr
STACK CFI INIT 88770 5c .cfa: sp 0 + .ra: lr
STACK CFI 88784 .cfa: sp 8 +
STACK CFI 88794 .cfa: sp 40 +
STACK CFI 8879c .ra: .cfa -4 + ^ r4: .cfa -8 + ^
STACK CFI INIT 887cc 68 .cfa: sp 0 + .ra: lr
STACK CFI 887d4 .cfa: sp 16 +
STACK CFI 887dc .cfa: sp 48 +
STACK CFI 887e4 .ra: .cfa -4 + ^ r4: .cfa -16 + ^ r5: .cfa -12 + ^ r6: .cfa -8 + ^
STACK CFI INIT 88834 c0 .cfa: sp 0 + .ra: lr
STACK CFI 88838 .cfa: sp 32 +
STACK CFI 8883c .ra: .cfa -4 + ^ r10: .cfa -8 + ^ r3: .cfa -32 + ^ r4: .cfa -28 + ^ r5: .cfa -24 + ^ r6: .cfa -20 + ^ r7: .cfa -16 + ^ r8: .cfa -12 + ^
STACK CFI INIT 888f4 34 .cfa: sp 0 + .ra: lr
STACK CFI INIT 88928 5c .cfa: sp 0 + .ra: lr
STACK CFI 8892c .cfa: sp 8 +
STACK CFI 88934 .cfa: sp 80 +
STACK CFI 88938 .ra: .cfa -4 + ^ r4: .cfa -8 + ^
STACK CFI INIT 88984 174 .cfa: sp 0 + .ra: lr
STACK CFI 88988 .cfa: sp 32 +
STACK CFI 8898c .ra: .cfa -4 + ^ r10: .cfa -8 + ^ r4: .cfa -32 + ^ r5: .cfa -28 + ^ r6: .cfa -24 + ^ r7: .cfa -20 + ^ r8: .cfa -16 + ^ r9: .cfa -12 + ^
STACK CFI 88990 .cfa: sp 40 +
STACK CFI INIT 88af8 138 .cfa: sp 0 + .ra: lr
STACK CFI 88afc .cfa: sp 24 +
STACK CFI 88b00 .cfa: sp 96 +
STACK CFI 88b04 .ra: .cfa -4 + ^ r4: .cfa -24 + ^ r5: .cfa -20 + ^ r6: .cfa -16 + ^ r7: .cfa -12 + ^ r8: .cfa -8 + ^
STACK CFI INIT 88c30 d0 .cfa: sp 0 + .ra: lr
STACK CFI 88c34 .cfa: sp 32 +
STACK CFI 88c38 .ra: .cfa -4 + ^ r10: .cfa -8 + ^ r4: .cfa -32 + ^ r5: .cfa -28 + ^ r6: .cfa -24 + ^ r7: .cfa -20 + ^ r8: .cfa -16 + ^ r9: .cfa -12 + ^
STACK CFI INIT 88d00 cc .cfa: sp 0 + .ra: lr
STACK CFI 88d04 .cfa: sp 32 +
STACK CFI 88d08 .ra: .cfa -4 + ^ r10: .cfa -8 + ^ r3: .cfa -32 + ^ r4: .cfa -28 + ^ r5: .cfa -24 + ^ r6: .cfa -20 + ^ r7: .cfa -16 + ^ r8: .cfa -12 + ^
STACK CFI INIT 88dcc 4c .cfa: sp 0 + .ra: lr
STACK CFI 88dd0 .cfa: sp 16 +
STACK CFI 88dd4 .ra: .cfa -4 + ^ r4: .cfa -16 + ^ r5: .cfa -12 + ^ r6: .cfa -8 + ^
STACK CFI INIT 88e18 10c .cfa: sp 0 + .ra: lr
STACK CFI 88e1c .cfa: sp 24 +
STACK CFI 88e20 .ra: .cfa -4 + ^ r4: .cfa -24 + ^ r5: .cfa -20 + ^ r6: .cfa -16 + ^ r7: .cfa -12 + ^ r8: .cfa -8 + ^
STACK CFI 88e2c .cfa: sp 48 +
STACK CFI INIT 88f24 f8 .cfa: sp 0 + .ra: lr
STACK CFI 88f28 .cfa: sp 24 +
STACK CFI 88f2c .cfa: sp 48 +
STACK CFI 88f30 .ra: .cfa -4 + ^ r4: .cfa -24 + ^ r5: .cfa -20 + ^ r6: .cfa -16 + ^ r7: .cfa -12 + ^ r8: .cfa -8 + ^
STACK CFI INIT 8901c 8 .cfa: sp 0 + .ra: lr
STACK CFI INIT 89024 3fc .cfa: sp 0 + .ra: lr
STACK CFI 89028 .cfa: sp 36 +
STACK CFI 8902c .cfa: sp 128 +
STACK CFI 89030 .ra: .cfa -4 + ^ r10: .cfa -12 + ^ r11: .cfa -8 + ^ r4: .cfa -36 + ^ r5: .cfa -32 + ^ r6: .cfa -28 + ^ r7: .cfa -24 + ^ r8: .cfa -20 + ^ r9: .cfa -16 + ^
STACK CFI INIT 89420 31c .cfa: sp 0 + .ra: lr
STACK CFI 89424 .cfa: sp 32 +
STACK CFI 89428 .cfa: sp 112 +
STACK CFI 8942c .ra: .cfa -4 + ^ r10: .cfa -8 + ^ r4: .cfa -32 + ^ r5: .cfa -28 + ^ r6: .cfa -24 + ^ r7: .cfa -20 + ^ r8: .cfa -16 + ^ r9: .cfa -12 + ^
STACK CFI INIT 8973c 90 .cfa: sp 0 + .ra: lr
STACK CFI 89740 .cfa: sp 16 +
STACK CFI 89744 .ra: .cfa -4 + ^ r3: .cfa -16 + ^ r4: .cfa -12 + ^ r5: .cfa -8 + ^
STACK CFI INIT 897cc 910 .cfa: sp 0 + .ra: lr
STACK CFI 897d0 .cfa: sp 36 +
STACK CFI 897d8 .ra: .cfa -4 + ^ r10: .cfa -12 + ^ r11: .cfa -8 + ^ r4: .cfa -36 + ^ r5: .cfa -32 + ^ r6: .cfa -28 + ^ r7: .cfa -24 + ^ r8: .cfa -20 + ^ r9: .cfa -16 + ^
STACK CFI 897e0 .cfa: sp 240 +
STACK CFI INIT 8a0dc b0 .cfa: sp 0 + .ra: lr
STACK CFI 8a0e0 .cfa: sp 24 +
STACK CFI 8a0e4 .ra: .cfa -4 + ^ r4: .cfa -24 + ^ r5: .cfa -20 + ^ r6: .cfa -16 + ^ r7: .cfa -12 + ^ r8: .cfa -8 + ^
STACK CFI INIT 8a18c 94 .cfa: sp 0 + .ra: lr
STACK CFI 8a190 .cfa: sp 24 +
STACK CFI 8a194 .ra: .cfa -4 + ^ r4: .cfa -24 + ^ r5: .cfa -20 + ^ r6: .cfa -16 + ^ r7: .cfa -12 + ^ r8: .cfa -8 + ^
STACK CFI INIT 8a220 eb0 .cfa: sp 0 + .ra: lr
STACK CFI 8a224 .cfa: sp 36 +
STACK CFI 8a228 .ra: .cfa -4 + ^ r10: .cfa -12 + ^ r11: .cfa -8 + ^ r4: .cfa -36 + ^ r5: .cfa -32 + ^ r6: .cfa -28 + ^ r7: .cfa -24 + ^ r8: .cfa -20 + ^ r9: .cfa -16 + ^
STACK CFI 8a22c .cfa: r11 4 +
STACK CFI INIT 8b0d0 ac .cfa: sp 0 + .ra: lr
STACK CFI 8b0d4 .cfa: sp 24 +
STACK CFI 8b0d8 .ra: .cfa -4 + ^ r3: .cfa -24 + ^ r4: .cfa -20 + ^ r5: .cfa -16 + ^ r6: .cfa -12 + ^ r7: .cfa -8 + ^
STACK CFI INIT 8b17c d0 .cfa: sp 0 + .ra: lr
STACK CFI 8b180 .cfa: sp 16 +
STACK CFI 8b184 .ra: .cfa -4 + ^ r4: .cfa -16 + ^ r5: .cfa -12 + ^ r6: .cfa -8 + ^
STACK CFI 8b188 .cfa: sp 24 +
STACK CFI INIT 8b24c a18 .cfa: sp 0 + .ra: lr
STACK CFI 8b250 .cfa: sp 36 +
STACK CFI 8b254 .ra: .cfa -4 + ^ r10: .cfa -12 + ^ r11: .cfa -8 + ^ r4: .cfa -36 + ^ r5: .cfa -32 + ^ r6: .cfa -28 + ^ r7: .cfa -24 + ^ r8: .cfa -20 + ^ r9: .cfa -16 + ^
STACK CFI 8b258 .cfa: sp 152 +
STACK CFI INIT 8bc64 4c .cfa: sp 0 + .ra: lr
STACK CFI 8bc68 .cfa: sp 24 +
STACK CFI 8bc6c .ra: .cfa -4 + ^ r3: .cfa -24 + ^ r4: .cfa -20 + ^ r5: .cfa -16 + ^ r6: .cfa -12 + ^ r7: .cfa -8 + ^
STACK CFI INIT 8bcb0 64 .cfa: sp 0 + .ra: lr
STACK CFI 8bcb4 .cfa: sp 32 +
STACK CFI 8bcb8 .ra: .cfa -4 + ^ r10: .cfa -8 + ^ r4: .cfa -32 + ^ r5: .cfa -28 + ^ r6: .cfa -24 + ^ r7: .cfa -20 + ^ r8: .cfa -16 + ^ r9: .cfa -12 + ^
STACK CFI INIT 8bd14 58 .cfa: sp 0 + .ra: lr
STACK CFI 8bd18 .cfa: sp 24 +
STACK CFI 8bd1c .ra: .cfa -4 + ^ r3: .cfa -24 + ^ r4: .cfa -20 + ^ r5: .cfa -16 + ^ r6: .cfa -12 + ^ r7: .cfa -8 + ^
STACK CFI INIT 8bd6c c8 .cfa: sp 0 + .ra: lr
STACK CFI 8bd74 .cfa: sp 8 +
STACK CFI 8bd7c .cfa: sp 16 +
STACK CFI 8bd80 .ra: .cfa -4 + ^ r4: .cfa -8 + ^
STACK CFI INIT 8be34 144 .cfa: sp 0 + .ra: lr
STACK CFI 8be38 .cfa: sp 20 +
STACK CFI 8be3c .ra: .cfa -4 + ^ r4: .cfa -20 + ^ r5: .cfa -16 + ^ r6: .cfa -12 + ^ r7: .cfa -8 + ^
STACK CFI 8be40 .cfa: sp 80 +
STACK CFI INIT 8bf78 14c .cfa: sp 0 + .ra: lr
STACK CFI 8bf7c .cfa: sp 24 +
STACK CFI 8bf80 .ra: .cfa -4 + ^ r4: .cfa -24 + ^ r5: .cfa -20 + ^ r6: .cfa -16 + ^ r7: .cfa -12 + ^ r8: .cfa -8 + ^
STACK CFI 8bf84 .cfa: sp 80 +
STACK CFI INIT 8c0c4 56c .cfa: sp 0 + .ra: lr
STACK CFI 8c0c8 .cfa: sp 36 +
STACK CFI 8c0cc .ra: .cfa -4 + ^ r10: .cfa -12 + ^ r11: .cfa -8 + ^ r4: .cfa -36 + ^ r5: .cfa -32 + ^ r6: .cfa -28 + ^ r7: .cfa -24 + ^ r8: .cfa -20 + ^ r9: .cfa -16 + ^
STACK CFI 8c0d4 .cfa: sp 152 +
STACK CFI INIT 8d0a0 168 .cfa: sp 0 + .ra: lr
STACK CFI 8d0a4 .cfa: sp 16 +
STACK CFI 8d0ac .ra: .cfa -4 + ^ r4: .cfa -16 + ^ r5: .cfa -12 + ^ r6: .cfa -8 + ^
STACK CFI 8d0b0 .cfa: sp 24 +
STACK CFI INIT 8c630 40 .cfa: sp 0 + .ra: lr
STACK CFI 8c634 .cfa: sp 4 +
STACK CFI 8c638 .cfa: sp 16 +
STACK CFI 8c65c .ra: .cfa -4 + ^
STACK CFI INIT 8c670 174 .cfa: sp 0 + .ra: lr
STACK CFI 8c674 .cfa: sp 24 +
STACK CFI 8c678 .cfa: sp 32 +
STACK CFI 8c67c .ra: .cfa -4 + ^ r4: .cfa -24 + ^ r5: .cfa -20 + ^ r6: .cfa -16 + ^ r7: .cfa -12 + ^ r8: .cfa -8 + ^
STACK CFI INIT 8c7e4 380 .cfa: sp 0 + .ra: lr
STACK CFI 8c7e8 .cfa: sp 20 +
STACK CFI 8c7ec .ra: .cfa -4 + ^ r4: .cfa -20 + ^ r5: .cfa -16 + ^ r6: .cfa -12 + ^ r7: .cfa -8 + ^
STACK CFI 8c7fc .cfa: sp 32 +
STACK CFI INIT 4c03c 58 .cfa: sp 0 + .ra: lr
STACK CFI 4c044 .cfa: sp 8 +
STACK CFI 4c048 .ra: .cfa -4 + ^ r4: .cfa -8 + ^
STACK CFI INIT 8d208 88 .cfa: sp 0 + .ra: lr
STACK CFI 8d20c .cfa: sp 16 +
STACK CFI 8d210 .ra: .cfa -4 + ^ r3: .cfa -16 + ^ r4: .cfa -12 + ^ r5: .cfa -8 + ^
STACK CFI INIT 8d290 90 .cfa: sp 0 + .ra: lr
STACK CFI 8d294 .cfa: sp 16 +
STACK CFI 8d298 .ra: .cfa -4 + ^ r3: .cfa -16 + ^ r4: .cfa -12 + ^ r5: .cfa -8 + ^
STACK CFI INIT 4c094 60 .cfa: sp 0 + .ra: lr
STACK CFI 4c09c .cfa: sp 8 +
STACK CFI 4c0a0 .ra: .cfa -4 + ^ r4: .cfa -8 + ^
STACK CFI INIT 8cb64 390 .cfa: sp 0 + .ra: lr
STACK CFI 8cb68 .cfa: sp 32 +
STACK CFI 8cb6c .ra: .cfa -4 + ^ r10: .cfa -8 + ^ r4: .cfa -32 + ^ r5: .cfa -28 + ^ r6: .cfa -24 + ^ r7: .cfa -20 + ^ r8: .cfa -16 + ^ r9: .cfa -12 + ^
STACK CFI 8cb80 .cfa: sp 40 +
STACK CFI INIT 8cef4 1ac .cfa: sp 0 + .ra: lr
STACK CFI 8cef8 .cfa: sp 32 +
STACK CFI 8cefc .ra: .cfa -4 + ^ r10: .cfa -8 + ^ r4: .cfa -32 + ^ r5: .cfa -28 + ^ r6: .cfa -24 + ^ r7: .cfa -20 + ^ r8: .cfa -16 + ^ r9: .cfa -12 + ^
STACK CFI 8cf00 .cfa: sp 88 +
STACK CFI INIT 8d320 b0 .cfa: sp 0 + .ra: lr
STACK CFI 8d324 .cfa: sp 16 +
STACK CFI 8d328 .ra: .cfa -4 + ^ r4: .cfa -16 + ^ r5: .cfa -12 + ^ r6: .cfa -8 + ^
STACK CFI INIT 8d3d0 40 .cfa: sp 0 + .ra: lr
STACK CFI 8d3d4 .cfa: sp 4 +
STACK CFI 8d3d8 .cfa: sp 16 +
STACK CFI 8d3fc .ra: .cfa -4 + ^
STACK CFI INIT 8d410 148 .cfa: sp 0 + .ra: lr
STACK CFI 8d414 .cfa: sp 20 +
STACK CFI 8d418 .cfa: sp 32 +
STACK CFI 8d41c .ra: .cfa -4 + ^ r4: .cfa -20 + ^ r5: .cfa -16 + ^ r6: .cfa -12 + ^ r7: .cfa -8 + ^
STACK CFI INIT 8d558 1ac .cfa: sp 0 + .ra: lr
STACK CFI 8d55c .cfa: sp 24 +
STACK CFI 8d560 .ra: .cfa -4 + ^ r4: .cfa -24 + ^ r5: .cfa -20 + ^ r6: .cfa -16 + ^ r7: .cfa -12 + ^ r8: .cfa -8 + ^
STACK CFI INIT 8d704 28 .cfa: sp 0 + .ra: lr
STACK CFI 8d708 .cfa: sp 16 +
STACK CFI 8d70c .ra: .cfa -4 + ^ r3: .cfa -16 + ^ r4: .cfa -12 + ^ r5: .cfa -8 + ^
STACK CFI INIT 8d72c 1bc .cfa: sp 0 + .ra: lr
STACK CFI 8d730 .cfa: sp 36 +
STACK CFI 8d734 .ra: .cfa -4 + ^ r10: .cfa -12 + ^ r11: .cfa -8 + ^ r4: .cfa -36 + ^ r5: .cfa -32 + ^ r6: .cfa -28 + ^ r7: .cfa -24 + ^ r8: .cfa -20 + ^ r9: .cfa -16 + ^
STACK CFI 8d73c .cfa: sp 48 +
STACK CFI INIT 8d8e8 184 .cfa: sp 0 + .ra: lr
STACK CFI 8d8ec .cfa: sp 24 +
STACK CFI 8d8f0 .ra: .cfa -4 + ^ r4: .cfa -24 + ^ r5: .cfa -20 + ^ r6: .cfa -16 + ^ r7: .cfa -12 + ^ r8: .cfa -8 + ^
STACK CFI 8d8f8 .cfa: sp 40 +
STACK CFI INIT 8da6c b8 .cfa: sp 0 + .ra: lr
STACK CFI 8da70 .cfa: sp 24 +
STACK CFI 8da74 .ra: .cfa -4 + ^ r4: .cfa -24 + ^ r5: .cfa -20 + ^ r6: .cfa -16 + ^ r7: .cfa -12 + ^ r8: .cfa -8 + ^
STACK CFI INIT 8db24 3dc .cfa: sp 0 + .ra: lr
STACK CFI 8db28 .cfa: sp 36 +
STACK CFI 8db2c .ra: .cfa -4 + ^ r10: .cfa -12 + ^ r11: .cfa -8 + ^ r4: .cfa -36 + ^ r5: .cfa -32 + ^ r6: .cfa -28 + ^ r7: .cfa -24 + ^ r8: .cfa -20 + ^ r9: .cfa -16 + ^
STACK CFI 8db34 .cfa: sp 120 +
STACK CFI INIT 8df00 304 .cfa: sp 0 + .ra: lr
STACK CFI 8df04 .cfa: sp 32 +
STACK CFI 8df08 .ra: .cfa -4 + ^ r10: .cfa -8 + ^ r4: .cfa -32 + ^ r5: .cfa -28 + ^ r6: .cfa -24 + ^ r7: .cfa -20 + ^ r8: .cfa -16 + ^ r9: .cfa -12 + ^
STACK CFI 8df10 .cfa: sp 104 +
STACK CFI INIT 8e204 fa0 .cfa: sp 0 + .ra: lr
STACK CFI 8e208 .cfa: sp 36 +
STACK CFI 8e20c .ra: .cfa -4 + ^ r10: .cfa -12 + ^ r11: .cfa -8 + ^ r4: .cfa -36 + ^ r5: .cfa -32 + ^ r6: .cfa -28 + ^ r7: .cfa -24 + ^ r8: .cfa -20 + ^ r9: .cfa -16 + ^
STACK CFI 8e210 .cfa: r11 4 +
STACK CFI INIT 8f1a4 28 .cfa: sp 0 + .ra: lr
STACK CFI 8f1a8 .cfa: sp 4 +
STACK CFI 8f1ac .cfa: sp 16 +
STACK CFI 8f1b4 .ra: .cfa -4 + ^
STACK CFI INIT 8f1cc 60 .cfa: sp 0 + .ra: lr
STACK CFI 8f1d0 .cfa: sp 20 +
STACK CFI 8f1d4 .ra: .cfa -4 + ^ r4: .cfa -20 + ^ r5: .cfa -16 + ^ r6: .cfa -12 + ^ r7: .cfa -8 + ^
STACK CFI 8f1d8 .cfa: sp 80 +
STACK CFI INIT 8f22c 60 .cfa: sp 0 + .ra: lr
STACK CFI 8f230 .cfa: sp 20 +
STACK CFI 8f234 .ra: .cfa -4 + ^ r4: .cfa -20 + ^ r5: .cfa -16 + ^ r6: .cfa -12 + ^ r7: .cfa -8 + ^
STACK CFI 8f238 .cfa: sp 80 +
STACK CFI INIT 8f28c 11c .cfa: sp 0 + .ra: lr
STACK CFI 8f290 .cfa: sp 16 +
STACK CFI 8f294 .ra: .cfa -4 + ^ r4: .cfa -16 + ^ r5: .cfa -12 + ^ r6: .cfa -8 + ^
STACK CFI INIT 8f3a8 40 .cfa: sp 0 + .ra: lr
STACK CFI 8f3ac .cfa: sp 4 +
STACK CFI 8f3b0 .cfa: sp 16 +
STACK CFI 8f3d4 .ra: .cfa -4 + ^
STACK CFI INIT 8f3e8 a4 .cfa: sp 0 + .ra: lr
STACK CFI 8f3ec .cfa: sp 32 +
STACK CFI 8f3f0 .ra: .cfa -4 + ^ r10: .cfa -8 + ^ r3: .cfa -32 + ^ r4: .cfa -28 + ^ r5: .cfa -24 + ^ r6: .cfa -20 + ^ r7: .cfa -16 + ^ r8: .cfa -12 + ^
STACK CFI INIT 8f48c 8 .cfa: sp 0 + .ra: lr
STACK CFI INIT 8f494 8 .cfa: sp 0 + .ra: lr
STACK CFI INIT 8f49c 38 .cfa: sp 0 + .ra: lr
STACK CFI 8f4a0 .cfa: sp 16 +
STACK CFI 8f4a4 .ra: .cfa -4 + ^ r3: .cfa -16 + ^ r4: .cfa -12 + ^ r5: .cfa -8 + ^
STACK CFI INIT 8f4d4 40 .cfa: sp 0 + .ra: lr
STACK CFI 8f4d8 .cfa: sp 16 +
STACK CFI 8f4dc .ra: .cfa -4 + ^ r3: .cfa -16 + ^ r4: .cfa -12 + ^ r5: .cfa -8 + ^
STACK CFI INIT 8f514 fc .cfa: sp 0 + .ra: lr
STACK CFI 8f518 .cfa: sp 24 +
STACK CFI 8f51c .ra: .cfa -4 + ^ r3: .cfa -24 + ^ r4: .cfa -20 + ^ r5: .cfa -16 + ^ r6: .cfa -12 + ^ r7: .cfa -8 + ^
STACK CFI INIT 8f610 20 .cfa: sp 0 + .ra: lr
STACK CFI 8f618 .cfa: sp 8 +
STACK CFI 8f620 .ra: .cfa -4 + ^ r3: .cfa -8 + ^
STACK CFI INIT 8f630 b4 .cfa: sp 0 + .ra: lr
STACK CFI 8f634 .cfa: sp 12 +
STACK CFI 8f638 .ra: .cfa -4 + ^ r4: .cfa -12 + ^ r5: .cfa -8 + ^
STACK CFI 8f63c .cfa: sp 24 +
STACK CFI INIT 8f6e4 41c .cfa: sp 0 + .ra: lr
STACK CFI 8f6e8 .cfa: sp 24 +
STACK CFI 8f6ec .ra: .cfa -4 + ^ r4: .cfa -24 + ^ r5: .cfa -20 + ^ r6: .cfa -16 + ^ r7: .cfa -12 + ^ r8: .cfa -8 + ^
STACK CFI INIT 8fb00 1c0 .cfa: sp 0 + .ra: lr
STACK CFI 8fb04 .cfa: sp 24 +
STACK CFI 8fb08 .ra: .cfa -4 + ^ r4: .cfa -24 + ^ r5: .cfa -20 + ^ r6: .cfa -16 + ^ r7: .cfa -12 + ^ r8: .cfa -8 + ^
STACK CFI INIT 8fcc0 23c .cfa: sp 0 + .ra: lr
STACK CFI 8fcc4 .cfa: sp 36 +
STACK CFI 8fcc8 .ra: .cfa -4 + ^ r10: .cfa -12 + ^ r11: .cfa -8 + ^ r4: .cfa -36 + ^ r5: .cfa -32 + ^ r6: .cfa -28 + ^ r7: .cfa -24 + ^ r8: .cfa -20 + ^ r9: .cfa -16 + ^
STACK CFI 8fce0 .cfa: sp 56 +
STACK CFI INIT 8fefc 1c .cfa: sp 0 + .ra: lr
STACK CFI INIT 8ff18 6bc .cfa: sp 0 + .ra: lr
STACK CFI 8ff1c .cfa: sp 36 +
STACK CFI 8ff20 .ra: .cfa -4 + ^ r10: .cfa -12 + ^ r11: .cfa -8 + ^ r4: .cfa -36 + ^ r5: .cfa -32 + ^ r6: .cfa -28 + ^ r7: .cfa -24 + ^ r8: .cfa -20 + ^ r9: .cfa -16 + ^
STACK CFI 8ff38 .cfa: sp 56 +
STACK CFI INIT 905d4 2c .cfa: sp 0 + .ra: lr
STACK CFI 905d8 .cfa: sp 16 +
STACK CFI 905dc .ra: .cfa -4 + ^ r4: .cfa -16 + ^ r5: .cfa -12 + ^ r6: .cfa -8 + ^
STACK CFI INIT 90600 404 .cfa: sp 0 + .ra: lr
STACK CFI 90604 .cfa: sp 28 +
STACK CFI 90608 .ra: .cfa -4 + ^ r10: .cfa -8 + ^ r4: .cfa -28 + ^ r5: .cfa -24 + ^ r6: .cfa -20 + ^ r7: .cfa -16 + ^ r8: .cfa -12 + ^
STACK CFI 90620 .cfa: sp 48 +
STACK CFI INIT 90a04 2c .cfa: sp 0 + .ra: lr
STACK CFI 90a08 .cfa: sp 16 +
STACK CFI 90a0c .ra: .cfa -4 + ^ r4: .cfa -16 + ^ r5: .cfa -12 + ^ r6: .cfa -8 + ^
STACK CFI INIT 90a30 f4 .cfa: sp 0 + .ra: lr
STACK CFI 90a38 .cfa: sp 12 +
STACK CFI 90a3c .ra: .cfa -4 + ^ r4: .cfa -12 + ^ r5: .cfa -8 + ^
STACK CFI 90a4c .cfa: sp 24 +
STACK CFI INIT 90b24 44 .cfa: sp 0 + .ra: lr
STACK CFI 90b2c .cfa: sp 8 +
STACK CFI 90b30 .ra: .cfa -4 + ^ r4: .cfa -8 + ^
STACK CFI INIT 90b68 e8 .cfa: sp 0 + .ra: lr
STACK CFI 90b70 .cfa: sp 36 +
STACK CFI 90b78 .cfa: sp 48 +
STACK CFI 90b7c .ra: .cfa -4 + ^ r10: .cfa -12 + ^ r11: .cfa -8 + ^ r4: .cfa -36 + ^ r5: .cfa -32 + ^ r6: .cfa -28 + ^ r7: .cfa -24 + ^ r8: .cfa -20 + ^ r9: .cfa -16 + ^
STACK CFI INIT 90c50 35c .cfa: sp 0 + .ra: lr
STACK CFI 90c54 .cfa: sp 36 +
STACK CFI 90c58 .ra: .cfa -4 + ^ r10: .cfa -12 + ^ r11: .cfa -8 + ^ r4: .cfa -36 + ^ r5: .cfa -32 + ^ r6: .cfa -28 + ^ r7: .cfa -24 + ^ r8: .cfa -20 + ^ r9: .cfa -16 + ^
STACK CFI 90c5c .cfa: r11 4 +
STACK CFI INIT 90fac 68 .cfa: sp 0 + .ra: lr
STACK CFI 90fb0 .cfa: sp 24 +
STACK CFI 90fb4 .ra: .cfa -4 + ^ r4: .cfa -24 + ^ r5: .cfa -20 + ^ r6: .cfa -16 + ^ r7: .cfa -12 + ^ r8: .cfa -8 + ^
STACK CFI INIT 91014 10c .cfa: sp 0 + .ra: lr
STACK CFI 9101c .cfa: sp 16 +
STACK CFI 9102c r4: .cfa -16 + ^ r5: .cfa -12 + ^ r6: .cfa -8 + ^ r7: .cfa -4 + ^
STACK CFI INIT 91120 23c .cfa: sp 0 + .ra: lr
STACK CFI 91124 .cfa: sp 36 +
STACK CFI 91128 .ra: .cfa -4 + ^ r10: .cfa -12 + ^ r11: .cfa -8 + ^ r4: .cfa -36 + ^ r5: .cfa -32 + ^ r6: .cfa -28 + ^ r7: .cfa -24 + ^ r8: .cfa -20 + ^ r9: .cfa -16 + ^
STACK CFI 9112c .cfa: sp 72 +
STACK CFI INIT 9135c 1c8 .cfa: sp 0 + .ra: lr
STACK CFI 91364 .cfa: sp 28 +
STACK CFI 91368 .ra: .cfa -4 + ^ r10: .cfa -8 + ^ r4: .cfa -28 + ^ r5: .cfa -24 + ^ r6: .cfa -20 + ^ r7: .cfa -16 + ^ r8: .cfa -12 + ^
STACK CFI 91374 .cfa: sp 48 +
STACK CFI INIT 91524 7b0 .cfa: sp 0 + .ra: lr
STACK CFI 91528 .cfa: sp 36 +
STACK CFI 9152c .ra: .cfa -4 + ^ r10: .cfa -12 + ^ r11: .cfa -8 + ^ r4: .cfa -36 + ^ r5: .cfa -32 + ^ r6: .cfa -28 + ^ r7: .cfa -24 + ^ r8: .cfa -20 + ^ r9: .cfa -16 + ^
STACK CFI 9153c .cfa: sp 112 +
STACK CFI INIT 91cd4 1c0 .cfa: sp 0 + .ra: lr
STACK CFI 91cd8 .cfa: sp 36 +
STACK CFI 91cdc .ra: .cfa -4 + ^ r10: .cfa -12 + ^ r11: .cfa -8 + ^ r4: .cfa -36 + ^ r5: .cfa -32 + ^ r6: .cfa -28 + ^ r7: .cfa -24 + ^ r8: .cfa -20 + ^ r9: .cfa -16 + ^
STACK CFI 91ce0 .cfa: r11 4 +
STACK CFI INIT 91e94 a8 .cfa: sp 0 + .ra: lr
STACK CFI 91e98 .cfa: sp 20 +
STACK CFI 91e9c .ra: .cfa -4 + ^ r4: .cfa -20 + ^ r5: .cfa -16 + ^ r6: .cfa -12 + ^ r7: .cfa -8 + ^
STACK CFI 91ec4 .cfa: sp 40 +
STACK CFI INIT 91f3c cc .cfa: sp 0 + .ra: lr
STACK CFI 91f40 .cfa: sp 16 +
STACK CFI 91f44 .ra: .cfa -4 + ^ r4: .cfa -16 + ^ r5: .cfa -12 + ^ r6: .cfa -8 + ^
STACK CFI 91f68 .cfa: sp 24 +
STACK CFI INIT 92008 bc .cfa: sp 0 + .ra: lr
STACK CFI 9200c .cfa: sp 16 +
STACK CFI 92010 .ra: .cfa -4 + ^ r4: .cfa -16 + ^ r5: .cfa -12 + ^ r6: .cfa -8 + ^
STACK CFI 9202c .cfa: sp 24 +
STACK CFI INIT 920c4 128 .cfa: sp 0 + .ra: lr
STACK CFI 920c8 .cfa: sp 36 +
STACK CFI 920cc .ra: .cfa -4 + ^ r10: .cfa -12 + ^ r11: .cfa -8 + ^ r4: .cfa -36 + ^ r5: .cfa -32 + ^ r6: .cfa -28 + ^ r7: .cfa -24 + ^ r8: .cfa -20 + ^ r9: .cfa -16 + ^
STACK CFI 920f0 .cfa: sp 72 +
STACK CFI INIT 921ec 128 .cfa: sp 0 + .ra: lr
STACK CFI 921f0 .cfa: sp 36 +
STACK CFI 921f4 .ra: .cfa -4 + ^ r10: .cfa -12 + ^ r11: .cfa -8 + ^ r4: .cfa -36 + ^ r5: .cfa -32 + ^ r6: .cfa -28 + ^ r7: .cfa -24 + ^ r8: .cfa -20 + ^ r9: .cfa -16 + ^
STACK CFI 92218 .cfa: sp 72 +
STACK CFI INIT 92314 b8 .cfa: sp 0 + .ra: lr
STACK CFI 92318 .cfa: sp 24 +
STACK CFI 9231c .ra: .cfa -4 + ^ r4: .cfa -24 + ^ r5: .cfa -20 + ^ r6: .cfa -16 + ^ r7: .cfa -12 + ^ r8: .cfa -8 + ^
STACK CFI 92338 .cfa: sp 40 +
STACK CFI INIT 923cc 6c .cfa: sp 0 + .ra: lr
STACK CFI 923d0 .cfa: sp 24 +
STACK CFI 923d4 .ra: .cfa -4 + ^ r3: .cfa -24 + ^ r4: .cfa -20 + ^ r5: .cfa -16 + ^ r6: .cfa -12 + ^ r7: .cfa -8 + ^
STACK CFI INIT 92438 1e0 .cfa: sp 0 + .ra: lr
STACK CFI 92444 .cfa: sp 20 +
STACK CFI 92458 r4: .cfa -20 + ^ r5: .cfa -16 + ^ r6: .cfa -12 + ^ r7: .cfa -8 + ^ r8: .cfa -4 + ^
STACK CFI INIT 92618 23c .cfa: sp 0 + .ra: lr
STACK CFI 9261c .cfa: sp 36 +
STACK CFI 92620 .ra: .cfa -4 + ^ r10: .cfa -12 + ^ r11: .cfa -8 + ^ r4: .cfa -36 + ^ r5: .cfa -32 + ^ r6: .cfa -28 + ^ r7: .cfa -24 + ^ r8: .cfa -20 + ^ r9: .cfa -16 + ^
STACK CFI 92638 .cfa: sp 56 +
STACK CFI INIT 92854 628 .cfa: sp 0 + .ra: lr
STACK CFI 92858 .cfa: sp 36 +
STACK CFI 9285c .ra: .cfa -4 + ^ r10: .cfa -12 + ^ r11: .cfa -8 + ^ r4: .cfa -36 + ^ r5: .cfa -32 + ^ r6: .cfa -28 + ^ r7: .cfa -24 + ^ r8: .cfa -20 + ^ r9: .cfa -16 + ^
STACK CFI 92874 .cfa: sp 56 +
STACK CFI INIT 92e7c 41c .cfa: sp 0 + .ra: lr
STACK CFI 92e80 .cfa: sp 28 +
STACK CFI 92e84 .ra: .cfa -4 + ^ r10: .cfa -8 + ^ r4: .cfa -28 + ^ r5: .cfa -24 + ^ r6: .cfa -20 + ^ r7: .cfa -16 + ^ r8: .cfa -12 + ^
STACK CFI 92e9c .cfa: sp 48 +
STACK CFI INIT 93298 ec .cfa: sp 0 + .ra: lr
STACK CFI 932a0 .cfa: sp 12 +
STACK CFI 932a4 .ra: .cfa -4 + ^ r4: .cfa -12 + ^ r5: .cfa -8 + ^
STACK CFI 932b4 .cfa: sp 24 +
STACK CFI INIT 93384 44 .cfa: sp 0 + .ra: lr
STACK CFI 9338c .cfa: sp 8 +
STACK CFI 93390 .ra: .cfa -4 + ^ r4: .cfa -8 + ^
STACK CFI INIT 933c8 68 .cfa: sp 0 + .ra: lr
STACK CFI 933cc .cfa: sp 24 +
STACK CFI 933d0 .ra: .cfa -4 + ^ r4: .cfa -24 + ^ r5: .cfa -20 + ^ r6: .cfa -16 + ^ r7: .cfa -12 + ^ r8: .cfa -8 + ^
STACK CFI INIT 93430 2f4 .cfa: sp 0 + .ra: lr
STACK CFI 93434 .cfa: sp 36 +
STACK CFI 93438 .ra: .cfa -4 + ^ r10: .cfa -12 + ^ r11: .cfa -8 + ^ r4: .cfa -36 + ^ r5: .cfa -32 + ^ r6: .cfa -28 + ^ r7: .cfa -24 + ^ r8: .cfa -20 + ^ r9: .cfa -16 + ^
STACK CFI 9343c .cfa: sp 80 +
STACK CFI INIT 93724 6c .cfa: sp 0 + .ra: lr
STACK CFI 93728 .cfa: sp 24 +
STACK CFI 9372c .ra: .cfa -4 + ^ r3: .cfa -24 + ^ r4: .cfa -20 + ^ r5: .cfa -16 + ^ r6: .cfa -12 + ^ r7: .cfa -8 + ^
STACK CFI INIT 93790 20 .cfa: sp 0 + .ra: lr
STACK CFI 93798 .cfa: sp 8 +
STACK CFI 937a4 .ra: .cfa -4 + ^ r3: .cfa -8 + ^
STACK CFI INIT 937b0 20 .cfa: sp 0 + .ra: lr
STACK CFI 937b8 .cfa: sp 8 +
STACK CFI 937c4 .ra: .cfa -4 + ^ r3: .cfa -8 + ^
STACK CFI INIT 937d0 50 .cfa: sp 0 + .ra: lr
STACK CFI 937d4 .cfa: sp 16 +
STACK CFI 937d8 .ra: .cfa -4 + ^ r4: .cfa -16 + ^ r5: .cfa -12 + ^ r6: .cfa -8 + ^
STACK CFI INIT 93820 58 .cfa: sp 0 + .ra: lr
STACK CFI 93824 .cfa: sp 24 +
STACK CFI 93828 .ra: .cfa -4 + ^ r3: .cfa -24 + ^ r4: .cfa -20 + ^ r5: .cfa -16 + ^ r6: .cfa -12 + ^ r7: .cfa -8 + ^
STACK CFI INIT 93878 16c .cfa: sp 0 + .ra: lr
STACK CFI 9387c .cfa: sp 20 +
STACK CFI 93880 .ra: .cfa -4 + ^ r4: .cfa -20 + ^ r5: .cfa -16 + ^ r6: .cfa -12 + ^ r7: .cfa -8 + ^
STACK CFI 938a0 .cfa: sp 40 +
STACK CFI INIT 939e4 140 .cfa: sp 0 + .ra: lr
STACK CFI 939e8 .cfa: sp 32 +
STACK CFI 939ec .ra: .cfa -4 + ^ r10: .cfa -8 + ^ r4: .cfa -32 + ^ r5: .cfa -28 + ^ r6: .cfa -24 + ^ r7: .cfa -20 + ^ r8: .cfa -16 + ^ r9: .cfa -12 + ^
STACK CFI INIT 93b24 14 .cfa: sp 0 + .ra: lr
STACK CFI INIT 93b38 14 .cfa: sp 0 + .ra: lr
STACK CFI INIT 93b4c 14 .cfa: sp 0 + .ra: lr
STACK CFI INIT 93b60 20 .cfa: sp 0 + .ra: lr
STACK CFI 93b64 .cfa: sp 8 +
STACK CFI 93b68 .ra: .cfa -4 + ^ r3: .cfa -8 + ^
STACK CFI INIT 93b80 20 .cfa: sp 0 + .ra: lr
STACK CFI 93b84 .cfa: sp 8 +
STACK CFI 93b88 .ra: .cfa -4 + ^ r3: .cfa -8 + ^
STACK CFI INIT 93ba0 20 .cfa: sp 0 + .ra: lr
STACK CFI 93ba8 .cfa: sp 8 +
STACK CFI 93bb4 .ra: .cfa -4 + ^ r3: .cfa -8 + ^
STACK CFI INIT 93bc0 20 .cfa: sp 0 + .ra: lr
STACK CFI 93bc8 .cfa: sp 8 +
STACK CFI 93bd4 .ra: .cfa -4 + ^ r3: .cfa -8 + ^
STACK CFI INIT 93be0 20 .cfa: sp 0 + .ra: lr
STACK CFI 93be8 .cfa: sp 8 +
STACK CFI 93bf4 .ra: .cfa -4 + ^ r3: .cfa -8 + ^
STACK CFI INIT 93c00 20 .cfa: sp 0 + .ra: lr
STACK CFI 93c08 .cfa: sp 8 +
STACK CFI 93c14 .ra: .cfa -4 + ^ r3: .cfa -8 + ^
STACK CFI INIT 93c20 20 .cfa: sp 0 + .ra: lr
STACK CFI 93c24 .cfa: sp 8 +
STACK CFI 93c28 .ra: .cfa -4 + ^ r3: .cfa -8 + ^
STACK CFI INIT 93c40 20 .cfa: sp 0 + .ra: lr
STACK CFI 93c48 .cfa: sp 8 +
STACK CFI 93c54 .ra: .cfa -4 + ^ r3: .cfa -8 + ^
STACK CFI INIT 93c60 20 .cfa: sp 0 + .ra: lr
STACK CFI 93c68 .cfa: sp 8 +
STACK CFI 93c74 .ra: .cfa -4 + ^ r3: .cfa -8 + ^
STACK CFI INIT 93c80 20 .cfa: sp 0 + .ra: lr
STACK CFI 93c88 .cfa: sp 8 +
STACK CFI 93c94 .ra: .cfa -4 + ^ r3: .cfa -8 + ^
STACK CFI INIT 93ca0 20 .cfa: sp 0 + .ra: lr
STACK CFI 93ca8 .cfa: sp 8 +
STACK CFI 93cb4 .ra: .cfa -4 + ^ r3: .cfa -8 + ^
STACK CFI INIT 93cc0 20 .cfa: sp 0 + .ra: lr
STACK CFI 93cc8 .cfa: sp 8 +
STACK CFI 93cd4 .ra: .cfa -4 + ^ r3: .cfa -8 + ^
STACK CFI INIT 93ce0 20 .cfa: sp 0 + .ra: lr
STACK CFI 93ce8 .cfa: sp 8 +
STACK CFI 93cf4 .ra: .cfa -4 + ^ r3: .cfa -8 + ^
STACK CFI INIT 93d00 74 .cfa: sp 0 + .ra: lr
STACK CFI 93d04 .cfa: sp 16 +
STACK CFI 93d08 .ra: .cfa -4 + ^ r4: .cfa -16 + ^ r5: .cfa -12 + ^ r6: .cfa -8 + ^
STACK CFI 93d0c .cfa: sp 32 +
STACK CFI INIT 93d74 5c .cfa: sp 0 + .ra: lr
STACK CFI 93d78 .cfa: sp 12 +
STACK CFI 93d7c .ra: .cfa -4 + ^ r4: .cfa -12 + ^ r5: .cfa -8 + ^
STACK CFI 93d80 .cfa: sp 24 +
STACK CFI INIT 93dd0 20 .cfa: sp 0 + .ra: lr
STACK CFI 93dd8 .cfa: sp 8 +
STACK CFI 93de4 .ra: .cfa -4 + ^ r3: .cfa -8 + ^
STACK CFI INIT 93df0 20 .cfa: sp 0 + .ra: lr
STACK CFI 93df4 .cfa: sp 8 +
STACK CFI 93df8 .ra: .cfa -4 + ^ r3: .cfa -8 + ^
STACK CFI INIT 93e10 20 .cfa: sp 0 + .ra: lr
STACK CFI 93e14 .cfa: sp 8 +
STACK CFI 93e18 .ra: .cfa -4 + ^ r3: .cfa -8 + ^
STACK CFI INIT 93e30 3bc .cfa: sp 0 + .ra: lr
STACK CFI 93e34 .cfa: sp 36 +
STACK CFI 93e38 .cfa: sp 1588 +
STACK CFI 93e3c .cfa: sp 1600 +
STACK CFI 93e50 .ra: .cfa -4 + ^ r10: .cfa -12 + ^ r11: .cfa -8 + ^ r4: .cfa -36 + ^ r5: .cfa -32 + ^ r6: .cfa -28 + ^ r7: .cfa -24 + ^ r8: .cfa -20 + ^ r9: .cfa -16 + ^
STACK CFI INIT 941ec 40 .cfa: sp 0 + .ra: lr
STACK CFI 941f0 .cfa: sp 4 +
STACK CFI 941f4 .cfa: sp 16 +
STACK CFI 94218 .ra: .cfa -4 + ^
STACK CFI INIT 9422c 2c4 .cfa: sp 0 + .ra: lr
STACK CFI 94230 .cfa: sp 36 +
STACK CFI 94234 .ra: .cfa -4 + ^ r10: .cfa -12 + ^ r11: .cfa -8 + ^ r4: .cfa -36 + ^ r5: .cfa -32 + ^ r6: .cfa -28 + ^ r7: .cfa -24 + ^ r8: .cfa -20 + ^ r9: .cfa -16 + ^
STACK CFI 94238 .cfa: sp 320 +
STACK CFI INIT 944f0 b3c .cfa: sp 0 + .ra: lr
STACK CFI 944f8 .cfa: sp 36 +
STACK CFI 944fc .ra: .cfa -4 + ^ r10: .cfa -12 + ^ r11: .cfa -8 + ^ r4: .cfa -36 + ^ r5: .cfa -32 + ^ r6: .cfa -28 + ^ r7: .cfa -24 + ^ r8: .cfa -20 + ^ r9: .cfa -16 + ^
STACK CFI 94508 .cfa: sp 296 +
STACK CFI INIT 9502c 7c .cfa: sp 0 + .ra: lr
STACK CFI 95030 .cfa: sp 16 +
STACK CFI 95034 .ra: .cfa -4 + ^ r4: .cfa -16 + ^ r5: .cfa -12 + ^ r6: .cfa -8 + ^
STACK CFI 95038 .cfa: sp 184 +
STACK CFI INIT 950a8 74 .cfa: sp 0 + .ra: lr
STACK CFI 950ac .cfa: sp 16 +
STACK CFI 950b0 .ra: .cfa -4 + ^ r3: .cfa -16 + ^ r4: .cfa -12 + ^ r5: .cfa -8 + ^
STACK CFI INIT 9511c 74 .cfa: sp 0 + .ra: lr
STACK CFI 95120 .cfa: sp 16 +
STACK CFI 95124 .ra: .cfa -4 + ^ r3: .cfa -16 + ^ r4: .cfa -12 + ^ r5: .cfa -8 + ^
STACK CFI INIT 95190 70 .cfa: sp 0 + .ra: lr
STACK CFI 95194 .cfa: sp 16 +
STACK CFI 95198 .ra: .cfa -4 + ^ r3: .cfa -16 + ^ r4: .cfa -12 + ^ r5: .cfa -8 + ^
STACK CFI INIT 95200 70 .cfa: sp 0 + .ra: lr
STACK CFI 95204 .cfa: sp 16 +
STACK CFI 95208 .ra: .cfa -4 + ^ r3: .cfa -16 + ^ r4: .cfa -12 + ^ r5: .cfa -8 + ^
STACK CFI INIT 95270 78 .cfa: sp 0 + .ra: lr
STACK CFI 95274 .cfa: sp 16 +
STACK CFI 95278 .ra: .cfa -4 + ^ r4: .cfa -16 + ^ r5: .cfa -12 + ^ r6: .cfa -8 + ^
STACK CFI INIT 952e8 78 .cfa: sp 0 + .ra: lr
STACK CFI 952ec .cfa: sp 16 +
STACK CFI 952f0 .ra: .cfa -4 + ^ r4: .cfa -16 + ^ r5: .cfa -12 + ^ r6: .cfa -8 + ^
STACK CFI INIT 95360 7c .cfa: sp 0 + .ra: lr
STACK CFI 95364 .cfa: sp 24 +
STACK CFI 95368 .ra: .cfa -4 + ^ r3: .cfa -24 + ^ r4: .cfa -20 + ^ r5: .cfa -16 + ^ r6: .cfa -12 + ^ r7: .cfa -8 + ^
STACK CFI INIT 953dc d8 .cfa: sp 0 + .ra: lr
STACK CFI 953e0 .cfa: sp 32 +
STACK CFI 953e4 .ra: .cfa -4 + ^ r10: .cfa -8 + ^ r3: .cfa -32 + ^ r4: .cfa -28 + ^ r5: .cfa -24 + ^ r6: .cfa -20 + ^ r7: .cfa -16 + ^ r8: .cfa -12 + ^
STACK CFI INIT 954b4 d8 .cfa: sp 0 + .ra: lr
STACK CFI 954b8 .cfa: sp 24 +
STACK CFI 954bc .ra: .cfa -4 + ^ r4: .cfa -24 + ^ r5: .cfa -20 + ^ r6: .cfa -16 + ^ r7: .cfa -12 + ^ r8: .cfa -8 + ^
STACK CFI INIT 9558c 144 .cfa: sp 0 + .ra: lr
STACK CFI 95590 .cfa: sp 36 +
STACK CFI 95594 .ra: .cfa -4 + ^ r10: .cfa -12 + ^ r11: .cfa -8 + ^ r4: .cfa -36 + ^ r5: .cfa -32 + ^ r6: .cfa -28 + ^ r7: .cfa -24 + ^ r8: .cfa -20 + ^ r9: .cfa -16 + ^
STACK CFI 95598 .cfa: sp 208 +
STACK CFI INIT 956d0 c4 .cfa: sp 0 + .ra: lr
STACK CFI 956dc .cfa: sp 24 +
STACK CFI 956e0 .ra: .cfa -4 + ^ r4: .cfa -24 + ^ r5: .cfa -20 + ^ r6: .cfa -16 + ^ r7: .cfa -12 + ^ r8: .cfa -8 + ^
STACK CFI 956e4 .cfa: sp 192 +
STACK CFI INIT 95794 1bc .cfa: sp 0 + .ra: lr
STACK CFI 95798 .cfa: sp 20 +
STACK CFI 9579c .ra: .cfa -4 + ^ r4: .cfa -20 + ^ r5: .cfa -16 + ^ r6: .cfa -12 + ^ r7: .cfa -8 + ^
STACK CFI 957a0 .cfa: sp 32 +
STACK CFI INIT 95950 1a0 .cfa: sp 0 + .ra: lr
STACK CFI 95958 .cfa: sp 32 +
STACK CFI 9595c .ra: .cfa -4 + ^ r10: .cfa -8 + ^ r4: .cfa -32 + ^ r5: .cfa -28 + ^ r6: .cfa -24 + ^ r7: .cfa -20 + ^ r8: .cfa -16 + ^ r9: .cfa -12 + ^
STACK CFI 95960 .cfa: sp 40 +
STACK CFI INIT 95af0 d0 .cfa: sp 0 + .ra: lr
STACK CFI 95af4 .cfa: sp 16 +
STACK CFI 95af8 .ra: .cfa -4 + ^ r4: .cfa -16 + ^ r5: .cfa -12 + ^ r6: .cfa -8 + ^
STACK CFI 95afc .cfa: sp 192 +
STACK CFI INIT 95bc0 98 .cfa: sp 0 + .ra: lr
STACK CFI 95bc4 .cfa: sp 20 +
STACK CFI 95bc8 .ra: .cfa -4 + ^ r4: .cfa -20 + ^ r5: .cfa -16 + ^ r6: .cfa -12 + ^ r7: .cfa -8 + ^
STACK CFI 95bcc .cfa: sp 192 +
STACK CFI INIT 95c58 98 .cfa: sp 0 + .ra: lr
STACK CFI 95c5c .cfa: sp 20 +
STACK CFI 95c60 .ra: .cfa -4 + ^ r4: .cfa -20 + ^ r5: .cfa -16 + ^ r6: .cfa -12 + ^ r7: .cfa -8 + ^
STACK CFI 95c64 .cfa: sp 192 +
STACK CFI INIT 95cf0 9c .cfa: sp 0 + .ra: lr
STACK CFI 95cf8 .cfa: sp 20 +
STACK CFI 95cfc .ra: .cfa -4 + ^ r4: .cfa -20 + ^ r5: .cfa -16 + ^ r6: .cfa -12 + ^ r7: .cfa -8 + ^
STACK CFI 95d00 .cfa: sp 192 +
STACK CFI INIT 95d8c fc .cfa: sp 0 + .ra: lr
STACK CFI 95d90 .cfa: sp 16 +
STACK CFI 95d94 .ra: .cfa -4 + ^ r4: .cfa -16 + ^ r5: .cfa -12 + ^ r6: .cfa -8 + ^
STACK CFI 95d98 .cfa: sp 184 +
STACK CFI INIT 95e88 9c .cfa: sp 0 + .ra: lr
STACK CFI 95e90 .cfa: sp 20 +
STACK CFI 95e94 .ra: .cfa -4 + ^ r4: .cfa -20 + ^ r5: .cfa -16 + ^ r6: .cfa -12 + ^ r7: .cfa -8 + ^
STACK CFI 95e98 .cfa: sp 192 +
STACK CFI INIT 95f24 8c .cfa: sp 0 + .ra: lr
STACK CFI 95f28 .cfa: sp 24 +
STACK CFI 95f2c .ra: .cfa -4 + ^ r4: .cfa -24 + ^ r5: .cfa -20 + ^ r6: .cfa -16 + ^ r7: .cfa -12 + ^ r8: .cfa -8 + ^
STACK CFI 95f30 .cfa: sp 192 +
STACK CFI INIT 95fb0 98 .cfa: sp 0 + .ra: lr
STACK CFI 95fb4 .cfa: sp 20 +
STACK CFI 95fb8 .ra: .cfa -4 + ^ r4: .cfa -20 + ^ r5: .cfa -16 + ^ r6: .cfa -12 + ^ r7: .cfa -8 + ^
STACK CFI 95fbc .cfa: sp 40 +
STACK CFI INIT 96048 80 .cfa: sp 0 + .ra: lr
STACK CFI 9604c .cfa: sp 20 +
STACK CFI 96050 .ra: .cfa -4 + ^ r4: .cfa -20 + ^ r5: .cfa -16 + ^ r6: .cfa -12 + ^ r7: .cfa -8 + ^
STACK CFI 96054 .cfa: sp 40 +
STACK CFI INIT 960c8 80 .cfa: sp 0 + .ra: lr
STACK CFI 960cc .cfa: sp 20 +
STACK CFI 960d0 .ra: .cfa -4 + ^ r4: .cfa -20 + ^ r5: .cfa -16 + ^ r6: .cfa -12 + ^ r7: .cfa -8 + ^
STACK CFI 960d4 .cfa: sp 40 +
STACK CFI INIT 96148 120 .cfa: sp 0 + .ra: lr
STACK CFI 9614c .cfa: sp 36 +
STACK CFI 96150 .ra: .cfa -4 + ^ r10: .cfa -12 + ^ r11: .cfa -8 + ^ r4: .cfa -36 + ^ r5: .cfa -32 + ^ r6: .cfa -28 + ^ r7: .cfa -24 + ^ r8: .cfa -20 + ^ r9: .cfa -16 + ^
STACK CFI 96158 .cfa: sp 64 +
STACK CFI INIT 96268 180 .cfa: sp 0 + .ra: lr
STACK CFI INIT 963e8 b8 .cfa: sp 0 + .ra: lr
STACK CFI 963f4 .cfa: sp 16 +
STACK CFI 963fc .ra: .cfa -4 + ^ r4: .cfa -16 + ^ r5: .cfa -12 + ^ r6: .cfa -8 + ^
STACK CFI INIT 964a0 34c .cfa: sp 0 + .ra: lr
STACK CFI 964a4 .cfa: sp 28 +
STACK CFI 964a8 .ra: .cfa -4 + ^ r10: .cfa -8 + ^ r4: .cfa -28 + ^ r5: .cfa -24 + ^ r6: .cfa -20 + ^ r7: .cfa -16 + ^ r8: .cfa -12 + ^
STACK CFI 964ac .cfa: sp 128 +
STACK CFI INIT 967ec 260 .cfa: sp 0 + .ra: lr
STACK CFI 967f0 .cfa: sp 24 +
STACK CFI 967f4 .ra: .cfa -4 + ^ r4: .cfa -24 + ^ r5: .cfa -20 + ^ r6: .cfa -16 + ^ r7: .cfa -12 + ^ r8: .cfa -8 + ^
STACK CFI INIT 96a4c 44 .cfa: sp 0 + .ra: lr
STACK CFI 96a50 .cfa: sp 8 +
STACK CFI 96a54 .cfa: sp 96 +
STACK CFI 96a58 .ra: .cfa -4 + ^ r4: .cfa -8 + ^
STACK CFI INIT 96a90 6c .cfa: sp 0 + .ra: lr
STACK CFI 96a94 .cfa: sp 16 +
STACK CFI 96a98 .ra: .cfa -4 + ^ r3: .cfa -16 + ^ r4: .cfa -12 + ^ r5: .cfa -8 + ^
STACK CFI INIT 96afc 8 .cfa: sp 0 + .ra: lr
STACK CFI INIT 96b04 8 .cfa: sp 0 + .ra: lr
STACK CFI INIT 96b0c c8 .cfa: sp 0 + .ra: lr
STACK CFI 96b10 .cfa: sp 20 +
STACK CFI 96b14 .ra: .cfa -4 + ^ r4: .cfa -20 + ^ r5: .cfa -16 + ^ r6: .cfa -12 + ^ r7: .cfa -8 + ^
STACK CFI 96b18 .cfa: sp 192 +
STACK CFI INIT 96bd4 1d0 .cfa: sp 0 + .ra: lr
STACK CFI 96bd8 .cfa: sp 28 +
STACK CFI 96bdc .ra: .cfa -4 + ^ r10: .cfa -8 + ^ r4: .cfa -28 + ^ r5: .cfa -24 + ^ r6: .cfa -20 + ^ r7: .cfa -16 + ^ r8: .cfa -12 + ^
STACK CFI 96be4 .cfa: sp 64 +
STACK CFI INIT 96da4 fc .cfa: sp 0 + .ra: lr
STACK CFI 96da8 .cfa: sp 28 +
STACK CFI 96dac .ra: .cfa -4 + ^ r10: .cfa -8 + ^ r4: .cfa -28 + ^ r5: .cfa -24 + ^ r6: .cfa -20 + ^ r7: .cfa -16 + ^ r8: .cfa -12 + ^
STACK CFI 96dc0 .cfa: sp 40 +
STACK CFI INIT 96ea0 150 .cfa: sp 0 + .ra: lr
STACK CFI 96ea8 .cfa: sp 36 +
STACK CFI 96eac .ra: .cfa -4 + ^ r10: .cfa -12 + ^ r11: .cfa -8 + ^ r4: .cfa -36 + ^ r5: .cfa -32 + ^ r6: .cfa -28 + ^ r7: .cfa -24 + ^ r8: .cfa -20 + ^ r9: .cfa -16 + ^
STACK CFI 96eb0 .cfa: sp 56 +
STACK CFI INIT 96ff0 10c .cfa: sp 0 + .ra: lr
STACK CFI 96ff4 .cfa: sp 36 +
STACK CFI 96ff8 .ra: .cfa -4 + ^ r10: .cfa -12 + ^ r11: .cfa -8 + ^ r4: .cfa -36 + ^ r5: .cfa -32 + ^ r6: .cfa -28 + ^ r7: .cfa -24 + ^ r8: .cfa -20 + ^ r9: .cfa -16 + ^
STACK CFI 96ffc .cfa: sp 48 +
STACK CFI INIT 970fc 270 .cfa: sp 0 + .ra: lr
STACK CFI 97100 .cfa: sp 32 +
STACK CFI 97104 .ra: .cfa -4 + ^ r10: .cfa -8 + ^ r4: .cfa -32 + ^ r5: .cfa -28 + ^ r6: .cfa -24 + ^ r7: .cfa -20 + ^ r8: .cfa -16 + ^ r9: .cfa -12 + ^
STACK CFI 97108 .cfa: sp 64 +
STACK CFI INIT 9736c 14c .cfa: sp 0 + .ra: lr
STACK CFI 97370 .cfa: sp 28 +
STACK CFI 97374 .ra: .cfa -4 + ^ r10: .cfa -8 + ^ r4: .cfa -28 + ^ r5: .cfa -24 + ^ r6: .cfa -20 + ^ r7: .cfa -16 + ^ r8: .cfa -12 + ^
STACK CFI 97378 .cfa: sp 40 +
STACK CFI INIT 974b8 11c .cfa: sp 0 + .ra: lr
STACK CFI 974bc .cfa: sp 8 +
STACK CFI 974c0 .ra: .cfa -4 + ^ r4: .cfa -8 + ^
STACK CFI 974c8 .cfa: sp 16 +
STACK CFI INIT 975d4 8 .cfa: sp 0 + .ra: lr
STACK CFI INIT 975dc 8 .cfa: sp 0 + .ra: lr
STACK CFI INIT 975e4 b4 .cfa: sp 0 + .ra: lr
STACK CFI 975ec .cfa: sp 8 +
STACK CFI 975f4 .ra: .cfa -4 + ^ r4: .cfa -8 + ^
STACK CFI INIT 97698 20 .cfa: sp 0 + .ra: lr
STACK CFI 9769c .cfa: sp 8 +
STACK CFI 976a0 .ra: .cfa -4 + ^ r4: .cfa -8 + ^
STACK CFI INIT 976b8 310 .cfa: sp 0 + .ra: lr
STACK CFI 976bc .cfa: sp 32 +
STACK CFI 976c4 .cfa: sp 40 +
STACK CFI 976cc .ra: .cfa -4 + ^ r10: .cfa -12 + ^ r11: .cfa -8 + ^ r4: .cfa -32 + ^ r5: .cfa -28 + ^ r6: .cfa -24 + ^ r7: .cfa -20 + ^ r8: .cfa -16 + ^
STACK CFI INIT 979c8 160 .cfa: sp 0 + .ra: lr
STACK CFI 979cc .cfa: sp 24 +
STACK CFI 979d0 .cfa: sp 32 +
STACK CFI 979d4 .ra: .cfa -4 + ^ r4: .cfa -24 + ^ r5: .cfa -20 + ^ r6: .cfa -16 + ^ r7: .cfa -12 + ^ r8: .cfa -8 + ^
STACK CFI INIT 97b28 68 .cfa: sp 0 + .ra: lr
STACK CFI 97b2c .cfa: sp 12 +
STACK CFI 97b30 .cfa: sp 32 +
STACK CFI 97b34 .ra: .cfa -4 + ^ r4: .cfa -12 + ^ r5: .cfa -8 + ^
STACK CFI INIT 97b90 94 .cfa: sp 0 + .ra: lr
STACK CFI 97b94 .cfa: sp 16 +
STACK CFI 97b98 .ra: .cfa -4 + ^ r3: .cfa -16 + ^ r4: .cfa -12 + ^ r5: .cfa -8 + ^
STACK CFI INIT 97c24 cc .cfa: sp 0 + .ra: lr
STACK CFI 97c28 .cfa: sp 24 +
STACK CFI 97c2c .ra: .cfa -4 + ^ r3: .cfa -24 + ^ r4: .cfa -20 + ^ r5: .cfa -16 + ^ r6: .cfa -12 + ^ r7: .cfa -8 + ^
STACK CFI INIT 97cf0 a0 .cfa: sp 0 + .ra: lr
STACK CFI 97cf4 .cfa: sp 16 +
STACK CFI 97cf8 .ra: .cfa -4 + ^ r3: .cfa -16 + ^ r4: .cfa -12 + ^ r5: .cfa -8 + ^
STACK CFI INIT 97d90 5c .cfa: sp 0 + .ra: lr
STACK CFI 97d94 .cfa: sp 16 +
STACK CFI 97d98 .ra: .cfa -4 + ^ r3: .cfa -16 + ^ r4: .cfa -12 + ^ r5: .cfa -8 + ^
STACK CFI INIT 97dec 3f4 .cfa: sp 0 + .ra: lr
STACK CFI 97df0 .cfa: sp 36 +
STACK CFI 97df8 .cfa: sp 104 +
STACK CFI 97dfc .ra: .cfa -4 + ^ r10: .cfa -12 + ^ r11: .cfa -8 + ^ r4: .cfa -36 + ^ r5: .cfa -32 + ^ r6: .cfa -28 + ^ r7: .cfa -24 + ^ r8: .cfa -20 + ^ r9: .cfa -16 + ^
STACK CFI INIT 981e0 88 .cfa: sp 0 + .ra: lr
STACK CFI 981e4 .cfa: sp 16 +
STACK CFI 981e8 .ra: .cfa -4 + ^ r4: .cfa -16 + ^ r5: .cfa -12 + ^ r6: .cfa -8 + ^
STACK CFI INIT 98268 194 .cfa: sp 0 + .ra: lr
STACK CFI 98270 .cfa: sp 28 +
STACK CFI 98274 .ra: .cfa -4 + ^ r10: .cfa -8 + ^ r4: .cfa -28 + ^ r5: .cfa -24 + ^ r6: .cfa -20 + ^ r7: .cfa -16 + ^ r8: .cfa -12 + ^
STACK CFI 98280 .cfa: sp 200 +
STACK CFI INIT 983fc e4 .cfa: sp 0 + .ra: lr
STACK CFI 98400 .cfa: sp 24 +
STACK CFI 98404 .ra: .cfa -4 + ^ r3: .cfa -24 + ^ r4: .cfa -20 + ^ r5: .cfa -16 + ^ r6: .cfa -12 + ^ r7: .cfa -8 + ^
STACK CFI INIT 984e0 48 .cfa: sp 0 + .ra: lr
STACK CFI 984e4 .cfa: sp 24 +
STACK CFI 984e8 .ra: .cfa -4 + ^ r4: .cfa -24 + ^ r5: .cfa -20 + ^ r6: .cfa -16 + ^ r7: .cfa -12 + ^ r8: .cfa -8 + ^
STACK CFI INIT 98528 50 .cfa: sp 0 + .ra: lr
STACK CFI 9852c .cfa: sp 16 +
STACK CFI 98530 .ra: .cfa -4 + ^ r4: .cfa -16 + ^ r5: .cfa -12 + ^ r6: .cfa -8 + ^
STACK CFI INIT 98578 70 .cfa: sp 0 + .ra: lr
STACK CFI 98584 .cfa: sp 8 +
STACK CFI 98588 .ra: .cfa -4 + ^ r4: .cfa -8 + ^
STACK CFI INIT 985e8 2c .cfa: sp 0 + .ra: lr
STACK CFI 985ec .cfa: sp 8 +
STACK CFI 985f0 .ra: .cfa -4 + ^ r3: .cfa -8 + ^
STACK CFI INIT 98614 2c .cfa: sp 0 + .ra: lr
STACK CFI 98618 .cfa: sp 8 +
STACK CFI 9861c .ra: .cfa -4 + ^ r3: .cfa -8 + ^
STACK CFI INIT 98640 e0 .cfa: sp 0 + .ra: lr
STACK CFI 98644 .cfa: sp 32 +
STACK CFI 9864c r10: .cfa -8 + ^ r11: .cfa -4 + ^ r4: .cfa -32 + ^ r5: .cfa -28 + ^ r6: .cfa -24 + ^ r7: .cfa -20 + ^ r8: .cfa -16 + ^ r9: .cfa -12 + ^
STACK CFI INIT 98720 7c .cfa: sp 0 + .ra: lr
STACK CFI 98724 .cfa: sp 16 +
STACK CFI 98728 .ra: .cfa -4 + ^ r4: .cfa -16 + ^ r5: .cfa -12 + ^ r6: .cfa -8 + ^
STACK CFI INIT 9879c 118 .cfa: sp 0 + .ra: lr
STACK CFI 987a0 .cfa: sp 20 +
STACK CFI 987a4 .ra: .cfa -4 + ^ r4: .cfa -20 + ^ r5: .cfa -16 + ^ r6: .cfa -12 + ^ r7: .cfa -8 + ^
STACK CFI 987ac .cfa: sp 32 +
STACK CFI INIT 988b4 19c .cfa: sp 0 + .ra: lr
STACK CFI 988b8 .cfa: sp 24 +
STACK CFI 988bc .ra: .cfa -4 + ^ r4: .cfa -24 + ^ r5: .cfa -20 + ^ r6: .cfa -16 + ^ r7: .cfa -12 + ^ r8: .cfa -8 + ^
STACK CFI INIT 98a50 244 .cfa: sp 0 + .ra: lr
STACK CFI 98a54 .cfa: sp 24 +
STACK CFI 98a5c .ra: .cfa -4 + ^ r4: .cfa -24 + ^ r5: .cfa -20 + ^ r6: .cfa -16 + ^ r7: .cfa -12 + ^ r8: .cfa -8 + ^
STACK CFI 98a74 .cfa: sp 352 +
STACK CFI INIT 98c94 3d4 .cfa: sp 0 + .ra: lr
STACK CFI 98c98 .cfa: sp 36 +
STACK CFI 98c9c .ra: .cfa -4 + ^ r10: .cfa -12 + ^ r11: .cfa -8 + ^ r4: .cfa -36 + ^ r5: .cfa -32 + ^ r6: .cfa -28 + ^ r7: .cfa -24 + ^ r8: .cfa -20 + ^ r9: .cfa -16 + ^
STACK CFI 98ca8 .cfa: sp 56 +
STACK CFI INIT 99068 ac .cfa: sp 0 + .ra: lr
STACK CFI 9906c .cfa: sp 16 +
STACK CFI 99070 .cfa: sp 216 +
STACK CFI 99074 .ra: .cfa -4 + ^ r4: .cfa -16 + ^ r5: .cfa -12 + ^ r6: .cfa -8 + ^
STACK CFI INIT 99114 204 .cfa: sp 0 + .ra: lr
STACK CFI 99118 .cfa: sp 36 +
STACK CFI 99120 .ra: .cfa -4 + ^ r10: .cfa -12 + ^ r11: .cfa -8 + ^ r4: .cfa -36 + ^ r5: .cfa -32 + ^ r6: .cfa -28 + ^ r7: .cfa -24 + ^ r8: .cfa -20 + ^ r9: .cfa -16 + ^
STACK CFI 99148 .cfa: sp 48 +
STACK CFI INIT 99318 24 .cfa: sp 0 + .ra: lr
STACK CFI 99320 .cfa: sp 8 +
STACK CFI 9932c .ra: .cfa -4 + ^ r3: .cfa -8 + ^
STACK CFI INIT 9933c 24 .cfa: sp 0 + .ra: lr
STACK CFI 99344 .cfa: sp 8 +
STACK CFI 99350 .ra: .cfa -4 + ^ r3: .cfa -8 + ^
STACK CFI INIT 99360 8c .cfa: sp 0 + .ra: lr
STACK CFI 99364 .cfa: sp 20 +
STACK CFI 9936c .cfa: sp 56 +
STACK CFI 99370 .ra: .cfa -4 + ^ r4: .cfa -20 + ^ r5: .cfa -16 + ^ r6: .cfa -12 + ^ r7: .cfa -8 + ^
STACK CFI INIT 993ec 18 .cfa: sp 0 + .ra: lr
STACK CFI INIT 99404 38 .cfa: sp 0 + .ra: lr
STACK CFI 99408 .cfa: sp 4 +
STACK CFI 9940c .ra: .cfa -4 + ^
STACK CFI 99410 .cfa: sp 16 +
STACK CFI INIT 9943c c0 .cfa: sp 0 + .ra: lr
STACK CFI 99440 .cfa: sp 16 +
STACK CFI 99444 .cfa: sp 224 +
STACK CFI 99448 .ra: .cfa -4 + ^ r4: .cfa -16 + ^ r5: .cfa -12 + ^ r6: .cfa -8 + ^
STACK CFI INIT 994fc 28 .cfa: sp 0 + .ra: lr
STACK CFI 99500 .cfa: sp 4 +
STACK CFI 99504 .cfa: sp 16 +
STACK CFI 99518 .ra: .cfa -4 + ^
STACK CFI INIT 99524 44 .cfa: sp 0 + .ra: lr
STACK CFI 99528 .cfa: sp 8 +
STACK CFI 9952c .cfa: sp 192 +
STACK CFI 99538 .ra: .cfa -4 + ^ r4: .cfa -8 + ^
STACK CFI INIT 99568 6c .cfa: sp 0 + .ra: lr
STACK CFI 99578 .cfa: sp 4 +
STACK CFI 9957c .cfa: sp 16 +
STACK CFI 9958c .ra: .cfa -4 + ^
STACK CFI INIT 995d4 2c .cfa: sp 0 + .ra: lr
STACK CFI 995d8 .cfa: sp 4 +
STACK CFI 995dc .cfa: sp 16 +
STACK CFI 995f4 .ra: .cfa -4 + ^
STACK CFI INIT 99600 28 .cfa: sp 0 + .ra: lr
STACK CFI 99604 .cfa: sp 4 +
STACK CFI 99608 .cfa: sp 16 +
STACK CFI 9961c .ra: .cfa -4 + ^
STACK CFI INIT 99628 24 .cfa: sp 0 + .ra: lr
STACK CFI 99630 .cfa: sp 8 +
STACK CFI 99634 .ra: .cfa -4 + ^ r3: .cfa -8 + ^
STACK CFI INIT 9964c 14 .cfa: sp 0 + .ra: lr
STACK CFI INIT 99660 2c .cfa: sp 0 + .ra: lr
STACK CFI 99664 .cfa: sp 8 +
STACK CFI 99668 .ra: .cfa -4 + ^ r3: .cfa -8 + ^
STACK CFI INIT 9968c 1f8 .cfa: sp 0 + .ra: lr
STACK CFI 99690 .cfa: sp 20 +
STACK CFI 99694 .ra: .cfa -4 + ^ r4: .cfa -20 + ^ r5: .cfa -16 + ^ r6: .cfa -12 + ^ r7: .cfa -8 + ^
STACK CFI 996ac .cfa: sp 32 +
STACK CFI INIT 99884 98 .cfa: sp 0 + .ra: lr
STACK CFI 9988c .cfa: sp 8 +
STACK CFI 99890 .ra: .cfa -4 + ^ r4: .cfa -8 + ^
STACK CFI INIT 9991c 64 .cfa: sp 0 + .ra: lr
STACK CFI 99924 .cfa: sp 8 +
STACK CFI 9992c .ra: .cfa -4 + ^ r4: .cfa -8 + ^
STACK CFI INIT 99980 80 .cfa: sp 0 + .ra: lr
STACK CFI 99984 .cfa: sp 16 +
STACK CFI 99988 .ra: .cfa -4 + ^ r4: .cfa -16 + ^ r5: .cfa -12 + ^ r6: .cfa -8 + ^
STACK CFI INIT 99a00 40 .cfa: sp 0 + .ra: lr
STACK CFI 99a04 .cfa: sp 8 +
STACK CFI 99a08 .ra: .cfa -4 + ^ r4: .cfa -8 + ^
STACK CFI 99a1c .cfa: sp 16 +
STACK CFI INIT 99a40 2c .cfa: sp 0 + .ra: lr
STACK CFI 99a44 .cfa: sp 8 +
STACK CFI 99a48 .ra: .cfa -4 + ^ r3: .cfa -8 + ^
STACK CFI INIT 99a6c 28 .cfa: sp 0 + .ra: lr
STACK CFI 99a70 .cfa: sp 8 +
STACK CFI 99a74 .ra: .cfa -4 + ^ r3: .cfa -8 + ^
STACK CFI INIT 99a94 44 .cfa: sp 0 + .ra: lr
STACK CFI 99a98 .cfa: sp 12 +
STACK CFI 99a9c .ra: .cfa -4 + ^ r4: .cfa -12 + ^ r5: .cfa -8 + ^
STACK CFI 99ab0 .cfa: sp 24 +
STACK CFI INIT 99ad8 40 .cfa: sp 0 + .ra: lr
STACK CFI 99adc .cfa: sp 8 +
STACK CFI 99ae0 .ra: .cfa -4 + ^ r4: .cfa -8 + ^
STACK CFI 99af4 .cfa: sp 16 +
STACK CFI INIT 99b18 40 .cfa: sp 0 + .ra: lr
STACK CFI 99b1c .cfa: sp 8 +
STACK CFI 99b20 .ra: .cfa -4 + ^ r4: .cfa -8 + ^
STACK CFI 99b34 .cfa: sp 16 +
STACK CFI INIT 99b58 ec .cfa: sp 0 + .ra: lr
STACK CFI 99b5c .cfa: sp 16 +
STACK CFI 99b64 .ra: .cfa -4 + ^ r4: .cfa -16 + ^ r5: .cfa -12 + ^ r6: .cfa -8 + ^
STACK CFI 99b68 .cfa: sp 24 +
STACK CFI INIT 99c44 20 .cfa: sp 0 + .ra: lr
STACK CFI 99c48 .cfa: sp 8 +
STACK CFI 99c4c .ra: .cfa -4 + ^ r3: .cfa -8 + ^
STACK CFI INIT 99c64 198 .cfa: sp 0 + .ra: lr
STACK CFI 99c6c .cfa: sp 28 +
STACK CFI 99c78 .ra: .cfa -4 + ^ r10: .cfa -8 + ^ r4: .cfa -28 + ^ r5: .cfa -24 + ^ r6: .cfa -20 + ^ r7: .cfa -16 + ^ r8: .cfa -12 + ^
STACK CFI 99c88 .cfa: sp 40 +
STACK CFI INIT 99dfc a0 .cfa: sp 0 + .ra: lr
STACK CFI 99e00 .cfa: sp 16 +
STACK CFI 99e04 .ra: .cfa -4 + ^ r4: .cfa -16 + ^ r5: .cfa -12 + ^ r6: .cfa -8 + ^
STACK CFI 99e1c .cfa: sp 24 +
STACK CFI INIT 99e9c a0 .cfa: sp 0 + .ra: lr
STACK CFI 99ea0 .cfa: sp 16 +
STACK CFI 99ea4 .ra: .cfa -4 + ^ r4: .cfa -16 + ^ r5: .cfa -12 + ^ r6: .cfa -8 + ^
STACK CFI 99ebc .cfa: sp 24 +
STACK CFI INIT 99f3c 54 .cfa: sp 0 + .ra: lr
STACK CFI 99f40 .cfa: sp 12 +
STACK CFI 99f44 .ra: .cfa -4 + ^ r4: .cfa -12 + ^ r5: .cfa -8 + ^
STACK CFI 99f48 .cfa: sp 32 +
STACK CFI INIT 99f90 48 .cfa: sp 0 + .ra: lr
STACK CFI 99f94 .cfa: sp 12 +
STACK CFI 99f98 .ra: .cfa -4 + ^ r4: .cfa -12 + ^ r5: .cfa -8 + ^
STACK CFI 99fac .cfa: sp 32 +
STACK CFI INIT 99fd8 48 .cfa: sp 0 + .ra: lr
STACK CFI 99fdc .cfa: sp 12 +
STACK CFI 99fe0 .ra: .cfa -4 + ^ r4: .cfa -12 + ^ r5: .cfa -8 + ^
STACK CFI 99ff4 .cfa: sp 32 +
STACK CFI INIT 9a020 58c .cfa: sp 0 + .ra: lr
STACK CFI 9a024 .cfa: sp 36 +
STACK CFI 9a028 .ra: .cfa -4 + ^ r10: .cfa -12 + ^ r11: .cfa -8 + ^ r4: .cfa -36 + ^ r5: .cfa -32 + ^ r6: .cfa -28 + ^ r7: .cfa -24 + ^ r8: .cfa -20 + ^ r9: .cfa -16 + ^
STACK CFI 9a038 .cfa: sp 184 +
STACK CFI INIT 9a5ac 48 .cfa: sp 0 + .ra: lr
STACK CFI 9a5b4 .cfa: sp 8 +
STACK CFI 9a5b8 .ra: .cfa -4 + ^ r4: .cfa -8 + ^
STACK CFI 9a5c4 .cfa: sp 16 +
STACK CFI INIT 9a5f4 2c .cfa: sp 0 + .ra: lr
STACK CFI 9a5f8 .cfa: sp 8 +
STACK CFI 9a5fc .ra: .cfa -4 + ^ r3: .cfa -8 + ^
STACK CFI INIT 9a620 2c .cfa: sp 0 + .ra: lr
STACK CFI 9a624 .cfa: sp 8 +
STACK CFI 9a628 .ra: .cfa -4 + ^ r3: .cfa -8 + ^
STACK CFI INIT 9a64c 28 .cfa: sp 0 + .ra: lr
STACK CFI 9a650 .cfa: sp 8 +
STACK CFI 9a654 .ra: .cfa -4 + ^ r3: .cfa -8 + ^
STACK CFI INIT 9a674 2c .cfa: sp 0 + .ra: lr
STACK CFI 9a678 .cfa: sp 8 +
STACK CFI 9a67c .ra: .cfa -4 + ^ r3: .cfa -8 + ^
STACK CFI INIT 9a6a0 40 .cfa: sp 0 + .ra: lr
STACK CFI 9a6a4 .cfa: sp 8 +
STACK CFI 9a6a8 .ra: .cfa -4 + ^ r4: .cfa -8 + ^
STACK CFI 9a6bc .cfa: sp 16 +
STACK CFI INIT 9a6e0 40 .cfa: sp 0 + .ra: lr
STACK CFI 9a6e4 .cfa: sp 8 +
STACK CFI 9a6e8 .ra: .cfa -4 + ^ r4: .cfa -8 + ^
STACK CFI 9a6fc .cfa: sp 16 +
STACK CFI INIT 9a720 44 .cfa: sp 0 + .ra: lr
STACK CFI 9a724 .cfa: sp 12 +
STACK CFI 9a728 .ra: .cfa -4 + ^ r4: .cfa -12 + ^ r5: .cfa -8 + ^
STACK CFI 9a73c .cfa: sp 24 +
STACK CFI INIT 9a764 70 .cfa: sp 0 + .ra: lr
STACK CFI 9a768 .cfa: sp 8 +
STACK CFI 9a76c .ra: .cfa -4 + ^ r3: .cfa -8 + ^
STACK CFI INIT 9a7d4 40 .cfa: sp 0 + .ra: lr
STACK CFI INIT 9a814 60 .cfa: sp 0 + .ra: lr
STACK CFI INIT 9a874 68 .cfa: sp 0 + .ra: lr
STACK CFI INIT 9a8dc ac .cfa: sp 0 + .ra: lr
STACK CFI 9a8e4 .cfa: sp 16 +
STACK CFI 9a8e8 .ra: .cfa -4 + ^ r3: .cfa -16 + ^ r4: .cfa -12 + ^ r5: .cfa -8 + ^
STACK CFI INIT 9a988 ac .cfa: sp 0 + .ra: lr
STACK CFI 9a990 .cfa: sp 16 +
STACK CFI 9a994 .ra: .cfa -4 + ^ r3: .cfa -16 + ^ r4: .cfa -12 + ^ r5: .cfa -8 + ^
STACK CFI INIT 9aa34 104 .cfa: sp 0 + .ra: lr
STACK CFI 9aa38 .cfa: sp 16 +
STACK CFI 9aa40 .cfa: sp 24 +
STACK CFI 9aa44 .ra: .cfa -4 + ^ r4: .cfa -16 + ^ r5: .cfa -12 + ^ r6: .cfa -8 + ^
STACK CFI INIT 9ab38 84 .cfa: sp 0 + .ra: lr
STACK CFI 9ab3c .cfa: sp 8 +
STACK CFI 9ab44 .cfa: sp 16 +
STACK CFI 9ab48 .ra: .cfa -4 + ^ r4: .cfa -8 + ^
STACK CFI INIT 9abbc 80 .cfa: sp 0 + .ra: lr
STACK CFI 9abc4 .cfa: sp 8 +
STACK CFI 9abc8 r4: .cfa -8 + ^ r5: .cfa -4 + ^
STACK CFI INIT 9ac3c 80 .cfa: sp 0 + .ra: lr
STACK CFI 9ac44 .cfa: sp 8 +
STACK CFI 9ac48 r4: .cfa -8 + ^ r5: .cfa -4 + ^
STACK CFI INIT 9acbc 90 .cfa: sp 0 + .ra: lr
STACK CFI 9acc0 .cfa: sp 16 +
STACK CFI 9acc4 .ra: .cfa -4 + ^ r3: .cfa -16 + ^ r4: .cfa -12 + ^ r5: .cfa -8 + ^
STACK CFI INIT 9ad4c 13c .cfa: sp 0 + .ra: lr
STACK CFI 9ad50 .cfa: sp 24 +
STACK CFI 9ad54 .ra: .cfa -4 + ^ r3: .cfa -24 + ^ r4: .cfa -20 + ^ r5: .cfa -16 + ^ r6: .cfa -12 + ^ r7: .cfa -8 + ^
STACK CFI INIT 9ae88 128 .cfa: sp 0 + .ra: lr
STACK CFI 9ae8c .cfa: sp 20 +
STACK CFI 9ae94 .cfa: sp 32 +
STACK CFI 9ae9c .ra: .cfa -4 + ^ r4: .cfa -20 + ^ r5: .cfa -16 + ^ r6: .cfa -12 + ^ r7: .cfa -8 + ^
STACK CFI INIT 9afb0 40 .cfa: sp 0 + .ra: lr
STACK CFI INIT 9aff0 68 .cfa: sp 0 + .ra: lr
STACK CFI INIT 9b058 68 .cfa: sp 0 + .ra: lr
STACK CFI INIT 9b0c0 70 .cfa: sp 0 + .ra: lr
STACK CFI INIT 9b130 70 .cfa: sp 0 + .ra: lr
STACK CFI INIT 9b1a0 80 .cfa: sp 0 + .ra: lr
STACK CFI 9b1a8 .cfa: sp 4 +
STACK CFI 9b1ac r4: .cfa -4 + ^
STACK CFI INIT 9b220 50 .cfa: sp 0 + .ra: lr
STACK CFI INIT 9b270 c .cfa: sp 0 + .ra: lr
STACK CFI INIT 9b27c 90 .cfa: sp 0 + .ra: lr
STACK CFI INIT 9b30c a8 .cfa: sp 0 + .ra: lr
STACK CFI 9b314 .cfa: sp 12 +
STACK CFI 9b318 r4: .cfa -12 + ^ r5: .cfa -8 + ^ r6: .cfa -4 + ^
STACK CFI INIT 9b3b4 70 .cfa: sp 0 + .ra: lr
STACK CFI INIT 9b424 70 .cfa: sp 0 + .ra: lr
STACK CFI INIT 9b494 164 .cfa: sp 0 + .ra: lr
STACK CFI INIT 9b5f8 c8 .cfa: sp 0 + .ra: lr
STACK CFI 9b600 .cfa: sp 4 +
STACK CFI 9b604 r4: .cfa -4 + ^
STACK CFI INIT 9b6c0 e8 .cfa: sp 0 + .ra: lr
STACK CFI 9b6c8 .cfa: sp 4 +
STACK CFI 9b6cc r4: .cfa -4 + ^
STACK CFI INIT 9b7a8 9c .cfa: sp 0 + .ra: lr
STACK CFI 9b7b0 .cfa: sp 16 +
STACK CFI 9b7b4 .ra: .cfa -4 + ^ r3: .cfa -16 + ^ r4: .cfa -12 + ^ r5: .cfa -8 + ^
STACK CFI INIT 9b844 7c .cfa: sp 0 + .ra: lr
STACK CFI 9b84c .cfa: sp 16 +
STACK CFI 9b850 .ra: .cfa -4 + ^ r3: .cfa -16 + ^ r4: .cfa -12 + ^ r5: .cfa -8 + ^
STACK CFI INIT 9b8c0 58 .cfa: sp 0 + .ra: lr
STACK CFI INIT 9b918 58 .cfa: sp 0 + .ra: lr
STACK CFI INIT 9b970 34 .cfa: sp 0 + .ra: lr
STACK CFI INIT 9b9a4 50 .cfa: sp 0 + .ra: lr
STACK CFI INIT 9b9f4 58 .cfa: sp 0 + .ra: lr
STACK CFI INIT 9ba4c 6c .cfa: sp 0 + .ra: lr
STACK CFI INIT 9bab8 a0 .cfa: sp 0 + .ra: lr
STACK CFI INIT 9bb58 64 .cfa: sp 0 + .ra: lr
STACK CFI 9bb60 .cfa: sp 4 +
STACK CFI 9bb64 r4: .cfa -4 + ^
STACK CFI INIT 9bbbc 8c .cfa: sp 0 + .ra: lr
STACK CFI 9bbc4 .cfa: sp 4 +
STACK CFI 9bbc8 r4: .cfa -4 + ^
STACK CFI INIT 9bc48 8c .cfa: sp 0 + .ra: lr
STACK CFI 9bc50 .cfa: sp 4 +
STACK CFI 9bc54 r4: .cfa -4 + ^
STACK CFI INIT 9bcd4 68 .cfa: sp 0 + .ra: lr
STACK CFI INIT 9bd3c 1d0 .cfa: sp 0 + .ra: lr
STACK CFI 9bd44 .cfa: sp 32 +
STACK CFI 9bd48 .cfa: sp 64 +
STACK CFI 9bd4c .ra: .cfa -4 + ^ r10: .cfa -8 + ^ r4: .cfa -32 + ^ r5: .cfa -28 + ^ r6: .cfa -24 + ^ r7: .cfa -20 + ^ r8: .cfa -16 + ^ r9: .cfa -12 + ^
STACK CFI INIT 9bf0c 1b4 .cfa: sp 0 + .ra: lr
STACK CFI 9bf10 .cfa: sp 16 +
STACK CFI 9bf14 .ra: .cfa -4 + ^ r4: .cfa -16 + ^ r5: .cfa -12 + ^ r6: .cfa -8 + ^
STACK CFI 9bf28 .cfa: sp 32 +
STACK CFI INIT 9c0c0 84 .cfa: sp 0 + .ra: lr
STACK CFI 9c0c8 .cfa: sp 4 +
STACK CFI 9c0cc r4: .cfa -4 + ^
STACK CFI INIT 9c144 15c .cfa: sp 0 + .ra: lr
STACK CFI 9c150 .cfa: sp 32 +
STACK CFI 9c158 .ra: .cfa -4 + ^ r10: .cfa -8 + ^ r4: .cfa -32 + ^ r5: .cfa -28 + ^ r6: .cfa -24 + ^ r7: .cfa -20 + ^ r8: .cfa -16 + ^ r9: .cfa -12 + ^
STACK CFI INIT 9c2a0 7c .cfa: sp 0 + .ra: lr
STACK CFI 9c2a8 .cfa: sp 16 +
STACK CFI 9c2ac .ra: .cfa -4 + ^ r4: .cfa -16 + ^ r5: .cfa -12 + ^ r6: .cfa -8 + ^
STACK CFI INIT 9c31c 54 .cfa: sp 0 + .ra: lr
STACK CFI INIT 9c370 38 .cfa: sp 0 + .ra: lr
STACK CFI INIT 9c3a8 5c .cfa: sp 0 + .ra: lr
STACK CFI 9c3ac .cfa: sp 8 +
STACK CFI 9c3b0 .ra: .cfa -4 + ^ r3: .cfa -8 + ^
STACK CFI INIT 9c404 cc .cfa: sp 0 + .ra: lr
STACK CFI 9c40c .cfa: sp 16 +
STACK CFI 9c410 .ra: .cfa -4 + ^ r4: .cfa -16 + ^ r5: .cfa -12 + ^ r6: .cfa -8 + ^
STACK CFI INIT 9c4d0 6c .cfa: sp 0 + .ra: lr
STACK CFI 9c4d8 .cfa: sp 16 +
STACK CFI 9c4dc .ra: .cfa -4 + ^ r4: .cfa -16 + ^ r5: .cfa -12 + ^ r6: .cfa -8 + ^
STACK CFI INIT 9c53c 54 .cfa: sp 0 + .ra: lr
STACK CFI 9c544 .cfa: sp 8 +
STACK CFI 9c548 .ra: .cfa -4 + ^ r3: .cfa -8 + ^
STACK CFI INIT 9c590 54 .cfa: sp 0 + .ra: lr
STACK CFI 9c598 .cfa: sp 8 +
STACK CFI 9c59c .ra: .cfa -4 + ^ r3: .cfa -8 + ^
STACK CFI INIT 9c5e4 31c .cfa: sp 0 + .ra: lr
STACK CFI 9c5e8 .cfa: sp 36 +
STACK CFI 9c5ec .cfa: r11 4 + .ra: .cfa -4 + ^ r10: .cfa -12 + ^ r11: .cfa -8 + ^ r4: .cfa -36 + ^ r5: .cfa -32 + ^ r6: .cfa -28 + ^ r7: .cfa -24 + ^ r8: .cfa -20 + ^ r9: .cfa -16 + ^
STACK CFI INIT 9c900 124 .cfa: sp 0 + .ra: lr
STACK CFI 9c908 .cfa: sp 16 +
STACK CFI 9c90c .ra: .cfa -4 + ^ r3: .cfa -16 + ^ r4: .cfa -12 + ^ r5: .cfa -8 + ^
STACK CFI INIT 9ca24 2b0 .cfa: sp 0 + .ra: lr
STACK CFI 9ca28 .cfa: sp 36 +
STACK CFI 9ca30 .cfa: sp 64 +
STACK CFI 9ca34 .ra: .cfa -4 + ^ r10: .cfa -12 + ^ r11: .cfa -8 + ^ r4: .cfa -36 + ^ r5: .cfa -32 + ^ r6: .cfa -28 + ^ r7: .cfa -24 + ^ r8: .cfa -20 + ^ r9: .cfa -16 + ^
STACK CFI INIT 9ccd4 128 .cfa: sp 0 + .ra: lr
STACK CFI 9ccd8 .cfa: sp 28 +
STACK CFI 9cce0 .cfa: sp 40 +
STACK CFI 9cce4 .ra: .cfa -4 + ^ r10: .cfa -8 + ^ r4: .cfa -28 + ^ r5: .cfa -24 + ^ r6: .cfa -20 + ^ r7: .cfa -16 + ^ r8: .cfa -12 + ^
STACK CFI INIT 9cdfc d8 .cfa: sp 0 + .ra: lr
STACK CFI 9ce04 .cfa: sp 16 +
STACK CFI 9ce0c .cfa: sp 24 +
STACK CFI 9ce10 .ra: .cfa -4 + ^ r4: .cfa -16 + ^ r5: .cfa -12 + ^ r6: .cfa -8 + ^
STACK CFI INIT 9ced4 e8 .cfa: sp 0 + .ra: lr
STACK CFI 9cedc .cfa: sp 16 +
STACK CFI 9cee4 .cfa: sp 24 +
STACK CFI 9cee8 .ra: .cfa -4 + ^ r4: .cfa -16 + ^ r5: .cfa -12 + ^ r6: .cfa -8 + ^
STACK CFI INIT 9cfbc e8 .cfa: sp 0 + .ra: lr
STACK CFI 9cfc0 .cfa: sp 24 +
STACK CFI 9cfc8 .ra: .cfa -4 + ^ r4: .cfa -24 + ^ r5: .cfa -20 + ^ r6: .cfa -16 + ^ r7: .cfa -12 + ^ r8: .cfa -8 + ^
STACK CFI INIT 9d0a4 54 .cfa: sp 0 + .ra: lr
STACK CFI 9d0ac .cfa: sp 8 +
STACK CFI 9d0b0 .ra: .cfa -4 + ^ r3: .cfa -8 + ^
STACK CFI INIT 9d0f8 6c .cfa: sp 0 + .ra: lr
STACK CFI 9d100 .cfa: sp 16 +
STACK CFI 9d104 .ra: .cfa -4 + ^ r3: .cfa -16 + ^ r4: .cfa -12 + ^ r5: .cfa -8 + ^
STACK CFI INIT 9d164 12c .cfa: sp 0 + .ra: lr
STACK CFI 9d168 .cfa: sp 16 +
STACK CFI 9d16c .ra: .cfa -4 + ^ r4: .cfa -16 + ^ r5: .cfa -12 + ^ r6: .cfa -8 + ^
STACK CFI INIT 9d290 14c .cfa: sp 0 + .ra: lr
STACK CFI 9d29c .cfa: sp 20 +
STACK CFI 9d2a4 .cfa: sp 32 +
STACK CFI 9d2a8 .ra: .cfa -4 + ^ r4: .cfa -20 + ^ r5: .cfa -16 + ^ r6: .cfa -12 + ^ r7: .cfa -8 + ^
STACK CFI INIT 9d3dc 10c .cfa: sp 0 + .ra: lr
STACK CFI 9d3e4 .cfa: sp 20 +
STACK CFI 9d3e8 .ra: .cfa -4 + ^ r4: .cfa -20 + ^ r5: .cfa -16 + ^ r6: .cfa -12 + ^ r7: .cfa -8 + ^
STACK CFI 9d3ec .cfa: sp 40 +
STACK CFI INIT 9d4e8 2b0 .cfa: sp 0 + .ra: lr
STACK CFI 9d4ec .cfa: sp 36 +
STACK CFI 9d4f4 .cfa: r11 4 + .ra: .cfa -4 + ^ r10: .cfa -12 + ^ r11: .cfa -8 + ^ r4: .cfa -36 + ^ r5: .cfa -32 + ^ r6: .cfa -28 + ^ r7: .cfa -24 + ^ r8: .cfa -20 + ^ r9: .cfa -16 + ^
STACK CFI INIT 9d798 2cc .cfa: sp 0 + .ra: lr
STACK CFI 9d79c .cfa: sp 36 +
STACK CFI 9d7a4 .cfa: r11 4 + .ra: .cfa -4 + ^ r10: .cfa -12 + ^ r11: .cfa -8 + ^ r4: .cfa -36 + ^ r5: .cfa -32 + ^ r6: .cfa -28 + ^ r7: .cfa -24 + ^ r8: .cfa -20 + ^ r9: .cfa -16 + ^
STACK CFI INIT 9da64 f4 .cfa: sp 0 + .ra: lr
STACK CFI 9da68 .cfa: sp 28 +
STACK CFI 9da6c .cfa: sp 56 +
STACK CFI 9da88 .ra: .cfa -4 + ^ r10: .cfa -8 + ^ r4: .cfa -28 + ^ r5: .cfa -24 + ^ r6: .cfa -20 + ^ r7: .cfa -16 + ^ r8: .cfa -12 + ^
STACK CFI INIT 9db58 2b8 .cfa: sp 0 + .ra: lr
STACK CFI 9db60 .cfa: sp 36 +
STACK CFI 9db64 .ra: .cfa -4 + ^ r10: .cfa -12 + ^ r11: .cfa -8 + ^ r4: .cfa -36 + ^ r5: .cfa -32 + ^ r6: .cfa -28 + ^ r7: .cfa -24 + ^ r8: .cfa -20 + ^ r9: .cfa -16 + ^
STACK CFI 9db68 .cfa: r11 4 +
STACK CFI INIT 9de10 378 .cfa: sp 0 + .ra: lr
STACK CFI 9de14 .cfa: sp 36 +
STACK CFI 9de1c .cfa: r11 4 + .ra: .cfa -4 + ^ r10: .cfa -12 + ^ r11: .cfa -8 + ^ r4: .cfa -36 + ^ r5: .cfa -32 + ^ r6: .cfa -28 + ^ r7: .cfa -24 + ^ r8: .cfa -20 + ^ r9: .cfa -16 + ^
STACK CFI INIT 9e188 e8 .cfa: sp 0 + .ra: lr
STACK CFI 9e18c .cfa: sp 8 +
STACK CFI 9e190 .cfa: sp 24 +
STACK CFI 9e194 .ra: .cfa -4 + ^ r4: .cfa -8 + ^
STACK CFI INIT 9e270 e8 .cfa: sp 0 + .ra: lr
STACK CFI 9e274 .cfa: sp 8 +
STACK CFI 9e278 .cfa: sp 24 +
STACK CFI 9e27c .ra: .cfa -4 + ^ r4: .cfa -8 + ^
STACK CFI INIT 9e358 750 .cfa: sp 0 + .ra: lr
STACK CFI 9e360 .cfa: sp 36 +
STACK CFI 9e368 .cfa: r11 4 + .ra: .cfa -4 + ^ r10: .cfa -12 + ^ r11: .cfa -8 + ^ r4: .cfa -36 + ^ r5: .cfa -32 + ^ r6: .cfa -28 + ^ r7: .cfa -24 + ^ r8: .cfa -20 + ^ r9: .cfa -16 + ^
STACK CFI INIT 9eaa8 168 .cfa: sp 0 + .ra: lr
STACK CFI 9eaac .cfa: sp 12 +
STACK CFI 9eab4 .cfa: sp 48 +
STACK CFI 9eabc .ra: .cfa -4 + ^ r4: .cfa -12 + ^ r5: .cfa -8 + ^
STACK CFI INIT 9ec10 b80 .cfa: sp 0 + .ra: lr
STACK CFI 9ec14 .cfa: sp 36 +
STACK CFI 9ec18 .ra: .cfa -4 + ^ r10: .cfa -12 + ^ r11: .cfa -8 + ^ r4: .cfa -36 + ^ r5: .cfa -32 + ^ r6: .cfa -28 + ^ r7: .cfa -24 + ^ r8: .cfa -20 + ^ r9: .cfa -16 + ^
STACK CFI 9ec1c .cfa: r11 4 +
STACK CFI INIT 9f790 4ac .cfa: sp 0 + .ra: lr
STACK CFI 9f798 .cfa: sp 36 +
STACK CFI 9f7a0 .cfa: r11 4 + .ra: .cfa -4 + ^ r10: .cfa -12 + ^ r11: .cfa -8 + ^ r4: .cfa -36 + ^ r5: .cfa -32 + ^ r6: .cfa -28 + ^ r7: .cfa -24 + ^ r8: .cfa -20 + ^ r9: .cfa -16 + ^
STACK CFI INIT 9fc3c 488 .cfa: sp 0 + .ra: lr
STACK CFI 9fc40 .cfa: sp 36 +
STACK CFI 9fc48 .cfa: r11 4 + .ra: .cfa -4 + ^ r10: .cfa -12 + ^ r11: .cfa -8 + ^ r4: .cfa -36 + ^ r5: .cfa -32 + ^ r6: .cfa -28 + ^ r7: .cfa -24 + ^ r8: .cfa -20 + ^ r9: .cfa -16 + ^
STACK CFI INIT a00c4 53c .cfa: sp 0 + .ra: lr
STACK CFI a00cc .cfa: sp 36 +
STACK CFI a00d4 .cfa: r11 4 + .ra: .cfa -4 + ^ r10: .cfa -12 + ^ r11: .cfa -8 + ^ r4: .cfa -36 + ^ r5: .cfa -32 + ^ r6: .cfa -28 + ^ r7: .cfa -24 + ^ r8: .cfa -20 + ^ r9: .cfa -16 + ^
STACK CFI INIT a0600 2ac .cfa: sp 0 + .ra: lr
STACK CFI a0604 .cfa: sp 32 +
STACK CFI a060c .cfa: sp 72 +
STACK CFI a0610 .ra: .cfa -4 + ^ r10: .cfa -8 + ^ r4: .cfa -32 + ^ r5: .cfa -28 + ^ r6: .cfa -24 + ^ r7: .cfa -20 + ^ r8: .cfa -16 + ^ r9: .cfa -12 + ^
STACK CFI INIT a08ac 288 .cfa: sp 0 + .ra: lr
STACK CFI a08b0 .cfa: sp 28 +
STACK CFI a08b8 .cfa: sp 56 +
STACK CFI a08bc .ra: .cfa -4 + ^ r10: .cfa -8 + ^ r4: .cfa -28 + ^ r5: .cfa -24 + ^ r6: .cfa -20 + ^ r7: .cfa -16 + ^ r8: .cfa -12 + ^
STACK CFI INIT a0b34 b0 .cfa: sp 0 + .ra: lr
STACK CFI a0b3c .cfa: sp 4 +
STACK CFI a0b40 r4: .cfa -4 + ^
STACK CFI INIT a0be4 cc .cfa: sp 0 + .ra: lr
STACK CFI a0bec .cfa: sp 20 +
STACK CFI a0bf0 .ra: .cfa -4 + ^ r4: .cfa -20 + ^ r5: .cfa -16 + ^ r6: .cfa -12 + ^ r7: .cfa -8 + ^
STACK CFI a0bf4 .cfa: sp 40 +
STACK CFI INIT a0cb0 b0 .cfa: sp 0 + .ra: lr
STACK CFI a0cb8 .cfa: sp 24 +
STACK CFI a0cbc .ra: .cfa -4 + ^ r4: .cfa -24 + ^ r5: .cfa -20 + ^ r6: .cfa -16 + ^ r7: .cfa -12 + ^ r8: .cfa -8 + ^
STACK CFI a0cc0 .cfa: sp 40 +
STACK CFI INIT a0d60 144 .cfa: sp 0 + .ra: lr
STACK CFI a0d68 .cfa: sp 24 +
STACK CFI a0d6c .ra: .cfa -4 + ^ r4: .cfa -24 + ^ r5: .cfa -20 + ^ r6: .cfa -16 + ^ r7: .cfa -12 + ^ r8: .cfa -8 + ^
STACK CFI INIT a0ea4 180 .cfa: sp 0 + .ra: lr
STACK CFI a0eac .cfa: sp 16 +
STACK CFI a0eb0 .cfa: sp 32 +
STACK CFI a0eb4 .ra: .cfa -4 + ^ r4: .cfa -16 + ^ r5: .cfa -12 + ^ r6: .cfa -8 + ^
STACK CFI INIT a1024 2c0 .cfa: sp 0 + .ra: lr
STACK CFI a1028 .cfa: sp 36 +
STACK CFI a1030 .cfa: sp 72 +
STACK CFI a1034 .ra: .cfa -4 + ^ r10: .cfa -12 + ^ r11: .cfa -8 + ^ r4: .cfa -36 + ^ r5: .cfa -32 + ^ r6: .cfa -28 + ^ r7: .cfa -24 + ^ r8: .cfa -20 + ^ r9: .cfa -16 + ^
STACK CFI INIT a12e4 80 .cfa: sp 0 + .ra: lr
STACK CFI a12ec .cfa: sp 8 +
STACK CFI a12f0 .ra: .cfa -4 + ^ r3: .cfa -8 + ^
STACK CFI INIT a1364 70 .cfa: sp 0 + .ra: lr
STACK CFI a136c .cfa: sp 8 +
STACK CFI a1370 .ra: .cfa -4 + ^ r4: .cfa -8 + ^
STACK CFI INIT a13d4 138 .cfa: sp 0 + .ra: lr
STACK CFI a13dc .cfa: sp 24 +
STACK CFI a13e0 .ra: .cfa -4 + ^ r4: .cfa -24 + ^ r5: .cfa -20 + ^ r6: .cfa -16 + ^ r7: .cfa -12 + ^ r8: .cfa -8 + ^
STACK CFI a13e4 .cfa: sp 32 +
STACK CFI INIT a150c 64 .cfa: sp 0 + .ra: lr
STACK CFI a1510 .cfa: sp 4 +
STACK CFI a1518 .cfa: sp 16 +
STACK CFI a1520 .ra: .cfa -4 + ^
STACK CFI INIT a1570 a0 .cfa: sp 0 + .ra: lr
STACK CFI a1578 .cfa: sp 8 +
STACK CFI a157c .ra: .cfa -4 + ^ r3: .cfa -8 + ^
STACK CFI INIT a1610 11c .cfa: sp 0 + .ra: lr
STACK CFI a1618 .cfa: sp 20 +
STACK CFI a161c .ra: .cfa -4 + ^ r4: .cfa -20 + ^ r5: .cfa -16 + ^ r6: .cfa -12 + ^ r7: .cfa -8 + ^
STACK CFI a1620 .cfa: sp 32 +
STACK CFI INIT a172c f8 .cfa: sp 0 + .ra: lr
STACK CFI a1734 .cfa: sp 20 +
STACK CFI a1738 .ra: .cfa -4 + ^ r4: .cfa -20 + ^ r5: .cfa -16 + ^ r6: .cfa -12 + ^ r7: .cfa -8 + ^
STACK CFI a173c .cfa: sp 32 +
STACK CFI INIT a1824 440 .cfa: sp 0 + .ra: lr
STACK CFI a182c .cfa: sp 36 +
STACK CFI a1834 .cfa: r11 4 + .ra: .cfa -4 + ^ r10: .cfa -12 + ^ r11: .cfa -8 + ^ r4: .cfa -36 + ^ r5: .cfa -32 + ^ r6: .cfa -28 + ^ r7: .cfa -24 + ^ r8: .cfa -20 + ^ r9: .cfa -16 + ^
STACK CFI INIT a1c64 dc .cfa: sp 0 + .ra: lr
STACK CFI a1c68 .cfa: sp 16 +
STACK CFI a1c6c .ra: .cfa -4 + ^ r4: .cfa -16 + ^ r5: .cfa -12 + ^ r6: .cfa -8 + ^
STACK CFI a1c70 .cfa: sp 48 +
STACK CFI INIT a1d40 418 .cfa: sp 0 + .ra: lr
STACK CFI a1d4c .cfa: sp 36 +
STACK CFI a1d54 .cfa: sp 80 +
STACK CFI a1d58 .ra: .cfa -4 + ^ r10: .cfa -12 + ^ r11: .cfa -8 + ^ r4: .cfa -36 + ^ r5: .cfa -32 + ^ r6: .cfa -28 + ^ r7: .cfa -24 + ^ r8: .cfa -20 + ^ r9: .cfa -16 + ^
STACK CFI INIT a2158 430 .cfa: sp 0 + .ra: lr
STACK CFI a215c .cfa: sp 36 +
STACK CFI a2160 .ra: .cfa -4 + ^ r10: .cfa -12 + ^ r11: .cfa -8 + ^ r4: .cfa -36 + ^ r5: .cfa -32 + ^ r6: .cfa -28 + ^ r7: .cfa -24 + ^ r8: .cfa -20 + ^ r9: .cfa -16 + ^
STACK CFI a2164 .cfa: r11 4 +
STACK CFI INIT a2588 260 .cfa: sp 0 + .ra: lr
STACK CFI a258c .cfa: sp 32 +
STACK CFI a2590 .ra: .cfa -4 + ^ r10: .cfa -8 + ^ r3: .cfa -32 + ^ r4: .cfa -28 + ^ r5: .cfa -24 + ^ r6: .cfa -20 + ^ r7: .cfa -16 + ^ r8: .cfa -12 + ^
STACK CFI INIT a27e8 58 .cfa: sp 0 + .ra: lr
STACK CFI a27f0 .cfa: sp 8 +
STACK CFI a27f4 .ra: .cfa -4 + ^ r4: .cfa -8 + ^
STACK CFI INIT a2840 9b8 .cfa: sp 0 + .ra: lr
STACK CFI a2844 .cfa: sp 36 +
STACK CFI a2848 .cfa: sp 80 +
STACK CFI a284c .ra: .cfa -4 + ^ r10: .cfa -12 + ^ r11: .cfa -8 + ^ r4: .cfa -36 + ^ r5: .cfa -32 + ^ r6: .cfa -28 + ^ r7: .cfa -24 + ^ r8: .cfa -20 + ^ r9: .cfa -16 + ^
STACK CFI INIT a31f8 1e0 .cfa: sp 0 + .ra: lr
STACK CFI a31fc .cfa: sp 24 +
STACK CFI a3200 .ra: .cfa -4 + ^ r4: .cfa -24 + ^ r5: .cfa -20 + ^ r6: .cfa -16 + ^ r7: .cfa -12 + ^ r8: .cfa -8 + ^
STACK CFI a3204 .cfa: sp 80 +
STACK CFI INIT a33d8 cc .cfa: sp 0 + .ra: lr
STACK CFI a33e8 .cfa: sp 24 +
STACK CFI a33ec .ra: .cfa -4 + ^ r4: .cfa -24 + ^ r5: .cfa -20 + ^ r6: .cfa -16 + ^ r7: .cfa -12 + ^ r8: .cfa -8 + ^
STACK CFI INIT a34a4 6c .cfa: sp 0 + .ra: lr
STACK CFI a34a8 .cfa: sp 24 +
STACK CFI a34ac .ra: .cfa -4 + ^ r4: .cfa -24 + ^ r5: .cfa -20 + ^ r6: .cfa -16 + ^ r7: .cfa -12 + ^ r8: .cfa -8 + ^
STACK CFI INIT a3510 3c0 .cfa: sp 0 + .ra: lr
STACK CFI a3514 .cfa: sp 36 +
STACK CFI a3518 .ra: .cfa -4 + ^ r10: .cfa -12 + ^ r11: .cfa -8 + ^ r4: .cfa -36 + ^ r5: .cfa -32 + ^ r6: .cfa -28 + ^ r7: .cfa -24 + ^ r8: .cfa -20 + ^ r9: .cfa -16 + ^
STACK CFI a3520 .cfa: sp 96 +
STACK CFI INIT a38d0 298 .cfa: sp 0 + .ra: lr
STACK CFI a38d4 .cfa: sp 36 +
STACK CFI a38d8 .ra: .cfa -4 + ^ r10: .cfa -12 + ^ r11: .cfa -8 + ^ r4: .cfa -36 + ^ r5: .cfa -32 + ^ r6: .cfa -28 + ^ r7: .cfa -24 + ^ r8: .cfa -20 + ^ r9: .cfa -16 + ^
STACK CFI a38e4 .cfa: sp 72 +
STACK CFI INIT a3b68 3d8 .cfa: sp 0 + .ra: lr
STACK CFI a3b6c .cfa: sp 36 +
STACK CFI a3b70 .ra: .cfa -4 + ^ r10: .cfa -12 + ^ r11: .cfa -8 + ^ r4: .cfa -36 + ^ r5: .cfa -32 + ^ r6: .cfa -28 + ^ r7: .cfa -24 + ^ r8: .cfa -20 + ^ r9: .cfa -16 + ^
STACK CFI a3b78 .cfa: sp 112 +
STACK CFI INIT a3f40 6c .cfa: sp 0 + .ra: lr
STACK CFI a3f44 .cfa: sp 16 +
STACK CFI a3f48 .ra: .cfa -4 + ^ r3: .cfa -16 + ^ r4: .cfa -12 + ^ r5: .cfa -8 + ^
STACK CFI INIT a3fac 2a0 .cfa: sp 0 + .ra: lr
STACK CFI a3fb0 .cfa: sp 36 +
STACK CFI a3fb4 .ra: .cfa -4 + ^ r10: .cfa -12 + ^ r11: .cfa -8 + ^ r4: .cfa -36 + ^ r5: .cfa -32 + ^ r6: .cfa -28 + ^ r7: .cfa -24 + ^ r8: .cfa -20 + ^ r9: .cfa -16 + ^
STACK CFI a3fc0 .cfa: sp 64 +
STACK CFI INIT a424c 174 .cfa: sp 0 + .ra: lr
STACK CFI a4250 .cfa: sp 36 +
STACK CFI a4254 .ra: .cfa -4 + ^ r10: .cfa -12 + ^ r11: .cfa -8 + ^ r4: .cfa -36 + ^ r5: .cfa -32 + ^ r6: .cfa -28 + ^ r7: .cfa -24 + ^ r8: .cfa -20 + ^ r9: .cfa -16 + ^
STACK CFI a4258 .cfa: sp 80 +
STACK CFI INIT a43c0 1cc .cfa: sp 0 + .ra: lr
STACK CFI a43c4 .cfa: sp 24 +
STACK CFI a43c8 .ra: .cfa -4 + ^ r4: .cfa -24 + ^ r5: .cfa -20 + ^ r6: .cfa -16 + ^ r7: .cfa -12 + ^ r8: .cfa -8 + ^
STACK CFI a43cc .cfa: sp 72 +
STACK CFI INIT a458c 430 .cfa: sp 0 + .ra: lr
STACK CFI a4590 .cfa: sp 36 +
STACK CFI a4594 .ra: .cfa -4 + ^ r10: .cfa -12 + ^ r11: .cfa -8 + ^ r4: .cfa -36 + ^ r5: .cfa -32 + ^ r6: .cfa -28 + ^ r7: .cfa -24 + ^ r8: .cfa -20 + ^ r9: .cfa -16 + ^
STACK CFI a459c .cfa: sp 280 +
STACK CFI INIT a49bc 8c .cfa: sp 0 + .ra: lr
STACK CFI a49c0 .cfa: sp 16 +
STACK CFI a49c4 .ra: .cfa -4 + ^ r3: .cfa -16 + ^ r4: .cfa -12 + ^ r5: .cfa -8 + ^
STACK CFI INIT a4a48 70 .cfa: sp 0 + .ra: lr
STACK CFI a4a4c .cfa: sp 16 +
STACK CFI a4a50 .ra: .cfa -4 + ^ r4: .cfa -16 + ^ r5: .cfa -12 + ^ r6: .cfa -8 + ^
STACK CFI INIT a4ab8 2ec .cfa: sp 0 + .ra: lr
STACK CFI a4abc .cfa: sp 36 +
STACK CFI a4ac0 .ra: .cfa -4 + ^ r10: .cfa -12 + ^ r11: .cfa -8 + ^ r4: .cfa -36 + ^ r5: .cfa -32 + ^ r6: .cfa -28 + ^ r7: .cfa -24 + ^ r8: .cfa -20 + ^ r9: .cfa -16 + ^
STACK CFI a4acc .cfa: sp 232 +
STACK CFI INIT a4da4 1e4 .cfa: sp 0 + .ra: lr
STACK CFI a4da8 .cfa: sp 36 +
STACK CFI a4dac .ra: .cfa -4 + ^ r10: .cfa -12 + ^ r11: .cfa -8 + ^ r4: .cfa -36 + ^ r5: .cfa -32 + ^ r6: .cfa -28 + ^ r7: .cfa -24 + ^ r8: .cfa -20 + ^ r9: .cfa -16 + ^
STACK CFI a4db4 .cfa: sp 88 +
STACK CFI INIT a4f88 1e4 .cfa: sp 0 + .ra: lr
STACK CFI a4f8c .cfa: sp 24 +
STACK CFI a4f90 .ra: .cfa -4 + ^ r4: .cfa -24 + ^ r5: .cfa -20 + ^ r6: .cfa -16 + ^ r7: .cfa -12 + ^ r8: .cfa -8 + ^
STACK CFI a4f94 .cfa: sp 72 +
STACK CFI INIT a516c 40 .cfa: sp 0 + .ra: lr
STACK CFI INIT a51ac 88 .cfa: sp 0 + .ra: lr
STACK CFI a51b4 .cfa: sp 8 +
STACK CFI a51bc r4: .cfa -8 + ^ r5: .cfa -4 + ^
STACK CFI INIT a5234 54 .cfa: sp 0 + .ra: lr
STACK CFI INIT a5288 78 .cfa: sp 0 + .ra: lr
STACK CFI INIT a5300 68 .cfa: sp 0 + .ra: lr
STACK CFI a5308 .cfa: sp 4 +
STACK CFI a530c r4: .cfa -4 + ^
STACK CFI INIT a5368 78 .cfa: sp 0 + .ra: lr
STACK CFI INIT a53e0 f0 .cfa: sp 0 + .ra: lr
STACK CFI a53e8 .cfa: sp 12 +
STACK CFI a53ec .ra: .cfa -4 + ^ r4: .cfa -12 + ^ r5: .cfa -8 + ^
STACK CFI a53f0 .cfa: sp 32 +
STACK CFI INIT a54d0 4c .cfa: sp 0 + .ra: lr
STACK CFI INIT a551c 98 .cfa: sp 0 + .ra: lr
STACK CFI a5520 .cfa: sp 4 +
STACK CFI a5524 .cfa: sp 24 +
STACK CFI a5534 .ra: .cfa -4 + ^
STACK CFI INIT a55b4 84 .cfa: sp 0 + .ra: lr
STACK CFI a55bc .cfa: sp 4 +
STACK CFI a55c4 .cfa: sp 16 +
STACK CFI a55c8 .ra: .cfa -4 + ^
STACK CFI INIT a5638 a4 .cfa: sp 0 + .ra: lr
STACK CFI a5640 .cfa: sp 16 +
STACK CFI a5644 .ra: .cfa -4 + ^ r4: .cfa -16 + ^ r5: .cfa -12 + ^ r6: .cfa -8 + ^
STACK CFI INIT a56dc 34 .cfa: sp 0 + .ra: lr
STACK CFI INIT a5710 8c .cfa: sp 0 + .ra: lr
STACK CFI a5718 .cfa: sp 4 +
STACK CFI a571c r4: .cfa -4 + ^
STACK CFI INIT a579c 4c .cfa: sp 0 + .ra: lr
STACK CFI INIT a57e8 54 .cfa: sp 0 + .ra: lr
STACK CFI INIT a583c a8 .cfa: sp 0 + .ra: lr
STACK CFI a5840 .cfa: sp 4 +
STACK CFI a5848 .cfa: sp 16 +
STACK CFI a5850 .ra: .cfa -4 + ^
STACK CFI INIT a58e4 9c .cfa: sp 0 + .ra: lr
STACK CFI a58ec .cfa: sp 12 +
STACK CFI a58f0 .ra: .cfa -4 + ^ r4: .cfa -12 + ^ r5: .cfa -8 + ^
STACK CFI a58f4 .cfa: sp 24 +
STACK CFI INIT a5980 5c .cfa: sp 0 + .ra: lr
STACK CFI INIT a59dc 90 .cfa: sp 0 + .ra: lr
STACK CFI a59e4 .cfa: sp 8 +
STACK CFI a59e8 r4: .cfa -8 + ^ r5: .cfa -4 + ^
STACK CFI INIT a5a6c 6c .cfa: sp 0 + .ra: lr
STACK CFI a5a70 .cfa: sp 4 +
STACK CFI a5a78 .cfa: sp 16 +
STACK CFI a5a80 .ra: .cfa -4 + ^
STACK CFI INIT a5ad8 e8 .cfa: sp 0 + .ra: lr
STACK CFI a5ae0 .cfa: sp 12 +
STACK CFI a5ae4 .ra: .cfa -4 + ^ r4: .cfa -12 + ^ r5: .cfa -8 + ^
STACK CFI a5ae8 .cfa: sp 32 +
STACK CFI INIT a5bc0 284 .cfa: sp 0 + .ra: lr
STACK CFI a5bc8 .cfa: sp 16 +
STACK CFI a5bcc .ra: .cfa -4 + ^ r4: .cfa -16 + ^ r5: .cfa -12 + ^ r6: .cfa -8 + ^
STACK CFI a5bd0 .cfa: sp 88 +
STACK CFI INIT a5e44 74 .cfa: sp 0 + .ra: lr
STACK CFI INIT a5eb8 48 .cfa: sp 0 + .ra: lr
STACK CFI INIT a5f00 b0 .cfa: sp 0 + .ra: lr
STACK CFI a5f08 .cfa: sp 16 +
STACK CFI a5f0c .ra: .cfa -4 + ^ r4: .cfa -16 + ^ r5: .cfa -12 + ^ r6: .cfa -8 + ^
STACK CFI INIT a5fb0 7c .cfa: sp 0 + .ra: lr
STACK CFI a5fb4 .cfa: sp 4 +
STACK CFI a5fb8 .cfa: sp 16 +
STACK CFI a5fd4 .ra: .cfa -4 + ^
STACK CFI INIT a602c 68 .cfa: sp 0 + .ra: lr
STACK CFI INIT a6094 90 .cfa: sp 0 + .ra: lr
STACK CFI INIT a6124 7c .cfa: sp 0 + .ra: lr
STACK CFI INIT a61a0 48 .cfa: sp 0 + .ra: lr
STACK CFI INIT a61e8 64 .cfa: sp 0 + .ra: lr
STACK CFI INIT a624c 6c .cfa: sp 0 + .ra: lr
STACK CFI a6254 .cfa: sp 8 +
STACK CFI a6258 .ra: .cfa -4 + ^ r4: .cfa -8 + ^
STACK CFI a625c .cfa: sp 16 +
STACK CFI INIT a62b8 78 .cfa: sp 0 + .ra: lr
STACK CFI a62c0 .cfa: sp 4 +
STACK CFI a62c4 .cfa: sp 16 +
STACK CFI a62c8 .ra: .cfa -4 + ^
STACK CFI INIT a6330 78 .cfa: sp 0 + .ra: lr
STACK CFI a6338 .cfa: sp 4 +
STACK CFI a633c .cfa: sp 16 +
STACK CFI a6340 .ra: .cfa -4 + ^
STACK CFI INIT a63a8 c0 .cfa: sp 0 + .ra: lr
STACK CFI a63ac .cfa: sp 12 +
STACK CFI a63b0 .cfa: sp 32 +
STACK CFI a63b4 .ra: .cfa -4 + ^ r4: .cfa -12 + ^ r5: .cfa -8 + ^
STACK CFI INIT a6468 88 .cfa: sp 0 + .ra: lr
STACK CFI a646c .cfa: sp 4 +
STACK CFI a6470 .cfa: sp 24 +
STACK CFI a6480 .ra: .cfa -4 + ^
STACK CFI INIT a64f0 34 .cfa: sp 0 + .ra: lr
STACK CFI INIT a6524 4c .cfa: sp 0 + .ra: lr
STACK CFI INIT a6570 b8 .cfa: sp 0 + .ra: lr
STACK CFI a6578 .cfa: sp 16 +
STACK CFI a657c .ra: .cfa -4 + ^ r4: .cfa -16 + ^ r5: .cfa -12 + ^ r6: .cfa -8 + ^
STACK CFI INIT a6628 64 .cfa: sp 0 + .ra: lr
STACK CFI a6630 .cfa: sp 8 +
STACK CFI a6634 .ra: .cfa -4 + ^ r4: .cfa -8 + ^
STACK CFI INIT a668c 1f8 .cfa: sp 0 + .ra: lr
STACK CFI a6698 .cfa: sp 28 +
STACK CFI a66a0 .cfa: sp 56 +
STACK CFI a66a4 .ra: .cfa -4 + ^ r4: .cfa -28 + ^ r5: .cfa -24 + ^ r6: .cfa -20 + ^ r7: .cfa -16 + ^ r8: .cfa -12 + ^ r9: .cfa -8 + ^
STACK CFI INIT a6884 98 .cfa: sp 0 + .ra: lr
STACK CFI a6888 .cfa: sp 16 +
STACK CFI a688c .ra: .cfa -4 + ^ r4: .cfa -16 + ^ r5: .cfa -12 + ^ r6: .cfa -8 + ^
STACK CFI INIT a691c 9c .cfa: sp 0 + .ra: lr
STACK CFI a6924 .cfa: sp 12 +
STACK CFI a6928 .ra: .cfa -4 + ^ r4: .cfa -12 + ^ r5: .cfa -8 + ^
STACK CFI a692c .cfa: sp 24 +
STACK CFI INIT a69b8 14c .cfa: sp 0 + .ra: lr
STACK CFI a69c0 .cfa: sp 20 +
STACK CFI a69c4 .ra: .cfa -4 + ^ r4: .cfa -20 + ^ r5: .cfa -16 + ^ r6: .cfa -12 + ^ r7: .cfa -8 + ^
STACK CFI a69c8 .cfa: sp 32 +
STACK CFI INIT a6b04 3c0 .cfa: sp 0 + .ra: lr
STACK CFI a6b08 .cfa: sp 32 +
STACK CFI a6b0c .ra: .cfa -4 + ^ r10: .cfa -8 + ^ r4: .cfa -32 + ^ r5: .cfa -28 + ^ r6: .cfa -24 + ^ r7: .cfa -20 + ^ r8: .cfa -16 + ^ r9: .cfa -12 + ^
STACK CFI a6b10 .cfa: sp 40 +
STACK CFI INIT a6ec4 40 .cfa: sp 0 + .ra: lr
STACK CFI INIT a6f04 50 .cfa: sp 0 + .ra: lr
STACK CFI INIT a6f54 7c .cfa: sp 0 + .ra: lr
STACK CFI a6f5c .cfa: sp 8 +
STACK CFI a6f64 r4: .cfa -8 + ^ r5: .cfa -4 + ^
STACK CFI INIT a6fd0 158 .cfa: sp 0 + .ra: lr
STACK CFI a6fdc .cfa: sp 8 +
STACK CFI a6fe8 r4: .cfa -8 + ^ r5: .cfa -4 + ^
STACK CFI INIT a7128 84 .cfa: sp 0 + .ra: lr
STACK CFI a7130 .cfa: sp 4 +
STACK CFI a7134 r4: .cfa -4 + ^
STACK CFI INIT a71ac 100 .cfa: sp 0 + .ra: lr
STACK CFI a71b4 .cfa: sp 16 +
STACK CFI a71b8 .ra: .cfa -4 + ^ r4: .cfa -16 + ^ r5: .cfa -12 + ^ r6: .cfa -8 + ^
STACK CFI a71bc .cfa: sp 40 +
STACK CFI INIT a72ac 108 .cfa: sp 0 + .ra: lr
STACK CFI a72b4 .cfa: sp 16 +
STACK CFI a72b8 .ra: .cfa -4 + ^ r4: .cfa -16 + ^ r5: .cfa -12 + ^ r6: .cfa -8 + ^
STACK CFI a72bc .cfa: sp 48 +
STACK CFI INIT a73b4 a4 .cfa: sp 0 + .ra: lr
STACK CFI a73bc .cfa: sp 16 +
STACK CFI a73c0 .ra: .cfa -4 + ^ r4: .cfa -16 + ^ r5: .cfa -12 + ^ r6: .cfa -8 + ^
STACK CFI INIT a7458 84 .cfa: sp 0 + .ra: lr
STACK CFI a7460 .cfa: sp 4 +
STACK CFI a7464 r4: .cfa -4 + ^
STACK CFI INIT a74dc d0 .cfa: sp 0 + .ra: lr
STACK CFI a74e4 .cfa: sp 16 +
STACK CFI a74e8 .ra: .cfa -4 + ^ r4: .cfa -16 + ^ r5: .cfa -12 + ^ r6: .cfa -8 + ^
STACK CFI a74ec .cfa: sp 80 +
STACK CFI INIT a75ac d8 .cfa: sp 0 + .ra: lr
STACK CFI a75b4 .cfa: sp 16 +
STACK CFI a75b8 .ra: .cfa -4 + ^ r4: .cfa -16 + ^ r5: .cfa -12 + ^ r6: .cfa -8 + ^
STACK CFI a75bc .cfa: sp 88 +
STACK CFI INIT a7684 a4 .cfa: sp 0 + .ra: lr
STACK CFI a768c .cfa: sp 16 +
STACK CFI a7690 .ra: .cfa -4 + ^ r4: .cfa -16 + ^ r5: .cfa -12 + ^ r6: .cfa -8 + ^
STACK CFI INIT a7728 84 .cfa: sp 0 + .ra: lr
STACK CFI a7730 .cfa: sp 4 +
STACK CFI a7734 r4: .cfa -4 + ^
STACK CFI INIT a77ac f4 .cfa: sp 0 + .ra: lr
STACK CFI a77b4 .cfa: sp 16 +
STACK CFI a77b8 .ra: .cfa -4 + ^ r4: .cfa -16 + ^ r5: .cfa -12 + ^ r6: .cfa -8 + ^
STACK CFI a77bc .cfa: sp 40 +
STACK CFI INIT a78a0 fc .cfa: sp 0 + .ra: lr
STACK CFI a78a8 .cfa: sp 16 +
STACK CFI a78ac .ra: .cfa -4 + ^ r4: .cfa -16 + ^ r5: .cfa -12 + ^ r6: .cfa -8 + ^
STACK CFI a78b0 .cfa: sp 48 +
STACK CFI INIT a799c a4 .cfa: sp 0 + .ra: lr
STACK CFI a79a4 .cfa: sp 16 +
STACK CFI a79a8 .ra: .cfa -4 + ^ r4: .cfa -16 + ^ r5: .cfa -12 + ^ r6: .cfa -8 + ^
STACK CFI INIT a7a40 58 .cfa: sp 0 + .ra: lr
STACK CFI a7a48 .cfa: sp 8 +
STACK CFI a7a4c .ra: .cfa -4 + ^ r4: .cfa -8 + ^
STACK CFI a7a50 .cfa: sp 16 +
STACK CFI INIT a7a98 34 .cfa: sp 0 + .ra: lr
STACK CFI INIT a7acc 48 .cfa: sp 0 + .ra: lr
STACK CFI INIT a7b14 7c .cfa: sp 0 + .ra: lr
STACK CFI a7b1c .cfa: sp 4 +
STACK CFI a7b24 .cfa: sp 24 +
STACK CFI a7b28 .ra: .cfa -4 + ^
STACK CFI INIT a7b90 c4 .cfa: sp 0 + .ra: lr
STACK CFI a7b94 .cfa: sp 20 +
STACK CFI a7b98 .cfa: sp 144 +
STACK CFI a7b9c .ra: .cfa -4 + ^ r4: .cfa -20 + ^ r5: .cfa -16 + ^ r6: .cfa -12 + ^ r7: .cfa -8 + ^
STACK CFI INIT a7c54 80 .cfa: sp 0 + .ra: lr
STACK CFI a7c5c .cfa: sp 12 +
STACK CFI a7c60 .ra: .cfa -4 + ^ r4: .cfa -12 + ^ r5: .cfa -8 + ^
STACK CFI a7c64 .cfa: sp 24 +
STACK CFI INIT a7cd4 68 .cfa: sp 0 + .ra: lr
STACK CFI a7cd8 .cfa: sp 16 +
STACK CFI a7cdc .ra: .cfa -4 + ^ r3: .cfa -16 + ^ r4: .cfa -12 + ^ r5: .cfa -8 + ^
STACK CFI INIT a7d3c 1b0 .cfa: sp 0 + .ra: lr
STACK CFI a7d40 .cfa: sp 16 +
STACK CFI a7d44 .ra: .cfa -4 + ^ r4: .cfa -16 + ^ r5: .cfa -12 + ^ r6: .cfa -8 + ^
STACK CFI INIT a7eec 40 .cfa: sp 0 + .ra: lr
STACK CFI INIT a7f2c 68 .cfa: sp 0 + .ra: lr
STACK CFI INIT a7f94 68 .cfa: sp 0 + .ra: lr
STACK CFI INIT a7ffc 68 .cfa: sp 0 + .ra: lr
STACK CFI INIT a8064 150 .cfa: sp 0 + .ra: lr
STACK CFI a8068 .cfa: sp 24 +
STACK CFI a806c .ra: .cfa -4 + ^ r3: .cfa -24 + ^ r4: .cfa -20 + ^ r5: .cfa -16 + ^ r6: .cfa -12 + ^ r7: .cfa -8 + ^
STACK CFI INIT a81b4 68 .cfa: sp 0 + .ra: lr
STACK CFI INIT a821c 7c .cfa: sp 0 + .ra: lr
STACK CFI INIT a8298 e8 .cfa: sp 0 + .ra: lr
STACK CFI a82a0 .cfa: sp 24 +
STACK CFI a82a4 .ra: .cfa -4 + ^ r4: .cfa -24 + ^ r5: .cfa -20 + ^ r6: .cfa -16 + ^ r7: .cfa -12 + ^ r8: .cfa -8 + ^
STACK CFI a82a8 .cfa: sp 200 +
STACK CFI INIT a8380 98 .cfa: sp 0 + .ra: lr
STACK CFI a8388 .cfa: sp 4 +
STACK CFI a8390 .cfa: sp 184 +
STACK CFI a8394 .ra: .cfa -4 + ^
STACK CFI INIT a8418 88 .cfa: sp 0 + .ra: lr
STACK CFI a8420 .cfa: sp 4 +
STACK CFI a8424 .cfa: sp 184 +
STACK CFI a8428 .ra: .cfa -4 + ^
STACK CFI INIT a84a0 9c .cfa: sp 0 + .ra: lr
STACK CFI a84a8 .cfa: sp 4 +
STACK CFI a84ac .cfa: sp 184 +
STACK CFI a84b0 .ra: .cfa -4 + ^
STACK CFI INIT a853c 74 .cfa: sp 0 + .ra: lr
STACK CFI a8544 .cfa: sp 4 +
STACK CFI a854c .cfa: sp 184 +
STACK CFI a8550 .ra: .cfa -4 + ^
STACK CFI INIT a85b0 74 .cfa: sp 0 + .ra: lr
STACK CFI a85b8 .cfa: sp 4 +
STACK CFI a85c0 .cfa: sp 184 +
STACK CFI a85c4 .ra: .cfa -4 + ^
STACK CFI INIT a8624 b4 .cfa: sp 0 + .ra: lr
STACK CFI a862c .cfa: sp 16 +
STACK CFI a8630 .ra: .cfa -4 + ^ r4: .cfa -16 + ^ r5: .cfa -12 + ^ r6: .cfa -8 + ^
STACK CFI a8634 .cfa: sp 192 +
STACK CFI INIT a86d8 b4 .cfa: sp 0 + .ra: lr
STACK CFI a86e0 .cfa: sp 16 +
STACK CFI a86e4 .ra: .cfa -4 + ^ r4: .cfa -16 + ^ r5: .cfa -12 + ^ r6: .cfa -8 + ^
STACK CFI a86e8 .cfa: sp 192 +
STACK CFI INIT a878c 4c .cfa: sp 0 + .ra: lr
STACK CFI INIT a87d8 84 .cfa: sp 0 + .ra: lr
STACK CFI a87e0 .cfa: sp 12 +
STACK CFI a87e4 .cfa: sp 104 +
STACK CFI a87e8 .ra: .cfa -4 + ^ r4: .cfa -12 + ^ r5: .cfa -8 + ^
STACK CFI INIT a885c 4c .cfa: sp 0 + .ra: lr
STACK CFI INIT a88a8 58 .cfa: sp 0 + .ra: lr
STACK CFI INIT a8900 50 .cfa: sp 0 + .ra: lr
STACK CFI INIT a8950 54 .cfa: sp 0 + .ra: lr
STACK CFI INIT a89a4 50 .cfa: sp 0 + .ra: lr
STACK CFI INIT a89f4 54 .cfa: sp 0 + .ra: lr
STACK CFI INIT a8a48 50 .cfa: sp 0 + .ra: lr
STACK CFI INIT a8a98 50 .cfa: sp 0 + .ra: lr
STACK CFI INIT a8ae8 80 .cfa: sp 0 + .ra: lr
STACK CFI INIT a8b68 70 .cfa: sp 0 + .ra: lr
STACK CFI INIT a8bd8 70 .cfa: sp 0 + .ra: lr
STACK CFI INIT a8c48 d0 .cfa: sp 0 + .ra: lr
STACK CFI a8c50 .cfa: sp 16 +
STACK CFI a8c54 .ra: .cfa -4 + ^ r4: .cfa -16 + ^ r5: .cfa -12 + ^ r6: .cfa -8 + ^
STACK CFI a8c58 .cfa: sp 176 +
STACK CFI INIT a8d18 70 .cfa: sp 0 + .ra: lr
STACK CFI a8d1c .cfa: sp 4 +
STACK CFI a8d20 .cfa: sp 24 +
STACK CFI a8d38 .ra: .cfa -4 + ^
STACK CFI INIT a8d88 58 .cfa: sp 0 + .ra: lr
STACK CFI a8d90 .cfa: sp 8 +
STACK CFI a8d94 .ra: .cfa -4 + ^ r4: .cfa -8 + ^
STACK CFI INIT a8de0 6c .cfa: sp 0 + .ra: lr
STACK CFI a8de8 .cfa: sp 8 +
STACK CFI a8dec .cfa: sp 96 +
STACK CFI a8df0 .ra: .cfa -4 + ^ r4: .cfa -8 + ^
STACK CFI INIT a8e4c 84 .cfa: sp 0 + .ra: lr
STACK CFI INIT a8ed0 84 .cfa: sp 0 + .ra: lr
STACK CFI INIT a8f54 50 .cfa: sp 0 + .ra: lr
STACK CFI INIT a8fa4 50 .cfa: sp 0 + .ra: lr
STACK CFI INIT a8ff4 54 .cfa: sp 0 + .ra: lr
STACK CFI INIT a9048 54 .cfa: sp 0 + .ra: lr
STACK CFI INIT a909c 60 .cfa: sp 0 + .ra: lr
STACK CFI INIT a90fc 94 .cfa: sp 0 + .ra: lr
STACK CFI a9104 .cfa: sp 4 +
STACK CFI a9108 r4: .cfa -4 + ^
STACK CFI INIT a9190 4c .cfa: sp 0 + .ra: lr
STACK CFI INIT a91dc 6c .cfa: sp 0 + .ra: lr
STACK CFI a91e4 .cfa: sp 4 +
STACK CFI a91e8 r4: .cfa -4 + ^
STACK CFI INIT a9248 4c .cfa: sp 0 + .ra: lr
STACK CFI INIT a9294 4c .cfa: sp 0 + .ra: lr
STACK CFI INIT a92e0 84 .cfa: sp 0 + .ra: lr
STACK CFI INIT a9364 128 .cfa: sp 0 + .ra: lr
STACK CFI a936c .cfa: sp 16 +
STACK CFI a9374 .cfa: sp 200 +
STACK CFI a9378 .ra: .cfa -4 + ^ r4: .cfa -16 + ^ r5: .cfa -12 + ^ r6: .cfa -8 + ^
STACK CFI INIT a948c 4c .cfa: sp 0 + .ra: lr
STACK CFI INIT a94d8 88 .cfa: sp 0 + .ra: lr
STACK CFI a94dc .cfa: sp 8 +
STACK CFI a94e4 .cfa: sp 24 +
STACK CFI a94ec .ra: .cfa -4 + ^ r4: .cfa -8 + ^
STACK CFI INIT a9560 64 .cfa: sp 0 + .ra: lr
STACK CFI INIT a95c4 c4 .cfa: sp 0 + .ra: lr
STACK CFI a95cc .cfa: sp 20 +
STACK CFI a95d0 .ra: .cfa -4 + ^ r4: .cfa -20 + ^ r5: .cfa -16 + ^ r6: .cfa -12 + ^ r7: .cfa -8 + ^
STACK CFI a95d4 .cfa: sp 40 +
STACK CFI INIT a9688 78 .cfa: sp 0 + .ra: lr
STACK CFI a968c .cfa: sp 8 +
STACK CFI a9690 .cfa: sp 16 +
STACK CFI a96ac .ra: .cfa -4 + ^ r4: .cfa -8 + ^
STACK CFI INIT a9700 84 .cfa: sp 0 + .ra: lr
STACK CFI INIT a9784 a4 .cfa: sp 0 + .ra: lr
STACK CFI a978c .cfa: sp 16 +
STACK CFI a9790 .ra: .cfa -4 + ^ r4: .cfa -16 + ^ r5: .cfa -12 + ^ r6: .cfa -8 + ^
STACK CFI INIT a9828 ac .cfa: sp 0 + .ra: lr
STACK CFI a9830 .cfa: sp 16 +
STACK CFI a9834 .ra: .cfa -4 + ^ r4: .cfa -16 + ^ r5: .cfa -12 + ^ r6: .cfa -8 + ^
STACK CFI INIT a98d4 ac .cfa: sp 0 + .ra: lr
STACK CFI a98dc .cfa: sp 20 +
STACK CFI a98e0 .ra: .cfa -4 + ^ r4: .cfa -20 + ^ r5: .cfa -16 + ^ r6: .cfa -12 + ^ r7: .cfa -8 + ^
STACK CFI a98e4 .cfa: sp 32 +
STACK CFI INIT a9980 144 .cfa: sp 0 + .ra: lr
STACK CFI a9988 .cfa: sp 12 +
STACK CFI a998c .ra: .cfa -4 + ^ r4: .cfa -12 + ^ r5: .cfa -8 + ^
STACK CFI a9990 .cfa: sp 32 +
STACK CFI INIT a9ac4 d0 .cfa: sp 0 + .ra: lr
STACK CFI a9acc .cfa: sp 16 +
STACK CFI a9ad0 .ra: .cfa -4 + ^ r4: .cfa -16 + ^ r5: .cfa -12 + ^ r6: .cfa -8 + ^
STACK CFI a9ad4 .cfa: sp 32 +
STACK CFI INIT a9b94 bc .cfa: sp 0 + .ra: lr
STACK CFI a9b9c .cfa: sp 16 +
STACK CFI a9ba0 .ra: .cfa -4 + ^ r4: .cfa -16 + ^ r5: .cfa -12 + ^ r6: .cfa -8 + ^
STACK CFI a9ba4 .cfa: sp 32 +
STACK CFI INIT a9c50 6c .cfa: sp 0 + .ra: lr
STACK CFI INIT a9cbc 70 .cfa: sp 0 + .ra: lr
STACK CFI INIT a9d2c 38 .cfa: sp 0 + .ra: lr
STACK CFI INIT a9d64 64 .cfa: sp 0 + .ra: lr
STACK CFI a9d68 .cfa: sp 16 +
STACK CFI a9d6c .ra: .cfa -4 + ^ r3: .cfa -16 + ^ r4: .cfa -12 + ^ r5: .cfa -8 + ^
STACK CFI INIT a9dc8 d0 .cfa: sp 0 + .ra: lr
STACK CFI a9dd0 .cfa: sp 16 +
STACK CFI a9dd4 .ra: .cfa -4 + ^ r4: .cfa -16 + ^ r5: .cfa -12 + ^ r6: .cfa -8 + ^
STACK CFI INIT a9e98 100 .cfa: sp 0 + .ra: lr
STACK CFI a9e9c .cfa: sp 16 +
STACK CFI a9ea0 .ra: .cfa -4 + ^ r3: .cfa -16 + ^ r4: .cfa -12 + ^ r5: .cfa -8 + ^
STACK CFI INIT a9f98 50 .cfa: sp 0 + .ra: lr
STACK CFI a9f9c .cfa: sp 8 +
STACK CFI a9fa0 .ra: .cfa -4 + ^ r3: .cfa -8 + ^
STACK CFI INIT a9fe8 47c .cfa: sp 0 + .ra: lr
STACK CFI a9fec .cfa: sp 20 +
STACK CFI a9ff0 .ra: .cfa -4 + ^ r4: .cfa -20 + ^ r5: .cfa -16 + ^ r6: .cfa -12 + ^ r7: .cfa -8 + ^
STACK CFI a9ff8 .cfa: sp 32 +
STACK CFI INIT aa464 34 .cfa: sp 0 + .ra: lr
STACK CFI INIT aa498 34 .cfa: sp 0 + .ra: lr
STACK CFI INIT aa4cc 7c .cfa: sp 0 + .ra: lr
STACK CFI aa4d0 .cfa: sp 8 +
STACK CFI aa4d8 .cfa: sp 24 +
STACK CFI aa4e0 .ra: .cfa -4 + ^ r4: .cfa -8 + ^
STACK CFI INIT aa548 6c .cfa: sp 0 + .ra: lr
STACK CFI aa550 .cfa: sp 8 +
STACK CFI aa554 .ra: .cfa -4 + ^ r4: .cfa -8 + ^
STACK CFI aa558 .cfa: sp 16 +
STACK CFI INIT aa5b4 60 .cfa: sp 0 + .ra: lr
STACK CFI aa5bc .cfa: sp 4 +
STACK CFI aa5c0 .cfa: sp 16 +
STACK CFI aa5c4 .ra: .cfa -4 + ^
STACK CFI INIT aa614 3c .cfa: sp 0 + .ra: lr
STACK CFI INIT aa650 6c .cfa: sp 0 + .ra: lr
STACK CFI aa658 .cfa: sp 8 +
STACK CFI aa65c .ra: .cfa -4 + ^ r4: .cfa -8 + ^
STACK CFI aa660 .cfa: sp 16 +
STACK CFI INIT aa6bc 6c .cfa: sp 0 + .ra: lr
STACK CFI aa6c4 .cfa: sp 8 +
STACK CFI aa6c8 .ra: .cfa -4 + ^ r4: .cfa -8 + ^
STACK CFI aa6cc .cfa: sp 16 +
STACK CFI INIT aa728 3c .cfa: sp 0 + .ra: lr
STACK CFI INIT aa764 34 .cfa: sp 0 + .ra: lr
STACK CFI INIT aa798 34 .cfa: sp 0 + .ra: lr
STACK CFI INIT aa7cc 58 .cfa: sp 0 + .ra: lr
STACK CFI aa7d4 .cfa: sp 8 +
STACK CFI aa7d8 .ra: .cfa -4 + ^ r4: .cfa -8 + ^
STACK CFI INIT aa824 218 .cfa: sp 0 + .ra: lr
STACK CFI aa828 .cfa: sp 28 +
STACK CFI aa82c .ra: .cfa -4 + ^ r10: .cfa -8 + ^ r4: .cfa -28 + ^ r5: .cfa -24 + ^ r6: .cfa -20 + ^ r7: .cfa -16 + ^ r8: .cfa -12 + ^
STACK CFI aa83c .cfa: sp 40 +
STACK CFI INIT aaa3c 40 .cfa: sp 0 + .ra: lr
STACK CFI INIT aaa7c 54 .cfa: sp 0 + .ra: lr
STACK CFI INIT aaad0 54 .cfa: sp 0 + .ra: lr
STACK CFI INIT aab24 54 .cfa: sp 0 + .ra: lr
STACK CFI INIT aab78 b4 .cfa: sp 0 + .ra: lr
STACK CFI aab80 .cfa: sp 24 +
STACK CFI aab84 .ra: .cfa -4 + ^ r3: .cfa -24 + ^ r4: .cfa -20 + ^ r5: .cfa -16 + ^ r6: .cfa -12 + ^ r7: .cfa -8 + ^
STACK CFI INIT aac2c 54 .cfa: sp 0 + .ra: lr
STACK CFI INIT aac80 50 .cfa: sp 0 + .ra: lr
STACK CFI INIT aacd0 c8 .cfa: sp 0 + .ra: lr
STACK CFI aacd8 .cfa: sp 24 +
STACK CFI aacdc .ra: .cfa -4 + ^ r3: .cfa -24 + ^ r4: .cfa -20 + ^ r5: .cfa -16 + ^ r6: .cfa -12 + ^ r7: .cfa -8 + ^
STACK CFI INIT aad98 60 .cfa: sp 0 + .ra: lr
STACK CFI INIT aadf8 7c .cfa: sp 0 + .ra: lr
STACK CFI aae00 .cfa: sp 12 +
STACK CFI aae08 r4: .cfa -12 + ^ r5: .cfa -8 + ^ r6: .cfa -4 + ^
STACK CFI INIT aae74 34 .cfa: sp 0 + .ra: lr
STACK CFI INIT aaea8 1d4 .cfa: sp 0 + .ra: lr
STACK CFI aaeb0 .cfa: sp 32 +
STACK CFI aaeb4 .ra: .cfa -4 + ^ r10: .cfa -8 + ^ r4: .cfa -32 + ^ r5: .cfa -28 + ^ r6: .cfa -24 + ^ r7: .cfa -20 + ^ r8: .cfa -16 + ^ r9: .cfa -12 + ^
STACK CFI INIT ab07c 418 .cfa: sp 0 + .ra: lr
STACK CFI ab080 .cfa: sp 36 +
STACK CFI ab084 .cfa: r11 4 + .ra: .cfa -4 + ^ r10: .cfa -12 + ^ r11: .cfa -8 + ^ r4: .cfa -36 + ^ r5: .cfa -32 + ^ r6: .cfa -28 + ^ r7: .cfa -24 + ^ r8: .cfa -20 + ^ r9: .cfa -16 + ^
STACK CFI INIT ab494 180 .cfa: sp 0 + .ra: lr
STACK CFI ab498 .cfa: sp 36 +
STACK CFI ab4a0 .cfa: sp 48 +
STACK CFI ab4a4 .ra: .cfa -4 + ^ r10: .cfa -12 + ^ r11: .cfa -8 + ^ r4: .cfa -36 + ^ r5: .cfa -32 + ^ r6: .cfa -28 + ^ r7: .cfa -24 + ^ r8: .cfa -20 + ^ r9: .cfa -16 + ^
STACK CFI INIT ab614 118 .cfa: sp 0 + .ra: lr
STACK CFI ab61c .cfa: sp 24 +
STACK CFI ab620 .ra: .cfa -4 + ^ r4: .cfa -24 + ^ r5: .cfa -20 + ^ r6: .cfa -16 + ^ r7: .cfa -12 + ^ r8: .cfa -8 + ^
STACK CFI ab624 .cfa: sp 32 +
STACK CFI INIT ab72c 4c4 .cfa: sp 0 + .ra: lr
STACK CFI ab730 .cfa: sp 36 +
STACK CFI ab738 .cfa: sp 104 +
STACK CFI ab73c .ra: .cfa -4 + ^ r10: .cfa -12 + ^ r11: .cfa -8 + ^ r4: .cfa -36 + ^ r5: .cfa -32 + ^ r6: .cfa -28 + ^ r7: .cfa -24 + ^ r8: .cfa -20 + ^ r9: .cfa -16 + ^
STACK CFI INIT abbf0 120 .cfa: sp 0 + .ra: lr
STACK CFI abbf4 .cfa: sp 28 +
STACK CFI abbfc .cfa: sp 56 +
STACK CFI abc04 .ra: .cfa -4 + ^ r10: .cfa -8 + ^ r4: .cfa -28 + ^ r5: .cfa -24 + ^ r6: .cfa -20 + ^ r7: .cfa -16 + ^ r8: .cfa -12 + ^
STACK CFI INIT abd10 234 .cfa: sp 0 + .ra: lr
STACK CFI abd14 .cfa: sp 36 +
STACK CFI abd1c .cfa: r11 4 + .ra: .cfa -4 + ^ r10: .cfa -12 + ^ r11: .cfa -8 + ^ r4: .cfa -36 + ^ r5: .cfa -32 + ^ r6: .cfa -28 + ^ r7: .cfa -24 + ^ r8: .cfa -20 + ^ r9: .cfa -16 + ^
STACK CFI INIT abf44 ec .cfa: sp 0 + .ra: lr
STACK CFI abf48 .cfa: sp 16 +
STACK CFI abf4c .ra: .cfa -4 + ^ r4: .cfa -16 + ^ r5: .cfa -12 + ^ r6: .cfa -8 + ^
STACK CFI abf50 .cfa: sp 24 +
STACK CFI INIT ac030 58 .cfa: sp 0 + .ra: lr
STACK CFI ac038 .cfa: sp 8 +
STACK CFI ac03c .ra: .cfa -4 + ^ r4: .cfa -8 + ^
STACK CFI INIT ac088 16c .cfa: sp 0 + .ra: lr
STACK CFI ac08c .cfa: sp 16 +
STACK CFI ac090 .ra: .cfa -4 + ^ r3: .cfa -16 + ^ r4: .cfa -12 + ^ r5: .cfa -8 + ^
STACK CFI INIT ac1f4 548 .cfa: sp 0 + .ra: lr
STACK CFI ac1f8 .cfa: sp 32 +
STACK CFI ac1fc .ra: .cfa -4 + ^ r10: .cfa -8 + ^ r4: .cfa -32 + ^ r5: .cfa -28 + ^ r6: .cfa -24 + ^ r7: .cfa -20 + ^ r8: .cfa -16 + ^ r9: .cfa -12 + ^
STACK CFI ac20c .cfa: sp 88 +
STACK CFI INIT ac73c 40 .cfa: sp 0 + .ra: lr
STACK CFI INIT ac77c 20 .cfa: sp 0 + .ra: lr
STACK CFI INIT ac79c 20 .cfa: sp 0 + .ra: lr
STACK CFI INIT ac7bc c .cfa: sp 0 + .ra: lr
STACK CFI INIT ac7c8 38 .cfa: sp 0 + .ra: lr
STACK CFI INIT ac800 c .cfa: sp 0 + .ra: lr
STACK CFI INIT ac80c c .cfa: sp 0 + .ra: lr
STACK CFI INIT ac818 a0 .cfa: sp 0 + .ra: lr
STACK CFI ac81c .cfa: sp 16 +
STACK CFI ac820 .ra: .cfa -4 + ^ r3: .cfa -16 + ^ r4: .cfa -12 + ^ r5: .cfa -8 + ^
STACK CFI INIT ac8b8 298 .cfa: sp 0 + .ra: lr
STACK CFI ac8bc .cfa: sp 28 +
STACK CFI ac8c0 .ra: .cfa -4 + ^ r10: .cfa -8 + ^ r4: .cfa -28 + ^ r5: .cfa -24 + ^ r6: .cfa -20 + ^ r7: .cfa -16 + ^ r8: .cfa -12 + ^
STACK CFI ac8cc .cfa: sp 80 +
STACK CFI INIT acb50 40 .cfa: sp 0 + .ra: lr
STACK CFI INIT acb90 c .cfa: sp 0 + .ra: lr
STACK CFI INIT acb9c a4 .cfa: sp 0 + .ra: lr
STACK CFI acba0 .cfa: sp 16 +
STACK CFI acba4 .ra: .cfa -4 + ^ r3: .cfa -16 + ^ r4: .cfa -12 + ^ r5: .cfa -8 + ^
STACK CFI INIT acc40 4c .cfa: sp 0 + .ra: lr
STACK CFI INIT acc8c 34 .cfa: sp 0 + .ra: lr
STACK CFI INIT accc0 34 .cfa: sp 0 + .ra: lr
STACK CFI INIT accf4 98 .cfa: sp 0 + .ra: lr
STACK CFI accf8 .cfa: sp 16 +
STACK CFI accfc .ra: .cfa -4 + ^ r3: .cfa -16 + ^ r4: .cfa -12 + ^ r5: .cfa -8 + ^
STACK CFI INIT acd8c 148 .cfa: sp 0 + .ra: lr
STACK CFI acd90 .cfa: sp 28 +
STACK CFI acd94 .ra: .cfa -4 + ^ r10: .cfa -8 + ^ r4: .cfa -28 + ^ r5: .cfa -24 + ^ r6: .cfa -20 + ^ r7: .cfa -16 + ^ r8: .cfa -12 + ^
STACK CFI acd98 .cfa: sp 40 +
STACK CFI INIT aced4 c .cfa: sp 0 + .ra: lr
STACK CFI INIT acee0 c .cfa: sp 0 + .ra: lr
STACK CFI INIT aceec 20 .cfa: sp 0 + .ra: lr
STACK CFI INIT acf0c 20 .cfa: sp 0 + .ra: lr
STACK CFI INIT acf2c 1c .cfa: sp 0 + .ra: lr
STACK CFI acf30 .cfa: sp 16 +
STACK CFI INIT acf48 c .cfa: sp 0 + .ra: lr
STACK CFI INIT acf54 c .cfa: sp 0 + .ra: lr
STACK CFI INIT acf60 c .cfa: sp 0 + .ra: lr
STACK CFI INIT acf6c 20 .cfa: sp 0 + .ra: lr
STACK CFI INIT acf8c c .cfa: sp 0 + .ra: lr
STACK CFI INIT acf98 2c .cfa: sp 0 + .ra: lr
STACK CFI INIT acfc4 2c .cfa: sp 0 + .ra: lr
STACK CFI INIT acff0 c .cfa: sp 0 + .ra: lr
STACK CFI INIT acffc c .cfa: sp 0 + .ra: lr
STACK CFI INIT ad008 c .cfa: sp 0 + .ra: lr
STACK CFI INIT ad014 c .cfa: sp 0 + .ra: lr
STACK CFI INIT ad020 c .cfa: sp 0 + .ra: lr
STACK CFI INIT ad02c c .cfa: sp 0 + .ra: lr
STACK CFI INIT ad038 c .cfa: sp 0 + .ra: lr
STACK CFI INIT ad044 c .cfa: sp 0 + .ra: lr
STACK CFI INIT ad050 1c .cfa: sp 0 + .ra: lr
STACK CFI ad054 .cfa: sp 16 +
STACK CFI INIT ad06c c .cfa: sp 0 + .ra: lr
STACK CFI INIT ad078 c .cfa: sp 0 + .ra: lr
STACK CFI INIT ad084 c .cfa: sp 0 + .ra: lr
STACK CFI INIT ad090 c .cfa: sp 0 + .ra: lr
STACK CFI INIT ad09c c .cfa: sp 0 + .ra: lr
STACK CFI INIT ad0a8 c .cfa: sp 0 + .ra: lr
STACK CFI INIT ad0b4 c .cfa: sp 0 + .ra: lr
STACK CFI INIT ad0c0 c .cfa: sp 0 + .ra: lr
STACK CFI INIT ad0cc 50 .cfa: sp 0 + .ra: lr
STACK CFI INIT ad11c 50 .cfa: sp 0 + .ra: lr
STACK CFI INIT ad16c 34 .cfa: sp 0 + .ra: lr
STACK CFI ad174 .cfa: sp 8 +
STACK CFI ad178 .ra: .cfa -4 + ^ r3: .cfa -8 + ^
STACK CFI INIT ad1a0 344 .cfa: sp 0 + .ra: lr
STACK CFI ad1a8 .cfa: sp 28 +
STACK CFI ad1ac .ra: .cfa -4 + ^ r10: .cfa -8 + ^ r4: .cfa -28 + ^ r5: .cfa -24 + ^ r6: .cfa -20 + ^ r7: .cfa -16 + ^ r8: .cfa -12 + ^
STACK CFI ad1b0 .cfa: sp 120 +
STACK CFI INIT ad4e4 b4 .cfa: sp 0 + .ra: lr
STACK CFI ad4e8 .cfa: sp 12 +
STACK CFI ad4ec .ra: .cfa -4 + ^ r4: .cfa -12 + ^ r5: .cfa -8 + ^
STACK CFI ad4fc .cfa: sp 2076 +
STACK CFI ad504 .cfa: sp 2080 +
STACK CFI INIT ad598 160 .cfa: sp 0 + .ra: lr
STACK CFI ad59c .cfa: sp 24 +
STACK CFI ad5a0 .ra: .cfa -4 + ^ r4: .cfa -24 + ^ r5: .cfa -20 + ^ r6: .cfa -16 + ^ r7: .cfa -12 + ^ r8: .cfa -8 + ^
STACK CFI ad5a8 .cfa: sp 2088 +
STACK CFI ad5b0 .cfa: sp 2096 +
STACK CFI INIT ad6f8 b8 .cfa: sp 0 + .ra: lr
STACK CFI ad6fc .cfa: sp 12 +
STACK CFI ad700 .ra: .cfa -4 + ^ r4: .cfa -12 + ^ r5: .cfa -8 + ^
STACK CFI ad710 .cfa: sp 2076 +
STACK CFI ad718 .cfa: sp 2080 +
STACK CFI INIT ad7b0 17c .cfa: sp 0 + .ra: lr
STACK CFI ad7b4 .cfa: sp 32 +
STACK CFI ad7b8 .ra: .cfa -4 + ^ r10: .cfa -12 + ^ r11: .cfa -8 + ^ r4: .cfa -32 + ^ r5: .cfa -28 + ^ r6: .cfa -24 + ^ r7: .cfa -20 + ^ r8: .cfa -16 + ^
STACK CFI ad7bc .cfa: sp 2096 +
STACK CFI ad7c4 .cfa: sp 2104 +
STACK CFI INIT ad92c 174 .cfa: sp 0 + .ra: lr
STACK CFI ad930 .cfa: sp 32 +
STACK CFI ad934 .ra: .cfa -4 + ^ r10: .cfa -8 + ^ r4: .cfa -32 + ^ r5: .cfa -28 + ^ r6: .cfa -24 + ^ r7: .cfa -20 + ^ r8: .cfa -16 + ^ r9: .cfa -12 + ^
STACK CFI ad938 .cfa: sp 2096 +
STACK CFI ad940 .cfa: sp 2104 +
STACK CFI INIT adaa0 cc .cfa: sp 0 + .ra: lr
STACK CFI adaa4 .cfa: sp 12 +
STACK CFI adaa8 .cfa: sp 2076 +
STACK CFI adaac .cfa: sp 2080 +
STACK CFI adac0 .ra: .cfa -4 + ^ r4: .cfa -12 + ^ r5: .cfa -8 + ^
STACK CFI INIT adb6c c0 .cfa: sp 0 + .ra: lr
STACK CFI adb70 .cfa: sp 12 +
STACK CFI adb74 .ra: .cfa -4 + ^ r4: .cfa -12 + ^ r5: .cfa -8 + ^
STACK CFI adb78 .cfa: sp 2076 +
STACK CFI adb7c .cfa: sp 2080 +
STACK CFI INIT adc2c cc .cfa: sp 0 + .ra: lr
STACK CFI adc30 .cfa: sp 20 +
STACK CFI adc34 .ra: .cfa -4 + ^ r4: .cfa -20 + ^ r5: .cfa -16 + ^ r6: .cfa -12 + ^ r7: .cfa -8 + ^
STACK CFI adc44 .cfa: sp 2084 +
STACK CFI adc4c .cfa: sp 2088 +
STACK CFI INIT adcf8 cc .cfa: sp 0 + .ra: lr
STACK CFI adcfc .cfa: sp 20 +
STACK CFI add00 .ra: .cfa -4 + ^ r4: .cfa -20 + ^ r5: .cfa -16 + ^ r6: .cfa -12 + ^ r7: .cfa -8 + ^
STACK CFI add10 .cfa: sp 2084 +
STACK CFI add18 .cfa: sp 2088 +
STACK CFI INIT addc4 c0 .cfa: sp 0 + .ra: lr
STACK CFI addc8 .cfa: sp 12 +
STACK CFI addcc .ra: .cfa -4 + ^ r4: .cfa -12 + ^ r5: .cfa -8 + ^
STACK CFI addd0 .cfa: sp 2076 +
STACK CFI addd4 .cfa: sp 2080 +
STACK CFI INIT ade84 b8 .cfa: sp 0 + .ra: lr
STACK CFI ade88 .cfa: sp 12 +
STACK CFI ade8c .ra: .cfa -4 + ^ r4: .cfa -12 + ^ r5: .cfa -8 + ^
STACK CFI ade9c .cfa: sp 2076 +
STACK CFI adea4 .cfa: sp 2080 +
STACK CFI INIT adf3c 50 .cfa: sp 0 + .ra: lr
STACK CFI adf4c .cfa: sp 4 +
STACK CFI adf58 .cfa: sp 24 +
STACK CFI adf5c .ra: .cfa -4 + ^
STACK CFI INIT adf8c 50 .cfa: sp 0 + .ra: lr
STACK CFI adf9c .cfa: sp 4 +
STACK CFI adfa8 .cfa: sp 24 +
STACK CFI adfac .ra: .cfa -4 + ^
STACK CFI INIT adfdc 50 .cfa: sp 0 + .ra: lr
STACK CFI adfe4 .cfa: sp 4 +
STACK CFI adfe8 .ra: .cfa -4 + ^
STACK CFI adff4 .cfa: sp 24 +
STACK CFI INIT ae02c 50 .cfa: sp 0 + .ra: lr
STACK CFI ae034 .cfa: sp 4 +
STACK CFI ae038 .ra: .cfa -4 + ^
STACK CFI ae048 .cfa: sp 24 +
STACK CFI INIT ae07c 50 .cfa: sp 0 + .ra: lr
STACK CFI ae084 .cfa: sp 4 +
STACK CFI ae088 .ra: .cfa -4 + ^
STACK CFI ae098 .cfa: sp 24 +
STACK CFI INIT ae0cc 50 .cfa: sp 0 + .ra: lr
STACK CFI ae0d4 .cfa: sp 4 +
STACK CFI ae0d8 .ra: .cfa -4 + ^
STACK CFI ae0e4 .cfa: sp 24 +
STACK CFI INIT ae11c 58 .cfa: sp 0 + .ra: lr
STACK CFI ae124 .cfa: sp 12 +
STACK CFI ae128 .ra: .cfa -4 + ^ r4: .cfa -12 + ^ r5: .cfa -8 + ^
STACK CFI ae138 .cfa: sp 40 +
STACK CFI INIT ae174 50 .cfa: sp 0 + .ra: lr
STACK CFI ae17c .cfa: sp 4 +
STACK CFI ae180 .ra: .cfa -4 + ^
STACK CFI ae18c .cfa: sp 24 +
STACK CFI INIT ae1c4 60 .cfa: sp 0 + .ra: lr
STACK CFI ae1cc .cfa: sp 4 +
STACK CFI ae1d0 .ra: .cfa -4 + ^
STACK CFI ae1dc .cfa: sp 32 +
STACK CFI INIT ae224 50 .cfa: sp 0 + .ra: lr
STACK CFI ae234 .cfa: sp 4 +
STACK CFI ae240 .cfa: sp 24 +
STACK CFI ae244 .ra: .cfa -4 + ^
STACK CFI INIT ae274 50 .cfa: sp 0 + .ra: lr
STACK CFI ae27c .cfa: sp 4 +
STACK CFI ae280 .ra: .cfa -4 + ^
STACK CFI ae28c .cfa: sp 24 +
STACK CFI INIT ae2c4 20 .cfa: sp 0 + .ra: lr
STACK CFI INIT ae2e4 4 .cfa: sp 0 + .ra: lr
STACK CFI INIT ae2e8 220 .cfa: sp 0 + .ra: lr
STACK CFI ae2ec .cfa: sp 28 +
STACK CFI ae2f0 .ra: .cfa -4 + ^ r10: .cfa -8 + ^ r4: .cfa -28 + ^ r5: .cfa -24 + ^ r6: .cfa -20 + ^ r7: .cfa -16 + ^ r8: .cfa -12 + ^
STACK CFI ae2f4 .cfa: sp 56 +
STACK CFI INIT ae508 50 .cfa: sp 0 + .ra: lr
STACK CFI ae50c .cfa: sp 8 +
STACK CFI ae514 .cfa: sp 24 +
STACK CFI ae518 .ra: .cfa -4 + ^ r4: .cfa -8 + ^
STACK CFI INIT ae558 14 .cfa: sp 0 + .ra: lr
STACK CFI ae560 .cfa: sp 8 +
STACK CFI ae564 .ra: .cfa -4 + ^ r3: .cfa -8 + ^
STACK CFI INIT ae56c 14 .cfa: sp 0 + .ra: lr
STACK CFI ae574 .cfa: sp 8 +
STACK CFI ae578 .ra: .cfa -4 + ^ r3: .cfa -8 + ^
STACK CFI INIT ae580 18 .cfa: sp 0 + .ra: lr
STACK CFI ae588 .cfa: sp 8 +
STACK CFI ae590 .ra: .cfa -4 + ^ r3: .cfa -8 + ^
STACK CFI INIT ae598 34 .cfa: sp 0 + .ra: lr
STACK CFI ae5a0 .cfa: sp 8 +
STACK CFI ae5a4 .cfa: sp 16 +
STACK CFI ae5a8 .ra: .cfa -4 + ^ r4: .cfa -8 + ^
STACK CFI INIT ae5cc 34 .cfa: sp 0 + .ra: lr
STACK CFI ae5d4 .cfa: sp 8 +
STACK CFI ae5d8 .cfa: sp 16 +
STACK CFI ae5dc .ra: .cfa -4 + ^ r4: .cfa -8 + ^
STACK CFI INIT ae600 18 .cfa: sp 0 + .ra: lr
STACK CFI ae608 .cfa: sp 8 +
STACK CFI ae610 .ra: .cfa -4 + ^ r3: .cfa -8 + ^
STACK CFI INIT ae618 58 .cfa: sp 0 + .ra: lr
STACK CFI ae61c .cfa: sp 24 +
STACK CFI ae620 .ra: .cfa -4 + ^ r4: .cfa -24 + ^ r5: .cfa -20 + ^ r6: .cfa -16 + ^ r8: .cfa -12 + ^ r9: .cfa -8 + ^
STACK CFI INIT ae670 14 .cfa: sp 0 + .ra: lr
STACK CFI ae678 .cfa: sp 8 +
STACK CFI ae67c .ra: .cfa -4 + ^ r3: .cfa -8 + ^
STACK CFI INIT ae684 2c .cfa: sp 0 + .ra: lr
STACK CFI ae68c .cfa: sp 4 +
STACK CFI ae690 .cfa: sp 16 +
STACK CFI ae6a4 .ra: .cfa -4 + ^
STACK CFI INIT ae6b0 14 .cfa: sp 0 + .ra: lr
STACK CFI ae6b8 .cfa: sp 8 +
STACK CFI ae6bc .ra: .cfa -4 + ^ r3: .cfa -8 + ^
STACK CFI INIT ae6c4 14 .cfa: sp 0 + .ra: lr
STACK CFI ae6cc .cfa: sp 8 +
STACK CFI ae6d0 .ra: .cfa -4 + ^ r3: .cfa -8 + ^
STACK CFI INIT ae6d8 b4 .cfa: sp 0 + .ra: lr
STACK CFI ae6dc .cfa: sp 12 +
STACK CFI ae6e0 .ra: .cfa -4 + ^ r4: .cfa -12 + ^ r5: .cfa -8 + ^
STACK CFI ae6f0 .cfa: sp 2076 +
STACK CFI ae6f8 .cfa: sp 2080 +
STACK CFI INIT ae78c e4 .cfa: sp 0 + .ra: lr
STACK CFI ae790 .cfa: sp 12 +
STACK CFI ae794 .cfa: sp 2076 +
STACK CFI ae798 .cfa: sp 2080 +
STACK CFI ae7a8 .ra: .cfa -4 + ^ r4: .cfa -12 + ^ r5: .cfa -8 + ^
STACK CFI INIT ae870 d0 .cfa: sp 0 + .ra: lr
STACK CFI ae874 .cfa: sp 20 +
STACK CFI ae878 .ra: .cfa -4 + ^ r4: .cfa -20 + ^ r5: .cfa -16 + ^ r6: .cfa -12 + ^ r7: .cfa -8 + ^
STACK CFI ae888 .cfa: sp 2084 +
STACK CFI ae890 .cfa: sp 2088 +
STACK CFI INIT ae940 f4 .cfa: sp 0 + .ra: lr
STACK CFI ae944 .cfa: sp 20 +
STACK CFI ae948 .ra: .cfa -4 + ^ r4: .cfa -20 + ^ r5: .cfa -16 + ^ r6: .cfa -12 + ^ r7: .cfa -8 + ^
STACK CFI ae958 .cfa: sp 2084 +
STACK CFI ae960 .cfa: sp 2088 +
STACK CFI INIT aea34 50 .cfa: sp 0 + .ra: lr
STACK CFI aea44 .cfa: sp 4 +
STACK CFI aea50 .cfa: sp 24 +
STACK CFI aea54 .ra: .cfa -4 + ^
STACK CFI INIT aea84 50 .cfa: sp 0 + .ra: lr
STACK CFI aea8c .cfa: sp 4 +
STACK CFI aea90 .ra: .cfa -4 + ^
STACK CFI aeaa0 .cfa: sp 24 +
STACK CFI INIT aead4 50 .cfa: sp 0 + .ra: lr
STACK CFI aeadc .cfa: sp 4 +
STACK CFI aeae0 .ra: .cfa -4 + ^
STACK CFI aeaf0 .cfa: sp 24 +
STACK CFI INIT aeb24 50 .cfa: sp 0 + .ra: lr
STACK CFI aeb2c .cfa: sp 4 +
STACK CFI aeb30 .ra: .cfa -4 + ^
STACK CFI aeb3c .cfa: sp 24 +
STACK CFI INIT aeb74 20 .cfa: sp 0 + .ra: lr
STACK CFI INIT aeb94 4 .cfa: sp 0 + .ra: lr
STACK CFI INIT aeb98 1c4 .cfa: sp 0 + .ra: lr
STACK CFI aeb9c .cfa: sp 32 +
STACK CFI aeba0 .ra: .cfa -4 + ^ r10: .cfa -8 + ^ r4: .cfa -32 + ^ r5: .cfa -28 + ^ r6: .cfa -24 + ^ r7: .cfa -20 + ^ r8: .cfa -16 + ^ r9: .cfa -12 + ^
STACK CFI aeba4 .cfa: sp 48 +
STACK CFI INIT aed5c 50 .cfa: sp 0 + .ra: lr
STACK CFI aed60 .cfa: sp 8 +
STACK CFI aed68 .cfa: sp 24 +
STACK CFI aed6c .ra: .cfa -4 + ^ r4: .cfa -8 + ^
STACK CFI INIT aedac 18 .cfa: sp 0 + .ra: lr
STACK CFI aedb4 .cfa: sp 8 +
STACK CFI aedbc .ra: .cfa -4 + ^ r3: .cfa -8 + ^
STACK CFI INIT aedc4 18 .cfa: sp 0 + .ra: lr
STACK CFI aedcc .cfa: sp 8 +
STACK CFI aedd4 .ra: .cfa -4 + ^ r3: .cfa -8 + ^
STACK CFI INIT aeddc f4 .cfa: sp 0 + .ra: lr
STACK CFI aede0 .cfa: sp 20 +
STACK CFI aede4 .ra: .cfa -4 + ^ r4: .cfa -20 + ^ r5: .cfa -16 + ^ r6: .cfa -12 + ^ r7: .cfa -8 + ^
STACK CFI aede8 .cfa: sp 48 +
STACK CFI INIT aeed0 24 .cfa: sp 0 + .ra: lr
STACK CFI aeed4 .cfa: sp 8 +
STACK CFI aeed8 .ra: .cfa -4 + ^ r4: .cfa -8 + ^
STACK CFI INIT aeef4 f4 .cfa: sp 0 + .ra: lr
STACK CFI aeef8 .cfa: sp 28 +
STACK CFI aeefc .ra: .cfa -4 + ^ r10: .cfa -8 + ^ r4: .cfa -28 + ^ r5: .cfa -24 + ^ r6: .cfa -20 + ^ r7: .cfa -16 + ^ r8: .cfa -12 + ^
STACK CFI aef00 .cfa: sp 40 +
STACK CFI INIT aefe8 84 .cfa: sp 0 + .ra: lr
STACK CFI aefec .cfa: sp 12 +
STACK CFI aeff0 .ra: .cfa -4 + ^ r4: .cfa -12 + ^ r5: .cfa -8 + ^
STACK CFI aeff8 .cfa: sp 40 +
STACK CFI INIT af06c 24 .cfa: sp 0 + .ra: lr
STACK CFI af074 .cfa: sp 8 +
STACK CFI af078 .ra: .cfa -4 + ^ r4: .cfa -8 + ^
STACK CFI INIT af090 4 .cfa: sp 0 + .ra: lr
STACK CFI INIT af094 40 .cfa: sp 0 + .ra: lr
STACK CFI INIT af0d4 c .cfa: sp 0 + .ra: lr
STACK CFI INIT af0e0 c .cfa: sp 0 + .ra: lr
STACK CFI INIT af0ec c .cfa: sp 0 + .ra: lr
STACK CFI INIT af0f8 c .cfa: sp 0 + .ra: lr
STACK CFI INIT af104 c .cfa: sp 0 + .ra: lr
STACK CFI INIT af110 c .cfa: sp 0 + .ra: lr
STACK CFI INIT af11c c .cfa: sp 0 + .ra: lr
STACK CFI INIT af128 c .cfa: sp 0 + .ra: lr
STACK CFI INIT af134 c .cfa: sp 0 + .ra: lr
STACK CFI INIT af140 c .cfa: sp 0 + .ra: lr
STACK CFI INIT af14c c .cfa: sp 0 + .ra: lr
STACK CFI INIT af158 64 .cfa: sp 0 + .ra: lr
STACK CFI af15c .cfa: sp 4 +
STACK CFI af160 r4: .cfa -4 + ^
STACK CFI INIT af1bc 4c .cfa: sp 0 + .ra: lr
STACK CFI INIT af208 50 .cfa: sp 0 + .ra: lr
STACK CFI INIT af258 90 .cfa: sp 0 + .ra: lr
STACK CFI af25c .cfa: sp 16 +
STACK CFI af260 .ra: .cfa -4 + ^ r4: .cfa -16 + ^ r5: .cfa -12 + ^ r6: .cfa -8 + ^
STACK CFI INIT af2e8 58 .cfa: sp 0 + .ra: lr
STACK CFI af2f0 .cfa: sp 8 +
STACK CFI af2f4 .ra: .cfa -4 + ^ r4: .cfa -8 + ^
STACK CFI INIT af340 1b0 .cfa: sp 0 + .ra: lr
STACK CFI af344 .cfa: sp 24 +
STACK CFI af348 .ra: .cfa -4 + ^ r4: .cfa -24 + ^ r5: .cfa -20 + ^ r6: .cfa -16 + ^ r7: .cfa -12 + ^ r8: .cfa -8 + ^
STACK CFI af358 .cfa: sp 32 +
STACK CFI INIT af4f0 c .cfa: sp 0 + .ra: lr
STACK CFI INIT af4fc c .cfa: sp 0 + .ra: lr
STACK CFI INIT af508 c .cfa: sp 0 + .ra: lr
STACK CFI INIT af514 58 .cfa: sp 0 + .ra: lr
STACK CFI af518 .cfa: sp 4 +
STACK CFI af520 .cfa: sp 16 +
STACK CFI af530 .ra: .cfa -4 + ^
STACK CFI INIT af56c 98 .cfa: sp 0 + .ra: lr
STACK CFI af574 .cfa: sp 24 +
STACK CFI af578 .ra: .cfa -4 + ^ r4: .cfa -24 + ^ r5: .cfa -20 + ^ r6: .cfa -16 + ^ r7: .cfa -12 + ^ r8: .cfa -8 + ^
STACK CFI af57c .cfa: sp 32 +
STACK CFI INIT af604 68 .cfa: sp 0 + .ra: lr
STACK CFI af60c .cfa: sp 16 +
STACK CFI af610 .ra: .cfa -4 + ^ r4: .cfa -16 + ^ r5: .cfa -12 + ^ r6: .cfa -8 + ^
STACK CFI INIT af66c 8c .cfa: sp 0 + .ra: lr
STACK CFI af674 .cfa: sp 24 +
STACK CFI af678 .ra: .cfa -4 + ^ r4: .cfa -24 + ^ r5: .cfa -20 + ^ r6: .cfa -16 + ^ r7: .cfa -12 + ^ r8: .cfa -8 + ^
STACK CFI INIT af6f8 13c .cfa: sp 0 + .ra: lr
STACK CFI af700 .cfa: sp 24 +
STACK CFI af704 .ra: .cfa -4 + ^ r4: .cfa -24 + ^ r5: .cfa -20 + ^ r6: .cfa -16 + ^ r7: .cfa -12 + ^ r8: .cfa -8 + ^
STACK CFI af708 .cfa: sp 48 +
STACK CFI INIT af834 64 .cfa: sp 0 + .ra: lr
STACK CFI af83c .cfa: sp 8 +
STACK CFI af840 .ra: .cfa -4 + ^ r4: .cfa -8 + ^
STACK CFI INIT af898 64 .cfa: sp 0 + .ra: lr
STACK CFI af8a0 .cfa: sp 8 +
STACK CFI af8a4 .ra: .cfa -4 + ^ r4: .cfa -8 + ^
STACK CFI INIT af8fc 84 .cfa: sp 0 + .ra: lr
STACK CFI af904 .cfa: sp 16 +
STACK CFI af908 .ra: .cfa -4 + ^ r4: .cfa -16 + ^ r5: .cfa -12 + ^ r6: .cfa -8 + ^
STACK CFI INIT af980 6c .cfa: sp 0 + .ra: lr
STACK CFI af984 .cfa: sp 16 +
STACK CFI af988 .ra: .cfa -4 + ^ r4: .cfa -16 + ^ r5: .cfa -12 + ^ r6: .cfa -8 + ^
STACK CFI INIT af9ec 170 .cfa: sp 0 + .ra: lr
STACK CFI af9f0 .cfa: sp 20 +
STACK CFI af9f4 .ra: .cfa -4 + ^ r4: .cfa -20 + ^ r5: .cfa -16 + ^ r6: .cfa -12 + ^ r7: .cfa -8 + ^
STACK CFI af9f8 .cfa: sp 32 +
STACK CFI INIT afb5c c .cfa: sp 0 + .ra: lr
STACK CFI INIT afb68 c .cfa: sp 0 + .ra: lr
STACK CFI INIT afb74 4c .cfa: sp 0 + .ra: lr
STACK CFI INIT afbc0 50 .cfa: sp 0 + .ra: lr
STACK CFI INIT afc10 50 .cfa: sp 0 + .ra: lr
STACK CFI INIT afc60 50 .cfa: sp 0 + .ra: lr
STACK CFI INIT afcb0 50 .cfa: sp 0 + .ra: lr
STACK CFI INIT afd00 d0 .cfa: sp 0 + .ra: lr
STACK CFI afd08 .cfa: sp 24 +
STACK CFI afd0c .ra: .cfa -4 + ^ r4: .cfa -24 + ^ r5: .cfa -20 + ^ r6: .cfa -16 + ^ r7: .cfa -12 + ^ r8: .cfa -8 + ^
STACK CFI INIT afdd0 cc .cfa: sp 0 + .ra: lr
STACK CFI afdd8 .cfa: sp 24 +
STACK CFI afddc .ra: .cfa -4 + ^ r4: .cfa -24 + ^ r5: .cfa -20 + ^ r6: .cfa -16 + ^ r7: .cfa -12 + ^ r8: .cfa -8 + ^
STACK CFI INIT afe9c 4c .cfa: sp 0 + .ra: lr
STACK CFI INIT afee8 c .cfa: sp 0 + .ra: lr
STACK CFI INIT afef4 58 .cfa: sp 0 + .ra: lr
STACK CFI afefc .cfa: sp 8 +
STACK CFI aff00 .ra: .cfa -4 + ^ r4: .cfa -8 + ^
STACK CFI INIT aff4c 134 .cfa: sp 0 + .ra: lr
STACK CFI aff50 .cfa: sp 20 +
STACK CFI aff54 .ra: .cfa -4 + ^ r4: .cfa -20 + ^ r5: .cfa -16 + ^ r6: .cfa -12 + ^ r7: .cfa -8 + ^
STACK CFI aff58 .cfa: sp 32 +
STACK CFI INIT b0080 c .cfa: sp 0 + .ra: lr
STACK CFI INIT b008c c .cfa: sp 0 + .ra: lr
STACK CFI INIT b0098 50 .cfa: sp 0 + .ra: lr
STACK CFI INIT b00e8 64 .cfa: sp 0 + .ra: lr
STACK CFI INIT b014c 88 .cfa: sp 0 + .ra: lr
STACK CFI b0154 .cfa: sp 24 +
STACK CFI b0158 .ra: .cfa -4 + ^ r3: .cfa -24 + ^ r4: .cfa -20 + ^ r5: .cfa -16 + ^ r6: .cfa -12 + ^ r7: .cfa -8 + ^
STACK CFI INIT b01d4 14c .cfa: sp 0 + .ra: lr
STACK CFI b01d8 .cfa: sp 32 +
STACK CFI b01dc .ra: .cfa -4 + ^ r10: .cfa -8 + ^ r3: .cfa -32 + ^ r4: .cfa -28 + ^ r5: .cfa -24 + ^ r6: .cfa -20 + ^ r7: .cfa -16 + ^ r8: .cfa -12 + ^
STACK CFI INIT b0320 17c .cfa: sp 0 + .ra: lr
STACK CFI b0328 .cfa: sp 32 +
STACK CFI b032c .ra: .cfa -4 + ^ r10: .cfa -8 + ^ r4: .cfa -32 + ^ r5: .cfa -28 + ^ r6: .cfa -24 + ^ r7: .cfa -20 + ^ r8: .cfa -16 + ^ r9: .cfa -12 + ^
STACK CFI b0330 .cfa: sp 48 +
STACK CFI INIT b049c c4 .cfa: sp 0 + .ra: lr
STACK CFI b04a4 .cfa: sp 24 +
STACK CFI b04a8 .ra: .cfa -4 + ^ r3: .cfa -24 + ^ r4: .cfa -20 + ^ r5: .cfa -16 + ^ r6: .cfa -12 + ^ r7: .cfa -8 + ^
STACK CFI INIT b0560 84 .cfa: sp 0 + .ra: lr
STACK CFI b0564 .cfa: sp 16 +
STACK CFI b0568 .ra: .cfa -4 + ^ r3: .cfa -16 + ^ r4: .cfa -12 + ^ r5: .cfa -8 + ^
STACK CFI INIT b05e4 164 .cfa: sp 0 + .ra: lr
STACK CFI b05e8 .cfa: sp 36 +
STACK CFI b05ec .cfa: sp 48 +
STACK CFI b05f0 .ra: .cfa -4 + ^ r10: .cfa -12 + ^ r11: .cfa -8 + ^ r4: .cfa -36 + ^ r5: .cfa -32 + ^ r6: .cfa -28 + ^ r7: .cfa -24 + ^ r8: .cfa -20 + ^ r9: .cfa -16 + ^
STACK CFI INIT b0748 fc .cfa: sp 0 + .ra: lr
STACK CFI b074c .cfa: sp 36 +
STACK CFI b0754 .cfa: sp 48 +
STACK CFI b0758 .ra: .cfa -4 + ^ r10: .cfa -12 + ^ r11: .cfa -8 + ^ r4: .cfa -36 + ^ r5: .cfa -32 + ^ r6: .cfa -28 + ^ r7: .cfa -24 + ^ r8: .cfa -20 + ^ r9: .cfa -16 + ^
STACK CFI INIT b0844 f4 .cfa: sp 0 + .ra: lr
STACK CFI b084c .cfa: sp 28 +
STACK CFI b0850 .ra: .cfa -4 + ^ r10: .cfa -8 + ^ r4: .cfa -28 + ^ r5: .cfa -24 + ^ r6: .cfa -20 + ^ r7: .cfa -16 + ^ r8: .cfa -12 + ^
STACK CFI b0854 .cfa: sp 40 +
STACK CFI INIT b0938 94 .cfa: sp 0 + .ra: lr
STACK CFI b0940 .cfa: sp 16 +
STACK CFI b0944 .ra: .cfa -4 + ^ r3: .cfa -16 + ^ r4: .cfa -12 + ^ r5: .cfa -8 + ^
STACK CFI INIT b09cc 154 .cfa: sp 0 + .ra: lr
STACK CFI b09d0 .cfa: sp 16 +
STACK CFI b09d4 .ra: .cfa -4 + ^ r4: .cfa -16 + ^ r5: .cfa -12 + ^ r6: .cfa -8 + ^
STACK CFI b09d8 .cfa: sp 24 +
STACK CFI INIT b0b20 40 .cfa: sp 0 + .ra: lr
STACK CFI INIT b0b60 5c .cfa: sp 0 + .ra: lr
STACK CFI b0b64 .cfa: sp 8 +
STACK CFI b0b68 .ra: .cfa -4 + ^ r3: .cfa -8 + ^
STACK CFI INIT b0bbc 64 .cfa: sp 0 + .ra: lr
STACK CFI INIT b0c20 68 .cfa: sp 0 + .ra: lr
STACK CFI INIT b0c88 70 .cfa: sp 0 + .ra: lr
STACK CFI INIT b0cf8 c0 .cfa: sp 0 + .ra: lr
STACK CFI b0d00 .cfa: sp 4 +
STACK CFI b0d30 r4: .cfa -4 + ^
STACK CFI INIT b0db8 34 .cfa: sp 0 + .ra: lr
STACK CFI INIT b0dec 94 .cfa: sp 0 + .ra: lr
STACK CFI b0df4 .cfa: sp 12 +
STACK CFI b0df8 .ra: .cfa -4 + ^ r4: .cfa -12 + ^ r5: .cfa -8 + ^
STACK CFI b0dfc .cfa: sp 32 +
STACK CFI INIT b0e80 6c .cfa: sp 0 + .ra: lr
STACK CFI b0e88 .cfa: sp 8 +
STACK CFI b0e8c .ra: .cfa -4 + ^ r4: .cfa -8 + ^
STACK CFI b0e90 .cfa: sp 24 +
STACK CFI INIT b0eec 6c .cfa: sp 0 + .ra: lr
STACK CFI b0ef4 .cfa: sp 8 +
STACK CFI b0ef8 .ra: .cfa -4 + ^ r4: .cfa -8 + ^
STACK CFI b0efc .cfa: sp 24 +
STACK CFI INIT b0f58 70 .cfa: sp 0 + .ra: lr
STACK CFI b0f60 .cfa: sp 8 +
STACK CFI b0f64 .ra: .cfa -4 + ^ r4: .cfa -8 + ^
STACK CFI b0f68 .cfa: sp 24 +
STACK CFI INIT b0fc8 38 .cfa: sp 0 + .ra: lr
STACK CFI INIT b1000 38 .cfa: sp 0 + .ra: lr
STACK CFI INIT b1038 ac .cfa: sp 0 + .ra: lr
STACK CFI b1040 .cfa: sp 16 +
STACK CFI b1044 .ra: .cfa -4 + ^ r4: .cfa -16 + ^ r5: .cfa -12 + ^ r6: .cfa -8 + ^
STACK CFI INIT b10e4 48 .cfa: sp 0 + .ra: lr
STACK CFI INIT b112c 8c .cfa: sp 0 + .ra: lr
STACK CFI b1134 .cfa: sp 4 +
STACK CFI b1138 r4: .cfa -4 + ^
STACK CFI INIT b11b8 8c .cfa: sp 0 + .ra: lr
STACK CFI b11c0 .cfa: sp 4 +
STACK CFI b11c4 r4: .cfa -4 + ^
STACK CFI INIT b1244 64 .cfa: sp 0 + .ra: lr
STACK CFI b124c .cfa: sp 8 +
STACK CFI b1250 .ra: .cfa -4 + ^ r4: .cfa -8 + ^
STACK CFI INIT b12a8 84 .cfa: sp 0 + .ra: lr
STACK CFI b12ac .cfa: sp 16 +
STACK CFI b12b0 .ra: .cfa -4 + ^ r3: .cfa -16 + ^ r4: .cfa -12 + ^ r5: .cfa -8 + ^
STACK CFI INIT b132c 18c .cfa: sp 0 + .ra: lr
STACK CFI b1330 .cfa: sp 16 +
STACK CFI b1334 .ra: .cfa -4 + ^ r4: .cfa -16 + ^ r5: .cfa -12 + ^ r6: .cfa -8 + ^
STACK CFI INIT b14b8 40 .cfa: sp 0 + .ra: lr
STACK CFI INIT b14f8 60 .cfa: sp 0 + .ra: lr
STACK CFI INIT b1558 94 .cfa: sp 0 + .ra: lr
STACK CFI b1560 .cfa: sp 16 +
STACK CFI b1564 .ra: .cfa -4 + ^ r4: .cfa -16 + ^ r5: .cfa -12 + ^ r6: .cfa -8 + ^
STACK CFI INIT b15ec 9c .cfa: sp 0 + .ra: lr
STACK CFI b15f4 .cfa: sp 24 +
STACK CFI b15f8 .ra: .cfa -4 + ^ r3: .cfa -24 + ^ r4: .cfa -20 + ^ r5: .cfa -16 + ^ r6: .cfa -12 + ^ r7: .cfa -8 + ^
STACK CFI INIT b1688 1b0 .cfa: sp 0 + .ra: lr
STACK CFI b168c .cfa: sp 24 +
STACK CFI b1690 .ra: .cfa -4 + ^ r3: .cfa -24 + ^ r4: .cfa -20 + ^ r5: .cfa -16 + ^ r6: .cfa -12 + ^ r7: .cfa -8 + ^
STACK CFI INIT b1838 150 .cfa: sp 0 + .ra: lr
STACK CFI b183c .cfa: sp 24 +
STACK CFI b1840 .ra: .cfa -4 + ^ r4: .cfa -24 + ^ r5: .cfa -20 + ^ r6: .cfa -16 + ^ r7: .cfa -12 + ^ r8: .cfa -8 + ^
STACK CFI INIT b1988 b0 .cfa: sp 0 + .ra: lr
STACK CFI b1990 .cfa: sp 16 +
STACK CFI b1994 .ra: .cfa -4 + ^ r4: .cfa -16 + ^ r5: .cfa -12 + ^ r6: .cfa -8 + ^
STACK CFI INIT b1a38 16c .cfa: sp 0 + .ra: lr
STACK CFI b1a40 .cfa: sp 28 +
STACK CFI b1a44 .ra: .cfa -4 + ^ r10: .cfa -8 + ^ r4: .cfa -28 + ^ r5: .cfa -24 + ^ r6: .cfa -20 + ^ r7: .cfa -16 + ^ r8: .cfa -12 + ^
STACK CFI b1a48 .cfa: sp 48 +
STACK CFI INIT b1ba4 548 .cfa: sp 0 + .ra: lr
STACK CFI b1ba8 .cfa: sp 12 +
STACK CFI b1bac .ra: .cfa -4 + ^ r4: .cfa -12 + ^ r5: .cfa -8 + ^
STACK CFI b1bc4 .cfa: sp 24 +
STACK CFI INIT b20ec 218 .cfa: sp 0 + .ra: lr
STACK CFI b20f0 .cfa: sp 24 +
STACK CFI b20f4 .ra: .cfa -4 + ^ r4: .cfa -24 + ^ r5: .cfa -20 + ^ r6: .cfa -16 + ^ r7: .cfa -12 + ^ r8: .cfa -8 + ^
STACK CFI INIT b2304 c8 .cfa: sp 0 + .ra: lr
STACK CFI b230c .cfa: sp 24 +
STACK CFI b2310 .ra: .cfa -4 + ^ r4: .cfa -24 + ^ r5: .cfa -20 + ^ r6: .cfa -16 + ^ r7: .cfa -12 + ^ r8: .cfa -8 + ^
STACK CFI INIT b23cc 188 .cfa: sp 0 + .ra: lr
STACK CFI b23d0 .cfa: sp 32 +
STACK CFI b23d4 .ra: .cfa -4 + ^ r10: .cfa -8 + ^ r4: .cfa -32 + ^ r5: .cfa -28 + ^ r6: .cfa -24 + ^ r7: .cfa -20 + ^ r8: .cfa -16 + ^ r9: .cfa -12 + ^
STACK CFI INIT b2554 c4 .cfa: sp 0 + .ra: lr
STACK CFI b255c .cfa: sp 16 +
STACK CFI b2564 .ra: .cfa -4 + ^ r4: .cfa -16 + ^ r5: .cfa -12 + ^ r6: .cfa -8 + ^
STACK CFI INIT b2618 d4 .cfa: sp 0 + .ra: lr
STACK CFI b261c .cfa: sp 24 +
STACK CFI b2620 .ra: .cfa -4 + ^ r3: .cfa -24 + ^ r4: .cfa -20 + ^ r5: .cfa -16 + ^ r6: .cfa -12 + ^ r7: .cfa -8 + ^
STACK CFI INIT b26ec 7c .cfa: sp 0 + .ra: lr
STACK CFI b26f0 .cfa: sp 16 +
STACK CFI b26f4 .ra: .cfa -4 + ^ r4: .cfa -16 + ^ r5: .cfa -12 + ^ r6: .cfa -8 + ^
STACK CFI INIT b2768 218 .cfa: sp 0 + .ra: lr
STACK CFI b276c .cfa: sp 24 +
STACK CFI b2770 .ra: .cfa -4 + ^ r3: .cfa -24 + ^ r4: .cfa -20 + ^ r5: .cfa -16 + ^ r6: .cfa -12 + ^ r7: .cfa -8 + ^
STACK CFI INIT b2980 f0 .cfa: sp 0 + .ra: lr
STACK CFI b2984 .cfa: sp 16 +
STACK CFI b2988 .ra: .cfa -4 + ^ r4: .cfa -16 + ^ r5: .cfa -12 + ^ r6: .cfa -8 + ^
STACK CFI INIT b2a70 6c .cfa: sp 0 + .ra: lr
STACK CFI b2a78 .cfa: sp 8 +
STACK CFI b2a7c .ra: .cfa -4 + ^ r4: .cfa -8 + ^
STACK CFI INIT b2adc 2a4 .cfa: sp 0 + .ra: lr
STACK CFI b2ae0 .cfa: sp 32 +
STACK CFI b2ae4 .ra: .cfa -4 + ^ r10: .cfa -8 + ^ r3: .cfa -32 + ^ r4: .cfa -28 + ^ r5: .cfa -24 + ^ r6: .cfa -20 + ^ r7: .cfa -16 + ^ r8: .cfa -12 + ^
STACK CFI INIT b2d80 150 .cfa: sp 0 + .ra: lr
STACK CFI b2d84 .cfa: sp 16 +
STACK CFI b2d88 .ra: .cfa -4 + ^ r4: .cfa -16 + ^ r5: .cfa -12 + ^ r6: .cfa -8 + ^
STACK CFI b2d8c .cfa: sp 24 +
STACK CFI INIT b2ed0 bc .cfa: sp 0 + .ra: lr
STACK CFI b2ed8 .cfa: sp 16 +
STACK CFI b2edc .ra: .cfa -4 + ^ r4: .cfa -16 + ^ r5: .cfa -12 + ^ r6: .cfa -8 + ^
STACK CFI b2ee0 .cfa: sp 120 +
STACK CFI INIT b2f8c c4 .cfa: sp 0 + .ra: lr
STACK CFI b2f94 .cfa: sp 16 +
STACK CFI b2f98 .ra: .cfa -4 + ^ r3: .cfa -16 + ^ r4: .cfa -12 + ^ r5: .cfa -8 + ^
STACK CFI INIT b3050 ac .cfa: sp 0 + .ra: lr
STACK CFI b3058 .cfa: sp 16 +
STACK CFI b305c .ra: .cfa -4 + ^ r4: .cfa -16 + ^ r5: .cfa -12 + ^ r6: .cfa -8 + ^
STACK CFI INIT b30fc e8 .cfa: sp 0 + .ra: lr
STACK CFI b3104 .cfa: sp 24 +
STACK CFI b3108 .ra: .cfa -4 + ^ r4: .cfa -24 + ^ r5: .cfa -20 + ^ r6: .cfa -16 + ^ r7: .cfa -12 + ^ r8: .cfa -8 + ^
STACK CFI INIT b31e4 188 .cfa: sp 0 + .ra: lr
STACK CFI b31ec .cfa: sp 20 +
STACK CFI b31f0 .ra: .cfa -4 + ^ r4: .cfa -20 + ^ r5: .cfa -16 + ^ r6: .cfa -12 + ^ r7: .cfa -8 + ^
STACK CFI b31f4 .cfa: sp 32 +
STACK CFI INIT b336c e8 .cfa: sp 0 + .ra: lr
STACK CFI b3374 .cfa: sp 24 +
STACK CFI b3378 .ra: .cfa -4 + ^ r4: .cfa -24 + ^ r5: .cfa -20 + ^ r6: .cfa -16 + ^ r7: .cfa -12 + ^ r8: .cfa -8 + ^
STACK CFI INIT b3454 330 .cfa: sp 0 + .ra: lr
STACK CFI b3458 .cfa: sp 32 +
STACK CFI b3460 .cfa: sp 80 +
STACK CFI b3470 r10: .cfa -8 + ^ r11: .cfa -4 + ^ r4: .cfa -32 + ^ r5: .cfa -28 + ^ r6: .cfa -24 + ^ r7: .cfa -20 + ^ r8: .cfa -16 + ^ r9: .cfa -12 + ^
STACK CFI INIT b3784 b44 .cfa: sp 0 + .ra: lr
STACK CFI b3788 .cfa: sp 36 +
STACK CFI b378c .ra: .cfa -4 + ^ r10: .cfa -12 + ^ r11: .cfa -8 + ^ r4: .cfa -36 + ^ r5: .cfa -32 + ^ r6: .cfa -28 + ^ r7: .cfa -24 + ^ r8: .cfa -20 + ^ r9: .cfa -16 + ^
STACK CFI b3790 .cfa: r11 4 +
STACK CFI INIT b42c8 3710 .cfa: sp 0 + .ra: lr
STACK CFI b42cc .cfa: sp 36 +
STACK CFI b42d0 .cfa: sp 104 +
STACK CFI b42d4 .ra: .cfa -4 + ^ r10: .cfa -12 + ^ r11: .cfa -8 + ^ r4: .cfa -36 + ^ r5: .cfa -32 + ^ r6: .cfa -28 + ^ r7: .cfa -24 + ^ r8: .cfa -20 + ^ r9: .cfa -16 + ^
STACK CFI INIT b79d8 884 .cfa: sp 0 + .ra: lr
STACK CFI b79dc .cfa: sp 36 +
STACK CFI b79e0 .cfa: sp 104 +
STACK CFI b79e8 .ra: .cfa -4 + ^ r10: .cfa -12 + ^ r11: .cfa -8 + ^ r4: .cfa -36 + ^ r5: .cfa -32 + ^ r6: .cfa -28 + ^ r7: .cfa -24 + ^ r8: .cfa -20 + ^ r9: .cfa -16 + ^
STACK CFI INIT b825c ecc .cfa: sp 0 + .ra: lr
STACK CFI b8260 .cfa: sp 36 +
STACK CFI b8264 .cfa: r11 4 + .ra: .cfa -4 + ^ r10: .cfa -12 + ^ r11: .cfa -8 + ^ r4: .cfa -36 + ^ r5: .cfa -32 + ^ r6: .cfa -28 + ^ r7: .cfa -24 + ^ r8: .cfa -20 + ^ r9: .cfa -16 + ^
STACK CFI INIT b9128 58c .cfa: sp 0 + .ra: lr
STACK CFI b9138 .cfa: sp 36 +
STACK CFI b913c .ra: .cfa -4 + ^ r10: .cfa -12 + ^ r11: .cfa -8 + ^ r4: .cfa -36 + ^ r5: .cfa -32 + ^ r6: .cfa -28 + ^ r7: .cfa -24 + ^ r8: .cfa -20 + ^ r9: .cfa -16 + ^
STACK CFI b9140 .cfa: sp 56 +
STACK CFI INIT b96b4 b8 .cfa: sp 0 + .ra: lr
STACK CFI b96b8 .cfa: sp 16 +
STACK CFI b96bc .ra: .cfa -4 + ^ r4: .cfa -16 + ^ r5: .cfa -12 + ^ r6: .cfa -8 + ^
STACK CFI INIT b976c 6c .cfa: sp 0 + .ra: lr
STACK CFI b9774 .cfa: sp 16 +
STACK CFI b977c .ra: .cfa -4 + ^ r4: .cfa -16 + ^ r5: .cfa -12 + ^ r6: .cfa -8 + ^
STACK CFI INIT b97d8 108 .cfa: sp 0 + .ra: lr
STACK CFI b97dc .cfa: sp 28 +
STACK CFI b97e0 .ra: .cfa -4 + ^ r10: .cfa -8 + ^ r4: .cfa -28 + ^ r5: .cfa -24 + ^ r6: .cfa -20 + ^ r7: .cfa -16 + ^ r8: .cfa -12 + ^
STACK CFI b97e4 .cfa: sp 40 +
STACK CFI INIT b98e0 a4 .cfa: sp 0 + .ra: lr
STACK CFI b98e4 .cfa: sp 32 +
STACK CFI b98e8 .ra: .cfa -4 + ^ r10: .cfa -8 + ^ r3: .cfa -32 + ^ r4: .cfa -28 + ^ r5: .cfa -24 + ^ r6: .cfa -20 + ^ r7: .cfa -16 + ^ r8: .cfa -12 + ^
STACK CFI INIT b9984 10 .cfa: sp 0 + .ra: lr
STACK CFI INIT b9994 328 .cfa: sp 0 + .ra: lr
STACK CFI b9998 .cfa: sp 36 +
STACK CFI b999c .cfa: r11 4 + .ra: .cfa -4 + ^ r10: .cfa -12 + ^ r11: .cfa -8 + ^ r4: .cfa -36 + ^ r5: .cfa -32 + ^ r6: .cfa -28 + ^ r7: .cfa -24 + ^ r8: .cfa -20 + ^ r9: .cfa -16 + ^
STACK CFI INIT b9cbc 5618 .cfa: sp 0 + .ra: lr
STACK CFI b9cc0 .cfa: sp 36 +
STACK CFI b9cc4 .ra: .cfa -4 + ^ r10: .cfa -12 + ^ r11: .cfa -8 + ^ r4: .cfa -36 + ^ r5: .cfa -32 + ^ r6: .cfa -28 + ^ r7: .cfa -24 + ^ r8: .cfa -20 + ^ r9: .cfa -16 + ^
STACK CFI b9ccc .cfa: sp 88 +
STACK CFI INIT bf2d4 1c0 .cfa: sp 0 + .ra: lr
STACK CFI bf2d8 .cfa: sp 36 +
STACK CFI bf2dc .cfa: sp 48 +
STACK CFI bf2e0 .ra: .cfa -4 + ^ r10: .cfa -12 + ^ r11: .cfa -8 + ^ r4: .cfa -36 + ^ r5: .cfa -32 + ^ r6: .cfa -28 + ^ r7: .cfa -24 + ^ r8: .cfa -20 + ^ r9: .cfa -16 + ^
STACK CFI INIT bf494 954 .cfa: sp 0 + .ra: lr
STACK CFI bf498 .cfa: sp 36 +
STACK CFI bf4a0 .cfa: r11 4 + .ra: .cfa -4 + ^ r10: .cfa -12 + ^ r11: .cfa -8 + ^ r4: .cfa -36 + ^ r5: .cfa -32 + ^ r6: .cfa -28 + ^ r7: .cfa -24 + ^ r8: .cfa -20 + ^ r9: .cfa -16 + ^
STACK CFI INIT bfde8 8c .cfa: sp 0 + .ra: lr
STACK CFI bfdf4 .cfa: sp 16 +
STACK CFI bfdfc r4: .cfa -16 + ^ r5: .cfa -12 + ^ r6: .cfa -8 + ^ r7: .cfa -4 + ^
STACK CFI INIT bfe74 94 .cfa: sp 0 + .ra: lr
STACK CFI bfe78 .cfa: sp 16 +
STACK CFI bfe90 r4: .cfa -16 + ^ r5: .cfa -12 + ^ r6: .cfa -8 + ^ r7: .cfa -4 + ^
STACK CFI INIT bff08 2c .cfa: sp 0 + .ra: lr
STACK CFI INIT bff34 e4 .cfa: sp 0 + .ra: lr
STACK CFI bff40 .cfa: sp 12 +
STACK CFI bff48 r4: .cfa -12 + ^ r5: .cfa -8 + ^ r6: .cfa -4 + ^
STACK CFI INIT c0018 b4 .cfa: sp 0 + .ra: lr
STACK CFI c0020 .cfa: sp 12 +
STACK CFI c0024 r4: .cfa -12 + ^ r5: .cfa -8 + ^ r6: .cfa -4 + ^
STACK CFI INIT c00cc bc .cfa: sp 0 + .ra: lr
STACK CFI c00d0 .cfa: sp 12 +
STACK CFI c00e0 r4: .cfa -12 + ^ r5: .cfa -8 + ^ r6: .cfa -4 + ^
STACK CFI INIT c0188 c4 .cfa: sp 0 + .ra: lr
STACK CFI c0190 .cfa: sp 8 +
STACK CFI c0198 r4: .cfa -8 + ^ r5: .cfa -4 + ^
STACK CFI INIT c024c 20 .cfa: sp 0 + .ra: lr
STACK CFI INIT c026c 880 .cfa: sp 0 + .ra: lr
STACK CFI c0270 .cfa: sp 32 +
STACK CFI c0274 r10: .cfa -8 + ^ r11: .cfa -4 + ^ r4: .cfa -32 + ^ r5: .cfa -28 + ^ r6: .cfa -24 + ^ r7: .cfa -20 + ^ r8: .cfa -16 + ^ r9: .cfa -12 + ^
STACK CFI c0278 .cfa: sp 64 +
STACK CFI INIT c0aec 214 .cfa: sp 0 + .ra: lr
STACK CFI c0af4 .cfa: sp 32 +
