MODULE Linux arm F01E3E215C31CD4BD2FF20DDCBB279110 libidirectfbimageprovider_mpeg2.so
FUNC 17a8 10 0 GetType
FUNC 17b8 10 0 GetImplementation
FUNC 17c8 50 0 Probe
FUNC 1818 c 0 IDirectFBImageProvider_MPEG2_SetRenderCallback
FUNC 1824 48 0 IDirectFBImageProvider_MPEG2_GetImageDescription
FUNC 186c 50 0 mpeg2_read_func
FUNC 18bc 14 0 mpeg2_write_func
FUNC 18d0 168 0 Construct
FUNC 1a38 24 0 IDirectFBImageProvider_MPEG2_Destruct
FUNC 1a5c 38 0 Deallocate
FUNC 1a94 64 0 IDirectFBImageProvider_MPEG2_GetSurfaceDescription
FUNC 1af8 200 0 IDirectFBImageProvider_MPEG2_RenderTo
FUNC 1cf8 68 0 Allocate
FUNC 1d60 10 0 IDirectFBImageProvider_MPEG2_ctor
FUNC 1d70 10 0 IDirectFBImageProvider_MPEG2_dtor
FUNC 1d80 210 0 MPEG2_Fill_Buffer
FUNC 1f90 10 0 MPEG2_Show_Bits
FUNC 1fa0 380 0 MPEG2_Flush_Buffer
FUNC 2320 20 0 MPEG2_Initialize_Buffer
FUNC 2340 28 0 MPEG2_Get_Bits
FUNC 2368 8 0 MPEG2_Get_Bits1
FUNC 2370 44c 0 MPEG2_Decode_MPEG1_Intra_Block
FUNC 27bc 424 0 MPEG2_Decode_MPEG1_Non_Intra_Block
FUNC 2be0 500 0 MPEG2_Decode_MPEG2_Intra_Block
FUNC 30e0 408 0 MPEG2_Decode_MPEG2_Non_Intra_Block
FUNC 34e8 3c 0 MPEG2_next_start_code
FUNC 3524 11c 0 MPEG2_slice_header
FUNC 3640 8 0 MPEG2_marker_bit
FUNC 3648 9cc 0 extension_and_user_data
FUNC 4014 574 0 MPEG2_Get_Hdr
FUNC 4588 1bac 0 MPEG2_Decode_Picture
FUNC 6134 30 0 MPEG2_Output_Last_Frame_of_Sequence
FUNC 6164 234 0 MPEG2_Get_macroblock_type
FUNC 6398 13c 0 MPEG2_Get_motion_code
FUNC 64d4 34 0 MPEG2_Get_dmvector
FUNC 6508 f4 0 MPEG2_Get_coded_block_pattern
FUNC 65fc 100 0 MPEG2_Get_macroblock_address_increment
FUNC 66fc b0 0 MPEG2_Get_Luma_DC_dct_diff
FUNC 67ac b0 0 MPEG2_Get_Chroma_DC_dct_diff
FUNC 685c 534 0 MPEG2_Fast_IDCT
FUNC 6d90 108 0 MPEG2_Initialize_Fast_IDCT
FUNC 6e98 408 0 MPEG2_Initialize_Reference_IDCT
FUNC 72a0 19a4 0 MPEG2_Reference_IDCT
FUNC 8c44 1e0 0 MPEG2_motion_vector
FUNC 8e24 140 0 MPEG2_motion_vectors
FUNC 8f64 13c 0 MPEG2_Dual_Prime_Arithmetic
FUNC 90a0 19c 0 MPEG2_Init
FUNC 923c 4 0 MPEG2_Close
FUNC 9240 2c 0 MPEG2_Error
FUNC 926c 334 0 MPEG2_Decode
FUNC 95a0 ec0 0 form_component_prediction
FUNC a460 1b8 0 form_prediction
FUNC a618 b40 0 MPEG2_form_predictions
FUNC b158 378 0 conv422to444
FUNC b4d0 600 0 conv420to422
FUNC bad0 360 0 MPEG2_Write_Frame
FUNC be30 264 0 MPEG2_Flush_Buffer32
FUNC c094 24 0 MPEG2_Get_Bits32
STACK CFI INIT 17a8 10 .cfa: sp 0 + .ra: lr
STACK CFI INIT 17b8 10 .cfa: sp 0 + .ra: lr
STACK CFI INIT 17c8 50 .cfa: sp 0 + .ra: lr
STACK CFI INIT 1818 c .cfa: sp 0 + .ra: lr
STACK CFI INIT 1824 48 .cfa: sp 0 + .ra: lr
STACK CFI INIT 186c 50 .cfa: sp 0 + .ra: lr
STACK CFI 1870 .cfa: sp 16 +
STACK CFI 1878 .cfa: sp 24 +
STACK CFI 187c .ra: .cfa -4 + ^ r4: .cfa -16 + ^ r5: .cfa -12 + ^ r6: .cfa -8 + ^
STACK CFI INIT 18bc 14 .cfa: sp 0 + .ra: lr
STACK CFI INIT 18d0 168 .cfa: sp 0 + .ra: lr
STACK CFI 18d4 .cfa: sp 16 +
STACK CFI 18d8 .cfa: sp 36 +
STACK CFI 18dc .cfa: sp 48 +
STACK CFI 18e0 .ra: .cfa -20 + ^ r0: .cfa -16 + ^ r1: .cfa -12 + ^ r2: .cfa -8 + ^ r3: .cfa -4 + ^ r4: .cfa -36 + ^ r5: .cfa -32 + ^ r6: .cfa -28 + ^ r7: .cfa -24 + ^
STACK CFI INIT 1a38 24 .cfa: sp 0 + .ra: lr
STACK CFI 1a3c .cfa: sp 8 +
STACK CFI 1a40 .ra: .cfa -4 + ^ r4: .cfa -8 + ^
STACK CFI INIT 1a5c 38 .cfa: sp 0 + .ra: lr
STACK CFI 1a60 .cfa: sp 16 +
STACK CFI 1a64 .ra: .cfa -4 + ^ r3: .cfa -16 + ^ r4: .cfa -12 + ^ r5: .cfa -8 + ^
STACK CFI INIT 1a94 64 .cfa: sp 0 + .ra: lr
STACK CFI 1a9c .cfa: sp 8 +
STACK CFI 1aa0 .ra: .cfa -4 + ^ r4: .cfa -8 + ^
STACK CFI INIT 1af8 200 .cfa: sp 0 + .ra: lr
STACK CFI 1b00 .cfa: sp 24 +
STACK CFI 1b04 .cfa: sp 120 +
STACK CFI 1b08 .ra: .cfa -4 + ^ r4: .cfa -24 + ^ r5: .cfa -20 + ^ r6: .cfa -16 + ^ r7: .cfa -12 + ^ r8: .cfa -8 + ^
STACK CFI INIT 1cf8 68 .cfa: sp 0 + .ra: lr
STACK CFI 1cfc .cfa: sp 8 +
STACK CFI 1d04 .ra: .cfa -4 + ^ r4: .cfa -8 + ^
STACK CFI INIT 1d60 10 .cfa: sp 0 + .ra: lr
STACK CFI INIT 1d70 10 .cfa: sp 0 + .ra: lr
STACK CFI INIT 1d80 210 .cfa: sp 0 + .ra: lr
STACK CFI 1d84 .cfa: sp 24 +
STACK CFI 1d88 .ra: .cfa -4 + ^ r3: .cfa -24 + ^ r4: .cfa -20 + ^ r5: .cfa -16 + ^ r6: .cfa -12 + ^ r7: .cfa -8 + ^
STACK CFI INIT 1f90 10 .cfa: sp 0 + .ra: lr
STACK CFI INIT 1fa0 380 .cfa: sp 0 + .ra: lr
STACK CFI 1fa4 .cfa: sp 40 +
STACK CFI 1fac .ra: .cfa -4 + ^ r10: .cfa -12 + ^ r11: .cfa -8 + ^ r3: .cfa -40 + ^ r4: .cfa -36 + ^ r5: .cfa -32 + ^ r6: .cfa -28 + ^ r7: .cfa -24 + ^ r8: .cfa -20 + ^ r9: .cfa -16 + ^
STACK CFI INIT 2320 20 .cfa: sp 0 + .ra: lr
STACK CFI INIT 2340 28 .cfa: sp 0 + .ra: lr
STACK CFI 2344 .cfa: sp 16 +
STACK CFI 2348 .ra: .cfa -4 + ^ r4: .cfa -16 + ^ r5: .cfa -12 + ^ r6: .cfa -8 + ^
STACK CFI INIT 2368 8 .cfa: sp 0 + .ra: lr
STACK CFI INIT 2370 44c .cfa: sp 0 + .ra: lr
STACK CFI 2374 .cfa: sp 40 +
STACK CFI 2378 .ra: .cfa -4 + ^ r10: .cfa -12 + ^ r11: .cfa -8 + ^ r3: .cfa -40 + ^ r4: .cfa -36 + ^ r5: .cfa -32 + ^ r6: .cfa -28 + ^ r7: .cfa -24 + ^ r8: .cfa -20 + ^ r9: .cfa -16 + ^
STACK CFI INIT 27bc 424 .cfa: sp 0 + .ra: lr
STACK CFI 27c0 .cfa: sp 40 +
STACK CFI 27c4 .ra: .cfa -4 + ^ r10: .cfa -12 + ^ r11: .cfa -8 + ^ r3: .cfa -40 + ^ r4: .cfa -36 + ^ r5: .cfa -32 + ^ r6: .cfa -28 + ^ r7: .cfa -24 + ^ r8: .cfa -20 + ^ r9: .cfa -16 + ^
STACK CFI INIT 2be0 500 .cfa: sp 0 + .ra: lr
STACK CFI 2be4 .cfa: sp 40 +
STACK CFI 2be8 .ra: .cfa -4 + ^ r10: .cfa -12 + ^ r11: .cfa -8 + ^ r3: .cfa -40 + ^ r4: .cfa -36 + ^ r5: .cfa -32 + ^ r6: .cfa -28 + ^ r7: .cfa -24 + ^ r8: .cfa -20 + ^ r9: .cfa -16 + ^
STACK CFI INIT 30e0 408 .cfa: sp 0 + .ra: lr
STACK CFI 30e4 .cfa: sp 40 +
STACK CFI 30e8 .ra: .cfa -4 + ^ r10: .cfa -12 + ^ r11: .cfa -8 + ^ r3: .cfa -40 + ^ r4: .cfa -36 + ^ r5: .cfa -32 + ^ r6: .cfa -28 + ^ r7: .cfa -24 + ^ r8: .cfa -20 + ^ r9: .cfa -16 + ^
STACK CFI INIT 34e8 3c .cfa: sp 0 + .ra: lr
STACK CFI 34f0 .cfa: sp 8 +
STACK CFI 34f8 .ra: .cfa -4 + ^ r4: .cfa -8 + ^
STACK CFI INIT 3524 11c .cfa: sp 0 + .ra: lr
STACK CFI 352c .cfa: sp 16 +
STACK CFI 3530 .ra: .cfa -4 + ^ r4: .cfa -16 + ^ r5: .cfa -12 + ^ r6: .cfa -8 + ^
STACK CFI INIT 3640 8 .cfa: sp 0 + .ra: lr
STACK CFI INIT 3648 9cc .cfa: sp 0 + .ra: lr
STACK CFI 364c .cfa: sp 36 +
STACK CFI 3650 .cfa: sp 48 +
STACK CFI 3654 .ra: .cfa -4 + ^ r10: .cfa -12 + ^ r11: .cfa -8 + ^ r4: .cfa -36 + ^ r5: .cfa -32 + ^ r6: .cfa -28 + ^ r7: .cfa -24 + ^ r8: .cfa -20 + ^ r9: .cfa -16 + ^
STACK CFI INIT 4014 574 .cfa: sp 0 + .ra: lr
STACK CFI 401c .cfa: sp 36 +
STACK CFI 4024 .cfa: sp 64 +
STACK CFI 402c .ra: .cfa -4 + ^ r10: .cfa -12 + ^ r11: .cfa -8 + ^ r4: .cfa -36 + ^ r5: .cfa -32 + ^ r6: .cfa -28 + ^ r7: .cfa -24 + ^ r8: .cfa -20 + ^ r9: .cfa -16 + ^
STACK CFI INIT 4588 1bac .cfa: sp 0 + .ra: lr
STACK CFI 458c .cfa: sp 36 +
STACK CFI 4594 .ra: .cfa -4 + ^ r10: .cfa -12 + ^ r11: .cfa -8 + ^ r4: .cfa -36 + ^ r5: .cfa -32 + ^ r6: .cfa -28 + ^ r7: .cfa -24 + ^ r8: .cfa -20 + ^ r9: .cfa -16 + ^
STACK CFI 459c .cfa: sp 216 +
STACK CFI INIT 6134 30 .cfa: sp 0 + .ra: lr
STACK CFI INIT 6164 234 .cfa: sp 0 + .ra: lr
STACK CFI 6168 .cfa: sp 16 +
STACK CFI 616c .ra: .cfa -4 + ^ r4: .cfa -16 + ^ r5: .cfa -12 + ^ r6: .cfa -8 + ^
STACK CFI INIT 6398 13c .cfa: sp 0 + .ra: lr
STACK CFI 639c .cfa: sp 16 +
STACK CFI 63a0 .ra: .cfa -4 + ^ r3: .cfa -16 + ^ r4: .cfa -12 + ^ r5: .cfa -8 + ^
STACK CFI INIT 64d4 34 .cfa: sp 0 + .ra: lr
STACK CFI 64d8 .cfa: sp 8 +
STACK CFI 64e0 .ra: .cfa -4 + ^ r4: .cfa -8 + ^
STACK CFI INIT 6508 f4 .cfa: sp 0 + .ra: lr
STACK CFI 650c .cfa: sp 16 +
STACK CFI 6514 .ra: .cfa -4 + ^ r3: .cfa -16 + ^ r4: .cfa -12 + ^ r5: .cfa -8 + ^
STACK CFI INIT 65fc 100 .cfa: sp 0 + .ra: lr
STACK CFI 6600 .cfa: sp 16 +
STACK CFI 6604 .ra: .cfa -4 + ^ r4: .cfa -16 + ^ r5: .cfa -12 + ^ r6: .cfa -8 + ^
STACK CFI INIT 66fc b0 .cfa: sp 0 + .ra: lr
STACK CFI 6700 .cfa: sp 16 +
STACK CFI 6708 .ra: .cfa -4 + ^ r3: .cfa -16 + ^ r4: .cfa -12 + ^ r5: .cfa -8 + ^
STACK CFI INIT 67ac b0 .cfa: sp 0 + .ra: lr
STACK CFI 67b0 .cfa: sp 16 +
STACK CFI 67b8 .ra: .cfa -4 + ^ r3: .cfa -16 + ^ r4: .cfa -12 + ^ r5: .cfa -8 + ^
STACK CFI INIT 685c 534 .cfa: sp 0 + .ra: lr
STACK CFI 6860 .cfa: sp 32 +
STACK CFI 6868 .cfa: sp 64 +
STACK CFI 687c r10: .cfa -8 + ^ r11: .cfa -4 + ^ r4: .cfa -32 + ^ r5: .cfa -28 + ^ r6: .cfa -24 + ^ r7: .cfa -20 + ^ r8: .cfa -16 + ^ r9: .cfa -12 + ^
STACK CFI INIT 6d90 108 .cfa: sp 0 + .ra: lr
STACK CFI 6d98 .cfa: sp 4 +
STACK CFI 6da4 r4: .cfa -4 + ^
STACK CFI INIT 6e98 408 .cfa: sp 0 + .ra: lr
STACK CFI 6eac .cfa: sp 32 +
STACK CFI 6edc r10: .cfa -8 + ^ r11: .cfa -4 + ^ r4: .cfa -32 + ^ r5: .cfa -28 + ^ r6: .cfa -24 + ^ r7: .cfa -20 + ^ r8: .cfa -16 + ^ r9: .cfa -12 + ^
STACK CFI INIT 72a0 19a4 .cfa: sp 0 + .ra: lr
STACK CFI 72a4 .cfa: sp 36 +
STACK CFI 72a8 .cfa: sp 1124 +
STACK CFI 72ac .cfa: sp 1136 +
STACK CFI 72b0 .ra: .cfa -4 + ^ r10: .cfa -12 + ^ r11: .cfa -8 + ^ r4: .cfa -36 + ^ r5: .cfa -32 + ^ r6: .cfa -28 + ^ r7: .cfa -24 + ^ r8: .cfa -20 + ^ r9: .cfa -16 + ^
STACK CFI INIT 8c44 1e0 .cfa: sp 0 + .ra: lr
STACK CFI 8c48 .cfa: sp 36 +
STACK CFI 8c4c .cfa: sp 48 +
STACK CFI 8c50 .ra: .cfa -4 + ^ r10: .cfa -12 + ^ r11: .cfa -8 + ^ r4: .cfa -36 + ^ r5: .cfa -32 + ^ r6: .cfa -28 + ^ r7: .cfa -24 + ^ r8: .cfa -20 + ^ r9: .cfa -16 + ^
STACK CFI INIT 8e24 140 .cfa: sp 0 + .ra: lr
STACK CFI 8e28 .cfa: sp 36 +
STACK CFI 8e2c .cfa: sp 64 +
STACK CFI 8e3c .ra: .cfa -4 + ^ r10: .cfa -12 + ^ r11: .cfa -8 + ^ r4: .cfa -36 + ^ r5: .cfa -32 + ^ r6: .cfa -28 + ^ r7: .cfa -24 + ^ r8: .cfa -20 + ^ r9: .cfa -16 + ^
STACK CFI INIT 8f64 13c .cfa: sp 0 + .ra: lr
STACK CFI 8f6c .cfa: sp 12 +
STACK CFI 8f78 r4: .cfa -12 + ^ r5: .cfa -8 + ^ r6: .cfa -4 + ^
STACK CFI INIT 90a0 19c .cfa: sp 0 + .ra: lr
STACK CFI 90a4 .cfa: sp 32 +
STACK CFI 90a8 .ra: .cfa -4 + ^ r10: .cfa -8 + ^ r4: .cfa -32 + ^ r5: .cfa -28 + ^ r6: .cfa -24 + ^ r7: .cfa -20 + ^ r8: .cfa -16 + ^ r9: .cfa -12 + ^
STACK CFI INIT 923c 4 .cfa: sp 0 + .ra: lr
STACK CFI INIT 9240 2c .cfa: sp 0 + .ra: lr
STACK CFI INIT 926c 334 .cfa: sp 0 + .ra: lr
STACK CFI 9270 .cfa: sp 16 +
STACK CFI 9274 .ra: .cfa -4 + ^ r3: .cfa -16 + ^ r4: .cfa -12 + ^ r5: .cfa -8 + ^
STACK CFI INIT 95a0 ec0 .cfa: sp 0 + .ra: lr
STACK CFI 95a4 .cfa: sp 32 +
STACK CFI 95a8 .cfa: sp 64 +
STACK CFI 95b0 r10: .cfa -8 + ^ r11: .cfa -4 + ^ r4: .cfa -32 + ^ r5: .cfa -28 + ^ r6: .cfa -24 + ^ r7: .cfa -20 + ^ r8: .cfa -16 + ^ r9: .cfa -12 + ^
STACK CFI INIT a460 1b8 .cfa: sp 0 + .ra: lr
STACK CFI a464 .cfa: sp 36 +
STACK CFI a468 .cfa: sp 96 +
STACK CFI a46c .ra: .cfa -4 + ^ r10: .cfa -12 + ^ r11: .cfa -8 + ^ r4: .cfa -36 + ^ r5: .cfa -32 + ^ r6: .cfa -28 + ^ r7: .cfa -24 + ^ r8: .cfa -20 + ^ r9: .cfa -16 + ^
STACK CFI INIT a618 b40 .cfa: sp 0 + .ra: lr
STACK CFI a61c .cfa: sp 36 +
STACK CFI a620 .cfa: sp 120 +
STACK CFI a628 .ra: .cfa -4 + ^ r10: .cfa -12 + ^ r11: .cfa -8 + ^ r4: .cfa -36 + ^ r5: .cfa -32 + ^ r6: .cfa -28 + ^ r7: .cfa -24 + ^ r8: .cfa -20 + ^ r9: .cfa -16 + ^
STACK CFI INIT b158 378 .cfa: sp 0 + .ra: lr
STACK CFI b160 .cfa: sp 32 +
STACK CFI b16c .cfa: sp 80 +
STACK CFI b180 r10: .cfa -8 + ^ r11: .cfa -4 + ^ r4: .cfa -32 + ^ r5: .cfa -28 + ^ r6: .cfa -24 + ^ r7: .cfa -20 + ^ r8: .cfa -16 + ^ r9: .cfa -12 + ^
STACK CFI INIT b4d0 600 .cfa: sp 0 + .ra: lr
STACK CFI b4d4 .cfa: sp 32 +
STACK CFI b4dc r10: .cfa -8 + ^ r11: .cfa -4 + ^ r4: .cfa -32 + ^ r5: .cfa -28 + ^ r6: .cfa -24 + ^ r7: .cfa -20 + ^ r8: .cfa -16 + ^ r9: .cfa -12 + ^
STACK CFI b4e4 .cfa: sp 104 +
STACK CFI INIT bad0 360 .cfa: sp 0 + .ra: lr
STACK CFI bad8 .cfa: sp 36 +
STACK CFI badc .ra: .cfa -4 + ^ r10: .cfa -12 + ^ r11: .cfa -8 + ^ r4: .cfa -36 + ^ r5: .cfa -32 + ^ r6: .cfa -28 + ^ r7: .cfa -24 + ^ r8: .cfa -20 + ^ r9: .cfa -16 + ^
STACK CFI bae0 .cfa: sp 80 +
STACK CFI INIT be30 264 .cfa: sp 0 + .ra: lr
STACK CFI be34 .cfa: sp 40 +
STACK CFI be38 .ra: .cfa -4 + ^ r10: .cfa -12 + ^ r11: .cfa -8 + ^ r3: .cfa -40 + ^ r4: .cfa -36 + ^ r5: .cfa -32 + ^ r6: .cfa -28 + ^ r7: .cfa -24 + ^ r8: .cfa -20 + ^ r9: .cfa -16 + ^
STACK CFI INIT c094 24 .cfa: sp 0 + .ra: lr
STACK CFI c098 .cfa: sp 16 +
STACK CFI c0a0 .ra: .cfa -4 + ^ r3: .cfa -16 + ^ r4: .cfa -12 + ^ r5: .cfa -8 + ^
STACK CFI INIT c0b8 220 .cfa: sp 0 + .ra: lr
