MODULE Linux arm 9A77C467F8CA7A8D79453D04E58A6C0F0 libDumpClient.so
PUBLIC 1974 0 _init
PUBLIC 1c94 0 _Z21WriteMinidumpFromCorePKcS0_S0_
PUBLIC 1d64 0 main
PUBLIC 1df8 0 _ZN15google_breakpad15LinuxCoreDumperD2Ev
PUBLIC 1e40 0 _ZN15google_breakpad15LinuxCoreDumperD0Ev
PUBLIC 1e90 0 _ZNSt10_List_baseIN15google_breakpad12MappingEntryESaIS1_EE8_M_clearEv
PUBLIC 1ebc 0 _ZNSt10_List_baseIN15google_breakpad9AppMemoryESaIS1_EE8_M_clearEv
PUBLIC 1ee8 0 _ZN15google_breakpad15LinuxCoreDumper20GetThreadInfoByIndexEjPNS_10ThreadInfoE
PUBLIC 1f3c 0 _ZNK15google_breakpad15LinuxCoreDumper12IsPostMortemEv
PUBLIC 1f44 0 _ZN15google_breakpad15LinuxCoreDumper14ThreadsSuspendEv
PUBLIC 1f4c 0 _ZN15google_breakpad15LinuxCoreDumper13ThreadsResumeEv
PUBLIC 1f54 0 _ZN15google_breakpad15LinuxCoreDumper15CopyFromProcessEPviPKvj
PUBLIC 1f8c 0 _ZNK15google_breakpad15LinuxCoreDumper13BuildProcPathEPciPKc
PUBLIC 2024 0 _ZN15google_breakpad15LinuxCoreDumperC1EiPKcS2_
PUBLIC 20f0 0 _ZN15google_breakpad15LinuxCoreDumper16EnumerateThreadsEv
PUBLIC 23a4 0 _ZNSt6vectorIN15google_breakpad10ThreadInfoENS0_16PageStdAllocatorIS1_EEE7reserveEj
PUBLIC 25b0 0 _ZNSt6vectorIiN15google_breakpad16PageStdAllocatorIiEEE13_M_insert_auxEN9__gnu_cxx17__normal_iteratorIPiS3_EERKi
PUBLIC 28d0 0 _ZNSt6vectorIN15google_breakpad10ThreadInfoENS0_16PageStdAllocatorIS1_EEE13_M_insert_auxEN9__gnu_cxx17__normal_iteratorIPS1_S4_EERKS1_
PUBLIC 2cd8 0 _ZN15google_breakpad11ElfCoreDump4NoteC2Ev
PUBLIC 2ce8 0 _ZN15google_breakpad11ElfCoreDump4NoteC1ERKNS_11MemoryRangeE
PUBLIC 2cfc 0 _ZNK15google_breakpad11ElfCoreDump4Note9GetHeaderEv
PUBLIC 2d10 0 _ZNK15google_breakpad11ElfCoreDump4Note7IsValidEv
PUBLIC 2d24 0 _ZNK15google_breakpad11ElfCoreDump4Note7GetTypeEv
PUBLIC 2d38 0 _ZNK15google_breakpad11ElfCoreDump4Note7GetNameEv
PUBLIC 2db4 0 _ZN15google_breakpad11ElfCoreDump4Note11AlignedSizeEj
PUBLIC 2dc0 0 _ZNK15google_breakpad11ElfCoreDump4Note11GetNextNoteEv
PUBLIC 2e58 0 _ZNK15google_breakpad11ElfCoreDump4Note14GetDescriptionEv
PUBLIC 2ed4 0 _ZN15google_breakpad11ElfCoreDumpC1Ev
PUBLIC 2ee4 0 _ZN15google_breakpad11ElfCoreDumpC2ERKNS_11MemoryRangeE
PUBLIC 2ef8 0 _ZN15google_breakpad11ElfCoreDump10SetContentERKNS_11MemoryRangeE
PUBLIC 2f08 0 _ZNK15google_breakpad11ElfCoreDump9GetHeaderEv
PUBLIC 2f1c 0 _ZNK15google_breakpad11ElfCoreDump7IsValidEv
PUBLIC 2f7c 0 _ZNK15google_breakpad11ElfCoreDump16GetProgramHeaderEj
PUBLIC 2fd8 0 _ZNK15google_breakpad11ElfCoreDump21GetProgramHeaderCountEv
PUBLIC 2fec 0 _ZNK15google_breakpad11ElfCoreDump27GetFirstProgramHeaderOfTypeEj
PUBLIC 30c8 0 _ZN15google_breakpad11ElfCoreDump8CopyDataEPvjj
PUBLIC 3284 0 _ZNK15google_breakpad11ElfCoreDump12GetFirstNoteEv
PUBLIC 330c 0 _fini
