MODULE Linux arm FFD2D499E7821F4462331DE9D5EC4FB00 libdirectfb_dummy.so
FUNC f4c 48 0 dummyGetScreenSize
FUNC f94 18 0 dummyTestRegion
FUNC fac 8 0 dummySetRegion
FUNC fb4 8 0 system_leave
FUNC fbc 8 0 system_suspend
FUNC fc4 8 0 system_resume
FUNC fcc 8 0 system_map_mmio
FUNC fd4 4 0 system_unmap_mmio
FUNC fd8 24 0 system_get_accelerator
FUNC ffc 8 0 system_get_modes
FUNC 1004 8 0 system_get_current_mode
FUNC 100c 8 0 system_thread_init
FUNC 1014 8 0 system_input_filter
FUNC 101c 8 0 system_video_memory_physical
FUNC 1024 8 0 system_video_memory_virtual
FUNC 102c 8 0 system_videoram_length
FUNC 1034 8 0 system_aux_memory_physical
FUNC 103c 8 0 system_aux_memory_virtual
FUNC 1044 8 0 system_auxram_length
FUNC 104c 4 0 system_get_busid
FUNC 1050 8 0 system_surface_data_size
FUNC 1058 4 0 system_surface_data_init
FUNC 105c 4 0 system_surface_data_destroy
FUNC 1060 4 0 system_get_deviceid
FUNC 1064 3c 0 system_shutdown
FUNC 10a0 34 0 system_join
FUNC 10d4 98 0 dummyInitLayer
FUNC 116c 28 0 system_get_info
FUNC 1194 60 0 dummyInitScreen
FUNC 11f4 68 0 system_initialize
FUNC 125c 88 0 dummyRemoveRegion
FUNC 12e4 2cc 0 dummy_display_loop
FUNC 15b0 1c0 0 dummyDisplayRequest
FUNC 1770 c 0 dummyUpdateRegion
FUNC 177c 28 0 dummyFlipRegion
FUNC 17a4 70 0 dummyShutdownScreen
FUNC 1814 3c 0 directfb_dummy
STACK CFI INIT f4c 48 .cfa: sp 0 + .ra: lr
STACK CFI INIT f94 18 .cfa: sp 0 + .ra: lr
STACK CFI INIT fac 8 .cfa: sp 0 + .ra: lr
STACK CFI INIT fb4 8 .cfa: sp 0 + .ra: lr
STACK CFI INIT fbc 8 .cfa: sp 0 + .ra: lr
STACK CFI INIT fc4 8 .cfa: sp 0 + .ra: lr
STACK CFI INIT fcc 8 .cfa: sp 0 + .ra: lr
STACK CFI INIT fd4 4 .cfa: sp 0 + .ra: lr
STACK CFI INIT fd8 24 .cfa: sp 0 + .ra: lr
STACK CFI INIT ffc 8 .cfa: sp 0 + .ra: lr
STACK CFI INIT 1004 8 .cfa: sp 0 + .ra: lr
STACK CFI INIT 100c 8 .cfa: sp 0 + .ra: lr
STACK CFI INIT 1014 8 .cfa: sp 0 + .ra: lr
STACK CFI INIT 101c 8 .cfa: sp 0 + .ra: lr
STACK CFI INIT 1024 8 .cfa: sp 0 + .ra: lr
STACK CFI INIT 102c 8 .cfa: sp 0 + .ra: lr
STACK CFI INIT 1034 8 .cfa: sp 0 + .ra: lr
STACK CFI INIT 103c 8 .cfa: sp 0 + .ra: lr
STACK CFI INIT 1044 8 .cfa: sp 0 + .ra: lr
STACK CFI INIT 104c 4 .cfa: sp 0 + .ra: lr
STACK CFI INIT 1050 8 .cfa: sp 0 + .ra: lr
STACK CFI INIT 1058 4 .cfa: sp 0 + .ra: lr
STACK CFI INIT 105c 4 .cfa: sp 0 + .ra: lr
STACK CFI INIT 1060 4 .cfa: sp 0 + .ra: lr
STACK CFI INIT 1064 3c .cfa: sp 0 + .ra: lr
STACK CFI 1068 .cfa: sp 8 +
STACK CFI 106c .ra: .cfa -4 + ^ r4: .cfa -8 + ^
STACK CFI INIT 10a0 34 .cfa: sp 0 + .ra: lr
STACK CFI 10a4 .cfa: sp 8 +
STACK CFI 10a8 .ra: .cfa -4 + ^ r4: .cfa -8 + ^
STACK CFI INIT 10d4 98 .cfa: sp 0 + .ra: lr
STACK CFI 10d8 .cfa: sp 16 +
STACK CFI 10dc .ra: .cfa -4 + ^ r4: .cfa -16 + ^ r5: .cfa -12 + ^ r6: .cfa -8 + ^
STACK CFI INIT 116c 28 .cfa: sp 0 + .ra: lr
STACK CFI INIT 1194 60 .cfa: sp 0 + .ra: lr
STACK CFI 1198 .cfa: sp 8 +
STACK CFI 11a0 .ra: .cfa -4 + ^ r4: .cfa -8 + ^
STACK CFI INIT 11f4 68 .cfa: sp 0 + .ra: lr
STACK CFI 11fc .cfa: sp 8 +
STACK CFI 1204 .ra: .cfa -4 + ^ r4: .cfa -8 + ^
STACK CFI INIT 125c 88 .cfa: sp 0 + .ra: lr
STACK CFI 1260 .cfa: sp 16 +
STACK CFI 1264 .ra: .cfa -4 + ^ r4: .cfa -16 + ^ r5: .cfa -12 + ^ r6: .cfa -8 + ^
STACK CFI INIT 12e4 2cc .cfa: sp 0 + .ra: lr
STACK CFI 12ec .cfa: sp 36 +
STACK CFI 12f8 .cfa: sp 160 +
STACK CFI 1300 .ra: .cfa -4 + ^ r10: .cfa -12 + ^ r11: .cfa -8 + ^ r4: .cfa -36 + ^ r5: .cfa -32 + ^ r6: .cfa -28 + ^ r7: .cfa -24 + ^ r8: .cfa -20 + ^ r9: .cfa -16 + ^
STACK CFI INIT 15b0 1c0 .cfa: sp 0 + .ra: lr
STACK CFI 15b4 .cfa: sp 32 +
STACK CFI 15b8 .ra: .cfa -4 + ^ r3: .cfa -32 + ^ r4: .cfa -28 + ^ r5: .cfa -24 + ^ r6: .cfa -20 + ^ r7: .cfa -16 + ^ r8: .cfa -12 + ^ r9: .cfa -8 + ^
STACK CFI INIT 1770 c .cfa: sp 0 + .ra: lr
STACK CFI INIT 177c 28 .cfa: sp 0 + .ra: lr
STACK CFI 1780 .cfa: sp 16 +
STACK CFI 1784 .ra: .cfa -4 + ^ r4: .cfa -16 + ^ r5: .cfa -12 + ^ r6: .cfa -8 + ^
STACK CFI INIT 17a4 70 .cfa: sp 0 + .ra: lr
STACK CFI 17ac .cfa: sp 8 +
STACK CFI 17b0 .ra: .cfa -4 + ^ r4: .cfa -8 + ^
STACK CFI INIT 1814 3c .cfa: sp 0 + .ra: lr
