MODULE Linux arm F5103D5242F0024443B4821BE83A12340 libidirectfbvideoprovider_gif.so
FUNC e20 10 0 GetType
FUNC e30 10 0 GetImplementation
FUNC e40 40 0 IDirectFBVideoProvider_GIF_AddRef
FUNC e80 4c 0 IDirectFBVideoProvider_GIF_GetCapabilities
FUNC ecc 6c 0 IDirectFBVideoProvider_GIF_GetSurfaceDescription
FUNC f38 50 0 IDirectFBVideoProvider_GIF_GetStatus
FUNC f88 64 0 IDirectFBVideoProvider_GIF_SeekTo
FUNC fec 58 0 IDirectFBVideoProvider_GIF_GetPos
FUNC 1044 58 0 IDirectFBVideoProvider_GIF_GetLength
FUNC 109c 68 0 IDirectFBVideoProvider_GIF_SetPlaybackFlags
FUNC 1104 50 0 IDirectFBVideoProvider_GIF_GetSpeed
FUNC 1154 30 0 Probe
FUNC 1184 38 0 Deallocate
FUNC 11bc b8 0 IDirectFBVideoProvider_GIF_Release
FUNC 1274 a8 0 IDirectFBVideoProvider_GIF_SetSpeed
FUNC 131c a4 0 IDirectFBVideoProvider_GIF_Stop
FUNC 13c0 68 0 Allocate
FUNC 1428 224 0 IDirectFBVideoProvider_GIF_PlayTo
FUNC 164c c8 0 IDirectFBVideoProvider_GIF_GetStreamDescription
FUNC 1714 254 0 ReadColorMap
FUNC 1968 4a8 0 Construct
FUNC 1e10 478 0 GetCode
FUNC 2288 6e8 0 LWZReadByte
FUNC 2970 bac 0 GIFReadFrame
FUNC 351c 2e8 0 GIFVideo
FUNC 3804 10 0 IDirectFBVideoProvider_Gif_ctor
FUNC 3814 10 0 IDirectFBVideoProvider_Gif_dtor
STACK CFI INIT e20 10 .cfa: sp 0 + .ra: lr
STACK CFI INIT e30 10 .cfa: sp 0 + .ra: lr
STACK CFI INIT e40 40 .cfa: sp 0 + .ra: lr
STACK CFI INIT e80 4c .cfa: sp 0 + .ra: lr
STACK CFI INIT ecc 6c .cfa: sp 0 + .ra: lr
STACK CFI INIT f38 50 .cfa: sp 0 + .ra: lr
STACK CFI INIT f88 64 .cfa: sp 0 + .ra: lr
STACK CFI f90 .cfa: sp 8 +
STACK CFI f9c .ra: .cfa -4 + ^ r3: .cfa -8 + ^
STACK CFI INIT fec 58 .cfa: sp 0 + .ra: lr
STACK CFI INIT 1044 58 .cfa: sp 0 + .ra: lr
STACK CFI INIT 109c 68 .cfa: sp 0 + .ra: lr
STACK CFI INIT 1104 50 .cfa: sp 0 + .ra: lr
STACK CFI INIT 1154 30 .cfa: sp 0 + .ra: lr
STACK CFI 115c .cfa: sp 8 +
STACK CFI 1164 .ra: .cfa -4 + ^ r3: .cfa -8 + ^
STACK CFI INIT 1184 38 .cfa: sp 0 + .ra: lr
STACK CFI 1188 .cfa: sp 16 +
STACK CFI 118c .ra: .cfa -4 + ^ r3: .cfa -16 + ^ r4: .cfa -12 + ^ r5: .cfa -8 + ^
STACK CFI INIT 11bc b8 .cfa: sp 0 + .ra: lr
STACK CFI 11c0 .cfa: sp 16 +
STACK CFI 11c4 .ra: .cfa -4 + ^ r3: .cfa -16 + ^ r4: .cfa -12 + ^ r5: .cfa -8 + ^
STACK CFI INIT 1274 a8 .cfa: sp 0 + .ra: lr
STACK CFI 127c .cfa: sp 24 +
STACK CFI 1280 .ra: .cfa -4 + ^ r3: .cfa -24 + ^ r4: .cfa -20 + ^ r5: .cfa -16 + ^ r6: .cfa -12 + ^ r7: .cfa -8 + ^
STACK CFI INIT 131c a4 .cfa: sp 0 + .ra: lr
STACK CFI 1324 .cfa: sp 16 +
STACK CFI 1328 .ra: .cfa -4 + ^ r3: .cfa -16 + ^ r4: .cfa -12 + ^ r5: .cfa -8 + ^
STACK CFI INIT 13c0 68 .cfa: sp 0 + .ra: lr
STACK CFI 13c4 .cfa: sp 8 +
STACK CFI 13cc .ra: .cfa -4 + ^ r4: .cfa -8 + ^
STACK CFI INIT 1428 224 .cfa: sp 0 + .ra: lr
STACK CFI 1430 .cfa: sp 36 +
STACK CFI 1434 .ra: .cfa -4 + ^ r10: .cfa -12 + ^ r11: .cfa -8 + ^ r4: .cfa -36 + ^ r5: .cfa -32 + ^ r6: .cfa -28 + ^ r7: .cfa -24 + ^ r8: .cfa -20 + ^ r9: .cfa -16 + ^
STACK CFI 1438 .cfa: sp 48 +
STACK CFI INIT 164c c8 .cfa: sp 0 + .ra: lr
STACK CFI 1654 .cfa: sp 16 +
STACK CFI 1658 .ra: .cfa -4 + ^ r3: .cfa -16 + ^ r4: .cfa -12 + ^ r5: .cfa -8 + ^
STACK CFI INIT 1714 254 .cfa: sp 0 + .ra: lr
STACK CFI 1718 .cfa: sp 36 +
STACK CFI 171c .ra: .cfa -4 + ^ r10: .cfa -12 + ^ r11: .cfa -8 + ^ r4: .cfa -36 + ^ r5: .cfa -32 + ^ r6: .cfa -28 + ^ r7: .cfa -24 + ^ r8: .cfa -20 + ^ r9: .cfa -16 + ^
STACK CFI 1720 .cfa: r11 4 +
STACK CFI INIT 1968 4a8 .cfa: sp 0 + .ra: lr
STACK CFI 196c .cfa: sp 36 +
STACK CFI 1970 .ra: .cfa -4 + ^ r10: .cfa -12 + ^ r11: .cfa -8 + ^ r4: .cfa -36 + ^ r5: .cfa -32 + ^ r6: .cfa -28 + ^ r7: .cfa -24 + ^ r8: .cfa -20 + ^ r9: .cfa -16 + ^
STACK CFI 197c .cfa: sp 56 +
STACK CFI INIT 1e10 478 .cfa: sp 0 + .ra: lr
STACK CFI 1e14 .cfa: sp 36 +
STACK CFI 1e18 .ra: .cfa -4 + ^ r10: .cfa -12 + ^ r11: .cfa -8 + ^ r4: .cfa -36 + ^ r5: .cfa -32 + ^ r6: .cfa -28 + ^ r7: .cfa -24 + ^ r8: .cfa -20 + ^ r9: .cfa -16 + ^
STACK CFI 1e1c .cfa: sp 56 +
STACK CFI INIT 2288 6e8 .cfa: sp 0 + .ra: lr
STACK CFI 228c .cfa: sp 32 +
STACK CFI 2290 .ra: .cfa -4 + ^ r10: .cfa -8 + ^ r4: .cfa -32 + ^ r5: .cfa -28 + ^ r6: .cfa -24 + ^ r7: .cfa -20 + ^ r8: .cfa -16 + ^ r9: .cfa -12 + ^
STACK CFI 2298 .cfa: sp 304 +
STACK CFI INIT 2970 bac .cfa: sp 0 + .ra: lr
STACK CFI 2974 .cfa: sp 36 +
STACK CFI 2978 .ra: .cfa -4 + ^ r10: .cfa -12 + ^ r11: .cfa -8 + ^ r4: .cfa -36 + ^ r5: .cfa -32 + ^ r6: .cfa -28 + ^ r7: .cfa -24 + ^ r8: .cfa -20 + ^ r9: .cfa -16 + ^
STACK CFI 2984 .cfa: sp 1108 +
STACK CFI 2990 .cfa: sp 1120 +
STACK CFI INIT 351c 2e8 .cfa: sp 0 + .ra: lr
STACK CFI 3520 .cfa: sp 36 +
STACK CFI 3524 .ra: .cfa -4 + ^ r10: .cfa -12 + ^ r11: .cfa -8 + ^ r4: .cfa -36 + ^ r5: .cfa -32 + ^ r6: .cfa -28 + ^ r7: .cfa -24 + ^ r8: .cfa -20 + ^ r9: .cfa -16 + ^
STACK CFI 3528 .cfa: sp 152 +
STACK CFI INIT 3804 10 .cfa: sp 0 + .ra: lr
STACK CFI INIT 3814 10 .cfa: sp 0 + .ra: lr
STACK CFI INIT 3824 1ec .cfa: sp 0 + .ra: lr
