MODULE Linux arm 5ABF2EF501F6A4778B775E2ED158A6210 libdirectfb_fbdev.so
FUNC 2290 88 0 dfb_agp_release
FUNC 2318 a58 0 dfb_agp_initialize
FUNC 2d70 398 0 dfb_agp_join
FUNC 3108 2c4 0 dfb_agp_shutdown
FUNC 33cc 16c 0 dfb_agp_leave
FUNC 3538 8 0 system_suspend
FUNC 3540 8 0 system_resume
FUNC 3548 28 0 system_get_modes
FUNC 3570 28 0 system_get_current_mode
FUNC 3598 2c 0 system_video_memory_physical
FUNC 35c4 28 0 system_video_memory_virtual
FUNC 35ec 28 0 system_videoram_length
FUNC 3614 38 0 system_aux_memory_physical
FUNC 364c 34 0 system_aux_memory_virtual
FUNC 3680 30 0 system_auxram_length
FUNC 36b0 3c 0 system_get_busid
FUNC 36ec 8 0 system_surface_data_size
FUNC 36f4 4 0 system_surface_data_init
FUNC 36f8 4 0 system_surface_data_destroy
FUNC 36fc 40 0 system_get_deviceid
FUNC 373c 3c 0 primaryGetScreenSize
FUNC 3778 8 0 primaryLayerDataSize
FUNC 3780 8 0 primaryRegionDataSize
FUNC 3788 8 0 primaryAddRegion
FUNC 3790 8 0 primaryRemoveRegion
FUNC 3798 d0 0 dfb_fbdev_var_to_mode
FUNC 3868 6a8 0 dfb_fbdev_mode_to_var
FUNC 3f10 88 0 system_get_accelerator
FUNC 3f98 90 0 system_unmap_mmio
FUNC 4028 cc 0 system_map_mmio
FUNC 40f4 a0 0 system_input_filter
FUNC 4194 38 0 system_thread_init
FUNC 41cc 98 0 system_leave
FUNC 4264 60 0 primaryWaitVSync
FUNC 42c4 2a8 0 system_shutdown
FUNC 456c 2b4 0 dfb_fbdev_pan
FUNC 4820 e0 0 primaryFlipRegion
FUNC 4900 8c 0 primaryGetVSyncCount
FUNC 498c f0 0 primarySetPowerMode
FUNC 4a7c 170 0 fbdev_ioctl_call_handler
FUNC 4bec 1b8 0 fbdev_ioctl
FUNC 4da4 3a8 0 primarySetColorAdjustment
FUNC 514c 2c 0 primaryInitScreen
FUNC 5178 24 0 system_get_info
FUNC 519c 254 0 dfb_fbdev_open
FUNC 53f0 22c 0 system_join
FUNC 561c 3a4 0 dfb_fbdev_get_pci_info
FUNC 59c0 7e0 0 system_initialize
FUNC 61a0 10d8 0 primarySetRegion
FUNC 7278 544 0 dfb_fbdev_read_modes
FUNC 77bc 2c0 0 primaryInitLayer
FUNC 7a7c 2c4 0 primaryTestRegion
FUNC 7d40 3c 0 directfb_fbdev
FUNC 7d7c 8 0 fbdevPoolDataSize
FUNC 7d84 8 0 fbdevPoolLocalDataSize
FUNC 7d8c 8 0 fbdevAllocationDataSize
FUNC 7d94 18 0 fbdevJoinPool
FUNC 7dac c 0 fbdevLeavePool
FUNC 7db8 9c 0 fbdevLock
FUNC 7e54 8 0 fbdevUnlock
FUNC 7e5c 10 0 fbdevMuckOut
FUNC 7e6c 2c 0 fbdevDeallocateBuffer
FUNC 7e98 f0 0 fbdevAllocateBuffer
FUNC 7f88 38 0 fbdevTestConfig
FUNC 7fc0 28 0 fbdevDestroyPool
FUNC 7fe8 fc 0 fbdevInitPool
FUNC 80e4 138 0 dfb_surfacemanager_create
FUNC 821c b8 0 dfb_surfacemanager_destroy
FUNC 82d4 100 0 dfb_surfacemanager_adjust_heap_offset
FUNC 83d4 2d0 0 dfb_surfacemanager_allocate
FUNC 86a4 32c 0 dfb_surfacemanager_displace
FUNC 89d0 1c4 0 dfb_surfacemanager_deallocate
FUNC 8b94 60c 0 vt_init_switching
FUNC 91a0 260 0 vt_thread
FUNC 9400 70 0 vt_switch_handler
FUNC 9470 128 0 vt_flush_thread
FUNC 9598 73c 0 dfb_vt_initialize
FUNC 9cd4 6b8 0 dfb_vt_shutdown
FUNC a38c 8 0 dfb_vt_leave
FUNC a394 14c 0 dfb_vt_detach
FUNC a4e0 14 0 dfb_vt_join
FUNC a4f4 9c 0 dfb_vt_switch
STACK CFI INIT 2290 88 .cfa: sp 0 + .ra: lr
STACK CFI 2298 .cfa: sp 8 +
STACK CFI 22a8 .ra: .cfa -4 + ^ r4: .cfa -8 + ^
STACK CFI INIT 2318 a58 .cfa: sp 0 + .ra: lr
STACK CFI 2320 .cfa: sp 28 +
STACK CFI 2328 .ra: .cfa -4 + ^ r10: .cfa -8 + ^ r4: .cfa -28 + ^ r5: .cfa -24 + ^ r6: .cfa -20 + ^ r7: .cfa -16 + ^ r8: .cfa -12 + ^
STACK CFI 2330 .cfa: sp 88 +
STACK CFI INIT 2d70 398 .cfa: sp 0 + .ra: lr
STACK CFI 2d74 .cfa: sp 28 +
STACK CFI 2d78 .ra: .cfa -4 + ^ r10: .cfa -8 + ^ r4: .cfa -28 + ^ r5: .cfa -24 + ^ r6: .cfa -20 + ^ r7: .cfa -16 + ^ r8: .cfa -12 + ^
STACK CFI 2d88 .cfa: sp 40 +
STACK CFI INIT 3108 2c4 .cfa: sp 0 + .ra: lr
STACK CFI 3110 .cfa: sp 24 +
STACK CFI 3118 .ra: .cfa -4 + ^ r4: .cfa -24 + ^ r5: .cfa -20 + ^ r6: .cfa -16 + ^ r7: .cfa -12 + ^ r8: .cfa -8 + ^
STACK CFI 3120 .cfa: sp 40 +
STACK CFI INIT 33cc 16c .cfa: sp 0 + .ra: lr
STACK CFI 33d0 .cfa: sp 24 +
STACK CFI 33d4 .ra: .cfa -4 + ^ r3: .cfa -24 + ^ r4: .cfa -20 + ^ r5: .cfa -16 + ^ r6: .cfa -12 + ^ r7: .cfa -8 + ^
STACK CFI INIT 3538 8 .cfa: sp 0 + .ra: lr
STACK CFI INIT 3540 8 .cfa: sp 0 + .ra: lr
STACK CFI INIT 3548 28 .cfa: sp 0 + .ra: lr
STACK CFI INIT 3570 28 .cfa: sp 0 + .ra: lr
STACK CFI INIT 3598 2c .cfa: sp 0 + .ra: lr
STACK CFI INIT 35c4 28 .cfa: sp 0 + .ra: lr
STACK CFI INIT 35ec 28 .cfa: sp 0 + .ra: lr
STACK CFI INIT 3614 38 .cfa: sp 0 + .ra: lr
STACK CFI INIT 364c 34 .cfa: sp 0 + .ra: lr
STACK CFI INIT 3680 30 .cfa: sp 0 + .ra: lr
STACK CFI INIT 36b0 3c .cfa: sp 0 + .ra: lr
STACK CFI INIT 36ec 8 .cfa: sp 0 + .ra: lr
STACK CFI INIT 36f4 4 .cfa: sp 0 + .ra: lr
STACK CFI INIT 36f8 4 .cfa: sp 0 + .ra: lr
STACK CFI INIT 36fc 40 .cfa: sp 0 + .ra: lr
STACK CFI INIT 373c 3c .cfa: sp 0 + .ra: lr
STACK CFI INIT 3778 8 .cfa: sp 0 + .ra: lr
STACK CFI INIT 3780 8 .cfa: sp 0 + .ra: lr
STACK CFI INIT 3788 8 .cfa: sp 0 + .ra: lr
STACK CFI INIT 3790 8 .cfa: sp 0 + .ra: lr
STACK CFI INIT 3798 d0 .cfa: sp 0 + .ra: lr
STACK CFI 37a0 .cfa: sp 32 +
STACK CFI 37a8 r10: .cfa -8 + ^ r11: .cfa -4 + ^ r4: .cfa -32 + ^ r5: .cfa -28 + ^ r6: .cfa -24 + ^ r7: .cfa -20 + ^ r8: .cfa -16 + ^ r9: .cfa -12 + ^
STACK CFI INIT 3868 6a8 .cfa: sp 0 + .ra: lr
STACK CFI 386c .cfa: sp 36 +
STACK CFI 3870 .ra: .cfa -4 + ^ r10: .cfa -12 + ^ r11: .cfa -8 + ^ r4: .cfa -36 + ^ r5: .cfa -32 + ^ r6: .cfa -28 + ^ r7: .cfa -24 + ^ r8: .cfa -20 + ^ r9: .cfa -16 + ^
STACK CFI 3880 .cfa: sp 272 +
STACK CFI INIT 3f10 88 .cfa: sp 0 + .ra: lr
STACK CFI 3f14 .cfa: sp 16 +
STACK CFI 3f18 .ra: .cfa -4 + ^ r3: .cfa -16 + ^ r4: .cfa -12 + ^ r5: .cfa -8 + ^
STACK CFI INIT 3f98 90 .cfa: sp 0 + .ra: lr
STACK CFI 3f9c .cfa: sp 16 +
STACK CFI 3fa0 .ra: .cfa -4 + ^ r4: .cfa -16 + ^ r5: .cfa -12 + ^ r6: .cfa -8 + ^
STACK CFI INIT 4028 cc .cfa: sp 0 + .ra: lr
STACK CFI 402c .cfa: sp 20 +
STACK CFI 4030 .ra: .cfa -4 + ^ r4: .cfa -20 + ^ r5: .cfa -16 + ^ r6: .cfa -12 + ^ r7: .cfa -8 + ^
STACK CFI 4054 .cfa: sp 32 +
STACK CFI INIT 40f4 a0 .cfa: sp 0 + .ra: lr
STACK CFI INIT 4194 38 .cfa: sp 0 + .ra: lr
STACK CFI 41a0 .cfa: sp 8 +
STACK CFI 41a4 .ra: .cfa -4 + ^ r3: .cfa -8 + ^
STACK CFI INIT 41cc 98 .cfa: sp 0 + .ra: lr
STACK CFI 41d0 .cfa: sp 16 +
STACK CFI 41d4 .ra: .cfa -4 + ^ r4: .cfa -16 + ^ r5: .cfa -12 + ^ r6: .cfa -8 + ^
STACK CFI INIT 4264 60 .cfa: sp 0 + .ra: lr
STACK CFI 4268 .cfa: sp 8 +
STACK CFI 426c .ra: .cfa -4 + ^ r3: .cfa -8 + ^
STACK CFI INIT 42c4 2a8 .cfa: sp 0 + .ra: lr
STACK CFI 42c8 .cfa: sp 36 +
STACK CFI 42cc .ra: .cfa -4 + ^ r10: .cfa -12 + ^ r11: .cfa -8 + ^ r4: .cfa -36 + ^ r5: .cfa -32 + ^ r6: .cfa -28 + ^ r7: .cfa -24 + ^ r8: .cfa -20 + ^ r9: .cfa -16 + ^
STACK CFI 42dc .cfa: sp 56 +
STACK CFI INIT 456c 2b4 .cfa: sp 0 + .ra: lr
STACK CFI 4570 .cfa: sp 24 +
STACK CFI 4574 .ra: .cfa -4 + ^ r4: .cfa -24 + ^ r5: .cfa -20 + ^ r6: .cfa -16 + ^ r7: .cfa -12 + ^ r8: .cfa -8 + ^
STACK CFI 458c .cfa: sp 40 +
STACK CFI INIT 4820 e0 .cfa: sp 0 + .ra: lr
STACK CFI 4824 .cfa: sp 24 +
STACK CFI 4828 .ra: .cfa -4 + ^ r4: .cfa -24 + ^ r5: .cfa -20 + ^ r6: .cfa -16 + ^ r7: .cfa -12 + ^ r8: .cfa -8 + ^
STACK CFI INIT 4900 8c .cfa: sp 0 + .ra: lr
STACK CFI 4904 .cfa: sp 8 +
STACK CFI 4908 .ra: .cfa -4 + ^ r4: .cfa -8 + ^
STACK CFI 4910 .cfa: sp 40 +
STACK CFI INIT 498c f0 .cfa: sp 0 + .ra: lr
STACK CFI 4990 .cfa: sp 8 +
STACK CFI 4994 .ra: .cfa -4 + ^ r4: .cfa -8 + ^
STACK CFI INIT 4a7c 170 .cfa: sp 0 + .ra: lr
STACK CFI 4a80 .cfa: sp 24 +
STACK CFI 4a84 .ra: .cfa -4 + ^ r4: .cfa -24 + ^ r5: .cfa -20 + ^ r6: .cfa -16 + ^ r7: .cfa -12 + ^ r8: .cfa -8 + ^
STACK CFI 4a88 .cfa: sp 48 +
STACK CFI INIT 4bec 1b8 .cfa: sp 0 + .ra: lr
STACK CFI 4bf0 .cfa: sp 36 +
STACK CFI 4bf4 .ra: .cfa -4 + ^ r10: .cfa -12 + ^ r11: .cfa -8 + ^ r4: .cfa -36 + ^ r5: .cfa -32 + ^ r6: .cfa -28 + ^ r7: .cfa -24 + ^ r8: .cfa -20 + ^ r9: .cfa -16 + ^
STACK CFI 4c04 .cfa: sp 64 +
STACK CFI INIT 4da4 3a8 .cfa: sp 0 + .ra: lr
STACK CFI 4dac .cfa: sp 36 +
STACK CFI 4db4 .cfa: sp 112 +
STACK CFI 4dc0 .ra: .cfa -4 + ^ r10: .cfa -12 + ^ r11: .cfa -8 + ^ r4: .cfa -36 + ^ r5: .cfa -32 + ^ r6: .cfa -28 + ^ r7: .cfa -24 + ^ r8: .cfa -20 + ^ r9: .cfa -16 + ^
STACK CFI INIT 514c 2c .cfa: sp 0 + .ra: lr
STACK CFI 5150 .cfa: sp 8 +
STACK CFI 515c .ra: .cfa -4 + ^ r3: .cfa -8 + ^
STACK CFI INIT 5178 24 .cfa: sp 0 + .ra: lr
STACK CFI INIT 519c 254 .cfa: sp 0 + .ra: lr
STACK CFI 51a0 .cfa: sp 24 +
STACK CFI 51a4 .ra: .cfa -4 + ^ r4: .cfa -24 + ^ r5: .cfa -20 + ^ r6: .cfa -16 + ^ r7: .cfa -12 + ^ r8: .cfa -8 + ^
STACK CFI INIT 53f0 22c .cfa: sp 0 + .ra: lr
STACK CFI 53f4 .cfa: sp 28 +
STACK CFI 53f8 .ra: .cfa -4 + ^ r10: .cfa -8 + ^ r4: .cfa -28 + ^ r5: .cfa -24 + ^ r6: .cfa -20 + ^ r7: .cfa -16 + ^ r8: .cfa -12 + ^
STACK CFI 5410 .cfa: sp 48 +
STACK CFI INIT 561c 3a4 .cfa: sp 0 + .ra: lr
STACK CFI 5624 .cfa: sp 20 +
STACK CFI 5628 .ra: .cfa -4 + ^ r4: .cfa -20 + ^ r5: .cfa -16 + ^ r6: .cfa -12 + ^ r7: .cfa -8 + ^
STACK CFI 5640 .cfa: sp 704 +
STACK CFI INIT 59c0 7e0 .cfa: sp 0 + .ra: lr
STACK CFI 59c4 .cfa: sp 36 +
STACK CFI 59c8 .cfa: sp 72 +
STACK CFI 59d0 .ra: .cfa -4 + ^ r10: .cfa -12 + ^ r11: .cfa -8 + ^ r4: .cfa -36 + ^ r5: .cfa -32 + ^ r6: .cfa -28 + ^ r7: .cfa -24 + ^ r8: .cfa -20 + ^ r9: .cfa -16 + ^
STACK CFI INIT 61a0 10d8 .cfa: sp 0 + .ra: lr
STACK CFI 61a4 .cfa: sp 36 +
STACK CFI 61a8 .ra: .cfa -4 + ^ r10: .cfa -12 + ^ r11: .cfa -8 + ^ r4: .cfa -36 + ^ r5: .cfa -32 + ^ r6: .cfa -28 + ^ r7: .cfa -24 + ^ r8: .cfa -20 + ^ r9: .cfa -16 + ^
STACK CFI 61ac .cfa: sp 560 +
STACK CFI INIT 7278 544 .cfa: sp 0 + .ra: lr
STACK CFI 7280 .cfa: sp 36 +
STACK CFI 7288 .cfa: sp 472 +
STACK CFI 7294 .ra: .cfa -4 + ^ r10: .cfa -12 + ^ r11: .cfa -8 + ^ r4: .cfa -36 + ^ r5: .cfa -32 + ^ r6: .cfa -28 + ^ r7: .cfa -24 + ^ r8: .cfa -20 + ^ r9: .cfa -16 + ^
STACK CFI INIT 77bc 2c0 .cfa: sp 0 + .ra: lr
STACK CFI 77c0 .cfa: sp 36 +
STACK CFI 77c4 .ra: .cfa -4 + ^ r10: .cfa -12 + ^ r11: .cfa -8 + ^ r4: .cfa -36 + ^ r5: .cfa -32 + ^ r6: .cfa -28 + ^ r7: .cfa -24 + ^ r8: .cfa -20 + ^ r9: .cfa -16 + ^
STACK CFI 77c8 .cfa: sp 240 +
STACK CFI INIT 7a7c 2c4 .cfa: sp 0 + .ra: lr
STACK CFI 7a8c .cfa: sp 36 +
STACK CFI 7a90 .ra: .cfa -4 + ^ r10: .cfa -12 + ^ r11: .cfa -8 + ^ r4: .cfa -36 + ^ r5: .cfa -32 + ^ r6: .cfa -28 + ^ r7: .cfa -24 + ^ r8: .cfa -20 + ^ r9: .cfa -16 + ^
STACK CFI 7a9c .cfa: sp 296 +
STACK CFI INIT 7d40 3c .cfa: sp 0 + .ra: lr
STACK CFI INIT 7d7c 8 .cfa: sp 0 + .ra: lr
STACK CFI INIT 7d84 8 .cfa: sp 0 + .ra: lr
STACK CFI INIT 7d8c 8 .cfa: sp 0 + .ra: lr
STACK CFI INIT 7d94 18 .cfa: sp 0 + .ra: lr
STACK CFI INIT 7dac c .cfa: sp 0 + .ra: lr
STACK CFI INIT 7db8 9c .cfa: sp 0 + .ra: lr
STACK CFI 7dc8 .cfa: sp 4 +
STACK CFI 7de4 r4: .cfa -4 + ^
STACK CFI INIT 7e54 8 .cfa: sp 0 + .ra: lr
STACK CFI INIT 7e5c 10 .cfa: sp 0 + .ra: lr
STACK CFI INIT 7e6c 2c .cfa: sp 0 + .ra: lr
STACK CFI 7e70 .cfa: sp 8 +
STACK CFI 7e74 .ra: .cfa -4 + ^ r4: .cfa -8 + ^
STACK CFI INIT 7e98 f0 .cfa: sp 0 + .ra: lr
STACK CFI 7ea0 .cfa: sp 16 +
STACK CFI 7ea8 .cfa: sp 24 +
STACK CFI 7eb0 .ra: .cfa -4 + ^ r4: .cfa -16 + ^ r5: .cfa -12 + ^ r6: .cfa -8 + ^
STACK CFI INIT 7f88 38 .cfa: sp 0 + .ra: lr
STACK CFI INIT 7fc0 28 .cfa: sp 0 + .ra: lr
STACK CFI 7fc4 .cfa: sp 16 +
STACK CFI 7fcc .ra: .cfa -4 + ^ r3: .cfa -16 + ^ r4: .cfa -12 + ^ r5: .cfa -8 + ^
STACK CFI INIT 7fe8 fc .cfa: sp 0 + .ra: lr
STACK CFI 7ff0 .cfa: sp 32 +
STACK CFI 7ff4 .ra: .cfa -4 + ^ r10: .cfa -8 + ^ r3: .cfa -32 + ^ r4: .cfa -28 + ^ r5: .cfa -24 + ^ r6: .cfa -20 + ^ r7: .cfa -16 + ^ r8: .cfa -12 + ^
STACK CFI INIT 80e4 138 .cfa: sp 0 + .ra: lr
STACK CFI 80e8 .cfa: sp 32 +
STACK CFI 80ec .cfa: sp 40 +
STACK CFI 80f0 .ra: .cfa -4 + ^ r10: .cfa -8 + ^ r4: .cfa -32 + ^ r5: .cfa -28 + ^ r6: .cfa -24 + ^ r7: .cfa -20 + ^ r8: .cfa -16 + ^ r9: .cfa -12 + ^
STACK CFI INIT 821c b8 .cfa: sp 0 + .ra: lr
STACK CFI 8224 .cfa: sp 24 +
STACK CFI 822c .cfa: sp 32 +
STACK CFI 8230 .ra: .cfa -4 + ^ r4: .cfa -24 + ^ r5: .cfa -20 + ^ r6: .cfa -16 + ^ r7: .cfa -12 + ^ r8: .cfa -8 + ^
STACK CFI INIT 82d4 100 .cfa: sp 0 + .ra: lr
STACK CFI 82dc .cfa: sp 16 +
STACK CFI 82e0 .ra: .cfa -4 + ^ r3: .cfa -16 + ^ r4: .cfa -12 + ^ r5: .cfa -8 + ^
STACK CFI INIT 83d4 2d0 .cfa: sp 0 + .ra: lr
STACK CFI 83d8 .cfa: sp 36 +
STACK CFI 83dc .ra: .cfa -4 + ^ r10: .cfa -12 + ^ r11: .cfa -8 + ^ r4: .cfa -36 + ^ r5: .cfa -32 + ^ r6: .cfa -28 + ^ r7: .cfa -24 + ^ r8: .cfa -20 + ^ r9: .cfa -16 + ^
STACK CFI 83e8 .cfa: sp 64 +
STACK CFI INIT 86a4 32c .cfa: sp 0 + .ra: lr
STACK CFI 86a8 .cfa: sp 36 +
STACK CFI 86ac .ra: .cfa -4 + ^ r10: .cfa -12 + ^ r11: .cfa -8 + ^ r4: .cfa -36 + ^ r5: .cfa -32 + ^ r6: .cfa -28 + ^ r7: .cfa -24 + ^ r8: .cfa -20 + ^ r9: .cfa -16 + ^
STACK CFI 86b0 .cfa: sp 72 +
STACK CFI INIT 89d0 1c4 .cfa: sp 0 + .ra: lr
STACK CFI 89e0 .cfa: sp 12 +
STACK CFI 89e8 .cfa: sp 24 +
STACK CFI 89f0 .ra: .cfa -4 + ^ r4: .cfa -12 + ^ r5: .cfa -8 + ^
STACK CFI INIT 8b94 60c .cfa: sp 0 + .ra: lr
STACK CFI 8b9c .cfa: sp 36 +
STACK CFI 8ba4 .ra: .cfa -4 + ^ r10: .cfa -12 + ^ r11: .cfa -8 + ^ r4: .cfa -36 + ^ r5: .cfa -32 + ^ r6: .cfa -28 + ^ r7: .cfa -24 + ^ r8: .cfa -20 + ^ r9: .cfa -16 + ^
STACK CFI 8ba8 .cfa: sp 304 +
STACK CFI INIT 91a0 260 .cfa: sp 0 + .ra: lr
STACK CFI 91a4 .cfa: sp 36 +
STACK CFI 91a8 .ra: .cfa -4 + ^ r10: .cfa -12 + ^ r11: .cfa -8 + ^ r4: .cfa -36 + ^ r5: .cfa -32 + ^ r6: .cfa -28 + ^ r7: .cfa -24 + ^ r8: .cfa -20 + ^ r9: .cfa -16 + ^
STACK CFI 91b8 .cfa: sp 64 +
STACK CFI INIT 9400 70 .cfa: sp 0 + .ra: lr
STACK CFI 9404 .cfa: sp 16 +
STACK CFI 9408 .ra: .cfa -4 + ^ r4: .cfa -16 + ^ r5: .cfa -12 + ^ r6: .cfa -8 + ^
STACK CFI INIT 9470 128 .cfa: sp 0 + .ra: lr
STACK CFI 9474 .cfa: sp 28 +
STACK CFI 9478 .ra: .cfa -4 + ^ r10: .cfa -8 + ^ r4: .cfa -28 + ^ r5: .cfa -24 + ^ r6: .cfa -20 + ^ r7: .cfa -16 + ^ r8: .cfa -12 + ^
STACK CFI 947c .cfa: sp 168 +
STACK CFI INIT 9598 73c .cfa: sp 0 + .ra: lr
STACK CFI 959c .cfa: sp 28 +
STACK CFI 95a4 .cfa: sp 136 +
STACK CFI 95a8 .ra: .cfa -4 + ^ r10: .cfa -8 + ^ r4: .cfa -28 + ^ r5: .cfa -24 + ^ r6: .cfa -20 + ^ r7: .cfa -16 + ^ r8: .cfa -12 + ^
STACK CFI INIT 9cd4 6b8 .cfa: sp 0 + .ra: lr
STACK CFI 9cdc .cfa: sp 24 +
STACK CFI 9ce4 .ra: .cfa -4 + ^ r4: .cfa -24 + ^ r5: .cfa -20 + ^ r6: .cfa -16 + ^ r7: .cfa -12 + ^ r8: .cfa -8 + ^
STACK CFI 9cec .cfa: sp 144 +
STACK CFI INIT a38c 8 .cfa: sp 0 + .ra: lr
STACK CFI INIT a394 14c .cfa: sp 0 + .ra: lr
STACK CFI a398 .cfa: sp 16 +
STACK CFI a39c .ra: .cfa -4 + ^ r4: .cfa -16 + ^ r5: .cfa -12 + ^ r6: .cfa -8 + ^
STACK CFI a3ac .cfa: sp 24 +
STACK CFI INIT a4e0 14 .cfa: sp 0 + .ra: lr
STACK CFI a4e4 .cfa: sp 8 +
STACK CFI a4e8 .ra: .cfa -4 + ^ r3: .cfa -8 + ^
STACK CFI INIT a4f4 9c .cfa: sp 0 + .ra: lr
STACK CFI a4f8 .cfa: sp 8 +
STACK CFI a4fc .ra: .cfa -4 + ^ r4: .cfa -8 + ^
STACK CFI INIT a590 1ec .cfa: sp 0 + .ra: lr
STACK CFI INIT a79c 220 .cfa: sp 0 + .ra: lr
