MODULE Linux arm 057E9F5B647A4005682B1A518D1A54740 libiwater_default.so
FUNC 11e8 1b4 0 build_rectangle_outlines
FUNC 139c 6f8 0 TEST_Render_Point
FUNC 1a94 598 0 TEST_Render_Span
FUNC 202c 7dc 0 TEST_Render_Line
FUNC 2808 760 0 TEST_Render_LineStripLoop
FUNC 2f68 1de0 0 TEST_Render_Rectangle
FUNC 4d48 24c 0 TEST_Render_Rectangle_To_FillQuad
FUNC 4f94 dc8 0 TEST_Render_Triangle
FUNC 5d5c 4c4 0 TEST_Render_Trapezoid
FUNC 6220 678 0 TEST_Render_Quadrangle
FUNC 6898 358 0 TEST_Render_Trapezoid_To_Quadrangle
FUNC 6bf0 280 0 TEST_Render_Polygon
FUNC 6e70 18c 0 TEST_Render_Circle
FUNC 6ffc 10 0 GetType
FUNC 700c 10 0 GetImplementation
FUNC 701c 10 0 SetAttribute_32
FUNC 702c 14 0 SetAttribute_DFBPoint
FUNC 7040 14 0 SetAttribute_DFBRegion
FUNC 7054 4c 0 SetAttribute_Pattern
FUNC 70a0 118 0 SetAttribute
FUNC 71b8 218 0 IWater_SetAttributeList
FUNC 73d0 20c 0 IWater_SetAttributes
FUNC 75dc f0 0 IWater_SetAttribute
FUNC 76cc e8 0 IWater_Release
FUNC 77b4 bc 0 IWater_AddRef
FUNC 7870 48 0 Probe
FUNC 78b8 17c 0 Deallocate
FUNC 7a34 560 0 Construct
FUNC 7f94 8c 0 SetAttribute_Gradient
FUNC 8020 13d8 0 SetAttribute_Transform
FUNC 93f8 260 0 SetDestination
FUNC 9658 190 0 IWater_RenderElementList
FUNC 97e8 190 0 IWater_RenderElements
FUNC 9978 130 0 IWater_RenderElement
FUNC 9aa8 104 0 Allocate
FUNC 9bac 290 0 RenderShape
FUNC 9e3c 1d0 0 IWater_RenderShapeList
FUNC a00c 2b8 0 IWater_RenderShapes
FUNC a2c4 fc 0 IWater_RenderShape
FUNC a3c0 14 0 IWater_default_ctor
FUNC a3d4 14 0 IWater_default_dtor
FUNC a3e8 8c8 0 TEST_Transform_TypeToMatrix_16_16
FUNC acb0 df0 0 TEST_Transform_Append_16_16
FUNC baa0 59c 0 TEST_Transform_TypeToMatrix
FUNC c03c 4c4 0 TEST_Transform_Append
FUNC c500 23c 0 TEST_Transform_XY
FUNC c73c c8 0 TEST_Transform_XY_float
FUNC c804 1bf4 0 TEST_Transform_Points
FUNC e3f8 1ec8 0 TEST_Transform_Rectangles
FUNC 102c0 2278 0 TEST_Transform_Regions
FUNC 12538 2610 0 TEST_Transform_Triangles
STACK CFI INIT 11e8 1b4 .cfa: sp 0 + .ra: lr
STACK CFI 11ec .cfa: sp 16 +
STACK CFI 11f0 .ra: .cfa -4 + ^ r4: .cfa -16 + ^ r5: .cfa -12 + ^ r6: .cfa -8 + ^
STACK CFI INIT 139c 6f8 .cfa: sp 0 + .ra: lr
STACK CFI 13a0 .cfa: sp 36 +
STACK CFI 13a4 .ra: .cfa -4 + ^ r10: .cfa -12 + ^ r11: .cfa -8 + ^ r4: .cfa -36 + ^ r5: .cfa -32 + ^ r6: .cfa -28 + ^ r7: .cfa -24 + ^ r8: .cfa -20 + ^ r9: .cfa -16 + ^
STACK CFI 13bc .cfa: r11 4 +
STACK CFI INIT 1a94 598 .cfa: sp 0 + .ra: lr
STACK CFI 1a98 .cfa: sp 36 +
STACK CFI 1a9c .ra: .cfa -4 + ^ r10: .cfa -12 + ^ r11: .cfa -8 + ^ r4: .cfa -36 + ^ r5: .cfa -32 + ^ r6: .cfa -28 + ^ r7: .cfa -24 + ^ r8: .cfa -20 + ^ r9: .cfa -16 + ^
STACK CFI 1abc .cfa: r11 4 +
STACK CFI INIT 202c 7dc .cfa: sp 0 + .ra: lr
STACK CFI 2030 .cfa: sp 36 +
STACK CFI 2034 .ra: .cfa -4 + ^ r10: .cfa -12 + ^ r11: .cfa -8 + ^ r4: .cfa -36 + ^ r5: .cfa -32 + ^ r6: .cfa -28 + ^ r7: .cfa -24 + ^ r8: .cfa -20 + ^ r9: .cfa -16 + ^
STACK CFI 204c .cfa: r11 4 +
STACK CFI INIT 2808 760 .cfa: sp 0 + .ra: lr
STACK CFI 280c .cfa: sp 36 +
STACK CFI 2810 .cfa: r11 4 + .ra: .cfa -4 + ^ r10: .cfa -12 + ^ r11: .cfa -8 + ^ r4: .cfa -36 + ^ r5: .cfa -32 + ^ r6: .cfa -28 + ^ r7: .cfa -24 + ^ r8: .cfa -20 + ^ r9: .cfa -16 + ^
STACK CFI INIT 2f68 1de0 .cfa: sp 0 + .ra: lr
STACK CFI 2f6c .cfa: sp 36 +
STACK CFI 2f70 .ra: .cfa -4 + ^ r10: .cfa -12 + ^ r11: .cfa -8 + ^ r4: .cfa -36 + ^ r5: .cfa -32 + ^ r6: .cfa -28 + ^ r7: .cfa -24 + ^ r8: .cfa -20 + ^ r9: .cfa -16 + ^
STACK CFI 2f74 .cfa: r11 4 +
STACK CFI INIT 4d48 24c .cfa: sp 0 + .ra: lr
STACK CFI 4d4c .cfa: sp 36 +
STACK CFI 4d50 .cfa: r11 4 + .ra: .cfa -4 + ^ r10: .cfa -12 + ^ r11: .cfa -8 + ^ r4: .cfa -36 + ^ r5: .cfa -32 + ^ r6: .cfa -28 + ^ r7: .cfa -24 + ^ r8: .cfa -20 + ^ r9: .cfa -16 + ^
STACK CFI INIT 4f94 dc8 .cfa: sp 0 + .ra: lr
STACK CFI 4f98 .cfa: sp 36 +
STACK CFI 4f9c .ra: .cfa -4 + ^ r10: .cfa -12 + ^ r11: .cfa -8 + ^ r4: .cfa -36 + ^ r5: .cfa -32 + ^ r6: .cfa -28 + ^ r7: .cfa -24 + ^ r8: .cfa -20 + ^ r9: .cfa -16 + ^
STACK CFI 4fa4 .cfa: r11 4 +
STACK CFI INIT 5d5c 4c4 .cfa: sp 0 + .ra: lr
STACK CFI 5d60 .cfa: sp 36 +
STACK CFI 5d64 .ra: .cfa -4 + ^ r10: .cfa -12 + ^ r11: .cfa -8 + ^ r4: .cfa -36 + ^ r5: .cfa -32 + ^ r6: .cfa -28 + ^ r7: .cfa -24 + ^ r8: .cfa -20 + ^ r9: .cfa -16 + ^
STACK CFI 5d88 .cfa: r11 4 +
STACK CFI INIT 6220 678 .cfa: sp 0 + .ra: lr
STACK CFI 6224 .cfa: sp 36 +
STACK CFI 6228 .ra: .cfa -4 + ^ r10: .cfa -12 + ^ r11: .cfa -8 + ^ r4: .cfa -36 + ^ r5: .cfa -32 + ^ r6: .cfa -28 + ^ r7: .cfa -24 + ^ r8: .cfa -20 + ^ r9: .cfa -16 + ^
STACK CFI 6240 .cfa: r11 4 +
STACK CFI INIT 6898 358 .cfa: sp 0 + .ra: lr
STACK CFI 689c .cfa: sp 36 +
STACK CFI 68a0 .ra: .cfa -4 + ^ r10: .cfa -12 + ^ r11: .cfa -8 + ^ r4: .cfa -36 + ^ r5: .cfa -32 + ^ r6: .cfa -28 + ^ r7: .cfa -24 + ^ r8: .cfa -20 + ^ r9: .cfa -16 + ^
STACK CFI 68b8 .cfa: sp 120 +
STACK CFI INIT 6bf0 280 .cfa: sp 0 + .ra: lr
STACK CFI 6bf4 .cfa: sp 32 +
STACK CFI 6bf8 .ra: .cfa -4 + ^ r10: .cfa -8 + ^ r4: .cfa -32 + ^ r5: .cfa -28 + ^ r6: .cfa -24 + ^ r7: .cfa -20 + ^ r8: .cfa -16 + ^ r9: .cfa -12 + ^
STACK CFI 6c18 .cfa: sp 48 +
STACK CFI INIT 6e70 18c .cfa: sp 0 + .ra: lr
STACK CFI 6e74 .cfa: sp 36 +
STACK CFI 6e78 .ra: .cfa -4 + ^ r10: .cfa -12 + ^ r11: .cfa -8 + ^ r4: .cfa -36 + ^ r5: .cfa -32 + ^ r6: .cfa -28 + ^ r7: .cfa -24 + ^ r8: .cfa -20 + ^ r9: .cfa -16 + ^
STACK CFI 6ea8 .cfa: r11 4 +
STACK CFI INIT 6ffc 10 .cfa: sp 0 + .ra: lr
STACK CFI INIT 700c 10 .cfa: sp 0 + .ra: lr
STACK CFI INIT 701c 10 .cfa: sp 0 + .ra: lr
STACK CFI INIT 702c 14 .cfa: sp 0 + .ra: lr
STACK CFI INIT 7040 14 .cfa: sp 0 + .ra: lr
STACK CFI INIT 7054 4c .cfa: sp 0 + .ra: lr
STACK CFI 705c .cfa: sp 16 +
STACK CFI 7060 .ra: .cfa -4 + ^ r4: .cfa -16 + ^ r5: .cfa -12 + ^ r6: .cfa -8 + ^
STACK CFI INIT 70a0 118 .cfa: sp 0 + .ra: lr
STACK CFI 70a4 .cfa: sp 28 +
STACK CFI 70a8 .ra: .cfa -4 + ^ r10: .cfa -8 + ^ r4: .cfa -28 + ^ r5: .cfa -24 + ^ r6: .cfa -20 + ^ r7: .cfa -16 + ^ r8: .cfa -12 + ^
STACK CFI 70b8 .cfa: sp 40 +
STACK CFI INIT 71b8 218 .cfa: sp 0 + .ra: lr
STACK CFI 71bc .cfa: sp 28 +
STACK CFI 71c0 .ra: .cfa -4 + ^ r10: .cfa -8 + ^ r4: .cfa -28 + ^ r5: .cfa -24 + ^ r6: .cfa -20 + ^ r7: .cfa -16 + ^ r8: .cfa -12 + ^
STACK CFI 71c4 .cfa: sp 40 +
STACK CFI INIT 73d0 20c .cfa: sp 0 + .ra: lr
STACK CFI 73d4 .cfa: sp 24 +
STACK CFI 73d8 .ra: .cfa -4 + ^ r4: .cfa -24 + ^ r5: .cfa -20 + ^ r6: .cfa -16 + ^ r7: .cfa -12 + ^ r8: .cfa -8 + ^
STACK CFI 73dc .cfa: sp 32 +
STACK CFI INIT 75dc f0 .cfa: sp 0 + .ra: lr
STACK CFI 75e0 .cfa: sp 20 +
STACK CFI 75e4 .ra: .cfa -4 + ^ r4: .cfa -20 + ^ r5: .cfa -16 + ^ r6: .cfa -12 + ^ r7: .cfa -8 + ^
STACK CFI 75e8 .cfa: sp 32 +
STACK CFI INIT 76cc e8 .cfa: sp 0 + .ra: lr
STACK CFI 76d0 .cfa: sp 32 +
STACK CFI 76d4 .ra: .cfa -4 + ^ r10: .cfa -8 + ^ r3: .cfa -32 + ^ r4: .cfa -28 + ^ r5: .cfa -24 + ^ r6: .cfa -20 + ^ r7: .cfa -16 + ^ r8: .cfa -12 + ^
STACK CFI INIT 77b4 bc .cfa: sp 0 + .ra: lr
STACK CFI 77b8 .cfa: sp 16 +
STACK CFI 77bc .ra: .cfa -4 + ^ r3: .cfa -16 + ^ r4: .cfa -12 + ^ r5: .cfa -8 + ^
STACK CFI INIT 7870 48 .cfa: sp 0 + .ra: lr
STACK CFI 7874 .cfa: sp 16 +
STACK CFI 787c .cfa: sp 24 +
STACK CFI 7880 .ra: .cfa -20 + ^ r0: .cfa -16 + ^ r1: .cfa -12 + ^ r2: .cfa -8 + ^ r3: .cfa -24 + ^
STACK CFI INIT 78b8 17c .cfa: sp 0 + .ra: lr
STACK CFI 78bc .cfa: sp 16 +
STACK CFI 78c0 .ra: .cfa -4 + ^ r4: .cfa -16 + ^ r5: .cfa -12 + ^ r6: .cfa -8 + ^
STACK CFI 78c4 .cfa: sp 24 +
STACK CFI INIT 7a34 560 .cfa: sp 0 + .ra: lr
STACK CFI 7a38 .cfa: sp 16 +
STACK CFI 7a3c .cfa: sp 52 +
STACK CFI 7a40 .cfa: sp 112 +
STACK CFI 7a44 .ra: .cfa -20 + ^ r0: .cfa -16 + ^ r1: .cfa -12 + ^ r10: .cfa -28 + ^ r11: .cfa -24 + ^ r2: .cfa -8 + ^ r3: .cfa -4 + ^ r4: .cfa -52 + ^ r5: .cfa -48 + ^ r6: .cfa -44 + ^ r7: .cfa -40 + ^ r8: .cfa -36 + ^ r9: .cfa -32 + ^
STACK CFI INIT 7f94 8c .cfa: sp 0 + .ra: lr
STACK CFI 7fa0 .cfa: sp 16 +
STACK CFI 7fa4 .ra: .cfa -4 + ^ r3: .cfa -16 + ^ r4: .cfa -12 + ^ r5: .cfa -8 + ^
STACK CFI INIT 8020 13d8 .cfa: sp 0 + .ra: lr
STACK CFI 8024 .cfa: sp 36 +
STACK CFI 8028 .ra: .cfa -4 + ^ r10: .cfa -12 + ^ r11: .cfa -8 + ^ r4: .cfa -36 + ^ r5: .cfa -32 + ^ r6: .cfa -28 + ^ r7: .cfa -24 + ^ r8: .cfa -20 + ^ r9: .cfa -16 + ^
STACK CFI 804c .cfa: sp 136 +
STACK CFI INIT 93f8 260 .cfa: sp 0 + .ra: lr
STACK CFI 93fc .cfa: sp 16 +
STACK CFI 9400 .ra: .cfa -4 + ^ r4: .cfa -16 + ^ r5: .cfa -12 + ^ r6: .cfa -8 + ^
STACK CFI INIT 9658 190 .cfa: sp 0 + .ra: lr
STACK CFI 965c .cfa: sp 24 +
STACK CFI 9660 .ra: .cfa -4 + ^ r4: .cfa -24 + ^ r5: .cfa -20 + ^ r6: .cfa -16 + ^ r7: .cfa -12 + ^ r8: .cfa -8 + ^
STACK CFI 9664 .cfa: sp 32 +
STACK CFI INIT 97e8 190 .cfa: sp 0 + .ra: lr
STACK CFI 97ec .cfa: sp 24 +
STACK CFI 97f0 .ra: .cfa -4 + ^ r4: .cfa -24 + ^ r5: .cfa -20 + ^ r6: .cfa -16 + ^ r7: .cfa -12 + ^ r8: .cfa -8 + ^
STACK CFI 97f4 .cfa: sp 32 +
STACK CFI INIT 9978 130 .cfa: sp 0 + .ra: lr
STACK CFI 997c .cfa: sp 28 +
STACK CFI 9980 .ra: .cfa -4 + ^ r10: .cfa -8 + ^ r4: .cfa -28 + ^ r5: .cfa -24 + ^ r6: .cfa -20 + ^ r7: .cfa -16 + ^ r8: .cfa -12 + ^
STACK CFI 9984 .cfa: sp 48 +
STACK CFI INIT 9aa8 104 .cfa: sp 0 + .ra: lr
STACK CFI 9ab0 .cfa: sp 16 +
STACK CFI 9ab4 .ra: .cfa -4 + ^ r4: .cfa -16 + ^ r5: .cfa -12 + ^ r6: .cfa -8 + ^
STACK CFI 9ac8 .cfa: sp 24 +
STACK CFI INIT 9bac 290 .cfa: sp 0 + .ra: lr
STACK CFI 9bb8 .cfa: sp 32 +
STACK CFI 9bc0 .ra: .cfa -4 + ^ r10: .cfa -8 + ^ r4: .cfa -32 + ^ r5: .cfa -28 + ^ r6: .cfa -24 + ^ r7: .cfa -20 + ^ r8: .cfa -16 + ^ r9: .cfa -12 + ^
STACK CFI INIT 9e3c 1d0 .cfa: sp 0 + .ra: lr
STACK CFI 9e40 .cfa: sp 24 +
STACK CFI 9e44 .ra: .cfa -4 + ^ r4: .cfa -24 + ^ r5: .cfa -20 + ^ r6: .cfa -16 + ^ r7: .cfa -12 + ^ r8: .cfa -8 + ^
STACK CFI 9e48 .cfa: sp 32 +
STACK CFI INIT a00c 2b8 .cfa: sp 0 + .ra: lr
STACK CFI a010 .cfa: sp 28 +
STACK CFI a014 .ra: .cfa -4 + ^ r10: .cfa -8 + ^ r4: .cfa -28 + ^ r5: .cfa -24 + ^ r6: .cfa -20 + ^ r7: .cfa -16 + ^ r8: .cfa -12 + ^
STACK CFI a018 .cfa: sp 40 +
STACK CFI INIT a2c4 fc .cfa: sp 0 + .ra: lr
STACK CFI a2c8 .cfa: sp 36 +
STACK CFI a2cc .ra: .cfa -4 + ^ r10: .cfa -12 + ^ r11: .cfa -8 + ^ r4: .cfa -36 + ^ r5: .cfa -32 + ^ r6: .cfa -28 + ^ r7: .cfa -24 + ^ r8: .cfa -20 + ^ r9: .cfa -16 + ^
STACK CFI a2d0 .cfa: sp 40 +
STACK CFI INIT a3c0 14 .cfa: sp 0 + .ra: lr
STACK CFI INIT a3d4 14 .cfa: sp 0 + .ra: lr
STACK CFI INIT a3e8 8c8 .cfa: sp 0 + .ra: lr
STACK CFI a3ec .cfa: sp 28 +
STACK CFI a3f4 .ra: .cfa -4 + ^ r4: .cfa -28 + ^ r5: .cfa -24 + ^ r6: .cfa -20 + ^ r7: .cfa -16 + ^ r8: .cfa -12 + ^ r9: .cfa -8 + ^
STACK CFI a404 .cfa: sp 64 +
STACK CFI INIT acb0 df0 .cfa: sp 0 + .ra: lr
STACK CFI acb4 .cfa: sp 36 +
STACK CFI acb8 .ra: .cfa -4 + ^ r10: .cfa -12 + ^ r11: .cfa -8 + ^ r4: .cfa -36 + ^ r5: .cfa -32 + ^ r6: .cfa -28 + ^ r7: .cfa -24 + ^ r8: .cfa -20 + ^ r9: .cfa -16 + ^
STACK CFI acd8 .cfa: sp 104 +
STACK CFI INIT baa0 59c .cfa: sp 0 + .ra: lr
STACK CFI baa8 .cfa: sp 20 +
STACK CFI bab0 .ra: .cfa -4 + ^ r4: .cfa -20 + ^ r5: .cfa -16 + ^ r6: .cfa -12 + ^ r7: .cfa -8 + ^
STACK CFI bac4 .cfa: sp 56 +
STACK CFI INIT c03c 4c4 .cfa: sp 0 + .ra: lr
STACK CFI c040 .cfa: sp 36 +
STACK CFI c044 .ra: .cfa -4 + ^ r10: .cfa -12 + ^ r11: .cfa -8 + ^ r4: .cfa -36 + ^ r5: .cfa -32 + ^ r6: .cfa -28 + ^ r7: .cfa -24 + ^ r8: .cfa -20 + ^ r9: .cfa -16 + ^
STACK CFI c064 .cfa: sp 88 +
STACK CFI INIT c500 23c .cfa: sp 0 + .ra: lr
STACK CFI c510 .cfa: sp 36 +
STACK CFI c518 .cfa: sp 56 +
STACK CFI c51c .ra: .cfa -4 + ^ r10: .cfa -12 + ^ r11: .cfa -8 + ^ r4: .cfa -36 + ^ r5: .cfa -32 + ^ r6: .cfa -28 + ^ r7: .cfa -24 + ^ r8: .cfa -20 + ^ r9: .cfa -16 + ^
STACK CFI INIT c73c c8 .cfa: sp 0 + .ra: lr
STACK CFI c740 .cfa: sp 24 +
STACK CFI c744 .ra: .cfa -4 + ^ r3: .cfa -24 + ^ r4: .cfa -20 + ^ r5: .cfa -16 + ^ r6: .cfa -12 + ^ r7: .cfa -8 + ^
STACK CFI INIT c804 1bf4 .cfa: sp 0 + .ra: lr
STACK CFI c808 .cfa: sp 36 +
STACK CFI c80c .ra: .cfa -4 + ^ r10: .cfa -12 + ^ r11: .cfa -8 + ^ r4: .cfa -36 + ^ r5: .cfa -32 + ^ r6: .cfa -28 + ^ r7: .cfa -24 + ^ r8: .cfa -20 + ^ r9: .cfa -16 + ^
STACK CFI c82c .cfa: sp 88 +
STACK CFI INIT e3f8 1ec8 .cfa: sp 0 + .ra: lr
STACK CFI e3fc .cfa: sp 36 +
STACK CFI e400 .ra: .cfa -4 + ^ r10: .cfa -12 + ^ r11: .cfa -8 + ^ r4: .cfa -36 + ^ r5: .cfa -32 + ^ r6: .cfa -28 + ^ r7: .cfa -24 + ^ r8: .cfa -20 + ^ r9: .cfa -16 + ^
STACK CFI e420 .cfa: sp 88 +
STACK CFI INIT 102c0 2278 .cfa: sp 0 + .ra: lr
STACK CFI 102c4 .cfa: sp 36 +
STACK CFI 102c8 .ra: .cfa -4 + ^ r10: .cfa -12 + ^ r11: .cfa -8 + ^ r4: .cfa -36 + ^ r5: .cfa -32 + ^ r6: .cfa -28 + ^ r7: .cfa -24 + ^ r8: .cfa -20 + ^ r9: .cfa -16 + ^
STACK CFI 102e4 .cfa: sp 88 +
STACK CFI INIT 12538 2610 .cfa: sp 0 + .ra: lr
STACK CFI 1253c .cfa: sp 36 +
STACK CFI 12540 .ra: .cfa -4 + ^ r10: .cfa -12 + ^ r11: .cfa -8 + ^ r4: .cfa -36 + ^ r5: .cfa -32 + ^ r6: .cfa -28 + ^ r7: .cfa -24 + ^ r8: .cfa -20 + ^ r9: .cfa -16 + ^
STACK CFI 1255c .cfa: sp 88 +
STACK CFI INIT 154f0 3c .cfa: sp 0 + .ra: lr
STACK CFI 154f4 .cfa: sp 24 +
STACK CFI 154f8 .ra: .cfa -4 + ^ r4: .cfa -24 + ^ r5: .cfa -20 + ^ r6: .cfa -16 + ^ r8: .cfa -12 + ^ r9: .cfa -8 + ^
STACK CFI INIT 1552c 3c .cfa: sp 0 + .ra: lr
STACK CFI 15530 .cfa: sp 24 +
STACK CFI 15534 .ra: .cfa -4 + ^ r4: .cfa -24 + ^ r5: .cfa -20 + ^ r6: .cfa -16 + ^ r8: .cfa -12 + ^ r9: .cfa -8 + ^
STACK CFI INIT 15568 498 .cfa: sp 0 + .ra: lr
STACK CFI 15570 .cfa: sp 36 +
STACK CFI 15578 .cfa: sp 56 +
STACK CFI 1557c .ra: .cfa -4 + ^ r10: .cfa -12 + ^ r11: .cfa -8 + ^ r4: .cfa -36 + ^ r5: .cfa -32 + ^ r6: .cfa -28 + ^ r7: .cfa -24 + ^ r8: .cfa -20 + ^ r9: .cfa -16 + ^
STACK CFI INIT 15a00 420 .cfa: sp 0 + .ra: lr
STACK CFI 15a08 .cfa: sp 36 +
STACK CFI 15a0c .ra: .cfa -4 + ^ r10: .cfa -12 + ^ r11: .cfa -8 + ^ r4: .cfa -36 + ^ r5: .cfa -32 + ^ r6: .cfa -28 + ^ r7: .cfa -24 + ^ r8: .cfa -20 + ^ r9: .cfa -16 + ^
STACK CFI 15a10 .cfa: sp 48 +
STACK CFI INIT 15e20 1ec .cfa: sp 0 + .ra: lr
