MODULE Linux arm 36F282137EA13743E446A2D189BE61410 libgcc_s.so.1
FUNC d058 4 0 __gthread_setspecific
FUNC d05c 4a 0 emutls_alloc
FUNC d0a8 1c 0 __gthread_mutex_unlock
FUNC d0c4 1c 0 __gthread_mutex_lock
FUNC d0e0 28 0 __gthread_once
FUNC eb28 10 0 __muldi3
FUNC eb38 e 0 __negdi2
FUNC eb48 18 0 __cmpdi2
FUNC eb60 18 0 __ucmpdi2
FUNC eb78 12 0 __absvsi2
FUNC eb8c 1e 0 __absvdi2
FUNC ebac 26 0 __addvsi3
FUNC ebd4 36 0 __addvdi3
FUNC ec0c 26 0 __subvsi3
FUNC ec34 3a 0 __subvdi3
FUNC ec70 12 0 __mulvsi3
FUNC ec84 c8 0 __mulvdi3
FUNC ed4c 20 0 __negvsi2
FUNC ed6c 2c 0 __negvdi2
FUNC ed98 e 0 __ffssi2
FUNC eda8 16 0 __ffsdi2
FUNC edc0 14 0 __ctzdi2
FUNC edd4 30 0 __popcountsi2
FUNC ee04 44 0 __popcountdi2
FUNC ee48 1e 0 __paritysi2
FUNC ee68 1e 0 __paritydi2
FUNC ee88 54 0 __powisf2
FUNC eedc 76 0 __powidf2
FUNC ef54 46e 0 __mulsc3
FUNC f3c4 5d0 0 __muldc3
FUNC f994 3fe 0 __divsc3
FUNC fd94 4fe 0 __divdc3
FUNC 10294 4 0 __bswapsi2
FUNC 10298 8 0 __bswapdi2
FUNC 102a0 16 0 __clrsbsi2
FUNC 102b8 30 0 __clrsbdi2
FUNC 102e8 26 0 __fixsfdi
FUNC 10310 2e 0 __fixdfdi
FUNC 10340 48 0 __fixunssfdi
FUNC 10388 44 0 __fixunsdfdi
FUNC 103cc 352 0 __divdi3
FUNC 10720 2ea 0 __moddi3
FUNC 10a0c 300 0 __udivdi3
FUNC 10d0c 2ae 0 __umoddi3
FUNC 10fbc 4 0 __udiv_w_sdiv
FUNC 10fc0 3ae 0 __udivmoddi4
FUNC 11370 4 0 __gnu_addqq3
FUNC 11374 4 0 __gnu_addhq3
FUNC 11378 4 0 __gnu_addsq3
FUNC 1137c 8 0 __gnu_adddq3
FUNC 11384 4 0 __gnu_addha3
FUNC 11388 4 0 __gnu_addsa3
FUNC 1138c 8 0 __gnu_addda3
FUNC 11394 4 0 __gnu_adduqq3
FUNC 11398 4 0 __gnu_adduhq3
FUNC 1139c 4 0 __gnu_addusq3
FUNC 113a0 8 0 __gnu_addudq3
FUNC 113a8 4 0 __gnu_adduha3
FUNC 113ac 4 0 __gnu_addusa3
FUNC 113b0 8 0 __gnu_adduda3
FUNC 113b8 4 0 __gnu_subqq3
FUNC 113bc 4 0 __gnu_subhq3
FUNC 113c0 4 0 __gnu_subsq3
FUNC 113c4 8 0 __gnu_subdq3
FUNC 113cc 4 0 __gnu_subha3
FUNC 113d0 4 0 __gnu_subsa3
FUNC 113d4 8 0 __gnu_subda3
FUNC 113dc 4 0 __gnu_subuqq3
FUNC 113e0 4 0 __gnu_subuhq3
FUNC 113e4 4 0 __gnu_subusq3
FUNC 113e8 8 0 __gnu_subudq3
FUNC 113f0 4 0 __gnu_subuha3
FUNC 113f4 4 0 __gnu_subusa3
FUNC 113f8 8 0 __gnu_subuda3
FUNC 11400 4 0 __gnu_negqq2
FUNC 11404 4 0 __gnu_neghq2
FUNC 11408 4 0 __gnu_negsq2
FUNC 1140c 8 0 __gnu_negdq2
FUNC 11414 4 0 __gnu_negha2
FUNC 11418 4 0 __gnu_negsa2
FUNC 1141c 8 0 __gnu_negda2
FUNC 11424 4 0 __gnu_neguqq2
FUNC 11428 4 0 __gnu_neguhq2
FUNC 1142c 4 0 __gnu_negusq2
FUNC 11430 8 0 __gnu_negudq2
FUNC 11438 4 0 __gnu_neguha2
FUNC 1143c 4 0 __gnu_negusa2
FUNC 11440 8 0 __gnu_neguda2
FUNC 11448 6 0 __gnu_mulqq3
FUNC 11450 6 0 __gnu_mulhq3
FUNC 11458 6 0 __gnu_mulsq3
FUNC 11460 10 0 __gnu_muldq3
FUNC 11470 6 0 __gnu_mulha3
FUNC 11478 6 0 __gnu_mulsa3
FUNC 11480 10 0 __gnu_mulda3
FUNC 11490 6 0 __gnu_muluqq3
FUNC 11498 6 0 __gnu_muluhq3
FUNC 114a0 6 0 __gnu_mulusq3
FUNC 114a8 10 0 __gnu_muludq3
FUNC 114b8 6 0 __gnu_muluha3
FUNC 114c0 6 0 __gnu_mulusa3
FUNC 114c8 10 0 __gnu_muluda3
FUNC 114d8 2c 0 __gnu_mulhelperqq
FUNC 11504 20 0 __gnu_mulhelperhq
FUNC 11524 28 0 __gnu_mulhelpersq
FUNC 1154c 128 0 __gnu_mulhelperdq
FUNC 11674 1e 0 __gnu_mulhelperha
FUNC 11694 28 0 __gnu_mulhelpersa
FUNC 116bc 130 0 __gnu_mulhelperda
FUNC 117ec 2a 0 __gnu_mulhelperuqq
FUNC 11818 24 0 __gnu_mulhelperuhq
FUNC 1183c 24 0 __gnu_mulhelperusq
FUNC 11860 da 0 __gnu_mulhelperudq
FUNC 1193c 22 0 __gnu_mulhelperuha
FUNC 11960 28 0 __gnu_mulhelperusa
FUNC 11988 f2 0 __gnu_mulhelperuda
FUNC 11a7c 28 0 __gnu_divhelperqq
FUNC 11aa4 20 0 __gnu_divhelperhq
FUNC 11ac4 2e 0 __gnu_divhelpersq
FUNC 11af4 11a 0 __gnu_divhelperdq
FUNC 11c10 20 0 __gnu_divhelperha
FUNC 11c30 2e 0 __gnu_divhelpersa
FUNC 11c60 11a 0 __gnu_divhelperda
FUNC 11d7c 28 0 __gnu_divhelperuqq
FUNC 11da4 1e 0 __gnu_divhelperuhq
FUNC 11dc4 28 0 __gnu_divhelperusq
FUNC 11dec 7c 0 __gnu_divhelperudq
FUNC 11e68 20 0 __gnu_divhelperuha
FUNC 11e88 26 0 __gnu_divhelperusa
FUNC 11eb0 a0 0 __gnu_divhelperuda
FUNC 11f50 6 0 __gnu_ashlqq3
FUNC 11f58 6 0 __gnu_ashlhq3
FUNC 11f60 6 0 __gnu_ashlsq3
FUNC 11f68 6 0 __gnu_ashldq3
FUNC 11f70 6 0 __gnu_ashlha3
FUNC 11f78 6 0 __gnu_ashlsa3
FUNC 11f80 6 0 __gnu_ashlda3
FUNC 11f88 6 0 __gnu_ashluqq3
FUNC 11f90 6 0 __gnu_ashluhq3
FUNC 11f98 6 0 __gnu_ashlusq3
FUNC 11fa0 6 0 __gnu_ashludq3
FUNC 11fa8 6 0 __gnu_ashluha3
FUNC 11fb0 6 0 __gnu_ashlusa3
FUNC 11fb8 6 0 __gnu_ashluda3
FUNC 11fc0 30 0 __gnu_ashlhelperqq
FUNC 11ff0 26 0 __gnu_ashlhelperhq
FUNC 12018 40 0 __gnu_ashlhelpersq
FUNC 12058 84 0 __gnu_ashlhelperdq
FUNC 120dc 26 0 __gnu_ashlhelperha
FUNC 12104 40 0 __gnu_ashlhelpersa
FUNC 12144 84 0 __gnu_ashlhelperda
FUNC 121c8 2c 0 __gnu_ashlhelperuqq
FUNC 121f4 26 0 __gnu_ashlhelperuhq
FUNC 1221c 3c 0 __gnu_ashlhelperusq
FUNC 12258 7a 0 __gnu_ashlhelperudq
FUNC 122d4 26 0 __gnu_ashlhelperuha
FUNC 122fc 3c 0 __gnu_ashlhelperusa
FUNC 12338 7a 0 __gnu_ashlhelperuda
FUNC 123b4 16 0 __gnu_cmpqq2
FUNC 123cc 16 0 __gnu_cmphq2
FUNC 123e4 12 0 __gnu_cmpsq2
FUNC 123f8 20 0 __gnu_cmpdq2
FUNC 12418 16 0 __gnu_cmpha2
FUNC 12430 12 0 __gnu_cmpsa2
FUNC 12444 20 0 __gnu_cmpda2
FUNC 12464 16 0 __gnu_cmpuqq2
FUNC 1247c 16 0 __gnu_cmpuhq2
FUNC 12494 12 0 __gnu_cmpusq2
FUNC 124a8 1a 0 __gnu_cmpudq2
FUNC 124c4 16 0 __gnu_cmpuha2
FUNC 124dc 12 0 __gnu_cmpusa2
FUNC 124f0 1a 0 __gnu_cmpuda2
FUNC 1250c 1a 0 __gnu_saturate1qq
FUNC 12528 22 0 __gnu_saturate1hq
FUNC 1254c 36 0 __gnu_saturate1sq
FUNC 12584 22 0 __gnu_saturate1ha
FUNC 125a8 36 0 __gnu_saturate1sa
FUNC 125e0 c 0 __gnu_saturate1uqq
FUNC 125ec 10 0 __gnu_saturate1uhq
FUNC 125fc 18 0 __gnu_saturate1usq
FUNC 12614 10 0 __gnu_saturate1uha
FUNC 12624 18 0 __gnu_saturate1usa
FUNC 1263c 70 0 __gnu_saturate2dq
FUNC 126ac 70 0 __gnu_saturate2da
FUNC 1271c 24 0 __gnu_saturate2udq
FUNC 12740 24 0 __gnu_saturate2uda
FUNC 12764 26 0 __gnu_ssaddqq3
FUNC 1278c 28 0 __gnu_ssaddhq3
FUNC 127b4 22 0 __gnu_ssaddsq3
FUNC 127d8 4a 0 __gnu_ssadddq3
FUNC 12824 28 0 __gnu_ssaddha3
FUNC 1284c 22 0 __gnu_ssaddsa3
FUNC 12870 4a 0 __gnu_ssaddda3
FUNC 128bc 26 0 __gnu_sssubqq3
FUNC 128e4 28 0 __gnu_sssubhq3
FUNC 1290c 22 0 __gnu_sssubsq3
FUNC 12930 4e 0 __gnu_sssubdq3
FUNC 12980 28 0 __gnu_sssubha3
FUNC 129a8 22 0 __gnu_sssubsa3
FUNC 129cc 4e 0 __gnu_sssubda3
FUNC 12a1c 18 0 __gnu_ssnegqq2
FUNC 12a34 18 0 __gnu_ssneghq2
FUNC 12a4c 18 0 __gnu_ssnegsq2
FUNC 12a64 30 0 __gnu_ssnegdq2
FUNC 12a94 18 0 __gnu_ssnegha2
FUNC 12aac 18 0 __gnu_ssnegsa2
FUNC 12ac4 30 0 __gnu_ssnegda2
FUNC 12af4 6 0 __gnu_ssmulqq3
FUNC 12afc 6 0 __gnu_ssmulhq3
FUNC 12b04 6 0 __gnu_ssmulsq3
FUNC 12b0c 10 0 __gnu_ssmuldq3
FUNC 12b1c 6 0 __gnu_ssmulha3
FUNC 12b24 6 0 __gnu_ssmulsa3
FUNC 12b2c 10 0 __gnu_ssmulda3
FUNC 12b3c 6 0 __gnu_ssdivqq3
FUNC 12b44 6 0 __gnu_ssdivhq3
FUNC 12b4c 6 0 __gnu_ssdivsq3
FUNC 12b54 10 0 __gnu_ssdivdq3
FUNC 12b64 6 0 __gnu_ssdivha3
FUNC 12b6c 6 0 __gnu_ssdivsa3
FUNC 12b74 10 0 __gnu_ssdivda3
FUNC 12b84 6 0 __gnu_divqq3
FUNC 12b8c 6 0 __gnu_divhq3
FUNC 12b94 6 0 __gnu_divsq3
FUNC 12b9c 10 0 __gnu_divdq3
FUNC 12bac 6 0 __gnu_divha3
FUNC 12bb4 6 0 __gnu_divsa3
FUNC 12bbc 10 0 __gnu_divda3
FUNC 12bcc 6 0 __gnu_ssashlqq3
FUNC 12bd4 6 0 __gnu_ssashlhq3
FUNC 12bdc 6 0 __gnu_ssashlsq3
FUNC 12be4 6 0 __gnu_ssashldq3
FUNC 12bec 6 0 __gnu_ssashlha3
FUNC 12bf4 6 0 __gnu_ssashlsa3
FUNC 12bfc 6 0 __gnu_ssashlda3
FUNC 12c04 6 0 __gnu_ashrqq3
FUNC 12c0c 6 0 __gnu_ashrhq3
FUNC 12c14 4 0 __gnu_ashrsq3
FUNC 12c18 2c 0 __gnu_ashrdq3
FUNC 12c44 6 0 __gnu_ashrha3
FUNC 12c4c 4 0 __gnu_ashrsa3
FUNC 12c50 2c 0 __gnu_ashrda3
FUNC 12c7c 1a 0 __gnu_usadduqq3
FUNC 12c98 1a 0 __gnu_usadduhq3
FUNC 12cb4 14 0 __gnu_usaddusq3
FUNC 12cc8 2a 0 __gnu_usaddudq3
FUNC 12cf4 1a 0 __gnu_usadduha3
FUNC 12d10 14 0 __gnu_usaddusa3
FUNC 12d24 2a 0 __gnu_usadduda3
FUNC 12d50 10 0 __gnu_ussubuqq3
FUNC 12d60 10 0 __gnu_ussubuhq3
FUNC 12d70 c 0 __gnu_ussubusq3
FUNC 12d7c 16 0 __gnu_ussubudq3
FUNC 12d94 10 0 __gnu_ussubuha3
FUNC 12da4 c 0 __gnu_ussubusa3
FUNC 12db0 16 0 __gnu_ussubuda3
FUNC 12dc8 6 0 __gnu_usneguqq2
FUNC 12dd0 6 0 __gnu_usneguhq2
FUNC 12dd8 4 0 __gnu_usnegusq2
FUNC 12ddc 6 0 __gnu_usnegudq2
FUNC 12de4 6 0 __gnu_usneguha2
FUNC 12dec 4 0 __gnu_usnegusa2
FUNC 12df0 6 0 __gnu_usneguda2
FUNC 12df8 6 0 __gnu_usmuluqq3
FUNC 12e00 6 0 __gnu_usmuluhq3
FUNC 12e08 6 0 __gnu_usmulusq3
FUNC 12e10 10 0 __gnu_usmuludq3
FUNC 12e20 6 0 __gnu_usmuluha3
FUNC 12e28 6 0 __gnu_usmulusa3
FUNC 12e30 10 0 __gnu_usmuluda3
FUNC 12e40 6 0 __gnu_usdivuqq3
FUNC 12e48 6 0 __gnu_usdivuhq3
FUNC 12e50 6 0 __gnu_usdivusq3
FUNC 12e58 10 0 __gnu_usdivudq3
FUNC 12e68 6 0 __gnu_usdivuha3
FUNC 12e70 6 0 __gnu_usdivusa3
FUNC 12e78 10 0 __gnu_usdivuda3
FUNC 12e88 6 0 __gnu_udivuqq3
FUNC 12e90 6 0 __gnu_udivuhq3
FUNC 12e98 6 0 __gnu_udivusq3
FUNC 12ea0 10 0 __gnu_udivudq3
FUNC 12eb0 6 0 __gnu_udivuha3
FUNC 12eb8 6 0 __gnu_udivusa3
FUNC 12ec0 10 0 __gnu_udivuda3
FUNC 12ed0 6 0 __gnu_usashluqq3
FUNC 12ed8 6 0 __gnu_usashluhq3
FUNC 12ee0 6 0 __gnu_usashlusq3
FUNC 12ee8 6 0 __gnu_usashludq3
FUNC 12ef0 6 0 __gnu_usashluha3
FUNC 12ef8 6 0 __gnu_usashlusa3
FUNC 12f00 6 0 __gnu_usashluda3
FUNC 12f08 6 0 __gnu_lshruqq3
FUNC 12f10 6 0 __gnu_lshruhq3
FUNC 12f18 4 0 __gnu_lshrusq3
FUNC 12f1c 26 0 __gnu_lshrudq3
FUNC 12f44 6 0 __gnu_lshruha3
FUNC 12f4c 4 0 __gnu_lshrusa3
FUNC 12f50 26 0 __gnu_lshruda3
FUNC 12f78 6 0 __gnu_fractqqhq2
FUNC 12f80 4 0 __gnu_fractqqsq2
FUNC 12f84 a 0 __gnu_fractqqdq2
FUNC 12f90 4 0 __gnu_fractqqha
FUNC 12f94 6 0 __gnu_fractqqsa
FUNC 12f9c e 0 __gnu_fractqqda
FUNC 12fac 6 0 __gnu_fractqquqq
FUNC 12fb4 8 0 __gnu_fractqquhq
FUNC 12fbc 4 0 __gnu_fractqqusq
FUNC 12fc0 a 0 __gnu_fractqqudq
FUNC 12fcc 8 0 __gnu_fractqquha
FUNC 12fd4 6 0 __gnu_fractqqusa
FUNC 12fdc e 0 __gnu_fractqquda
FUNC 12fec 1c 0 __gnu_fractqqqi
FUNC 13008 1c 0 __gnu_fractqqhi
FUNC 13024 1c 0 __gnu_fractqqsi
FUNC 13040 20 0 __gnu_fractqqdi
FUNC 13060 12 0 __gnu_fractqqsf
FUNC 13074 14 0 __gnu_fractqqdf
FUNC 13088 4 0 __gnu_fracthqqq2
FUNC 1308c 4 0 __gnu_fracthqsq2
FUNC 13090 a 0 __gnu_fracthqdq2
FUNC 1309c 6 0 __gnu_fracthqha
FUNC 130a4 4 0 __gnu_fracthqsa
FUNC 130a8 e 0 __gnu_fracthqda
FUNC 130b8 4 0 __gnu_fracthquqq
FUNC 130bc 6 0 __gnu_fracthquhq
FUNC 130c4 4 0 __gnu_fracthqusq
FUNC 130c8 a 0 __gnu_fracthqudq
FUNC 130d4 6 0 __gnu_fracthquha
FUNC 130dc 6 0 __gnu_fracthqusa
FUNC 130e4 e 0 __gnu_fracthquda
FUNC 130f4 1a 0 __gnu_fracthqqi
FUNC 13110 1a 0 __gnu_fracthqhi
FUNC 1312c 1a 0 __gnu_fracthqsi
FUNC 13148 1e 0 __gnu_fracthqdi
FUNC 13168 12 0 __gnu_fracthqsf
FUNC 1317c 14 0 __gnu_fracthqdf
FUNC 13190 4 0 __gnu_fractsqqq2
FUNC 13194 4 0 __gnu_fractsqhq2
FUNC 13198 a 0 __gnu_fractsqdq2
FUNC 131a4 4 0 __gnu_fractsqha
FUNC 131a8 4 0 __gnu_fractsqsa
FUNC 131ac 4 0 __gnu_fractsqda
FUNC 131b0 4 0 __gnu_fractsquqq
FUNC 131b4 4 0 __gnu_fractsquhq
FUNC 131b8 4 0 __gnu_fractsqusq
FUNC 131bc a 0 __gnu_fractsqudq
FUNC 131c8 4 0 __gnu_fractsquha
FUNC 131cc 4 0 __gnu_fractsqusa
FUNC 131d0 a 0 __gnu_fractsquda
FUNC 131dc 16 0 __gnu_fractsqqi
FUNC 131f4 16 0 __gnu_fractsqhi
FUNC 1320c 16 0 __gnu_fractsqsi
FUNC 13224 18 0 __gnu_fractsqdi
FUNC 1323c 10 0 __gnu_fractsqsf
FUNC 1324c 12 0 __gnu_fractsqdf
FUNC 13260 4 0 __gnu_fractdqqq2
FUNC 13264 4 0 __gnu_fractdqhq2
FUNC 13268 4 0 __gnu_fractdqsq2
FUNC 1326c 4 0 __gnu_fractdqha
FUNC 13270 4 0 __gnu_fractdqsa
FUNC 13274 8 0 __gnu_fractdqda
FUNC 1327c 4 0 __gnu_fractdquqq
FUNC 13280 4 0 __gnu_fractdquhq
FUNC 13284 8 0 __gnu_fractdqusq
FUNC 1328c 8 0 __gnu_fractdqudq
FUNC 13294 4 0 __gnu_fractdquha
FUNC 13298 4 0 __gnu_fractdqusa
FUNC 1329c e 0 __gnu_fractdquda
FUNC 132ac 28 0 __gnu_fractdqqi
FUNC 132d4 28 0 __gnu_fractdqhi
FUNC 132fc 28 0 __gnu_fractdqsi
FUNC 13324 30 0 __gnu_fractdqdi
FUNC 13354 10 0 __gnu_fractdqsf
FUNC 13364 12 0 __gnu_fractdqdf
FUNC 13378 2 0 __gnu_fracthaqq
FUNC 1337c 6 0 __gnu_fracthahq
FUNC 13384 4 0 __gnu_fracthasq
FUNC 13388 a 0 __gnu_fracthadq
FUNC 13394 6 0 __gnu_fracthasa2
FUNC 1339c e 0 __gnu_fracthada2
FUNC 133ac 6 0 __gnu_fracthauqq
FUNC 133b4 6 0 __gnu_fracthauhq
FUNC 133bc 4 0 __gnu_fracthausq
FUNC 133c0 a 0 __gnu_fracthaudq
FUNC 133cc 6 0 __gnu_fracthauha
FUNC 133d4 6 0 __gnu_fracthausa
FUNC 133dc e 0 __gnu_fracthauda
FUNC 133ec 1e 0 __gnu_fracthaqi
FUNC 1340c 1c 0 __gnu_fracthahi
FUNC 13428 1c 0 __gnu_fracthasi
FUNC 13444 20 0 __gnu_fracthadi
FUNC 13464 12 0 __gnu_fracthasf
FUNC 13478 14 0 __gnu_fracthadf
FUNC 1348c 4 0 __gnu_fractsaqq
FUNC 13490 2 0 __gnu_fractsahq
FUNC 13494 4 0 __gnu_fractsasq
FUNC 13498 a 0 __gnu_fractsadq
FUNC 134a4 4 0 __gnu_fractsaha2
FUNC 134a8 14 0 __gnu_fractsada2
FUNC 134bc 4 0 __gnu_fractsauqq
FUNC 134c0 6 0 __gnu_fractsauhq
FUNC 134c8 4 0 __gnu_fractsausq
FUNC 134cc a 0 __gnu_fractsaudq
FUNC 134d8 4 0 __gnu_fractsauha
FUNC 134dc 4 0 __gnu_fractsausa
FUNC 134e0 14 0 __gnu_fractsauda
FUNC 134f4 18 0 __gnu_fractsaqi
FUNC 1350c 18 0 __gnu_fractsahi
FUNC 13524 16 0 __gnu_fractsasi
FUNC 1353c 18 0 __gnu_fractsadi
FUNC 13554 10 0 __gnu_fractsasf
FUNC 13564 12 0 __gnu_fractsadf
FUNC 13578 4 0 __gnu_fractdaqq
FUNC 1357c 4 0 __gnu_fractdahq
FUNC 13580 2 0 __gnu_fractdasq
FUNC 13584 a 0 __gnu_fractdadq
FUNC 13590 8 0 __gnu_fractdaha2
FUNC 13598 8 0 __gnu_fractdasa2
FUNC 135a0 4 0 __gnu_fractdauqq
FUNC 135a4 4 0 __gnu_fractdauhq
FUNC 135a8 4 0 __gnu_fractdausq
FUNC 135ac a 0 __gnu_fractdaudq
FUNC 135b8 8 0 __gnu_fractdauha
FUNC 135c0 8 0 __gnu_fractdausa
FUNC 135c8 8 0 __gnu_fractdauda
FUNC 135d0 24 0 __gnu_fractdaqi
FUNC 135f4 24 0 __gnu_fractdahi
FUNC 13618 1e 0 __gnu_fractdasi
FUNC 13638 2e 0 __gnu_fractdadi
FUNC 13668 10 0 __gnu_fractdasf
FUNC 13678 12 0 __gnu_fractdadf
FUNC 1368c 6 0 __gnu_fractuqqqq
FUNC 13694 6 0 __gnu_fractuqqhq
FUNC 1369c 6 0 __gnu_fractuqqsq
FUNC 136a4 c 0 __gnu_fractuqqdq
FUNC 136b0 6 0 __gnu_fractuqqha
FUNC 136b8 6 0 __gnu_fractuqqsa
FUNC 136c0 8 0 __gnu_fractuqqda
FUNC 136c8 6 0 __gnu_fractuqquhq2
FUNC 136d0 4 0 __gnu_fractuqqusq2
FUNC 136d4 a 0 __gnu_fractuqqudq2
FUNC 136e0 4 0 __gnu_fractuqquha
FUNC 136e4 6 0 __gnu_fractuqqusa
FUNC 136ec a 0 __gnu_fractuqquda
FUNC 136f8 4 0 __gnu_fractuqqqi
FUNC 136fc 4 0 __gnu_fractuqqhi
FUNC 13700 4 0 __gnu_fractuqqsi
FUNC 13704 6 0 __gnu_fractuqqdi
FUNC 1370c 12 0 __gnu_fractuqqsf
FUNC 13720 16 0 __gnu_fractuqqdf
FUNC 13738 6 0 __gnu_fractuhqqq
FUNC 13740 6 0 __gnu_fractuhqhq
FUNC 13748 6 0 __gnu_fractuhqsq
FUNC 13750 c 0 __gnu_fractuhqdq
FUNC 1375c 6 0 __gnu_fractuhqha
FUNC 13764 6 0 __gnu_fractuhqsa
FUNC 1376c 8 0 __gnu_fractuhqda
FUNC 13774 4 0 __gnu_fractuhquqq2
FUNC 13778 4 0 __gnu_fractuhqusq2
FUNC 1377c a 0 __gnu_fractuhqudq2
FUNC 13788 6 0 __gnu_fractuhquha
FUNC 13790 4 0 __gnu_fractuhqusa
FUNC 13794 a 0 __gnu_fractuhquda
FUNC 137a0 4 0 __gnu_fractuhqqi
FUNC 137a4 4 0 __gnu_fractuhqhi
FUNC 137a8 4 0 __gnu_fractuhqsi
FUNC 137ac 6 0 __gnu_fractuhqdi
FUNC 137b4 12 0 __gnu_fractuhqsf
FUNC 137c8 16 0 __gnu_fractuhqdf
FUNC 137e0 4 0 __gnu_fractusqqq
FUNC 137e4 4 0 __gnu_fractusqhq
FUNC 137e8 4 0 __gnu_fractusqsq
FUNC 137ec a 0 __gnu_fractusqdq
FUNC 137f8 4 0 __gnu_fractusqha
FUNC 137fc 4 0 __gnu_fractusqsa
FUNC 13800 a 0 __gnu_fractusqda
FUNC 1380c 4 0 __gnu_fractusquqq2
FUNC 13810 4 0 __gnu_fractusquhq2
FUNC 13814 a 0 __gnu_fractusqudq2
FUNC 13820 4 0 __gnu_fractusquha
FUNC 13824 4 0 __gnu_fractusqusa
FUNC 13828 6 0 __gnu_fractusquda
FUNC 13830 4 0 __gnu_fractusqqi
FUNC 13834 4 0 __gnu_fractusqhi
FUNC 13838 4 0 __gnu_fractusqsi
FUNC 1383c 6 0 __gnu_fractusqdi
FUNC 13844 10 0 __gnu_fractusqsf
FUNC 13854 14 0 __gnu_fractusqdf
FUNC 13868 4 0 __gnu_fractudqqq
FUNC 1386c 4 0 __gnu_fractudqhq
FUNC 13870 4 0 __gnu_fractudqsq
FUNC 13874 8 0 __gnu_fractudqdq
FUNC 1387c 4 0 __gnu_fractudqha
FUNC 13880 4 0 __gnu_fractudqsa
FUNC 13884 a 0 __gnu_fractudqda
FUNC 13890 4 0 __gnu_fractudquqq2
FUNC 13894 4 0 __gnu_fractudquhq2
FUNC 13898 4 0 __gnu_fractudqusq2
FUNC 1389c 4 0 __gnu_fractudquha
FUNC 138a0 4 0 __gnu_fractudqusa
FUNC 138a4 8 0 __gnu_fractudquda
FUNC 138ac 4 0 __gnu_fractudqqi
FUNC 138b0 4 0 __gnu_fractudqhi
FUNC 138b4 4 0 __gnu_fractudqsi
FUNC 138b8 6 0 __gnu_fractudqdi
FUNC 138c0 10 0 __gnu_fractudqsf
FUNC 138d0 14 0 __gnu_fractudqdf
FUNC 138e4 4 0 __gnu_fractuhaqq
FUNC 138e8 6 0 __gnu_fractuhahq
FUNC 138f0 4 0 __gnu_fractuhasq
FUNC 138f4 a 0 __gnu_fractuhadq
FUNC 13900 6 0 __gnu_fractuhaha
FUNC 13908 6 0 __gnu_fractuhasa
FUNC 13910 8 0 __gnu_fractuhada
FUNC 13918 2 0 __gnu_fractuhauqq
FUNC 1391c 6 0 __gnu_fractuhauhq
FUNC 13924 4 0 __gnu_fractuhausq
FUNC 13928 a 0 __gnu_fractuhaudq
FUNC 13934 6 0 __gnu_fractuhausa2
FUNC 1393c 8 0 __gnu_fractuhauda2
FUNC 13944 6 0 __gnu_fractuhaqi
FUNC 1394c 6 0 __gnu_fractuhahi
FUNC 13954 6 0 __gnu_fractuhasi
FUNC 1395c a 0 __gnu_fractuhadi
FUNC 13968 12 0 __gnu_fractuhasf
FUNC 1397c 16 0 __gnu_fractuhadf
FUNC 13994 4 0 __gnu_fractusaqq
FUNC 13998 4 0 __gnu_fractusahq
FUNC 1399c 4 0 __gnu_fractusasq
FUNC 139a0 a 0 __gnu_fractusadq
FUNC 139ac 4 0 __gnu_fractusaha
FUNC 139b0 4 0 __gnu_fractusasa
FUNC 139b4 a 0 __gnu_fractusada
FUNC 139c0 4 0 __gnu_fractusauqq
FUNC 139c4 2 0 __gnu_fractusauhq
FUNC 139c8 4 0 __gnu_fractusausq
FUNC 139cc a 0 __gnu_fractusaudq
FUNC 139d8 4 0 __gnu_fractusauha2
FUNC 139dc a 0 __gnu_fractusauda2
FUNC 139e8 6 0 __gnu_fractusaqi
FUNC 139f0 4 0 __gnu_fractusahi
FUNC 139f4 4 0 __gnu_fractusasi
FUNC 139f8 6 0 __gnu_fractusadi
FUNC 13a00 10 0 __gnu_fractusasf
FUNC 13a10 14 0 __gnu_fractusadf
FUNC 13a24 8 0 __gnu_fractudaqq
FUNC 13a2c 8 0 __gnu_fractudahq
FUNC 13a34 8 0 __gnu_fractudasq
FUNC 13a3c e 0 __gnu_fractudadq
FUNC 13a4c 8 0 __gnu_fractudaha
FUNC 13a54 8 0 __gnu_fractudasa
FUNC 13a5c 8 0 __gnu_fractudada
FUNC 13a64 4 0 __gnu_fractudauqq
FUNC 13a68 4 0 __gnu_fractudauhq
FUNC 13a6c 2 0 __gnu_fractudausq
FUNC 13a70 a 0 __gnu_fractudaudq
FUNC 13a7c 8 0 __gnu_fractudauha2
FUNC 13a84 8 0 __gnu_fractudausa2
FUNC 13a8c 4 0 __gnu_fractudaqi
FUNC 13a90 4 0 __gnu_fractudahi
FUNC 13a94 4 0 __gnu_fractudasi
FUNC 13a98 6 0 __gnu_fractudadi
FUNC 13aa0 10 0 __gnu_fractudasf
FUNC 13ab0 14 0 __gnu_fractudadf
FUNC 13ac4 4 0 __gnu_fractqiqq
FUNC 13ac8 4 0 __gnu_fractqihq
FUNC 13acc 4 0 __gnu_fractqisq
FUNC 13ad0 a 0 __gnu_fractqidq
FUNC 13adc 4 0 __gnu_fractqiha
FUNC 13ae0 4 0 __gnu_fractqisa
FUNC 13ae4 e 0 __gnu_fractqida
FUNC 13af4 6 0 __gnu_fractqiuqq
FUNC 13afc 6 0 __gnu_fractqiuhq
FUNC 13b04 4 0 __gnu_fractqiusq
FUNC 13b08 6 0 __gnu_fractqiudq
FUNC 13b10 4 0 __gnu_fractqiuha
FUNC 13b14 4 0 __gnu_fractqiusa
FUNC 13b18 a 0 __gnu_fractqiuda
FUNC 13b24 6 0 __gnu_fracthiqq
FUNC 13b2c 4 0 __gnu_fracthihq
FUNC 13b30 4 0 __gnu_fracthisq
FUNC 13b34 a 0 __gnu_fracthidq
FUNC 13b40 4 0 __gnu_fracthiha
FUNC 13b44 4 0 __gnu_fracthisa
FUNC 13b48 e 0 __gnu_fracthida
FUNC 13b58 6 0 __gnu_fracthiuqq
FUNC 13b60 6 0 __gnu_fracthiuhq
FUNC 13b68 4 0 __gnu_fracthiusq
FUNC 13b6c 6 0 __gnu_fracthiudq
FUNC 13b74 4 0 __gnu_fracthiuha
FUNC 13b78 4 0 __gnu_fracthiusa
FUNC 13b7c a 0 __gnu_fracthiuda
FUNC 13b88 6 0 __gnu_fractsiqq
FUNC 13b90 6 0 __gnu_fractsihq
FUNC 13b98 4 0 __gnu_fractsisq
FUNC 13b9c a 0 __gnu_fractsidq
FUNC 13ba8 6 0 __gnu_fractsiha
FUNC 13bb0 4 0 __gnu_fractsisa
FUNC 13bb4 14 0 __gnu_fractsida
FUNC 13bc8 6 0 __gnu_fractsiuqq
FUNC 13bd0 6 0 __gnu_fractsiuhq
FUNC 13bd8 4 0 __gnu_fractsiusq
FUNC 13bdc 6 0 __gnu_fractsiudq
FUNC 13be4 4 0 __gnu_fractsiuha
FUNC 13be8 4 0 __gnu_fractsiusa
FUNC 13bec a 0 __gnu_fractsiuda
FUNC 13bf8 6 0 __gnu_fractdiqq
FUNC 13c00 6 0 __gnu_fractdihq
FUNC 13c08 4 0 __gnu_fractdisq
FUNC 13c0c a 0 __gnu_fractdidq
FUNC 13c18 6 0 __gnu_fractdiha
FUNC 13c20 4 0 __gnu_fractdisa
FUNC 13c24 e 0 __gnu_fractdida
FUNC 13c34 6 0 __gnu_fractdiuqq
FUNC 13c3c 6 0 __gnu_fractdiuhq
FUNC 13c44 4 0 __gnu_fractdiusq
FUNC 13c48 6 0 __gnu_fractdiudq
FUNC 13c50 4 0 __gnu_fractdiuha
FUNC 13c54 4 0 __gnu_fractdiusa
FUNC 13c58 a 0 __gnu_fractdiuda
FUNC 13c64 10 0 __gnu_fractsfqq
FUNC 13c74 10 0 __gnu_fractsfhq
FUNC 13c84 10 0 __gnu_fractsfsq
FUNC 13c94 10 0 __gnu_fractsfdq
FUNC 13ca4 10 0 __gnu_fractsfha
FUNC 13cb4 10 0 __gnu_fractsfsa
FUNC 13cc4 10 0 __gnu_fractsfda
FUNC 13cd4 10 0 __gnu_fractsfuqq
FUNC 13ce4 10 0 __gnu_fractsfuhq
FUNC 13cf4 10 0 __gnu_fractsfusq
FUNC 13d04 10 0 __gnu_fractsfudq
FUNC 13d14 10 0 __gnu_fractsfuha
FUNC 13d24 10 0 __gnu_fractsfusa
FUNC 13d34 10 0 __gnu_fractsfuda
FUNC 13d44 14 0 __gnu_fractdfqq
FUNC 13d58 14 0 __gnu_fractdfhq
FUNC 13d6c 14 0 __gnu_fractdfsq
FUNC 13d80 14 0 __gnu_fractdfdq
FUNC 13d94 14 0 __gnu_fractdfha
FUNC 13da8 14 0 __gnu_fractdfsa
FUNC 13dbc 14 0 __gnu_fractdfda
FUNC 13dd0 14 0 __gnu_fractdfuqq
FUNC 13de4 14 0 __gnu_fractdfuhq
FUNC 13df8 14 0 __gnu_fractdfusq
FUNC 13e0c 14 0 __gnu_fractdfudq
FUNC 13e20 14 0 __gnu_fractdfuha
FUNC 13e34 14 0 __gnu_fractdfusa
FUNC 13e48 14 0 __gnu_fractdfuda
FUNC 13e5c 64 0 __gnu_satfractqqhq2
FUNC 13ec0 52 0 __gnu_satfractqqsq2
FUNC 13f14 a6 0 __gnu_satfractqqdq2
FUNC 13fbc 4 0 __gnu_satfractqqha
FUNC 13fc0 52 0 __gnu_satfractqqsa
FUNC 14014 b0 0 __gnu_satfractqqda
FUNC 140c4 c 0 __gnu_satfractqquqq
FUNC 140d0 c 0 __gnu_satfractqquhq
FUNC 140dc c 0 __gnu_satfractqqusq
FUNC 140e8 12 0 __gnu_satfractqqudq
FUNC 140fc c 0 __gnu_satfractqquha
FUNC 14108 c 0 __gnu_satfractqqusa
FUNC 14114 1a 0 __gnu_satfractqquda
FUNC 14130 3a 0 __gnu_satfracthqqq2
FUNC 1416c 52 0 __gnu_satfracthqsq2
FUNC 141c0 a6 0 __gnu_satfracthqdq2
FUNC 14268 3a 0 __gnu_satfracthqha
FUNC 142a4 4 0 __gnu_satfracthqsa
FUNC 142a8 b0 0 __gnu_satfracthqda
FUNC 14358 c 0 __gnu_satfracthquqq
FUNC 14364 c 0 __gnu_satfracthquhq
FUNC 14370 c 0 __gnu_satfracthqusq
FUNC 1437c 12 0 __gnu_satfracthqudq
FUNC 14390 c 0 __gnu_satfracthquha
FUNC 1439c c 0 __gnu_satfracthqusa
FUNC 143a8 1a 0 __gnu_satfracthquda
FUNC 143c4 38 0 __gnu_satfractsqqq2
FUNC 143fc 3a 0 __gnu_satfractsqhq2
FUNC 14438 94 0 __gnu_satfractsqdq2
FUNC 144cc 3a 0 __gnu_satfractsqha
FUNC 14508 38 0 __gnu_satfractsqsa
FUNC 14540 4 0 __gnu_satfractsqda
FUNC 14544 a 0 __gnu_satfractsquqq
FUNC 14550 a 0 __gnu_satfractsquhq
FUNC 1455c a 0 __gnu_satfractsqusq
FUNC 14568 12 0 __gnu_satfractsqudq
FUNC 1457c a 0 __gnu_satfractsquha
FUNC 14588 a 0 __gnu_satfractsqusa
FUNC 14594 18 0 __gnu_satfractsquda
FUNC 145ac 52 0 __gnu_satfractdqqq2
FUNC 14600 54 0 __gnu_satfractdqhq2
FUNC 14654 54 0 __gnu_satfractdqsq2
FUNC 146a8 54 0 __gnu_satfractdqha
FUNC 146fc 52 0 __gnu_satfractdqsa
FUNC 14750 60 0 __gnu_satfractdqda
FUNC 147b0 e 0 __gnu_satfractdquqq
FUNC 147c0 e 0 __gnu_satfractdquhq
FUNC 147d0 12 0 __gnu_satfractdqusq
FUNC 147e4 1a 0 __gnu_satfractdqudq
FUNC 14800 e 0 __gnu_satfractdquha
FUNC 14810 e 0 __gnu_satfractdqusa
FUNC 14820 20 0 __gnu_satfractdquda
FUNC 14840 28 0 __gnu_satfracthaqq
FUNC 14868 62 0 __gnu_satfracthahq
FUNC 148cc 56 0 __gnu_satfracthasq
FUNC 14924 a6 0 __gnu_satfracthadq
FUNC 149cc 52 0 __gnu_satfracthasa2
FUNC 14a20 b0 0 __gnu_satfracthada2
FUNC 14ad0 1c 0 __gnu_satfracthauqq
FUNC 14aec 1c 0 __gnu_satfracthauhq
FUNC 14b08 18 0 __gnu_satfracthausq
FUNC 14b20 30 0 __gnu_satfracthaudq
FUNC 14b50 c 0 __gnu_satfracthauha
FUNC 14b5c c 0 __gnu_satfracthausa
FUNC 14b68 1a 0 __gnu_satfracthauda
FUNC 14b84 38 0 __gnu_satfractsaqq
FUNC 14bbc 24 0 __gnu_satfractsahq
FUNC 14be0 54 0 __gnu_satfractsasq
FUNC 14c34 aa 0 __gnu_satfractsadq
FUNC 14ce0 3a 0 __gnu_satfractsaha2
FUNC 14d1c b6 0 __gnu_satfractsada2
FUNC 14dd4 18 0 __gnu_satfractsauqq
FUNC 14dec 1a 0 __gnu_satfractsauhq
FUNC 14e08 16 0 __gnu_satfractsausq
FUNC 14e20 32 0 __gnu_satfractsaudq
FUNC 14e54 1a 0 __gnu_satfractsauha
FUNC 14e70 a 0 __gnu_satfractsausa
FUNC 14e7c 1c 0 __gnu_satfractsauda
FUNC 14e98 5a 0 __gnu_satfractdaqq
FUNC 14ef4 5c 0 __gnu_satfractdahq
FUNC 14f50 30 0 __gnu_satfractdasq
FUNC 14f80 90 0 __gnu_satfractdadq
FUNC 15010 5c 0 __gnu_satfractdaha2
FUNC 1506c 5e 0 __gnu_satfractdasa2
FUNC 150cc 2a 0 __gnu_satfractdauqq
FUNC 150f8 2a 0 __gnu_satfractdauhq
FUNC 15124 20 0 __gnu_satfractdausq
FUNC 15144 38 0 __gnu_satfractdaudq
FUNC 1517c 2a 0 __gnu_satfractdauha
FUNC 151a8 24 0 __gnu_satfractdausa
FUNC 151cc 1a 0 __gnu_satfractdauda
FUNC 151e8 6 0 __gnu_satfractuqqqq
FUNC 151f0 6 0 __gnu_satfractuqqhq
FUNC 151f8 6 0 __gnu_satfractuqqsq
FUNC 15200 c 0 __gnu_satfractuqqdq
FUNC 1520c 6 0 __gnu_satfractuqqha
FUNC 15214 6 0 __gnu_satfractuqqsa
FUNC 1521c 8 0 __gnu_satfractuqqda
FUNC 15224 6 0 __gnu_satfractuqquhq2
FUNC 1522c 4 0 __gnu_satfractuqqusq2
FUNC 15230 a 0 __gnu_satfractuqqudq2
FUNC 1523c 4 0 __gnu_satfractuqquha
FUNC 15240 6 0 __gnu_satfractuqqusa
FUNC 15248 a 0 __gnu_satfractuqquda
FUNC 15254 6 0 __gnu_satfractuhqqq
FUNC 1525c 6 0 __gnu_satfractuhqhq
FUNC 15264 6 0 __gnu_satfractuhqsq
FUNC 1526c c 0 __gnu_satfractuhqdq
FUNC 15278 6 0 __gnu_satfractuhqha
FUNC 15280 6 0 __gnu_satfractuhqsa
FUNC 15288 8 0 __gnu_satfractuhqda
FUNC 15290 4 0 __gnu_satfractuhquqq2
FUNC 15294 4 0 __gnu_satfractuhqusq2
FUNC 15298 a 0 __gnu_satfractuhqudq2
FUNC 152a4 6 0 __gnu_satfractuhquha
FUNC 152ac 4 0 __gnu_satfractuhqusa
FUNC 152b0 a 0 __gnu_satfractuhquda
FUNC 152bc 4 0 __gnu_satfractusqqq
FUNC 152c0 4 0 __gnu_satfractusqhq
FUNC 152c4 4 0 __gnu_satfractusqsq
FUNC 152c8 a 0 __gnu_satfractusqdq
FUNC 152d4 4 0 __gnu_satfractusqha
FUNC 152d8 4 0 __gnu_satfractusqsa
FUNC 152dc a 0 __gnu_satfractusqda
FUNC 152e8 4 0 __gnu_satfractusquqq2
FUNC 152ec 4 0 __gnu_satfractusquhq2
FUNC 152f0 a 0 __gnu_satfractusqudq2
FUNC 152fc 4 0 __gnu_satfractusquha
FUNC 15300 4 0 __gnu_satfractusqusa
FUNC 15304 6 0 __gnu_satfractusquda
FUNC 1530c 4 0 __gnu_satfractudqqq
FUNC 15310 4 0 __gnu_satfractudqhq
FUNC 15314 4 0 __gnu_satfractudqsq
FUNC 15318 8 0 __gnu_satfractudqdq
FUNC 15320 4 0 __gnu_satfractudqha
FUNC 15324 4 0 __gnu_satfractudqsa
FUNC 15328 a 0 __gnu_satfractudqda
FUNC 15334 4 0 __gnu_satfractudquqq2
FUNC 15338 4 0 __gnu_satfractudquhq2
FUNC 1533c 4 0 __gnu_satfractudqusq2
FUNC 15340 4 0 __gnu_satfractudquha
FUNC 15344 4 0 __gnu_satfractudqusa
FUNC 15348 8 0 __gnu_satfractudquda
FUNC 15350 c 0 __gnu_satfractuhaqq
FUNC 1535c 24 0 __gnu_satfractuhahq
FUNC 15380 1a 0 __gnu_satfractuhasq
FUNC 1539c 40 0 __gnu_satfractuhadq
FUNC 153dc 6 0 __gnu_satfractuhaha
FUNC 153e4 6 0 __gnu_satfractuhasa
FUNC 153ec 8 0 __gnu_satfractuhada
FUNC 153f4 a 0 __gnu_satfractuhauqq
FUNC 15400 e 0 __gnu_satfractuhauhq
FUNC 15410 e 0 __gnu_satfractuhausq
FUNC 15420 24 0 __gnu_satfractuhaudq
FUNC 15444 6 0 __gnu_satfractuhausa2
FUNC 1544c 8 0 __gnu_satfractuhauda2
FUNC 15454 a 0 __gnu_satfractusaqq
FUNC 15460 e 0 __gnu_satfractusahq
FUNC 15470 18 0 __gnu_satfractusasq
FUNC 15488 3a 0 __gnu_satfractusadq
FUNC 154c4 e 0 __gnu_satfractusaha
FUNC 154d4 4 0 __gnu_satfractusasa
FUNC 154d8 a 0 __gnu_satfractusada
FUNC 154e4 a 0 __gnu_satfractusauqq
FUNC 154f0 c 0 __gnu_satfractusauhq
FUNC 154fc c 0 __gnu_satfractusausq
FUNC 15508 26 0 __gnu_satfractusaudq
FUNC 15530 e 0 __gnu_satfractusauha2
FUNC 15540 a 0 __gnu_satfractusauda2
FUNC 1554c 16 0 __gnu_satfractudaqq
FUNC 15564 20 0 __gnu_satfractudahq
FUNC 15584 18 0 __gnu_satfractudasq
FUNC 1559c 3e 0 __gnu_satfractudadq
FUNC 155dc 20 0 __gnu_satfractudaha
FUNC 155fc 20 0 __gnu_satfractudasa
FUNC 1561c 8 0 __gnu_satfractudada
FUNC 15624 18 0 __gnu_satfractudauqq
FUNC 1563c 20 0 __gnu_satfractudauhq
FUNC 1565c e 0 __gnu_satfractudausq
FUNC 1566c 26 0 __gnu_satfractudaudq
FUNC 15694 20 0 __gnu_satfractudauha2
FUNC 156b4 18 0 __gnu_satfractudausa2
FUNC 156cc 4c 0 __gnu_satfractqiqq
FUNC 15718 62 0 __gnu_satfractqihq
FUNC 1577c 54 0 __gnu_satfractqisq
FUNC 157d0 98 0 __gnu_satfractqidq
FUNC 15868 62 0 __gnu_satfractqiha
FUNC 158cc 54 0 __gnu_satfractqisa
FUNC 15920 b0 0 __gnu_satfractqida
FUNC 159d0 c 0 __gnu_satfractqiuqq
FUNC 159dc c 0 __gnu_satfractqiuhq
FUNC 159e8 c 0 __gnu_satfractqiusq
FUNC 159f4 14 0 __gnu_satfractqiudq
FUNC 15a08 a 0 __gnu_satfractqiuha
FUNC 15a14 a 0 __gnu_satfractqiusa
FUNC 15a20 12 0 __gnu_satfractqiuda
FUNC 15a34 52 0 __gnu_satfracthiqq
FUNC 15a88 62 0 __gnu_satfracthihq
FUNC 15aec 54 0 __gnu_satfracthisq
FUNC 15b40 98 0 __gnu_satfracthidq
FUNC 15bd8 62 0 __gnu_satfracthiha
FUNC 15c3c 54 0 __gnu_satfracthisa
FUNC 15c90 b0 0 __gnu_satfracthida
FUNC 15d40 20 0 __gnu_satfracthiuqq
FUNC 15d60 c 0 __gnu_satfracthiuhq
FUNC 15d6c c 0 __gnu_satfracthiusq
FUNC 15d78 14 0 __gnu_satfracthiudq
FUNC 15d8c 1a 0 __gnu_satfracthiuha
FUNC 15da8 a 0 __gnu_satfracthiusa
FUNC 15db4 12 0 __gnu_satfracthiuda
FUNC 15dc8 4a 0 __gnu_satfractsiqq
FUNC 15e14 4e 0 __gnu_satfractsihq
FUNC 15e64 54 0 __gnu_satfractsisq
FUNC 15eb8 98 0 __gnu_satfractsidq
FUNC 15f50 4e 0 __gnu_satfractsiha
FUNC 15fa0 54 0 __gnu_satfractsisa
FUNC 15ff4 b6 0 __gnu_satfractsida
FUNC 160ac 1c 0 __gnu_satfractsiuqq
FUNC 160c8 1e 0 __gnu_satfractsiuhq
FUNC 160e8 c 0 __gnu_satfractsiusq
FUNC 160f4 14 0 __gnu_satfractsiudq
FUNC 16108 1e 0 __gnu_satfractsiuha
FUNC 16128 16 0 __gnu_satfractsiusa
FUNC 16140 12 0 __gnu_satfractsiuda
FUNC 16154 8e 0 __gnu_satfractdiqq
FUNC 161e4 90 0 __gnu_satfractdihq
FUNC 16274 8c 0 __gnu_satfractdisq
FUNC 16300 96 0 __gnu_satfractdidq
FUNC 16398 90 0 __gnu_satfractdiha
FUNC 16428 8c 0 __gnu_satfractdisa
FUNC 164b4 a4 0 __gnu_satfractdida
FUNC 16558 44 0 __gnu_satfractdiuqq
FUNC 1659c 44 0 __gnu_satfractdiuhq
FUNC 165e0 3a 0 __gnu_satfractdiusq
FUNC 1661c 18 0 __gnu_satfractdiudq
FUNC 16634 44 0 __gnu_satfractdiuha
FUNC 16678 44 0 __gnu_satfractdiusa
FUNC 166bc 38 0 __gnu_satfractdiuda
FUNC 166f4 3a 0 __gnu_satfractsfqq
FUNC 16730 3c 0 __gnu_satfractsfhq
FUNC 16770 48 0 __gnu_satfractsfsq
FUNC 167b8 3e 0 __gnu_satfractsfdq
FUNC 167f8 3c 0 __gnu_satfractsfha
FUNC 16838 48 0 __gnu_satfractsfsa
FUNC 16880 3e 0 __gnu_satfractsfda
FUNC 168c0 36 0 __gnu_satfractsfuqq
FUNC 168f8 38 0 __gnu_satfractsfuhq
FUNC 16930 48 0 __gnu_satfractsfusq
FUNC 16978 38 0 __gnu_satfractsfudq
FUNC 169b0 38 0 __gnu_satfractsfuha
FUNC 169e8 48 0 __gnu_satfractsfusa
FUNC 16a30 38 0 __gnu_satfractsfuda
FUNC 16a68 4a 0 __gnu_satfractdfqq
FUNC 16ab8 50 0 __gnu_satfractdfhq
FUNC 16b08 50 0 __gnu_satfractdfsq
FUNC 16b58 4e 0 __gnu_satfractdfdq
FUNC 16ba8 50 0 __gnu_satfractdfha
FUNC 16bf8 50 0 __gnu_satfractdfsa
FUNC 16c48 4e 0 __gnu_satfractdfda
FUNC 16c98 46 0 __gnu_satfractdfuqq
FUNC 16ce0 50 0 __gnu_satfractdfuhq
FUNC 16d30 50 0 __gnu_satfractdfusq
FUNC 16d80 48 0 __gnu_satfractdfudq
FUNC 16dc8 50 0 __gnu_satfractdfuha
FUNC 16e18 50 0 __gnu_satfractdfusa
FUNC 16e68 48 0 __gnu_satfractdfuda
FUNC 16eb0 1e 0 __gnu_fractunsqqqi
FUNC 16ed0 1e 0 __gnu_fractunsqqhi
FUNC 16ef0 1c 0 __gnu_fractunsqqsi
FUNC 16f0c 20 0 __gnu_fractunsqqdi
FUNC 16f2c 1c 0 __gnu_fractunshqqi
FUNC 16f48 1c 0 __gnu_fractunshqhi
FUNC 16f64 1a 0 __gnu_fractunshqsi
FUNC 16f80 1e 0 __gnu_fractunshqdi
FUNC 16fa0 18 0 __gnu_fractunssqqi
FUNC 16fb8 18 0 __gnu_fractunssqhi
FUNC 16fd0 16 0 __gnu_fractunssqsi
FUNC 16fe8 18 0 __gnu_fractunssqdi
FUNC 17000 28 0 __gnu_fractunsdqqi
FUNC 17028 28 0 __gnu_fractunsdqhi
FUNC 17050 28 0 __gnu_fractunsdqsi
FUNC 17078 30 0 __gnu_fractunsdqdi
FUNC 170a8 1e 0 __gnu_fractunshaqi
FUNC 170c8 1e 0 __gnu_fractunshahi
FUNC 170e8 1c 0 __gnu_fractunshasi
FUNC 17104 20 0 __gnu_fractunshadi
FUNC 17124 18 0 __gnu_fractunssaqi
FUNC 1713c 18 0 __gnu_fractunssahi
FUNC 17154 16 0 __gnu_fractunssasi
FUNC 1716c 18 0 __gnu_fractunssadi
FUNC 17184 24 0 __gnu_fractunsdaqi
FUNC 171a8 24 0 __gnu_fractunsdahi
FUNC 171cc 1e 0 __gnu_fractunsdasi
FUNC 171ec 2e 0 __gnu_fractunsdadi
FUNC 1721c 4 0 __gnu_fractunsuqqqi
FUNC 17220 4 0 __gnu_fractunsuqqhi
FUNC 17224 4 0 __gnu_fractunsuqqsi
FUNC 17228 6 0 __gnu_fractunsuqqdi
FUNC 17230 4 0 __gnu_fractunsuhqqi
FUNC 17234 4 0 __gnu_fractunsuhqhi
FUNC 17238 4 0 __gnu_fractunsuhqsi
FUNC 1723c 6 0 __gnu_fractunsuhqdi
FUNC 17244 4 0 __gnu_fractunsusqqi
FUNC 17248 4 0 __gnu_fractunsusqhi
FUNC 1724c 4 0 __gnu_fractunsusqsi
FUNC 17250 6 0 __gnu_fractunsusqdi
FUNC 17258 4 0 __gnu_fractunsudqqi
FUNC 1725c 4 0 __gnu_fractunsudqhi
FUNC 17260 4 0 __gnu_fractunsudqsi
FUNC 17264 6 0 __gnu_fractunsudqdi
FUNC 1726c 6 0 __gnu_fractunsuhaqi
FUNC 17274 6 0 __gnu_fractunsuhahi
FUNC 1727c 6 0 __gnu_fractunsuhasi
FUNC 17284 a 0 __gnu_fractunsuhadi
FUNC 17290 6 0 __gnu_fractunsusaqi
FUNC 17298 4 0 __gnu_fractunsusahi
FUNC 1729c 4 0 __gnu_fractunsusasi
FUNC 172a0 6 0 __gnu_fractunsusadi
FUNC 172a8 4 0 __gnu_fractunsudaqi
FUNC 172ac 4 0 __gnu_fractunsudahi
FUNC 172b0 4 0 __gnu_fractunsudasi
FUNC 172b4 6 0 __gnu_fractunsudadi
FUNC 172bc 4 0 __gnu_fractunsqiqq
FUNC 172c0 4 0 __gnu_fractunsqihq
FUNC 172c4 4 0 __gnu_fractunsqisq
FUNC 172c8 a 0 __gnu_fractunsqidq
FUNC 172d4 4 0 __gnu_fractunsqiha
FUNC 172d8 4 0 __gnu_fractunsqisa
FUNC 172dc e 0 __gnu_fractunsqida
FUNC 172ec 6 0 __gnu_fractunsqiuqq
FUNC 172f4 6 0 __gnu_fractunsqiuhq
FUNC 172fc 4 0 __gnu_fractunsqiusq
FUNC 17300 6 0 __gnu_fractunsqiudq
FUNC 17308 4 0 __gnu_fractunsqiuha
FUNC 1730c 4 0 __gnu_fractunsqiusa
FUNC 17310 a 0 __gnu_fractunsqiuda
FUNC 1731c 6 0 __gnu_fractunshiqq
FUNC 17324 6 0 __gnu_fractunshihq
FUNC 1732c 4 0 __gnu_fractunshisq
FUNC 17330 a 0 __gnu_fractunshidq
FUNC 1733c 6 0 __gnu_fractunshiha
FUNC 17344 4 0 __gnu_fractunshisa
FUNC 17348 8 0 __gnu_fractunshida
FUNC 17350 6 0 __gnu_fractunshiuqq
FUNC 17358 6 0 __gnu_fractunshiuhq
FUNC 17360 4 0 __gnu_fractunshiusq
FUNC 17364 6 0 __gnu_fractunshiudq
FUNC 1736c 4 0 __gnu_fractunshiuha
FUNC 17370 4 0 __gnu_fractunshiusa
FUNC 17374 a 0 __gnu_fractunshiuda
FUNC 17380 6 0 __gnu_fractunssiqq
FUNC 17388 6 0 __gnu_fractunssihq
FUNC 17390 4 0 __gnu_fractunssisq
FUNC 17394 a 0 __gnu_fractunssidq
FUNC 173a0 6 0 __gnu_fractunssiha
FUNC 173a8 4 0 __gnu_fractunssisa
FUNC 173ac a 0 __gnu_fractunssida
FUNC 173b8 6 0 __gnu_fractunssiuqq
FUNC 173c0 6 0 __gnu_fractunssiuhq
FUNC 173c8 4 0 __gnu_fractunssiusq
FUNC 173cc 6 0 __gnu_fractunssiudq
FUNC 173d4 4 0 __gnu_fractunssiuha
FUNC 173d8 4 0 __gnu_fractunssiusa
FUNC 173dc a 0 __gnu_fractunssiuda
FUNC 173e8 6 0 __gnu_fractunsdiqq
FUNC 173f0 6 0 __gnu_fractunsdihq
FUNC 173f8 4 0 __gnu_fractunsdisq
FUNC 173fc a 0 __gnu_fractunsdidq
FUNC 17408 6 0 __gnu_fractunsdiha
FUNC 17410 4 0 __gnu_fractunsdisa
FUNC 17414 e 0 __gnu_fractunsdida
FUNC 17424 6 0 __gnu_fractunsdiuqq
FUNC 1742c 6 0 __gnu_fractunsdiuhq
FUNC 17434 4 0 __gnu_fractunsdiusq
FUNC 17438 6 0 __gnu_fractunsdiudq
FUNC 17440 4 0 __gnu_fractunsdiuha
FUNC 17444 4 0 __gnu_fractunsdiusa
FUNC 17448 a 0 __gnu_fractunsdiuda
FUNC 17454 24 0 __gnu_satfractunsqiqq
FUNC 17478 24 0 __gnu_satfractunsqihq
FUNC 1749c 18 0 __gnu_satfractunsqisq
FUNC 174b4 40 0 __gnu_satfractunsqidq
FUNC 174f4 24 0 __gnu_satfractunsqiha
FUNC 17518 c 0 __gnu_satfractunsqisa
FUNC 17524 2a 0 __gnu_satfractunsqida
FUNC 17550 a 0 __gnu_satfractunsqiuqq
FUNC 1755c a 0 __gnu_satfractunsqiuhq
FUNC 17568 a 0 __gnu_satfractunsqiusq
FUNC 17574 12 0 __gnu_satfractunsqiudq
FUNC 17588 e 0 __gnu_satfractunsqiuha
FUNC 17598 c 0 __gnu_satfractunsqiusa
FUNC 175a4 26 0 __gnu_satfractunsqiuda
FUNC 175cc 22 0 __gnu_satfractunshiqq
FUNC 175f0 22 0 __gnu_satfractunshihq
FUNC 17614 18 0 __gnu_satfractunshisq
FUNC 1762c 40 0 __gnu_satfractunshidq
FUNC 1766c 22 0 __gnu_satfractunshiha
FUNC 17690 4 0 __gnu_satfractunshisa
FUNC 17694 8 0 __gnu_satfractunshida
FUNC 1769c 16 0 __gnu_satfractunshiuqq
FUNC 176b4 a 0 __gnu_satfractunshiuhq
FUNC 176c0 a 0 __gnu_satfractunshiusq
FUNC 176cc 12 0 __gnu_satfractunshiudq
FUNC 176e0 c 0 __gnu_satfractunshiuha
FUNC 176ec 4 0 __gnu_satfractunshiusa
FUNC 176f0 a 0 __gnu_satfractunshiuda
FUNC 176fc 14 0 __gnu_satfractunssiqq
FUNC 17710 18 0 __gnu_satfractunssihq
FUNC 17728 18 0 __gnu_satfractunssisq
FUNC 17740 40 0 __gnu_satfractunssidq
FUNC 17780 18 0 __gnu_satfractunssiha
FUNC 17798 18 0 __gnu_satfractunssisa
FUNC 177b0 a 0 __gnu_satfractunssida
FUNC 177bc 14 0 __gnu_satfractunssiuqq
FUNC 177d0 18 0 __gnu_satfractunssiuhq
FUNC 177e8 a 0 __gnu_satfractunssiusq
FUNC 177f4 12 0 __gnu_satfractunssiudq
FUNC 17808 18 0 __gnu_satfractunssiuha
FUNC 17820 c 0 __gnu_satfractunssiusa
FUNC 1782c a 0 __gnu_satfractunssiuda
FUNC 17838 30 0 __gnu_satfractunsdiqq
FUNC 17868 38 0 __gnu_satfractunsdihq
FUNC 178a0 38 0 __gnu_satfractunsdisq
FUNC 178d8 3c 0 __gnu_satfractunsdidq
FUNC 17914 38 0 __gnu_satfractunsdiha
FUNC 1794c 38 0 __gnu_satfractunsdisa
FUNC 17984 3e 0 __gnu_satfractunsdida
FUNC 179c4 2e 0 __gnu_satfractunsdiuqq
FUNC 179f4 32 0 __gnu_satfractunsdiuhq
FUNC 17a28 28 0 __gnu_satfractunsdiusq
FUNC 17a50 14 0 __gnu_satfractunsdiudq
FUNC 17a64 32 0 __gnu_satfractunsdiuha
FUNC 17a98 2e 0 __gnu_satfractunsdiusa
FUNC 17ac8 26 0 __gnu_satfractunsdiuda
FUNC 17af0 30 0 __gnu_ldivmod_helper
FUNC 17b20 30 0 __gnu_uldivmod_helper
FUNC 17b50 4 0 __aeabi_uread4
FUNC 17b54 4 0 __aeabi_uwrite4
FUNC 17b58 8 0 __aeabi_uread8
FUNC 17b60 6 0 __aeabi_uwrite8
FUNC 17b68 c6 0 __gnu_f2h_internal
FUNC 17c30 5a 0 __gnu_h2f_internal
FUNC 17c8c 4 0 __gnu_f2h_ieee
FUNC 17c90 4 0 __gnu_h2f_ieee
FUNC 17c94 4 0 __gnu_f2h_alternative
FUNC 17c98 4 0 __gnu_h2f_alternative
FUNC 17c9c 2 0 __enable_execute_stack
FUNC 17ca0 12 0 selfrel_offset31
FUNC 17cb4 5e 0 search_EIT_table
FUNC 17d14 34 0 __gnu_unwind_get_pr_addr
FUNC 17d48 bc 0 get_eit_entry
FUNC 17e04 58 0 restore_non_core_regs
FUNC 17e5c c 0 _Unwind_decode_typeinfo_ptr
FUNC 17e68 4 0 __gnu_unwind_24bit
FUNC 17e6c 2 0 _Unwind_DebugHook
FUNC 17e70 3e 0 unwind_phase2
FUNC 17eb0 f4 0 unwind_phase2_forced
FUNC 17fa4 4 0 _Unwind_GetCFA
FUNC 17fa8 66 0 __gnu_Unwind_RaiseException
FUNC 18010 12 0 __gnu_Unwind_ForcedUnwind
FUNC 18024 44 0 __gnu_Unwind_Resume
FUNC 18068 1a 0 __gnu_Unwind_Resume_or_Rethrow
FUNC 18084 2 0 _Unwind_Complete
FUNC 18088 e 0 _Unwind_DeleteException
FUNC 18098 3a 0 _Unwind_VRS_Get
FUNC 180d4 18 0 _Unwind_GetGR
FUNC 180ec 3a 0 _Unwind_VRS_Set
FUNC 18128 1c 0 _Unwind_SetGR
FUNC 18144 7a 0 __gnu_Unwind_Backtrace
FUNC 181c0 2f0 0 __gnu_unwind_pr_common
FUNC 184b0 4 0 __aeabi_unwind_cpp_pr0
FUNC 184b4 4 0 __aeabi_unwind_cpp_pr1
FUNC 184b8 4 0 __aeabi_unwind_cpp_pr2
FUNC 184bc 270 0 _Unwind_VRS_Pop
FUNC 188d8 34 0 next_unwind_byte
FUNC 1890c 1a 0 _Unwind_GetGR
FUNC 18928 2 0 unwind_UCB_from_context
FUNC 1892c 2ca 0 __gnu_unwind_execute
FUNC 18bf8 2a 0 __gnu_unwind_frame
FUNC 18c24 a 0 _Unwind_GetRegionStart
FUNC 18c30 12 0 _Unwind_GetLanguageSpecificData
FUNC 18c44 6 0 _Unwind_GetDataRelBase
FUNC 18c4c 6 0 _Unwind_GetTextRelBase
FUNC 18c54 24 0 read_uleb128
FUNC 18c78 30 0 read_sleb128
FUNC 18ca8 4a 0 base_of_encoded_value
FUNC 18cf4 a2 0 read_encoded_value_with_base
FUNC 18d98 1e 0 read_encoded_value
FUNC 18db8 5c 0 parse_lsda_header
FUNC 18e14 1c 0 _Unwind_SetGR
FUNC 18e30 1a 0 _Unwind_GetGR
FUNC 18e4c f2 0 __gcc_personality_v0
FUNC 18f40 18 0 __gthread_active_p
FUNC 18f58 4 0 __gthread_getspecific
FUNC 18f5c 2a 0 emutls_destroy
FUNC 18f88 18 0 __gthread_key_create
FUNC 18fa0 e 0 emutls_init
FUNC 18fb0 e4 0 __emutls_get_address
FUNC 19094 26 0 __emutls_register_common
STACK CFI INIT d271 25c .cfa: sp 0 + .ra: lr
STACK CFI INIT d4e9 294 .cfa: sp 0 + .ra: lr
STACK CFI INIT d799 c4 .cfa: sp 0 + .ra: lr
STACK CFI INIT d85d de .cfa: sp 0 + .ra: lr
STACK CFI INIT eaa5 36 .cfa: sp 0 + .ra: lr
STACK CFI eacd .cfa: sp 16 + .ra: .cfa -12 + ^
STACK CFI INIT eadd 2c .cfa: sp 0 + .ra: lr
STACK CFI eafb .cfa: sp 16 + .ra: .cfa -12 + ^
STACK CFI INIT eb28 10 .cfa: sp 0 + .ra: lr
STACK CFI INIT eb38 e .cfa: sp 0 + .ra: lr
STACK CFI INIT eb48 18 .cfa: sp 0 + .ra: lr
STACK CFI INIT eb60 18 .cfa: sp 0 + .ra: lr
STACK CFI INIT eb78 12 .cfa: sp 0 + .ra: lr
STACK CFI eb7c .cfa: sp 8 + .ra: .cfa -4 + ^ r3: .cfa -8 + ^
STACK CFI INIT eb8c 1e .cfa: sp 0 + .ra: lr
STACK CFI eb8e .cfa: sp 8 + .ra: .cfa -4 + ^ r3: .cfa -8 + ^
STACK CFI INIT ebac 26 .cfa: sp 0 + .ra: lr
STACK CFI ebb0 .cfa: sp 8 + .ra: .cfa -4 + ^ r3: .cfa -8 + ^
STACK CFI INIT ebd4 36 .cfa: sp 0 + .ra: lr
STACK CFI ebd6 .cfa: sp 16 + .ra: .cfa -4 + ^ r4: .cfa -16 + ^ r5: .cfa -12 + ^ r6: .cfa -8 + ^
STACK CFI INIT ec0c 26 .cfa: sp 0 + .ra: lr
STACK CFI ec10 .cfa: sp 8 + .ra: .cfa -4 + ^ r3: .cfa -8 + ^
STACK CFI INIT ec34 3a .cfa: sp 0 + .ra: lr
STACK CFI ec36 .cfa: sp 16 + .ra: .cfa -4 + ^ r4: .cfa -16 + ^ r5: .cfa -12 + ^ r6: .cfa -8 + ^
STACK CFI INIT ec70 12 .cfa: sp 0 + .ra: lr
STACK CFI ec76 .cfa: sp 8 + .ra: .cfa -4 + ^ r3: .cfa -8 + ^
STACK CFI INIT ec84 c8 .cfa: sp 0 + .ra: lr
STACK CFI ec8a .cfa: sp 24 + .ra: .cfa -4 + ^ r3: .cfa -24 + ^ r4: .cfa -20 + ^ r5: .cfa -16 + ^ r6: .cfa -12 + ^ r7: .cfa -8 + ^
STACK CFI INIT ed4c 20 .cfa: sp 0 + .ra: lr
STACK CFI ed4e .cfa: sp 8 + .ra: .cfa -4 + ^ r3: .cfa -8 + ^
STACK CFI INIT ed6c 2c .cfa: sp 0 + .ra: lr
STACK CFI ed74 .cfa: sp 8 + .ra: .cfa -4 + ^ r4: .cfa -8 + ^
STACK CFI INIT ed98 e .cfa: sp 0 + .ra: lr
STACK CFI INIT eda8 16 .cfa: sp 0 + .ra: lr
STACK CFI INIT edc0 14 .cfa: sp 0 + .ra: lr
STACK CFI INIT edd4 30 .cfa: sp 0 + .ra: lr
STACK CFI edda .cfa: sp 4 + r4: .cfa -4 + ^
STACK CFI INIT ee04 44 .cfa: sp 0 + .ra: lr
STACK CFI ee08 .cfa: sp 16 + r4: .cfa -16 + ^ r5: .cfa -12 + ^ r6: .cfa -8 + ^ r7: .cfa -4 + ^
STACK CFI INIT ee48 1e .cfa: sp 0 + .ra: lr
STACK CFI INIT ee68 1e .cfa: sp 0 + .ra: lr
STACK CFI INIT ee88 54 .cfa: sp 0 + .ra: lr
STACK CFI ee8a .cfa: sp 24 + .ra: .cfa -4 + ^ r3: .cfa -24 + ^ r4: .cfa -20 + ^ r5: .cfa -16 + ^ r6: .cfa -12 + ^ r7: .cfa -8 + ^
STACK CFI INIT eedc 76 .cfa: sp 0 + .ra: lr
STACK CFI eee0 .cfa: sp 32 + .ra: .cfa -4 + ^ r3: .cfa -32 + ^ r4: .cfa -28 + ^ r5: .cfa -24 + ^ r6: .cfa -20 + ^ r7: .cfa -16 + ^ r8: .cfa -12 + ^ r9: .cfa -8 + ^
STACK CFI INIT ef54 46e .cfa: sp 0 + .ra: lr
STACK CFI ef58 .cfa: sp 36 + .ra: .cfa -4 + ^ r10: .cfa -12 + ^ r11: .cfa -8 + ^ r4: .cfa -36 + ^ r5: .cfa -32 + ^ r6: .cfa -28 + ^ r7: .cfa -24 + ^ r8: .cfa -20 + ^ r9: .cfa -16 + ^
STACK CFI ef5c .cfa: sp 64 +
STACK CFI INIT f3c4 5d0 .cfa: sp 0 + .ra: lr
STACK CFI f3c8 .cfa: sp 36 + .ra: .cfa -4 + ^ r10: .cfa -12 + ^ r11: .cfa -8 + ^ r4: .cfa -36 + ^ r5: .cfa -32 + ^ r6: .cfa -28 + ^ r7: .cfa -24 + ^ r8: .cfa -20 + ^ r9: .cfa -16 + ^
STACK CFI f3ca .cfa: sp 112 +
STACK CFI INIT f994 3fe .cfa: sp 0 + .ra: lr
STACK CFI f998 .cfa: sp 36 + .ra: .cfa -4 + ^ r10: .cfa -12 + ^ r11: .cfa -8 + ^ r4: .cfa -36 + ^ r5: .cfa -32 + ^ r6: .cfa -28 + ^ r7: .cfa -24 + ^ r8: .cfa -20 + ^ r9: .cfa -16 + ^
STACK CFI f99a .cfa: sp 48 +
STACK CFI INIT fd94 4fe .cfa: sp 0 + .ra: lr
STACK CFI fd98 .cfa: sp 36 + .ra: .cfa -4 + ^ r10: .cfa -12 + ^ r11: .cfa -8 + ^ r4: .cfa -36 + ^ r5: .cfa -32 + ^ r6: .cfa -28 + ^ r7: .cfa -24 + ^ r8: .cfa -20 + ^ r9: .cfa -16 + ^
STACK CFI fd9a .cfa: sp 72 +
STACK CFI INIT 10294 4 .cfa: sp 0 + .ra: lr
STACK CFI INIT 10298 8 .cfa: sp 0 + .ra: lr
STACK CFI INIT 102a0 16 .cfa: sp 0 + .ra: lr
STACK CFI INIT 102b8 30 .cfa: sp 0 + .ra: lr
STACK CFI INIT 102e8 26 .cfa: sp 0 + .ra: lr
STACK CFI 102ea .cfa: sp 8 + .ra: .cfa -4 + ^ r4: .cfa -8 + ^
STACK CFI INIT 10310 2e .cfa: sp 0 + .ra: lr
STACK CFI 10312 .cfa: sp 16 + .ra: .cfa -4 + ^ r3: .cfa -16 + ^ r6: .cfa -12 + ^ r7: .cfa -8 + ^
STACK CFI INIT 10340 48 .cfa: sp 0 + .ra: lr
STACK CFI 10342 .cfa: sp 16 + .ra: .cfa -4 + ^ r4: .cfa -16 + ^ r5: .cfa -12 + ^ r6: .cfa -8 + ^
STACK CFI INIT 10388 44 .cfa: sp 0 + .ra: lr
STACK CFI 1038e .cfa: sp 16 + .ra: .cfa -4 + ^ r4: .cfa -16 + ^ r5: .cfa -12 + ^ r6: .cfa -8 + ^
STACK CFI INIT 103cc 352 .cfa: sp 0 + .ra: lr
STACK CFI 103d0 .cfa: sp 36 + .ra: .cfa -4 + ^ r10: .cfa -12 + ^ r11: .cfa -8 + ^ r4: .cfa -36 + ^ r5: .cfa -32 + ^ r6: .cfa -28 + ^ r7: .cfa -24 + ^ r8: .cfa -20 + ^ r9: .cfa -16 + ^
STACK CFI 103e8 .cfa: sp 56 +
STACK CFI INIT 10720 2ea .cfa: sp 0 + .ra: lr
STACK CFI 10724 .cfa: sp 36 + .ra: .cfa -4 + ^ r10: .cfa -12 + ^ r11: .cfa -8 + ^ r4: .cfa -36 + ^ r5: .cfa -32 + ^ r6: .cfa -28 + ^ r7: .cfa -24 + ^ r8: .cfa -20 + ^ r9: .cfa -16 + ^
STACK CFI 1073e .cfa: sp 56 +
STACK CFI INIT 10a0c 300 .cfa: sp 0 + .ra: lr
STACK CFI 10a10 .cfa: sp 36 + .ra: .cfa -4 + ^ r10: .cfa -12 + ^ r11: .cfa -8 + ^ r4: .cfa -36 + ^ r5: .cfa -32 + ^ r6: .cfa -28 + ^ r7: .cfa -24 + ^ r8: .cfa -20 + ^ r9: .cfa -16 + ^
STACK CFI 10a14 .cfa: sp 48 +
STACK CFI INIT 10d0c 2ae .cfa: sp 0 + .ra: lr
STACK CFI 10d10 .cfa: sp 36 + .ra: .cfa -4 + ^ r10: .cfa -12 + ^ r11: .cfa -8 + ^ r4: .cfa -36 + ^ r5: .cfa -32 + ^ r6: .cfa -28 + ^ r7: .cfa -24 + ^ r8: .cfa -20 + ^ r9: .cfa -16 + ^
STACK CFI 10d14 .cfa: sp 48 +
STACK CFI INIT 10fbc 4 .cfa: sp 0 + .ra: lr
STACK CFI INIT 10fc0 3ae .cfa: sp 0 + .ra: lr
STACK CFI 10fc4 .cfa: sp 36 + .ra: .cfa -4 + ^ r10: .cfa -12 + ^ r11: .cfa -8 + ^ r4: .cfa -36 + ^ r5: .cfa -32 + ^ r6: .cfa -28 + ^ r7: .cfa -24 + ^ r8: .cfa -20 + ^ r9: .cfa -16 + ^
STACK CFI 10fc6 .cfa: sp 56 +
STACK CFI INIT 11370 4 .cfa: sp 0 + .ra: lr
STACK CFI INIT 11374 4 .cfa: sp 0 + .ra: lr
STACK CFI INIT 11378 4 .cfa: sp 0 + .ra: lr
STACK CFI INIT 1137c 8 .cfa: sp 0 + .ra: lr
STACK CFI INIT 11384 4 .cfa: sp 0 + .ra: lr
STACK CFI INIT 11388 4 .cfa: sp 0 + .ra: lr
STACK CFI INIT 1138c 8 .cfa: sp 0 + .ra: lr
STACK CFI INIT 11394 4 .cfa: sp 0 + .ra: lr
STACK CFI INIT 11398 4 .cfa: sp 0 + .ra: lr
STACK CFI INIT 1139c 4 .cfa: sp 0 + .ra: lr
STACK CFI INIT 113a0 8 .cfa: sp 0 + .ra: lr
STACK CFI INIT 113a8 4 .cfa: sp 0 + .ra: lr
STACK CFI INIT 113ac 4 .cfa: sp 0 + .ra: lr
STACK CFI INIT 113b0 8 .cfa: sp 0 + .ra: lr
STACK CFI INIT 113b8 4 .cfa: sp 0 + .ra: lr
STACK CFI INIT 113bc 4 .cfa: sp 0 + .ra: lr
STACK CFI INIT 113c0 4 .cfa: sp 0 + .ra: lr
STACK CFI INIT 113c4 8 .cfa: sp 0 + .ra: lr
STACK CFI INIT 113cc 4 .cfa: sp 0 + .ra: lr
STACK CFI INIT 113d0 4 .cfa: sp 0 + .ra: lr
STACK CFI INIT 113d4 8 .cfa: sp 0 + .ra: lr
STACK CFI INIT 113dc 4 .cfa: sp 0 + .ra: lr
STACK CFI INIT 113e0 4 .cfa: sp 0 + .ra: lr
STACK CFI INIT 113e4 4 .cfa: sp 0 + .ra: lr
STACK CFI INIT 113e8 8 .cfa: sp 0 + .ra: lr
STACK CFI INIT 113f0 4 .cfa: sp 0 + .ra: lr
STACK CFI INIT 113f4 4 .cfa: sp 0 + .ra: lr
STACK CFI INIT 113f8 8 .cfa: sp 0 + .ra: lr
STACK CFI INIT 11400 4 .cfa: sp 0 + .ra: lr
STACK CFI INIT 11404 4 .cfa: sp 0 + .ra: lr
STACK CFI INIT 11408 4 .cfa: sp 0 + .ra: lr
STACK CFI INIT 1140c 8 .cfa: sp 0 + .ra: lr
STACK CFI INIT 11414 4 .cfa: sp 0 + .ra: lr
STACK CFI INIT 11418 4 .cfa: sp 0 + .ra: lr
STACK CFI INIT 1141c 8 .cfa: sp 0 + .ra: lr
STACK CFI INIT 11424 4 .cfa: sp 0 + .ra: lr
STACK CFI INIT 11428 4 .cfa: sp 0 + .ra: lr
STACK CFI INIT 1142c 4 .cfa: sp 0 + .ra: lr
STACK CFI INIT 11430 8 .cfa: sp 0 + .ra: lr
STACK CFI INIT 11438 4 .cfa: sp 0 + .ra: lr
STACK CFI INIT 1143c 4 .cfa: sp 0 + .ra: lr
STACK CFI INIT 11440 8 .cfa: sp 0 + .ra: lr
STACK CFI INIT 11448 6 .cfa: sp 0 + .ra: lr
STACK CFI INIT 11450 6 .cfa: sp 0 + .ra: lr
STACK CFI INIT 11458 6 .cfa: sp 0 + .ra: lr
STACK CFI INIT 11460 10 .cfa: sp 0 + .ra: lr
STACK CFI 11462 .cfa: sp 8 + .ra: .cfa -4 + ^ r4: .cfa -8 + ^
STACK CFI 11464 .cfa: sp 16 +
STACK CFI INIT 11470 6 .cfa: sp 0 + .ra: lr
STACK CFI INIT 11478 6 .cfa: sp 0 + .ra: lr
STACK CFI INIT 11480 10 .cfa: sp 0 + .ra: lr
STACK CFI 11482 .cfa: sp 8 + .ra: .cfa -4 + ^ r4: .cfa -8 + ^
STACK CFI 11484 .cfa: sp 16 +
STACK CFI INIT 11490 6 .cfa: sp 0 + .ra: lr
STACK CFI INIT 11498 6 .cfa: sp 0 + .ra: lr
STACK CFI INIT 114a0 6 .cfa: sp 0 + .ra: lr
STACK CFI INIT 114a8 10 .cfa: sp 0 + .ra: lr
STACK CFI 114aa .cfa: sp 8 + .ra: .cfa -4 + ^ r4: .cfa -8 + ^
STACK CFI 114ac .cfa: sp 16 +
STACK CFI INIT 114b8 6 .cfa: sp 0 + .ra: lr
STACK CFI INIT 114c0 6 .cfa: sp 0 + .ra: lr
STACK CFI INIT 114c8 10 .cfa: sp 0 + .ra: lr
STACK CFI 114ca .cfa: sp 8 + .ra: .cfa -4 + ^ r4: .cfa -8 + ^
STACK CFI 114cc .cfa: sp 16 +
STACK CFI INIT 114d8 2c .cfa: sp 0 + .ra: lr
STACK CFI 114de .cfa: sp 4 + .ra: .cfa -4 + ^
STACK CFI 114e0 .cfa: sp 16 +
STACK CFI INIT 11504 20 .cfa: sp 0 + .ra: lr
STACK CFI 1150a .cfa: sp 4 + .ra: .cfa -4 + ^
STACK CFI 1150c .cfa: sp 16 +
STACK CFI INIT 11524 28 .cfa: sp 0 + .ra: lr
STACK CFI 11526 .cfa: sp 12 + .ra: .cfa -4 + ^ r4: .cfa -12 + ^ r5: .cfa -8 + ^
STACK CFI 1152e .cfa: sp 24 +
STACK CFI INIT 1154c 128 .cfa: sp 0 + .ra: lr
STACK CFI 11550 .cfa: sp 36 + .ra: .cfa -4 + ^ r10: .cfa -12 + ^ r11: .cfa -8 + ^ r4: .cfa -36 + ^ r5: .cfa -32 + ^ r6: .cfa -28 + ^ r7: .cfa -24 + ^ r8: .cfa -20 + ^ r9: .cfa -16 + ^
STACK CFI 11556 .cfa: sp 80 +
STACK CFI INIT 11674 1e .cfa: sp 0 + .ra: lr
STACK CFI 11678 .cfa: sp 4 + .ra: .cfa -4 + ^
STACK CFI 1167a .cfa: sp 16 +
STACK CFI INIT 11694 28 .cfa: sp 0 + .ra: lr
STACK CFI 11696 .cfa: sp 12 + .ra: .cfa -4 + ^ r4: .cfa -12 + ^ r5: .cfa -8 + ^
STACK CFI 1169e .cfa: sp 24 +
STACK CFI INIT 116bc 130 .cfa: sp 0 + .ra: lr
STACK CFI 116c0 .cfa: sp 36 + .ra: .cfa -4 + ^ r10: .cfa -12 + ^ r11: .cfa -8 + ^ r4: .cfa -36 + ^ r5: .cfa -32 + ^ r6: .cfa -28 + ^ r7: .cfa -24 + ^ r8: .cfa -20 + ^ r9: .cfa -16 + ^
STACK CFI 116c6 .cfa: sp 80 +
STACK CFI INIT 117ec 2a .cfa: sp 0 + .ra: lr
STACK CFI 117f2 .cfa: sp 4 + .ra: .cfa -4 + ^
STACK CFI 117f4 .cfa: sp 16 +
STACK CFI INIT 11818 24 .cfa: sp 0 + .ra: lr
STACK CFI 1181e .cfa: sp 4 + .ra: .cfa -4 + ^
STACK CFI 11820 .cfa: sp 16 +
STACK CFI INIT 1183c 24 .cfa: sp 0 + .ra: lr
STACK CFI 1183e .cfa: sp 12 + .ra: .cfa -4 + ^ r4: .cfa -12 + ^ r5: .cfa -8 + ^
STACK CFI 11846 .cfa: sp 24 +
STACK CFI INIT 11860 da .cfa: sp 0 + .ra: lr
STACK CFI 11864 .cfa: sp 36 + .ra: .cfa -4 + ^ r10: .cfa -12 + ^ r11: .cfa -8 + ^ r4: .cfa -36 + ^ r5: .cfa -32 + ^ r6: .cfa -28 + ^ r7: .cfa -24 + ^ r8: .cfa -20 + ^ r9: .cfa -16 + ^
STACK CFI 11882 .cfa: sp 64 +
STACK CFI INIT 1193c 22 .cfa: sp 0 + .ra: lr
STACK CFI 11942 .cfa: sp 4 + .ra: .cfa -4 + ^
STACK CFI 11944 .cfa: sp 16 +
STACK CFI INIT 11960 28 .cfa: sp 0 + .ra: lr
STACK CFI 11962 .cfa: sp 12 + .ra: .cfa -4 + ^ r4: .cfa -12 + ^ r5: .cfa -8 + ^
STACK CFI 1196a .cfa: sp 24 +
STACK CFI INIT 11988 f2 .cfa: sp 0 + .ra: lr
STACK CFI 1198c .cfa: sp 36 + .ra: .cfa -4 + ^ r10: .cfa -12 + ^ r11: .cfa -8 + ^ r4: .cfa -36 + ^ r5: .cfa -32 + ^ r6: .cfa -28 + ^ r7: .cfa -24 + ^ r8: .cfa -20 + ^ r9: .cfa -16 + ^
STACK CFI 1199a .cfa: sp 72 +
STACK CFI INIT 11a7c 28 .cfa: sp 0 + .ra: lr
STACK CFI 11a82 .cfa: sp 8 + .ra: .cfa -4 + ^ r4: .cfa -8 + ^
STACK CFI 11a86 .cfa: sp 16 +
STACK CFI INIT 11aa4 20 .cfa: sp 0 + .ra: lr
STACK CFI 11aaa .cfa: sp 8 + .ra: .cfa -4 + ^ r4: .cfa -8 + ^
STACK CFI 11aae .cfa: sp 16 +
STACK CFI INIT 11ac4 2e .cfa: sp 0 + .ra: lr
STACK CFI 11ac6 .cfa: sp 20 + .ra: .cfa -4 + ^ r4: .cfa -20 + ^ r5: .cfa -16 + ^ r6: .cfa -12 + ^ r7: .cfa -8 + ^
STACK CFI 11ad4 .cfa: sp 32 +
STACK CFI INIT 11af4 11a .cfa: sp 0 + .ra: lr
STACK CFI 11af8 .cfa: sp 36 + .ra: .cfa -4 + ^ r10: .cfa -12 + ^ r11: .cfa -8 + ^ r4: .cfa -36 + ^ r5: .cfa -32 + ^ r6: .cfa -28 + ^ r7: .cfa -24 + ^ r8: .cfa -20 + ^ r9: .cfa -16 + ^
STACK CFI 11afe .cfa: sp 64 +
STACK CFI INIT 11c10 20 .cfa: sp 0 + .ra: lr
STACK CFI 11c16 .cfa: sp 8 + .ra: .cfa -4 + ^ r4: .cfa -8 + ^
STACK CFI 11c1a .cfa: sp 16 +
STACK CFI INIT 11c30 2e .cfa: sp 0 + .ra: lr
STACK CFI 11c32 .cfa: sp 20 + .ra: .cfa -4 + ^ r4: .cfa -20 + ^ r5: .cfa -16 + ^ r6: .cfa -12 + ^ r7: .cfa -8 + ^
STACK CFI 11c40 .cfa: sp 32 +
STACK CFI INIT 11c60 11a .cfa: sp 0 + .ra: lr
STACK CFI 11c64 .cfa: sp 36 + .ra: .cfa -4 + ^ r10: .cfa -12 + ^ r11: .cfa -8 + ^ r4: .cfa -36 + ^ r5: .cfa -32 + ^ r6: .cfa -28 + ^ r7: .cfa -24 + ^ r8: .cfa -20 + ^ r9: .cfa -16 + ^
STACK CFI 11c72 .cfa: sp 64 +
STACK CFI INIT 11d7c 28 .cfa: sp 0 + .ra: lr
STACK CFI 11d82 .cfa: sp 8 + .ra: .cfa -4 + ^ r4: .cfa -8 + ^
STACK CFI 11d86 .cfa: sp 16 +
STACK CFI INIT 11da4 1e .cfa: sp 0 + .ra: lr
STACK CFI 11da6 .cfa: sp 8 + .ra: .cfa -4 + ^ r4: .cfa -8 + ^
STACK CFI 11daa .cfa: sp 16 +
STACK CFI INIT 11dc4 28 .cfa: sp 0 + .ra: lr
STACK CFI 11dc6 .cfa: sp 12 + .ra: .cfa -4 + ^ r4: .cfa -12 + ^ r5: .cfa -8 + ^
STACK CFI 11dce .cfa: sp 24 +
STACK CFI INIT 11dec 7c .cfa: sp 0 + .ra: lr
STACK CFI 11df0 .cfa: sp 28 + .ra: .cfa -4 + ^ r4: .cfa -28 + ^ r5: .cfa -24 + ^ r6: .cfa -20 + ^ r7: .cfa -16 + ^ r8: .cfa -12 + ^ r9: .cfa -8 + ^
STACK CFI 11df2 .cfa: sp 48 +
STACK CFI INIT 11e68 20 .cfa: sp 0 + .ra: lr
STACK CFI 11e6e .cfa: sp 8 + .ra: .cfa -4 + ^ r4: .cfa -8 + ^
STACK CFI 11e72 .cfa: sp 16 +
STACK CFI INIT 11e88 26 .cfa: sp 0 + .ra: lr
STACK CFI 11e8a .cfa: sp 12 + .ra: .cfa -4 + ^ r4: .cfa -12 + ^ r5: .cfa -8 + ^
STACK CFI 11e8e .cfa: sp 24 +
STACK CFI INIT 11eb0 a0 .cfa: sp 0 + .ra: lr
STACK CFI 11eb4 .cfa: sp 32 + .ra: .cfa -4 + ^ r10: .cfa -8 + ^ r4: .cfa -32 + ^ r5: .cfa -28 + ^ r6: .cfa -24 + ^ r7: .cfa -20 + ^ r8: .cfa -16 + ^ r9: .cfa -12 + ^
STACK CFI 11eb8 .cfa: sp 48 +
STACK CFI INIT 11f50 6 .cfa: sp 0 + .ra: lr
STACK CFI INIT 11f58 6 .cfa: sp 0 + .ra: lr
STACK CFI INIT 11f60 6 .cfa: sp 0 + .ra: lr
STACK CFI INIT 11f68 6 .cfa: sp 0 + .ra: lr
STACK CFI INIT 11f70 6 .cfa: sp 0 + .ra: lr
STACK CFI INIT 11f78 6 .cfa: sp 0 + .ra: lr
STACK CFI INIT 11f80 6 .cfa: sp 0 + .ra: lr
STACK CFI INIT 11f88 6 .cfa: sp 0 + .ra: lr
STACK CFI INIT 11f90 6 .cfa: sp 0 + .ra: lr
STACK CFI INIT 11f98 6 .cfa: sp 0 + .ra: lr
STACK CFI INIT 11fa0 6 .cfa: sp 0 + .ra: lr
STACK CFI INIT 11fa8 6 .cfa: sp 0 + .ra: lr
STACK CFI INIT 11fb0 6 .cfa: sp 0 + .ra: lr
STACK CFI INIT 11fb8 6 .cfa: sp 0 + .ra: lr
STACK CFI INIT 11fc0 30 .cfa: sp 0 + .ra: lr
STACK CFI 11fc6 .cfa: sp 4 + .ra: .cfa -4 + ^
STACK CFI 11fcc .cfa: sp 16 +
STACK CFI INIT 11ff0 26 .cfa: sp 0 + .ra: lr
STACK CFI 11ff2 .cfa: sp 4 + .ra: .cfa -4 + ^
STACK CFI 11ff6 .cfa: sp 16 +
STACK CFI INIT 12018 40 .cfa: sp 0 + .ra: lr
STACK CFI 1201c .cfa: sp 16 + .ra: .cfa -4 + ^ r4: .cfa -16 + ^ r5: .cfa -12 + ^ r6: .cfa -8 + ^
STACK CFI 12022 .cfa: sp 24 +
STACK CFI INIT 12058 84 .cfa: sp 0 + .ra: lr
STACK CFI 1205e .cfa: sp 24 + .ra: .cfa -4 + ^ r4: .cfa -24 + ^ r5: .cfa -20 + ^ r6: .cfa -16 + ^ r7: .cfa -12 + ^ r8: .cfa -8 + ^
STACK CFI 12062 .cfa: sp 40 +
STACK CFI INIT 120dc 26 .cfa: sp 0 + .ra: lr
STACK CFI 120de .cfa: sp 4 + .ra: .cfa -4 + ^
STACK CFI 120e2 .cfa: sp 16 +
STACK CFI INIT 12104 40 .cfa: sp 0 + .ra: lr
STACK CFI 12108 .cfa: sp 16 + .ra: .cfa -4 + ^ r4: .cfa -16 + ^ r5: .cfa -12 + ^ r6: .cfa -8 + ^
STACK CFI 1210e .cfa: sp 24 +
STACK CFI INIT 12144 84 .cfa: sp 0 + .ra: lr
STACK CFI 1214a .cfa: sp 24 + .ra: .cfa -4 + ^ r4: .cfa -24 + ^ r5: .cfa -20 + ^ r6: .cfa -16 + ^ r7: .cfa -12 + ^ r8: .cfa -8 + ^
STACK CFI 1214e .cfa: sp 40 +
STACK CFI INIT 121c8 2c .cfa: sp 0 + .ra: lr
STACK CFI 121ca .cfa: sp 4 + .ra: .cfa -4 + ^
STACK CFI 121ce .cfa: sp 16 +
STACK CFI INIT 121f4 26 .cfa: sp 0 + .ra: lr
STACK CFI 121f6 .cfa: sp 4 + .ra: .cfa -4 + ^
STACK CFI 121fa .cfa: sp 16 +
STACK CFI INIT 1221c 3c .cfa: sp 0 + .ra: lr
STACK CFI 12224 .cfa: sp 8 + .ra: .cfa -4 + ^ r4: .cfa -8 + ^
STACK CFI 1222c .cfa: sp 16 +
STACK CFI INIT 12258 7a .cfa: sp 0 + .ra: lr
STACK CFI 1225e .cfa: sp 28 + .ra: .cfa -4 + ^ r4: .cfa -28 + ^ r5: .cfa -24 + ^ r6: .cfa -20 + ^ r7: .cfa -16 + ^ r8: .cfa -12 + ^ r9: .cfa -8 + ^
STACK CFI 12262 .cfa: sp 48 +
STACK CFI INIT 122d4 26 .cfa: sp 0 + .ra: lr
STACK CFI 122d6 .cfa: sp 4 + .ra: .cfa -4 + ^
STACK CFI 122da .cfa: sp 16 +
STACK CFI INIT 122fc 3c .cfa: sp 0 + .ra: lr
STACK CFI 12304 .cfa: sp 8 + .ra: .cfa -4 + ^ r4: .cfa -8 + ^
STACK CFI 1230c .cfa: sp 16 +
STACK CFI INIT 12338 7a .cfa: sp 0 + .ra: lr
STACK CFI 1233e .cfa: sp 28 + .ra: .cfa -4 + ^ r4: .cfa -28 + ^ r5: .cfa -24 + ^ r6: .cfa -20 + ^ r7: .cfa -16 + ^ r8: .cfa -12 + ^ r9: .cfa -8 + ^
STACK CFI 12342 .cfa: sp 48 +
STACK CFI INIT 123b4 16 .cfa: sp 0 + .ra: lr
STACK CFI INIT 123cc 16 .cfa: sp 0 + .ra: lr
STACK CFI INIT 123e4 12 .cfa: sp 0 + .ra: lr
STACK CFI INIT 123f8 20 .cfa: sp 0 + .ra: lr
STACK CFI 123fa .cfa: sp 4 + r4: .cfa -4 + ^
STACK CFI INIT 12418 16 .cfa: sp 0 + .ra: lr
STACK CFI INIT 12430 12 .cfa: sp 0 + .ra: lr
STACK CFI INIT 12444 20 .cfa: sp 0 + .ra: lr
STACK CFI 12446 .cfa: sp 4 + r4: .cfa -4 + ^
STACK CFI INIT 12464 16 .cfa: sp 0 + .ra: lr
STACK CFI INIT 1247c 16 .cfa: sp 0 + .ra: lr
STACK CFI INIT 12494 12 .cfa: sp 0 + .ra: lr
STACK CFI INIT 124a8 1a .cfa: sp 0 + .ra: lr
STACK CFI INIT 124c4 16 .cfa: sp 0 + .ra: lr
STACK CFI INIT 124dc 12 .cfa: sp 0 + .ra: lr
STACK CFI INIT 124f0 1a .cfa: sp 0 + .ra: lr
STACK CFI INIT 1250c 1a .cfa: sp 0 + .ra: lr
STACK CFI INIT 12528 22 .cfa: sp 0 + .ra: lr
STACK CFI INIT 1254c 36 .cfa: sp 0 + .ra: lr
STACK CFI 12552 .cfa: sp 8 + r4: .cfa -8 + ^ r5: .cfa -4 + ^
STACK CFI INIT 12584 22 .cfa: sp 0 + .ra: lr
STACK CFI INIT 125a8 36 .cfa: sp 0 + .ra: lr
STACK CFI 125ae .cfa: sp 8 + r4: .cfa -8 + ^ r5: .cfa -4 + ^
STACK CFI INIT 125e0 c .cfa: sp 0 + .ra: lr
STACK CFI INIT 125ec 10 .cfa: sp 0 + .ra: lr
STACK CFI INIT 125fc 18 .cfa: sp 0 + .ra: lr
STACK CFI INIT 12614 10 .cfa: sp 0 + .ra: lr
STACK CFI INIT 12624 18 .cfa: sp 0 + .ra: lr
STACK CFI INIT 1263c 70 .cfa: sp 0 + .ra: lr
STACK CFI 12642 .cfa: sp 8 + r4: .cfa -8 + ^ r5: .cfa -4 + ^
STACK CFI INIT 126ac 70 .cfa: sp 0 + .ra: lr
STACK CFI 126b2 .cfa: sp 8 + r4: .cfa -8 + ^ r5: .cfa -4 + ^
STACK CFI INIT 1271c 24 .cfa: sp 0 + .ra: lr
STACK CFI 12722 .cfa: sp 8 + r4: .cfa -8 + ^ r5: .cfa -4 + ^
STACK CFI INIT 12740 24 .cfa: sp 0 + .ra: lr
STACK CFI 12746 .cfa: sp 8 + r4: .cfa -8 + ^ r5: .cfa -4 + ^
STACK CFI INIT 12764 26 .cfa: sp 0 + .ra: lr
STACK CFI INIT 1278c 28 .cfa: sp 0 + .ra: lr
STACK CFI INIT 127b4 22 .cfa: sp 0 + .ra: lr
STACK CFI INIT 127d8 4a .cfa: sp 0 + .ra: lr
STACK CFI 127da .cfa: sp 12 + r4: .cfa -12 + ^ r5: .cfa -8 + ^ r6: .cfa -4 + ^
STACK CFI INIT 12824 28 .cfa: sp 0 + .ra: lr
STACK CFI INIT 1284c 22 .cfa: sp 0 + .ra: lr
STACK CFI INIT 12870 4a .cfa: sp 0 + .ra: lr
STACK CFI 12872 .cfa: sp 12 + r4: .cfa -12 + ^ r5: .cfa -8 + ^ r6: .cfa -4 + ^
STACK CFI INIT 128bc 26 .cfa: sp 0 + .ra: lr
STACK CFI INIT 128e4 28 .cfa: sp 0 + .ra: lr
STACK CFI INIT 1290c 22 .cfa: sp 0 + .ra: lr
STACK CFI INIT 12930 4e .cfa: sp 0 + .ra: lr
STACK CFI 12932 .cfa: sp 12 + r4: .cfa -12 + ^ r5: .cfa -8 + ^ r6: .cfa -4 + ^
STACK CFI INIT 12980 28 .cfa: sp 0 + .ra: lr
STACK CFI INIT 129a8 22 .cfa: sp 0 + .ra: lr
STACK CFI INIT 129cc 4e .cfa: sp 0 + .ra: lr
STACK CFI 129ce .cfa: sp 12 + r4: .cfa -12 + ^ r5: .cfa -8 + ^ r6: .cfa -4 + ^
STACK CFI INIT 12a1c 18 .cfa: sp 0 + .ra: lr
STACK CFI INIT 12a34 18 .cfa: sp 0 + .ra: lr
STACK CFI INIT 12a4c 18 .cfa: sp 0 + .ra: lr
STACK CFI INIT 12a64 30 .cfa: sp 0 + .ra: lr
STACK CFI 12a66 .cfa: sp 4 + r4: .cfa -4 + ^
STACK CFI INIT 12a94 18 .cfa: sp 0 + .ra: lr
STACK CFI INIT 12aac 18 .cfa: sp 0 + .ra: lr
STACK CFI INIT 12ac4 30 .cfa: sp 0 + .ra: lr
STACK CFI 12ac6 .cfa: sp 4 + r4: .cfa -4 + ^
STACK CFI INIT 12af4 6 .cfa: sp 0 + .ra: lr
STACK CFI INIT 12afc 6 .cfa: sp 0 + .ra: lr
STACK CFI INIT 12b04 6 .cfa: sp 0 + .ra: lr
STACK CFI INIT 12b0c 10 .cfa: sp 0 + .ra: lr
STACK CFI 12b0e .cfa: sp 8 + .ra: .cfa -4 + ^ r4: .cfa -8 + ^
STACK CFI 12b10 .cfa: sp 16 +
STACK CFI INIT 12b1c 6 .cfa: sp 0 + .ra: lr
STACK CFI INIT 12b24 6 .cfa: sp 0 + .ra: lr
STACK CFI INIT 12b2c 10 .cfa: sp 0 + .ra: lr
STACK CFI 12b2e .cfa: sp 8 + .ra: .cfa -4 + ^ r4: .cfa -8 + ^
STACK CFI 12b30 .cfa: sp 16 +
STACK CFI INIT 12b3c 6 .cfa: sp 0 + .ra: lr
STACK CFI INIT 12b44 6 .cfa: sp 0 + .ra: lr
STACK CFI INIT 12b4c 6 .cfa: sp 0 + .ra: lr
STACK CFI INIT 12b54 10 .cfa: sp 0 + .ra: lr
STACK CFI 12b56 .cfa: sp 8 + .ra: .cfa -4 + ^ r4: .cfa -8 + ^
STACK CFI 12b58 .cfa: sp 16 +
STACK CFI INIT 12b64 6 .cfa: sp 0 + .ra: lr
STACK CFI INIT 12b6c 6 .cfa: sp 0 + .ra: lr
STACK CFI INIT 12b74 10 .cfa: sp 0 + .ra: lr
STACK CFI 12b76 .cfa: sp 8 + .ra: .cfa -4 + ^ r4: .cfa -8 + ^
STACK CFI 12b78 .cfa: sp 16 +
STACK CFI INIT 12b84 6 .cfa: sp 0 + .ra: lr
STACK CFI INIT 12b8c 6 .cfa: sp 0 + .ra: lr
STACK CFI INIT 12b94 6 .cfa: sp 0 + .ra: lr
STACK CFI INIT 12b9c 10 .cfa: sp 0 + .ra: lr
STACK CFI 12b9e .cfa: sp 8 + .ra: .cfa -4 + ^ r4: .cfa -8 + ^
STACK CFI 12ba0 .cfa: sp 16 +
STACK CFI INIT 12bac 6 .cfa: sp 0 + .ra: lr
STACK CFI INIT 12bb4 6 .cfa: sp 0 + .ra: lr
STACK CFI INIT 12bbc 10 .cfa: sp 0 + .ra: lr
STACK CFI 12bbe .cfa: sp 8 + .ra: .cfa -4 + ^ r4: .cfa -8 + ^
STACK CFI 12bc0 .cfa: sp 16 +
STACK CFI INIT 12bcc 6 .cfa: sp 0 + .ra: lr
STACK CFI INIT 12bd4 6 .cfa: sp 0 + .ra: lr
STACK CFI INIT 12bdc 6 .cfa: sp 0 + .ra: lr
STACK CFI INIT 12be4 6 .cfa: sp 0 + .ra: lr
STACK CFI INIT 12bec 6 .cfa: sp 0 + .ra: lr
STACK CFI INIT 12bf4 6 .cfa: sp 0 + .ra: lr
STACK CFI INIT 12bfc 6 .cfa: sp 0 + .ra: lr
STACK CFI INIT 12c04 6 .cfa: sp 0 + .ra: lr
STACK CFI INIT 12c0c 6 .cfa: sp 0 + .ra: lr
STACK CFI INIT 12c14 4 .cfa: sp 0 + .ra: lr
STACK CFI INIT 12c18 2c .cfa: sp 0 + .ra: lr
STACK CFI 12c1a .cfa: sp 8 + r4: .cfa -8 + ^ r5: .cfa -4 + ^
STACK CFI INIT 12c44 6 .cfa: sp 0 + .ra: lr
STACK CFI INIT 12c4c 4 .cfa: sp 0 + .ra: lr
STACK CFI INIT 12c50 2c .cfa: sp 0 + .ra: lr
STACK CFI 12c52 .cfa: sp 8 + r4: .cfa -8 + ^ r5: .cfa -4 + ^
STACK CFI INIT 12c7c 1a .cfa: sp 0 + .ra: lr
STACK CFI INIT 12c98 1a .cfa: sp 0 + .ra: lr
STACK CFI INIT 12cb4 14 .cfa: sp 0 + .ra: lr
STACK CFI INIT 12cc8 2a .cfa: sp 0 + .ra: lr
STACK CFI 12cca .cfa: sp 8 + r4: .cfa -8 + ^ r5: .cfa -4 + ^
STACK CFI INIT 12cf4 1a .cfa: sp 0 + .ra: lr
STACK CFI INIT 12d10 14 .cfa: sp 0 + .ra: lr
STACK CFI INIT 12d24 2a .cfa: sp 0 + .ra: lr
STACK CFI 12d26 .cfa: sp 8 + r4: .cfa -8 + ^ r5: .cfa -4 + ^
STACK CFI INIT 12d50 10 .cfa: sp 0 + .ra: lr
STACK CFI INIT 12d60 10 .cfa: sp 0 + .ra: lr
STACK CFI INIT 12d70 c .cfa: sp 0 + .ra: lr
STACK CFI INIT 12d7c 16 .cfa: sp 0 + .ra: lr
STACK CFI INIT 12d94 10 .cfa: sp 0 + .ra: lr
STACK CFI INIT 12da4 c .cfa: sp 0 + .ra: lr
STACK CFI INIT 12db0 16 .cfa: sp 0 + .ra: lr
STACK CFI INIT 12dc8 6 .cfa: sp 0 + .ra: lr
STACK CFI INIT 12dd0 6 .cfa: sp 0 + .ra: lr
STACK CFI INIT 12dd8 4 .cfa: sp 0 + .ra: lr
STACK CFI INIT 12ddc 6 .cfa: sp 0 + .ra: lr
STACK CFI INIT 12de4 6 .cfa: sp 0 + .ra: lr
STACK CFI INIT 12dec 4 .cfa: sp 0 + .ra: lr
STACK CFI INIT 12df0 6 .cfa: sp 0 + .ra: lr
STACK CFI INIT 12df8 6 .cfa: sp 0 + .ra: lr
STACK CFI INIT 12e00 6 .cfa: sp 0 + .ra: lr
STACK CFI INIT 12e08 6 .cfa: sp 0 + .ra: lr
STACK CFI INIT 12e10 10 .cfa: sp 0 + .ra: lr
STACK CFI 12e12 .cfa: sp 8 + .ra: .cfa -4 + ^ r4: .cfa -8 + ^
STACK CFI 12e14 .cfa: sp 16 +
STACK CFI INIT 12e20 6 .cfa: sp 0 + .ra: lr
STACK CFI INIT 12e28 6 .cfa: sp 0 + .ra: lr
STACK CFI INIT 12e30 10 .cfa: sp 0 + .ra: lr
STACK CFI 12e32 .cfa: sp 8 + .ra: .cfa -4 + ^ r4: .cfa -8 + ^
STACK CFI 12e34 .cfa: sp 16 +
STACK CFI INIT 12e40 6 .cfa: sp 0 + .ra: lr
STACK CFI INIT 12e48 6 .cfa: sp 0 + .ra: lr
STACK CFI INIT 12e50 6 .cfa: sp 0 + .ra: lr
STACK CFI INIT 12e58 10 .cfa: sp 0 + .ra: lr
STACK CFI 12e5a .cfa: sp 8 + .ra: .cfa -4 + ^ r4: .cfa -8 + ^
STACK CFI 12e5c .cfa: sp 16 +
STACK CFI INIT 12e68 6 .cfa: sp 0 + .ra: lr
STACK CFI INIT 12e70 6 .cfa: sp 0 + .ra: lr
STACK CFI INIT 12e78 10 .cfa: sp 0 + .ra: lr
STACK CFI 12e7a .cfa: sp 8 + .ra: .cfa -4 + ^ r4: .cfa -8 + ^
STACK CFI 12e7c .cfa: sp 16 +
STACK CFI INIT 12e88 6 .cfa: sp 0 + .ra: lr
STACK CFI INIT 12e90 6 .cfa: sp 0 + .ra: lr
STACK CFI INIT 12e98 6 .cfa: sp 0 + .ra: lr
STACK CFI INIT 12ea0 10 .cfa: sp 0 + .ra: lr
STACK CFI 12ea2 .cfa: sp 8 + .ra: .cfa -4 + ^ r4: .cfa -8 + ^
STACK CFI 12ea4 .cfa: sp 16 +
STACK CFI INIT 12eb0 6 .cfa: sp 0 + .ra: lr
STACK CFI INIT 12eb8 6 .cfa: sp 0 + .ra: lr
STACK CFI INIT 12ec0 10 .cfa: sp 0 + .ra: lr
STACK CFI 12ec2 .cfa: sp 8 + .ra: .cfa -4 + ^ r4: .cfa -8 + ^
STACK CFI 12ec4 .cfa: sp 16 +
STACK CFI INIT 12ed0 6 .cfa: sp 0 + .ra: lr
STACK CFI INIT 12ed8 6 .cfa: sp 0 + .ra: lr
STACK CFI INIT 12ee0 6 .cfa: sp 0 + .ra: lr
STACK CFI INIT 12ee8 6 .cfa: sp 0 + .ra: lr
STACK CFI INIT 12ef0 6 .cfa: sp 0 + .ra: lr
STACK CFI INIT 12ef8 6 .cfa: sp 0 + .ra: lr
STACK CFI INIT 12f00 6 .cfa: sp 0 + .ra: lr
STACK CFI INIT 12f08 6 .cfa: sp 0 + .ra: lr
STACK CFI INIT 12f10 6 .cfa: sp 0 + .ra: lr
STACK CFI INIT 12f18 4 .cfa: sp 0 + .ra: lr
STACK CFI INIT 12f1c 26 .cfa: sp 0 + .ra: lr
STACK CFI 12f1e .cfa: sp 8 + r4: .cfa -8 + ^ r5: .cfa -4 + ^
STACK CFI INIT 12f44 6 .cfa: sp 0 + .ra: lr
STACK CFI INIT 12f4c 4 .cfa: sp 0 + .ra: lr
STACK CFI INIT 12f50 26 .cfa: sp 0 + .ra: lr
STACK CFI 12f52 .cfa: sp 8 + r4: .cfa -8 + ^ r5: .cfa -4 + ^
STACK CFI INIT 12f78 6 .cfa: sp 0 + .ra: lr
STACK CFI INIT 12f80 4 .cfa: sp 0 + .ra: lr
STACK CFI INIT 12f84 a .cfa: sp 0 + .ra: lr
STACK CFI INIT 12f90 4 .cfa: sp 0 + .ra: lr
STACK CFI INIT 12f94 6 .cfa: sp 0 + .ra: lr
STACK CFI INIT 12f9c e .cfa: sp 0 + .ra: lr
STACK CFI INIT 12fac 6 .cfa: sp 0 + .ra: lr
STACK CFI INIT 12fb4 8 .cfa: sp 0 + .ra: lr
STACK CFI INIT 12fbc 4 .cfa: sp 0 + .ra: lr
STACK CFI INIT 12fc0 a .cfa: sp 0 + .ra: lr
STACK CFI INIT 12fcc 8 .cfa: sp 0 + .ra: lr
STACK CFI INIT 12fd4 6 .cfa: sp 0 + .ra: lr
STACK CFI INIT 12fdc e .cfa: sp 0 + .ra: lr
STACK CFI INIT 12fec 1c .cfa: sp 0 + .ra: lr
STACK CFI INIT 13008 1c .cfa: sp 0 + .ra: lr
STACK CFI INIT 13024 1c .cfa: sp 0 + .ra: lr
STACK CFI INIT 13040 20 .cfa: sp 0 + .ra: lr
STACK CFI INIT 13060 12 .cfa: sp 0 + .ra: lr
STACK CFI 13062 .cfa: sp 8 + .ra: .cfa -4 + ^ r3: .cfa -8 + ^
STACK CFI INIT 13074 14 .cfa: sp 0 + .ra: lr
STACK CFI 13076 .cfa: sp 8 + .ra: .cfa -4 + ^ r3: .cfa -8 + ^
STACK CFI INIT 13088 4 .cfa: sp 0 + .ra: lr
STACK CFI INIT 1308c 4 .cfa: sp 0 + .ra: lr
STACK CFI INIT 13090 a .cfa: sp 0 + .ra: lr
STACK CFI INIT 1309c 6 .cfa: sp 0 + .ra: lr
STACK CFI INIT 130a4 4 .cfa: sp 0 + .ra: lr
STACK CFI INIT 130a8 e .cfa: sp 0 + .ra: lr
STACK CFI INIT 130b8 4 .cfa: sp 0 + .ra: lr
STACK CFI INIT 130bc 6 .cfa: sp 0 + .ra: lr
STACK CFI INIT 130c4 4 .cfa: sp 0 + .ra: lr
STACK CFI INIT 130c8 a .cfa: sp 0 + .ra: lr
STACK CFI INIT 130d4 6 .cfa: sp 0 + .ra: lr
STACK CFI INIT 130dc 6 .cfa: sp 0 + .ra: lr
STACK CFI INIT 130e4 e .cfa: sp 0 + .ra: lr
STACK CFI INIT 130f4 1a .cfa: sp 0 + .ra: lr
STACK CFI INIT 13110 1a .cfa: sp 0 + .ra: lr
STACK CFI INIT 1312c 1a .cfa: sp 0 + .ra: lr
STACK CFI INIT 13148 1e .cfa: sp 0 + .ra: lr
STACK CFI INIT 13168 12 .cfa: sp 0 + .ra: lr
STACK CFI 1316a .cfa: sp 8 + .ra: .cfa -4 + ^ r3: .cfa -8 + ^
STACK CFI INIT 1317c 14 .cfa: sp 0 + .ra: lr
STACK CFI 1317e .cfa: sp 8 + .ra: .cfa -4 + ^ r3: .cfa -8 + ^
STACK CFI INIT 13190 4 .cfa: sp 0 + .ra: lr
STACK CFI INIT 13194 4 .cfa: sp 0 + .ra: lr
STACK CFI INIT 13198 a .cfa: sp 0 + .ra: lr
STACK CFI INIT 131a4 4 .cfa: sp 0 + .ra: lr
STACK CFI INIT 131a8 4 .cfa: sp 0 + .ra: lr
STACK CFI INIT 131ac 4 .cfa: sp 0 + .ra: lr
STACK CFI INIT 131b0 4 .cfa: sp 0 + .ra: lr
STACK CFI INIT 131b4 4 .cfa: sp 0 + .ra: lr
STACK CFI INIT 131b8 4 .cfa: sp 0 + .ra: lr
STACK CFI INIT 131bc a .cfa: sp 0 + .ra: lr
STACK CFI INIT 131c8 4 .cfa: sp 0 + .ra: lr
STACK CFI INIT 131cc 4 .cfa: sp 0 + .ra: lr
STACK CFI INIT 131d0 a .cfa: sp 0 + .ra: lr
STACK CFI INIT 131dc 16 .cfa: sp 0 + .ra: lr
STACK CFI INIT 131f4 16 .cfa: sp 0 + .ra: lr
STACK CFI INIT 1320c 16 .cfa: sp 0 + .ra: lr
STACK CFI INIT 13224 18 .cfa: sp 0 + .ra: lr
STACK CFI INIT 1323c 10 .cfa: sp 0 + .ra: lr
STACK CFI 1323e .cfa: sp 8 + .ra: .cfa -4 + ^ r3: .cfa -8 + ^
STACK CFI INIT 1324c 12 .cfa: sp 0 + .ra: lr
STACK CFI 1324e .cfa: sp 8 + .ra: .cfa -4 + ^ r3: .cfa -8 + ^
STACK CFI INIT 13260 4 .cfa: sp 0 + .ra: lr
STACK CFI INIT 13264 4 .cfa: sp 0 + .ra: lr
STACK CFI INIT 13268 4 .cfa: sp 0 + .ra: lr
STACK CFI INIT 1326c 4 .cfa: sp 0 + .ra: lr
STACK CFI INIT 13270 4 .cfa: sp 0 + .ra: lr
STACK CFI INIT 13274 8 .cfa: sp 0 + .ra: lr
STACK CFI INIT 1327c 4 .cfa: sp 0 + .ra: lr
STACK CFI INIT 13280 4 .cfa: sp 0 + .ra: lr
STACK CFI INIT 13284 8 .cfa: sp 0 + .ra: lr
STACK CFI INIT 1328c 8 .cfa: sp 0 + .ra: lr
STACK CFI INIT 13294 4 .cfa: sp 0 + .ra: lr
STACK CFI INIT 13298 4 .cfa: sp 0 + .ra: lr
STACK CFI INIT 1329c e .cfa: sp 0 + .ra: lr
STACK CFI INIT 132ac 28 .cfa: sp 0 + .ra: lr
STACK CFI 132b4 .cfa: sp 8 + r4: .cfa -8 + ^ r5: .cfa -4 + ^
STACK CFI INIT 132d4 28 .cfa: sp 0 + .ra: lr
STACK CFI 132dc .cfa: sp 8 + r4: .cfa -8 + ^ r5: .cfa -4 + ^
STACK CFI INIT 132fc 28 .cfa: sp 0 + .ra: lr
STACK CFI 13304 .cfa: sp 4 + r4: .cfa -4 + ^
STACK CFI INIT 13324 30 .cfa: sp 0 + .ra: lr
STACK CFI 1332c .cfa: sp 8 + r4: .cfa -8 + ^ r5: .cfa -4 + ^
STACK CFI INIT 13354 10 .cfa: sp 0 + .ra: lr
STACK CFI 13356 .cfa: sp 8 + .ra: .cfa -4 + ^ r3: .cfa -8 + ^
STACK CFI INIT 13364 12 .cfa: sp 0 + .ra: lr
STACK CFI 13366 .cfa: sp 8 + .ra: .cfa -4 + ^ r3: .cfa -8 + ^
STACK CFI INIT 13378 2 .cfa: sp 0 + .ra: lr
STACK CFI INIT 1337c 6 .cfa: sp 0 + .ra: lr
STACK CFI INIT 13384 4 .cfa: sp 0 + .ra: lr
STACK CFI INIT 13388 a .cfa: sp 0 + .ra: lr
STACK CFI INIT 13394 6 .cfa: sp 0 + .ra: lr
STACK CFI INIT 1339c e .cfa: sp 0 + .ra: lr
STACK CFI INIT 133ac 6 .cfa: sp 0 + .ra: lr
STACK CFI INIT 133b4 6 .cfa: sp 0 + .ra: lr
STACK CFI INIT 133bc 4 .cfa: sp 0 + .ra: lr
STACK CFI INIT 133c0 a .cfa: sp 0 + .ra: lr
STACK CFI INIT 133cc 6 .cfa: sp 0 + .ra: lr
STACK CFI INIT 133d4 6 .cfa: sp 0 + .ra: lr
STACK CFI INIT 133dc e .cfa: sp 0 + .ra: lr
STACK CFI INIT 133ec 1e .cfa: sp 0 + .ra: lr
STACK CFI INIT 1340c 1c .cfa: sp 0 + .ra: lr
STACK CFI INIT 13428 1c .cfa: sp 0 + .ra: lr
STACK CFI INIT 13444 20 .cfa: sp 0 + .ra: lr
STACK CFI INIT 13464 12 .cfa: sp 0 + .ra: lr
STACK CFI 13466 .cfa: sp 8 + .ra: .cfa -4 + ^ r3: .cfa -8 + ^
STACK CFI INIT 13478 14 .cfa: sp 0 + .ra: lr
STACK CFI 1347a .cfa: sp 8 + .ra: .cfa -4 + ^ r3: .cfa -8 + ^
STACK CFI INIT 1348c 4 .cfa: sp 0 + .ra: lr
STACK CFI INIT 13490 2 .cfa: sp 0 + .ra: lr
STACK CFI INIT 13494 4 .cfa: sp 0 + .ra: lr
STACK CFI INIT 13498 a .cfa: sp 0 + .ra: lr
STACK CFI INIT 134a4 4 .cfa: sp 0 + .ra: lr
STACK CFI INIT 134a8 14 .cfa: sp 0 + .ra: lr
STACK CFI 134aa .cfa: sp 8 + r4: .cfa -8 + ^ r5: .cfa -4 + ^
STACK CFI INIT 134bc 4 .cfa: sp 0 + .ra: lr
STACK CFI INIT 134c0 6 .cfa: sp 0 + .ra: lr
STACK CFI INIT 134c8 4 .cfa: sp 0 + .ra: lr
STACK CFI INIT 134cc a .cfa: sp 0 + .ra: lr
STACK CFI INIT 134d8 4 .cfa: sp 0 + .ra: lr
STACK CFI INIT 134dc 4 .cfa: sp 0 + .ra: lr
STACK CFI INIT 134e0 14 .cfa: sp 0 + .ra: lr
STACK CFI 134e2 .cfa: sp 8 + r4: .cfa -8 + ^ r5: .cfa -4 + ^
STACK CFI INIT 134f4 18 .cfa: sp 0 + .ra: lr
STACK CFI INIT 1350c 18 .cfa: sp 0 + .ra: lr
STACK CFI INIT 13524 16 .cfa: sp 0 + .ra: lr
STACK CFI INIT 1353c 18 .cfa: sp 0 + .ra: lr
STACK CFI INIT 13554 10 .cfa: sp 0 + .ra: lr
STACK CFI 13556 .cfa: sp 8 + .ra: .cfa -4 + ^ r3: .cfa -8 + ^
STACK CFI INIT 13564 12 .cfa: sp 0 + .ra: lr
STACK CFI 13566 .cfa: sp 8 + .ra: .cfa -4 + ^ r3: .cfa -8 + ^
STACK CFI INIT 13578 4 .cfa: sp 0 + .ra: lr
STACK CFI INIT 1357c 4 .cfa: sp 0 + .ra: lr
STACK CFI INIT 13580 2 .cfa: sp 0 + .ra: lr
STACK CFI INIT 13584 a .cfa: sp 0 + .ra: lr
STACK CFI INIT 13590 8 .cfa: sp 0 + .ra: lr
STACK CFI INIT 13598 8 .cfa: sp 0 + .ra: lr
STACK CFI INIT 135a0 4 .cfa: sp 0 + .ra: lr
STACK CFI INIT 135a4 4 .cfa: sp 0 + .ra: lr
STACK CFI INIT 135a8 4 .cfa: sp 0 + .ra: lr
STACK CFI INIT 135ac a .cfa: sp 0 + .ra: lr
STACK CFI INIT 135b8 8 .cfa: sp 0 + .ra: lr
STACK CFI INIT 135c0 8 .cfa: sp 0 + .ra: lr
STACK CFI INIT 135c8 8 .cfa: sp 0 + .ra: lr
STACK CFI INIT 135d0 24 .cfa: sp 0 + .ra: lr
STACK CFI 135d8 .cfa: sp 8 + r4: .cfa -8 + ^ r5: .cfa -4 + ^
STACK CFI INIT 135f4 24 .cfa: sp 0 + .ra: lr
STACK CFI 135fc .cfa: sp 8 + r4: .cfa -8 + ^ r5: .cfa -4 + ^
STACK CFI INIT 13618 1e .cfa: sp 0 + .ra: lr
STACK CFI INIT 13638 2e .cfa: sp 0 + .ra: lr
STACK CFI 13640 .cfa: sp 8 + r4: .cfa -8 + ^ r5: .cfa -4 + ^
STACK CFI INIT 13668 10 .cfa: sp 0 + .ra: lr
STACK CFI 1366a .cfa: sp 8 + .ra: .cfa -4 + ^ r3: .cfa -8 + ^
STACK CFI INIT 13678 12 .cfa: sp 0 + .ra: lr
STACK CFI 1367a .cfa: sp 8 + .ra: .cfa -4 + ^ r3: .cfa -8 + ^
STACK CFI INIT 1368c 6 .cfa: sp 0 + .ra: lr
STACK CFI INIT 13694 6 .cfa: sp 0 + .ra: lr
STACK CFI INIT 1369c 6 .cfa: sp 0 + .ra: lr
STACK CFI INIT 136a4 c .cfa: sp 0 + .ra: lr
STACK CFI INIT 136b0 6 .cfa: sp 0 + .ra: lr
STACK CFI INIT 136b8 6 .cfa: sp 0 + .ra: lr
STACK CFI INIT 136c0 8 .cfa: sp 0 + .ra: lr
STACK CFI INIT 136c8 6 .cfa: sp 0 + .ra: lr
STACK CFI INIT 136d0 4 .cfa: sp 0 + .ra: lr
STACK CFI INIT 136d4 a .cfa: sp 0 + .ra: lr
STACK CFI INIT 136e0 4 .cfa: sp 0 + .ra: lr
STACK CFI INIT 136e4 6 .cfa: sp 0 + .ra: lr
STACK CFI INIT 136ec a .cfa: sp 0 + .ra: lr
STACK CFI INIT 136f8 4 .cfa: sp 0 + .ra: lr
STACK CFI INIT 136fc 4 .cfa: sp 0 + .ra: lr
STACK CFI INIT 13700 4 .cfa: sp 0 + .ra: lr
STACK CFI INIT 13704 6 .cfa: sp 0 + .ra: lr
STACK CFI INIT 1370c 12 .cfa: sp 0 + .ra: lr
STACK CFI 1370e .cfa: sp 8 + .ra: .cfa -4 + ^ r3: .cfa -8 + ^
STACK CFI INIT 13720 16 .cfa: sp 0 + .ra: lr
STACK CFI 13722 .cfa: sp 8 + .ra: .cfa -4 + ^ r3: .cfa -8 + ^
STACK CFI INIT 13738 6 .cfa: sp 0 + .ra: lr
STACK CFI INIT 13740 6 .cfa: sp 0 + .ra: lr
STACK CFI INIT 13748 6 .cfa: sp 0 + .ra: lr
STACK CFI INIT 13750 c .cfa: sp 0 + .ra: lr
STACK CFI INIT 1375c 6 .cfa: sp 0 + .ra: lr
STACK CFI INIT 13764 6 .cfa: sp 0 + .ra: lr
STACK CFI INIT 1376c 8 .cfa: sp 0 + .ra: lr
STACK CFI INIT 13774 4 .cfa: sp 0 + .ra: lr
STACK CFI INIT 13778 4 .cfa: sp 0 + .ra: lr
STACK CFI INIT 1377c a .cfa: sp 0 + .ra: lr
STACK CFI INIT 13788 6 .cfa: sp 0 + .ra: lr
STACK CFI INIT 13790 4 .cfa: sp 0 + .ra: lr
STACK CFI INIT 13794 a .cfa: sp 0 + .ra: lr
STACK CFI INIT 137a0 4 .cfa: sp 0 + .ra: lr
STACK CFI INIT 137a4 4 .cfa: sp 0 + .ra: lr
STACK CFI INIT 137a8 4 .cfa: sp 0 + .ra: lr
STACK CFI INIT 137ac 6 .cfa: sp 0 + .ra: lr
STACK CFI INIT 137b4 12 .cfa: sp 0 + .ra: lr
STACK CFI 137b6 .cfa: sp 8 + .ra: .cfa -4 + ^ r3: .cfa -8 + ^
STACK CFI INIT 137c8 16 .cfa: sp 0 + .ra: lr
STACK CFI 137ca .cfa: sp 8 + .ra: .cfa -4 + ^ r3: .cfa -8 + ^
STACK CFI INIT 137e0 4 .cfa: sp 0 + .ra: lr
STACK CFI INIT 137e4 4 .cfa: sp 0 + .ra: lr
STACK CFI INIT 137e8 4 .cfa: sp 0 + .ra: lr
STACK CFI INIT 137ec a .cfa: sp 0 + .ra: lr
STACK CFI INIT 137f8 4 .cfa: sp 0 + .ra: lr
STACK CFI INIT 137fc 4 .cfa: sp 0 + .ra: lr
STACK CFI INIT 13800 a .cfa: sp 0 + .ra: lr
STACK CFI INIT 1380c 4 .cfa: sp 0 + .ra: lr
STACK CFI INIT 13810 4 .cfa: sp 0 + .ra: lr
STACK CFI INIT 13814 a .cfa: sp 0 + .ra: lr
STACK CFI INIT 13820 4 .cfa: sp 0 + .ra: lr
STACK CFI INIT 13824 4 .cfa: sp 0 + .ra: lr
STACK CFI INIT 13828 6 .cfa: sp 0 + .ra: lr
STACK CFI INIT 13830 4 .cfa: sp 0 + .ra: lr
STACK CFI INIT 13834 4 .cfa: sp 0 + .ra: lr
STACK CFI INIT 13838 4 .cfa: sp 0 + .ra: lr
STACK CFI INIT 1383c 6 .cfa: sp 0 + .ra: lr
STACK CFI INIT 13844 10 .cfa: sp 0 + .ra: lr
STACK CFI 13846 .cfa: sp 8 + .ra: .cfa -4 + ^ r3: .cfa -8 + ^
STACK CFI INIT 13854 14 .cfa: sp 0 + .ra: lr
STACK CFI 13856 .cfa: sp 8 + .ra: .cfa -4 + ^ r3: .cfa -8 + ^
STACK CFI INIT 13868 4 .cfa: sp 0 + .ra: lr
STACK CFI INIT 1386c 4 .cfa: sp 0 + .ra: lr
STACK CFI INIT 13870 4 .cfa: sp 0 + .ra: lr
STACK CFI INIT 13874 8 .cfa: sp 0 + .ra: lr
STACK CFI INIT 1387c 4 .cfa: sp 0 + .ra: lr
STACK CFI INIT 13880 4 .cfa: sp 0 + .ra: lr
STACK CFI INIT 13884 a .cfa: sp 0 + .ra: lr
STACK CFI INIT 13890 4 .cfa: sp 0 + .ra: lr
STACK CFI INIT 13894 4 .cfa: sp 0 + .ra: lr
STACK CFI INIT 13898 4 .cfa: sp 0 + .ra: lr
STACK CFI INIT 1389c 4 .cfa: sp 0 + .ra: lr
STACK CFI INIT 138a0 4 .cfa: sp 0 + .ra: lr
STACK CFI INIT 138a4 8 .cfa: sp 0 + .ra: lr
STACK CFI INIT 138ac 4 .cfa: sp 0 + .ra: lr
STACK CFI INIT 138b0 4 .cfa: sp 0 + .ra: lr
STACK CFI INIT 138b4 4 .cfa: sp 0 + .ra: lr
STACK CFI INIT 138b8 6 .cfa: sp 0 + .ra: lr
STACK CFI INIT 138c0 10 .cfa: sp 0 + .ra: lr
STACK CFI 138c2 .cfa: sp 8 + .ra: .cfa -4 + ^ r3: .cfa -8 + ^
STACK CFI INIT 138d0 14 .cfa: sp 0 + .ra: lr
STACK CFI 138d2 .cfa: sp 8 + .ra: .cfa -4 + ^ r3: .cfa -8 + ^
STACK CFI INIT 138e4 4 .cfa: sp 0 + .ra: lr
STACK CFI INIT 138e8 6 .cfa: sp 0 + .ra: lr
STACK CFI INIT 138f0 4 .cfa: sp 0 + .ra: lr
STACK CFI INIT 138f4 a .cfa: sp 0 + .ra: lr
STACK CFI INIT 13900 6 .cfa: sp 0 + .ra: lr
STACK CFI INIT 13908 6 .cfa: sp 0 + .ra: lr
STACK CFI INIT 13910 8 .cfa: sp 0 + .ra: lr
STACK CFI INIT 13918 2 .cfa: sp 0 + .ra: lr
STACK CFI INIT 1391c 6 .cfa: sp 0 + .ra: lr
STACK CFI INIT 13924 4 .cfa: sp 0 + .ra: lr
STACK CFI INIT 13928 a .cfa: sp 0 + .ra: lr
STACK CFI INIT 13934 6 .cfa: sp 0 + .ra: lr
STACK CFI INIT 1393c 8 .cfa: sp 0 + .ra: lr
STACK CFI INIT 13944 6 .cfa: sp 0 + .ra: lr
STACK CFI INIT 1394c 6 .cfa: sp 0 + .ra: lr
STACK CFI INIT 13954 6 .cfa: sp 0 + .ra: lr
STACK CFI INIT 1395c a .cfa: sp 0 + .ra: lr
STACK CFI INIT 13968 12 .cfa: sp 0 + .ra: lr
STACK CFI 1396a .cfa: sp 8 + .ra: .cfa -4 + ^ r3: .cfa -8 + ^
STACK CFI INIT 1397c 16 .cfa: sp 0 + .ra: lr
STACK CFI 1397e .cfa: sp 8 + .ra: .cfa -4 + ^ r3: .cfa -8 + ^
STACK CFI INIT 13994 4 .cfa: sp 0 + .ra: lr
STACK CFI INIT 13998 4 .cfa: sp 0 + .ra: lr
STACK CFI INIT 1399c 4 .cfa: sp 0 + .ra: lr
STACK CFI INIT 139a0 a .cfa: sp 0 + .ra: lr
STACK CFI INIT 139ac 4 .cfa: sp 0 + .ra: lr
STACK CFI INIT 139b0 4 .cfa: sp 0 + .ra: lr
STACK CFI INIT 139b4 a .cfa: sp 0 + .ra: lr
STACK CFI INIT 139c0 4 .cfa: sp 0 + .ra: lr
STACK CFI INIT 139c4 2 .cfa: sp 0 + .ra: lr
STACK CFI INIT 139c8 4 .cfa: sp 0 + .ra: lr
STACK CFI INIT 139cc a .cfa: sp 0 + .ra: lr
STACK CFI INIT 139d8 4 .cfa: sp 0 + .ra: lr
STACK CFI INIT 139dc a .cfa: sp 0 + .ra: lr
STACK CFI INIT 139e8 6 .cfa: sp 0 + .ra: lr
STACK CFI INIT 139f0 4 .cfa: sp 0 + .ra: lr
STACK CFI INIT 139f4 4 .cfa: sp 0 + .ra: lr
STACK CFI INIT 139f8 6 .cfa: sp 0 + .ra: lr
STACK CFI INIT 13a00 10 .cfa: sp 0 + .ra: lr
STACK CFI 13a02 .cfa: sp 8 + .ra: .cfa -4 + ^ r3: .cfa -8 + ^
STACK CFI INIT 13a10 14 .cfa: sp 0 + .ra: lr
STACK CFI 13a12 .cfa: sp 8 + .ra: .cfa -4 + ^ r3: .cfa -8 + ^
STACK CFI INIT 13a24 8 .cfa: sp 0 + .ra: lr
STACK CFI INIT 13a2c 8 .cfa: sp 0 + .ra: lr
STACK CFI INIT 13a34 8 .cfa: sp 0 + .ra: lr
STACK CFI INIT 13a3c e .cfa: sp 0 + .ra: lr
STACK CFI INIT 13a4c 8 .cfa: sp 0 + .ra: lr
STACK CFI INIT 13a54 8 .cfa: sp 0 + .ra: lr
STACK CFI INIT 13a5c 8 .cfa: sp 0 + .ra: lr
STACK CFI INIT 13a64 4 .cfa: sp 0 + .ra: lr
STACK CFI INIT 13a68 4 .cfa: sp 0 + .ra: lr
STACK CFI INIT 13a6c 2 .cfa: sp 0 + .ra: lr
STACK CFI INIT 13a70 a .cfa: sp 0 + .ra: lr
STACK CFI INIT 13a7c 8 .cfa: sp 0 + .ra: lr
STACK CFI INIT 13a84 8 .cfa: sp 0 + .ra: lr
STACK CFI INIT 13a8c 4 .cfa: sp 0 + .ra: lr
STACK CFI INIT 13a90 4 .cfa: sp 0 + .ra: lr
STACK CFI INIT 13a94 4 .cfa: sp 0 + .ra: lr
STACK CFI INIT 13a98 6 .cfa: sp 0 + .ra: lr
STACK CFI INIT 13aa0 10 .cfa: sp 0 + .ra: lr
STACK CFI 13aa2 .cfa: sp 8 + .ra: .cfa -4 + ^ r3: .cfa -8 + ^
STACK CFI INIT 13ab0 14 .cfa: sp 0 + .ra: lr
STACK CFI 13ab2 .cfa: sp 8 + .ra: .cfa -4 + ^ r3: .cfa -8 + ^
STACK CFI INIT 13ac4 4 .cfa: sp 0 + .ra: lr
STACK CFI INIT 13ac8 4 .cfa: sp 0 + .ra: lr
STACK CFI INIT 13acc 4 .cfa: sp 0 + .ra: lr
STACK CFI INIT 13ad0 a .cfa: sp 0 + .ra: lr
STACK CFI INIT 13adc 4 .cfa: sp 0 + .ra: lr
STACK CFI INIT 13ae0 4 .cfa: sp 0 + .ra: lr
STACK CFI INIT 13ae4 e .cfa: sp 0 + .ra: lr
STACK CFI INIT 13af4 6 .cfa: sp 0 + .ra: lr
STACK CFI INIT 13afc 6 .cfa: sp 0 + .ra: lr
STACK CFI INIT 13b04 4 .cfa: sp 0 + .ra: lr
STACK CFI INIT 13b08 6 .cfa: sp 0 + .ra: lr
STACK CFI INIT 13b10 4 .cfa: sp 0 + .ra: lr
STACK CFI INIT 13b14 4 .cfa: sp 0 + .ra: lr
STACK CFI INIT 13b18 a .cfa: sp 0 + .ra: lr
STACK CFI INIT 13b24 6 .cfa: sp 0 + .ra: lr
STACK CFI INIT 13b2c 4 .cfa: sp 0 + .ra: lr
STACK CFI INIT 13b30 4 .cfa: sp 0 + .ra: lr
STACK CFI INIT 13b34 a .cfa: sp 0 + .ra: lr
STACK CFI INIT 13b40 4 .cfa: sp 0 + .ra: lr
STACK CFI INIT 13b44 4 .cfa: sp 0 + .ra: lr
STACK CFI INIT 13b48 e .cfa: sp 0 + .ra: lr
STACK CFI INIT 13b58 6 .cfa: sp 0 + .ra: lr
STACK CFI INIT 13b60 6 .cfa: sp 0 + .ra: lr
STACK CFI INIT 13b68 4 .cfa: sp 0 + .ra: lr
STACK CFI INIT 13b6c 6 .cfa: sp 0 + .ra: lr
STACK CFI INIT 13b74 4 .cfa: sp 0 + .ra: lr
STACK CFI INIT 13b78 4 .cfa: sp 0 + .ra: lr
STACK CFI INIT 13b7c a .cfa: sp 0 + .ra: lr
STACK CFI INIT 13b88 6 .cfa: sp 0 + .ra: lr
STACK CFI INIT 13b90 6 .cfa: sp 0 + .ra: lr
STACK CFI INIT 13b98 4 .cfa: sp 0 + .ra: lr
STACK CFI INIT 13b9c a .cfa: sp 0 + .ra: lr
STACK CFI INIT 13ba8 6 .cfa: sp 0 + .ra: lr
STACK CFI INIT 13bb0 4 .cfa: sp 0 + .ra: lr
STACK CFI INIT 13bb4 14 .cfa: sp 0 + .ra: lr
STACK CFI 13bb6 .cfa: sp 8 + r4: .cfa -8 + ^ r5: .cfa -4 + ^
STACK CFI INIT 13bc8 6 .cfa: sp 0 + .ra: lr
STACK CFI INIT 13bd0 6 .cfa: sp 0 + .ra: lr
STACK CFI INIT 13bd8 4 .cfa: sp 0 + .ra: lr
STACK CFI INIT 13bdc 6 .cfa: sp 0 + .ra: lr
STACK CFI INIT 13be4 4 .cfa: sp 0 + .ra: lr
STACK CFI INIT 13be8 4 .cfa: sp 0 + .ra: lr
STACK CFI INIT 13bec a .cfa: sp 0 + .ra: lr
STACK CFI INIT 13bf8 6 .cfa: sp 0 + .ra: lr
STACK CFI INIT 13c00 6 .cfa: sp 0 + .ra: lr
STACK CFI INIT 13c08 4 .cfa: sp 0 + .ra: lr
STACK CFI INIT 13c0c a .cfa: sp 0 + .ra: lr
STACK CFI INIT 13c18 6 .cfa: sp 0 + .ra: lr
STACK CFI INIT 13c20 4 .cfa: sp 0 + .ra: lr
STACK CFI INIT 13c24 e .cfa: sp 0 + .ra: lr
STACK CFI INIT 13c34 6 .cfa: sp 0 + .ra: lr
STACK CFI INIT 13c3c 6 .cfa: sp 0 + .ra: lr
STACK CFI INIT 13c44 4 .cfa: sp 0 + .ra: lr
STACK CFI INIT 13c48 6 .cfa: sp 0 + .ra: lr
STACK CFI INIT 13c50 4 .cfa: sp 0 + .ra: lr
STACK CFI INIT 13c54 4 .cfa: sp 0 + .ra: lr
STACK CFI INIT 13c58 a .cfa: sp 0 + .ra: lr
STACK CFI INIT 13c64 10 .cfa: sp 0 + .ra: lr
STACK CFI 13c66 .cfa: sp 8 + .ra: .cfa -4 + ^ r3: .cfa -8 + ^
STACK CFI INIT 13c74 10 .cfa: sp 0 + .ra: lr
STACK CFI 13c76 .cfa: sp 8 + .ra: .cfa -4 + ^ r3: .cfa -8 + ^
STACK CFI INIT 13c84 10 .cfa: sp 0 + .ra: lr
STACK CFI 13c86 .cfa: sp 8 + .ra: .cfa -4 + ^ r3: .cfa -8 + ^
STACK CFI INIT 13c94 10 .cfa: sp 0 + .ra: lr
STACK CFI 13c96 .cfa: sp 8 + .ra: .cfa -4 + ^ r3: .cfa -8 + ^
STACK CFI INIT 13ca4 10 .cfa: sp 0 + .ra: lr
STACK CFI 13ca6 .cfa: sp 8 + .ra: .cfa -4 + ^ r3: .cfa -8 + ^
STACK CFI INIT 13cb4 10 .cfa: sp 0 + .ra: lr
STACK CFI 13cb6 .cfa: sp 8 + .ra: .cfa -4 + ^ r3: .cfa -8 + ^
STACK CFI INIT 13cc4 10 .cfa: sp 0 + .ra: lr
STACK CFI 13cc6 .cfa: sp 8 + .ra: .cfa -4 + ^ r3: .cfa -8 + ^
STACK CFI INIT 13cd4 10 .cfa: sp 0 + .ra: lr
STACK CFI 13cd6 .cfa: sp 8 + .ra: .cfa -4 + ^ r3: .cfa -8 + ^
STACK CFI INIT 13ce4 10 .cfa: sp 0 + .ra: lr
STACK CFI 13ce6 .cfa: sp 8 + .ra: .cfa -4 + ^ r3: .cfa -8 + ^
STACK CFI INIT 13cf4 10 .cfa: sp 0 + .ra: lr
STACK CFI 13cf6 .cfa: sp 8 + .ra: .cfa -4 + ^ r3: .cfa -8 + ^
STACK CFI INIT 13d04 10 .cfa: sp 0 + .ra: lr
STACK CFI 13d06 .cfa: sp 8 + .ra: .cfa -4 + ^ r3: .cfa -8 + ^
STACK CFI INIT 13d14 10 .cfa: sp 0 + .ra: lr
STACK CFI 13d16 .cfa: sp 8 + .ra: .cfa -4 + ^ r3: .cfa -8 + ^
STACK CFI INIT 13d24 10 .cfa: sp 0 + .ra: lr
STACK CFI 13d26 .cfa: sp 8 + .ra: .cfa -4 + ^ r3: .cfa -8 + ^
STACK CFI INIT 13d34 10 .cfa: sp 0 + .ra: lr
STACK CFI 13d36 .cfa: sp 8 + .ra: .cfa -4 + ^ r3: .cfa -8 + ^
STACK CFI INIT 13d44 14 .cfa: sp 0 + .ra: lr
STACK CFI 13d46 .cfa: sp 8 + .ra: .cfa -4 + ^ r3: .cfa -8 + ^
STACK CFI INIT 13d58 14 .cfa: sp 0 + .ra: lr
STACK CFI 13d5a .cfa: sp 8 + .ra: .cfa -4 + ^ r3: .cfa -8 + ^
STACK CFI INIT 13d6c 14 .cfa: sp 0 + .ra: lr
STACK CFI 13d6e .cfa: sp 8 + .ra: .cfa -4 + ^ r3: .cfa -8 + ^
STACK CFI INIT 13d80 14 .cfa: sp 0 + .ra: lr
STACK CFI 13d82 .cfa: sp 8 + .ra: .cfa -4 + ^ r3: .cfa -8 + ^
STACK CFI INIT 13d94 14 .cfa: sp 0 + .ra: lr
STACK CFI 13d96 .cfa: sp 8 + .ra: .cfa -4 + ^ r3: .cfa -8 + ^
STACK CFI INIT 13da8 14 .cfa: sp 0 + .ra: lr
STACK CFI 13daa .cfa: sp 8 + .ra: .cfa -4 + ^ r3: .cfa -8 + ^
STACK CFI INIT 13dbc 14 .cfa: sp 0 + .ra: lr
STACK CFI 13dbe .cfa: sp 8 + .ra: .cfa -4 + ^ r3: .cfa -8 + ^
STACK CFI INIT 13dd0 14 .cfa: sp 0 + .ra: lr
STACK CFI 13dd2 .cfa: sp 8 + .ra: .cfa -4 + ^ r3: .cfa -8 + ^
STACK CFI INIT 13de4 14 .cfa: sp 0 + .ra: lr
STACK CFI 13de6 .cfa: sp 8 + .ra: .cfa -4 + ^ r3: .cfa -8 + ^
STACK CFI INIT 13df8 14 .cfa: sp 0 + .ra: lr
STACK CFI 13dfa .cfa: sp 8 + .ra: .cfa -4 + ^ r3: .cfa -8 + ^
STACK CFI INIT 13e0c 14 .cfa: sp 0 + .ra: lr
STACK CFI 13e0e .cfa: sp 8 + .ra: .cfa -4 + ^ r3: .cfa -8 + ^
STACK CFI INIT 13e20 14 .cfa: sp 0 + .ra: lr
STACK CFI 13e22 .cfa: sp 8 + .ra: .cfa -4 + ^ r3: .cfa -8 + ^
STACK CFI INIT 13e34 14 .cfa: sp 0 + .ra: lr
STACK CFI 13e36 .cfa: sp 8 + .ra: .cfa -4 + ^ r3: .cfa -8 + ^
STACK CFI INIT 13e48 14 .cfa: sp 0 + .ra: lr
STACK CFI 13e4a .cfa: sp 8 + .ra: .cfa -4 + ^ r3: .cfa -8 + ^
STACK CFI INIT 13e5c 64 .cfa: sp 0 + .ra: lr
STACK CFI 13e60 .cfa: sp 4 + r4: .cfa -4 + ^
STACK CFI INIT 13ec0 52 .cfa: sp 0 + .ra: lr
STACK CFI INIT 13f14 a6 .cfa: sp 0 + .ra: lr
STACK CFI 13f1a .cfa: sp 24 + r4: .cfa -24 + ^ r5: .cfa -20 + ^ r6: .cfa -16 + ^ r7: .cfa -12 + ^ r8: .cfa -8 + ^ r9: .cfa -4 + ^
STACK CFI INIT 13fbc 4 .cfa: sp 0 + .ra: lr
STACK CFI INIT 13fc0 52 .cfa: sp 0 + .ra: lr
STACK CFI INIT 14014 b0 .cfa: sp 0 + .ra: lr
STACK CFI 1401a .cfa: sp 24 + r4: .cfa -24 + ^ r5: .cfa -20 + ^ r6: .cfa -16 + ^ r7: .cfa -12 + ^ r8: .cfa -8 + ^ r9: .cfa -4 + ^
STACK CFI INIT 140c4 c .cfa: sp 0 + .ra: lr
STACK CFI INIT 140d0 c .cfa: sp 0 + .ra: lr
STACK CFI INIT 140dc c .cfa: sp 0 + .ra: lr
STACK CFI INIT 140e8 12 .cfa: sp 0 + .ra: lr
STACK CFI INIT 140fc c .cfa: sp 0 + .ra: lr
STACK CFI INIT 14108 c .cfa: sp 0 + .ra: lr
STACK CFI INIT 14114 1a .cfa: sp 0 + .ra: lr
STACK CFI INIT 14130 3a .cfa: sp 0 + .ra: lr
STACK CFI INIT 1416c 52 .cfa: sp 0 + .ra: lr
STACK CFI INIT 141c0 a6 .cfa: sp 0 + .ra: lr
STACK CFI 141c6 .cfa: sp 24 + r4: .cfa -24 + ^ r5: .cfa -20 + ^ r6: .cfa -16 + ^ r7: .cfa -12 + ^ r8: .cfa -8 + ^ r9: .cfa -4 + ^
STACK CFI INIT 14268 3a .cfa: sp 0 + .ra: lr
STACK CFI INIT 142a4 4 .cfa: sp 0 + .ra: lr
STACK CFI INIT 142a8 b0 .cfa: sp 0 + .ra: lr
STACK CFI 142ae .cfa: sp 24 + r4: .cfa -24 + ^ r5: .cfa -20 + ^ r6: .cfa -16 + ^ r7: .cfa -12 + ^ r8: .cfa -8 + ^ r9: .cfa -4 + ^
STACK CFI INIT 14358 c .cfa: sp 0 + .ra: lr
STACK CFI INIT 14364 c .cfa: sp 0 + .ra: lr
STACK CFI INIT 14370 c .cfa: sp 0 + .ra: lr
STACK CFI INIT 1437c 12 .cfa: sp 0 + .ra: lr
STACK CFI INIT 14390 c .cfa: sp 0 + .ra: lr
STACK CFI INIT 1439c c .cfa: sp 0 + .ra: lr
STACK CFI INIT 143a8 1a .cfa: sp 0 + .ra: lr
STACK CFI INIT 143c4 38 .cfa: sp 0 + .ra: lr
STACK CFI INIT 143fc 3a .cfa: sp 0 + .ra: lr
STACK CFI INIT 14438 94 .cfa: sp 0 + .ra: lr
STACK CFI 1443a .cfa: sp 16 + r4: .cfa -16 + ^ r5: .cfa -12 + ^ r6: .cfa -8 + ^ r7: .cfa -4 + ^
STACK CFI INIT 144cc 3a .cfa: sp 0 + .ra: lr
STACK CFI INIT 14508 38 .cfa: sp 0 + .ra: lr
STACK CFI INIT 14540 4 .cfa: sp 0 + .ra: lr
STACK CFI INIT 14544 a .cfa: sp 0 + .ra: lr
STACK CFI INIT 14550 a .cfa: sp 0 + .ra: lr
STACK CFI INIT 1455c a .cfa: sp 0 + .ra: lr
STACK CFI INIT 14568 12 .cfa: sp 0 + .ra: lr
STACK CFI INIT 1457c a .cfa: sp 0 + .ra: lr
STACK CFI INIT 14588 a .cfa: sp 0 + .ra: lr
STACK CFI INIT 14594 18 .cfa: sp 0 + .ra: lr
STACK CFI INIT 145ac 52 .cfa: sp 0 + .ra: lr
STACK CFI 145c4 .cfa: sp 16 + r4: .cfa -16 + ^ r5: .cfa -12 + ^ r6: .cfa -8 + ^ r7: .cfa -4 + ^
STACK CFI INIT 14600 54 .cfa: sp 0 + .ra: lr
STACK CFI 1461a .cfa: sp 16 + r4: .cfa -16 + ^ r5: .cfa -12 + ^ r6: .cfa -8 + ^ r7: .cfa -4 + ^
STACK CFI INIT 14654 54 .cfa: sp 0 + .ra: lr
STACK CFI 1466e .cfa: sp 8 + r4: .cfa -8 + ^ r5: .cfa -4 + ^
STACK CFI INIT 146a8 54 .cfa: sp 0 + .ra: lr
STACK CFI 146c2 .cfa: sp 16 + r4: .cfa -16 + ^ r5: .cfa -12 + ^ r6: .cfa -8 + ^ r7: .cfa -4 + ^
STACK CFI INIT 146fc 52 .cfa: sp 0 + .ra: lr
STACK CFI 14716 .cfa: sp 8 + r4: .cfa -8 + ^ r5: .cfa -4 + ^
STACK CFI INIT 14750 60 .cfa: sp 0 + .ra: lr
STACK CFI 14752 .cfa: sp 16 + r4: .cfa -16 + ^ r5: .cfa -12 + ^ r6: .cfa -8 + ^ r7: .cfa -4 + ^
STACK CFI INIT 147b0 e .cfa: sp 0 + .ra: lr
STACK CFI INIT 147c0 e .cfa: sp 0 + .ra: lr
STACK CFI INIT 147d0 12 .cfa: sp 0 + .ra: lr
STACK CFI INIT 147e4 1a .cfa: sp 0 + .ra: lr
STACK CFI INIT 14800 e .cfa: sp 0 + .ra: lr
STACK CFI INIT 14810 e .cfa: sp 0 + .ra: lr
STACK CFI INIT 14820 20 .cfa: sp 0 + .ra: lr
STACK CFI INIT 14840 28 .cfa: sp 0 + .ra: lr
STACK CFI INIT 14868 62 .cfa: sp 0 + .ra: lr
STACK CFI 14870 .cfa: sp 4 + r4: .cfa -4 + ^
STACK CFI INIT 148cc 56 .cfa: sp 0 + .ra: lr
STACK CFI INIT 14924 a6 .cfa: sp 0 + .ra: lr
STACK CFI 1492a .cfa: sp 24 + r4: .cfa -24 + ^ r5: .cfa -20 + ^ r6: .cfa -16 + ^ r7: .cfa -12 + ^ r8: .cfa -8 + ^ r9: .cfa -4 + ^
STACK CFI INIT 149cc 52 .cfa: sp 0 + .ra: lr
STACK CFI INIT 14a20 b0 .cfa: sp 0 + .ra: lr
STACK CFI 14a26 .cfa: sp 24 + r4: .cfa -24 + ^ r5: .cfa -20 + ^ r6: .cfa -16 + ^ r7: .cfa -12 + ^ r8: .cfa -8 + ^ r9: .cfa -4 + ^
STACK CFI INIT 14ad0 1c .cfa: sp 0 + .ra: lr
STACK CFI INIT 14aec 1c .cfa: sp 0 + .ra: lr
STACK CFI INIT 14b08 18 .cfa: sp 0 + .ra: lr
STACK CFI INIT 14b20 30 .cfa: sp 0 + .ra: lr
STACK CFI 14b26 .cfa: sp 8 + r4: .cfa -8 + ^ r5: .cfa -4 + ^
STACK CFI INIT 14b50 c .cfa: sp 0 + .ra: lr
STACK CFI INIT 14b5c c .cfa: sp 0 + .ra: lr
STACK CFI INIT 14b68 1a .cfa: sp 0 + .ra: lr
STACK CFI INIT 14b84 38 .cfa: sp 0 + .ra: lr
STACK CFI INIT 14bbc 24 .cfa: sp 0 + .ra: lr
STACK CFI INIT 14be0 54 .cfa: sp 0 + .ra: lr
STACK CFI INIT 14c34 aa .cfa: sp 0 + .ra: lr
STACK CFI 14c38 .cfa: sp 24 + r4: .cfa -24 + ^ r5: .cfa -20 + ^ r6: .cfa -16 + ^ r7: .cfa -12 + ^ r8: .cfa -8 + ^ r9: .cfa -4 + ^
STACK CFI INIT 14ce0 3a .cfa: sp 0 + .ra: lr
STACK CFI INIT 14d1c b6 .cfa: sp 0 + .ra: lr
STACK CFI 14d20 .cfa: sp 32 + r10: .cfa -8 + ^ r11: .cfa -4 + ^ r4: .cfa -32 + ^ r5: .cfa -28 + ^ r6: .cfa -24 + ^ r7: .cfa -20 + ^ r8: .cfa -16 + ^ r9: .cfa -12 + ^
STACK CFI INIT 14dd4 18 .cfa: sp 0 + .ra: lr
STACK CFI INIT 14dec 1a .cfa: sp 0 + .ra: lr
STACK CFI INIT 14e08 16 .cfa: sp 0 + .ra: lr
STACK CFI INIT 14e20 32 .cfa: sp 0 + .ra: lr
STACK CFI 14e22 .cfa: sp 12 + r4: .cfa -12 + ^ r5: .cfa -8 + ^ r6: .cfa -4 + ^
STACK CFI INIT 14e54 1a .cfa: sp 0 + .ra: lr
STACK CFI INIT 14e70 a .cfa: sp 0 + .ra: lr
STACK CFI INIT 14e7c 1c .cfa: sp 0 + .ra: lr
STACK CFI 14e7e .cfa: sp 4 + r4: .cfa -4 + ^
STACK CFI INIT 14e98 5a .cfa: sp 0 + .ra: lr
STACK CFI 14ea2 .cfa: sp 16 + r4: .cfa -16 + ^ r5: .cfa -12 + ^ r6: .cfa -8 + ^ r7: .cfa -4 + ^
STACK CFI INIT 14ef4 5c .cfa: sp 0 + .ra: lr
STACK CFI 14efe .cfa: sp 16 + r4: .cfa -16 + ^ r5: .cfa -12 + ^ r6: .cfa -8 + ^ r7: .cfa -4 + ^
STACK CFI INIT 14f50 30 .cfa: sp 0 + .ra: lr
STACK CFI INIT 14f80 90 .cfa: sp 0 + .ra: lr
STACK CFI 14f86 .cfa: sp 16 + r4: .cfa -16 + ^ r5: .cfa -12 + ^ r6: .cfa -8 + ^ r7: .cfa -4 + ^
STACK CFI INIT 15010 5c .cfa: sp 0 + .ra: lr
STACK CFI 1501a .cfa: sp 16 + r4: .cfa -16 + ^ r5: .cfa -12 + ^ r6: .cfa -8 + ^ r7: .cfa -4 + ^
STACK CFI INIT 1506c 5e .cfa: sp 0 + .ra: lr
STACK CFI 15072 .cfa: sp 8 + r4: .cfa -8 + ^ r5: .cfa -4 + ^
STACK CFI INIT 150cc 2a .cfa: sp 0 + .ra: lr
STACK CFI INIT 150f8 2a .cfa: sp 0 + .ra: lr
STACK CFI INIT 15124 20 .cfa: sp 0 + .ra: lr
STACK CFI INIT 15144 38 .cfa: sp 0 + .ra: lr
STACK CFI 15150 .cfa: sp 4 + r4: .cfa -4 + ^
STACK CFI INIT 1517c 2a .cfa: sp 0 + .ra: lr
STACK CFI INIT 151a8 24 .cfa: sp 0 + .ra: lr
STACK CFI INIT 151cc 1a .cfa: sp 0 + .ra: lr
STACK CFI INIT 151e8 6 .cfa: sp 0 + .ra: lr
STACK CFI INIT 151f0 6 .cfa: sp 0 + .ra: lr
STACK CFI INIT 151f8 6 .cfa: sp 0 + .ra: lr
STACK CFI INIT 15200 c .cfa: sp 0 + .ra: lr
STACK CFI INIT 1520c 6 .cfa: sp 0 + .ra: lr
STACK CFI INIT 15214 6 .cfa: sp 0 + .ra: lr
STACK CFI INIT 1521c 8 .cfa: sp 0 + .ra: lr
STACK CFI INIT 15224 6 .cfa: sp 0 + .ra: lr
STACK CFI INIT 1522c 4 .cfa: sp 0 + .ra: lr
STACK CFI INIT 15230 a .cfa: sp 0 + .ra: lr
STACK CFI INIT 1523c 4 .cfa: sp 0 + .ra: lr
STACK CFI INIT 15240 6 .cfa: sp 0 + .ra: lr
STACK CFI INIT 15248 a .cfa: sp 0 + .ra: lr
STACK CFI INIT 15254 6 .cfa: sp 0 + .ra: lr
STACK CFI INIT 1525c 6 .cfa: sp 0 + .ra: lr
STACK CFI INIT 15264 6 .cfa: sp 0 + .ra: lr
STACK CFI INIT 1526c c .cfa: sp 0 + .ra: lr
STACK CFI INIT 15278 6 .cfa: sp 0 + .ra: lr
STACK CFI INIT 15280 6 .cfa: sp 0 + .ra: lr
STACK CFI INIT 15288 8 .cfa: sp 0 + .ra: lr
STACK CFI INIT 15290 4 .cfa: sp 0 + .ra: lr
STACK CFI INIT 15294 4 .cfa: sp 0 + .ra: lr
STACK CFI INIT 15298 a .cfa: sp 0 + .ra: lr
STACK CFI INIT 152a4 6 .cfa: sp 0 + .ra: lr
STACK CFI INIT 152ac 4 .cfa: sp 0 + .ra: lr
STACK CFI INIT 152b0 a .cfa: sp 0 + .ra: lr
STACK CFI INIT 152bc 4 .cfa: sp 0 + .ra: lr
STACK CFI INIT 152c0 4 .cfa: sp 0 + .ra: lr
STACK CFI INIT 152c4 4 .cfa: sp 0 + .ra: lr
STACK CFI INIT 152c8 a .cfa: sp 0 + .ra: lr
STACK CFI INIT 152d4 4 .cfa: sp 0 + .ra: lr
STACK CFI INIT 152d8 4 .cfa: sp 0 + .ra: lr
STACK CFI INIT 152dc a .cfa: sp 0 + .ra: lr
STACK CFI INIT 152e8 4 .cfa: sp 0 + .ra: lr
STACK CFI INIT 152ec 4 .cfa: sp 0 + .ra: lr
STACK CFI INIT 152f0 a .cfa: sp 0 + .ra: lr
STACK CFI INIT 152fc 4 .cfa: sp 0 + .ra: lr
STACK CFI INIT 15300 4 .cfa: sp 0 + .ra: lr
STACK CFI INIT 15304 6 .cfa: sp 0 + .ra: lr
STACK CFI INIT 1530c 4 .cfa: sp 0 + .ra: lr
STACK CFI INIT 15310 4 .cfa: sp 0 + .ra: lr
STACK CFI INIT 15314 4 .cfa: sp 0 + .ra: lr
STACK CFI INIT 15318 8 .cfa: sp 0 + .ra: lr
STACK CFI INIT 15320 4 .cfa: sp 0 + .ra: lr
STACK CFI INIT 15324 4 .cfa: sp 0 + .ra: lr
STACK CFI INIT 15328 a .cfa: sp 0 + .ra: lr
STACK CFI INIT 15334 4 .cfa: sp 0 + .ra: lr
STACK CFI INIT 15338 4 .cfa: sp 0 + .ra: lr
STACK CFI INIT 1533c 4 .cfa: sp 0 + .ra: lr
STACK CFI INIT 15340 4 .cfa: sp 0 + .ra: lr
STACK CFI INIT 15344 4 .cfa: sp 0 + .ra: lr
STACK CFI INIT 15348 8 .cfa: sp 0 + .ra: lr
STACK CFI INIT 15350 c .cfa: sp 0 + .ra: lr
STACK CFI INIT 1535c 24 .cfa: sp 0 + .ra: lr
STACK CFI INIT 15380 1a .cfa: sp 0 + .ra: lr
STACK CFI INIT 1539c 40 .cfa: sp 0 + .ra: lr
STACK CFI 153a2 .cfa: sp 16 + r4: .cfa -16 + ^ r5: .cfa -12 + ^ r6: .cfa -8 + ^ r7: .cfa -4 + ^
STACK CFI INIT 153dc 6 .cfa: sp 0 + .ra: lr
STACK CFI INIT 153e4 6 .cfa: sp 0 + .ra: lr
STACK CFI INIT 153ec 8 .cfa: sp 0 + .ra: lr
STACK CFI INIT 153f4 a .cfa: sp 0 + .ra: lr
STACK CFI INIT 15400 e .cfa: sp 0 + .ra: lr
STACK CFI INIT 15410 e .cfa: sp 0 + .ra: lr
STACK CFI INIT 15420 24 .cfa: sp 0 + .ra: lr
STACK CFI 15422 .cfa: sp 8 + r4: .cfa -8 + ^ r5: .cfa -4 + ^
STACK CFI INIT 15444 6 .cfa: sp 0 + .ra: lr
STACK CFI INIT 1544c 8 .cfa: sp 0 + .ra: lr
STACK CFI INIT 15454 a .cfa: sp 0 + .ra: lr
STACK CFI INIT 15460 e .cfa: sp 0 + .ra: lr
STACK CFI INIT 15470 18 .cfa: sp 0 + .ra: lr
STACK CFI INIT 15488 3a .cfa: sp 0 + .ra: lr
STACK CFI 15492 .cfa: sp 16 + r4: .cfa -16 + ^ r5: .cfa -12 + ^ r6: .cfa -8 + ^ r7: .cfa -4 + ^
STACK CFI INIT 154c4 e .cfa: sp 0 + .ra: lr
STACK CFI INIT 154d4 4 .cfa: sp 0 + .ra: lr
STACK CFI INIT 154d8 a .cfa: sp 0 + .ra: lr
STACK CFI INIT 154e4 a .cfa: sp 0 + .ra: lr
STACK CFI INIT 154f0 c .cfa: sp 0 + .ra: lr
STACK CFI INIT 154fc c .cfa: sp 0 + .ra: lr
STACK CFI INIT 15508 26 .cfa: sp 0 + .ra: lr
STACK CFI 15512 .cfa: sp 8 + r4: .cfa -8 + ^ r5: .cfa -4 + ^
STACK CFI INIT 15530 e .cfa: sp 0 + .ra: lr
STACK CFI INIT 15540 a .cfa: sp 0 + .ra: lr
STACK CFI INIT 1554c 16 .cfa: sp 0 + .ra: lr
STACK CFI INIT 15564 20 .cfa: sp 0 + .ra: lr
STACK CFI 1556a .cfa: sp 8 + r4: .cfa -8 + ^ r5: .cfa -4 + ^
STACK CFI INIT 15584 18 .cfa: sp 0 + .ra: lr
STACK CFI INIT 1559c 3e .cfa: sp 0 + .ra: lr
STACK CFI 155a2 .cfa: sp 8 + r4: .cfa -8 + ^ r5: .cfa -4 + ^
STACK CFI INIT 155dc 20 .cfa: sp 0 + .ra: lr
STACK CFI 155e2 .cfa: sp 8 + r4: .cfa -8 + ^ r5: .cfa -4 + ^
STACK CFI INIT 155fc 20 .cfa: sp 0 + .ra: lr
STACK CFI 15602 .cfa: sp 8 + r4: .cfa -8 + ^ r5: .cfa -4 + ^
STACK CFI INIT 1561c 8 .cfa: sp 0 + .ra: lr
STACK CFI INIT 15624 18 .cfa: sp 0 + .ra: lr
STACK CFI INIT 1563c 20 .cfa: sp 0 + .ra: lr
STACK CFI 15642 .cfa: sp 8 + r4: .cfa -8 + ^ r5: .cfa -4 + ^
STACK CFI INIT 1565c e .cfa: sp 0 + .ra: lr
STACK CFI INIT 1566c 26 .cfa: sp 0 + .ra: lr
STACK CFI 15676 .cfa: sp 8 + r4: .cfa -8 + ^ r5: .cfa -4 + ^
STACK CFI INIT 15694 20 .cfa: sp 0 + .ra: lr
STACK CFI 1569a .cfa: sp 8 + r4: .cfa -8 + ^ r5: .cfa -4 + ^
STACK CFI INIT 156b4 18 .cfa: sp 0 + .ra: lr
STACK CFI INIT 156cc 4c .cfa: sp 0 + .ra: lr
STACK CFI INIT 15718 62 .cfa: sp 0 + .ra: lr
STACK CFI 15720 .cfa: sp 4 + r4: .cfa -4 + ^
STACK CFI INIT 1577c 54 .cfa: sp 0 + .ra: lr
STACK CFI INIT 157d0 98 .cfa: sp 0 + .ra: lr
STACK CFI 157d4 .cfa: sp 16 + r4: .cfa -16 + ^ r5: .cfa -12 + ^ r6: .cfa -8 + ^ r7: .cfa -4 + ^
STACK CFI INIT 15868 62 .cfa: sp 0 + .ra: lr
STACK CFI 15870 .cfa: sp 4 + r4: .cfa -4 + ^
STACK CFI INIT 158cc 54 .cfa: sp 0 + .ra: lr
STACK CFI INIT 15920 b0 .cfa: sp 0 + .ra: lr
STACK CFI 15926 .cfa: sp 24 + r4: .cfa -24 + ^ r5: .cfa -20 + ^ r6: .cfa -16 + ^ r7: .cfa -12 + ^ r8: .cfa -8 + ^ r9: .cfa -4 + ^
STACK CFI INIT 159d0 c .cfa: sp 0 + .ra: lr
STACK CFI INIT 159dc c .cfa: sp 0 + .ra: lr
STACK CFI INIT 159e8 c .cfa: sp 0 + .ra: lr
STACK CFI INIT 159f4 14 .cfa: sp 0 + .ra: lr
STACK CFI INIT 15a08 a .cfa: sp 0 + .ra: lr
STACK CFI INIT 15a14 a .cfa: sp 0 + .ra: lr
STACK CFI INIT 15a20 12 .cfa: sp 0 + .ra: lr
STACK CFI INIT 15a34 52 .cfa: sp 0 + .ra: lr
STACK CFI INIT 15a88 62 .cfa: sp 0 + .ra: lr
STACK CFI 15a90 .cfa: sp 4 + r4: .cfa -4 + ^
STACK CFI INIT 15aec 54 .cfa: sp 0 + .ra: lr
STACK CFI INIT 15b40 98 .cfa: sp 0 + .ra: lr
STACK CFI 15b44 .cfa: sp 16 + r4: .cfa -16 + ^ r5: .cfa -12 + ^ r6: .cfa -8 + ^ r7: .cfa -4 + ^
STACK CFI INIT 15bd8 62 .cfa: sp 0 + .ra: lr
STACK CFI 15be0 .cfa: sp 4 + r4: .cfa -4 + ^
STACK CFI INIT 15c3c 54 .cfa: sp 0 + .ra: lr
STACK CFI INIT 15c90 b0 .cfa: sp 0 + .ra: lr
STACK CFI 15c96 .cfa: sp 24 + r4: .cfa -24 + ^ r5: .cfa -20 + ^ r6: .cfa -16 + ^ r7: .cfa -12 + ^ r8: .cfa -8 + ^ r9: .cfa -4 + ^
STACK CFI INIT 15d40 20 .cfa: sp 0 + .ra: lr
STACK CFI INIT 15d60 c .cfa: sp 0 + .ra: lr
STACK CFI INIT 15d6c c .cfa: sp 0 + .ra: lr
STACK CFI INIT 15d78 14 .cfa: sp 0 + .ra: lr
STACK CFI INIT 15d8c 1a .cfa: sp 0 + .ra: lr
STACK CFI INIT 15da8 a .cfa: sp 0 + .ra: lr
STACK CFI INIT 15db4 12 .cfa: sp 0 + .ra: lr
STACK CFI INIT 15dc8 4a .cfa: sp 0 + .ra: lr
STACK CFI INIT 15e14 4e .cfa: sp 0 + .ra: lr
STACK CFI INIT 15e64 54 .cfa: sp 0 + .ra: lr
STACK CFI INIT 15eb8 98 .cfa: sp 0 + .ra: lr
STACK CFI 15eba .cfa: sp 16 + r4: .cfa -16 + ^ r5: .cfa -12 + ^ r6: .cfa -8 + ^ r7: .cfa -4 + ^
STACK CFI INIT 15f50 4e .cfa: sp 0 + .ra: lr
STACK CFI INIT 15fa0 54 .cfa: sp 0 + .ra: lr
STACK CFI INIT 15ff4 b6 .cfa: sp 0 + .ra: lr
STACK CFI 15ff8 .cfa: sp 32 + r10: .cfa -8 + ^ r11: .cfa -4 + ^ r4: .cfa -32 + ^ r5: .cfa -28 + ^ r6: .cfa -24 + ^ r7: .cfa -20 + ^ r8: .cfa -16 + ^ r9: .cfa -12 + ^
STACK CFI INIT 160ac 1c .cfa: sp 0 + .ra: lr
STACK CFI INIT 160c8 1e .cfa: sp 0 + .ra: lr
STACK CFI INIT 160e8 c .cfa: sp 0 + .ra: lr
STACK CFI INIT 160f4 14 .cfa: sp 0 + .ra: lr
STACK CFI INIT 16108 1e .cfa: sp 0 + .ra: lr
STACK CFI INIT 16128 16 .cfa: sp 0 + .ra: lr
STACK CFI INIT 16140 12 .cfa: sp 0 + .ra: lr
STACK CFI INIT 16154 8e .cfa: sp 0 + .ra: lr
STACK CFI 16158 .cfa: sp 24 + r4: .cfa -24 + ^ r5: .cfa -20 + ^ r6: .cfa -16 + ^ r7: .cfa -12 + ^ r8: .cfa -8 + ^ r9: .cfa -4 + ^
STACK CFI INIT 161e4 90 .cfa: sp 0 + .ra: lr
STACK CFI 161e8 .cfa: sp 24 + r4: .cfa -24 + ^ r5: .cfa -20 + ^ r6: .cfa -16 + ^ r7: .cfa -12 + ^ r8: .cfa -8 + ^ r9: .cfa -4 + ^
STACK CFI INIT 16274 8c .cfa: sp 0 + .ra: lr
STACK CFI 16276 .cfa: sp 16 + r4: .cfa -16 + ^ r5: .cfa -12 + ^ r6: .cfa -8 + ^ r7: .cfa -4 + ^
STACK CFI INIT 16300 96 .cfa: sp 0 + .ra: lr
STACK CFI 16302 .cfa: sp 16 + r4: .cfa -16 + ^ r5: .cfa -12 + ^ r6: .cfa -8 + ^ r7: .cfa -4 + ^
STACK CFI INIT 16398 90 .cfa: sp 0 + .ra: lr
STACK CFI 1639c .cfa: sp 24 + r4: .cfa -24 + ^ r5: .cfa -20 + ^ r6: .cfa -16 + ^ r7: .cfa -12 + ^ r8: .cfa -8 + ^ r9: .cfa -4 + ^
STACK CFI INIT 16428 8c .cfa: sp 0 + .ra: lr
STACK CFI 1642a .cfa: sp 16 + r4: .cfa -16 + ^ r5: .cfa -12 + ^ r6: .cfa -8 + ^ r7: .cfa -4 + ^
STACK CFI INIT 164b4 a4 .cfa: sp 0 + .ra: lr
STACK CFI 164b6 .cfa: sp 16 + r4: .cfa -16 + ^ r5: .cfa -12 + ^ r6: .cfa -8 + ^ r7: .cfa -4 + ^
STACK CFI INIT 16558 44 .cfa: sp 0 + .ra: lr
STACK CFI 16560 .cfa: sp 4 + r4: .cfa -4 + ^
STACK CFI INIT 1659c 44 .cfa: sp 0 + .ra: lr
STACK CFI 165a4 .cfa: sp 4 + r4: .cfa -4 + ^
STACK CFI INIT 165e0 3a .cfa: sp 0 + .ra: lr
STACK CFI 165e8 .cfa: sp 8 + r4: .cfa -8 + ^ r5: .cfa -4 + ^
STACK CFI INIT 1661c 18 .cfa: sp 0 + .ra: lr
STACK CFI INIT 16634 44 .cfa: sp 0 + .ra: lr
STACK CFI 1663c .cfa: sp 4 + r4: .cfa -4 + ^
STACK CFI INIT 16678 44 .cfa: sp 0 + .ra: lr
STACK CFI 16680 .cfa: sp 4 + r4: .cfa -4 + ^
STACK CFI INIT 166bc 38 .cfa: sp 0 + .ra: lr
STACK CFI 166c4 .cfa: sp 8 + r4: .cfa -8 + ^ r5: .cfa -4 + ^
STACK CFI INIT 166f4 3a .cfa: sp 0 + .ra: lr
STACK CFI 166f8 .cfa: sp 8 + .ra: .cfa -4 + ^ r4: .cfa -8 + ^
STACK CFI INIT 16730 3c .cfa: sp 0 + .ra: lr
STACK CFI 16736 .cfa: sp 8 + .ra: .cfa -4 + ^ r4: .cfa -8 + ^
STACK CFI INIT 16770 48 .cfa: sp 0 + .ra: lr
STACK CFI 16772 .cfa: sp 8 + .ra: .cfa -4 + ^ r4: .cfa -8 + ^
STACK CFI INIT 167b8 3e .cfa: sp 0 + .ra: lr
STACK CFI 167ba .cfa: sp 8 + .ra: .cfa -4 + ^ r4: .cfa -8 + ^
STACK CFI INIT 167f8 3c .cfa: sp 0 + .ra: lr
STACK CFI 167fe .cfa: sp 8 + .ra: .cfa -4 + ^ r4: .cfa -8 + ^
STACK CFI INIT 16838 48 .cfa: sp 0 + .ra: lr
STACK CFI 1683a .cfa: sp 8 + .ra: .cfa -4 + ^ r4: .cfa -8 + ^
STACK CFI INIT 16880 3e .cfa: sp 0 + .ra: lr
STACK CFI 16882 .cfa: sp 8 + .ra: .cfa -4 + ^ r4: .cfa -8 + ^
STACK CFI INIT 168c0 36 .cfa: sp 0 + .ra: lr
STACK CFI 168c4 .cfa: sp 16 + .ra: .cfa -4 + ^ r3: .cfa -16 + ^ r4: .cfa -12 + ^ r5: .cfa -8 + ^
STACK CFI INIT 168f8 38 .cfa: sp 0 + .ra: lr
STACK CFI 168fe .cfa: sp 16 + .ra: .cfa -4 + ^ r3: .cfa -16 + ^ r4: .cfa -12 + ^ r5: .cfa -8 + ^
STACK CFI INIT 16930 48 .cfa: sp 0 + .ra: lr
STACK CFI 16932 .cfa: sp 16 + .ra: .cfa -4 + ^ r3: .cfa -16 + ^ r4: .cfa -12 + ^ r5: .cfa -8 + ^
STACK CFI INIT 16978 38 .cfa: sp 0 + .ra: lr
STACK CFI 1697a .cfa: sp 8 + .ra: .cfa -4 + ^ r4: .cfa -8 + ^
STACK CFI INIT 169b0 38 .cfa: sp 0 + .ra: lr
STACK CFI 169b6 .cfa: sp 16 + .ra: .cfa -4 + ^ r3: .cfa -16 + ^ r4: .cfa -12 + ^ r5: .cfa -8 + ^
STACK CFI INIT 169e8 48 .cfa: sp 0 + .ra: lr
STACK CFI 169ea .cfa: sp 16 + .ra: .cfa -4 + ^ r3: .cfa -16 + ^ r4: .cfa -12 + ^ r5: .cfa -8 + ^
STACK CFI INIT 16a30 38 .cfa: sp 0 + .ra: lr
STACK CFI 16a32 .cfa: sp 8 + .ra: .cfa -4 + ^ r4: .cfa -8 + ^
STACK CFI INIT 16a68 4a .cfa: sp 0 + .ra: lr
STACK CFI 16a6a .cfa: sp 16 + .ra: .cfa -4 + ^ r3: .cfa -16 + ^ r4: .cfa -12 + ^ r5: .cfa -8 + ^
STACK CFI INIT 16ab8 50 .cfa: sp 0 + .ra: lr
STACK CFI 16aba .cfa: sp 16 + .ra: .cfa -4 + ^ r3: .cfa -16 + ^ r4: .cfa -12 + ^ r5: .cfa -8 + ^
STACK CFI INIT 16b08 50 .cfa: sp 0 + .ra: lr
STACK CFI 16b0a .cfa: sp 16 + .ra: .cfa -4 + ^ r3: .cfa -16 + ^ r4: .cfa -12 + ^ r5: .cfa -8 + ^
STACK CFI INIT 16b58 4e .cfa: sp 0 + .ra: lr
STACK CFI 16b5a .cfa: sp 16 + .ra: .cfa -4 + ^ r3: .cfa -16 + ^ r4: .cfa -12 + ^ r5: .cfa -8 + ^
STACK CFI INIT 16ba8 50 .cfa: sp 0 + .ra: lr
STACK CFI 16baa .cfa: sp 16 + .ra: .cfa -4 + ^ r3: .cfa -16 + ^ r4: .cfa -12 + ^ r5: .cfa -8 + ^
STACK CFI INIT 16bf8 50 .cfa: sp 0 + .ra: lr
STACK CFI 16bfa .cfa: sp 16 + .ra: .cfa -4 + ^ r3: .cfa -16 + ^ r4: .cfa -12 + ^ r5: .cfa -8 + ^
STACK CFI INIT 16c48 4e .cfa: sp 0 + .ra: lr
STACK CFI 16c4a .cfa: sp 16 + .ra: .cfa -4 + ^ r3: .cfa -16 + ^ r4: .cfa -12 + ^ r5: .cfa -8 + ^
STACK CFI INIT 16c98 46 .cfa: sp 0 + .ra: lr
STACK CFI 16ca0 .cfa: sp 16 + .ra: .cfa -4 + ^ r4: .cfa -16 + ^ r5: .cfa -12 + ^ r6: .cfa -8 + ^
STACK CFI INIT 16ce0 50 .cfa: sp 0 + .ra: lr
STACK CFI 16ce2 .cfa: sp 16 + .ra: .cfa -4 + ^ r4: .cfa -16 + ^ r5: .cfa -12 + ^ r6: .cfa -8 + ^
STACK CFI INIT 16d30 50 .cfa: sp 0 + .ra: lr
STACK CFI 16d32 .cfa: sp 16 + .ra: .cfa -4 + ^ r4: .cfa -16 + ^ r5: .cfa -12 + ^ r6: .cfa -8 + ^
STACK CFI INIT 16d80 48 .cfa: sp 0 + .ra: lr
STACK CFI 16d82 .cfa: sp 16 + .ra: .cfa -4 + ^ r3: .cfa -16 + ^ r4: .cfa -12 + ^ r5: .cfa -8 + ^
STACK CFI INIT 16dc8 50 .cfa: sp 0 + .ra: lr
STACK CFI 16dca .cfa: sp 16 + .ra: .cfa -4 + ^ r4: .cfa -16 + ^ r5: .cfa -12 + ^ r6: .cfa -8 + ^
STACK CFI INIT 16e18 50 .cfa: sp 0 + .ra: lr
STACK CFI 16e1a .cfa: sp 16 + .ra: .cfa -4 + ^ r4: .cfa -16 + ^ r5: .cfa -12 + ^ r6: .cfa -8 + ^
STACK CFI INIT 16e68 48 .cfa: sp 0 + .ra: lr
STACK CFI 16e6a .cfa: sp 16 + .ra: .cfa -4 + ^ r3: .cfa -16 + ^ r4: .cfa -12 + ^ r5: .cfa -8 + ^
STACK CFI INIT 16eb0 1e .cfa: sp 0 + .ra: lr
STACK CFI INIT 16ed0 1e .cfa: sp 0 + .ra: lr
STACK CFI INIT 16ef0 1c .cfa: sp 0 + .ra: lr
STACK CFI INIT 16f0c 20 .cfa: sp 0 + .ra: lr
STACK CFI INIT 16f2c 1c .cfa: sp 0 + .ra: lr
STACK CFI INIT 16f48 1c .cfa: sp 0 + .ra: lr
STACK CFI INIT 16f64 1a .cfa: sp 0 + .ra: lr
STACK CFI INIT 16f80 1e .cfa: sp 0 + .ra: lr
STACK CFI INIT 16fa0 18 .cfa: sp 0 + .ra: lr
STACK CFI INIT 16fb8 18 .cfa: sp 0 + .ra: lr
STACK CFI INIT 16fd0 16 .cfa: sp 0 + .ra: lr
STACK CFI INIT 16fe8 18 .cfa: sp 0 + .ra: lr
STACK CFI INIT 17000 28 .cfa: sp 0 + .ra: lr
STACK CFI 17008 .cfa: sp 8 + r4: .cfa -8 + ^ r5: .cfa -4 + ^
STACK CFI INIT 17028 28 .cfa: sp 0 + .ra: lr
STACK CFI 17030 .cfa: sp 8 + r4: .cfa -8 + ^ r5: .cfa -4 + ^
STACK CFI INIT 17050 28 .cfa: sp 0 + .ra: lr
STACK CFI 17058 .cfa: sp 4 + r4: .cfa -4 + ^
STACK CFI INIT 17078 30 .cfa: sp 0 + .ra: lr
STACK CFI 17080 .cfa: sp 8 + r4: .cfa -8 + ^ r5: .cfa -4 + ^
STACK CFI INIT 170a8 1e .cfa: sp 0 + .ra: lr
STACK CFI INIT 170c8 1e .cfa: sp 0 + .ra: lr
STACK CFI INIT 170e8 1c .cfa: sp 0 + .ra: lr
STACK CFI INIT 17104 20 .cfa: sp 0 + .ra: lr
STACK CFI INIT 17124 18 .cfa: sp 0 + .ra: lr
STACK CFI INIT 1713c 18 .cfa: sp 0 + .ra: lr
STACK CFI INIT 17154 16 .cfa: sp 0 + .ra: lr
STACK CFI INIT 1716c 18 .cfa: sp 0 + .ra: lr
STACK CFI INIT 17184 24 .cfa: sp 0 + .ra: lr
STACK CFI 1718c .cfa: sp 8 + r4: .cfa -8 + ^ r5: .cfa -4 + ^
STACK CFI INIT 171a8 24 .cfa: sp 0 + .ra: lr
STACK CFI 171b0 .cfa: sp 8 + r4: .cfa -8 + ^ r5: .cfa -4 + ^
STACK CFI INIT 171cc 1e .cfa: sp 0 + .ra: lr
STACK CFI INIT 171ec 2e .cfa: sp 0 + .ra: lr
STACK CFI 171f4 .cfa: sp 8 + r4: .cfa -8 + ^ r5: .cfa -4 + ^
STACK CFI INIT 1721c 4 .cfa: sp 0 + .ra: lr
STACK CFI INIT 17220 4 .cfa: sp 0 + .ra: lr
STACK CFI INIT 17224 4 .cfa: sp 0 + .ra: lr
STACK CFI INIT 17228 6 .cfa: sp 0 + .ra: lr
STACK CFI INIT 17230 4 .cfa: sp 0 + .ra: lr
STACK CFI INIT 17234 4 .cfa: sp 0 + .ra: lr
STACK CFI INIT 17238 4 .cfa: sp 0 + .ra: lr
STACK CFI INIT 1723c 6 .cfa: sp 0 + .ra: lr
STACK CFI INIT 17244 4 .cfa: sp 0 + .ra: lr
STACK CFI INIT 17248 4 .cfa: sp 0 + .ra: lr
STACK CFI INIT 1724c 4 .cfa: sp 0 + .ra: lr
STACK CFI INIT 17250 6 .cfa: sp 0 + .ra: lr
STACK CFI INIT 17258 4 .cfa: sp 0 + .ra: lr
STACK CFI INIT 1725c 4 .cfa: sp 0 + .ra: lr
STACK CFI INIT 17260 4 .cfa: sp 0 + .ra: lr
STACK CFI INIT 17264 6 .cfa: sp 0 + .ra: lr
STACK CFI INIT 1726c 6 .cfa: sp 0 + .ra: lr
STACK CFI INIT 17274 6 .cfa: sp 0 + .ra: lr
STACK CFI INIT 1727c 6 .cfa: sp 0 + .ra: lr
STACK CFI INIT 17284 a .cfa: sp 0 + .ra: lr
STACK CFI INIT 17290 6 .cfa: sp 0 + .ra: lr
STACK CFI INIT 17298 4 .cfa: sp 0 + .ra: lr
STACK CFI INIT 1729c 4 .cfa: sp 0 + .ra: lr
STACK CFI INIT 172a0 6 .cfa: sp 0 + .ra: lr
STACK CFI INIT 172a8 4 .cfa: sp 0 + .ra: lr
STACK CFI INIT 172ac 4 .cfa: sp 0 + .ra: lr
STACK CFI INIT 172b0 4 .cfa: sp 0 + .ra: lr
STACK CFI INIT 172b4 6 .cfa: sp 0 + .ra: lr
STACK CFI INIT 172bc 4 .cfa: sp 0 + .ra: lr
STACK CFI INIT 172c0 4 .cfa: sp 0 + .ra: lr
STACK CFI INIT 172c4 4 .cfa: sp 0 + .ra: lr
STACK CFI INIT 172c8 a .cfa: sp 0 + .ra: lr
STACK CFI INIT 172d4 4 .cfa: sp 0 + .ra: lr
STACK CFI INIT 172d8 4 .cfa: sp 0 + .ra: lr
STACK CFI INIT 172dc e .cfa: sp 0 + .ra: lr
STACK CFI INIT 172ec 6 .cfa: sp 0 + .ra: lr
STACK CFI INIT 172f4 6 .cfa: sp 0 + .ra: lr
STACK CFI INIT 172fc 4 .cfa: sp 0 + .ra: lr
STACK CFI INIT 17300 6 .cfa: sp 0 + .ra: lr
STACK CFI INIT 17308 4 .cfa: sp 0 + .ra: lr
STACK CFI INIT 1730c 4 .cfa: sp 0 + .ra: lr
STACK CFI INIT 17310 a .cfa: sp 0 + .ra: lr
STACK CFI INIT 1731c 6 .cfa: sp 0 + .ra: lr
STACK CFI INIT 17324 6 .cfa: sp 0 + .ra: lr
STACK CFI INIT 1732c 4 .cfa: sp 0 + .ra: lr
STACK CFI INIT 17330 a .cfa: sp 0 + .ra: lr
STACK CFI INIT 1733c 6 .cfa: sp 0 + .ra: lr
STACK CFI INIT 17344 4 .cfa: sp 0 + .ra: lr
STACK CFI INIT 17348 8 .cfa: sp 0 + .ra: lr
STACK CFI INIT 17350 6 .cfa: sp 0 + .ra: lr
STACK CFI INIT 17358 6 .cfa: sp 0 + .ra: lr
STACK CFI INIT 17360 4 .cfa: sp 0 + .ra: lr
STACK CFI INIT 17364 6 .cfa: sp 0 + .ra: lr
STACK CFI INIT 1736c 4 .cfa: sp 0 + .ra: lr
STACK CFI INIT 17370 4 .cfa: sp 0 + .ra: lr
STACK CFI INIT 17374 a .cfa: sp 0 + .ra: lr
STACK CFI INIT 17380 6 .cfa: sp 0 + .ra: lr
STACK CFI INIT 17388 6 .cfa: sp 0 + .ra: lr
STACK CFI INIT 17390 4 .cfa: sp 0 + .ra: lr
STACK CFI INIT 17394 a .cfa: sp 0 + .ra: lr
STACK CFI INIT 173a0 6 .cfa: sp 0 + .ra: lr
STACK CFI INIT 173a8 4 .cfa: sp 0 + .ra: lr
STACK CFI INIT 173ac a .cfa: sp 0 + .ra: lr
STACK CFI INIT 173b8 6 .cfa: sp 0 + .ra: lr
STACK CFI INIT 173c0 6 .cfa: sp 0 + .ra: lr
STACK CFI INIT 173c8 4 .cfa: sp 0 + .ra: lr
STACK CFI INIT 173cc 6 .cfa: sp 0 + .ra: lr
STACK CFI INIT 173d4 4 .cfa: sp 0 + .ra: lr
STACK CFI INIT 173d8 4 .cfa: sp 0 + .ra: lr
STACK CFI INIT 173dc a .cfa: sp 0 + .ra: lr
STACK CFI INIT 173e8 6 .cfa: sp 0 + .ra: lr
STACK CFI INIT 173f0 6 .cfa: sp 0 + .ra: lr
STACK CFI INIT 173f8 4 .cfa: sp 0 + .ra: lr
STACK CFI INIT 173fc a .cfa: sp 0 + .ra: lr
STACK CFI INIT 17408 6 .cfa: sp 0 + .ra: lr
STACK CFI INIT 17410 4 .cfa: sp 0 + .ra: lr
STACK CFI INIT 17414 e .cfa: sp 0 + .ra: lr
STACK CFI INIT 17424 6 .cfa: sp 0 + .ra: lr
STACK CFI INIT 1742c 6 .cfa: sp 0 + .ra: lr
STACK CFI INIT 17434 4 .cfa: sp 0 + .ra: lr
STACK CFI INIT 17438 6 .cfa: sp 0 + .ra: lr
STACK CFI INIT 17440 4 .cfa: sp 0 + .ra: lr
STACK CFI INIT 17444 4 .cfa: sp 0 + .ra: lr
STACK CFI INIT 17448 a .cfa: sp 0 + .ra: lr
STACK CFI INIT 17454 24 .cfa: sp 0 + .ra: lr
STACK CFI INIT 17478 24 .cfa: sp 0 + .ra: lr
STACK CFI INIT 1749c 18 .cfa: sp 0 + .ra: lr
STACK CFI INIT 174b4 40 .cfa: sp 0 + .ra: lr
STACK CFI 174b8 .cfa: sp 8 + r4: .cfa -8 + ^ r5: .cfa -4 + ^
STACK CFI INIT 174f4 24 .cfa: sp 0 + .ra: lr
STACK CFI INIT 17518 c .cfa: sp 0 + .ra: lr
STACK CFI INIT 17524 2a .cfa: sp 0 + .ra: lr
STACK CFI 17526 .cfa: sp 8 + r4: .cfa -8 + ^ r5: .cfa -4 + ^
STACK CFI INIT 17550 a .cfa: sp 0 + .ra: lr
STACK CFI INIT 1755c a .cfa: sp 0 + .ra: lr
STACK CFI INIT 17568 a .cfa: sp 0 + .ra: lr
STACK CFI INIT 17574 12 .cfa: sp 0 + .ra: lr
STACK CFI INIT 17588 e .cfa: sp 0 + .ra: lr
STACK CFI INIT 17598 c .cfa: sp 0 + .ra: lr
STACK CFI INIT 175a4 26 .cfa: sp 0 + .ra: lr
STACK CFI 175a6 .cfa: sp 8 + r4: .cfa -8 + ^ r5: .cfa -4 + ^
STACK CFI INIT 175cc 22 .cfa: sp 0 + .ra: lr
STACK CFI INIT 175f0 22 .cfa: sp 0 + .ra: lr
STACK CFI INIT 17614 18 .cfa: sp 0 + .ra: lr
STACK CFI INIT 1762c 40 .cfa: sp 0 + .ra: lr
STACK CFI 17632 .cfa: sp 8 + r4: .cfa -8 + ^ r5: .cfa -4 + ^
STACK CFI INIT 1766c 22 .cfa: sp 0 + .ra: lr
STACK CFI INIT 17690 4 .cfa: sp 0 + .ra: lr
STACK CFI INIT 17694 8 .cfa: sp 0 + .ra: lr
STACK CFI INIT 1769c 16 .cfa: sp 0 + .ra: lr
STACK CFI INIT 176b4 a .cfa: sp 0 + .ra: lr
STACK CFI INIT 176c0 a .cfa: sp 0 + .ra: lr
STACK CFI INIT 176cc 12 .cfa: sp 0 + .ra: lr
STACK CFI INIT 176e0 c .cfa: sp 0 + .ra: lr
STACK CFI INIT 176ec 4 .cfa: sp 0 + .ra: lr
STACK CFI INIT 176f0 a .cfa: sp 0 + .ra: lr
STACK CFI INIT 176fc 14 .cfa: sp 0 + .ra: lr
STACK CFI INIT 17710 18 .cfa: sp 0 + .ra: lr
STACK CFI INIT 17728 18 .cfa: sp 0 + .ra: lr
STACK CFI INIT 17740 40 .cfa: sp 0 + .ra: lr
STACK CFI 17746 .cfa: sp 8 + r4: .cfa -8 + ^ r5: .cfa -4 + ^
STACK CFI INIT 17780 18 .cfa: sp 0 + .ra: lr
STACK CFI INIT 17798 18 .cfa: sp 0 + .ra: lr
STACK CFI INIT 177b0 a .cfa: sp 0 + .ra: lr
STACK CFI INIT 177bc 14 .cfa: sp 0 + .ra: lr
STACK CFI INIT 177d0 18 .cfa: sp 0 + .ra: lr
STACK CFI INIT 177e8 a .cfa: sp 0 + .ra: lr
STACK CFI INIT 177f4 12 .cfa: sp 0 + .ra: lr
STACK CFI INIT 17808 18 .cfa: sp 0 + .ra: lr
STACK CFI INIT 17820 c .cfa: sp 0 + .ra: lr
STACK CFI INIT 1782c a .cfa: sp 0 + .ra: lr
STACK CFI INIT 17838 30 .cfa: sp 0 + .ra: lr
STACK CFI 1783e .cfa: sp 4 + r4: .cfa -4 + ^
STACK CFI INIT 17868 38 .cfa: sp 0 + .ra: lr
STACK CFI 1786e .cfa: sp 4 + r4: .cfa -4 + ^
STACK CFI INIT 178a0 38 .cfa: sp 0 + .ra: lr
STACK CFI 178a6 .cfa: sp 4 + r4: .cfa -4 + ^
STACK CFI INIT 178d8 3c .cfa: sp 0 + .ra: lr
STACK CFI 178e0 .cfa: sp 8 + r4: .cfa -8 + ^ r5: .cfa -4 + ^
STACK CFI INIT 17914 38 .cfa: sp 0 + .ra: lr
STACK CFI 1791a .cfa: sp 4 + r4: .cfa -4 + ^
STACK CFI INIT 1794c 38 .cfa: sp 0 + .ra: lr
STACK CFI 17952 .cfa: sp 4 + r4: .cfa -4 + ^
STACK CFI INIT 17984 3e .cfa: sp 0 + .ra: lr
STACK CFI 1798a .cfa: sp 8 + r4: .cfa -8 + ^ r5: .cfa -4 + ^
STACK CFI INIT 179c4 2e .cfa: sp 0 + .ra: lr
STACK CFI 179ca .cfa: sp 4 + r4: .cfa -4 + ^
STACK CFI INIT 179f4 32 .cfa: sp 0 + .ra: lr
STACK CFI 179fa .cfa: sp 4 + r4: .cfa -4 + ^
STACK CFI INIT 17a28 28 .cfa: sp 0 + .ra: lr
STACK CFI 17a32 .cfa: sp 8 + r4: .cfa -8 + ^ r5: .cfa -4 + ^
STACK CFI INIT 17a50 14 .cfa: sp 0 + .ra: lr
STACK CFI INIT 17a64 32 .cfa: sp 0 + .ra: lr
STACK CFI 17a6a .cfa: sp 4 + r4: .cfa -4 + ^
STACK CFI INIT 17a98 2e .cfa: sp 0 + .ra: lr
STACK CFI 17a9e .cfa: sp 4 + r4: .cfa -4 + ^
STACK CFI INIT 17ac8 26 .cfa: sp 0 + .ra: lr
STACK CFI 17ad2 .cfa: sp 8 + r4: .cfa -8 + ^ r5: .cfa -4 + ^
STACK CFI INIT 17af0 30 .cfa: sp 0 + .ra: lr
STACK CFI 17af4 .cfa: sp 32 + .ra: .cfa -4 + ^ r10: .cfa -8 + ^ r4: .cfa -32 + ^ r5: .cfa -28 + ^ r6: .cfa -24 + ^ r7: .cfa -20 + ^ r8: .cfa -16 + ^ r9: .cfa -12 + ^
STACK CFI INIT 17b20 30 .cfa: sp 0 + .ra: lr
STACK CFI 17b24 .cfa: sp 32 + .ra: .cfa -4 + ^ r3: .cfa -32 + ^ r4: .cfa -28 + ^ r5: .cfa -24 + ^ r6: .cfa -20 + ^ r7: .cfa -16 + ^ r8: .cfa -12 + ^ r9: .cfa -8 + ^
STACK CFI INIT 17b50 4 .cfa: sp 0 + .ra: lr
STACK CFI INIT 17b54 4 .cfa: sp 0 + .ra: lr
STACK CFI INIT 17b58 8 .cfa: sp 0 + .ra: lr
STACK CFI INIT 17b60 6 .cfa: sp 0 + .ra: lr
STACK CFI INIT 17b68 c6 .cfa: sp 0 + .ra: lr
STACK CFI 17b78 .cfa: sp 12 + r4: .cfa -12 + ^ r5: .cfa -8 + ^ r6: .cfa -4 + ^
STACK CFI INIT 17c30 5a .cfa: sp 0 + .ra: lr
STACK CFI 17c42 .cfa: sp 4 + r4: .cfa -4 + ^
STACK CFI INIT 17c8c 4 .cfa: sp 0 + .ra: lr
STACK CFI INIT 17c90 4 .cfa: sp 0 + .ra: lr
STACK CFI INIT 17c94 4 .cfa: sp 0 + .ra: lr
STACK CFI INIT 17c98 4 .cfa: sp 0 + .ra: lr
STACK CFI INIT 17c9c 2 .cfa: sp 0 + .ra: lr
STACK CFI INIT 17ca0 12 .cfa: sp 0 + .ra: lr
STACK CFI INIT 17cb4 5e .cfa: sp 0 + .ra: lr
STACK CFI 17cb8 .cfa: sp 40 + .ra: .cfa -4 + ^ r10: .cfa -12 + ^ r11: .cfa -8 + ^ r3: .cfa -40 + ^ r4: .cfa -36 + ^ r5: .cfa -32 + ^ r6: .cfa -28 + ^ r7: .cfa -24 + ^ r8: .cfa -20 + ^ r9: .cfa -16 + ^
STACK CFI INIT 17d14 34 .cfa: sp 0 + .ra: lr
STACK CFI INIT 17d48 bc .cfa: sp 0 + .ra: lr
STACK CFI 17d50 .cfa: sp 12 + .ra: .cfa -4 + ^ r4: .cfa -12 + ^ r5: .cfa -8 + ^
STACK CFI 17d56 .cfa: sp 24 +
STACK CFI INIT 17e04 58 .cfa: sp 0 + .ra: lr
STACK CFI 17e08 .cfa: sp 8 + .ra: .cfa -4 + ^ r4: .cfa -8 + ^
STACK CFI INIT 17e5c c .cfa: sp 0 + .ra: lr
STACK CFI INIT 17e68 4 .cfa: sp 0 + .ra: lr
STACK CFI INIT 17e6c 2 .cfa: sp 0 + .ra: lr
STACK CFI INIT 17e70 3e .cfa: sp 0 + .ra: lr
STACK CFI 17e72 .cfa: sp 24 + .ra: .cfa -4 + ^ r3: .cfa -24 + ^ r4: .cfa -20 + ^ r5: .cfa -16 + ^ r6: .cfa -12 + ^ r7: .cfa -8 + ^
STACK CFI INIT 17eb0 f4 .cfa: sp 0 + .ra: lr
STACK CFI 17eb4 .cfa: sp 36 + .ra: .cfa -4 + ^ r10: .cfa -12 + ^ r11: .cfa -8 + ^ r4: .cfa -36 + ^ r5: .cfa -32 + ^ r6: .cfa -28 + ^ r7: .cfa -24 + ^ r8: .cfa -20 + ^ r9: .cfa -16 + ^
STACK CFI 17ebc .cfa: sp 1016 +
STACK CFI INIT 17fa4 4 .cfa: sp 0 + .ra: lr
STACK CFI INIT 17fa8 66 .cfa: sp 0 + .ra: lr
STACK CFI 17fae .cfa: sp 24 + .ra: .cfa -4 + ^ r4: .cfa -24 + ^ r5: .cfa -20 + ^ r6: .cfa -16 + ^ r7: .cfa -12 + ^ r8: .cfa -8 + ^
STACK CFI 17fb8 .cfa: sp 504 +
STACK CFI INIT 18010 12 .cfa: sp 0 + .ra: lr
STACK CFI 18012 .cfa: sp 8 + r4: .cfa -8 + ^ r5: .cfa -4 + ^
STACK CFI INIT 18024 44 .cfa: sp 0 + .ra: lr
STACK CFI 18028 .cfa: sp 16 + .ra: .cfa -4 + ^ r4: .cfa -16 + ^ r5: .cfa -12 + ^ r6: .cfa -8 + ^
STACK CFI INIT 18068 1a .cfa: sp 0 + .ra: lr
STACK CFI 1806c .cfa: sp 4 + r4: .cfa -4 + ^
STACK CFI INIT 18084 2 .cfa: sp 0 + .ra: lr
STACK CFI INIT 18088 e .cfa: sp 0 + .ra: lr
STACK CFI 1808a .cfa: sp 8 + .ra: .cfa -4 + ^ r3: .cfa -8 + ^
STACK CFI INIT 18098 3a .cfa: sp 0 + .ra: lr
STACK CFI 1809a .cfa: sp 8 + r4: .cfa -8 + ^ r5: .cfa -4 + ^
STACK CFI INIT 180d4 18 .cfa: sp 0 + .ra: lr
STACK CFI 180d6 .cfa: sp 8 + .ra: .cfa -4 + ^ r4: .cfa -8 + ^
STACK CFI 180d8 .cfa: sp 24 +
STACK CFI INIT 180ec 3a .cfa: sp 0 + .ra: lr
STACK CFI 180ee .cfa: sp 8 + r4: .cfa -8 + ^ r5: .cfa -4 + ^
STACK CFI INIT 18128 1c .cfa: sp 0 + .ra: lr
STACK CFI 1812a .cfa: sp 12 + .ra: .cfa -4 + ^ r4: .cfa -12 + ^ r5: .cfa -8 + ^
STACK CFI 1812c .cfa: sp 32 +
STACK CFI INIT 18144 7a .cfa: sp 0 + .ra: lr
STACK CFI 1814a .cfa: sp 28 + .ra: .cfa -4 + ^ r4: .cfa -28 + ^ r5: .cfa -24 + ^ r6: .cfa -20 + ^ r7: .cfa -16 + ^ r8: .cfa -12 + ^ r9: .cfa -8 + ^
STACK CFI 18156 .cfa: sp 600 +
STACK CFI INIT 181c0 2f0 .cfa: sp 0 + .ra: lr
STACK CFI 181c4 .cfa: sp 36 + .ra: .cfa -4 + ^ r10: .cfa -12 + ^ r11: .cfa -8 + ^ r4: .cfa -36 + ^ r5: .cfa -32 + ^ r6: .cfa -28 + ^ r7: .cfa -24 + ^ r8: .cfa -20 + ^ r9: .cfa -16 + ^
STACK CFI 181ca .cfa: sp 88 +
STACK CFI INIT 184b0 4 .cfa: sp 0 + .ra: lr
STACK CFI INIT 184b4 4 .cfa: sp 0 + .ra: lr
STACK CFI INIT 184b8 4 .cfa: sp 0 + .ra: lr
STACK CFI INIT 184bc 270 .cfa: sp 0 + .ra: lr
STACK CFI 184c0 .cfa: sp 24 + .ra: .cfa -4 + ^ r4: .cfa -24 + ^ r5: .cfa -20 + ^ r6: .cfa -16 + ^ r7: .cfa -12 + ^ r8: .cfa -8 + ^
STACK CFI 184c4 .cfa: sp 296 +
STACK CFI INIT 188d8 34 .cfa: sp 0 + .ra: lr
STACK CFI INIT 1890c 1a .cfa: sp 0 + .ra: lr
STACK CFI 1890e .cfa: sp 4 + .ra: .cfa -4 + ^
STACK CFI 18910 .cfa: sp 24 +
STACK CFI INIT 18928 2 .cfa: sp 0 + .ra: lr
STACK CFI INIT 1892c 2ca .cfa: sp 0 + .ra: lr
STACK CFI 18930 .cfa: sp 28 + .ra: .cfa -4 + ^ r4: .cfa -28 + ^ r5: .cfa -24 + ^ r6: .cfa -20 + ^ r7: .cfa -16 + ^ r8: .cfa -12 + ^ r9: .cfa -8 + ^
STACK CFI 18932 .cfa: sp 48 +
STACK CFI INIT 18bf8 2a .cfa: sp 0 + .ra: lr
STACK CFI 18bfe .cfa: sp 12 + .ra: .cfa -4 + ^ r4: .cfa -12 + ^ r5: .cfa -8 + ^
STACK CFI 18c00 .cfa: sp 32 +
STACK CFI INIT 18c24 a .cfa: sp 0 + .ra: lr
STACK CFI 18c26 .cfa: sp 8 + .ra: .cfa -4 + ^ r3: .cfa -8 + ^
STACK CFI INIT 18c30 12 .cfa: sp 0 + .ra: lr
STACK CFI 18c32 .cfa: sp 8 + .ra: .cfa -4 + ^ r3: .cfa -8 + ^
STACK CFI INIT 18c44 6 .cfa: sp 0 + .ra: lr
STACK CFI 18c46 .cfa: sp 8 + .ra: .cfa -4 + ^ r3: .cfa -8 + ^
STACK CFI INIT 18c4c 6 .cfa: sp 0 + .ra: lr
STACK CFI 18c4e .cfa: sp 8 + .ra: .cfa -4 + ^ r3: .cfa -8 + ^
STACK CFI INIT 18c54 24 .cfa: sp 0 + .ra: lr
STACK CFI 18c56 .cfa: sp 8 + r4: .cfa -8 + ^ r5: .cfa -4 + ^
STACK CFI INIT 18c78 30 .cfa: sp 0 + .ra: lr
STACK CFI 18c7a .cfa: sp 8 + r4: .cfa -8 + ^ r5: .cfa -4 + ^
STACK CFI INIT 18ca8 4a .cfa: sp 0 + .ra: lr
STACK CFI 18cac .cfa: sp 8 + .ra: .cfa -4 + ^ r3: .cfa -8 + ^
STACK CFI INIT 18cf4 a2 .cfa: sp 0 + .ra: lr
STACK CFI 18cf8 .cfa: sp 16 + .ra: .cfa -4 + ^ r4: .cfa -16 + ^ r5: .cfa -12 + ^ r6: .cfa -8 + ^
STACK CFI 18cfc .cfa: sp 32 +
STACK CFI INIT 18d98 1e .cfa: sp 0 + .ra: lr
STACK CFI 18d9a .cfa: sp 16 + .ra: .cfa -4 + ^ r4: .cfa -16 + ^ r5: .cfa -12 + ^ r6: .cfa -8 + ^
STACK CFI INIT 18db8 5c .cfa: sp 0 + .ra: lr
STACK CFI 18dba .cfa: sp 16 + .ra: .cfa -4 + ^ r4: .cfa -16 + ^ r5: .cfa -12 + ^ r6: .cfa -8 + ^
STACK CFI 18dbe .cfa: sp 24 +
STACK CFI INIT 18e14 1c .cfa: sp 0 + .ra: lr
STACK CFI 18e16 .cfa: sp 12 + .ra: .cfa -4 + ^ r4: .cfa -12 + ^ r5: .cfa -8 + ^
STACK CFI 18e18 .cfa: sp 32 +
STACK CFI INIT 18e30 1a .cfa: sp 0 + .ra: lr
STACK CFI 18e32 .cfa: sp 4 + .ra: .cfa -4 + ^
STACK CFI 18e34 .cfa: sp 24 +
STACK CFI INIT 18e4c f2 .cfa: sp 0 + .ra: lr
STACK CFI 18e56 .cfa: sp 32 + .ra: .cfa -4 + ^ r10: .cfa -8 + ^ r4: .cfa -32 + ^ r5: .cfa -28 + ^ r6: .cfa -24 + ^ r7: .cfa -20 + ^ r8: .cfa -16 + ^ r9: .cfa -12 + ^
STACK CFI 18e5a .cfa: sp 80 +
STACK CFI INIT 18f40 18 .cfa: sp 0 + .ra: lr
STACK CFI INIT 18f58 4 .cfa: sp 0 + .ra: lr
STACK CFI INIT d058 4 .cfa: sp 0 + .ra: lr
STACK CFI INIT 18f5c 2a .cfa: sp 0 + .ra: lr
STACK CFI 18f5e .cfa: sp 24 + .ra: .cfa -4 + ^ r3: .cfa -24 + ^ r4: .cfa -20 + ^ r5: .cfa -16 + ^ r6: .cfa -12 + ^ r7: .cfa -8 + ^
STACK CFI INIT d05c 4a .cfa: sp 0 + .ra: lr
STACK CFI d05e .cfa: sp 16 + .ra: .cfa -4 + ^ r3: .cfa -16 + ^ r4: .cfa -12 + ^ r5: .cfa -8 + ^
STACK CFI INIT d0a8 1c .cfa: sp 0 + .ra: lr
STACK CFI d0aa .cfa: sp 8 + .ra: .cfa -4 + ^ r3: .cfa -8 + ^
STACK CFI INIT d0c4 1c .cfa: sp 0 + .ra: lr
STACK CFI d0c6 .cfa: sp 8 + .ra: .cfa -4 + ^ r3: .cfa -8 + ^
STACK CFI INIT 18f88 18 .cfa: sp 0 + .ra: lr
STACK CFI INIT 18fa0 e .cfa: sp 0 + .ra: lr
STACK CFI 18fa2 .cfa: sp 8 + .ra: .cfa -4 + ^ r3: .cfa -8 + ^
STACK CFI INIT d0e0 28 .cfa: sp 0 + .ra: lr
STACK CFI d0e2 .cfa: sp 8 + .ra: .cfa -4 + ^ r3: .cfa -8 + ^
STACK CFI INIT 18fb0 e4 .cfa: sp 0 + .ra: lr
STACK CFI 18fb4 .cfa: sp 24 + .ra: .cfa -4 + ^ r4: .cfa -24 + ^ r5: .cfa -20 + ^ r6: .cfa -16 + ^ r7: .cfa -12 + ^ r8: .cfa -8 + ^
STACK CFI INIT 19094 26 .cfa: sp 0 + .ra: lr
STACK CFI 19096 .cfa: sp 4 + r4: .cfa -4 + ^
