MODULE Linux arm 0EC33DB28D381DFC018F66154A5020EF0 Launcher
FUNC f1d8 804 0 main
FUNC f9dc 424 0 customMessageOutput
FUNC fe00 c8 0 setTextCodec
FUNC fec8 d0 0 __static_initialization_and_destruction_0
FUNC ff98 1c 0 _GLOBAL__sub_I_main
FUNC ffb4 14 0 qt_noop
FUNC ffc8 38 0 QLatin1Char::QLatin1Char
FUNC 10000 28 0 QLatin1Char::unicode
FUNC 10028 40 0 QChar::QChar
FUNC 10068 40 0 QBasicAtomicInt::operator!=
FUNC 100a8 6c 0 QBasicAtomicInt::ref
FUNC 10114 6c 0 QBasicAtomicInt::deref
FUNC 10180 54 0 QByteArray::~QByteArray
FUNC 101d4 30 0 QByteArray::data
FUNC 10204 2c 0 QByteArray::constData
FUNC 10230 84 0 QByteArray::detach
FUNC 102b4 30 0 QString::operator+=
FUNC 102e4 3c 0 QString::QString
FUNC 10320 78 0 QString::QString
FUNC 10398 5c 0 QString::arg
FUNC 103f4 40 0 QString::QString
FUNC 10434 54 0 QString::~QString
FUNC 10488 4c 0 operator+
FUNC 104d4 a8 0 QDebug::Stream::Stream
FUNC 1057c 54 0 QDebug::QDebug
FUNC 105d0 50 0 QDebug::Stream::~Stream
FUNC 10620 e8 0 QDebug::~QDebug
FUNC 10708 48 0 QDebug::maybeSpace
FUNC 10750 40 0 QDebug::operator<<
FUNC 10790 7c 0 QDebug::operator<<
FUNC 1080c 60 0 QDebug::operator<<
FUNC 1086c 28 0 qDebug
FUNC 10894 60 0 QTextCodec::codecForName
FUNC 108f4 2c 0 QTextCodec::setCodecForTr
FUNC 10920 2c 0 QTextCodec::setCodecForCStrings
FUNC 1094c 34 0 QFlags<QIODevice::OpenModeFlag>::QFlags
FUNC 10980 10c 0 HomeWidget::HomeWidget
FUNC 10a8c b4 0 HomeWidget::~HomeWidget
FUNC 10b50 30 0 HomeWidget::~HomeWidget
FUNC 10b90 540 0 HomeWidget::mousePressEvent
FUNC 110d0 c4 0 HomeWidget::mouseReleaseEvent
FUNC 11194 20 0 HomeWidget::showEvent
FUNC 111b4 b8 0 HomeWidget::resizeEvent
FUNC 1126c 38 0 HomeWidgetPrivate::receiveAllCustomEvent
FUNC 112a4 60 0 HomeWidget::customEvent
FUNC 11304 d3c 0 HomeWidget::paintEvent
FUNC 12040 ec 0 HomeWidget::ontWidgetTypeChange
FUNC 12134 a8 0 HomeWidgetPrivate::HomeWidgetPrivate
FUNC 121dc 50 0 HomeWidgetPrivate::~HomeWidgetPrivate
FUNC 1222c 63c 0 initializeRunnableCallback
FUNC 12868 fa8 0 HomeWidgetPrivate::initialize
FUNC 13810 6c 0 HomeWidgetPrivate::connectAllSlots
FUNC 1387c 110 0 HomeWidgetPrivate::onBmpButtonRelease
FUNC 1398c 1b8 0 __static_initialization_and_destruction_0
FUNC 13b44 1c 0 _GLOBAL__sub_I__ZN10HomeWidgetC2EP7QWidget
FUNC 13b60 4c 0 operator|
FUNC 13bac 40 0 QBasicAtomicInt::operator==
FUNC 13bec 40 0 QByteArray::QByteArray
FUNC 13c2c 44 0 QByteArray::QByteArray
FUNC 13c70 28 0 operator new
FUNC 13c98 20 0 operator delete
FUNC 13cb8 40 0 QObject::tr
FUNC 13cf8 28 0 QEvent::type
FUNC 13d20 5c 0 QRect::QRect
FUNC 13d7c 78 0 QRect::QRect
FUNC 13df4 28 0 QRect::x
FUNC 13e1c 28 0 QRect::y
FUNC 13e44 38 0 QRect::width
FUNC 13e7c 38 0 QRect::height
FUNC 13eb4 60 0 QRectF::QRectF
FUNC 13f14 a4 0 QRectF::QRectF
FUNC 13fb8 24 0 QCoreApplication::instance
FUNC 13fdc 18 0 QCoreApplication::sendPostedEvents
FUNC 13ff4 34 0 Widget::Interface::Interface
FUNC 14028 44 0 Widget::Interface::~Interface
FUNC 1406c 30 0 Widget::Interface::~Interface
FUNC 1409c b4 0 Widget::instance
FUNC 14150 2c 0 QWidget::isVisible
FUNC 1417c 70 0 QWidget::testAttribute
FUNC 141ec 30 0 QTime::QTime
FUNC 1421c 40 0 QDebug::operator<<
FUNC 1425c 28 0 qWarning
FUNC 14284 98 0 EventEngine::instance
FUNC 1431c ac 0 QPainter::drawImage
FUNC 143c8 28 0 QMouseEvent::pos
FUNC 143f0 b0 0 HomeWidgetPrivate::ToolButtonData::ToolButtonData
FUNC 144a0 7c 0 HomeWidgetPrivate::ToolButtonData::~ToolButtonData
FUNC 1451c 34 0 QFlags<Qt::AlignmentFlag>::QFlags
FUNC 14550 4c 0 QFlags<Qt::AlignmentFlag>::operator|
FUNC 1459c 34 0 QFlags<Qt::ImageConversionFlag>::QFlags
FUNC 145d0 40 0 QList<QString>::QList
FUNC 14610 7c 0 QList<QString>::~QList
FUNC 1468c 28 0 QFlags<Qt::AlignmentFlag>::operator int
FUNC 146b4 34 0 QFlags<Qt::WindowType>::QFlags
FUNC 146e8 34 0 QScopedPointer<HomeWidgetPrivate, QScopedPointerDeleter<HomeWidgetPrivate> >::QScopedPointer
FUNC 1471c 40 0 QScopedPointer<HomeWidgetPrivate, QScopedPointerDeleter<HomeWidgetPrivate> >::~QScopedPointer
FUNC 1475c 54 0 QScopedPointer<HomeWidgetPrivate, QScopedPointerDeleter<HomeWidgetPrivate> >::operator->
FUNC 147b0 2c 0 QMap<HomeWidgetPrivate::Type, HomeWidgetPrivate::ToolButtonData>::size
FUNC 147dc 13c 0 QMap<HomeWidgetPrivate::Type, HomeWidgetPrivate::ToolButtonData>::operator[]
FUNC 14918 3c 0 QScopedPointer<HomeWidgetPrivate, QScopedPointerDeleter<HomeWidgetPrivate> >::operator QScopedPointer<HomeWidgetPrivate>::RestrictedBool
FUNC 14954 44 0 QMap<HomeWidgetPrivate::Type, HomeWidgetPrivate::ToolButtonData>::QMap
FUNC 14998 70 0 QMap<HomeWidgetPrivate::Type, HomeWidgetPrivate::ToolButtonData>::~QMap
FUNC 14a08 54 0 QMap<HomeWidgetPrivate::Type, HomeWidgetPrivate::ToolButtonData>::clear
FUNC 14a5c c4 0 HomeWidgetPrivate::ToolButtonData::operator=
FUNC 14b20 c0 0 QMap<HomeWidgetPrivate::Type, HomeWidgetPrivate::ToolButtonData>::insert
FUNC 14be0 34 0 QFlags<Qt::AlignmentFlag>::QFlags
FUNC 14c14 88 0 QList<QString>::free
FUNC 14c9c 34 0 QScopedPointerDeleter<HomeWidgetPrivate>::cleanup
FUNC 14cd0 44 0 QMap<HomeWidgetPrivate::Type, HomeWidgetPrivate::ToolButtonData>::detach
FUNC 14d14 15c 0 QMap<HomeWidgetPrivate::Type, HomeWidgetPrivate::ToolButtonData>::mutableFindNode
FUNC 14e70 f0 0 HomeWidgetPrivate::ToolButtonData::ToolButtonData
FUNC 14f60 d0 0 QMap<HomeWidgetPrivate::Type, HomeWidgetPrivate::ToolButtonData>::node_create
FUNC 15030 30 0 QMap<HomeWidgetPrivate::Type, HomeWidgetPrivate::ToolButtonData>::concrete
FUNC 15060 38 0 QScopedPointer<HomeWidgetPrivate, QScopedPointerDeleter<HomeWidgetPrivate> >::isNull
FUNC 15098 8c 0 QMap<HomeWidgetPrivate::Type, HomeWidgetPrivate::ToolButtonData>::freeData
FUNC 15124 c8 0 QMap<HomeWidgetPrivate::Type, HomeWidgetPrivate::ToolButtonData>::operator=
FUNC 151ec 34 0 QMap<HomeWidgetPrivate::Type, HomeWidgetPrivate::ToolButtonData>::iterator::iterator
FUNC 15220 48 0 QList<QString>::node_destruct
FUNC 15268 118 0 QMap<HomeWidgetPrivate::Type, HomeWidgetPrivate::ToolButtonData>::detach_helper
FUNC 15380 44 0 qMapLessThanKey<HomeWidgetPrivate::Type>
FUNC 153c4 1c 0 QMap<HomeWidgetPrivate::Type, HomeWidgetPrivate::ToolButtonData>::payload
FUNC 153e0 44 0 QMap<HomeWidgetPrivate::Type, HomeWidgetPrivate::ToolButtonData>::alignment
FUNC 15424 48 0 qMax<unsigned int>
FUNC 1546c 10c 0 IdleWidget::IdleWidget
FUNC 15578 b4 0 IdleWidget::~IdleWidget
FUNC 1563c 30 0 IdleWidget::~IdleWidget
FUNC 1567c 80 0 IdleWidget::paintEvent
FUNC 156fc 80 0 IdleWidget::showEvent
FUNC 1577c 74 0 IdleWidget::resizeEvent
FUNC 157f0 3c 0 IdleWidget::mouseReleaseEvent
FUNC 1582c 180 0 IdleWidget::customEvent
FUNC 159ac 104 0 IdleWidget::onDisplayScreenChange
FUNC 15ab8 38 0 IdleWidgetPrivate::IdleWidgetPrivate
FUNC 15af0 24 0 IdleWidgetPrivate::~IdleWidgetPrivate
FUNC 15b14 1c 0 IdleWidgetPrivate::initialize
FUNC 15b30 38 0 IdleWidgetPrivate::receiveAllCustomEvent
FUNC 15b68 6c 0 IdleWidgetPrivate::connectAllSlots
FUNC 15bd4 b0 0 __static_initialization_and_destruction_0
FUNC 15c84 1c 0 _GLOBAL__sub_I__ZN10IdleWidgetC2EP7QWidget
FUNC 15ca0 34 0 Setting::Interface::Interface
FUNC 15cd4 44 0 Setting::Interface::~Interface
FUNC 15d18 30 0 Setting::Interface::~Interface
FUNC 15d48 b4 0 Setting::instance
FUNC 15dfc 68 0 QWidget::rect
FUNC 15e64 44 0 QPainter::fillRect
FUNC 15ea8 34 0 QScopedPointer<IdleWidgetPrivate, QScopedPointerDeleter<IdleWidgetPrivate> >::QScopedPointer
FUNC 15edc 40 0 QScopedPointer<IdleWidgetPrivate, QScopedPointerDeleter<IdleWidgetPrivate> >::~QScopedPointer
FUNC 15f1c 3c 0 QScopedPointer<IdleWidgetPrivate, QScopedPointerDeleter<IdleWidgetPrivate> >::operator QScopedPointer<IdleWidgetPrivate>::RestrictedBool
FUNC 15f58 54 0 QScopedPointer<IdleWidgetPrivate, QScopedPointerDeleter<IdleWidgetPrivate> >::operator->
FUNC 15fac 34 0 QScopedPointerDeleter<IdleWidgetPrivate>::cleanup
FUNC 15fe0 38 0 QScopedPointer<IdleWidgetPrivate, QScopedPointerDeleter<IdleWidgetPrivate> >::isNull
FUNC 16018 118 0 CarplayLinkWidget::CarplayLinkWidget
FUNC 16130 e4 0 CarplayLinkWidget::~CarplayLinkWidget
FUNC 1622c 30 0 CarplayLinkWidget::~CarplayLinkWidget
FUNC 16274 74 0 CarplayLinkWidget::resizeEvent
FUNC 162e8 d8 0 CarplayLinkWidget::paintEvent
FUNC 163c0 2e0 0 CarplayLinkWidget::mousePressEvent
FUNC 166a0 1ac 0 CarplayLinkWidget::mouseReleaseEvent
FUNC 1684c 1ac 0 CarplayLinkWidget::mouseMoveEvent
FUNC 169f8 158 0 CarplayLinkWidget::customEvent
FUNC 16b50 58 0 CarplayLinkWidget::timerEvent
FUNC 16ba8 ec 0 CarplayLinkWidget::event
FUNC 16c94 1b0 0 CarplayLinkWidget::ontWidgetTypeChange
FUNC 16e4c ec 0 CarplayLinkWidget::onLinkStatusChange
FUNC 16f40 90 0 CarplayLinkWidgetPrivate::CarplayLinkWidgetPrivate
FUNC 16fd0 24 0 CarplayLinkWidgetPrivate::~CarplayLinkWidgetPrivate
FUNC 16ff4 dc 0 CarplayLinkWidgetPrivate::initialize
FUNC 170d0 38 0 CarplayLinkWidgetPrivate::receiveAllCustomEvent
FUNC 17108 bc 0 CarplayLinkWidgetPrivate::connectAllSlots
FUNC 171c4 6c4 0 CarplayLinkWidgetPrivate::onCarplayLinkStatus
FUNC 17888 2f8 0 CarplayLinkWidgetPrivate::touchBeginEventHandler
FUNC 17b80 254 0 CarplayLinkWidgetPrivate::touchUpdateEventHandler
FUNC 17dd4 254 0 CarplayLinkWidgetPrivate::touchEndEventHandler
FUNC 18028 824 0 CarplayLinkWidgetPrivate::translateTouchEvent
FUNC 1884c 134 0 __static_initialization_and_destruction_0
FUNC 18980 1c 0 _GLOBAL__sub_I__ZN17CarplayLinkWidgetC2EP7QWidget
FUNC 1899c 10c 0 qRound
FUNC 18aa8 40 0 QString::isNull
FUNC 18ae8 3c 0 QString::isEmpty
FUNC 18b24 70 0 QString::clear
FUNC 18b94 3c 0 QListData::size
FUNC 18bd0 54 0 QListData::at
FUNC 18c24 44 0 QListData::begin
FUNC 18c68 44 0 QListData::end
FUNC 18cac 28 0 QTimerEvent::timerId
FUNC 18cd4 24 0 TouchEvent::TouchEvent
FUNC 18cf8 24 0 TouchEvent::~TouchEvent
FUNC 18d1c 34 0 Link::Interface::Interface
FUNC 18d50 44 0 Link::Interface::~Interface
FUNC 18d94 30 0 Link::Interface::~Interface
FUNC 18dc4 b4 0 Link::instance
FUNC 18e78 44 0 QPoint::QPoint
FUNC 18ebc 28 0 QPoint::x
FUNC 18ee4 28 0 QPoint::y
FUNC 18f0c 58 0 QPointF::toPoint
FUNC 18f64 48 0 QColor::QColor
FUNC 18fac 34 0 QWidget::hide
FUNC 18fe0 4c 0 QDebug::QDebug
FUNC 1902c 44 0 QDebug::space
FUNC 19070 34 0 QDebug::nospace
FUNC 190a4 68 0 QDebug::operator<<
FUNC 1910c 4c 0 QDebug::operator<<
FUNC 19158 1c 0 QMetaTypeId2<QWidget*>::qt_metatype_id
FUNC 19174 60 0 QVariant::Private::Private
FUNC 191d4 24 0 QVariant::data_ptr
FUNC 191f8 50 0 qvariant_cast_helper
FUNC 19248 2c 0 QVariant::QVariant
FUNC 19274 68 0 QVariant::isDetached
FUNC 192dc 34 0 QTouchEvent::touchPointStates
FUNC 19310 28 0 QTouchEvent::touchPoints
FUNC 19338 2c 0 QDomElement::~QDomElement
FUNC 19364 2c 0 QDomCharacterData::~QDomCharacterData
FUNC 19390 2c 0 QDomText::~QDomText
FUNC 193bc 38 0 QFlags<Qt::TouchPointState>::QFlags
FUNC 193f4 7c 0 QList<QTouchEvent::TouchPoint>::~QList
FUNC 19470 34 0 QScopedPointer<CarplayLinkWidgetPrivate, QScopedPointerDeleter<CarplayLinkWidgetPrivate> >::QScopedPointer
FUNC 194a4 40 0 QScopedPointer<CarplayLinkWidgetPrivate, QScopedPointerDeleter<CarplayLinkWidgetPrivate> >::~QScopedPointer
FUNC 194e4 40 0 QList<TouchEvent>::QList
FUNC 19524 7c 0 QList<TouchEvent>::~QList
FUNC 195a0 54 0 QList<TouchEvent>::clear
FUNC 195f4 8c 0 QList<TouchEvent>::append
FUNC 19680 54 0 QScopedPointer<CarplayLinkWidgetPrivate, QScopedPointerDeleter<CarplayLinkWidgetPrivate> >::operator->
FUNC 196d4 28 0 QVariant::canConvert<QWidget*>
FUNC 196fc 28 0 QVariant::value<QWidget*>
FUNC 19724 28 0 QVariant::setValue<QWidget*>
FUNC 1974c 54 0 EventEngine::CustomEvent<QVariant>::CustomEvent
FUNC 197a0 a0 0 EventEngine::CustomEvent<QVariant>::~CustomEvent
FUNC 19840 30 0 EventEngine::CustomEvent<QVariant>::~CustomEvent
FUNC 19870 54 0 EventEngine::CustomEvent<QString>::CustomEvent
FUNC 198c4 a0 0 EventEngine::CustomEvent<QString>::~CustomEvent
FUNC 19964 30 0 EventEngine::CustomEvent<QString>::~CustomEvent
FUNC 19994 164 0 operator<< <Qt::TouchPointState>
FUNC 19af8 68 0 QList<QTouchEvent::TouchPoint>::QList
FUNC 19b60 2c 0 QList<QTouchEvent::TouchPoint>::size
FUNC 19b8c 90 0 QList<QTouchEvent::TouchPoint>::at
FUNC 19c1c 2c 0 QList<TouchEvent>::size
FUNC 19c48 90 0 QList<TouchEvent>::at
FUNC 19cd8 88 0 QList<QTouchEvent::TouchPoint>::free
FUNC 19d60 30 0 QList<QTouchEvent::TouchPoint>::detach_helper
FUNC 19d90 34 0 QScopedPointerDeleter<CarplayLinkWidgetPrivate>::cleanup
FUNC 19dc4 88 0 QList<TouchEvent>::free
FUNC 19e4c bc 0 QList<TouchEvent>::operator=
FUNC 19f08 130 0 QList<TouchEvent>::detach_helper_grow
FUNC 1a038 44 0 QList<TouchEvent>::node_construct
FUNC 1a07c 38 0 qVariantCanConvert<QWidget*>
FUNC 1a0b4 28 0 qVariantValue<QWidget*>
FUNC 1a0dc 17c 0 qVariantSetValue<QWidget*>
FUNC 1a258 6c 0 QFlags<Qt::TouchPointState>::testFlag
FUNC 1a2c4 28 0 QList<QTouchEvent::TouchPoint>::Node::t
FUNC 1a2ec 28 0 QList<TouchEvent>::Node::t
FUNC 1a314 60 0 QList<QTouchEvent::TouchPoint>::node_destruct
FUNC 1a374 a4 0 QList<QTouchEvent::TouchPoint>::detach_helper
FUNC 1a418 60 0 QList<TouchEvent>::node_destruct
FUNC 1a478 30 0 QList<TouchEvent>::detach_helper
FUNC 1a4a8 80 0 QList<TouchEvent>::node_copy
FUNC 1a528 24 0 qMetaTypeId<QWidget*>
FUNC 1a54c a0 0 qvariant_cast<QWidget*>
FUNC 1a5ec 90 0 QList<QTouchEvent::TouchPoint>::node_copy
FUNC 1a67c a4 0 QList<TouchEvent>::detach_helper
FUNC 1a720 148 0 MirrorLinkWidget::MirrorLinkWidget
FUNC 1a868 114 0 MirrorLinkWidget::~MirrorLinkWidget
FUNC 1a99c 30 0 MirrorLinkWidget::~MirrorLinkWidget
FUNC 1a9ec 144 0 MirrorLinkWidget::resizeEvent
FUNC 1ab30 e8 0 MirrorLinkWidget::paintEvent
FUNC 1ac18 2e0 0 MirrorLinkWidget::mousePressEvent
FUNC 1aef8 1ac 0 MirrorLinkWidget::mouseReleaseEvent
FUNC 1b0a4 1ac 0 MirrorLinkWidget::mouseMoveEvent
FUNC 1b250 158 0 MirrorLinkWidget::customEvent
FUNC 1b3a8 58 0 MirrorLinkWidget::timerEvent
FUNC 1b400 ec 0 MirrorLinkWidget::event
FUNC 1b4ec 234 0 MirrorLinkWidget::ontWidgetTypeChange
FUNC 1b728 58 0 MirrorLinkWidget::onMessageWidgetChange
FUNC 1b780 18c 0 MirrorLinkWidget::onPopBtnRelease
FUNC 1b90c 27c 0 MirrorLinkWidget::onToolBtnRelease
FUNC 1bb88 78 0 MirrorLinkWidget::onTimeout
FUNC 1bc00 f0 0 MirrorLinkWidget::onLinkStatusChange
FUNC 1bcf8 180 0 MirrorLinkWidget::onBTStatus
FUNC 1be80 fc 0 MirrorLinkWidget::onBTPairCode
FUNC 1bf84 fc 0 MirrorLinkWidget::onBTName
FUNC 1c088 164 0 MirrorLinkWidgetPrivate::MirrorLinkWidgetPrivate
FUNC 1c1ec 24 0 MirrorLinkWidgetPrivate::~MirrorLinkWidgetPrivate
FUNC 1c210 33c 0 MirrorLinkWidgetPrivate::initialize
FUNC 1c54c 150 0 MirrorLinkWidgetPrivate::initializeBluetoothTipWidget
FUNC 1c69c 38 0 MirrorLinkWidgetPrivate::receiveAllCustomEvent
FUNC 1c6d4 1d4 0 MirrorLinkWidgetPrivate::connectAllSlots
FUNC 1c8a8 700 0 MirrorLinkWidgetPrivate::onMirrorLinkStatus
FUNC 1cfa8 254 0 MirrorLinkWidgetPrivate::touchBeginEventHandler
FUNC 1d1fc 254 0 MirrorLinkWidgetPrivate::touchUpdateEventHandler
FUNC 1d450 254 0 MirrorLinkWidgetPrivate::touchEndEventHandler
FUNC 1d6a4 824 0 MirrorLinkWidgetPrivate::translateTouchEvent
FUNC 1dec8 134 0 __static_initialization_and_destruction_0
FUNC 1dffc 1c 0 _GLOBAL__sub_I__ZN16MirrorLinkWidgetC2EP7QWidget
FUNC 1e018 34 0 BT::Interface::Interface
FUNC 1e04c 44 0 BT::Interface::~Interface
FUNC 1e090 30 0 BT::Interface::~Interface
FUNC 1e0c0 b4 0 BT::instance
FUNC 1e174 48 0 QTimer::setSingleShot
FUNC 1e1bc 34 0 QScopedPointer<MirrorLinkWidgetPrivate, QScopedPointerDeleter<MirrorLinkWidgetPrivate> >::QScopedPointer
FUNC 1e1f0 40 0 QScopedPointer<MirrorLinkWidgetPrivate, QScopedPointerDeleter<MirrorLinkWidgetPrivate> >::~QScopedPointer
FUNC 1e230 54 0 QScopedPointer<MirrorLinkWidgetPrivate, QScopedPointerDeleter<MirrorLinkWidgetPrivate> >::operator->
FUNC 1e284 34 0 QScopedPointerDeleter<MirrorLinkWidgetPrivate>::cleanup
FUNC 1e2b8 e8 0 LinkWidget::LinkWidget
FUNC 1e3a0 b4 0 LinkWidget::~LinkWidget
FUNC 1e464 30 0 LinkWidget::~LinkWidget
FUNC 1e4a4 74 0 LinkWidget::resizeEvent
FUNC 1e518 f8 0 LinkWidget::showEvent
FUNC 1e610 1bc 0 LinkWidget::customEvent
FUNC 1e7cc 70 0 LinkWidget::timerEvent
FUNC 1e83c 254 0 LinkWidget::ontWidgetTypeChange
FUNC 1ea98 180 0 LinkWidget::onToolButtonRelease
FUNC 1ec18 fc 0 LinkWidgetPrivate::LinkWidgetPrivate
FUNC 1ed14 24 0 LinkWidgetPrivate::~LinkWidgetPrivate
FUNC 1ed38 f10 0 LinkWidgetPrivate::initializeLinkWidget
FUNC 1fc48 60 0 LinkWidgetPrivate::initializeMirrowWidget
FUNC 1fca8 60 0 LinkWidgetPrivate::initializeCarplayWidget
FUNC 1fd08 38 0 LinkWidgetPrivate::receiveAllCustomEvent
FUNC 1fd40 1e0 0 LinkWidgetPrivate::connectAllSlots
FUNC 1ff20 18c 0 __static_initialization_and_destruction_0
FUNC 200ac 1c 0 _GLOBAL__sub_I__ZN10LinkWidgetC2EP7QWidget
FUNC 200c8 34 0 QScopedPointer<LinkWidgetPrivate, QScopedPointerDeleter<LinkWidgetPrivate> >::QScopedPointer
FUNC 200fc 40 0 QScopedPointer<LinkWidgetPrivate, QScopedPointerDeleter<LinkWidgetPrivate> >::~QScopedPointer
FUNC 2013c 3c 0 QScopedPointer<LinkWidgetPrivate, QScopedPointerDeleter<LinkWidgetPrivate> >::operator QScopedPointer<LinkWidgetPrivate>::RestrictedBool
FUNC 20178 54 0 QScopedPointer<LinkWidgetPrivate, QScopedPointerDeleter<LinkWidgetPrivate> >::operator->
FUNC 201cc 34 0 QScopedPointerDeleter<LinkWidgetPrivate>::cleanup
FUNC 20200 38 0 QScopedPointer<LinkWidgetPrivate, QScopedPointerDeleter<LinkWidgetPrivate> >::isNull
FUNC 20238 b8 0 MessageBoxWidget::MessageBoxWidget
FUNC 202f0 84 0 MessageBoxWidget::~MessageBoxWidget
FUNC 2037c 30 0 MessageBoxWidget::~MessageBoxWidget
FUNC 203b4 35c 0 MessageBoxWidget::customEvent
FUNC 20710 74 0 MessageBoxWidget::resizeEvent
FUNC 20784 20 0 MessageBoxWidget::paintEvent
FUNC 207a4 40 0 MessageBoxWidgetPrivate::MessageBoxWidgetPrivate
FUNC 207e4 24 0 MessageBoxWidgetPrivate::~MessageBoxWidgetPrivate
FUNC 20808 1c 0 MessageBoxWidgetPrivate::initialize
FUNC 20824 38 0 MessageBoxWidgetPrivate::receiveAllCustomEvent
FUNC 2085c b0 0 __static_initialization_and_destruction_0
FUNC 2090c 1c 0 _GLOBAL__sub_I__ZN16MessageBoxWidgetC2EP7QWidget
FUNC 20928 34 0 QScopedPointer<MessageBoxWidgetPrivate, QScopedPointerDeleter<MessageBoxWidgetPrivate> >::QScopedPointer
FUNC 2095c 40 0 QScopedPointer<MessageBoxWidgetPrivate, QScopedPointerDeleter<MessageBoxWidgetPrivate> >::~QScopedPointer
FUNC 2099c 34 0 QScopedPointerDeleter<MessageBoxWidgetPrivate>::cleanup
FUNC 209d0 118 0 ImageStatusWidget::ImageStatusWidget
FUNC 20ae8 e4 0 ImageStatusWidget::~ImageStatusWidget
FUNC 20be4 30 0 ImageStatusWidget::~ImageStatusWidget
FUNC 20c2c 10c 0 ImageStatusWidget::resizeEvent
FUNC 20d38 d4 0 ImageStatusWidget::paintEvent
FUNC 20e0c 1d8 0 ImageStatusWidget::customEvent
FUNC 20fe4 90 0 ImageStatusWidget::ontWidgetTypeChange
FUNC 2107c ac 0 ImageStatusWidget::onImagePlayerChange
FUNC 21130 60 0 ImageStatusWidgetPrivate::ImageStatusWidgetPrivate
FUNC 21190 24 0 ImageStatusWidgetPrivate::~ImageStatusWidgetPrivate
FUNC 211b4 1a0 0 ImageStatusWidgetPrivate::initialize
FUNC 21354 38 0 ImageStatusWidgetPrivate::receiveAllCustomEvent
FUNC 2138c bc 0 ImageStatusWidgetPrivate::connectAllSlots
FUNC 21448 dc 0 __static_initialization_and_destruction_0
FUNC 21524 1c 0 _GLOBAL__sub_I__ZN17ImageStatusWidgetC2EP7QWidget
FUNC 21540 34 0 Multimedia::Interface::Interface
FUNC 21574 44 0 Multimedia::Interface::~Interface
FUNC 215b8 30 0 Multimedia::Interface::~Interface
FUNC 215e8 b4 0 Multimedia::instance
FUNC 2169c 34 0 QWidget::show
FUNC 216d0 34 0 QScopedPointer<ImageStatusWidgetPrivate, QScopedPointerDeleter<ImageStatusWidgetPrivate> >::QScopedPointer
FUNC 21704 40 0 QScopedPointer<ImageStatusWidgetPrivate, QScopedPointerDeleter<ImageStatusWidgetPrivate> >::~QScopedPointer
FUNC 21744 54 0 QScopedPointer<ImageStatusWidgetPrivate, QScopedPointerDeleter<ImageStatusWidgetPrivate> >::operator->
FUNC 21798 34 0 QScopedPointerDeleter<ImageStatusWidgetPrivate>::cleanup
FUNC 217cc 118 0 ImageToolBarWidget::ImageToolBarWidget
FUNC 218e4 e4 0 ImageToolBarWidget::~ImageToolBarWidget
FUNC 219e0 30 0 ImageToolBarWidget::~ImageToolBarWidget
FUNC 21a28 4a4 0 ImageToolBarWidget::resizeEvent
FUNC 21ecc d4 0 ImageToolBarWidget::paintEvent
FUNC 21fa0 90 0 ImageToolBarWidget::ontWidgetTypeChange
FUNC 22038 21c 0 ImageToolBarWidget::onImagePlayerPlayStatus
FUNC 2225c 248 0 ImageToolBarWidget::onToolButtonRelease
FUNC 224a4 d0 0 ImageToolBarWidgetPrivate::ImageToolBarWidgetPrivate
FUNC 22574 24 0 ImageToolBarWidgetPrivate::~ImageToolBarWidgetPrivate
FUNC 22598 4fc 0 ImageToolBarWidgetPrivate::initialize
FUNC 22a94 274 0 ImageToolBarWidgetPrivate::connectSlots
FUNC 22d08 b0 0 __static_initialization_and_destruction_0
FUNC 22db8 1c 0 _GLOBAL__sub_I__ZN18ImageToolBarWidgetC2EP7QWidget
FUNC 22dd4 34 0 QScopedPointer<ImageToolBarWidgetPrivate, QScopedPointerDeleter<ImageToolBarWidgetPrivate> >::QScopedPointer
FUNC 22e08 40 0 QScopedPointer<ImageToolBarWidgetPrivate, QScopedPointerDeleter<ImageToolBarWidgetPrivate> >::~QScopedPointer
FUNC 22e48 54 0 QScopedPointer<ImageToolBarWidgetPrivate, QScopedPointerDeleter<ImageToolBarWidgetPrivate> >::operator->
FUNC 22e9c 34 0 QScopedPointerDeleter<ImageToolBarWidgetPrivate>::cleanup
FUNC 22ed0 118 0 ImageWidget::ImageWidget
FUNC 22fe8 e4 0 ImageWidget::~ImageWidget
FUNC 230e4 30 0 ImageWidget::~ImageWidget
FUNC 2312c 74 0 ImageWidget::resizeEvent
FUNC 231a0 90 0 ImageWidget::paintEvent
FUNC 23230 168 0 ImageWidget::mousePressEvent
FUNC 23398 180 0 ImageWidget::ontWidgetTypeChange
FUNC 23520 210 0 ImageWidget::onImagePlayerPlayStatus
FUNC 23738 514 0 ImageWidget::onImagePlayerChange
FUNC 23c54 128 0 ImageWidget::onStartTimer
FUNC 23d7c b0 0 ImageWidget::onStopTimer
FUNC 23e2c 120 0 ImageWidgetPrivate::ImageWidgetPrivate
FUNC 23f4c 58 0 ImageWidgetPrivate::~ImageWidgetPrivate
FUNC 23fa4 1c8 0 ImageWidgetPrivate::initialize
FUNC 2416c 154 0 ImageWidgetPrivate::connectAllSlots
FUNC 242c0 510 0 ImageWidget::onTimeout
FUNC 247d0 1a0 0 ImageWidgetPrivate::imageWidgetSwitchHandler
FUNC 24970 b0 0 __static_initialization_and_destruction_0
FUNC 24a20 1c 0 _GLOBAL__sub_I__ZN11ImageWidgetC2EP7QWidget
FUNC 24a3c 34 0 QTimer::isActive
FUNC 24a70 44 0 QSize::QSize
FUNC 24ab4 90 0 operator==
FUNC 24b44 90 0 operator!=
FUNC 24bd4 60 0 QImage::scaled
FUNC 24c34 34 0 QScopedPointer<ImageWidgetPrivate, QScopedPointerDeleter<ImageWidgetPrivate> >::QScopedPointer
FUNC 24c68 40 0 QScopedPointer<ImageWidgetPrivate, QScopedPointerDeleter<ImageWidgetPrivate> >::~QScopedPointer
FUNC 24ca8 54 0 QScopedPointer<ImageWidgetPrivate, QScopedPointerDeleter<ImageWidgetPrivate> >::operator->
FUNC 24cfc 3c 0 qobject_cast<QTimer*>
FUNC 24d38 34 0 QScopedPointerDeleter<ImageWidgetPrivate>::cleanup
FUNC 24d6c 2c 0 QTimer::qt_check_for_QOBJECT_macro<QTimer>
FUNC 24d98 28 0 qYouForgotTheQ_OBJECT_Macro<const QTimer*>
FUNC 24dc0 118 0 MusicShortCutWidget::MusicShortCutWidget
FUNC 24ed8 e4 0 MusicShortCutWidget::~MusicShortCutWidget
FUNC 24fd4 30 0 MusicShortCutWidget::~MusicShortCutWidget
FUNC 2501c 118 0 MusicShortCutWidget::resizeEvent
FUNC 25134 1d8 0 MusicShortCutWidget::customEvent
FUNC 2530c 54 0 MusicShortCutWidget::timerEvent
FUNC 25360 84 0 MusicShortCutWidget::ontWidgetTypeChange
FUNC 253ec 1b4 0 MusicShortCutWidget::onMusicPlayerPlayStatus
FUNC 255a8 5c 0 MusicShortCutWidget::onBmpButtonRelease
FUNC 25604 60 0 MusicShortCutWidgetPrivate::MusicShortCutWidgetPrivate
FUNC 25664 24 0 MusicShortCutWidgetPrivate::~MusicShortCutWidgetPrivate
FUNC 25688 ec 0 MusicShortCutWidgetPrivate::initialize
FUNC 25774 38 0 MusicShortCutWidgetPrivate::receiveAllCustomEvent
FUNC 257ac 10c 0 MusicShortCutWidgetPrivate::connectAllSlots
FUNC 258b8 b0 0 __static_initialization_and_destruction_0
FUNC 25968 1c 0 _GLOBAL__sub_I__ZN19MusicShortCutWidgetC2EP7QWidget
FUNC 25984 34 0 QScopedPointer<MusicShortCutWidgetPrivate, QScopedPointerDeleter<MusicShortCutWidgetPrivate> >::QScopedPointer
FUNC 259b8 40 0 QScopedPointer<MusicShortCutWidgetPrivate, QScopedPointerDeleter<MusicShortCutWidgetPrivate> >::~QScopedPointer
FUNC 259f8 54 0 QScopedPointer<MusicShortCutWidgetPrivate, QScopedPointerDeleter<MusicShortCutWidgetPrivate> >::operator->
FUNC 25a4c 34 0 QScopedPointerDeleter<MusicShortCutWidgetPrivate>::cleanup
FUNC 25a80 118 0 MusicWidget::MusicWidget
FUNC 25b98 e4 0 MusicWidget::~MusicWidget
FUNC 25c94 30 0 MusicWidget::~MusicWidget
FUNC 25cdc c4 0 MusicWidget::resizeEvent
FUNC 25da0 20 0 MusicWidget::paintEvent
FUNC 25dc0 17c 0 MusicWidget::ontWidgetTypeChange
FUNC 25f44 ac 0 MusicWidget::onMusicPlayerPlayStatus
FUNC 25ff8 70 0 MusicWidgetPrivate::MusicWidgetPrivate
FUNC 26068 24 0 MusicWidgetPrivate::~MusicWidgetPrivate
FUNC 2608c 174 0 MusicWidgetPrivate::initialize
FUNC 26200 bc 0 MusicWidgetPrivate::connectAllSlots
FUNC 262bc dc 0 __static_initialization_and_destruction_0
FUNC 26398 1c 0 _GLOBAL__sub_I__ZN11MusicWidgetC2EP7QWidget
FUNC 263b4 34 0 QScopedPointer<MusicWidgetPrivate, QScopedPointerDeleter<MusicWidgetPrivate> >::QScopedPointer
FUNC 263e8 40 0 QScopedPointer<MusicWidgetPrivate, QScopedPointerDeleter<MusicWidgetPrivate> >::~QScopedPointer
FUNC 26428 54 0 QScopedPointer<MusicWidgetPrivate, QScopedPointerDeleter<MusicWidgetPrivate> >::operator->
FUNC 2647c 34 0 QScopedPointerDeleter<MusicWidgetPrivate>::cleanup
FUNC 264b0 13c 0 VideoStatusWidget::VideoStatusWidget
FUNC 265ec e4 0 VideoStatusWidget::~VideoStatusWidget
FUNC 266e8 30 0 VideoStatusWidget::~VideoStatusWidget
FUNC 26730 10c 0 VideoStatusWidget::resizeEvent
FUNC 2683c 1c4 0 VideoStatusWidget::paintEvent
FUNC 26a00 1fc 0 VideoStatusWidget::customEvent
FUNC 26bfc b4 0 VideoStatusWidget::ontWidgetTypeChange
FUNC 26cb8 bc 0 VideoStatusWidget::onVideoPlayerPlayStatus
FUNC 26d7c 100 0 VideoStatusWidget::onVideoPlayerInformation
FUNC 26e84 90 0 VideoStatusWidgetPrivate::VideoStatusWidgetPrivate
FUNC 26f14 24 0 VideoStatusWidgetPrivate::~VideoStatusWidgetPrivate
FUNC 26f38 1a0 0 VideoStatusWidgetPrivate::initialize
FUNC 270d8 38 0 VideoStatusWidgetPrivate::receiveAllCustomEvent
FUNC 27110 bc 0 VideoStatusWidgetPrivate::connectAllSlots
FUNC 271cc dc 0 __static_initialization_and_destruction_0
FUNC 272a8 1c 0 _GLOBAL__sub_I__ZN17VideoStatusWidgetC2EP7QWidget
FUNC 272c4 2c 0 QWidget::geometry
FUNC 272f0 34 0 QScopedPointer<VideoStatusWidgetPrivate, QScopedPointerDeleter<VideoStatusWidgetPrivate> >::QScopedPointer
FUNC 27324 40 0 QScopedPointer<VideoStatusWidgetPrivate, QScopedPointerDeleter<VideoStatusWidgetPrivate> >::~QScopedPointer
FUNC 27364 54 0 QScopedPointer<VideoStatusWidgetPrivate, QScopedPointerDeleter<VideoStatusWidgetPrivate> >::operator->
FUNC 273b8 34 0 QScopedPointerDeleter<VideoStatusWidgetPrivate>::cleanup
FUNC 273ec 118 0 VideoToolBarWidget::VideoToolBarWidget
FUNC 27504 e4 0 VideoToolBarWidget::~VideoToolBarWidget
FUNC 27600 30 0 VideoToolBarWidget::~VideoToolBarWidget
FUNC 27648 aa4 0 VideoToolBarWidget::resizeEvent
FUNC 280ec c4 0 VideoToolBarWidget::paintEvent
FUNC 281b0 478 0 VideoToolBarWidget::ontWidgetTypeChange
FUNC 28630 374 0 VideoToolBarWidget::onVideoPlayerPlayStatus
FUNC 289ac 154 0 VideoToolBarWidget::onVideoPlayerInformation
FUNC 28b08 148 0 VideoToolBarWidget::onVideoPlayerElapsedInformation
FUNC 28c58 38c 0 VideoToolBarWidget::onToolButtonRelease
FUNC 28fe4 2c 0 VideoToolBarWidget::onTickMarksMillesimalStart
FUNC 29010 4c 0 VideoToolBarWidget::onTickMarksMillesimalEnd
FUNC 2905c dc 0 VideoToolBarWidgetPrivate::VideoToolBarWidgetPrivate
FUNC 29138 24 0 VideoToolBarWidgetPrivate::~VideoToolBarWidgetPrivate
FUNC 2915c 888 0 VideoToolBarWidgetPrivate::initialize
FUNC 299e4 34c 0 VideoToolBarWidgetPrivate::connectAllSlots
FUNC 29d30 60 0 VideoToolBarWidgetPrivate::switchFunction
FUNC 29d90 374 0 VideoToolBarWidgetPrivate::convertTime
FUNC 2a104 b0 0 __static_initialization_and_destruction_0
FUNC 2a1b4 1c 0 _GLOBAL__sub_I__ZN18VideoToolBarWidgetC2EP7QWidget
FUNC 2a1d0 34 0 QScopedPointer<VideoToolBarWidgetPrivate, QScopedPointerDeleter<VideoToolBarWidgetPrivate> >::QScopedPointer
FUNC 2a204 40 0 QScopedPointer<VideoToolBarWidgetPrivate, QScopedPointerDeleter<VideoToolBarWidgetPrivate> >::~QScopedPointer
FUNC 2a244 54 0 QScopedPointer<VideoToolBarWidgetPrivate, QScopedPointerDeleter<VideoToolBarWidgetPrivate> >::operator->
FUNC 2a298 34 0 QScopedPointerDeleter<VideoToolBarWidgetPrivate>::cleanup
FUNC 2a2cc 118 0 VideoWidget::VideoWidget
FUNC 2a3e4 e4 0 VideoWidget::~VideoWidget
FUNC 2a4e0 30 0 VideoWidget::~VideoWidget
FUNC 2a528 e0 0 VideoWidget::resizeEvent
FUNC 2a608 d8 0 VideoWidget::paintEvent
FUNC 2a6e0 148 0 VideoWidget::mousePressEvent
FUNC 2a828 15c 0 VideoWidget::ontWidgetTypeChange
FUNC 2a98c 1cc 0 VideoWidget::onVideoPlayerPlayStatus
FUNC 2ab60 44 0 VideoWidget::onVideoPlayerInformation
FUNC 2abac 34 0 VideoWidget::onTimeout
FUNC 2abe0 ac 0 VideoWidgetPrivate::VideoWidgetPrivate
FUNC 2ac8c 24 0 VideoWidgetPrivate::~VideoWidgetPrivate
FUNC 2acb0 1f0 0 VideoWidgetPrivate::initialize
FUNC 2aea0 10c 0 VideoWidgetPrivate::connectAllSlots
FUNC 2afac 118 0 VideoWidgetPrivate::videoWidgetSwitchHandler
FUNC 2b0c4 374 0 VideoWidgetPrivate::convertTime
FUNC 2b438 dc 0 __static_initialization_and_destruction_0
FUNC 2b514 1c 0 _GLOBAL__sub_I__ZN11VideoWidgetC2EP7QWidget
FUNC 2b530 34 0 QScopedPointer<VideoWidgetPrivate, QScopedPointerDeleter<VideoWidgetPrivate> >::QScopedPointer
FUNC 2b564 40 0 QScopedPointer<VideoWidgetPrivate, QScopedPointerDeleter<VideoWidgetPrivate> >::~QScopedPointer
FUNC 2b5a4 54 0 QScopedPointer<VideoWidgetPrivate, QScopedPointerDeleter<VideoWidgetPrivate> >::operator->
FUNC 2b5f8 34 0 QScopedPointerDeleter<VideoWidgetPrivate>::cleanup
FUNC 2b62c 10c 0 GeneralWidget::GeneralWidget
FUNC 2b738 b4 0 GeneralWidget::~GeneralWidget
FUNC 2b7fc 30 0 GeneralWidget::~GeneralWidget
FUNC 2b83c 74 0 GeneralWidget::resizeEvent
FUNC 2b8b0 80 0 GeneralWidget::showEvent
FUNC 2b930 194 0 GeneralWidget::ontWidgetTypeChange
FUNC 2bacc 1d4 0 GeneralWidget::onGeneralListViewItemRelease
FUNC 2bca0 50 0 GeneralWidgetPrivate::GeneralWidgetPrivate
FUNC 2bcf0 24 0 GeneralWidgetPrivate::~GeneralWidgetPrivate
FUNC 2bd14 60 0 GeneralWidgetPrivate::initializeGeneralListView
FUNC 2bd74 60 0 GeneralWidgetPrivate::initializeGeneralResetWidget
FUNC 2bdd4 cc 0 GeneralWidgetPrivate::connectAllSlots
FUNC 2bea0 b0 0 __static_initialization_and_destruction_0
FUNC 2bf50 1c 0 _GLOBAL__sub_I__ZN13GeneralWidgetC2EP7QWidget
FUNC 2bf6c 34 0 QObject::parent
FUNC 2bfa0 2c 0 QWidget::parentWidget
FUNC 2bfcc 54 0 QScopedPointer<QObjectData, QScopedPointerDeleter<QObjectData> >::operator->
FUNC 2c020 34 0 QScopedPointer<GeneralWidgetPrivate, QScopedPointerDeleter<GeneralWidgetPrivate> >::QScopedPointer
FUNC 2c054 40 0 QScopedPointer<GeneralWidgetPrivate, QScopedPointerDeleter<GeneralWidgetPrivate> >::~QScopedPointer
FUNC 2c094 3c 0 QScopedPointer<GeneralWidgetPrivate, QScopedPointerDeleter<GeneralWidgetPrivate> >::operator QScopedPointer<GeneralWidgetPrivate>::RestrictedBool
FUNC 2c0d0 54 0 QScopedPointer<GeneralWidgetPrivate, QScopedPointerDeleter<GeneralWidgetPrivate> >::operator->
FUNC 2c124 34 0 QScopedPointerDeleter<GeneralWidgetPrivate>::cleanup
FUNC 2c158 38 0 QScopedPointer<GeneralWidgetPrivate, QScopedPointerDeleter<GeneralWidgetPrivate> >::isNull
FUNC 2c190 118 0 LanguageWidget::LanguageWidget
FUNC 2c2a8 e4 0 LanguageWidget::~LanguageWidget
FUNC 2c3a4 30 0 LanguageWidget::~LanguageWidget
FUNC 2c3ec 48 0 LanguageWidget::showEvent
FUNC 2c434 648 0 LanguageWidget::resizeEvent
FUNC 2ca7c 2c 0 LanguageWidget::paintEvent
FUNC 2caa8 52c 0 LanguageWidget::ontWidgetTypeChange
FUNC 2cfdc 3d8 0 LanguageWidget::onLanguageTranslateChange
FUNC 2d3bc 398 0 LanguageWidget::onToolButtonRelease
FUNC 2d754 124 0 LanguageWidgetPrivate::LanguageWidgetPrivate
FUNC 2d878 24 0 LanguageWidgetPrivate::~LanguageWidgetPrivate
FUNC 2d89c dd8 0 LanguageWidgetPrivate::initialize
FUNC 2e674 34c 0 LanguageWidgetPrivate::connectAllSlots
FUNC 2e9c0 23c 0 __static_initialization_and_destruction_0
FUNC 2ebfc 1c 0 _GLOBAL__sub_I__ZN14LanguageWidgetC2EP7QWidget
FUNC 2ec18 34 0 QScopedPointer<LanguageWidgetPrivate, QScopedPointerDeleter<LanguageWidgetPrivate> >::QScopedPointer
FUNC 2ec4c 40 0 QScopedPointer<LanguageWidgetPrivate, QScopedPointerDeleter<LanguageWidgetPrivate> >::~QScopedPointer
FUNC 2ec8c 54 0 QScopedPointer<LanguageWidgetPrivate, QScopedPointerDeleter<LanguageWidgetPrivate> >::operator->
FUNC 2ece0 34 0 QScopedPointerDeleter<LanguageWidgetPrivate>::cleanup
FUNC 2ed14 134 0 SettingWidget::SettingWidget
FUNC 2ee48 b4 0 SettingWidget::~SettingWidget
FUNC 2ef0c 30 0 SettingWidget::~SettingWidget
FUNC 2ef4c 74 0 SettingWidget::resizeEvent
FUNC 2efc0 a4 0 SettingWidget::showEvent
FUNC 2f064 514 0 SettingWidget::ontWidgetTypeChange
FUNC 2f580 160 0 SettingWidget::onBmpButtonRelease
FUNC 2f6e0 ac 0 SettingWidgetPrivate::SettingWidgetPrivate
FUNC 2f78c 24 0 SettingWidgetPrivate::~SettingWidgetPrivate
FUNC 2f7b0 830 0 SettingWidgetPrivate::initializeSettingWidget
FUNC 2ffe0 d8 0 SettingWidgetPrivate::initializeGeneralWidget
FUNC 300b8 d8 0 SettingWidgetPrivate::initializeLanguageWidget
FUNC 30190 60 0 SettingWidgetPrivate::initializeVersionWidget
FUNC 301f0 1f4 0 SettingWidgetPrivate::connectAllSlots
FUNC 303e4 134 0 __static_initialization_and_destruction_0
FUNC 30518 1c 0 _GLOBAL__sub_I__ZN13SettingWidgetC2EP7QWidget
FUNC 30534 34 0 QScopedPointer<SettingWidgetPrivate, QScopedPointerDeleter<SettingWidgetPrivate> >::QScopedPointer
FUNC 30568 40 0 QScopedPointer<SettingWidgetPrivate, QScopedPointerDeleter<SettingWidgetPrivate> >::~QScopedPointer
FUNC 305a8 3c 0 QScopedPointer<SettingWidgetPrivate, QScopedPointerDeleter<SettingWidgetPrivate> >::operator QScopedPointer<SettingWidgetPrivate>::RestrictedBool
FUNC 305e4 54 0 QScopedPointer<SettingWidgetPrivate, QScopedPointerDeleter<SettingWidgetPrivate> >::operator->
FUNC 30638 3c 0 qobject_cast<BmpButton*>
FUNC 30674 34 0 QScopedPointerDeleter<SettingWidgetPrivate>::cleanup
FUNC 306a8 38 0 QScopedPointer<SettingWidgetPrivate, QScopedPointerDeleter<SettingWidgetPrivate> >::isNull
FUNC 306e0 2c 0 BmpButton::qt_check_for_QOBJECT_macro<BmpButton>
FUNC 3070c 28 0 qYouForgotTheQ_OBJECT_Macro<const BmpButton*>
FUNC 30734 10c 0 StatusBarWidget::StatusBarWidget
FUNC 30840 b4 0 StatusBarWidget::~StatusBarWidget
FUNC 30904 30 0 StatusBarWidget::~StatusBarWidget
FUNC 30944 74 0 StatusBarWidget::resizeEvent
FUNC 309b8 160 0 StatusBarWidget::customEvent
FUNC 30b18 180 0 StatusBarWidget::paintEvent
FUNC 30c98 78c 0 StatusBarWidget::ontWidgetTypeChange
FUNC 3142c 80 0 StatusBarWidgetPrivate::StatusBarWidgetPrivate
FUNC 314ac 30 0 StatusBarWidgetPrivate::~StatusBarWidgetPrivate
FUNC 314dc 1d0 0 initializeRunnableCallback
FUNC 316ac 1e0 0 StatusBarWidgetPrivate::initialize
FUNC 3188c 38 0 StatusBarWidgetPrivate::receiveAllCustomEvent
FUNC 318c4 6c 0 StatusBarWidgetPrivate::connectAllSlots
FUNC 31930 2c0 0 __static_initialization_and_destruction_0
FUNC 31bf0 1c 0 _GLOBAL__sub_I__ZN15StatusBarWidgetC2EP7QWidget
FUNC 31c0c 34 0 QScopedPointer<StatusBarWidgetPrivate, QScopedPointerDeleter<StatusBarWidgetPrivate> >::QScopedPointer
FUNC 31c40 40 0 QScopedPointer<StatusBarWidgetPrivate, QScopedPointerDeleter<StatusBarWidgetPrivate> >::~QScopedPointer
FUNC 31c80 54 0 QScopedPointer<StatusBarWidgetPrivate, QScopedPointerDeleter<StatusBarWidgetPrivate> >::operator->
FUNC 31cd4 3c 0 QScopedPointer<StatusBarWidgetPrivate, QScopedPointerDeleter<StatusBarWidgetPrivate> >::operator QScopedPointer<StatusBarWidgetPrivate>::RestrictedBool
FUNC 31d10 34 0 QScopedPointerDeleter<StatusBarWidgetPrivate>::cleanup
FUNC 31d44 38 0 QScopedPointer<StatusBarWidgetPrivate, QScopedPointerDeleter<StatusBarWidgetPrivate> >::isNull
FUNC 31d7c 10c 0 TabBarWidget::TabBarWidget
FUNC 31e88 b4 0 TabBarWidget::~TabBarWidget
FUNC 31f4c 30 0 TabBarWidget::~TabBarWidget
FUNC 31f8c 98 0 TabBarWidget::resizeEvent
FUNC 32024 1f4 0 TabBarWidget::customEvent
FUNC 32218 180 0 TabBarWidget::paintEvent
FUNC 32398 4c4 0 TabBarWidget::ontWidgetTypeChange
FUNC 32864 3ac 0 TabBarWidget::onTabBarButtonRelease
FUNC 32c10 bc 0 TabBarWidgetPrivate::TabBarWidgetPrivate
FUNC 32ccc 30 0 TabBarWidgetPrivate::~TabBarWidgetPrivate
FUNC 32cfc 758 0 TabBarWidgetPrivate::initializeBasicWidget
FUNC 33454 328 0 TabBarWidgetPrivate::initializeOtherWidget
FUNC 3377c 38 0 TabBarWidgetPrivate::receiveAllCustomEvent
FUNC 337b4 284 0 TabBarWidgetPrivate::connectAllSlots
FUNC 33a38 b0 0 __static_initialization_and_destruction_0
FUNC 33ae8 1c 0 _GLOBAL__sub_I__ZN12TabBarWidgetC2EP7QWidget
FUNC 33b04 34 0 QScopedPointer<TabBarWidgetPrivate, QScopedPointerDeleter<TabBarWidgetPrivate> >::QScopedPointer
FUNC 33b38 40 0 QScopedPointer<TabBarWidgetPrivate, QScopedPointerDeleter<TabBarWidgetPrivate> >::~QScopedPointer
FUNC 33b78 54 0 QScopedPointer<TabBarWidgetPrivate, QScopedPointerDeleter<TabBarWidgetPrivate> >::operator->
FUNC 33bcc 3c 0 QScopedPointer<TabBarWidgetPrivate, QScopedPointerDeleter<TabBarWidgetPrivate> >::operator QScopedPointer<TabBarWidgetPrivate>::RestrictedBool
FUNC 33c08 34 0 QScopedPointerDeleter<TabBarWidgetPrivate>::cleanup
FUNC 33c3c 38 0 QScopedPointer<TabBarWidgetPrivate, QScopedPointerDeleter<TabBarWidgetPrivate> >::isNull
FUNC 33c74 140 0 MainWidget::MainWidget
FUNC 33db4 13c 0 MainWidget::~MainWidget
FUNC 33f00 30 0 MainWidget::~MainWidget
FUNC 33f40 a8 0 MainWidget::timerEvent
FUNC 33fe8 3d8 0 initializeRunnableCallback
FUNC 343c0 3f8 0 MainWidget::event
FUNC 347b8 74 0 MainWidget::resizeEvent
FUNC 3482c 244 0 MainWidget::customEvent
FUNC 34a70 114 0 MainWidget::paintEvent
FUNC 34b84 144 0 MainWidget::mousePressEvent
FUNC 34cc8 e4 0 MainWidget::ontWidgetTypeChange
FUNC 34db4 b0 0 MainWidget::onStartCalibrate
FUNC 34e64 c8 0 MainWidget::onFinishCalibrate
FUNC 34f2c 150 0 MainWidgetPrivate::MainWidgetPrivate
FUNC 3507c 24 0 MainWidgetPrivate::~MainWidgetPrivate
FUNC 350a0 1ac 0 MainWidgetPrivate::initializeBasicWidget
FUNC 3524c 60 0 MainWidgetPrivate::initializeDiskWidget
FUNC 352ac 60 0 MainWidgetPrivate::initializeLinkWidget
FUNC 3530c 60 0 MainWidgetPrivate::initializeAVWidget
FUNC 3536c 60 0 MainWidgetPrivate::initializeSettingWidget
FUNC 353cc 60 0 MainWidgetPrivate::initializeVolumeWidget
FUNC 3542c d8 0 MainWidgetPrivate::initializeFMWidget
FUNC 35504 d4 0 MainWidgetPrivate::initializeIRWidget
FUNC 355d8 60 0 MainWidgetPrivate::initializeMessageBoxWidget
FUNC 35638 60 0 MainWidgetPrivate::initializeIdleWidget
FUNC 35698 38 0 MainWidgetPrivate::receiveAllCustomEvent
FUNC 356d0 6c 0 MainWidgetPrivate::connectAllSlots
FUNC 3573c b0 0 __static_initialization_and_destruction_0
FUNC 357ec 1c 0 _GLOBAL__sub_I__ZN10MainWidgetC2EP7QWidget
FUNC 35808 3c 0 QBool::operator void const*
FUNC 35844 2c 0 QStringList::QStringList
FUNC 35870 2c 0 QStringList::~QStringList
FUNC 3589c 34 0 QStringList::operator<<
FUNC 358d0 38 0 QStringList::contains
FUNC 35908 b4 0 DbusService::instance
FUNC 359bc 34 0 QFlags<Qt::WindowType>::QFlags
FUNC 359f0 34 0 QFlags<QEventLoop::ProcessEventsFlag>::QFlags
FUNC 35a24 9c 0 QList<QString>::append
FUNC 35ac0 34 0 QScopedPointer<MainWidgetPrivate, QScopedPointerDeleter<MainWidgetPrivate> >::QScopedPointer
FUNC 35af4 40 0 QScopedPointer<MainWidgetPrivate, QScopedPointerDeleter<MainWidgetPrivate> >::~QScopedPointer
FUNC 35b34 54 0 QScopedPointer<MainWidgetPrivate, QScopedPointerDeleter<MainWidgetPrivate> >::operator->
FUNC 35b88 54 0 EventEngine::CustomEvent<int>::CustomEvent
FUNC 35bdc 7c 0 EventEngine::CustomEvent<int>::~CustomEvent
FUNC 35c58 30 0 EventEngine::CustomEvent<int>::~CustomEvent
FUNC 35c88 3c 0 QScopedPointer<MainWidgetPrivate, QScopedPointerDeleter<MainWidgetPrivate> >::operator QScopedPointer<MainWidgetPrivate>::RestrictedBool
FUNC 35cc4 130 0 QList<QString>::detach_helper_grow
FUNC 35df4 60 0 QList<QString>::node_construct
FUNC 35e54 94 0 QList<QString>::node_copy
FUNC 35ee8 34 0 QScopedPointerDeleter<MainWidgetPrivate>::cleanup
FUNC 35f1c 38 0 QScopedPointer<MainWidgetPrivate, QScopedPointerDeleter<MainWidgetPrivate> >::isNull
FUNC 35f54 118 0 USBDiskWidget::USBDiskWidget
FUNC 3606c e4 0 USBDiskWidget::~USBDiskWidget
FUNC 36168 30 0 USBDiskWidget::~USBDiskWidget
FUNC 361b0 e0 0 USBDiskWidget::resizeEvent
FUNC 36290 3ac 0 USBDiskWidget::ontWidgetTypeChange
FUNC 36644 7d8 0 USBDiskWidget::onDeviceWatcherStatus
FUNC 36e24 88 0 USBDiskWidgetPrivate::USBDiskWidgetPrivate
FUNC 36eac 24 0 USBDiskWidgetPrivate::~USBDiskWidgetPrivate
FUNC 36ed0 154 0 USBDiskWidgetPrivate::initialize
FUNC 37024 14c 0 USBDiskWidgetPrivate::initializeUSBTipWidget
FUNC 37170 bc 0 USBDiskWidgetPrivate::connectAllSlots
FUNC 3722c 160 0 __static_initialization_and_destruction_0
FUNC 3738c 1c 0 _GLOBAL__sub_I__ZN13USBDiskWidgetC2EP7QWidget
FUNC 373a8 34 0 QScopedPointer<USBDiskWidgetPrivate, QScopedPointerDeleter<USBDiskWidgetPrivate> >::QScopedPointer
FUNC 373dc 40 0 QScopedPointer<USBDiskWidgetPrivate, QScopedPointerDeleter<USBDiskWidgetPrivate> >::~QScopedPointer
FUNC 3741c 54 0 QScopedPointer<USBDiskWidgetPrivate, QScopedPointerDeleter<USBDiskWidgetPrivate> >::operator->
FUNC 37470 34 0 QScopedPointerDeleter<USBDiskWidgetPrivate>::cleanup
FUNC 374a4 13c 0 USBDiskMusicListViewWidget::USBDiskMusicListViewWidget
FUNC 375e0 e4 0 USBDiskMusicListViewWidget::~USBDiskMusicListViewWidget
FUNC 376dc 30 0 USBDiskMusicListViewWidget::~USBDiskMusicListViewWidget
FUNC 37724 ac 0 USBDiskMusicListViewWidget::showEvent
FUNC 377d0 154 0 USBDiskMusicListViewWidget::resizeEvent
FUNC 37924 20 0 USBDiskMusicListViewWidget::paintEvent
FUNC 37944 1c8 0 USBDiskMusicListViewWidget::customEvent
FUNC 37b0c 460 0 USBDiskMusicListViewWidget::ontWidgetTypeChange
FUNC 37f74 350 0 USBDiskMusicListViewWidget::onDeviceWatcherStatus
FUNC 382cc ef4 0 USBDiskMusicListViewWidget::onMusicPlayerFileNames
FUNC 391c8 228 0 USBDiskMusicListViewWidget::onMusicPlayerPlayStatus
FUNC 393f8 194 0 USBDiskMusicListViewWidget::onMusicPlayerID3TagChange
FUNC 39594 3c 0 USBDiskMusicListViewWidget::onMusicPlayerElapsedInformation
FUNC 395d8 2ac 0 USBDiskMusicListViewWidget::onMusicListViewItemRelease
FUNC 39884 34 0 USBDiskMusicListViewWidget::onToolButtonRelease
FUNC 398b8 a8 0 USBDiskMusicListViewWidgetPrivate::USBDiskMusicListViewWidgetPrivate
FUNC 39960 24 0 USBDiskMusicListViewWidgetPrivate::~USBDiskMusicListViewWidgetPrivate
FUNC 39984 188 0 USBDiskMusicListViewWidgetPrivate::initialize
FUNC 39b0c 38 0 USBDiskMusicListViewWidgetPrivate::receiveAllCustomEvent
FUNC 39b44 19c 0 USBDiskMusicListViewWidgetPrivate::connectAllSlots
FUNC 39ce0 dc 0 __static_initialization_and_destruction_0
FUNC 39dbc 1c 0 _GLOBAL__sub_I__ZN26USBDiskMusicListViewWidgetC2EP7QWidget
FUNC 39dd8 54 0 QModelIndex::QModelIndex
FUNC 39e2c 3c 0 QModelIndex::~QModelIndex
FUNC 39e68 2c 0 QWidget::isHidden
FUNC 39e94 38 0 QDomNodeList::at
FUNC 39ecc 28 0 QDomNodeList::size
FUNC 39ef4 34 0 QScopedPointer<USBDiskMusicListViewWidgetPrivate, QScopedPointerDeleter<USBDiskMusicListViewWidgetPrivate> >::QScopedPointer
FUNC 39f28 40 0 QScopedPointer<USBDiskMusicListViewWidgetPrivate, QScopedPointerDeleter<USBDiskMusicListViewWidgetPrivate> >::~QScopedPointer
FUNC 39f68 54 0 QScopedPointer<USBDiskMusicListViewWidgetPrivate, QScopedPointerDeleter<USBDiskMusicListViewWidgetPrivate> >::operator->
FUNC 39fbc 90 0 QList<QString>::at
FUNC 3a04c 34 0 QScopedPointerDeleter<USBDiskMusicListViewWidgetPrivate>::cleanup
FUNC 3a080 24 0 QList<QString>::Node::t
FUNC 3a0a4 13c 0 USBDiskImageListViewWidget::USBDiskImageListViewWidget
FUNC 3a1e0 e4 0 USBDiskImageListViewWidget::~USBDiskImageListViewWidget
FUNC 3a2dc 30 0 USBDiskImageListViewWidget::~USBDiskImageListViewWidget
FUNC 3a324 174 0 USBDiskImageListViewWidget::showEvent
FUNC 3a498 154 0 USBDiskImageListViewWidget::resizeEvent
FUNC 3a5ec 2c 0 USBDiskImageListViewWidget::paintEvent
FUNC 3a618 1d0 0 USBDiskImageListViewWidget::customEvent
FUNC 3a7e8 3b4 0 USBDiskImageListViewWidget::ontWidgetTypeChange
FUNC 3aba4 31c 0 USBDiskImageListViewWidget::onDeviceWatcherStatus
FUNC 3aec8 c58 0 USBDiskImageListViewWidget::onImagePlayerFileNames
FUNC 3bb28 250 0 USBDiskImageListViewWidget::onImagePlayerPlayStatus
FUNC 3bd80 190 0 USBDiskImageListViewWidget::onImagePlayerChange
FUNC 3bf18 1c8 0 USBDiskImageListViewWidget::onImageListViewItemRelease
FUNC 3c0e0 c4 0 USBDiskImageListViewWidget::onListBtnRelease
FUNC 3c1a4 9c 0 USBDiskImageListViewWidgetPrivate::USBDiskImageListViewWidgetPrivate
FUNC 3c240 24 0 USBDiskImageListViewWidgetPrivate::~USBDiskImageListViewWidgetPrivate
FUNC 3c264 188 0 USBDiskImageListViewWidgetPrivate::initialize
FUNC 3c3ec 38 0 USBDiskImageListViewWidgetPrivate::receiveAllCustomEvent
FUNC 3c424 154 0 USBDiskImageListViewWidgetPrivate::connectAllSlots
FUNC 3c578 dc 0 __static_initialization_and_destruction_0
FUNC 3c654 1c 0 _GLOBAL__sub_I__ZN26USBDiskImageListViewWidgetC2EP7QWidget
FUNC 3c670 34 0 QScopedPointer<USBDiskImageListViewWidgetPrivate, QScopedPointerDeleter<USBDiskImageListViewWidgetPrivate> >::QScopedPointer
FUNC 3c6a4 40 0 QScopedPointer<USBDiskImageListViewWidgetPrivate, QScopedPointerDeleter<USBDiskImageListViewWidgetPrivate> >::~QScopedPointer
FUNC 3c6e4 54 0 QScopedPointer<USBDiskImageListViewWidgetPrivate, QScopedPointerDeleter<USBDiskImageListViewWidgetPrivate> >::operator->
FUNC 3c738 34 0 QScopedPointerDeleter<USBDiskImageListViewWidgetPrivate>::cleanup
FUNC 3c76c 13c 0 USBDiskVideoListViewWidget::USBDiskVideoListViewWidget
FUNC 3c8a8 e4 0 USBDiskVideoListViewWidget::~USBDiskVideoListViewWidget
FUNC 3c9a4 30 0 USBDiskVideoListViewWidget::~USBDiskVideoListViewWidget
FUNC 3c9ec ac 0 USBDiskVideoListViewWidget::showEvent
FUNC 3ca98 164 0 USBDiskVideoListViewWidget::resizeEvent
FUNC 3cbfc 2c 0 USBDiskVideoListViewWidget::paintEvent
FUNC 3cc28 1d0 0 USBDiskVideoListViewWidget::customEvent
FUNC 3cdf8 320 0 USBDiskVideoListViewWidget::ontWidgetTypeChange
FUNC 3d120 31c 0 USBDiskVideoListViewWidget::onDeviceWatcherStatus
FUNC 3d444 db0 0 USBDiskVideoListViewWidget::onVideoPlayerFileNames
FUNC 3e1fc 1b0 0 USBDiskVideoListViewWidget::onVideoPlayerPlayStatus
FUNC 3e3b4 194 0 USBDiskVideoListViewWidget::onVideoPlayerInformation
FUNC 3e550 3c 0 USBDiskVideoListViewWidget::onVideoPlayerElapsedInformation
FUNC 3e594 27c 0 USBDiskVideoListViewWidget::onVideoListViewItemRelease
FUNC 3e810 48 0 USBDiskVideoListViewWidget::onToolButtonRelease
FUNC 3e858 a8 0 USBDiskVideoListViewWidgetPrivate::USBDiskVideoListViewWidgetPrivate
FUNC 3e900 24 0 USBDiskVideoListViewWidgetPrivate::~USBDiskVideoListViewWidgetPrivate
FUNC 3e924 188 0 USBDiskVideoListViewWidgetPrivate::initialize
FUNC 3eaac 38 0 USBDiskVideoListViewWidgetPrivate::receiveAllCustomEvent
FUNC 3eae4 154 0 USBDiskVideoListViewWidgetPrivate::connectAllSlots
FUNC 3ec38 dc 0 __static_initialization_and_destruction_0
FUNC 3ed14 1c 0 _GLOBAL__sub_I__ZN26USBDiskVideoListViewWidgetC2EP7QWidget
FUNC 3ed30 34 0 QScopedPointer<USBDiskVideoListViewWidgetPrivate, QScopedPointerDeleter<USBDiskVideoListViewWidgetPrivate> >::QScopedPointer
FUNC 3ed64 40 0 QScopedPointer<USBDiskVideoListViewWidgetPrivate, QScopedPointerDeleter<USBDiskVideoListViewWidgetPrivate> >::~QScopedPointer
FUNC 3eda4 54 0 QScopedPointer<USBDiskVideoListViewWidgetPrivate, QScopedPointerDeleter<USBDiskVideoListViewWidgetPrivate> >::operator->
FUNC 3edf8 34 0 QScopedPointerDeleter<USBDiskVideoListViewWidgetPrivate>::cleanup
FUNC 3ee2c 13c 0 USBDiskListViewWidget::USBDiskListViewWidget
FUNC 3ef68 e4 0 USBDiskListViewWidget::~USBDiskListViewWidget
FUNC 3f064 30 0 USBDiskListViewWidget::~USBDiskListViewWidget
FUNC 3f0ac 80 0 USBDiskListViewWidget::resizeEvent
FUNC 3f12c 20 0 USBDiskListViewWidget::paintEvent
FUNC 3f14c b8 0 USBDiskListViewWidget::ontWidgetTypeChange
FUNC 3f20c 88 0 USBDiskListViewWidgetPrivate::USBDiskListViewWidgetPrivate
FUNC 3f294 24 0 USBDiskListViewWidgetPrivate::~USBDiskListViewWidgetPrivate
FUNC 3f2b8 b8 0 USBDiskListViewWidgetPrivate::initialize
FUNC 3f370 bc 0 USBDiskListViewWidgetPrivate::connectAllSlots
FUNC 3f42c b0 0 __static_initialization_and_destruction_0
FUNC 3f4dc 1c 0 _GLOBAL__sub_I__ZN21USBDiskListViewWidgetC2EP7QWidget
FUNC 3f4f8 34 0 QScopedPointer<USBDiskListViewWidgetPrivate, QScopedPointerDeleter<USBDiskListViewWidgetPrivate> >::QScopedPointer
FUNC 3f52c 40 0 QScopedPointer<USBDiskListViewWidgetPrivate, QScopedPointerDeleter<USBDiskListViewWidgetPrivate> >::~QScopedPointer
FUNC 3f56c 34 0 QScopedPointerDeleter<USBDiskListViewWidgetPrivate>::cleanup
FUNC 3f5a0 13c 0 USBDiskToolWidget::USBDiskToolWidget
FUNC 3f6dc e4 0 USBDiskToolWidget::~USBDiskToolWidget
FUNC 3f7d8 30 0 USBDiskToolWidget::~USBDiskToolWidget
FUNC 3f820 36c 0 USBDiskToolWidget::resizeEvent
FUNC 3fb8c 2c 0 USBDiskToolWidget::paintEvent
FUNC 3fbb8 70c 0 USBDiskToolWidget::ontWidgetTypeChange
FUNC 402cc 4b8 0 USBDiskToolWidget::onDeviceWatcherStatus
FUNC 4078c 12c 0 USBDiskToolWidget::onToolButtonRelease
FUNC 408b8 88 0 USBDiskToolWidgetPrivate::USBDiskToolWidgetPrivate
FUNC 40940 24 0 USBDiskToolWidgetPrivate::~USBDiskToolWidgetPrivate
FUNC 40964 4ec 0 USBDiskToolWidgetPrivate::initialize
FUNC 40e50 19c 0 USBDiskToolWidgetPrivate::connectAllSlots
FUNC 40fec 134 0 __static_initialization_and_destruction_0
FUNC 41120 1c 0 _GLOBAL__sub_I__ZN17USBDiskToolWidgetC2EP7QWidget
FUNC 4113c 34 0 QScopedPointer<USBDiskToolWidgetPrivate, QScopedPointerDeleter<USBDiskToolWidgetPrivate> >::QScopedPointer
FUNC 41170 40 0 QScopedPointer<USBDiskToolWidgetPrivate, QScopedPointerDeleter<USBDiskToolWidgetPrivate> >::~QScopedPointer
FUNC 411b0 54 0 QScopedPointer<USBDiskToolWidgetPrivate, QScopedPointerDeleter<USBDiskToolWidgetPrivate> >::operator->
FUNC 41204 34 0 QScopedPointerDeleter<USBDiskToolWidgetPrivate>::cleanup
FUNC 41238 118 0 AV1Widget::AV1Widget
FUNC 41350 e4 0 AV1Widget::~AV1Widget
FUNC 4144c 30 0 AV1Widget::~AV1Widget
FUNC 41494 d8 0 AV1Widget::paintEvent
FUNC 4156c e0 0 AV1Widget::resizeEvent
FUNC 4164c 134 0 AV1Widget::mousePressEvent
FUNC 41780 5a0 0 AV1Widget::ontWidgetTypeChange
FUNC 41d28 4e8 0 AV1Widget::onAVStatus
FUNC 42218 ac 0 AV1Widget::onTimeout
FUNC 422c4 e4 0 AV1WidgetPrivate::AV1WidgetPrivate
FUNC 423a8 24 0 AV1WidgetPrivate::~AV1WidgetPrivate
FUNC 423cc dc 0 AV1WidgetPrivate::initializeTimer
FUNC 424a8 70 0 AV1WidgetPrivate::initializeShortCutWidget
FUNC 42518 cc 0 AV1WidgetPrivate::initializeMessageBox
FUNC 425e4 108 0 __static_initialization_and_destruction_0
FUNC 426ec 1c 0 _GLOBAL__sub_I__ZN9AV1WidgetC2EP7QWidget
FUNC 42708 34 0 AV::Interface::Interface
FUNC 4273c 44 0 AV::Interface::~Interface
FUNC 42780 30 0 AV::Interface::~Interface
FUNC 427b0 b4 0 AV::instance
FUNC 42864 34 0 QScopedPointer<AV1WidgetPrivate, QScopedPointerDeleter<AV1WidgetPrivate> >::QScopedPointer
FUNC 42898 40 0 QScopedPointer<AV1WidgetPrivate, QScopedPointerDeleter<AV1WidgetPrivate> >::~QScopedPointer
FUNC 428d8 54 0 QScopedPointer<AV1WidgetPrivate, QScopedPointerDeleter<AV1WidgetPrivate> >::operator->
FUNC 4292c 34 0 QScopedPointerDeleter<AV1WidgetPrivate>::cleanup
FUNC 42960 118 0 SDDiskWidget::SDDiskWidget
FUNC 42a78 e4 0 SDDiskWidget::~SDDiskWidget
FUNC 42b74 30 0 SDDiskWidget::~SDDiskWidget
FUNC 42bbc e0 0 SDDiskWidget::resizeEvent
FUNC 42c9c 394 0 SDDiskWidget::ontWidgetTypeChange
FUNC 43038 6b4 0 SDDiskWidget::onDeviceWatcherStatus
FUNC 436f4 88 0 SDDiskWidgetPrivate::SDDiskWidgetPrivate
FUNC 4377c 24 0 SDDiskWidgetPrivate::~SDDiskWidgetPrivate
FUNC 437a0 154 0 SDDiskWidgetPrivate::initialize
FUNC 438f4 14c 0 SDDiskWidgetPrivate::initializeSDTipWidget
FUNC 43a40 bc 0 SDDiskWidgetPrivate::connectAllSlots
FUNC 43afc 160 0 __static_initialization_and_destruction_0
FUNC 43c5c 1c 0 _GLOBAL__sub_I__ZN12SDDiskWidgetC2EP7QWidget
FUNC 43c78 34 0 QScopedPointer<SDDiskWidgetPrivate, QScopedPointerDeleter<SDDiskWidgetPrivate> >::QScopedPointer
FUNC 43cac 40 0 QScopedPointer<SDDiskWidgetPrivate, QScopedPointerDeleter<SDDiskWidgetPrivate> >::~QScopedPointer
FUNC 43cec 54 0 QScopedPointer<SDDiskWidgetPrivate, QScopedPointerDeleter<SDDiskWidgetPrivate> >::operator->
FUNC 43d40 34 0 QScopedPointerDeleter<SDDiskWidgetPrivate>::cleanup
FUNC 43d74 118 0 AV2Widget::AV2Widget
FUNC 43e8c e4 0 AV2Widget::~AV2Widget
FUNC 43f88 30 0 AV2Widget::~AV2Widget
FUNC 43fd0 d8 0 AV2Widget::paintEvent
FUNC 440a8 1e0 0 AV2Widget::resizeEvent
FUNC 44288 220 0 AV2Widget::mousePressEvent
FUNC 444a8 530 0 AV2Widget::ontWidgetTypeChange
FUNC 449e0 57c 0 AV2Widget::onAVStatus
FUNC 44f64 ac 0 AV2Widget::onTimeout
FUNC 45010 e4 0 AV2WidgetPrivate::AV2WidgetPrivate
FUNC 450f4 24 0 AV2WidgetPrivate::~AV2WidgetPrivate
FUNC 45118 dc 0 AV2WidgetPrivate::initializeTimer
FUNC 451f4 70 0 AV2WidgetPrivate::initializeShortCutWidget
FUNC 45264 cc 0 AV2WidgetPrivate::initializeMessageBox
FUNC 45330 108 0 __static_initialization_and_destruction_0
FUNC 45438 1c 0 _GLOBAL__sub_I__ZN9AV2WidgetC2EP7QWidget
FUNC 45454 34 0 QScopedPointer<AV2WidgetPrivate, QScopedPointerDeleter<AV2WidgetPrivate> >::QScopedPointer
FUNC 45488 40 0 QScopedPointer<AV2WidgetPrivate, QScopedPointerDeleter<AV2WidgetPrivate> >::~QScopedPointer
FUNC 454c8 54 0 QScopedPointer<AV2WidgetPrivate, QScopedPointerDeleter<AV2WidgetPrivate> >::operator->
FUNC 4551c 34 0 QScopedPointerDeleter<AV2WidgetPrivate>::cleanup
FUNC 45550 e8 0 DiskWidget::DiskWidget
FUNC 45638 b4 0 DiskWidget::~DiskWidget
FUNC 456fc 30 0 DiskWidget::~DiskWidget
FUNC 4573c 74 0 DiskWidget::resizeEvent
FUNC 457b0 138 0 DiskWidget::ontWidgetTypeChange
FUNC 458f0 9c 0 DiskWidgetPrivate::DiskWidgetPrivate
FUNC 4598c 24 0 DiskWidgetPrivate::~DiskWidgetPrivate
FUNC 459b0 60 0 DiskWidgetPrivate::initializeUSBDiskWidget
FUNC 45a10 60 0 DiskWidgetPrivate::initializeSDDiskWidget
FUNC 45a70 60 0 DiskWidgetPrivate::initializeMusicWidget
FUNC 45ad0 60 0 DiskWidgetPrivate::initializeImageWidget
FUNC 45b30 60 0 DiskWidgetPrivate::initializeVideoWidget
FUNC 45b90 6c 0 DiskWidgetPrivate::connectAllSlots
FUNC 45bfc b0 0 __static_initialization_and_destruction_0
FUNC 45cac 1c 0 _GLOBAL__sub_I__ZN10DiskWidgetC2EP7QWidget
FUNC 45cc8 34 0 QScopedPointer<DiskWidgetPrivate, QScopedPointerDeleter<DiskWidgetPrivate> >::QScopedPointer
FUNC 45cfc 40 0 QScopedPointer<DiskWidgetPrivate, QScopedPointerDeleter<DiskWidgetPrivate> >::~QScopedPointer
FUNC 45d3c 34 0 QScopedPointerDeleter<DiskWidgetPrivate>::cleanup
FUNC 45d70 e8 0 AVWidget::AVWidget
FUNC 45e58 b4 0 AVWidget::~AVWidget
FUNC 45f1c 30 0 AVWidget::~AVWidget
FUNC 45f5c 74 0 AVWidget::resizeEvent
FUNC 45fd0 90 0 AVWidget::paintEvent
FUNC 46060 188 0 AVWidget::ontWidgetTypeChange
FUNC 461f0 a8 0 AVWidgetPrivate::AVWidgetPrivate
FUNC 46298 24 0 AVWidgetPrivate::~AVWidgetPrivate
FUNC 462bc 60 0 AVWidgetPrivate::initializeAV1Widget
FUNC 4631c 60 0 AVWidgetPrivate::initializeAV2Widget
FUNC 4637c 6c 0 AVWidgetPrivate::connectAllSlots
FUNC 463e8 b0 0 __static_initialization_and_destruction_0
FUNC 46498 1c 0 _GLOBAL__sub_I__ZN8AVWidgetC2EP7QWidget
FUNC 464b4 34 0 QScopedPointer<AVWidgetPrivate, QScopedPointerDeleter<AVWidgetPrivate> >::QScopedPointer
FUNC 464e8 40 0 QScopedPointer<AVWidgetPrivate, QScopedPointerDeleter<AVWidgetPrivate> >::~QScopedPointer
FUNC 46528 54 0 QScopedPointer<AVWidgetPrivate, QScopedPointerDeleter<AVWidgetPrivate> >::operator->
FUNC 4657c 34 0 QScopedPointerDeleter<AVWidgetPrivate>::cleanup
FUNC 465b0 13c 0 SDDiskImageListViewWidget::SDDiskImageListViewWidget
FUNC 466ec e4 0 SDDiskImageListViewWidget::~SDDiskImageListViewWidget
FUNC 467e8 30 0 SDDiskImageListViewWidget::~SDDiskImageListViewWidget
FUNC 46830 ac 0 SDDiskImageListViewWidget::showEvent
FUNC 468dc 154 0 SDDiskImageListViewWidget::resizeEvent
FUNC 46a30 2c 0 SDDiskImageListViewWidget::paintEvent
FUNC 46a5c 1d0 0 SDDiskImageListViewWidget::customEvent
FUNC 46c2c 3b4 0 SDDiskImageListViewWidget::ontWidgetTypeChange
FUNC 46fe8 31c 0 SDDiskImageListViewWidget::onDeviceWatcherStatus
FUNC 4730c 1ac 0 SDDiskImageListViewWidget::onImagePlayerPlayStatus
FUNC 474c0 cf8 0 SDDiskImageListViewWidget::onImagePlayerFileNames
FUNC 481c0 190 0 SDDiskImageListViewWidget::onImagePlayerChange
FUNC 48358 164 0 SDDiskImageListViewWidget::onImageListViewItemRelease
FUNC 484bc 48 0 SDDiskImageListViewWidget::onListBtnRelease
FUNC 48504 9c 0 SDDiskImageListViewWidgetPrivate::SDDiskImageListViewWidgetPrivate
FUNC 485a0 24 0 SDDiskImageListViewWidgetPrivate::~SDDiskImageListViewWidgetPrivate
FUNC 485c4 188 0 SDDiskImageListViewWidgetPrivate::initialize
FUNC 4874c 38 0 SDDiskImageListViewWidgetPrivate::receiveAllCustomEvent
FUNC 48784 154 0 SDDiskImageListViewWidgetPrivate::connectAllSlots
FUNC 488d8 dc 0 __static_initialization_and_destruction_0
FUNC 489b4 1c 0 _GLOBAL__sub_I__ZN25SDDiskImageListViewWidgetC2EP7QWidget
FUNC 489d0 34 0 QScopedPointer<SDDiskImageListViewWidgetPrivate, QScopedPointerDeleter<SDDiskImageListViewWidgetPrivate> >::QScopedPointer
FUNC 48a04 40 0 QScopedPointer<SDDiskImageListViewWidgetPrivate, QScopedPointerDeleter<SDDiskImageListViewWidgetPrivate> >::~QScopedPointer
FUNC 48a44 54 0 QScopedPointer<SDDiskImageListViewWidgetPrivate, QScopedPointerDeleter<SDDiskImageListViewWidgetPrivate> >::operator->
FUNC 48a98 34 0 QScopedPointerDeleter<SDDiskImageListViewWidgetPrivate>::cleanup
FUNC 48acc 13c 0 SDDiskMusicListViewWidget::SDDiskMusicListViewWidget
FUNC 48c08 e4 0 SDDiskMusicListViewWidget::~SDDiskMusicListViewWidget
FUNC 48d04 30 0 SDDiskMusicListViewWidget::~SDDiskMusicListViewWidget
FUNC 48d4c ac 0 SDDiskMusicListViewWidget::showEvent
FUNC 48df8 164 0 SDDiskMusicListViewWidget::resizeEvent
FUNC 48f5c 2c 0 SDDiskMusicListViewWidget::paintEvent
FUNC 48f88 1c8 0 SDDiskMusicListViewWidget::customEvent
FUNC 49150 370 0 SDDiskMusicListViewWidget::ontWidgetTypeChange
FUNC 494c8 31c 0 SDDiskMusicListViewWidget::onDeviceWatcherStatus
FUNC 497ec e60 0 SDDiskMusicListViewWidget::onMusicPlayerFileNames
FUNC 4a654 22c 0 SDDiskMusicListViewWidget::onMusicPlayerPlayStatus
FUNC 4a888 194 0 SDDiskMusicListViewWidget::onMusicPlayerID3TagChange
FUNC 4aa24 3c 0 SDDiskMusicListViewWidget::onMusicPlayerElapsedInformation
FUNC 4aa68 1e4 0 SDDiskMusicListViewWidget::onMusicListViewItemRelease
FUNC 4ac4c 34 0 SDDiskMusicListViewWidget::onToolButtonRelease
FUNC 4ac80 a8 0 SDDiskMusicListViewWidgetPrivate::SDDiskMusicListViewWidgetPrivate
FUNC 4ad28 24 0 SDDiskMusicListViewWidgetPrivate::~SDDiskMusicListViewWidgetPrivate
FUNC 4ad4c 188 0 SDDiskMusicListViewWidgetPrivate::initialize
FUNC 4aed4 38 0 SDDiskMusicListViewWidgetPrivate::receiveAllCustomEvent
FUNC 4af0c 19c 0 SDDiskMusicListViewWidgetPrivate::connectAllSlots
FUNC 4b0a8 dc 0 __static_initialization_and_destruction_0
FUNC 4b184 1c 0 _GLOBAL__sub_I__ZN25SDDiskMusicListViewWidgetC2EP7QWidget
FUNC 4b1a0 34 0 QScopedPointer<SDDiskMusicListViewWidgetPrivate, QScopedPointerDeleter<SDDiskMusicListViewWidgetPrivate> >::QScopedPointer
FUNC 4b1d4 40 0 QScopedPointer<SDDiskMusicListViewWidgetPrivate, QScopedPointerDeleter<SDDiskMusicListViewWidgetPrivate> >::~QScopedPointer
FUNC 4b214 54 0 QScopedPointer<SDDiskMusicListViewWidgetPrivate, QScopedPointerDeleter<SDDiskMusicListViewWidgetPrivate> >::operator->
FUNC 4b268 34 0 QScopedPointerDeleter<SDDiskMusicListViewWidgetPrivate>::cleanup
FUNC 4b29c 13c 0 SDDiskVideoListViewWidget::SDDiskVideoListViewWidget
FUNC 4b3d8 e4 0 SDDiskVideoListViewWidget::~SDDiskVideoListViewWidget
FUNC 4b4d4 30 0 SDDiskVideoListViewWidget::~SDDiskVideoListViewWidget
FUNC 4b51c ac 0 SDDiskVideoListViewWidget::showEvent
FUNC 4b5c8 154 0 SDDiskVideoListViewWidget::resizeEvent
FUNC 4b71c 20 0 SDDiskVideoListViewWidget::paintEvent
FUNC 4b73c 1d0 0 SDDiskVideoListViewWidget::customEvent
FUNC 4b90c 3bc 0 SDDiskVideoListViewWidget::ontWidgetTypeChange
FUNC 4bcd0 31c 0 SDDiskVideoListViewWidget::onDeviceWatcherStatus
FUNC 4bff4 e58 0 SDDiskVideoListViewWidget::onVideoPlayerFileNames
FUNC 4ce54 234 0 SDDiskVideoListViewWidget::onVideoPlayerPlayStatus
FUNC 4d090 190 0 SDDiskVideoListViewWidget::onVideoPlayerInformation
FUNC 4d228 3c 0 SDDiskVideoListViewWidget::onVideoPlayerElapsedInformation
FUNC 4d26c 280 0 SDDiskVideoListViewWidget::onVideoListViewItemRelease
FUNC 4d4ec 48 0 SDDiskVideoListViewWidget::onToolButtonRelease
FUNC 4d534 a8 0 SDDiskVideoListViewWidgetPrivate::SDDiskVideoListViewWidgetPrivate
FUNC 4d5dc 24 0 SDDiskVideoListViewWidgetPrivate::~SDDiskVideoListViewWidgetPrivate
FUNC 4d600 188 0 SDDiskVideoListViewWidgetPrivate::initialize
FUNC 4d788 38 0 SDDiskVideoListViewWidgetPrivate::receiveAllCustomEvent
FUNC 4d7c0 154 0 SDDiskVideoListViewWidgetPrivate::connectAllSlots
FUNC 4d914 dc 0 __static_initialization_and_destruction_0
FUNC 4d9f0 1c 0 _GLOBAL__sub_I__ZN25SDDiskVideoListViewWidgetC2EP7QWidget
FUNC 4da0c 40 0 QDebug::operator<<
FUNC 4da4c 34 0 QScopedPointer<SDDiskVideoListViewWidgetPrivate, QScopedPointerDeleter<SDDiskVideoListViewWidgetPrivate> >::QScopedPointer
FUNC 4da80 40 0 QScopedPointer<SDDiskVideoListViewWidgetPrivate, QScopedPointerDeleter<SDDiskVideoListViewWidgetPrivate> >::~QScopedPointer
FUNC 4dac0 54 0 QScopedPointer<SDDiskVideoListViewWidgetPrivate, QScopedPointerDeleter<SDDiskVideoListViewWidgetPrivate> >::operator->
FUNC 4db14 34 0 QScopedPointerDeleter<SDDiskVideoListViewWidgetPrivate>::cleanup
FUNC 4db48 13c 0 SDDiskListViewWidget::SDDiskListViewWidget
FUNC 4dc84 e4 0 SDDiskListViewWidget::~SDDiskListViewWidget
FUNC 4dd80 30 0 SDDiskListViewWidget::~SDDiskListViewWidget
FUNC 4ddc8 80 0 SDDiskListViewWidget::resizeEvent
FUNC 4de48 cc 0 SDDiskListViewWidget::ontWidgetTypeChange
FUNC 4df1c 64 0 SDDiskListViewWidgetPrivate::SDDiskListViewWidgetPrivate
FUNC 4df80 24 0 SDDiskListViewWidgetPrivate::~SDDiskListViewWidgetPrivate
FUNC 4dfa4 b8 0 SDDiskListViewWidgetPrivate::initialize
FUNC 4e05c bc 0 SDDiskListViewWidgetPrivate::connectAllSlots
FUNC 4e118 b0 0 __static_initialization_and_destruction_0
FUNC 4e1c8 1c 0 _GLOBAL__sub_I__ZN20SDDiskListViewWidgetC2EP7QWidget
FUNC 4e1e4 34 0 QScopedPointer<SDDiskListViewWidgetPrivate, QScopedPointerDeleter<SDDiskListViewWidgetPrivate> >::QScopedPointer
FUNC 4e218 40 0 QScopedPointer<SDDiskListViewWidgetPrivate, QScopedPointerDeleter<SDDiskListViewWidgetPrivate> >::~QScopedPointer
FUNC 4e258 34 0 QScopedPointerDeleter<SDDiskListViewWidgetPrivate>::cleanup
FUNC 4e28c 13c 0 SDDiskToolWidget::SDDiskToolWidget
FUNC 4e3c8 e4 0 SDDiskToolWidget::~SDDiskToolWidget
FUNC 4e4c4 30 0 SDDiskToolWidget::~SDDiskToolWidget
FUNC 4e50c 36c 0 SDDiskToolWidget::resizeEvent
FUNC 4e878 20 0 SDDiskToolWidget::paintEvent
FUNC 4e898 748 0 SDDiskToolWidget::ontWidgetTypeChange
FUNC 4efe8 4b8 0 SDDiskToolWidget::onDeviceWatcherStatus
FUNC 4f4a8 12c 0 SDDiskToolWidget::onToolButtonRelease
FUNC 4f5d4 88 0 SDDiskToolWidgetPrivate::SDDiskToolWidgetPrivate
FUNC 4f65c 24 0 SDDiskToolWidgetPrivate::~SDDiskToolWidgetPrivate
FUNC 4f680 4ec 0 SDDiskToolWidgetPrivate::initialize
FUNC 4fb6c 19c 0 SDDiskToolWidgetPrivate::connectAllSlots
FUNC 4fd08 134 0 __static_initialization_and_destruction_0
FUNC 4fe3c 1c 0 _GLOBAL__sub_I__ZN16SDDiskToolWidgetC2EP7QWidget
FUNC 4fe58 34 0 QScopedPointer<SDDiskToolWidgetPrivate, QScopedPointerDeleter<SDDiskToolWidgetPrivate> >::QScopedPointer
FUNC 4fe8c 40 0 QScopedPointer<SDDiskToolWidgetPrivate, QScopedPointerDeleter<SDDiskToolWidgetPrivate> >::~QScopedPointer
FUNC 4fecc 54 0 QScopedPointer<SDDiskToolWidgetPrivate, QScopedPointerDeleter<SDDiskToolWidgetPrivate> >::operator->
FUNC 4ff20 34 0 QScopedPointerDeleter<SDDiskToolWidgetPrivate>::cleanup
FUNC 4ff54 b8 0 PixmapWidget::PixmapWidget
FUNC 5000c 84 0 PixmapWidget::~PixmapWidget
FUNC 50098 30 0 PixmapWidget::~PixmapWidget
FUNC 500d0 b84 0 PixmapWidget::onPixmapChange
FUNC 50c54 bc 0 PixmapWidget::paintEvent
FUNC 50d10 160 0 PixmapWidget::mousePressEvent
FUNC 50e70 4e0 0 PixmapWidget::mouseMoveEvent
FUNC 51350 10c 0 PixmapWidget::mouseReleaseEvent
FUNC 5145c 1f0 0 PixmapWidget::event
FUNC 5164c 98 0 PixmapWidgetPrivate::PixmapWidgetPrivate
FUNC 516e4 2c 0 PixmapWidgetPrivate::~PixmapWidgetPrivate
FUNC 51710 1c 0 PixmapWidgetPrivate::connectAllSlots
FUNC 5172c b0 0 __static_initialization_and_destruction_0
FUNC 517dc 1c 0 _GLOBAL__sub_I__ZN12PixmapWidgetC2EP7QWidget
FUNC 517f8 44 0 QPointF::QPointF
FUNC 5183c 54 0 QWidget::setGeometry
FUNC 51890 34 0 QWidget::width
FUNC 518c4 34 0 QWidget::height
FUNC 518f8 2c 0 QEvent::accept
FUNC 51924 64 0 QPainter::drawPixmap
FUNC 51988 34 0 QScopedPointer<PixmapWidgetPrivate, QScopedPointerDeleter<PixmapWidgetPrivate> >::QScopedPointer
FUNC 519bc 40 0 QScopedPointer<PixmapWidgetPrivate, QScopedPointerDeleter<PixmapWidgetPrivate> >::~QScopedPointer
FUNC 519fc 54 0 QScopedPointer<PixmapWidgetPrivate, QScopedPointerDeleter<PixmapWidgetPrivate> >::operator->
FUNC 51a50 30 0 qAbs<int>
FUNC 51a80 34 0 QScopedPointerDeleter<PixmapWidgetPrivate>::cleanup
FUNC 51ab4 e8 0 ImageShortCutWidget::ImageShortCutWidget
FUNC 51b9c b4 0 ImageShortCutWidget::~ImageShortCutWidget
FUNC 51c60 30 0 ImageShortCutWidget::~ImageShortCutWidget
FUNC 51ca0 128 0 ImageShortCutWidget::resizeEvent
FUNC 51dc8 1d8 0 ImageShortCutWidget::customEvent
FUNC 51fa0 20 0 ImageShortCutWidget::onImagePlayerFileNames
FUNC 51fc0 1b4 0 ImageShortCutWidget::onImagePlayerPlayStatus
FUNC 5217c 34 0 ImageShortCutWidget::onBmpButtonRelease
FUNC 521b0 54 0 ImageShortCutWidgetPrivate::ImageShortCutWidgetPrivate
FUNC 52204 24 0 ImageShortCutWidgetPrivate::~ImageShortCutWidgetPrivate
FUNC 52228 ec 0 ImageShortCutWidgetPrivate::initialize
FUNC 52314 38 0 ImageShortCutWidgetPrivate::receiveAllCustomEvent
FUNC 5234c bc 0 ImageShortCutWidgetPrivate::connectAllSlots
FUNC 52408 b0 0 __static_initialization_and_destruction_0
FUNC 524b8 1c 0 _GLOBAL__sub_I__ZN19ImageShortCutWidgetC2EP7QWidget
FUNC 524d4 34 0 QScopedPointer<ImageShortCutWidgetPrivate, QScopedPointerDeleter<ImageShortCutWidgetPrivate> >::QScopedPointer
FUNC 52508 40 0 QScopedPointer<ImageShortCutWidgetPrivate, QScopedPointerDeleter<ImageShortCutWidgetPrivate> >::~QScopedPointer
FUNC 52548 54 0 QScopedPointer<ImageShortCutWidgetPrivate, QScopedPointerDeleter<ImageShortCutWidgetPrivate> >::operator->
FUNC 5259c 34 0 QScopedPointerDeleter<ImageShortCutWidgetPrivate>::cleanup
FUNC 525d0 e8 0 VideoShortCutWidget::VideoShortCutWidget
FUNC 526b8 b4 0 VideoShortCutWidget::~VideoShortCutWidget
FUNC 5277c 30 0 VideoShortCutWidget::~VideoShortCutWidget
FUNC 527bc 160 0 VideoShortCutWidget::resizeEvent
FUNC 5291c 1d8 0 VideoShortCutWidget::customEvent
FUNC 52af4 1b4 0 VideoShortCutWidget::onVideoPlayerPlayStatus
FUNC 52cb0 48 0 VideoShortCutWidget::onBmpButtonRelease
FUNC 52cf8 54 0 VideoShortCutWidgetPrivate::VideoShortCutWidgetPrivate
FUNC 52d4c 24 0 VideoShortCutWidgetPrivate::~VideoShortCutWidgetPrivate
FUNC 52d70 ec 0 VideoShortCutWidgetPrivate::initialize
FUNC 52e5c 38 0 VideoShortCutWidgetPrivate::receiveAllCustomEvent
FUNC 52e94 bc 0 VideoShortCutWidgetPrivate::connectAllSlots
FUNC 52f50 b0 0 __static_initialization_and_destruction_0
FUNC 53000 1c 0 _GLOBAL__sub_I__ZN19VideoShortCutWidgetC2EP7QWidget
FUNC 5301c 34 0 QScopedPointer<VideoShortCutWidgetPrivate, QScopedPointerDeleter<VideoShortCutWidgetPrivate> >::QScopedPointer
FUNC 53050 40 0 QScopedPointer<VideoShortCutWidgetPrivate, QScopedPointerDeleter<VideoShortCutWidgetPrivate> >::~QScopedPointer
FUNC 53090 54 0 QScopedPointer<VideoShortCutWidgetPrivate, QScopedPointerDeleter<VideoShortCutWidgetPrivate> >::operator->
FUNC 530e4 34 0 QScopedPointerDeleter<VideoShortCutWidgetPrivate>::cleanup
FUNC 53118 124 0 GeneralListView::GeneralListView
FUNC 5323c e4 0 GeneralListView::~GeneralListView
FUNC 53338 30 0 GeneralListView::~GeneralListView
FUNC 53380 3d4 0 GeneralListView::onMinusBtnRelease
FUNC 53754 3d4 0 GeneralListView::onPlusBtnRelease
FUNC 53b28 490 0 GeneralListView::onTickMarksMillesimalEnd
FUNC 53fb8 2e0 0 GeneralListView::onBrightnessChange
FUNC 542a0 2e0 0 GeneralListView::onContrastChange
FUNC 54588 2e0 0 GeneralListView::onSaturationChange
FUNC 54870 294 0 GeneralListView::onVolumeChange
FUNC 54b0c 1dc 0 GeneralListViewPrivate::GeneralListViewPrivate
FUNC 54ce8 24 0 GeneralListViewPrivate::~GeneralListViewPrivate
FUNC 54d0c 1000 0 GeneralListViewPrivate::initialize
FUNC 55d0c 49c 0 GeneralListViewPrivate::connectAllSlots
FUNC 561a8 98 0 GeneralVariant::GeneralVariant
FUNC 56240 58 0 GeneralVariant::~GeneralVariant
FUNC 56298 44 0 GeneralDelegate::GeneralDelegate
FUNC 562dc 50 0 GeneralDelegate::~GeneralDelegate
FUNC 5632c 30 0 GeneralDelegate::~GeneralDelegate
FUNC 5635c 5f4 0 GeneralDelegate::paint
FUNC 56950 1b8 0 __static_initialization_and_destruction_0
FUNC 56b08 1c 0 _GLOBAL__sub_I__ZN15GeneralListViewC2EP7QWidget
FUNC 56b24 38 0 QBasicAtomicInt::operator!
FUNC 56b5c 28 0 QBasicAtomicInt::operator int
FUNC 56b84 34 0 QBasicAtomicInt::operator=
FUNC 56bb8 80 0 operator+
FUNC 56c38 54 0 operator+
FUNC 56c8c 78 0 QRect::QRect
FUNC 56d04 a8 0 QRect::adjusted
FUNC 56dac 50 0 QLine::QLine
FUNC 56dfc 7c 0 QModelIndex::data
FUNC 56e78 34 0 Audio::Interface::Interface
FUNC 56eac 44 0 Audio::Interface::~Interface
FUNC 56ef0 30 0 Audio::Interface::~Interface
FUNC 56f20 b4 0 Audio::instance
FUNC 56fd4 70 0 QStandardItem::setSizeHint
FUNC 57044 48 0 QPainter::drawLine
FUNC 5708c 54 0 QMetaTypeId<GeneralVariant>::qt_metatype_id
FUNC 570e0 84 0 GeneralVariant::GeneralVariant
FUNC 57164 8c 0 qRegisterMetaType<GeneralVariant>
FUNC 571f0 34 0 QScopedPointer<GeneralListViewPrivate, QScopedPointerDeleter<GeneralListViewPrivate> >::QScopedPointer
FUNC 57224 40 0 QScopedPointer<GeneralListViewPrivate, QScopedPointerDeleter<GeneralListViewPrivate> >::~QScopedPointer
FUNC 57264 54 0 QScopedPointer<GeneralListViewPrivate, QScopedPointerDeleter<GeneralListViewPrivate> >::operator->
FUNC 572b8 30 0 qVariantValue<GeneralVariant>
FUNC 572e8 40 0 qVariantFromValue<GeneralVariant>
FUNC 57328 18 0 QtPrivate::QMetaTypeIdHelper<GeneralVariant, true>::qt_metatype_id
FUNC 57340 78 0 qMetaTypeConstructHelper<GeneralVariant>
FUNC 573b8 34 0 qMetaTypeDeleteHelper<GeneralVariant>
FUNC 573ec 34 0 QScopedPointerDeleter<GeneralListViewPrivate>::cleanup
FUNC 57420 100 0 qvariant_cast<GeneralVariant>
FUNC 57520 24 0 qMetaTypeId<GeneralVariant>
FUNC 57544 18 0 QMetaTypeId2<GeneralVariant>::qt_metatype_id
FUNC 5755c dc 0 GeneralSlider::GeneralSlider
FUNC 57638 84 0 GeneralSlider::~GeneralSlider
FUNC 576c4 30 0 GeneralSlider::~GeneralSlider
FUNC 576fc 78 0 GeneralSlider::setMinimumValue
FUNC 57774 78 0 GeneralSlider::setMaximumValue
FUNC 577ec 40 0 GeneralSlider::setTickMarksMillesimal
FUNC 5782c 1dc 0 GeneralSlider::resizeEvent
FUNC 57a08 2c 0 GeneralSlider::paintEvent
FUNC 57a34 7c 0 GeneralSliderPrivate::GeneralSliderPrivate
FUNC 57ab0 24 0 GeneralSliderPrivate::~GeneralSliderPrivate
FUNC 57ad4 4d0 0 GeneralSliderPrivate::initialize
FUNC 57fa4 f8 0 GeneralSliderPrivate::connectAllSlots
FUNC 5809c b0 0 __static_initialization_and_destruction_0
FUNC 5814c 1c 0 _GLOBAL__sub_I__ZN13GeneralSliderC2EP7QWidget
FUNC 58168 34 0 QScopedPointer<GeneralSliderPrivate, QScopedPointerDeleter<GeneralSliderPrivate> >::QScopedPointer
FUNC 5819c 40 0 QScopedPointer<GeneralSliderPrivate, QScopedPointerDeleter<GeneralSliderPrivate> >::~QScopedPointer
FUNC 581dc 54 0 QScopedPointer<GeneralSliderPrivate, QScopedPointerDeleter<GeneralSliderPrivate> >::operator->
FUNC 58230 34 0 QScopedPointerDeleter<GeneralSliderPrivate>::cleanup
FUNC 58264 dc 0 FMWidget::FMWidget
FUNC 58340 84 0 FMWidget::~FMWidget
FUNC 583cc 30 0 FMWidget::~FMWidget
FUNC 58404 a4 0 FMWidget::paintEvent
FUNC 584a8 200 0 FMWidget::customEvent
FUNC 586a8 64 0 FMWidget::showEvent
FUNC 5870c 74 0 FMWidget::resizeEvent
FUNC 58780 100 0 FMWidget::mousePressEvent
FUNC 58880 178 0 FMWidget::mouseReleaseEvent
FUNC 589f8 58 0 FMWidget::onTimeout
FUNC 58a50 5c 0 FMWidgetPrivate::FMWidgetPrivate
FUNC 58aac 24 0 FMWidgetPrivate::~FMWidgetPrivate
FUNC 58ad0 120 0 FMWidgetPrivate::initialize
FUNC 58bf0 38 0 FMWidgetPrivate::receiveAllCustomEvent
FUNC 58c28 b0 0 __static_initialization_and_destruction_0
FUNC 58cd8 1c 0 _GLOBAL__sub_I__ZN8FMWidgetC2EP7QWidget
FUNC 58cf4 34 0 QScopedPointer<FMWidgetPrivate, QScopedPointerDeleter<FMWidgetPrivate> >::QScopedPointer
FUNC 58d28 40 0 QScopedPointer<FMWidgetPrivate, QScopedPointerDeleter<FMWidgetPrivate> >::~QScopedPointer
FUNC 58d68 54 0 QScopedPointer<FMWidgetPrivate, QScopedPointerDeleter<FMWidgetPrivate> >::operator->
FUNC 58dbc 3c 0 QScopedPointer<FMWidgetPrivate, QScopedPointerDeleter<FMWidgetPrivate> >::operator QScopedPointer<FMWidgetPrivate>::RestrictedBool
FUNC 58df8 34 0 QScopedPointerDeleter<FMWidgetPrivate>::cleanup
FUNC 58e2c 38 0 QScopedPointer<FMWidgetPrivate, QScopedPointerDeleter<FMWidgetPrivate> >::isNull
FUNC 58e64 10c 0 FMToolWidget::FMToolWidget
FUNC 58f70 b4 0 FMToolWidget::~FMToolWidget
FUNC 59034 30 0 FMToolWidget::~FMToolWidget
FUNC 59074 63c 0 FMToolWidget::resizeEvent
FUNC 596b0 468 0 FMToolWidget::onFMChange
FUNC 59b20 284 0 FMToolWidget::onFMIsOpen
FUNC 59dac 38 0 FMToolWidget::onVolumeChange
FUNC 59dec 7f8 0 FMToolWidget::onToolButtonRelease
FUNC 5a5e4 124 0 FMToolWidgetPrivate::FMToolWidgetPrivate
FUNC 5a708 24 0 FMToolWidgetPrivate::~FMToolWidgetPrivate
FUNC 5a72c 10c4 0 FMToolWidgetPrivate::initialize
FUNC 5b7f0 2fc 0 FMToolWidgetPrivate::connectAllSlots
FUNC 5baec 108 0 __static_initialization_and_destruction_0
FUNC 5bbf4 1c 0 _GLOBAL__sub_I__ZN12FMToolWidgetC2EP7QWidget
FUNC 5bc10 34 0 QScopedPointer<FMToolWidgetPrivate, QScopedPointerDeleter<FMToolWidgetPrivate> >::QScopedPointer
FUNC 5bc44 40 0 QScopedPointer<FMToolWidgetPrivate, QScopedPointerDeleter<FMToolWidgetPrivate> >::~QScopedPointer
FUNC 5bc84 54 0 QScopedPointer<FMToolWidgetPrivate, QScopedPointerDeleter<FMToolWidgetPrivate> >::operator->
FUNC 5bcd8 34 0 QScopedPointerDeleter<FMToolWidgetPrivate>::cleanup
FUNC 5bd0c 150 0 CalibrateWidget::CalibrateWidget
FUNC 5be5c 84 0 CalibrateWidget::~CalibrateWidget
FUNC 5bee8 30 0 CalibrateWidget::~CalibrateWidget
FUNC 5bf20 84 0 CalibrateWidget::resizeEvent
FUNC 5bfa4 50 0 CalibrateWidget::hideEvent
FUNC 5bff4 1f0 0 CalibrateWidget::paintEvent
FUNC 5c1e4 1f0 0 CalibrateWidget::mouseReleaseEvent
FUNC 5c3d4 38 0 CalibrateWidget::timerEvent
FUNC 5c40c a8 0 CalibrateWidgetPrivate::CalibrateWidgetPrivate
FUNC 5c4b4 24 0 CalibrateWidgetPrivate::~CalibrateWidgetPrivate
FUNC 5c4d8 1d8 0 CalibrateWidgetPrivate::initialize
FUNC 5c6b0 1c 0 CalibrateWidgetPrivate::connectAllSlots
FUNC 5c6cc 240 0 CalibrateWidgetPrivate::calibrateStart
FUNC 5c90c 538 0 CalibrateWidgetPrivate::calibrateFinish
FUNC 5ce44 b0 0 __static_initialization_and_destruction_0
FUNC 5cef4 1c 0 _GLOBAL__sub_I__ZN15CalibrateWidgetC2EP7QWidget
FUNC 5cf10 3c 0 QPoint::QPoint
FUNC 5cf4c 24 0 QWidget::setFocus
FUNC 5cf70 6c 0 QPainter::fillRect
FUNC 5cfdc 28 0 QScreen::width
FUNC 5d004 28 0 QScreen::height
FUNC 5d02c 28 0 QScreen::deviceWidth
FUNC 5d054 28 0 QScreen::deviceHeight
FUNC 5d07c 74 0 QWSPointerCalibrationData::QWSPointerCalibrationData
FUNC 5d0f0 34 0 QScopedPointer<CalibrateWidgetPrivate, QScopedPointerDeleter<CalibrateWidgetPrivate> >::QScopedPointer
FUNC 5d124 40 0 QScopedPointer<CalibrateWidgetPrivate, QScopedPointerDeleter<CalibrateWidgetPrivate> >::~QScopedPointer
FUNC 5d164 54 0 QScopedPointer<CalibrateWidgetPrivate, QScopedPointerDeleter<CalibrateWidgetPrivate> >::operator->
FUNC 5d1b8 34 0 QScopedPointerDeleter<CalibrateWidgetPrivate>::cleanup
FUNC 5d1ec e8 0 VolumeWidget::VolumeWidget
FUNC 5d2d4 b4 0 VolumeWidget::~VolumeWidget
FUNC 5d398 30 0 VolumeWidget::~VolumeWidget
FUNC 5d3d8 74 0 VolumeWidget::resizeEvent
FUNC 5d44c 210 0 VolumeWidget::customEvent
FUNC 5d65c ec 0 VolumeWidget::mousePressEvent
FUNC 5d748 164 0 VolumeWidget::mouseReleaseEvent
FUNC 5d8ac a4 0 VolumeWidget::paintEvent
FUNC 5d950 424 0 VolumeWidget::onVolumeChange
FUNC 5dd7c 58 0 VolumeWidget::onTimeout
FUNC 5ddd4 5c 0 VolumeWidgetPrivate::VolumeWidgetPrivate
FUNC 5de30 24 0 VolumeWidgetPrivate::~VolumeWidgetPrivate
FUNC 5de54 184 0 VolumeWidgetPrivate::initializeTipWidget
FUNC 5dfd8 60 0 VolumeWidgetPrivate::initializeToolWidget
FUNC 5e038 dc 0 VolumeWidgetPrivate::initializeTimer
FUNC 5e114 38 0 VolumeWidgetPrivate::receiveAllCustomEvent
FUNC 5e14c 6c 0 VolumeWidgetPrivate::connectAllSlots
FUNC 5e1b8 b0 0 __static_initialization_and_destruction_0
FUNC 5e268 1c 0 _GLOBAL__sub_I__ZN12VolumeWidgetC2EP7QWidget
FUNC 5e284 34 0 QScopedPointer<VolumeWidgetPrivate, QScopedPointerDeleter<VolumeWidgetPrivate> >::QScopedPointer
FUNC 5e2b8 40 0 QScopedPointer<VolumeWidgetPrivate, QScopedPointerDeleter<VolumeWidgetPrivate> >::~QScopedPointer
FUNC 5e2f8 54 0 QScopedPointer<VolumeWidgetPrivate, QScopedPointerDeleter<VolumeWidgetPrivate> >::operator->
FUNC 5e34c 34 0 QScopedPointerDeleter<VolumeWidgetPrivate>::cleanup
FUNC 5e380 e8 0 VolumeToolWidget::VolumeToolWidget
FUNC 5e468 b4 0 VolumeToolWidget::~VolumeToolWidget
FUNC 5e52c 30 0 VolumeToolWidget::~VolumeToolWidget
FUNC 5e56c f0 0 VolumeToolWidget::resizeEvent
FUNC 5e65c 1d4 0 VolumeToolWidget::changeEvent
FUNC 5e830 29c 0 VolumeToolWidget::onVolumeChange
FUNC 5ead4 ac 0 VolumeToolWidget::onMinusBtnRelease
FUNC 5eb80 ac 0 VolumeToolWidget::onPlusBtnRelease
FUNC 5ec2c f4 0 VolumeToolWidget::onTickMarksMillesimalEnd
FUNC 5ed20 70 0 VolumeToolWidgetPrivate::VolumeToolWidgetPrivate
FUNC 5ed90 24 0 VolumeToolWidgetPrivate::~VolumeToolWidgetPrivate
FUNC 5edb4 38c 0 VolumeToolWidgetPrivate::initialize
FUNC 5f140 14c 0 VolumeToolWidgetPrivate::connectAllSlots
FUNC 5f28c dc 0 __static_initialization_and_destruction_0
FUNC 5f368 1c 0 _GLOBAL__sub_I__ZN16VolumeToolWidgetC2EP7QWidget
FUNC 5f384 34 0 QScopedPointer<VolumeToolWidgetPrivate, QScopedPointerDeleter<VolumeToolWidgetPrivate> >::QScopedPointer
FUNC 5f3b8 40 0 QScopedPointer<VolumeToolWidgetPrivate, QScopedPointerDeleter<VolumeToolWidgetPrivate> >::~QScopedPointer
FUNC 5f3f8 54 0 QScopedPointer<VolumeToolWidgetPrivate, QScopedPointerDeleter<VolumeToolWidgetPrivate> >::operator->
FUNC 5f44c 34 0 QScopedPointerDeleter<VolumeToolWidgetPrivate>::cleanup
FUNC 5f480 dc 0 VolumeSliderWidget::VolumeSliderWidget
FUNC 5f55c 84 0 VolumeSliderWidget::~VolumeSliderWidget
FUNC 5f5e8 30 0 VolumeSliderWidget::~VolumeSliderWidget
FUNC 5f620 40 0 VolumeSliderWidget::setTickMarksMillesimal
FUNC 5f660 144 0 VolumeSliderWidget::resizeEvent
FUNC 5f7a4 64 0 VolumeSliderWidgetPrivate::VolumeSliderWidgetPrivate
FUNC 5f808 24 0 VolumeSliderWidgetPrivate::~VolumeSliderWidgetPrivate
FUNC 5f82c 368 0 VolumeSliderWidgetPrivate::initialize
FUNC 5fb94 f8 0 VolumeSliderWidgetPrivate::connectAllSlots
FUNC 5fc8c b0 0 __static_initialization_and_destruction_0
FUNC 5fd3c 1c 0 _GLOBAL__sub_I__ZN18VolumeSliderWidgetC2EP7QWidget
FUNC 5fd58 34 0 QScopedPointer<VolumeSliderWidgetPrivate, QScopedPointerDeleter<VolumeSliderWidgetPrivate> >::QScopedPointer
FUNC 5fd8c 40 0 QScopedPointer<VolumeSliderWidgetPrivate, QScopedPointerDeleter<VolumeSliderWidgetPrivate> >::~QScopedPointer
FUNC 5fdcc 54 0 QScopedPointer<VolumeSliderWidgetPrivate, QScopedPointerDeleter<VolumeSliderWidgetPrivate> >::operator->
FUNC 5fe20 34 0 QScopedPointerDeleter<VolumeSliderWidgetPrivate>::cleanup
FUNC 5fe54 e8 0 MusicToolWidget::MusicToolWidget
FUNC 5ff3c b4 0 MusicToolWidget::~MusicToolWidget
FUNC 60000 30 0 MusicToolWidget::~MusicToolWidget
FUNC 60040 61c 0 MusicToolWidget::resizeEvent
FUNC 6065c 20 0 MusicToolWidget::paintEvent
FUNC 6067c 138 0 MusicToolWidget::customEvent
FUNC 607b4 244 0 MusicToolWidget::onMusicPlayerPlayMode
FUNC 60a00 42c 0 MusicToolWidget::onMusicPlayerPlayStatus
FUNC 60e34 1dc 0 MusicToolWidget::onMusicPlayerElapsedInformation
FUNC 61018 280 0 MusicToolWidget::onMusicPlayerID3TagChange
FUNC 612a0 2c 0 MusicToolWidget::onTickMarksMillesimalStart
FUNC 612cc d8 0 MusicToolWidgetPrivate::MusicToolWidgetPrivate
FUNC 613a4 24 0 MusicToolWidgetPrivate::~MusicToolWidgetPrivate
FUNC 613c8 8a8 0 MusicToolWidgetPrivate::initialize
FUNC 61c70 38 0 MusicToolWidgetPrivate::receiveAllCustomEvent
FUNC 61ca8 26c 0 MusicToolWidgetPrivate::connectAllSlots
FUNC 61f14 d8 0 MusicToolWidget::onTickMarksMillesimalEnd
FUNC 61fec 234 0 MusicToolWidget::onToolButtonRelease
FUNC 62220 374 0 MusicToolWidgetPrivate::convertTime
FUNC 62594 dc 0 __static_initialization_and_destruction_0
FUNC 62670 1c 0 _GLOBAL__sub_I__ZN15MusicToolWidgetC2EP7QWidget
FUNC 6268c 34 0 QScopedPointer<MusicToolWidgetPrivate, QScopedPointerDeleter<MusicToolWidgetPrivate> >::QScopedPointer
FUNC 626c0 40 0 QScopedPointer<MusicToolWidgetPrivate, QScopedPointerDeleter<MusicToolWidgetPrivate> >::~QScopedPointer
FUNC 62700 54 0 QScopedPointer<MusicToolWidgetPrivate, QScopedPointerDeleter<MusicToolWidgetPrivate> >::operator->
FUNC 62754 34 0 QScopedPointerDeleter<MusicToolWidgetPrivate>::cleanup
FUNC 62788 b8 0 MultimediaLoadingWidget::MultimediaLoadingWidget
FUNC 62840 84 0 MultimediaLoadingWidget::~MultimediaLoadingWidget
FUNC 628cc 30 0 MultimediaLoadingWidget::~MultimediaLoadingWidget
FUNC 62904 c8 0 MultimediaLoadingWidget::resizeEvent
FUNC 629cc 20 0 MultimediaLoadingWidget::paintEvent
FUNC 629ec 44 0 MultimediaLoadingWidgetPrivate::MultimediaLoadingWidgetPrivate
FUNC 62a30 24 0 MultimediaLoadingWidgetPrivate::~MultimediaLoadingWidgetPrivate
FUNC 62a54 a8 0 MultimediaLoadingWidgetPrivate::initialize
FUNC 62afc b0 0 __static_initialization_and_destruction_0
FUNC 62bac 1c 0 _GLOBAL__sub_I__ZN23MultimediaLoadingWidgetC2EP7QWidget
FUNC 62bc8 34 0 QScopedPointer<MultimediaLoadingWidgetPrivate, QScopedPointerDeleter<MultimediaLoadingWidgetPrivate> >::QScopedPointer
FUNC 62bfc 40 0 QScopedPointer<MultimediaLoadingWidgetPrivate, QScopedPointerDeleter<MultimediaLoadingWidgetPrivate> >::~QScopedPointer
FUNC 62c3c 54 0 QScopedPointer<MultimediaLoadingWidgetPrivate, QScopedPointerDeleter<MultimediaLoadingWidgetPrivate> >::operator->
FUNC 62c90 34 0 QScopedPointerDeleter<MultimediaLoadingWidgetPrivate>::cleanup
FUNC 62cc4 118 0 MusicLoadingWidget::MusicLoadingWidget
FUNC 62ddc e4 0 MusicLoadingWidget::~MusicLoadingWidget
FUNC 62ed8 30 0 MusicLoadingWidget::~MusicLoadingWidget
FUNC 62f20 e0 0 MusicLoadingWidget::resizeEvent
FUNC 63000 20 0 MusicLoadingWidget::paintEvent
FUNC 63020 70 0 MusicLoadingWidget::event
FUNC 63090 224 0 MusicLoadingWidget::ontWidgetTypeChange
FUNC 632bc 228 0 MusicLoadingWidget::onMusicPlayerPlayStatus
FUNC 634ec 4c 0 MusicLoadingWidgetPrivate::MusicLoadingWidgetPrivate
FUNC 63538 24 0 MusicLoadingWidgetPrivate::~MusicLoadingWidgetPrivate
FUNC 6355c 50 0 MusicLoadingWidgetPrivate::initialize
FUNC 635ac bc 0 MusicLoadingWidgetPrivate::connectAllSlots
FUNC 63668 b0 0 __static_initialization_and_destruction_0
FUNC 63718 1c 0 _GLOBAL__sub_I__ZN18MusicLoadingWidgetC2EP7QWidget
FUNC 63734 34 0 QScopedPointer<MusicLoadingWidgetPrivate, QScopedPointerDeleter<MusicLoadingWidgetPrivate> >::QScopedPointer
FUNC 63768 40 0 QScopedPointer<MusicLoadingWidgetPrivate, QScopedPointerDeleter<MusicLoadingWidgetPrivate> >::~QScopedPointer
FUNC 637a8 54 0 QScopedPointer<MusicLoadingWidgetPrivate, QScopedPointerDeleter<MusicLoadingWidgetPrivate> >::operator->
FUNC 637fc 34 0 QScopedPointerDeleter<MusicLoadingWidgetPrivate>::cleanup
FUNC 63830 e8 0 VideoLoadingWidget::VideoLoadingWidget
FUNC 63918 b4 0 VideoLoadingWidget::~VideoLoadingWidget
FUNC 639dc 30 0 VideoLoadingWidget::~VideoLoadingWidget
FUNC 63a1c e0 0 VideoLoadingWidget::resizeEvent
FUNC 63afc 20 0 VideoLoadingWidget::paintEvent
FUNC 63b1c 70 0 VideoLoadingWidget::event
FUNC 63b8c 70 0 VideoLoadingWidget::onVideoPlayerPlayStatus
FUNC 63c04 4c 0 VideoLoadingWidgetPrivate::VideoLoadingWidgetPrivate
FUNC 63c50 24 0 VideoLoadingWidgetPrivate::~VideoLoadingWidgetPrivate
FUNC 63c74 60 0 VideoLoadingWidgetPrivate::initialize
FUNC 63cd4 6c 0 VideoLoadingWidgetPrivate::connectAllSlots
FUNC 63d40 b0 0 __static_initialization_and_destruction_0
FUNC 63df0 1c 0 _GLOBAL__sub_I__ZN18VideoLoadingWidgetC2EP7QWidget
FUNC 63e0c 34 0 QScopedPointer<VideoLoadingWidgetPrivate, QScopedPointerDeleter<VideoLoadingWidgetPrivate> >::QScopedPointer
FUNC 63e40 40 0 QScopedPointer<VideoLoadingWidgetPrivate, QScopedPointerDeleter<VideoLoadingWidgetPrivate> >::~QScopedPointer
FUNC 63e80 54 0 QScopedPointer<VideoLoadingWidgetPrivate, QScopedPointerDeleter<VideoLoadingWidgetPrivate> >::operator->
FUNC 63ed4 34 0 QScopedPointerDeleter<VideoLoadingWidgetPrivate>::cleanup
FUNC 63f08 e8 0 CarplayShortCutWidget::CarplayShortCutWidget
FUNC 63ff0 b4 0 CarplayShortCutWidget::~CarplayShortCutWidget
FUNC 640b4 30 0 CarplayShortCutWidget::~CarplayShortCutWidget
FUNC 640f4 128 0 CarplayShortCutWidget::resizeEvent
FUNC 6421c 1d8 0 CarplayShortCutWidget::customEvent
FUNC 643f4 1c8 0 CarplayShortCutWidget::onLinkStatusChange
FUNC 645c4 30 0 CarplayShortCutWidget::onBmpButtonRelease
FUNC 645f4 60 0 CarplayShortCutWidgetPrivate::CarplayShortCutWidgetPrivate
FUNC 64654 24 0 CarplayShortCutWidgetPrivate::~CarplayShortCutWidgetPrivate
FUNC 64678 ec 0 CarplayShortCutWidgetPrivate::initialize
FUNC 64764 38 0 CarplayShortCutWidgetPrivate::receiveAllCustomEvent
FUNC 6479c bc 0 CarplayShortCutWidgetPrivate::connectAllSlots
FUNC 64858 b0 0 __static_initialization_and_destruction_0
FUNC 64908 1c 0 _GLOBAL__sub_I__ZN21CarplayShortCutWidgetC2EP7QWidget
FUNC 64924 34 0 QScopedPointer<CarplayShortCutWidgetPrivate, QScopedPointerDeleter<CarplayShortCutWidgetPrivate> >::QScopedPointer
FUNC 64958 40 0 QScopedPointer<CarplayShortCutWidgetPrivate, QScopedPointerDeleter<CarplayShortCutWidgetPrivate> >::~QScopedPointer
FUNC 64998 54 0 QScopedPointer<CarplayShortCutWidgetPrivate, QScopedPointerDeleter<CarplayShortCutWidgetPrivate> >::operator->
FUNC 649ec 34 0 QScopedPointerDeleter<CarplayShortCutWidgetPrivate>::cleanup
FUNC 64a20 e8 0 MirrorShortCutWidget::MirrorShortCutWidget
FUNC 64b08 b4 0 MirrorShortCutWidget::~MirrorShortCutWidget
FUNC 64bcc 30 0 MirrorShortCutWidget::~MirrorShortCutWidget
FUNC 64c0c 128 0 MirrorShortCutWidget::resizeEvent
FUNC 64d34 2f8 0 MirrorShortCutWidget::customEvent
FUNC 6502c 1c8 0 MirrorShortCutWidget::onLinkStatusChange
FUNC 651fc 30 0 MirrorShortCutWidget::onBmpButtonRelease
FUNC 6522c 54 0 MirrorShortCutWidgetPrivate::MirrorShortCutWidgetPrivate
FUNC 65280 24 0 MirrorShortCutWidgetPrivate::~MirrorShortCutWidgetPrivate
FUNC 652a4 ec 0 MirrorShortCutWidgetPrivate::initialize
FUNC 65390 38 0 MirrorShortCutWidgetPrivate::receiveAllCustomEvent
FUNC 653c8 bc 0 MirrorShortCutWidgetPrivate::connectAllSlots
FUNC 65484 b0 0 __static_initialization_and_destruction_0
FUNC 65534 1c 0 _GLOBAL__sub_I__ZN20MirrorShortCutWidgetC2EP7QWidget
FUNC 65550 34 0 QScopedPointer<MirrorShortCutWidgetPrivate, QScopedPointerDeleter<MirrorShortCutWidgetPrivate> >::QScopedPointer
FUNC 65584 40 0 QScopedPointer<MirrorShortCutWidgetPrivate, QScopedPointerDeleter<MirrorShortCutWidgetPrivate> >::~QScopedPointer
FUNC 655c4 54 0 QScopedPointer<MirrorShortCutWidgetPrivate, QScopedPointerDeleter<MirrorShortCutWidgetPrivate> >::operator->
FUNC 65618 34 0 QScopedPointerDeleter<MirrorShortCutWidgetPrivate>::cleanup
FUNC 6564c e8 0 ImageLoadingWidget::ImageLoadingWidget
FUNC 65734 b4 0 ImageLoadingWidget::~ImageLoadingWidget
FUNC 657f8 30 0 ImageLoadingWidget::~ImageLoadingWidget
FUNC 65838 f0 0 ImageLoadingWidget::resizeEvent
FUNC 65928 b4 0 ImageLoadingWidget::paintEvent
FUNC 659dc 70 0 ImageLoadingWidget::event
FUNC 65a4c 70 0 ImageLoadingWidget::onImagePlayerPlayStatus
FUNC 65ac4 4c 0 ImageLoadingWidgetPrivate::ImageLoadingWidgetPrivate
FUNC 65b10 24 0 ImageLoadingWidgetPrivate::~ImageLoadingWidgetPrivate
FUNC 65b34 60 0 ImageLoadingWidgetPrivate::initialize
FUNC 65b94 6c 0 ImageLoadingWidgetPrivate::connectAllSlots
FUNC 65c00 b0 0 __static_initialization_and_destruction_0
FUNC 65cb0 1c 0 _GLOBAL__sub_I__ZN18ImageLoadingWidgetC2EP7QWidget
FUNC 65ccc 34 0 QScopedPointer<ImageLoadingWidgetPrivate, QScopedPointerDeleter<ImageLoadingWidgetPrivate> >::QScopedPointer
FUNC 65d00 40 0 QScopedPointer<ImageLoadingWidgetPrivate, QScopedPointerDeleter<ImageLoadingWidgetPrivate> >::~QScopedPointer
FUNC 65d40 54 0 QScopedPointer<ImageLoadingWidgetPrivate, QScopedPointerDeleter<ImageLoadingWidgetPrivate> >::operator->
FUNC 65d94 34 0 QScopedPointerDeleter<ImageLoadingWidgetPrivate>::cleanup
FUNC 65dc8 b8 0 MirrorToolWidget::MirrorToolWidget
FUNC 65e80 84 0 MirrorToolWidget::~MirrorToolWidget
FUNC 65f0c 30 0 MirrorToolWidget::~MirrorToolWidget
FUNC 65f44 490 0 MirrorToolWidget::resizeEvent
FUNC 663d4 2c 0 MirrorToolWidget::paintEvent
FUNC 66400 2c 0 MirrorToolWidget::timerEvent
FUNC 6642c 6c 0 MirrorToolWidget::event
FUNC 66498 1ac 0 MirrorToolWidget::onToolBtnRelease
FUNC 66644 7c 0 MirrorToolWidgetPrivate::MirrorToolWidgetPrivate
FUNC 666c0 24 0 MirrorToolWidgetPrivate::~MirrorToolWidgetPrivate
FUNC 666e4 4a4 0 MirrorToolWidgetPrivate::initialize
FUNC 66b88 188 0 MirrorToolWidgetPrivate::connectAllSlots
FUNC 66d10 b0 0 __static_initialization_and_destruction_0
FUNC 66dc0 1c 0 _GLOBAL__sub_I__ZN16MirrorToolWidgetC2EP7QWidget
FUNC 66ddc 34 0 QScopedPointer<MirrorToolWidgetPrivate, QScopedPointerDeleter<MirrorToolWidgetPrivate> >::QScopedPointer
FUNC 66e10 40 0 QScopedPointer<MirrorToolWidgetPrivate, QScopedPointerDeleter<MirrorToolWidgetPrivate> >::~QScopedPointer
FUNC 66e50 54 0 QScopedPointer<MirrorToolWidgetPrivate, QScopedPointerDeleter<MirrorToolWidgetPrivate> >::operator->
FUNC 66ea4 34 0 QScopedPointerDeleter<MirrorToolWidgetPrivate>::cleanup
FUNC 66ed8 a0 0 MultimediaListView::MultimediaListView
FUNC 66f78 84 0 MultimediaListView::~MultimediaListView
FUNC 67004 30 0 MultimediaListView::~MultimediaListView
FUNC 6703c 70 0 MultimediaListView::clearListView
FUNC 670ac 1a8 0 MultimediaListView::appendListView
FUNC 67254 3c 0 MultimediaListView::setCurrentIndex
FUNC 67290 5c 0 MultimediaListViewPrivate::MultimediaListViewPrivate
FUNC 672ec 24 0 MultimediaListViewPrivate::~MultimediaListViewPrivate
FUNC 67310 4b4 0 MultimediaListViewPrivate::initialize
FUNC 677c4 4c 0 MultimediaVariant::MultimediaVariant
FUNC 67810 2c 0 MultimediaVariant::~MultimediaVariant
FUNC 6783c 3e0 0 MultimediaDelegate::MultimediaDelegate
FUNC 67c1c d8 0 MultimediaDelegate::~MultimediaDelegate
FUNC 67cf4 30 0 MultimediaDelegate::~MultimediaDelegate
FUNC 67d24 28 0 MultimediaDelegate::mousePressEvent
FUNC 67d4c 28 0 MultimediaDelegate::mouseMoveEvent
FUNC 67d74 28 0 MultimediaDelegate::mouseReleaseEvent
FUNC 67d9c ac8 0 MultimediaDelegate::paint
FUNC 68864 34 0 MultimediaDelegate::onCurrentIndexChange
FUNC 68898 34 0 MultimediaDelegate::onPressIndexChanged
FUNC 688cc b0 0 __static_initialization_and_destruction_0
FUNC 6897c 1c 0 _GLOBAL__sub_I__ZN18MultimediaListViewC2EP7QWidget
FUNC 68998 28 0 QSize::width
FUNC 689c0 28 0 QSize::height
FUNC 689e8 5c 0 QRectF::QRectF
FUNC 68a44 28 0 QModelIndex::row
FUNC 68a6c 90 0 QModelIndex::operator==
FUNC 68afc 54 0 QPainter::drawPixmap
FUNC 68b50 54 0 QMetaTypeId<MultimediaVariant>::qt_metatype_id
FUNC 68ba4 38 0 MultimediaVariant::MultimediaVariant
FUNC 68bdc 8c 0 qRegisterMetaType<MultimediaVariant>
FUNC 68c68 34 0 QScopedPointer<MultimediaListViewPrivate, QScopedPointerDeleter<MultimediaListViewPrivate> >::QScopedPointer
FUNC 68c9c 40 0 QScopedPointer<MultimediaListViewPrivate, QScopedPointerDeleter<MultimediaListViewPrivate> >::~QScopedPointer
FUNC 68cdc 54 0 QScopedPointer<MultimediaListViewPrivate, QScopedPointerDeleter<MultimediaListViewPrivate> >::operator->
FUNC 68d30 40 0 qVariantFromValue<MultimediaVariant>
FUNC 68d70 34 0 QScopedPointer<QPixmap, QScopedPointerDeleter<QPixmap> >::QScopedPointer
FUNC 68da4 40 0 QScopedPointer<QPixmap, QScopedPointerDeleter<QPixmap> >::~QScopedPointer
FUNC 68de4 34 0 QScopedPointer<QSvgRenderer, QScopedPointerDeleter<QSvgRenderer> >::QScopedPointer
FUNC 68e18 40 0 QScopedPointer<QSvgRenderer, QScopedPointerDeleter<QSvgRenderer> >::~QScopedPointer
FUNC 68e58 54 0 QScopedPointer<QPixmap, QScopedPointerDeleter<QPixmap> >::reset
FUNC 68eac 54 0 QScopedPointer<QSvgRenderer, QScopedPointerDeleter<QSvgRenderer> >::reset
FUNC 68f00 30 0 qVariantValue<MultimediaVariant>
FUNC 68f30 38 0 QScopedPointer<QPixmap, QScopedPointerDeleter<QPixmap> >::isNull
FUNC 68f68 54 0 QScopedPointer<QPixmap, QScopedPointerDeleter<QPixmap> >::operator->
FUNC 68fbc 54 0 QScopedPointer<QPixmap, QScopedPointerDeleter<QPixmap> >::operator*
FUNC 69010 38 0 QScopedPointer<QSvgRenderer, QScopedPointerDeleter<QSvgRenderer> >::isNull
FUNC 69048 54 0 QScopedPointer<QSvgRenderer, QScopedPointerDeleter<QSvgRenderer> >::operator->
FUNC 6909c 18 0 QtPrivate::QMetaTypeIdHelper<MultimediaVariant, true>::qt_metatype_id
FUNC 690b4 78 0 qMetaTypeConstructHelper<MultimediaVariant>
FUNC 6912c 34 0 qMetaTypeDeleteHelper<MultimediaVariant>
FUNC 69160 34 0 QScopedPointerDeleter<MultimediaListViewPrivate>::cleanup
FUNC 69194 24 0 qMetaTypeId<MultimediaVariant>
FUNC 691b8 3c 0 QScopedPointerDeleter<QPixmap>::cleanup
FUNC 691f4 3c 0 QScopedPointerDeleter<QSvgRenderer>::cleanup
FUNC 69230 100 0 qvariant_cast<MultimediaVariant>
FUNC 69330 18 0 QMetaTypeId2<MultimediaVariant>::qt_metatype_id
FUNC 69348 b8 0 MirrorMessageDialog::MirrorMessageDialog
FUNC 69400 84 0 MirrorMessageDialog::~MirrorMessageDialog
FUNC 6948c 30 0 MirrorMessageDialog::~MirrorMessageDialog
FUNC 694c4 10c 0 MirrorMessageDialog::setDeviceName
FUNC 695d0 10c 0 MirrorMessageDialog::setDeviceCode
FUNC 696dc 2ac 0 MirrorMessageDialog::setDeviceStatus
FUNC 69988 6e0 0 MirrorMessageDialog::resizeEvent
FUNC 6a068 3c 0 MirrorMessageDialog::mouseReleaseEvent
FUNC 6a0a4 7c 0 MirrorMessageDialog::event
FUNC 6a120 7c 0 MirrorMessageDialogPrivate::MirrorMessageDialogPrivate
FUNC 6a19c 24 0 MirrorMessageDialogPrivate::~MirrorMessageDialogPrivate
FUNC 6a1c0 54c 0 MirrorMessageDialogPrivate::initialize
FUNC 6a70c 1c 0 MirrorMessageDialogPrivate::connectAllSlots
FUNC 6a728 1b8 0 __static_initialization_and_destruction_0
FUNC 6a8e0 1c 0 _GLOBAL__sub_I__ZN19MirrorMessageDialogC2EP7QWidget
FUNC 6a8fc 34 0 QScopedPointer<MirrorMessageDialogPrivate, QScopedPointerDeleter<MirrorMessageDialogPrivate> >::QScopedPointer
FUNC 6a930 40 0 QScopedPointer<MirrorMessageDialogPrivate, QScopedPointerDeleter<MirrorMessageDialogPrivate> >::~QScopedPointer
FUNC 6a970 54 0 QScopedPointer<MirrorMessageDialogPrivate, QScopedPointerDeleter<MirrorMessageDialogPrivate> >::operator->
FUNC 6a9c4 34 0 QScopedPointerDeleter<MirrorMessageDialogPrivate>::cleanup
FUNC 6a9f8 b8 0 GeneralResetWidget::GeneralResetWidget
FUNC 6aab0 84 0 GeneralResetWidget::~GeneralResetWidget
FUNC 6ab3c 30 0 GeneralResetWidget::~GeneralResetWidget
FUNC 6ab74 2c 0 GeneralResetWidget::paintEvent
FUNC 6aba0 85c 0 GeneralResetWidget::resizeEvent
FUNC 6b3fc 50 0 GeneralResetWidget::timerEvent
FUNC 6b44c 2e4 0 GeneralResetWidget::onToolButtonRelease
FUNC 6b730 94 0 GeneralResetWidgetPrivate::GeneralResetWidgetPrivate
FUNC 6b7c4 24 0 GeneralResetWidgetPrivate::~GeneralResetWidgetPrivate
FUNC 6b7e8 440 0 GeneralResetWidgetPrivate::initialize
FUNC 6bc28 b0 0 GeneralResetWidgetPrivate::connectAllSlots
FUNC 6bcd8 160 0 __static_initialization_and_destruction_0
FUNC 6be38 1c 0 _GLOBAL__sub_I__ZN18GeneralResetWidgetC2EP7QWidget
FUNC 6be54 34 0 QScopedPointer<GeneralResetWidgetPrivate, QScopedPointerDeleter<GeneralResetWidgetPrivate> >::QScopedPointer
FUNC 6be88 40 0 QScopedPointer<GeneralResetWidgetPrivate, QScopedPointerDeleter<GeneralResetWidgetPrivate> >::~QScopedPointer
FUNC 6bec8 54 0 QScopedPointer<GeneralResetWidgetPrivate, QScopedPointerDeleter<GeneralResetWidgetPrivate> >::operator->
FUNC 6bf1c 34 0 QScopedPointerDeleter<GeneralResetWidgetPrivate>::cleanup
FUNC 6bf50 dc 0 IRWidget::IRWidget
FUNC 6c02c 84 0 IRWidget::~IRWidget
FUNC 6c0b8 30 0 IRWidget::~IRWidget
FUNC 6c0f0 a4 0 IRWidget::paintEvent
FUNC 6c194 21c 0 IRWidget::customEvent
FUNC 6c3b0 74 0 IRWidget::resizeEvent
FUNC 6c424 ec 0 IRWidget::mousePressEvent
FUNC 6c510 164 0 IRWidget::mouseReleaseEvent
FUNC 6c674 58 0 IRWidget::onTimeout
FUNC 6c6cc 50 0 IRWidgetPrivate::IRWidgetPrivate
FUNC 6c71c 24 0 IRWidgetPrivate::~IRWidgetPrivate
FUNC 6c740 120 0 IRWidgetPrivate::initialize
FUNC 6c860 38 0 IRWidgetPrivate::receiveAllCustomEvent
FUNC 6c898 b0 0 __static_initialization_and_destruction_0
FUNC 6c948 1c 0 _GLOBAL__sub_I__ZN8IRWidgetC2EP7QWidget
FUNC 6c964 34 0 QScopedPointer<IRWidgetPrivate, QScopedPointerDeleter<IRWidgetPrivate> >::QScopedPointer
FUNC 6c998 40 0 QScopedPointer<IRWidgetPrivate, QScopedPointerDeleter<IRWidgetPrivate> >::~QScopedPointer
FUNC 6c9d8 54 0 QScopedPointer<IRWidgetPrivate, QScopedPointerDeleter<IRWidgetPrivate> >::operator->
FUNC 6ca2c 34 0 QScopedPointerDeleter<IRWidgetPrivate>::cleanup
FUNC 6ca60 10c 0 IRToolWidget::IRToolWidget
FUNC 6cb6c b4 0 IRToolWidget::~IRToolWidget
FUNC 6cc30 30 0 IRToolWidget::~IRToolWidget
FUNC 6cc70 404 0 IRToolWidget::resizeEvent
FUNC 6d074 164 0 IRToolWidget::onIRIsOpen
FUNC 6d1e0 184 0 IRToolWidget::onIRChange
FUNC 6d36c 38 0 IRToolWidget::onVolumeChange
FUNC 6d3ac 2f0 0 IRToolWidget::onToolButtonRelease
FUNC 6d69c a0 0 IRToolWidgetPrivate::IRToolWidgetPrivate
FUNC 6d73c 24 0 IRToolWidgetPrivate::~IRToolWidgetPrivate
FUNC 6d760 62c 0 IRToolWidgetPrivate::initialize
FUNC 6dd8c 14c 0 IRToolWidgetPrivate::connectAllSlots
FUNC 6ded8 18c 0 __static_initialization_and_destruction_0
FUNC 6e064 1c 0 _GLOBAL__sub_I__ZN12IRToolWidgetC2EP7QWidget
FUNC 6e080 34 0 QScopedPointer<IRToolWidgetPrivate, QScopedPointerDeleter<IRToolWidgetPrivate> >::QScopedPointer
FUNC 6e0b4 40 0 QScopedPointer<IRToolWidgetPrivate, QScopedPointerDeleter<IRToolWidgetPrivate> >::~QScopedPointer
FUNC 6e0f4 54 0 QScopedPointer<IRToolWidgetPrivate, QScopedPointerDeleter<IRToolWidgetPrivate> >::operator->
FUNC 6e148 34 0 QScopedPointerDeleter<IRToolWidgetPrivate>::cleanup
FUNC 6e17c e8 0 VersionWidget::VersionWidget
FUNC 6e264 b4 0 VersionWidget::~VersionWidget
FUNC 6e328 30 0 VersionWidget::~VersionWidget
FUNC 6e368 38 0 VersionWidget::showEvent
FUNC 6e3a0 c4 0 VersionWidget::resizeEvent
FUNC 6e464 20 0 VersionWidget::paintEvent
FUNC 6e484 f8 0 VersionWidget::ontWidgetTypeChange
FUNC 6e584 58 0 VersionWidgetPrivate::VersionWidgetPrivate
FUNC 6e5dc 24 0 VersionWidgetPrivate::~VersionWidgetPrivate
FUNC 6e600 cc 0 VersionWidgetPrivate::initialize
FUNC 6e6cc 6c 0 VersionWidgetPrivate::connectAllSlots
FUNC 6e738 b0 0 __static_initialization_and_destruction_0
FUNC 6e7e8 1c 0 _GLOBAL__sub_I__ZN13VersionWidgetC2EP7QWidget
FUNC 6e804 34 0 QScopedPointer<VersionWidgetPrivate, QScopedPointerDeleter<VersionWidgetPrivate> >::QScopedPointer
FUNC 6e838 40 0 QScopedPointer<VersionWidgetPrivate, QScopedPointerDeleter<VersionWidgetPrivate> >::~QScopedPointer
FUNC 6e878 54 0 QScopedPointer<VersionWidgetPrivate, QScopedPointerDeleter<VersionWidgetPrivate> >::operator->
FUNC 6e8cc 34 0 QScopedPointerDeleter<VersionWidgetPrivate>::cleanup
FUNC 6e900 c4 0 VersionListView::VersionListView
FUNC 6e9c4 84 0 VersionListView::~VersionListView
FUNC 6ea50 30 0 VersionListView::~VersionListView
FUNC 6ea88 a8 0 VersionListViewPrivate::VersionListViewPrivate
FUNC 6eb30 24 0 VersionListViewPrivate::~VersionListViewPrivate
FUNC 6eb54 5ac 0 VersionListViewPrivate::initialize
FUNC 6f100 44 0 VersionDelegate::VersionDelegate
FUNC 6f144 50 0 VersionDelegate::~VersionDelegate
FUNC 6f194 30 0 VersionDelegate::~VersionDelegate
FUNC 6f1c4 238 0 VersionDelegate::paint
FUNC 6f3fc b0 0 __static_initialization_and_destruction_0
FUNC 6f4ac 1c 0 _GLOBAL__sub_I__ZN15VersionListViewC2EP7QWidget
FUNC 6f4c8 34 0 QScopedPointer<VersionListViewPrivate, QScopedPointerDeleter<VersionListViewPrivate> >::QScopedPointer
FUNC 6f4fc 40 0 QScopedPointer<VersionListViewPrivate, QScopedPointerDeleter<VersionListViewPrivate> >::~QScopedPointer
FUNC 6f53c 34 0 QScopedPointerDeleter<VersionListViewPrivate>::cleanup
FUNC 6f570 60 0 HomeWidget::metaObject
FUNC 6f5d0 94 0 HomeWidget::qt_metacast
FUNC 6f664 bc 0 HomeWidget::qt_metacall
FUNC 6f720 b0 0 __static_initialization_and_destruction_0
FUNC 6f7d0 1c 0 _GLOBAL__sub_I__ZN10HomeWidget16staticMetaObjectE
FUNC 6f7ec 60 0 IdleWidget::metaObject
FUNC 6f84c 94 0 IdleWidget::qt_metacast
FUNC 6f8e0 a4 0 IdleWidget::qt_metacall
FUNC 6f984 60 0 CarplayLinkWidget::metaObject
FUNC 6f9e4 bc 0 CarplayLinkWidget::qt_metacast
FUNC 6faa0 f4 0 CarplayLinkWidget::qt_metacall
FUNC 6fb94 b0 0 __static_initialization_and_destruction_0
FUNC 6fc44 1c 0 _GLOBAL__sub_I__ZN17CarplayLinkWidget16staticMetaObjectE
FUNC 6fc60 60 0 MirrorLinkWidget::metaObject
FUNC 6fcc0 e4 0 MirrorLinkWidget::qt_metacast
FUNC 6fda4 224 0 MirrorLinkWidget::qt_metacall
FUNC 6ffc8 b0 0 __static_initialization_and_destruction_0
FUNC 70078 1c 0 _GLOBAL__sub_I__ZN16MirrorLinkWidget16staticMetaObjectE
FUNC 70094 60 0 LinkWidget::metaObject
FUNC 700f4 94 0 LinkWidget::qt_metacast
FUNC 70188 cc 0 LinkWidget::qt_metacall
FUNC 70254 b0 0 __static_initialization_and_destruction_0
FUNC 70304 1c 0 _GLOBAL__sub_I__ZN10LinkWidget16staticMetaObjectE
FUNC 70320 60 0 MessageBoxWidget::metaObject
FUNC 70380 6c 0 MessageBoxWidget::qt_metacast
FUNC 703ec 60 0 MessageBoxWidget::qt_metacall
FUNC 7044c 60 0 ImageStatusWidget::metaObject
FUNC 704ac bc 0 ImageStatusWidget::qt_metacast
FUNC 70568 138 0 ImageStatusWidget::qt_metacall
FUNC 706a0 b0 0 __static_initialization_and_destruction_0
FUNC 70750 1c 0 _GLOBAL__sub_I__ZN17ImageStatusWidget16staticMetaObjectE
FUNC 7076c 60 0 ImageToolBarWidget::metaObject
FUNC 707cc bc 0 ImageToolBarWidget::qt_metacast
FUNC 70888 108 0 ImageToolBarWidget::qt_metacall
FUNC 70990 b0 0 __static_initialization_and_destruction_0
FUNC 70a40 1c 0 _GLOBAL__sub_I__ZN18ImageToolBarWidget16staticMetaObjectE
FUNC 70a5c 60 0 ImageWidget::metaObject
FUNC 70abc bc 0 ImageWidget::qt_metacast
FUNC 70b78 174 0 ImageWidget::qt_metacall
FUNC 70cec b0 0 __static_initialization_and_destruction_0
FUNC 70d9c 1c 0 _GLOBAL__sub_I__ZN11ImageWidget16staticMetaObjectE
FUNC 70db8 60 0 MusicShortCutWidget::metaObject
FUNC 70e18 bc 0 MusicShortCutWidget::qt_metacast
FUNC 70ed4 f0 0 MusicShortCutWidget::qt_metacall
FUNC 70fc4 b0 0 __static_initialization_and_destruction_0
FUNC 71074 1c 0 _GLOBAL__sub_I__ZN19MusicShortCutWidget16staticMetaObjectE
FUNC 71090 60 0 MusicWidget::metaObject
FUNC 710f0 bc 0 MusicWidget::qt_metacast
FUNC 711ac e0 0 MusicWidget::qt_metacall
FUNC 7128c b0 0 __static_initialization_and_destruction_0
FUNC 7133c 1c 0 _GLOBAL__sub_I__ZN11MusicWidget16staticMetaObjectE
FUNC 71358 60 0 VideoStatusWidget::metaObject
FUNC 713b8 bc 0 VideoStatusWidget::qt_metacast
FUNC 71474 130 0 VideoStatusWidget::qt_metacall
FUNC 715a4 b0 0 __static_initialization_and_destruction_0
FUNC 71654 1c 0 _GLOBAL__sub_I__ZN17VideoStatusWidget16staticMetaObjectE
FUNC 71670 60 0 VideoToolBarWidget::metaObject
FUNC 716d0 bc 0 VideoToolBarWidget::qt_metacast
FUNC 7178c 1ac 0 VideoToolBarWidget::qt_metacall
FUNC 71938 b0 0 __static_initialization_and_destruction_0
FUNC 719e8 1c 0 _GLOBAL__sub_I__ZN18VideoToolBarWidget16staticMetaObjectE
FUNC 71a04 60 0 VideoWidget::metaObject
FUNC 71a64 bc 0 VideoWidget::qt_metacast
FUNC 71b20 140 0 VideoWidget::qt_metacall
FUNC 71c60 b0 0 __static_initialization_and_destruction_0
FUNC 71d10 1c 0 _GLOBAL__sub_I__ZN11VideoWidget16staticMetaObjectE
FUNC 71d2c 60 0 GeneralWidget::metaObject
FUNC 71d8c 94 0 GeneralWidget::qt_metacast
FUNC 71e20 e0 0 GeneralWidget::qt_metacall
FUNC 71f00 b0 0 __static_initialization_and_destruction_0
FUNC 71fb0 1c 0 _GLOBAL__sub_I__ZN13GeneralWidget16staticMetaObjectE
FUNC 71fcc 60 0 LanguageWidget::metaObject
FUNC 7202c bc 0 LanguageWidget::qt_metacast
FUNC 720e8 f0 0 LanguageWidget::qt_metacall
FUNC 721d8 b0 0 __static_initialization_and_destruction_0
FUNC 72288 1c 0 _GLOBAL__sub_I__ZN14LanguageWidget16staticMetaObjectE
FUNC 722a4 60 0 SettingWidget::metaObject
FUNC 72304 94 0 SettingWidget::qt_metacast
FUNC 72398 cc 0 SettingWidget::qt_metacall
FUNC 72464 b0 0 __static_initialization_and_destruction_0
FUNC 72514 1c 0 _GLOBAL__sub_I__ZN13SettingWidget16staticMetaObjectE
FUNC 72530 60 0 StatusBarWidget::metaObject
FUNC 72590 94 0 StatusBarWidget::qt_metacast
FUNC 72624 b4 0 StatusBarWidget::qt_metacall
FUNC 726d8 b0 0 __static_initialization_and_destruction_0
FUNC 72788 1c 0 _GLOBAL__sub_I__ZN15StatusBarWidget16staticMetaObjectE
FUNC 727a4 60 0 TabBarWidget::metaObject
FUNC 72804 94 0 TabBarWidget::qt_metacast
FUNC 72898 cc 0 TabBarWidget::qt_metacall
FUNC 72964 b0 0 __static_initialization_and_destruction_0
FUNC 72a14 1c 0 _GLOBAL__sub_I__ZN12TabBarWidget16staticMetaObjectE
FUNC 72a30 60 0 MainWidget::metaObject
FUNC 72a90 94 0 MainWidget::qt_metacast
FUNC 72b24 ec 0 MainWidget::qt_metacall
FUNC 72c10 b0 0 __static_initialization_and_destruction_0
FUNC 72cc0 1c 0 _GLOBAL__sub_I__ZN10MainWidget16staticMetaObjectE
FUNC 72cdc 60 0 USBDiskWidget::metaObject
FUNC 72d3c bc 0 USBDiskWidget::qt_metacast
FUNC 72df8 f4 0 USBDiskWidget::qt_metacall
FUNC 72eec b0 0 __static_initialization_and_destruction_0
FUNC 72f9c 1c 0 _GLOBAL__sub_I__ZN13USBDiskWidget16staticMetaObjectE
FUNC 72fb8 60 0 USBDiskMusicListViewWidget::metaObject
FUNC 73018 bc 0 USBDiskMusicListViewWidget::qt_metacast
FUNC 730d4 208 0 USBDiskMusicListViewWidget::qt_metacall
FUNC 732dc b0 0 __static_initialization_and_destruction_0
FUNC 7338c 1c 0 _GLOBAL__sub_I__ZN26USBDiskMusicListViewWidget16staticMetaObjectE
FUNC 733a8 60 0 USBDiskImageListViewWidget::metaObject
FUNC 73408 bc 0 USBDiskImageListViewWidget::qt_metacast
FUNC 734c4 21c 0 USBDiskImageListViewWidget::qt_metacall
FUNC 736e0 b0 0 __static_initialization_and_destruction_0
FUNC 73790 1c 0 _GLOBAL__sub_I__ZN26USBDiskImageListViewWidget16staticMetaObjectE
FUNC 737ac 60 0 USBDiskVideoListViewWidget::metaObject
FUNC 7380c bc 0 USBDiskVideoListViewWidget::qt_metacast
FUNC 738c8 210 0 USBDiskVideoListViewWidget::qt_metacall
FUNC 73ad8 b0 0 __static_initialization_and_destruction_0
FUNC 73b88 1c 0 _GLOBAL__sub_I__ZN26USBDiskVideoListViewWidget16staticMetaObjectE
FUNC 73ba4 60 0 USBDiskListViewWidget::metaObject
FUNC 73c04 bc 0 USBDiskListViewWidget::qt_metacast
FUNC 73cc0 b4 0 USBDiskListViewWidget::qt_metacall
FUNC 73d74 b0 0 __static_initialization_and_destruction_0
FUNC 73e24 1c 0 _GLOBAL__sub_I__ZN21USBDiskListViewWidget16staticMetaObjectE
FUNC 73e40 60 0 USBDiskToolWidget::metaObject
FUNC 73ea0 bc 0 USBDiskToolWidget::qt_metacast
FUNC 73f5c 104 0 USBDiskToolWidget::qt_metacall
FUNC 74060 b0 0 __static_initialization_and_destruction_0
FUNC 74110 1c 0 _GLOBAL__sub_I__ZN17USBDiskToolWidget16staticMetaObjectE
FUNC 7412c 60 0 AV1Widget::metaObject
FUNC 7418c bc 0 AV1Widget::qt_metacast
FUNC 74248 104 0 AV1Widget::qt_metacall
FUNC 7434c b0 0 __static_initialization_and_destruction_0
FUNC 743fc 1c 0 _GLOBAL__sub_I__ZN9AV1Widget16staticMetaObjectE
FUNC 74418 60 0 SDDiskWidget::metaObject
FUNC 74478 bc 0 SDDiskWidget::qt_metacast
FUNC 74534 f4 0 SDDiskWidget::qt_metacall
FUNC 74628 b0 0 __static_initialization_and_destruction_0
FUNC 746d8 1c 0 _GLOBAL__sub_I__ZN12SDDiskWidget16staticMetaObjectE
FUNC 746f4 60 0 AV2Widget::metaObject
FUNC 74754 bc 0 AV2Widget::qt_metacast
FUNC 74810 104 0 AV2Widget::qt_metacall
FUNC 74914 b0 0 __static_initialization_and_destruction_0
FUNC 749c4 1c 0 _GLOBAL__sub_I__ZN9AV2Widget16staticMetaObjectE
FUNC 749e0 60 0 DiskWidget::metaObject
FUNC 74a40 94 0 DiskWidget::qt_metacast
FUNC 74ad4 b4 0 DiskWidget::qt_metacall
FUNC 74b88 b0 0 __static_initialization_and_destruction_0
FUNC 74c38 1c 0 _GLOBAL__sub_I__ZN10DiskWidget16staticMetaObjectE
FUNC 74c54 60 0 AVWidget::metaObject
FUNC 74cb4 94 0 AVWidget::qt_metacast
FUNC 74d48 b4 0 AVWidget::qt_metacall
FUNC 74dfc b0 0 __static_initialization_and_destruction_0
FUNC 74eac 1c 0 _GLOBAL__sub_I__ZN8AVWidget16staticMetaObjectE
FUNC 74ec8 60 0 SDDiskImageListViewWidget::metaObject
FUNC 74f28 bc 0 SDDiskImageListViewWidget::qt_metacast
FUNC 74fe4 1e4 0 SDDiskImageListViewWidget::qt_metacall
FUNC 751c8 b0 0 __static_initialization_and_destruction_0
FUNC 75278 1c 0 _GLOBAL__sub_I__ZN25SDDiskImageListViewWidget16staticMetaObjectE
FUNC 75294 60 0 SDDiskMusicListViewWidget::metaObject
FUNC 752f4 bc 0 SDDiskMusicListViewWidget::qt_metacast
FUNC 753b0 208 0 SDDiskMusicListViewWidget::qt_metacall
FUNC 755b8 b0 0 __static_initialization_and_destruction_0
FUNC 75668 1c 0 _GLOBAL__sub_I__ZN25SDDiskMusicListViewWidget16staticMetaObjectE
FUNC 75684 60 0 SDDiskVideoListViewWidget::metaObject
FUNC 756e4 bc 0 SDDiskVideoListViewWidget::qt_metacast
FUNC 757a0 238 0 SDDiskVideoListViewWidget::qt_metacall
FUNC 759d8 b0 0 __static_initialization_and_destruction_0
FUNC 75a88 1c 0 _GLOBAL__sub_I__ZN25SDDiskVideoListViewWidget16staticMetaObjectE
FUNC 75aa4 60 0 SDDiskListViewWidget::metaObject
FUNC 75b04 bc 0 SDDiskListViewWidget::qt_metacast
FUNC 75bc0 b4 0 SDDiskListViewWidget::qt_metacall
FUNC 75c74 b0 0 __static_initialization_and_destruction_0
FUNC 75d24 1c 0 _GLOBAL__sub_I__ZN20SDDiskListViewWidget16staticMetaObjectE
FUNC 75d40 60 0 SDDiskToolWidget::metaObject
FUNC 75da0 bc 0 SDDiskToolWidget::qt_metacast
FUNC 75e5c 104 0 SDDiskToolWidget::qt_metacall
FUNC 75f60 b0 0 __static_initialization_and_destruction_0
FUNC 76010 1c 0 _GLOBAL__sub_I__ZN16SDDiskToolWidget16staticMetaObjectE
FUNC 7602c 60 0 PixmapWidget::metaObject
FUNC 7608c 6c 0 PixmapWidget::qt_metacast
FUNC 760f8 a8 0 PixmapWidget::qt_metacall
FUNC 761a0 34 0 PixmapWidget::stopTimer
FUNC 761d4 34 0 PixmapWidget::startTimer
FUNC 76208 60 0 ImageShortCutWidget::metaObject
FUNC 76268 94 0 ImageShortCutWidget::qt_metacast
FUNC 762fc ec 0 ImageShortCutWidget::qt_metacall
FUNC 763e8 60 0 VideoShortCutWidget::metaObject
FUNC 76448 94 0 VideoShortCutWidget::qt_metacast
FUNC 764dc bc 0 VideoShortCutWidget::qt_metacall
FUNC 76598 60 0 GeneralListView::metaObject
FUNC 765f8 bc 0 GeneralListView::qt_metacast
FUNC 766b4 170 0 GeneralListView::qt_metacall
FUNC 76824 60 0 GeneralSlider::metaObject
FUNC 76884 6c 0 GeneralSlider::qt_metacast
FUNC 768f0 cc 0 GeneralSlider::qt_metacall
FUNC 769bc 50 0 GeneralSlider::tickMarksMillesimalEnd
FUNC 76a0c 34 0 GeneralSlider::minusBtnRelease
FUNC 76a40 34 0 GeneralSlider::plusBtnRelease
FUNC 76a74 60 0 FMWidget::metaObject
FUNC 76ad4 6c 0 FMWidget::qt_metacast
FUNC 76b40 90 0 FMWidget::qt_metacall
FUNC 76bd0 60 0 FMToolWidget::metaObject
FUNC 76c30 94 0 FMToolWidget::qt_metacast
FUNC 76cc4 118 0 FMToolWidget::qt_metacall
FUNC 76ddc 60 0 CalibrateWidget::metaObject
FUNC 76e3c 6c 0 CalibrateWidget::qt_metacast
FUNC 76ea8 b8 0 CalibrateWidget::qt_metacall
FUNC 76f60 34 0 CalibrateWidget::startCalibrate
FUNC 76f94 50 0 CalibrateWidget::finishCalibrate
FUNC 76fe4 60 0 VolumeWidget::metaObject
FUNC 77044 94 0 VolumeWidget::qt_metacast
FUNC 770d8 d0 0 VolumeWidget::qt_metacall
FUNC 771a8 60 0 VolumeToolWidget::metaObject
FUNC 77208 94 0 VolumeToolWidget::qt_metacast
FUNC 7729c 104 0 VolumeToolWidget::qt_metacall
FUNC 773a0 60 0 VolumeSliderWidget::metaObject
FUNC 77400 6c 0 VolumeSliderWidget::qt_metacast
FUNC 7746c cc 0 VolumeSliderWidget::qt_metacall
FUNC 77538 34 0 VolumeSliderWidget::minusBtnRelease
FUNC 7756c 34 0 VolumeSliderWidget::plusBtnRelease
FUNC 775a0 50 0 VolumeSliderWidget::tickMarksMillesimalEnd
FUNC 775f0 60 0 MusicToolWidget::metaObject
FUNC 77650 94 0 MusicToolWidget::qt_metacast
FUNC 776e4 19c 0 MusicToolWidget::qt_metacall
FUNC 77880 b0 0 __static_initialization_and_destruction_0
FUNC 77930 1c 0 _GLOBAL__sub_I__ZN15MusicToolWidget16staticMetaObjectE
FUNC 7794c 60 0 MultimediaLoadingWidget::metaObject
FUNC 779ac 6c 0 MultimediaLoadingWidget::qt_metacast
FUNC 77a18 60 0 MultimediaLoadingWidget::qt_metacall
FUNC 77a78 60 0 MusicLoadingWidget::metaObject
FUNC 77ad8 bc 0 MusicLoadingWidget::qt_metacast
FUNC 77b94 e0 0 MusicLoadingWidget::qt_metacall
FUNC 77c74 b0 0 __static_initialization_and_destruction_0
FUNC 77d24 1c 0 _GLOBAL__sub_I__ZN18MusicLoadingWidget16staticMetaObjectE
FUNC 77d40 60 0 VideoLoadingWidget::metaObject
FUNC 77da0 94 0 VideoLoadingWidget::qt_metacast
FUNC 77e34 a4 0 VideoLoadingWidget::qt_metacall
FUNC 77ed8 60 0 CarplayShortCutWidget::metaObject
FUNC 77f38 94 0 CarplayShortCutWidget::qt_metacast
FUNC 77fcc d0 0 CarplayShortCutWidget::qt_metacall
FUNC 7809c 60 0 MirrorShortCutWidget::metaObject
FUNC 780fc 94 0 MirrorShortCutWidget::qt_metacast
FUNC 78190 d0 0 MirrorShortCutWidget::qt_metacall
FUNC 78260 60 0 ImageLoadingWidget::metaObject
FUNC 782c0 94 0 ImageLoadingWidget::qt_metacast
FUNC 78354 b4 0 ImageLoadingWidget::qt_metacall
FUNC 78408 60 0 MirrorToolWidget::metaObject
FUNC 78468 6c 0 MirrorToolWidget::qt_metacast
FUNC 784d4 bc 0 MirrorToolWidget::qt_metacall
FUNC 78590 50 0 MirrorToolWidget::toolBtnRelease
FUNC 785e0 60 0 MultimediaListView::metaObject
FUNC 78640 6c 0 MultimediaListView::qt_metacast
FUNC 786ac 60 0 MultimediaListView::qt_metacall
FUNC 7870c 60 0 MirrorMessageDialog::metaObject
FUNC 7876c 6c 0 MirrorMessageDialog::qt_metacast
FUNC 787d8 60 0 MirrorMessageDialog::qt_metacall
FUNC 78838 60 0 GeneralResetWidget::metaObject
FUNC 78898 6c 0 GeneralResetWidget::qt_metacast
FUNC 78904 90 0 GeneralResetWidget::qt_metacall
FUNC 78994 60 0 IRWidget::metaObject
FUNC 789f4 6c 0 IRWidget::qt_metacast
FUNC 78a60 90 0 IRWidget::qt_metacall
FUNC 78af0 60 0 IRToolWidget::metaObject
FUNC 78b50 94 0 IRToolWidget::qt_metacast
FUNC 78be4 118 0 IRToolWidget::qt_metacall
FUNC 78cfc 60 0 VersionWidget::metaObject
FUNC 78d5c 94 0 VersionWidget::qt_metacast
FUNC 78df0 b4 0 VersionWidget::qt_metacall
FUNC 78ea4 b0 0 __static_initialization_and_destruction_0
FUNC 78f54 1c 0 _GLOBAL__sub_I__ZN13VersionWidget16staticMetaObjectE
FUNC 78f70 60 0 VersionListView::metaObject
FUNC 78fd0 6c 0 VersionListView::qt_metacast
FUNC 7903c 60 0 VersionListView::qt_metacall
FUNC 7909c 34 0 qInitResources_Resources
FUNC 790d0 34 0 qCleanupResources_Resources
FUNC 79104 78 0 __static_initialization_and_destruction_0
FUNC 7917c 1c 0 _GLOBAL__sub_I__Z24qInitResources_Resourcesv
FUNC 79198 24 0 qCleanupResources_Resources__dest_class__::qCleanupResources_Resources__dest_class__
FUNC 791bc 24 0 qCleanupResources_Resources__dest_class__::~qCleanupResources_Resources__dest_class__
FUNC 791e0 64c 0 releaseSourceCallback
FUNC 7982c 2ec 0 Audio::requestAudioSource
FUNC 79b18 2f0 0 Audio::releaseAudioSource
FUNC 79e08 2d8 0 Audio::reqesetRest
FUNC 7a0e8 2d8 0 Audio::requestIncreaseVolume
FUNC 7a3c8 2d8 0 Audio::requestDecreaseVolume
FUNC 7a6a8 2d8 0 Audio::requsetIsOpenFM
FUNC 7a988 2e0 0 Audio::requestOpenFM
FUNC 7ac70 2d8 0 Audio::requestFMToggle
FUNC 7af50 2d8 0 Audio::requestIRToggle
FUNC 7b230 2e0 0 Audio::requestIRMode
FUNC 7b518 2e0 0 Audio::requestSetVolume
FUNC 7b800 2e0 0 Audio::requestSetFreqency
FUNC 7bae8 bc 0 Audio::onServiceRegistered
FUNC 7bbac 104 0 Audio::onServiceUnregistered
FUNC 7bcb8 22c 0 Audio::Audio
FUNC 7bee4 f0 0 Audio::~Audio
FUNC 7bfe4 30 0 Audio::~Audio
FUNC 7c024 80 0 Audio::initializePrivate
FUNC 7c0a4 1c 0 test
FUNC 7c0c0 4c 0 AudioPrivate::AudioPrivate
FUNC 7c10c 34 0 AudioPrivate::~AudioPrivate
FUNC 7c140 110 0 AudioPrivate::initialize
FUNC 7c250 7c 0 AudioPrivate::connectAllSlots
FUNC 7c2cc 24 0 Audio::Interface::onVolumeChange
FUNC 7c2f0 24 0 Audio::Interface::onVolumeRangeChange
FUNC 7c314 20 0 Audio::Interface::onFMChange
FUNC 7c334 20 0 Audio::Interface::onFMIsOpen
FUNC 7c354 20 0 Audio::Interface::onIRIsOpen
FUNC 7c374 20 0 Audio::Interface::onIRChange
FUNC 7c394 34 0 QLatin1String::QLatin1String
FUNC 7c3c8 28 0 QLatin1String::latin1
FUNC 7c3f0 48 0 QString::QString
FUNC 7c438 48 0 AudioService::Interface::Interface
FUNC 7c480 58 0 AudioService::Interface::~Interface
FUNC 7c4d8 30 0 AudioService::Interface::~Interface
FUNC 7c508 48 0 DbusService::Interface::Interface
FUNC 7c550 58 0 DbusService::Interface::~Interface
FUNC 7c5a8 30 0 DbusService::Interface::~Interface
FUNC 7c5d8 1c 0 QMetaTypeId2<int>::qt_metatype_id
FUNC 7c5f4 1c 0 QMetaTypeId2<bool>::qt_metatype_id
FUNC 7c610 80 0 QMetaTypeId<QDBusArgument>::qt_metatype_id
FUNC 7c690 1c 0 QDBusPendingReplyTypes::ForEach<void, void, void, void, void, void, void, void>::fillMetaTypes
FUNC 7c6ac 58 0 QDBusError::~QDBusError
FUNC 7c704 34 0 QDBusReply<void>::QDBusReply
FUNC 7c738 34 0 QDBusReply<void>::isValid
FUNC 7c76c 2c 0 QDBusPendingReply<void, void, void, void, void, void, void, void>::~QDBusPendingReply
FUNC 7c798 128 0 LocalDbusServerAudioManagerInterface::releaseAudioSource
FUNC 7c8c0 e0 0 LocalDbusServerAudioManagerInterface::reqesetRest
FUNC 7c9a0 2c 0 QDBusPendingReply<bool, void, void, void, void, void, void, void>::~QDBusPendingReply
FUNC 7c9cc 128 0 LocalDbusServerAudioManagerInterface::requestAudioSource
FUNC 7caf4 e0 0 LocalDbusServerAudioManagerInterface::requestDecreaseVolume
FUNC 7cbd4 e0 0 LocalDbusServerAudioManagerInterface::requestFMToggle
FUNC 7ccb4 128 0 LocalDbusServerAudioManagerInterface::requestIRMode
FUNC 7cddc e0 0 LocalDbusServerAudioManagerInterface::requestIRToggle
FUNC 7cebc e0 0 LocalDbusServerAudioManagerInterface::requestIncreaseVolume
FUNC 7cf9c 128 0 LocalDbusServerAudioManagerInterface::requestOpenFM
FUNC 7d0c4 128 0 LocalDbusServerAudioManagerInterface::requestSetFreqency
FUNC 7d1ec 128 0 LocalDbusServerAudioManagerInterface::requestSetVolume
FUNC 7d314 e0 0 LocalDbusServerAudioManagerInterface::requsetIsOpenFM
FUNC 7d3f4 2c 0 QDBusReply<void>::~QDBusReply
FUNC 7d420 7c 0 QList<QVariant>::~QList
FUNC 7d49c 50 0 QList<QVariant>::QList
FUNC 7d4ec 30 0 QList<QVariant>::operator<<
FUNC 7d51c a0 0 qRegisterMetaType<QDBusArgument>
FUNC 7d5bc 40 0 qVariantFromValue<int>
FUNC 7d5fc 50 0 QDBusPendingReply<void, void, void, void, void, void, void, void>::QDBusPendingReply
FUNC 7d64c 50 0 QDBusPendingReply<bool, void, void, void, void, void, void, void>::QDBusPendingReply
FUNC 7d69c 64 0 QScopedPointer<AudioPrivate, QScopedPointerDeleter<AudioPrivate> >::operator->
FUNC 7d700 28 0 QDBusPendingReply<bool, void, void, void, void, void, void, void>::value
FUNC 7d728 34 0 QScopedPointer<AudioPrivate, QScopedPointerDeleter<AudioPrivate> >::QScopedPointer
FUNC 7d75c 40 0 QScopedPointer<AudioPrivate, QScopedPointerDeleter<AudioPrivate> >::~QScopedPointer
FUNC 7d79c 3c 0 QScopedPointer<AudioPrivate, QScopedPointerDeleter<AudioPrivate> >::operator QScopedPointer<AudioPrivate>::RestrictedBool
FUNC 7d7d8 54 0 QScopedPointer<AudioPrivate, QScopedPointerDeleter<AudioPrivate> >::reset
FUNC 7d82c 88 0 QList<QVariant>::free
FUNC 7d8b4 8c 0 QList<QVariant>::append
FUNC 7d940 24 0 qMetaTypeId<QDBusArgument>
FUNC 7d964 100 0 qvariant_cast<QDBusArgument>
FUNC 7da64 18 0 QtPrivate::QMetaTypeIdHelper<QDBusArgument, true>::qt_metatype_id
FUNC 7da7c 78 0 qMetaTypeConstructHelper<QDBusArgument>
FUNC 7daf4 34 0 qMetaTypeDeleteHelper<QDBusArgument>
FUNC 7db28 24 0 qMetaTypeId<int>
FUNC 7db4c 30 0 QDBusPendingReply<void, void, void, void, void, void, void, void>::operator=
FUNC 7db7c 30 0 QDBusPendingReply<bool, void, void, void, void, void, void, void>::operator=
FUNC 7dbac c4 0 QDBusPendingReply<bool, void, void, void, void, void, void, void>::argumentAt<0>
FUNC 7dc70 34 0 QScopedPointerDeleter<AudioPrivate>::cleanup
FUNC 7dca4 38 0 QScopedPointer<AudioPrivate, QScopedPointerDeleter<AudioPrivate> >::isNull
FUNC 7dcdc 60 0 QList<QVariant>::node_destruct
FUNC 7dd3c 134 0 QList<QVariant>::detach_helper_grow
FUNC 7de70 50 0 QList<QVariant>::node_construct
FUNC 7dec0 18 0 QMetaTypeId2<QDBusArgument>::qt_metatype_id
FUNC 7ded8 34 0 QDBusPendingReply<void, void, void, void, void, void, void, void>::assign
FUNC 7df0c 34 0 QDBusPendingReply<bool, void, void, void, void, void, void, void>::assign
FUNC 7df40 24 0 QDBusPendingReply<bool, void, void, void, void, void, void, void>::count
FUNC 7df64 b8 0 qdbus_cast<bool>
FUNC 7e01c 90 0 QList<QVariant>::node_copy
FUNC 7e0ac 54 0 QDBusPendingReply<void, void, void, void, void, void, void, void>::calculateMetaTypes
FUNC 7e100 54 0 QDBusPendingReply<bool, void, void, void, void, void, void, void>::calculateMetaTypes
FUNC 7e154 34 0 qdbus_cast<bool>
FUNC 7e188 a4 0 qvariant_cast<bool>
FUNC 7e22c 38 0 QExplicitlySharedDataPointer<QDBusPendingCallPrivate>::operator!
FUNC 7e264 40 0 QDBusPendingReplyTypes::ForEach<bool, void, void, void, void, void, void, void>::fillMetaTypes
FUNC 7e2a4 24 0 qMetaTypeId<bool>
FUNC 7e2c8 28 0 QDBusPendingReplyTypes::metaTypeFor<bool>
FUNC 7e2f0 d8 0 releaseAV1Source
FUNC 7e3c8 d8 0 releaseAV2Source
FUNC 7e4a0 54 0 AV::startAV
FUNC 7e4f4 a8 0 AV::stopAV
FUNC 7e59c 1dc 0 AV::onAVStatusHandler
FUNC 7e778 120 0 AV::AV
FUNC 7e898 128 0 AV::~AV
FUNC 7e9c0 30 0 AV::~AV
FUNC 7e9f0 80 0 AV::initializePrivate
FUNC 7ea70 4c 0 AVPrivate::AVPrivate
FUNC 7eabc 24 0 AVPrivate::~AVPrivate
FUNC 7eae0 1c 0 AVPrivate::initialize
FUNC 7eafc cc 0 AVPrivate::connectAllSlots
FUNC 7ebc8 23c 0 AVPrivate::requestAudioSource
FUNC 7ee04 17c 0 AVPrivate::releaseAudioSource
FUNC 7ef80 12c 0 AVPrivate::avExit
FUNC 7f0ac 24 0 AV::Interface::onAVStatus
FUNC 7f0d0 64 0 QScopedPointer<AVPrivate, QScopedPointerDeleter<AVPrivate> >::operator->
FUNC 7f134 34 0 QScopedPointer<AVPrivate, QScopedPointerDeleter<AVPrivate> >::QScopedPointer
FUNC 7f168 40 0 QScopedPointer<AVPrivate, QScopedPointerDeleter<AVPrivate> >::~QScopedPointer
FUNC 7f1a8 3c 0 QScopedPointer<AVPrivate, QScopedPointerDeleter<AVPrivate> >::operator QScopedPointer<AVPrivate>::RestrictedBool
FUNC 7f1e4 54 0 QScopedPointer<AVPrivate, QScopedPointerDeleter<AVPrivate> >::reset
FUNC 7f238 34 0 QScopedPointerDeleter<AVPrivate>::cleanup
FUNC 7f26c 38 0 QScopedPointer<AVPrivate, QScopedPointerDeleter<AVPrivate> >::isNull
FUNC 7f2a4 d8 0 releaseMirrorSource
FUNC 7f37c d8 0 releaseCarplaySource
FUNC 7f454 574 0 requestSourceCallback
FUNC 7f9c8 64c 0 releaseSourceCallback
FUNC 80014 1e4 0 Link::requestLinkStatus
FUNC 801f8 584 0 Link::requestTouchStatus
FUNC 8077c 2f0 0 Link::requestKeyValue
FUNC 80a6c bc 0 Link::onServiceRegistered
FUNC 80b30 298 0 Link::onServiceUnregistered
FUNC 80dd0 e8 0 Link::linkStatusChange
FUNC 80eb8 164 0 Link::Link
FUNC 8101c bc 0 Link::~Link
FUNC 810e0 30 0 Link::~Link
FUNC 81118 80 0 Link::initializePrivate
FUNC 81198 64 0 LinkPrivate::LinkPrivate
FUNC 811fc 24 0 LinkPrivate::~LinkPrivate
FUNC 81220 204 0 LinkPrivate::initialize
FUNC 81424 1ec 0 LinkPrivate::connectAllSlots
FUNC 81610 3c4 0 LinkPrivate::linkExit
FUNC 819d4 e8 0 LinkPrivate::requestMirrorHandler
FUNC 81abc 48 0 LinkPrivate::requestCarplayHandler
FUNC 81b04 5ac 0 mirrorStarting
FUNC 820b0 2e0 0 LinkPrivate::mirrorSourceHandler
FUNC 82390 38 0 carplayStarting
FUNC 823c8 32c 0 LinkPrivate::carplaySourceHandler
FUNC 826f4 24 0 Link::Interface::onLinkStatusChange
FUNC 82718 148 0 __static_initialization_and_destruction_0
FUNC 82860 1c 0 _GLOBAL__sub_I_Link.cpp
FUNC 8287c 1c 0 QMetaTypeId2<QString>::qt_metatype_id
FUNC 82898 128 0 LocalDbusServerMirrorInterface::requestKeyValue
FUNC 829c0 170 0 LocalDbusServerMirrorInterface::requestLinkStatus
FUNC 82b30 1b0 0 LocalDbusServerMirrorInterface::requestTouchStatus
FUNC 82ce0 170 0 LocalDbusServerCarplayInterface::requestLinkStatus
FUNC 82e50 1b0 0 LocalDbusServerCarplayInterface::requestTouchStatus
FUNC 83000 40 0 qVariantFromValue<QString>
FUNC 83040 64 0 QScopedPointer<LinkPrivate, QScopedPointerDeleter<LinkPrivate> >::operator->
FUNC 830a4 34 0 QScopedPointer<LinkPrivate, QScopedPointerDeleter<LinkPrivate> >::QScopedPointer
FUNC 830d8 40 0 QScopedPointer<LinkPrivate, QScopedPointerDeleter<LinkPrivate> >::~QScopedPointer
FUNC 83118 3c 0 QScopedPointer<LinkPrivate, QScopedPointerDeleter<LinkPrivate> >::operator QScopedPointer<LinkPrivate>::RestrictedBool
FUNC 83154 54 0 QScopedPointer<LinkPrivate, QScopedPointerDeleter<LinkPrivate> >::reset
FUNC 831a8 24 0 qMetaTypeId<QString>
FUNC 831cc 34 0 QScopedPointerDeleter<LinkPrivate>::cleanup
FUNC 83200 38 0 QScopedPointer<LinkPrivate, QScopedPointerDeleter<LinkPrivate> >::isNull
FUNC 83238 7c 0 LocalDbusServerMirrorInterface::LocalDbusServerMirrorInterface
FUNC 832b4 64 0 LocalDbusServerMirrorInterface::~LocalDbusServerMirrorInterface
FUNC 83318 30 0 LocalDbusServerMirrorInterface::~LocalDbusServerMirrorInterface
FUNC 83348 24 0 LocalDbusServerMirrorInterface::staticInterfaceName
FUNC 8336c d8 0 releaseMusicSource
FUNC 83444 d8 0 releaseIdleSource
FUNC 8351c d8 0 releaseVideoSource
FUNC 835f4 d8 0 Multimedia::reset
FUNC 836d4 e4 0 Multimedia::deviceWatcherCheckStatus
FUNC 837c0 2d0 0 Multimedia::musicPlayerRequestFileNames
FUNC 83a98 2d0 0 Multimedia::musicPlayerSetPlayModeToggle
FUNC 83d70 2dc 0 Multimedia::musicPlayerSetPlayMode
FUNC 84054 2d0 0 Multimedia::musicPlayerSetPlayStatusToggle
FUNC 8432c 2dc 0 Multimedia::musicPlayerSetPlayStatus
FUNC 84610 318 0 Multimedia::musicPlayerPlayListViewIndex
FUNC 84930 2d0 0 Multimedia::musicPlayerPlayPreviousListViewIndex
FUNC 84c08 2d0 0 Multimedia::musicPlayerPlayNextListViewIndex
FUNC 84ee0 2dc 0 Multimedia::musicPlayerSeekToMillesimal
FUNC 851c4 35c 0 Multimedia::musicPlayerExit
FUNC 85528 2e0 0 Multimedia::imagePlayerRequestFileNames
FUNC 85810 310 0 Multimedia::imagePlayerPlayListViewIndex
FUNC 85b28 2d4 0 Multimedia::imagePlayerPlayPreviousListViewIndex
FUNC 85e04 2d8 0 Multimedia::imagePlayerPlayNextListViewIndex
FUNC 860e4 2d4 0 Multimedia::imagePlayerRotateImage
FUNC 863c0 2d8 0 Multimedia::imagePlayerZoomInImage
FUNC 866a0 2d4 0 Multimedia::imagePlayerZoomOutImage
FUNC 8697c 2d8 0 Multimedia::imagePlayerSetPlayStatusToggle
FUNC 86c5c 2e0 0 Multimedia::imagePlayerSetPlayStatus
FUNC 86f44 364 0 Multimedia::imagePlayerExit
FUNC 872b0 2e4 0 Multimedia::videoPlayerRequestFileNames
FUNC 8759c 2d4 0 Multimedia::videoPlayerSetPlayStatusToggle
FUNC 87878 2e4 0 Multimedia::videoPlayerSetShowStatus
FUNC 87b64 2e0 0 Multimedia::videoPlayerSetPlayStatus
FUNC 87e4c 35c 0 Multimedia::videoPlayerPlayListViewIndex
FUNC 881b0 2d8 0 Multimedia::videoPlayerPlayPreviousListViewIndex
FUNC 88490 2d4 0 Multimedia::videoPlayerPlayNextListViewIndex
FUNC 8876c 2e4 0 Multimedia::videoPlayerSeekToMillesimal
FUNC 88a58 368 0 Multimedia::videoPlayerExit
FUNC 88dc0 c0 0 Multimedia::onServiceRegistered
FUNC 88e88 1f0 0 Multimedia::onServiceUnregistered
FUNC 89080 1a4 0 Multimedia::onMusicPlayerPlayStatusHandler
FUNC 89224 1a8 0 Multimedia::onImagePlayerPlayStatusHandler
FUNC 893cc 1a4 0 Multimedia::onVideoPlayerPlayStatusHandler
FUNC 89570 1a0 0 Multimedia::Multimedia
FUNC 89710 f0 0 Multimedia::~Multimedia
FUNC 89810 30 0 Multimedia::~Multimedia
FUNC 89850 80 0 Multimedia::initializePrivate
FUNC 898d0 64 0 MultimediaPrivate::MultimediaPrivate
FUNC 89934 c0 0 MultimediaPrivate::~MultimediaPrivate
FUNC 899f4 1c0 0 MultimediaPrivate::initializeProxy
FUNC 89bb4 234 0 MultimediaPrivate::requestAudioSource
FUNC 89de8 d4 0 MultimediaPrivate::releaseAudioSource
FUNC 89ebc 140 0 MultimediaPrivate::multimediaExit
FUNC 89ffc 2fc 0 MultimediaPrivate::connectAllSlots
FUNC 8a2f8 24 0 Multimedia::Interface::onDeviceWatcherStatus
FUNC 8a31c 20 0 Multimedia::Interface::onMusicPlayerPlayMode
FUNC 8a33c 20 0 Multimedia::Interface::onMusicPlayerPlayStatus
FUNC 8a35c 24 0 Multimedia::Interface::onMusicPlayerElapsedInformation
FUNC 8a380 28 0 Multimedia::Interface::onMusicPlayerID3TagChange
FUNC 8a3a8 24 0 Multimedia::Interface::onMusicPlayerFileNames
FUNC 8a3cc 24 0 Multimedia::Interface::onImagePlayerFileNames
FUNC 8a3f0 20 0 Multimedia::Interface::onImagePlayerPlayStatus
FUNC 8a410 28 0 Multimedia::Interface::onImagePlayerChange
FUNC 8a438 20 0 Multimedia::Interface::onVideoPlayerShowStatus
FUNC 8a458 20 0 Multimedia::Interface::onVideoPlayerPlayStatus
FUNC 8a478 24 0 Multimedia::Interface::onVideoPlayerFileNames
FUNC 8a49c 28 0 Multimedia::Interface::onVideoPlayerInformation
FUNC 8a4c4 24 0 Multimedia::Interface::onVideoPlayerElapsedInformation
FUNC 8a4e8 148 0 __static_initialization_and_destruction_0
FUNC 8a630 1c 0 _GLOBAL__sub_I_Multimedia.cpp
FUNC 8a64c 128 0 LocalDbusServerMultimediaInterface::deviceWatcherCheckStatus
FUNC 8a774 e0 0 LocalDbusServerMultimediaInterface::imagePlayerExit
FUNC 8a854 170 0 LocalDbusServerMultimediaInterface::imagePlayerPlayListViewIndex
FUNC 8a9c4 e0 0 LocalDbusServerMultimediaInterface::imagePlayerPlayNextListViewIndex
FUNC 8aaa4 e0 0 LocalDbusServerMultimediaInterface::imagePlayerPlayPreviousListViewIndex
FUNC 8ab84 128 0 LocalDbusServerMultimediaInterface::imagePlayerRequestFileNames
FUNC 8acac e0 0 LocalDbusServerMultimediaInterface::imagePlayerRotateImage
FUNC 8ad8c 128 0 LocalDbusServerMultimediaInterface::imagePlayerSetPlayStatus
FUNC 8aeb4 e0 0 LocalDbusServerMultimediaInterface::imagePlayerSetPlayStatusToggle
FUNC 8af94 e0 0 LocalDbusServerMultimediaInterface::imagePlayerZoomInImage
FUNC 8b074 e0 0 LocalDbusServerMultimediaInterface::imagePlayerZoomOutImage
FUNC 8b154 e0 0 LocalDbusServerMultimediaInterface::musicPlayerExit
FUNC 8b234 1b4 0 LocalDbusServerMultimediaInterface::musicPlayerPlayListViewIndex
FUNC 8b3e8 e0 0 LocalDbusServerMultimediaInterface::musicPlayerPlayNextListViewIndex
FUNC 8b4c8 e0 0 LocalDbusServerMultimediaInterface::musicPlayerPlayPreviousListViewIndex
FUNC 8b5a8 e0 0 LocalDbusServerMultimediaInterface::musicPlayerRequestFileNames
FUNC 8b688 128 0 LocalDbusServerMultimediaInterface::musicPlayerSeekToMillesimal
FUNC 8b7b0 128 0 LocalDbusServerMultimediaInterface::musicPlayerSetPlayMode
FUNC 8b8d8 e0 0 LocalDbusServerMultimediaInterface::musicPlayerSetPlayModeToggle
FUNC 8b9b8 128 0 LocalDbusServerMultimediaInterface::musicPlayerSetPlayStatus
FUNC 8bae0 e0 0 LocalDbusServerMultimediaInterface::musicPlayerSetPlayStatusToggle
FUNC 8bbc0 e0 0 LocalDbusServerMultimediaInterface::reset
FUNC 8bca0 e0 0 LocalDbusServerMultimediaInterface::videoPlayerExit
FUNC 8bd80 2c4 0 LocalDbusServerMultimediaInterface::videoPlayerPlayListViewIndex
FUNC 8c044 e0 0 LocalDbusServerMultimediaInterface::videoPlayerPlayNextListViewIndex
FUNC 8c124 e0 0 LocalDbusServerMultimediaInterface::videoPlayerPlayPreviousListViewIndex
FUNC 8c204 128 0 LocalDbusServerMultimediaInterface::videoPlayerRequestFileNames
FUNC 8c32c 128 0 LocalDbusServerMultimediaInterface::videoPlayerSeekToMillesimal
FUNC 8c454 128 0 LocalDbusServerMultimediaInterface::videoPlayerSetPlayStatus
FUNC 8c57c e0 0 LocalDbusServerMultimediaInterface::videoPlayerSetPlayStatusToggle
FUNC 8c65c 128 0 LocalDbusServerMultimediaInterface::videoPlayerSetShowStatus
FUNC 8c784 48 0 MultimediaService::Interface::Interface
FUNC 8c7cc 58 0 MultimediaService::Interface::~Interface
FUNC 8c824 30 0 MultimediaService::Interface::~Interface
FUNC 8c854 64 0 QScopedPointer<MultimediaPrivate, QScopedPointerDeleter<MultimediaPrivate> >::operator->
FUNC 8c8b8 34 0 QScopedPointer<MultimediaPrivate, QScopedPointerDeleter<MultimediaPrivate> >::QScopedPointer
FUNC 8c8ec 40 0 QScopedPointer<MultimediaPrivate, QScopedPointerDeleter<MultimediaPrivate> >::~QScopedPointer
FUNC 8c92c 3c 0 QScopedPointer<MultimediaPrivate, QScopedPointerDeleter<MultimediaPrivate> >::operator QScopedPointer<MultimediaPrivate>::RestrictedBool
FUNC 8c968 54 0 QScopedPointer<MultimediaPrivate, QScopedPointerDeleter<MultimediaPrivate> >::reset
FUNC 8c9bc 2c 0 QList<QString>::size
FUNC 8c9e8 34 0 QScopedPointerDeleter<MultimediaPrivate>::cleanup
FUNC 8ca1c 38 0 QScopedPointer<MultimediaPrivate, QScopedPointerDeleter<MultimediaPrivate> >::isNull
FUNC 8ca54 2d0 0 Setting::reset
FUNC 8cd2c 2dc 0 Setting::setLanguage
FUNC 8d010 2e8 0 Setting::setBrightness
FUNC 8d300 2e8 0 Setting::setContrast
FUNC 8d5f0 2e8 0 Setting::setSaturation
FUNC 8d8e0 2dc 0 Setting::setDisplayScreen
FUNC 8dbc4 2d0 0 Setting::startCalibrate
FUNC 8de9c 2f8 0 Setting::startAV
FUNC 8e19c 2dc 0 Setting::stopAV
FUNC 8e480 dc 0 Setting::onLanguageChange
FUNC 8e564 bc 0 Setting::onServiceRegistered
FUNC 8e628 164 0 Setting::onServiceUnregistered
FUNC 8e794 198 0 Setting::Setting
FUNC 8e92c f0 0 Setting::~Setting
FUNC 8ea2c 30 0 Setting::~Setting
FUNC 8ea6c 80 0 Setting::initializePrivate
FUNC 8eaec 58 0 SettingPrivate::SettingPrivate
FUNC 8eb44 c4 0 SettingPrivate::~SettingPrivate
FUNC 8ec08 1c0 0 SettingPrivate::initialize
FUNC 8edc8 208 0 SettingPrivate::connectAllSlots
FUNC 8efd0 460 0 SettingPrivate::onLanguageChange
FUNC 8f430 20 0 Setting::Interface::onLanguageTranslateChange
FUNC 8f450 20 0 Setting::Interface::onBrightnessChange
FUNC 8f470 20 0 Setting::Interface::onContrastChange
FUNC 8f490 20 0 Setting::Interface::onSaturationChange
FUNC 8f4b0 20 0 Setting::Interface::onDisplayScreenChange
FUNC 8f4d0 148 0 __static_initialization_and_destruction_0
FUNC 8f618 1c 0 _GLOBAL__sub_I_Setting.cpp
FUNC 8f634 e0 0 LocalDbusServerSettingInterface::reset
FUNC 8f714 170 0 LocalDbusServerSettingInterface::setBrightness
FUNC 8f884 170 0 LocalDbusServerSettingInterface::setContrast
FUNC 8f9f4 128 0 LocalDbusServerSettingInterface::setDisplayScreen
FUNC 8fb1c 128 0 LocalDbusServerSettingInterface::setLanguage
FUNC 8fc44 170 0 LocalDbusServerSettingInterface::setSaturation
FUNC 8fdb4 1b4 0 LocalDbusServerSettingInterface::startAV
FUNC 8ff68 e0 0 LocalDbusServerSettingInterface::startCalibrate
FUNC 90048 128 0 LocalDbusServerSettingInterface::stopAV
FUNC 90170 48 0 SettingService::Interface::Interface
FUNC 901b8 58 0 SettingService::Interface::~Interface
FUNC 90210 30 0 SettingService::Interface::~Interface
FUNC 90240 64 0 QScopedPointer<SettingPrivate, QScopedPointerDeleter<SettingPrivate> >::operator->
FUNC 902a4 34 0 QScopedPointer<SettingPrivate, QScopedPointerDeleter<SettingPrivate> >::QScopedPointer
FUNC 902d8 40 0 QScopedPointer<SettingPrivate, QScopedPointerDeleter<SettingPrivate> >::~QScopedPointer
FUNC 90318 3c 0 QScopedPointer<SettingPrivate, QScopedPointerDeleter<SettingPrivate> >::operator QScopedPointer<SettingPrivate>::RestrictedBool
FUNC 90354 54 0 QScopedPointer<SettingPrivate, QScopedPointerDeleter<SettingPrivate> >::reset
FUNC 903a8 34 0 QScopedPointerDeleter<SettingPrivate>::cleanup
FUNC 903dc 38 0 QScopedPointer<SettingPrivate, QScopedPointerDeleter<SettingPrivate> >::isNull
FUNC 90414 1a0 0 Widget::geometryFit
FUNC 905b4 3c 0 Widget::baseWindowWidth
FUNC 905f0 3c 0 Widget::baseWindowHeight
FUNC 9062c 3c 0 Widget::baseStatusBarHeight
FUNC 90668 3c 0 Widget::baseTabBarHeight
FUNC 906a4 3c 0 Widget::widthScalabilityFactor
FUNC 906e0 3c 0 Widget::heightScalabilityFactor
FUNC 9071c a0 0 Widget::setWidgetType
FUNC 907bc 80 0 Widget::Widget
FUNC 9083c 10c 0 Widget::~Widget
FUNC 90948 30 0 Widget::~Widget
FUNC 90978 80 0 Widget::initializePrivate
FUNC 909f8 8c 0 WidgetPrivate::WidgetPrivate
FUNC 90a84 24 0 WidgetPrivate::~WidgetPrivate
FUNC 90aa8 350 0 WidgetPrivate::initialize
FUNC 90df8 24 0 Widget::Interface::ontWidgetTypeChange
FUNC 90e1c 148 0 __static_initialization_and_destruction_0
FUNC 90f64 1c 0 _GLOBAL__sub_I_Widget.cpp
FUNC 90f80 40 0 QDebug::operator<<
FUNC 90fc0 44 0 QWidget::move
FUNC 91004 64 0 QScopedPointer<WidgetPrivate, QScopedPointerDeleter<WidgetPrivate> >::operator->
FUNC 91068 34 0 QScopedPointer<WidgetPrivate, QScopedPointerDeleter<WidgetPrivate> >::QScopedPointer
FUNC 9109c 40 0 QScopedPointer<WidgetPrivate, QScopedPointerDeleter<WidgetPrivate> >::~QScopedPointer
FUNC 910dc 3c 0 QScopedPointer<WidgetPrivate, QScopedPointerDeleter<WidgetPrivate> >::operator QScopedPointer<WidgetPrivate>::RestrictedBool
FUNC 91118 54 0 QScopedPointer<WidgetPrivate, QScopedPointerDeleter<WidgetPrivate> >::reset
FUNC 9116c 34 0 QScopedPointerDeleter<WidgetPrivate>::cleanup
FUNC 911a0 38 0 QScopedPointer<WidgetPrivate, QScopedPointerDeleter<WidgetPrivate> >::isNull
FUNC 911d8 2d8 0 BT::synchronize
FUNC 914b8 20 0 BT::requestRest
FUNC 914e0 24 0 BT::requestConnectBT
FUNC 9150c 20 0 BT::requestBTStatus
FUNC 91534 24 0 BT::requestBTName
FUNC 91560 24 0 BT::requsetBTPairCode
FUNC 9158c 20 0 BT::requestBTToggle
FUNC 915b4 a8 0 BT::requestPairPhoneName
FUNC 91664 bc 0 BT::onServiceRegistered
FUNC 91728 bc 0 BT::onServiceUnregistered
FUNC 917ec 530 0 bluetoothStarting
FUNC 91d1c 288 0 BT::BT
FUNC 91fa4 190 0 BT::~BT
FUNC 92144 30 0 BT::~BT
FUNC 92184 10c 0 BT::initializePrivate
FUNC 92290 4c 0 BTPrivate::BTPrivate
FUNC 922dc 24 0 BTPrivate::~BTPrivate
FUNC 92300 110 0 BTPrivate::initialize
FUNC 92410 7c 0 BTPrivate::connectAllSlots
FUNC 9248c 20 0 BT::Interface::onBTStatus
FUNC 924ac 20 0 BT::Interface::onBTPairCode
FUNC 924cc 20 0 BT::Interface::onBTName
FUNC 924ec 48 0 BTService::Interface::Interface
FUNC 92534 58 0 BTService::Interface::~Interface
FUNC 9258c 30 0 BTService::Interface::~Interface
FUNC 925bc e0 0 LocalDbusServerBluetoothInterface::synchronize
FUNC 9269c 64 0 QScopedPointer<BTPrivate, QScopedPointerDeleter<BTPrivate> >::operator->
FUNC 92700 34 0 QScopedPointer<BTPrivate, QScopedPointerDeleter<BTPrivate> >::QScopedPointer
FUNC 92734 40 0 QScopedPointer<BTPrivate, QScopedPointerDeleter<BTPrivate> >::~QScopedPointer
FUNC 92774 3c 0 QScopedPointer<BTPrivate, QScopedPointerDeleter<BTPrivate> >::operator QScopedPointer<BTPrivate>::RestrictedBool
FUNC 927b0 54 0 QScopedPointer<BTPrivate, QScopedPointerDeleter<BTPrivate> >::reset
FUNC 92804 34 0 QScopedPointerDeleter<BTPrivate>::cleanup
FUNC 92838 38 0 QScopedPointer<BTPrivate, QScopedPointerDeleter<BTPrivate> >::isNull
FUNC 92870 70 0 Audio::metaObject
FUNC 928e0 d4 0 Audio::qt_metacast
FUNC 929b4 238 0 Audio::qt_metacall
FUNC 92bec 88 0 Audio::onVolumeChange
FUNC 92c7c 88 0 Audio::onVolumeRangeChange
FUNC 92d0c 64 0 Audio::onFMChange
FUNC 92d78 64 0 Audio::onFMIsOpen
FUNC 92de4 64 0 Audio::onIRIsOpen
FUNC 92e50 64 0 Audio::onIRChange
FUNC 92ebc 70 0 AV::metaObject
FUNC 92f2c 74 0 AV::qt_metacast
FUNC 92fa0 15c 0 AV::qt_metacall
FUNC 930fc 88 0 AV::onAVStatus
FUNC 93184 70 0 Link::metaObject
FUNC 931f4 a4 0 Link::qt_metacast
FUNC 93298 158 0 Link::qt_metacall
FUNC 933f0 88 0 Link::onLinkStatusChange
FUNC 93478 70 0 LocalDbusServerMirrorInterface::metaObject
FUNC 934e8 74 0 LocalDbusServerMirrorInterface::qt_metacast
FUNC 9355c 308 0 LocalDbusServerMirrorInterface::qt_metacall
FUNC 93864 88 0 LocalDbusServerMirrorInterface::onLinkStatusChange
FUNC 938ec e0 0 LocalDbusServerMirrorInterface::onExitSignal
FUNC 939cc 128 0 LocalDbusServerMirrorInterface::releaseAudioSource
FUNC 93af4 34 0 QDBusPendingReply<void, void, void, void, void, void, void, void>::operator=
FUNC 93b28 70 0 Multimedia::metaObject
FUNC 93b98 d4 0 Multimedia::qt_metacast
FUNC 93c6c 450 0 Multimedia::qt_metacall
FUNC 940bc 88 0 Multimedia::onDeviceWatcherStatus
FUNC 9414c 64 0 Multimedia::onMusicPlayerPlayMode
FUNC 941b8 64 0 Multimedia::onMusicPlayerPlayStatus
FUNC 94224 88 0 Multimedia::onMusicPlayerElapsedInformation
FUNC 942b4 b4 0 Multimedia::onMusicPlayerID3TagChange
FUNC 94370 88 0 Multimedia::onMusicPlayerFileNames
FUNC 94400 88 0 Multimedia::onImagePlayerFileNames
FUNC 94490 64 0 Multimedia::onImagePlayerPlayStatus
FUNC 944fc c8 0 Multimedia::onImagePlayerChange
FUNC 945cc 64 0 Multimedia::onVideoPlayerShowStatus
FUNC 94638 64 0 Multimedia::onVideoPlayerPlayStatus
FUNC 946a4 88 0 Multimedia::onVideoPlayerFileNames
FUNC 94734 b4 0 Multimedia::onVideoPlayerInformation
FUNC 947f0 88 0 Multimedia::onVideoPlayerElapsedInformation
FUNC 94880 70 0 Setting::metaObject
FUNC 948f0 d4 0 Setting::qt_metacast
FUNC 949c4 250 0 Setting::qt_metacall
FUNC 94c14 64 0 Setting::onLanguageTranslateChange
FUNC 94c78 64 0 Setting::onBrightnessChange
FUNC 94ce4 64 0 Setting::onContrastChange
FUNC 94d50 64 0 Setting::onSaturationChange
FUNC 94dbc 64 0 Setting::onDisplayScreenChange
FUNC 94e28 88 0 Setting::onAVStatus
FUNC 94eb8 70 0 Widget::metaObject
FUNC 94f28 74 0 Widget::qt_metacast
FUNC 94f9c b4 0 Widget::qt_metacall
FUNC 95050 88 0 Widget::ontWidgetTypeChange
FUNC 950d8 148 0 __static_initialization_and_destruction_0
FUNC 95220 1c 0 _GLOBAL__sub_I_moc_Widget.cpp
FUNC 9523c 70 0 BT::metaObject
FUNC 952ac d4 0 BT::qt_metacast
FUNC 95380 374 0 BT::qt_metacall
FUNC 956f4 64 0 BT::onBTStatus
FUNC 95760 64 0 BT::onBTPairCode
FUNC 957cc 64 0 BT::onBTName
FUNC 95838 7c 0 LocalDbusServerCarplayInterface::LocalDbusServerCarplayInterface
FUNC 958b4 64 0 LocalDbusServerCarplayInterface::~LocalDbusServerCarplayInterface
FUNC 95918 30 0 LocalDbusServerCarplayInterface::~LocalDbusServerCarplayInterface
FUNC 95948 24 0 LocalDbusServerCarplayInterface::staticInterfaceName
FUNC 9596c 70 0 LocalDbusServerCarplayInterface::metaObject
FUNC 959dc 74 0 LocalDbusServerCarplayInterface::qt_metacast
FUNC 95a50 234 0 LocalDbusServerCarplayInterface::qt_metacall
FUNC 95c84 88 0 LocalDbusServerCarplayInterface::onLinkStatusChange
FUNC 95d0c c8 0 LocalDbusServerCarplayInterface::onTouchStatusChange
FUNC 95dd4 d0 0 BmpButton::BmpButton
FUNC 95ea4 9c 0 BmpButton::~BmpButton
FUNC 95f48 30 0 BmpButton::~BmpButton
FUNC 95f80 48 0 BmpButton::setText
FUNC 95fc8 40 0 BmpButton::getText
FUNC 96008 520 0 BmpButton::setNormalBmpPath
FUNC 96528 474 0 BmpButton::setPressBmpPath
FUNC 9699c 474 0 BmpButton::setCheckBmpPath
FUNC 96e10 84 0 BmpButton::setStatus
FUNC 96e94 34 0 BmpButton::getStatus
FUNC 96ec8 5c 0 BmpButton::mousePressEvent
FUNC 96f24 74 0 BmpButton::mouseReleaseEvent
FUNC 96f98 10c 0 BmpButton::paintEvent
FUNC 970a4 6fc 0 BmpButton::normalPaint
FUNC 977a0 6fc 0 BmpButton::pressPaint
FUNC 97e9c 6fc 0 BmpButton::checkPaint
FUNC 98598 138 0 BmpButtonPrivate::BmpButtonPrivate
FUNC 986d0 104 0 BmpButtonPrivate::~BmpButtonPrivate
FUNC 987d4 148 0 __static_initialization_and_destruction_0
FUNC 9891c 1c 0 _GLOBAL__sub_I_BmpButton.cpp
FUNC 98938 34 0 QScopedPointer<BmpButtonPrivate, QScopedPointerDeleter<BmpButtonPrivate> >::QScopedPointer
FUNC 9896c 40 0 QScopedPointer<BmpButtonPrivate, QScopedPointerDeleter<BmpButtonPrivate> >::~QScopedPointer
FUNC 989ac 64 0 QScopedPointer<BmpButtonPrivate, QScopedPointerDeleter<BmpButtonPrivate> >::operator->
FUNC 98a10 3c 0 QScopedPointer<QPixmap, QScopedPointerDeleter<QPixmap> >::operator QScopedPointer<QPixmap>::RestrictedBool
FUNC 98a4c 3c 0 QScopedPointer<QSvgRenderer, QScopedPointerDeleter<QSvgRenderer> >::operator QScopedPointer<QSvgRenderer>::RestrictedBool
FUNC 98a88 34 0 QScopedPointerDeleter<BmpButtonPrivate>::cleanup
FUNC 98abc d0 0 BmpWidget::BmpWidget
FUNC 98b8c 9c 0 BmpWidget::~BmpWidget
FUNC 98c30 30 0 BmpWidget::~BmpWidget
FUNC 98c68 610 0 BmpWidget::setBackgroundBmpPath
FUNC 99278 61c 0 BmpWidget::paintEvent
FUNC 99894 68 0 BmpWidgetPrivate::BmpWidgetPrivate
FUNC 998fc 50 0 BmpWidgetPrivate::~BmpWidgetPrivate
FUNC 9994c 148 0 __static_initialization_and_destruction_0
FUNC 99a94 1c 0 _GLOBAL__sub_I_BmpWidget.cpp
FUNC 99ab0 34 0 QScopedPointer<BmpWidgetPrivate, QScopedPointerDeleter<BmpWidgetPrivate> >::QScopedPointer
FUNC 99ae4 40 0 QScopedPointer<BmpWidgetPrivate, QScopedPointerDeleter<BmpWidgetPrivate> >::~QScopedPointer
FUNC 99b24 64 0 QScopedPointer<BmpWidgetPrivate, QScopedPointerDeleter<BmpWidgetPrivate> >::operator->
FUNC 99b88 34 0 QScopedPointerDeleter<BmpWidgetPrivate>::cleanup
FUNC 99bbc a4 0 CustomItemDelegate::CustomItemDelegate
FUNC 99c60 88 0 CustomItemDelegate::~CustomItemDelegate
FUNC 99ce8 30 0 CustomItemDelegate::~CustomItemDelegate
FUNC 99d18 28 0 CustomItemDelegate::mousePressEvent
FUNC 99d40 28 0 CustomItemDelegate::mouseMoveEvent
FUNC 99d68 28 0 CustomItemDelegate::mouseReleaseEvent
FUNC 99d90 140 0 CustomItemDelegate::editorEvent
FUNC 99ed0 44 0 CustomItemDelegate::createEditor
FUNC 99f14 3c 0 CustomItemDelegate::updateEditorGeometry
FUNC 99f50 44 0 CustomItemDelegate::sizeHint
FUNC 99f94 34 0 CustomItemDelegate::setEditorData
FUNC 99fc8 3c 0 CustomItemDelegate::setModelData
FUNC 9a004 20 0 CustomItemDelegate::onCurrentIndexChange
FUNC 9a024 20 0 CustomItemDelegate::onPressIndexChanged
FUNC 9a044 3c 0 CustomItemDelegate::paint
FUNC 9a080 34 0 CustomItemDelegatePrivate::CustomItemDelegatePrivate
FUNC 9a0b4 24 0 CustomItemDelegatePrivate::~CustomItemDelegatePrivate
FUNC 9a0d8 34 0 QScopedPointer<CustomItemDelegatePrivate, QScopedPointerDeleter<CustomItemDelegatePrivate> >::QScopedPointer
FUNC 9a10c 40 0 QScopedPointer<CustomItemDelegatePrivate, QScopedPointerDeleter<CustomItemDelegatePrivate> >::~QScopedPointer
FUNC 9a14c 34 0 QScopedPointerDeleter<CustomItemDelegatePrivate>::cleanup
FUNC 9a180 208 0 CustomListView::CustomListView
FUNC 9a388 9c 0 CustomListView::~CustomListView
FUNC 9a42c 30 0 CustomListView::~CustomListView
FUNC 9a464 74 0 CustomListView::setItemDelegate
FUNC 9a4d8 190 0 CustomListView::mousePressEvent
FUNC 9a668 324 0 CustomListView::mouseMoveEvent
FUNC 9a98c 130 0 CustomListView::mouseReleaseEvent
FUNC 9aabc 5c 0 CustomListViewPrivate::CustomListViewPrivate
FUNC 9ab18 24 0 CustomListViewPrivate::~CustomListViewPrivate
FUNC 9ab3c 5c 0 operator-
FUNC 9ab98 34 0 QPalette::setBrush
FUNC 9abcc 5c 0 QModelIndex::isValid
FUNC 9ac28 34 0 QFlags<QAbstractItemView::EditTrigger>::QFlags
FUNC 9ac5c 34 0 QScopedPointer<CustomListViewPrivate, QScopedPointerDeleter<CustomListViewPrivate> >::QScopedPointer
FUNC 9ac90 40 0 QScopedPointer<CustomListViewPrivate, QScopedPointerDeleter<CustomListViewPrivate> >::~QScopedPointer
FUNC 9acd0 64 0 QScopedPointer<CustomListViewPrivate, QScopedPointerDeleter<CustomListViewPrivate> >::operator->
FUNC 9ad34 34 0 QScopedPointerDeleter<CustomListViewPrivate>::cleanup
FUNC 9ad68 b8 0 CustomScrollBar::CustomScrollBar
FUNC 9ae20 9c 0 CustomScrollBar::~CustomScrollBar
FUNC 9aec4 30 0 CustomScrollBar::~CustomScrollBar
FUNC 9aefc 34 0 CustomScrollBarPrivate::CustomScrollBarPrivate
FUNC 9af30 24 0 CustomScrollBarPrivate::~CustomScrollBarPrivate
FUNC 9af54 34 0 QScopedPointer<CustomScrollBarPrivate, QScopedPointerDeleter<CustomScrollBarPrivate> >::QScopedPointer
FUNC 9af88 40 0 QScopedPointer<CustomScrollBarPrivate, QScopedPointerDeleter<CustomScrollBarPrivate> >::~QScopedPointer
FUNC 9afc8 34 0 QScopedPointerDeleter<CustomScrollBarPrivate>::cleanup
FUNC 9affc d0 0 MessageBox::MessageBox
FUNC 9b0cc 9c 0 MessageBox::~MessageBox
FUNC 9b170 30 0 MessageBox::~MessageBox
FUNC 9b1a8 8c 0 MessageBox::setText
FUNC 9b234 70 0 MessageBox::setAutoHide
FUNC 9b2a4 64 0 MessageBox::setFontPointSize
FUNC 9b308 58 0 MessageBox::showEvent
FUNC 9b360 2c 0 MessageBox::resizeEvent
FUNC 9b38c 9c 0 MessageBox::hideEvent
FUNC 9b428 7b8 0 MessageBox::paintEvent
FUNC 9bbe0 98 0 MessageBox::mouseReleaseEvent
FUNC 9bc78 ec 0 MessageBoxPrivate::MessageBoxPrivate
FUNC 9bd64 98 0 MessageBoxPrivate::~MessageBoxPrivate
FUNC 9bdfc 3e4 0 MessageBoxPrivate::initialize
FUNC 9c1e0 78 0 MessageBoxPrivate::connectAllSlots
FUNC 9c258 8c 0 MessageBox::onTimeOut
FUNC 9c2e4 148 0 __static_initialization_and_destruction_0
FUNC 9c42c 1c 0 _GLOBAL__sub_I_MessageBox.cpp
FUNC 9c448 38 0 QString::operator!=
FUNC 9c480 34 0 QScopedPointer<MessageBoxPrivate, QScopedPointerDeleter<MessageBoxPrivate> >::QScopedPointer
FUNC 9c4b4 40 0 QScopedPointer<MessageBoxPrivate, QScopedPointerDeleter<MessageBoxPrivate> >::~QScopedPointer
FUNC 9c4f4 64 0 QScopedPointer<MessageBoxPrivate, QScopedPointerDeleter<MessageBoxPrivate> >::operator->
FUNC 9c558 34 0 QScopedPointerDeleter<MessageBoxPrivate>::cleanup
FUNC 9c58c d0 0 Slider::Slider
FUNC 9c65c 9c 0 Slider::~Slider
FUNC 9c700 30 0 Slider::~Slider
FUNC 9c738 3c 0 Slider::setAllowPress
FUNC 9c774 98 0 Slider::setAllowMove
FUNC 9c80c 3c 0 Slider::setTracking
FUNC 9c848 400 0 Slider::setBackgroundBmpPath
FUNC 9cc48 400 0 Slider::setTickMarkTickMarkslBmpPath
FUNC 9d048 60 0 Slider::setTickMarksSize
FUNC 9d0a8 2f8 0 Slider::setTickMarksMillesimal
FUNC 9d3a0 58 0 Slider::setRange
FUNC 9d3f8 60 0 Slider::resizeEvent
FUNC 9d458 d70 0 Slider::paintEvent
FUNC 9e1c8 338 0 Slider::mousePressEvent
FUNC 9e500 350 0 Slider::mouseMoveEvent
FUNC 9e850 c0 0 Slider::mouseReleaseEvent
FUNC 9e910 134 0 SliderPrivate::SliderPrivate
FUNC 9ea44 a0 0 SliderPrivate::~SliderPrivate
FUNC 9eae4 148 0 __static_initialization_and_destruction_0
FUNC 9ec2c 1c 0 _GLOBAL__sub_I_Slider.cpp
FUNC 9ec48 28 0 QRect::left
FUNC 9ec70 50 0 QRect::moveLeft
FUNC 9ecc0 3c 0 QRect::setHeight
FUNC 9ecfc 64 0 QRect::setSize
FUNC 9ed60 34 0 QScopedPointer<SliderPrivate, QScopedPointerDeleter<SliderPrivate> >::QScopedPointer
FUNC 9ed94 40 0 QScopedPointer<SliderPrivate, QScopedPointerDeleter<SliderPrivate> >::~QScopedPointer
FUNC 9edd4 64 0 QScopedPointer<SliderPrivate, QScopedPointerDeleter<SliderPrivate> >::operator->
FUNC 9ee38 34 0 QScopedPointerDeleter<SliderPrivate>::cleanup
FUNC 9ee6c d0 0 TextWidget::TextWidget
FUNC 9ef3c 9c 0 TextWidget::~TextWidget
FUNC 9efe0 30 0 TextWidget::~TextWidget
FUNC 9f018 48 0 TextWidget::setText
FUNC 9f060 44 0 TextWidget::setLanguageType
FUNC 9f0a4 44 0 TextWidget::setAlignmentFlag
FUNC 9f0e8 4c 0 TextWidget::setFontPointSize
FUNC 9f134 30c 0 TextWidget::paintEvent
FUNC 9f440 78 0 TextWidgetPrivate::TextWidgetPrivate
FUNC 9f4b8 50 0 TextWidgetPrivate::~TextWidgetPrivate
FUNC 9f508 34 0 QScopedPointer<TextWidgetPrivate, QScopedPointerDeleter<TextWidgetPrivate> >::QScopedPointer
FUNC 9f53c 40 0 QScopedPointer<TextWidgetPrivate, QScopedPointerDeleter<TextWidgetPrivate> >::~QScopedPointer
FUNC 9f57c 64 0 QScopedPointer<TextWidgetPrivate, QScopedPointerDeleter<TextWidgetPrivate> >::operator->
FUNC 9f5e0 34 0 QScopedPointerDeleter<TextWidgetPrivate>::cleanup
FUNC 9f614 50 0 UserInterfaceUtility::listViewItemBrush
FUNC 9f664 38 0 UserInterfaceUtility::customBlackColor
FUNC 9f69c 38 0 UserInterfaceUtility::videoColor
FUNC 9f6d4 38 0 UserInterfaceUtility::mainWidgetBackgroundColor
FUNC 9f70c 38 0 UserInterfaceUtility::multimediaAlphaColor
FUNC 9f744 2c 0 UserInterfaceUtility::startTime
FUNC 9f770 a4 0 UserInterfaceUtility::elapsed
FUNC 9f814 ec 0 UserInterfaceUtility::loadFromdata
FUNC 9f900 5c 0 __static_initialization_and_destruction_0
FUNC 9f95c 1c 0 _GLOBAL__sub_I_UserInterfaceUtility.cpp
FUNC 9f978 70 0 BmpButton::metaObject
FUNC 9f9e8 74 0 BmpButton::qt_metacast
FUNC 9fa5c a8 0 BmpButton::qt_metacall
FUNC 9fb04 48 0 BmpButton::bmpButtomPress
FUNC 9fb4c 48 0 BmpButton::bmpButtonRelease
FUNC 9fb94 70 0 BmpWidget::metaObject
FUNC 9fc04 74 0 BmpWidget::qt_metacast
FUNC 9fc78 60 0 BmpWidget::qt_metacall
FUNC 9fcd8 70 0 CustomItemDelegate::metaObject
FUNC 9fd48 74 0 CustomItemDelegate::qt_metacast
FUNC 9fdbc e8 0 CustomItemDelegate::qt_metacall
FUNC 9fea4 70 0 CustomListView::metaObject
FUNC 9ff14 74 0 CustomListView::qt_metacast
FUNC 9ff88 ec 0 CustomListView::qt_metacall
FUNC a0074 64 0 CustomListView::onPressIndexChanged
FUNC a00d8 64 0 CustomListView::onCurrentIndexChange
FUNC a013c 64 0 CustomListView::listViewItemRelease
FUNC a01a0 70 0 CustomScrollBar::metaObject
FUNC a0210 74 0 CustomScrollBar::qt_metacast
FUNC a0284 60 0 CustomScrollBar::qt_metacall
FUNC a02e4 70 0 MessageBox::metaObject
FUNC a0354 74 0 MessageBox::qt_metacast
FUNC a03c8 cc 0 MessageBox::qt_metacall
FUNC a0494 64 0 MessageBox::messageWidgetChange
FUNC a04f8 48 0 MessageBox::messageShowTimeout
FUNC a0540 70 0 Slider::metaObject
FUNC a05b0 74 0 Slider::qt_metacast
FUNC a0624 f4 0 Slider::qt_metacall
FUNC a0718 64 0 Slider::tickMarksMillesimalStart
FUNC a077c 64 0 Slider::tickMarksMillesimalChange
FUNC a07e0 64 0 Slider::tickMarksMillesimalEnd
FUNC a0844 70 0 TextWidget::metaObject
FUNC a08b4 74 0 TextWidget::qt_metacast
FUNC a0928 60 0 TextWidget::qt_metacall
FUNC a0988 28c 0 ArkApplication::ArkApplication
FUNC a0c14 88 0 ArkApplication::~ArkApplication
FUNC a0c9c 30 0 ArkApplication::~ArkApplication
FUNC a0ccc 108 0 ArkApplication::installTranslatorPath
FUNC a0dd4 3c 0 ArkApplication::size
FUNC a0e10 40 0 ArkApplication::arguments
FUNC a0e50 3c 0 ArkApplication::notify
FUNC a0e8c 45c 0 ArkApplicationPrivate::ArkApplicationPrivate
FUNC a12e8 2c 0 ArkApplicationPrivate::~ArkApplicationPrivate
FUNC a1314 38 0 QStringList::QStringList
FUNC a134c 68 0 QList<QString>::QList
FUNC a13b4 34 0 QScopedPointer<ArkApplicationPrivate, QScopedPointerDeleter<ArkApplicationPrivate> >::QScopedPointer
FUNC a13e8 40 0 QScopedPointer<ArkApplicationPrivate, QScopedPointerDeleter<ArkApplicationPrivate> >::~QScopedPointer
FUNC a1428 64 0 QScopedPointer<ArkApplicationPrivate, QScopedPointerDeleter<ArkApplicationPrivate> >::operator->
FUNC a148c 54 0 QList<QString>::clear
FUNC a14e0 e0 0 operator<< <QString>
FUNC a15c0 30 0 QList<QString>::detach_helper
FUNC a15f0 bc 0 QList<QString>::operator=
FUNC a16ac 34 0 QScopedPointerDeleter<ArkApplicationPrivate>::cleanup
FUNC a16e0 2c 0 QList<QString>::count
FUNC a170c a8 0 QList<QString>::detach_helper
FUNC a17b4 a34 0 autoConnect
FUNC a21e8 40 0 connectSignalAndSlotByNamesake
FUNC a2228 40 0 connectSignalAndSignalByNamesake
FUNC a2268 38 0 QBool::QBool
FUNC a22a0 3c 0 QChar::QChar
FUNC a22dc 6c 0 QString::operator=
FUNC a2348 c4 0 QList<QString>::contains
FUNC a240c 1f8 0 EventEngine::attachCustomEvent
FUNC a2604 e4 0 EventEngine::detachCustomEvent
FUNC a26e8 2d4 0 EventEngine::sendCustomEvent
FUNC a29bc 58 0 EventEngine::EventEngine
FUNC a2a14 2c 0 EventEngine::~EventEngine
FUNC a2a40 84 0 EventEnginePrivate::EventEnginePrivate
FUNC a2ac4 70 0 EventEnginePrivate::~EventEnginePrivate
FUNC a2b34 88 0 QCoreApplication::sendEvent
FUNC a2bbc a8 0 QMutexLocker::QMutexLocker
FUNC a2c64 28 0 QMutexLocker::~QMutexLocker
FUNC a2c8c 54 0 QMutexLocker::unlock
FUNC a2ce0 2c 0 QMutexLocker::mutex
FUNC a2d0c 48 0 qMax<int>
FUNC a2d54 64 0 QScopedPointer<EventEnginePrivate, QScopedPointerDeleter<EventEnginePrivate> >::operator->
FUNC a2db8 d0 0 QList<QObject*>::contains
FUNC a2e88 9c 0 QList<QObject*>::append
FUNC a2f24 2c 0 QList<QObject*>::size
FUNC a2f50 64 0 QList<QObject*>::removeOne
FUNC a2fb4 a8 0 QList<QObject*>::at
FUNC a305c 34 0 QScopedPointer<EventEnginePrivate, QScopedPointerDeleter<EventEnginePrivate> >::QScopedPointer
FUNC a3090 40 0 QScopedPointer<EventEnginePrivate, QScopedPointerDeleter<EventEnginePrivate> >::~QScopedPointer
FUNC a30d0 50 0 QList<QObject*>::QList
FUNC a3120 7c 0 QList<QObject*>::~QList
FUNC a319c 54 0 QList<QObject*>::clear
FUNC a31f0 24 0 QList<QObject*>::Node::t
FUNC a3214 134 0 QList<QObject*>::detach_helper_grow
FUNC a3348 34 0 QList<QObject*>::node_construct
FUNC a337c 20 0 QList<QObject*>::node_destruct
FUNC a339c 7c 0 QList<QObject*>::detachShared
FUNC a3418 158 0 QList<QObject*>::indexOf
FUNC a3570 90 0 QList<QObject*>::removeAt
FUNC a3600 34 0 QScopedPointerDeleter<EventEnginePrivate>::cleanup
FUNC a3634 88 0 QList<QObject*>::free
FUNC a36bc bc 0 QList<QObject*>::operator=
FUNC a3778 74 0 QList<QObject*>::node_copy
FUNC a37ec 24 0 QList<QObject*>::node_destruct
FUNC a3810 30 0 QList<QObject*>::detach_helper
FUNC a3840 40 0 QList<QObject*>::detach
FUNC a3880 a8 0 QList<QObject*>::detach_helper
FUNC a3928 2e4 0 initializeRunnableCallback
FUNC a3c0c d4 0 DbusService::startService
FUNC a3ce0 40 0 DbusService::addWatchedService
FUNC a3d20 48 0 DbusService::removeWatchedService
FUNC a3d68 a4 0 DbusService::DbusService
FUNC a3e0c 88 0 DbusService::~DbusService
FUNC a3e94 30 0 DbusService::~DbusService
FUNC a3ec4 4c 0 DbusServicePrivate::DbusServicePrivate
FUNC a3f10 24 0 DbusServicePrivate::~DbusServicePrivate
FUNC a3f34 90 0 DbusServicePrivate::initialize
FUNC a3fc4 d0 0 DbusServicePrivate::connectAllSlots
FUNC a4094 20 0 DbusService::Interface::onServiceRegistered
FUNC a40b4 20 0 DbusService::Interface::onServiceUnregistered
FUNC a40d4 28 0 qCritical
FUNC a40fc 24 0 QDBusReply<void>::error
FUNC a4120 64 0 QScopedPointer<DbusServicePrivate, QScopedPointerDeleter<DbusServicePrivate> >::operator->
FUNC a4184 34 0 QScopedPointer<DbusServicePrivate, QScopedPointerDeleter<DbusServicePrivate> >::QScopedPointer
FUNC a41b8 40 0 QScopedPointer<DbusServicePrivate, QScopedPointerDeleter<DbusServicePrivate> >::~QScopedPointer
FUNC a41f8 34 0 QScopedPointerDeleter<DbusServicePrivate>::cleanup
FUNC a422c 70 0 DbusService::metaObject
FUNC a429c 74 0 DbusService::qt_metacast
FUNC a4310 c8 0 DbusService::qt_metacall
FUNC a43d8 64 0 DbusService::onServiceRegistered
FUNC a443c 64 0 DbusService::onServiceUnregistered
FUNC a44a0 a4 0 AudioService::AudioService
FUNC a4544 88 0 AudioService::~AudioService
FUNC a45cc 30 0 AudioService::~AudioService
FUNC a45fc 128 0 AudioService::requestAudioSource
FUNC a4724 d8 0 AudioService::releaseAudioSource
FUNC a47fc 34 0 AudioService::synchronize
FUNC a4830 1c 0 AudioService::reqesetRest
FUNC a484c c8 0 AudioService::requestIncreaseVolume
FUNC a4914 c8 0 AudioService::requestDecreaseVolume
FUNC a49dc 1c 0 AudioService::requsetIsOpenFM
FUNC a49f8 20 0 AudioService::requestOpenFM
FUNC a4a18 6c 0 AudioService::requestFMToggle
FUNC a4a84 6c 0 AudioService::requestIRToggle
FUNC a4af0 70 0 AudioService::requestIRMode
FUNC a4b60 cc 0 AudioService::requestSetVolume
FUNC a4c2c 70 0 AudioService::requestSetFreqency
FUNC a4c9c 9c 0 AudioServicePrivate::AudioServicePrivate
FUNC a4d38 34 0 AudioServicePrivate::~AudioServicePrivate
FUNC a4d6c 324 0 AudioServicePrivate::initialize
FUNC a5090 11c 0 AudioServicePrivate::synchronize
FUNC a51ac 1c 0 AudioService::Interface::reqesetRest
FUNC a51c8 1c 0 AudioService::Interface::requestIncreaseVolume
FUNC a51e4 1c 0 AudioService::Interface::requestDecreaseVolume
FUNC a5200 1c 0 AudioService::Interface::requsetIsOpenFM
FUNC a521c 1c 0 AudioService::Interface::requestFMToggle
FUNC a5238 1c 0 AudioService::Interface::requestIRToggle
FUNC a5254 20 0 AudioService::Interface::requestIRMode
FUNC a5274 20 0 AudioService::Interface::requestOpenFM
FUNC a5294 20 0 AudioService::Interface::requestSetVolume
FUNC a52b4 20 0 AudioService::Interface::requestSetFreqency
FUNC a52d4 24 0 AudioService::Interface::onVolumeChange
FUNC a52f8 24 0 AudioService::Interface::onVolumeRangeChange
FUNC a531c 20 0 AudioService::Interface::onFMChange
FUNC a533c 20 0 AudioService::Interface::onFMIsOpen
FUNC a535c 20 0 AudioService::Interface::onIRIsOpen
FUNC a537c 20 0 AudioService::Interface::onIRChange
FUNC a539c 4c 0 operator|
FUNC a53e8 34 0 QFlags<QDBusConnection::RegisterOption>::QFlags
FUNC a541c 4c 0 QFlags<QDBusConnection::RegisterOption>::operator|
FUNC a5468 34 0 QScopedPointer<AudioServicePrivate, QScopedPointerDeleter<AudioServicePrivate> >::QScopedPointer
FUNC a549c 40 0 QScopedPointer<AudioServicePrivate, QScopedPointerDeleter<AudioServicePrivate> >::~QScopedPointer
FUNC a54dc 64 0 QScopedPointer<AudioServicePrivate, QScopedPointerDeleter<AudioServicePrivate> >::operator->
FUNC a5540 34 0 QFlags<QDBusConnection::RegisterOption>::QFlags
FUNC a5574 34 0 QScopedPointerDeleter<AudioServicePrivate>::cleanup
FUNC a55a8 7c 0 LocalDbusServerAudioManagerInterface::LocalDbusServerAudioManagerInterface
FUNC a5624 64 0 LocalDbusServerAudioManagerInterface::~LocalDbusServerAudioManagerInterface
FUNC a5688 30 0 LocalDbusServerAudioManagerInterface::~LocalDbusServerAudioManagerInterface
FUNC a56b8 24 0 LocalDbusServerAudioManagerInterface::staticInterfaceName
FUNC a56dc 70 0 AudioService::metaObject
FUNC a574c 74 0 AudioService::qt_metacast
FUNC a57c0 2f8 0 AudioService::qt_metacall
FUNC a5ab8 88 0 AudioService::onVolumeChange
FUNC a5b40 88 0 AudioService::onVolumeRangeChange
FUNC a5bc8 64 0 AudioService::onFMChange
FUNC a5c2c 64 0 AudioService::onFMIsOpen
FUNC a5c90 64 0 AudioService::onIRIsOpen
FUNC a5cf4 64 0 AudioService::onIRChange
FUNC a5d58 70 0 LocalDbusServerAudioManagerInterface::metaObject
FUNC a5dc8 74 0 LocalDbusServerAudioManagerInterface::qt_metacast
FUNC a5e3c 70c 0 LocalDbusServerAudioManagerInterface::qt_metacall
FUNC a6548 64 0 LocalDbusServerAudioManagerInterface::onFMChange
FUNC a65ac 64 0 LocalDbusServerAudioManagerInterface::onFMIsOpen
FUNC a6610 64 0 LocalDbusServerAudioManagerInterface::onIRChange
FUNC a6674 64 0 LocalDbusServerAudioManagerInterface::onIRIsOpen
FUNC a66d8 88 0 LocalDbusServerAudioManagerInterface::onVolumeChange
FUNC a6760 88 0 LocalDbusServerAudioManagerInterface::onVolumeRangeChange
FUNC a67e8 e0 0 LocalDbusServerAudioManagerInterface::requestStart
FUNC a68c8 e0 0 LocalDbusServerAudioManagerInterface::synchronize
FUNC a69a8 34 0 QDBusPendingReply<bool, void, void, void, void, void, void, void>::operator=
FUNC a69dc 24 0 AudioConfig::AudioConfig
FUNC a6a00 24 0 AudioConfig::~AudioConfig
FUNC a6a24 88 0 AudioConfig::setFMFreqency
FUNC a6aac 108 0 AudioConfig::getFMGetFreqency
FUNC a6bb4 88 0 AudioConfig::setVolume
FUNC a6c3c 158 0 AudioConfig::getVolume
FUNC a6d94 88 0 AudioConfig::setBTName
FUNC a6e1c 128 0 AudioConfig::getBTName
FUNC a6f44 128 0 AudioConfig::getBTPairCode
FUNC a706c 88 0 AudioConfig::setBTPairCode
FUNC a70f4 104 0 AudioConfig::getInputAudioSource
FUNC a71f8 88 0 AudioConfig::setInputAudioSource
FUNC a7280 104 0 AudioConfig::getOutputAudioSource
FUNC a7384 88 0 AudioConfig::setOutputAudioSource
FUNC a740c 20 0 AudioConfig::clearLog
FUNC a742c 3a4 0 __static_initialization_and_destruction_0
FUNC a77d0 1c 0 _GLOBAL__sub_I_AudioConfig.cpp
FUNC a77ec a4 0 BTService::BTService
FUNC a7890 88 0 BTService::~BTService
FUNC a7918 30 0 BTService::~BTService
FUNC a7948 1c 0 BTService::synchronize
FUNC a7964 1c 0 BTService::requestRest
FUNC a7980 20 0 BTService::requestConnectBT
FUNC a79a0 1c 0 BTService::requestBTStatus
FUNC a79bc 20 0 BTService::requestBTName
FUNC a79dc 20 0 BTService::requsetBTPairCode
FUNC a79fc 1c 0 BTService::requestBTToggle
FUNC a7a18 1c 0 BTService::requestPairPhoneName
FUNC a7a34 34 0 BTServicePrivate::BTServicePrivate
FUNC a7a68 24 0 BTServicePrivate::~BTServicePrivate
FUNC a7a8c 1c 0 BTService::Interface::synchronize
FUNC a7aa8 1c 0 BTService::Interface::requestRest
FUNC a7ac4 20 0 BTService::Interface::requestConnectBT
FUNC a7ae4 1c 0 BTService::Interface::requestBTStatus
FUNC a7b00 20 0 BTService::Interface::requestBTName
FUNC a7b20 20 0 BTService::Interface::requsetBTPairCode
FUNC a7b40 1c 0 BTService::Interface::requestBTToggle
FUNC a7b5c 1c 0 BTService::Interface::requestPairPhoneName
FUNC a7b78 20 0 BTService::Interface::onBTStatus
FUNC a7b98 20 0 BTService::Interface::onBTPairCode
FUNC a7bb8 20 0 BTService::Interface::onBTName
FUNC a7bd8 34 0 QScopedPointer<BTServicePrivate, QScopedPointerDeleter<BTServicePrivate> >::QScopedPointer
FUNC a7c0c 40 0 QScopedPointer<BTServicePrivate, QScopedPointerDeleter<BTServicePrivate> >::~QScopedPointer
FUNC a7c4c 34 0 QScopedPointerDeleter<BTServicePrivate>::cleanup
FUNC a7c80 7c 0 LocalDbusServerBluetoothInterface::LocalDbusServerBluetoothInterface
FUNC a7cfc 64 0 LocalDbusServerBluetoothInterface::~LocalDbusServerBluetoothInterface
FUNC a7d60 30 0 LocalDbusServerBluetoothInterface::~LocalDbusServerBluetoothInterface
FUNC a7d90 24 0 LocalDbusServerBluetoothInterface::staticInterfaceName
FUNC a7db4 70 0 BTService::metaObject
FUNC a7e24 74 0 BTService::qt_metacast
FUNC a7e98 264 0 BTService::qt_metacall
FUNC a80fc 64 0 BTService::onBTStatus
FUNC a8160 64 0 BTService::onBTPairCode
FUNC a81c4 64 0 BTService::onBTName
FUNC a8228 70 0 LocalDbusServerBluetoothInterface::metaObject
FUNC a8298 74 0 LocalDbusServerBluetoothInterface::qt_metacast
FUNC a830c 404 0 LocalDbusServerBluetoothInterface::qt_metacall
FUNC a8710 64 0 LocalDbusServerBluetoothInterface::onBTName
FUNC a8774 64 0 LocalDbusServerBluetoothInterface::onBTPairCode
FUNC a87d8 64 0 LocalDbusServerBluetoothInterface::onBTStatus
FUNC a883c 124 0 LocalDbusServerBluetoothInterface::requestBTName
FUNC a8960 e0 0 LocalDbusServerBluetoothInterface::requestBTStatus
FUNC a8a40 e0 0 LocalDbusServerBluetoothInterface::requestBTToggle
FUNC a8b20 128 0 LocalDbusServerBluetoothInterface::requestConnectBT
FUNC a8c48 e0 0 LocalDbusServerBluetoothInterface::requestPairPhoneName
FUNC a8d28 e0 0 LocalDbusServerBluetoothInterface::requestRest
FUNC a8e08 124 0 LocalDbusServerBluetoothInterface::requsetBTPairCode
FUNC a8f2c a4 0 SettingService::SettingService
FUNC a8fd0 88 0 SettingService::~SettingService
FUNC a9058 30 0 SettingService::~SettingService
FUNC a9088 e8 0 SettingService::synchronize
FUNC a9170 ac 0 SettingService::reset
FUNC a921c 168 0 SettingService::setLanguage
FUNC a9384 3cc 0 SettingService::setBrightness
FUNC a9750 398 0 SettingService::setContrast
FUNC a9ae8 444 0 SettingService::setSaturation
FUNC a9f2c 1c4 0 SettingService::setDisplayScreen
FUNC aa0f0 1c 0 initializeRunnableCallback
FUNC aa10c 104 0 SettingService::startCalibrate
FUNC aa210 3e4 0 SettingService::startAV
FUNC aa5f4 284 0 SettingService::stopAV
FUNC aa878 6f8 0 SettingService::onTimeout
FUNC aaf70 150 0 SettingServicePrivate::SettingServicePrivate
FUNC ab0c0 24 0 SettingServicePrivate::~SettingServicePrivate
FUNC ab0e4 528 0 SettingServicePrivate::initialize
FUNC ab60c 78 0 SettingServicePrivate::connectAllSlots
FUNC ab684 1c4 0 SettingServicePrivate::openDVRFileFileDescriptor
FUNC ab848 12c 0 SettingServicePrivate::switchDVRChannel
FUNC ab974 168 0 SettingServicePrivate::configDVR
FUNC abadc 5c 0 SettingServicePrivate::closeDVRFileFileDescriptor
FUNC abb38 124 0 SettingServicePrivate::startDVRData
FUNC abc5c 50 0 SettingServicePrivate::stopDVRData
FUNC abcac 1c8 0 SettingServicePrivate::openDVRFrameBufferFileDescriptor
FUNC abe74 5c 0 SettingServicePrivate::closeDVRFrameBufferFileDescriptor
FUNC abed0 ec 0 SettingServicePrivate::detectSignal
FUNC abfbc 1c 0 SettingService::Interface::reset
FUNC abfd8 20 0 SettingService::Interface::setLanguage
FUNC abff8 24 0 SettingService::Interface::setBrightness
FUNC ac01c 24 0 SettingService::Interface::setContrast
FUNC ac040 24 0 SettingService::Interface::setSaturation
FUNC ac064 20 0 SettingService::Interface::setDisplayScreen
FUNC ac084 1c 0 SettingService::Interface::startCalibrate
FUNC ac0a0 28 0 SettingService::Interface::startAV
FUNC ac0c8 20 0 SettingService::Interface::stopAV
FUNC ac0e8 20 0 SettingService::Interface::onLanguageChange
FUNC ac108 20 0 SettingService::Interface::onBrightnessChange
FUNC ac128 20 0 SettingService::Interface::onContrastChange
FUNC ac148 20 0 SettingService::Interface::onSaturationChange
FUNC ac168 20 0 SettingService::Interface::onDisplayScreenChange
FUNC ac188 24 0 SettingService::Interface::onAVStatus
FUNC ac1ac 28 0 QTimer::interval
FUNC ac1d4 34 0 QScopedPointer<SettingServicePrivate, QScopedPointerDeleter<SettingServicePrivate> >::QScopedPointer
FUNC ac208 40 0 QScopedPointer<SettingServicePrivate, QScopedPointerDeleter<SettingServicePrivate> >::~QScopedPointer
FUNC ac248 64 0 QScopedPointer<SettingServicePrivate, QScopedPointerDeleter<SettingServicePrivate> >::operator->
FUNC ac2ac 34 0 QScopedPointerDeleter<SettingServicePrivate>::cleanup
FUNC ac2e0 7c 0 LocalDbusServerSettingInterface::LocalDbusServerSettingInterface
FUNC ac35c 64 0 LocalDbusServerSettingInterface::~LocalDbusServerSettingInterface
FUNC ac3c0 30 0 LocalDbusServerSettingInterface::~LocalDbusServerSettingInterface
FUNC ac3f0 24 0 LocalDbusServerSettingInterface::staticInterfaceName
FUNC ac414 11c 0 SettingPersistent::setLanguage
FUNC ac530 31c 0 SettingPersistent::getLanguageResources
FUNC ac84c 198 0 SettingPersistent::restoreBrightness
FUNC ac9e4 198 0 SettingPersistent::restoreContrast
FUNC acb7c 198 0 SettingPersistent::restoreSaturation
FUNC acd14 170 0 SettingPersistent::getCalibrate
FUNC ace84 100 0 SettingPersistent::getLanguage
FUNC acf84 11c 0 SettingPersistent::setBrightness
FUNC ad0a0 100 0 SettingPersistent::getBrightness
FUNC ad1a0 11c 0 SettingPersistent::setContrast
FUNC ad2bc 100 0 SettingPersistent::getContrast
FUNC ad3bc 11c 0 SettingPersistent::setSaturation
FUNC ad4d8 2c 0 SettingPersistent::reset
FUNC ad504 100 0 SettingPersistent::getSaturation
FUNC ad604 17c 0 SettingPersistent::setCalibrate
FUNC ad780 24 0 SettingPersistent::SettingPersistent
FUNC ad7a4 24 0 SettingPersistent::~SettingPersistent
FUNC ad7c8 34 0 SettingSettings::clear
FUNC ad7fc 34 0 SettingSettings::sync
FUNC ad830 158 0 SettingSettings::setValue
FUNC ad988 280 0 SettingSettings::SettingSettings
FUNC adc08 110 0 SettingSettings::~SettingSettings
FUNC add18 30 0 SettingSettings::~SettingSettings
FUNC add48 2ec 0 __static_initialization_and_destruction_0
FUNC ae034 1c 0 _GLOBAL__sub_I_SettingPersistent.cpp
FUNC ae050 e4 0 SettingSettings::instance
FUNC ae134 70 0 SettingService::metaObject
FUNC ae1a4 74 0 SettingService::qt_metacast
FUNC ae218 33c 0 SettingService::qt_metacall
FUNC ae554 64 0 SettingService::onLanguageChange
FUNC ae5b8 64 0 SettingService::onBrightnessChange
FUNC ae61c 64 0 SettingService::onContrastChange
FUNC ae680 64 0 SettingService::onSaturationChange
FUNC ae6e4 64 0 SettingService::onDisplayScreenChange
FUNC ae748 88 0 SettingService::onCalibrateChange
FUNC ae7d0 88 0 SettingService::onAVStatus
FUNC ae858 70 0 LocalDbusServerSettingInterface::metaObject
FUNC ae8c8 74 0 LocalDbusServerSettingInterface::qt_metacast
FUNC ae93c 614 0 LocalDbusServerSettingInterface::qt_metacall
FUNC aef50 88 0 LocalDbusServerSettingInterface::onAVStatus
FUNC aefd8 64 0 LocalDbusServerSettingInterface::onBrightnessChange
FUNC af03c 88 0 LocalDbusServerSettingInterface::onCalibrateChange
FUNC af0c4 64 0 LocalDbusServerSettingInterface::onContrastChange
FUNC af128 64 0 LocalDbusServerSettingInterface::onDisplayScreenChange
FUNC af18c 64 0 LocalDbusServerSettingInterface::onLanguageChange
FUNC af1f0 64 0 LocalDbusServerSettingInterface::onSaturationChange
FUNC af254 e0 0 LocalDbusServerSettingInterface::synchronize
FUNC af334 a4 0 MultimediaService::MultimediaService
FUNC af3d8 88 0 MultimediaService::~MultimediaService
FUNC af460 30 0 MultimediaService::~MultimediaService
FUNC af490 28 0 MultimediaService::synchronize
FUNC af4b8 1c 0 MultimediaService::reset
FUNC af4d4 30 0 MultimediaService::deviceWatcherCheckStatus
FUNC af504 2c 0 MultimediaService::musicPlayerRequestFileNames
FUNC af530 28 0 MultimediaService::musicPlayerSetPlayModeToggle
FUNC af558 30 0 MultimediaService::musicPlayerSetPlayMode
FUNC af588 28 0 MultimediaService::musicPlayerSetPlayStatusToggle
FUNC af5b0 30 0 MultimediaService::musicPlayerSetPlayStatus
FUNC af5e0 40 0 MultimediaService::musicPlayerPlayListViewIndex
FUNC af620 28 0 MultimediaService::musicPlayerPlayPreviousListViewIndex
FUNC af648 28 0 MultimediaService::musicPlayerPlayNextListViewIndex
FUNC af670 30 0 MultimediaService::musicPlayerSeekToMillesimal
FUNC af6a0 28 0 MultimediaService::musicPlayerExit
FUNC af6c8 30 0 MultimediaService::imagePlayerRequestFileNames
FUNC af6f8 38 0 MultimediaService::imagePlayerPlayListViewIndex
FUNC af730 28 0 MultimediaService::imagePlayerPlayPreviousListViewIndex
FUNC af758 28 0 MultimediaService::imagePlayerPlayNextListViewIndex
FUNC af780 28 0 MultimediaService::imagePlayerRotateImage
FUNC af7a8 28 0 MultimediaService::imagePlayerZoomInImage
FUNC af7d0 28 0 MultimediaService::imagePlayerZoomOutImage
FUNC af7f8 28 0 MultimediaService::imagePlayerSetPlayStatusToggle
FUNC af820 30 0 MultimediaService::imagePlayerSetPlayStatus
FUNC af850 28 0 MultimediaService::imagePlayerExit
FUNC af878 30 0 MultimediaService::videoPlayerRequestFileNames
FUNC af8a8 28 0 MultimediaService::videoPlayerSetPlayStatusToggle
FUNC af8d0 30 0 MultimediaService::videoPlayerSetShowStatus
FUNC af900 30 0 MultimediaService::videoPlayerSetPlayStatus
FUNC af930 60 0 MultimediaService::videoPlayerPlayListViewIndex
FUNC af990 28 0 MultimediaService::videoPlayerPlayPreviousListViewIndex
FUNC af9b8 28 0 MultimediaService::videoPlayerPlayNextListViewIndex
FUNC af9e0 30 0 MultimediaService::videoPlayerSeekToMillesimal
FUNC afa10 28 0 MultimediaService::videoPlayerExit
FUNC afa38 40 0 MultimediaServicePrivate::MultimediaServicePrivate
FUNC afa78 24 0 MultimediaServicePrivate::~MultimediaServicePrivate
FUNC afa9c 448 0 MultimediaServicePrivate::initialize
FUNC afee4 15c 0 MultimediaServicePrivate::connectAllSlots
FUNC b0040 1c 0 MultimediaService::Interface::reset
FUNC b005c 20 0 MultimediaService::Interface::deviceWatcherCheckStatus
FUNC b007c 1c 0 MultimediaService::Interface::musicPlayerRequestFileNames
FUNC b0098 1c 0 MultimediaService::Interface::musicPlayerSetPlayModeToggle
FUNC b00b4 20 0 MultimediaService::Interface::musicPlayerSetPlayMode
FUNC b00d4 1c 0 MultimediaService::Interface::musicPlayerSetPlayStatusToggle
FUNC b00f0 20 0 MultimediaService::Interface::musicPlayerSetPlayStatus
FUNC b0110 28 0 MultimediaService::Interface::musicPlayerPlayListViewIndex
FUNC b0138 1c 0 MultimediaService::Interface::musicPlayerPlayPreviousListViewIndex
FUNC b0154 1c 0 MultimediaService::Interface::musicPlayerPlayNextListViewIndex
FUNC b0170 20 0 MultimediaService::Interface::musicPlayerSeekToMillesimal
FUNC b0190 1c 0 MultimediaService::Interface::musicPlayerExit
FUNC b01ac 20 0 MultimediaService::Interface::imagePlayerRequestFileNames
FUNC b01cc 24 0 MultimediaService::Interface::imagePlayerPlayListViewIndex
FUNC b01f0 1c 0 MultimediaService::Interface::imagePlayerPlayPreviousListViewIndex
FUNC b020c 1c 0 MultimediaService::Interface::imagePlayerPlayNextListViewIndex
FUNC b0228 1c 0 MultimediaService::Interface::imagePlayerRotateImage
FUNC b0244 1c 0 MultimediaService::Interface::imagePlayerZoomInImage
FUNC b0260 1c 0 MultimediaService::Interface::imagePlayerZoomOutImage
FUNC b027c 1c 0 MultimediaService::Interface::imagePlayerSetPlayStatusToggle
FUNC b0298 20 0 MultimediaService::Interface::imagePlayerSetPlayStatus
FUNC b02b8 1c 0 MultimediaService::Interface::imagePlayerExit
FUNC b02d4 20 0 MultimediaService::Interface::videoPlayerRequestFileNames
FUNC b02f4 1c 0 MultimediaService::Interface::videoPlayerSetPlayStatusToggle
FUNC b0310 20 0 MultimediaService::Interface::videoPlayerSetShowStatus
FUNC b0330 20 0 MultimediaService::Interface::videoPlayerSetPlayStatus
FUNC b0350 28 0 MultimediaService::Interface::videoPlayerPlayListViewIndex
FUNC b0378 1c 0 MultimediaService::Interface::videoPlayerPlayPreviousListViewIndex
FUNC b0394 1c 0 MultimediaService::Interface::videoPlayerPlayNextListViewIndex
FUNC b03b0 20 0 MultimediaService::Interface::videoPlayerSeekToMillesimal
FUNC b03d0 24 0 MultimediaService::Interface::onDeviceWatcherStatus
FUNC b03f4 20 0 MultimediaService::Interface::onMusicPlayerPlayMode
FUNC b0414 20 0 MultimediaService::Interface::onMusicPlayerPlayStatus
FUNC b0434 24 0 MultimediaService::Interface::onMusicPlayerElapsedInformation
FUNC b0458 28 0 MultimediaService::Interface::onMusicPlayerID3TagChange
FUNC b0480 24 0 MultimediaService::Interface::onMusicPlayerFileNames
FUNC b04a4 24 0 MultimediaService::Interface::onImagePlayerFileNames
FUNC b04c8 20 0 MultimediaService::Interface::onImagePlayerPlayStatus
FUNC b04e8 28 0 MultimediaService::Interface::onImagePlayerChange
FUNC b0510 20 0 MultimediaService::Interface::onVideoPlayerShowStatus
FUNC b0530 20 0 MultimediaService::Interface::onVideoPlayerPlayStatus
FUNC b0550 24 0 MultimediaService::Interface::onVideoPlayerFileNames
FUNC b0574 28 0 MultimediaService::Interface::onVideoPlayerInformation
FUNC b059c 24 0 MultimediaService::Interface::onVideoPlayerElapsedInformation
FUNC b05c0 e4 0 DeviceWatcher::instance
FUNC b06a4 e4 0 MusicPlayer::instance
FUNC b0788 e4 0 VideoPlayer::instance
FUNC b086c e4 0 ImagePlayer::instance
FUNC b0950 34 0 QScopedPointer<MultimediaServicePrivate, QScopedPointerDeleter<MultimediaServicePrivate> >::QScopedPointer
FUNC b0984 40 0 QScopedPointer<MultimediaServicePrivate, QScopedPointerDeleter<MultimediaServicePrivate> >::~QScopedPointer
FUNC b09c4 34 0 QScopedPointerDeleter<MultimediaServicePrivate>::cleanup
FUNC b09f8 a4 0 DeviceWatcher::DeviceWatcher
FUNC b0a9c 88 0 DeviceWatcher::~DeviceWatcher
FUNC b0b24 30 0 DeviceWatcher::~DeviceWatcher
FUNC b0b54 c0 0 DeviceWatcher::synchronize
FUNC b0c14 12c 0 DeviceWatcher::deviceWatcherCheckStatus
FUNC b0d40 164 0 DeviceWatcher::timerEvent
FUNC b0ea4 100 0 DeviceWatcherPrivate::DeviceWatcherPrivate
FUNC b0fa4 58 0 DeviceWatcherPrivate::~DeviceWatcherPrivate
FUNC b0ffc c18 0 DeviceWatcherPrivate::initialize
FUNC b1c14 230 0 DeviceWatcherPrivate::connectAllSlots
FUNC b1e44 175c 0 DeviceWatcherPrivate::diskDeviceAdd
FUNC b35a0 53c 0 DeviceWatcherPrivate::diskDeviceRemove
FUNC b3adc 100 0 DeviceWatcherPrivate::usbDiskScan
FUNC b3bdc 124 0 DeviceWatcherPrivate::usbDiskCancelScan
FUNC b3d00 100 0 DeviceWatcherPrivate::sdDiskScan
FUNC b3e00 118 0 DeviceWatcherPrivate::sdDiskCancelScan
FUNC b3f18 7c 0 DeviceWatcherPrivate::regExpUSBPath
FUNC b3f94 7c 0 DeviceWatcherPrivate::regExpSDPath
FUNC b4010 ec 0 DeviceWatcher::onDiskDeviceChange
FUNC b40fc 7c 0 DeviceWatcher::onUSBFilePath
FUNC b4178 7c 0 DeviceWatcher::onSDFilePath
FUNC b41f4 27c 0 DeviceWatcher::onFinish
FUNC b4470 2c0 0 DeviceWatcher::onTimeout
FUNC b4730 24 0 DeviceWatcher::onFinished
FUNC b4754 c4 0 DeviceWatcher::onError
FUNC b4818 20 0 DeviceWatcher::onStateChanged
FUNC b4838 1c 0 DeviceWatcher::onReadyReadStandardOutput
FUNC b4854 4d0 0 usbDiskWatcherCallback
FUNC b4d24 f4 0 __static_initialization_and_destruction_0
FUNC b4e18 1c 0 _GLOBAL__sub_I_DeviceWatcher.cpp
FUNC b4e34 38 0 QChar::QChar
FUNC b4e6c 88 0 qstrnlen
FUNC b4ef4 2c 0 QByteArray::size
FUNC b4f20 2c 0 QString::size
FUNC b4f4c 70 0 QString::QString
FUNC b4fbc 2c 0 QString::length
FUNC b4fe8 a8 0 QString::at
FUNC b5090 60 0 QString::contains
FUNC b50f0 34 0 QScopedPointer<DeviceWatcherPrivate, QScopedPointerDeleter<DeviceWatcherPrivate> >::QScopedPointer
FUNC b5124 40 0 QScopedPointer<DeviceWatcherPrivate, QScopedPointerDeleter<DeviceWatcherPrivate> >::~QScopedPointer
FUNC b5164 64 0 QScopedPointer<DeviceWatcherPrivate, QScopedPointerDeleter<DeviceWatcherPrivate> >::operator->
FUNC b51c8 54 0 QMap<int, QStringList>::QMap
FUNC b521c 70 0 QMap<int, QStringList>::~QMap
FUNC b528c 38 0 QStringList::operator=
FUNC b52c4 c0 0 QMap<int, QStringList>::insert
FUNC b5384 34 0 QScopedPointerDeleter<DeviceWatcherPrivate>::cleanup
FUNC b53b8 8c 0 QMap<int, QStringList>::freeData
FUNC b5444 44 0 QMap<int, QStringList>::detach
FUNC b5488 15c 0 QMap<int, QStringList>::mutableFindNode
FUNC b55e4 d0 0 QMap<int, QStringList>::node_create
FUNC b56b4 30 0 QMap<int, QStringList>::concrete
FUNC b56e4 34 0 QMap<int, QStringList>::iterator::iterator
FUNC b5718 1c 0 QMap<int, QStringList>::payload
FUNC b5734 118 0 QMap<int, QStringList>::detach_helper
FUNC b584c 44 0 qMapLessThanKey<int>
FUNC b5890 44 0 QMap<int, QStringList>::alignment
FUNC b58d4 a4 0 ImagePlayer::ImagePlayer
FUNC b5978 88 0 ImagePlayer::~ImagePlayer
FUNC b5a00 30 0 ImagePlayer::~ImagePlayer
FUNC b5a30 128 0 ImagePlayer::imagePlayerRequestFileNames
FUNC b5b58 44 0 ImagePlayer::imagePlayerPlayListViewIndex
FUNC b5b9c 34 0 ImagePlayer::imagePlayerPlayPreviousListViewIndex
FUNC b5bd0 34 0 ImagePlayer::imagePlayerPlayNextListViewIndex
FUNC b5c04 34 0 ImagePlayer::imagePlayerRotateImage
FUNC b5c38 34 0 ImagePlayer::imagePlayerZoomInImage
FUNC b5c6c 34 0 ImagePlayer::imagePlayerZoomOutImage
FUNC b5ca0 110 0 ImagePlayer::imagePlayerSetPlayStatusToggle
FUNC b5db0 2b0 0 ImagePlayer::imagePlayerSetPlayStatus
FUNC b6060 50 0 ImagePlayer::imagePlayerExit
FUNC b60b0 2ac 0 ImagePlayer::onDeviceWatcherStatus
FUNC b635c 84 0 ImagePlayer::onImageFilePath
FUNC b63e0 e8 0 ImagePlayer::onTimeout
FUNC b64c8 158 0 ImagePlayerPrivate::ImagePlayerPrivate
FUNC b6620 c4 0 ImagePlayerPrivate::~ImagePlayerPrivate
FUNC b66e4 c4 0 ImagePlayerPrivate::initialize
FUNC b67a8 124 0 ImagePlayerPrivate::connectAllSlots
FUNC b68cc bf0 0 ImagePlayerPrivate::createUSBFileNamesXml
FUNC b74bc bf0 0 ImagePlayerPrivate::createSDFileNamesXml
FUNC b80ac 6f4 0 ImagePlayerPrivate::playListViewIndex
FUNC b87a0 1a0 0 ImagePlayerPrivate::playPreviousListViewIndex
FUNC b8940 e8 0 ImagePlayerPrivate::playNextListViewIndex
FUNC b8a28 d4 0 ImagePlayerPrivate::rotateImage
FUNC b8afc c0 0 ImagePlayerPrivate::zoomInImage
FUNC b8bbc c4 0 ImagePlayerPrivate::zoomOutImage
FUNC b8c80 40 0 ImagePlayerPrivate::convertByteArray
FUNC b8cc0 44 0 ImagePlayerPrivate::getPathList
FUNC b8d04 44 0 ImagePlayerPrivate::exitImagePlayer
FUNC b8d48 108 0 ImagePlayerPrivate::imagePlayerSetExit
FUNC b8e50 24 0 ImagePlayer::Interface::onImagePlayerFileNames
FUNC b8e74 20 0 ImagePlayer::Interface::onImagePlayerPlayStatus
FUNC b8e94 28 0 ImagePlayer::Interface::onImagePlayerChange
FUNC b8ebc 48 0 QListData::isEmpty
FUNC b8f04 58 0 ImagePlayer::Interface::~Interface
FUNC b8f5c 30 0 ImagePlayer::Interface::~Interface
FUNC b8f8c 34 0 QScopedPointer<ImagePlayerPrivate, QScopedPointerDeleter<ImagePlayerPrivate> >::QScopedPointer
FUNC b8fc0 40 0 QScopedPointer<ImagePlayerPrivate, QScopedPointerDeleter<ImagePlayerPrivate> >::~QScopedPointer
FUNC b9000 64 0 QScopedPointer<ImagePlayerPrivate, QScopedPointerDeleter<ImagePlayerPrivate> >::operator->
FUNC b9064 90 0 QList<QString>::last
FUNC b90f4 2c 0 QList<QString>::isEmpty
FUNC b9120 34 0 QScopedPointerDeleter<ImagePlayerPrivate>::cleanup
FUNC b9154 44 0 QList<QString>::end
FUNC b9198 38 0 QList<QString>::iterator::operator--
FUNC b91d0 30 0 QList<QString>::iterator::operator*
FUNC b9200 40 0 QList<QString>::detach
FUNC b9240 34 0 QList<QString>::iterator::iterator
FUNC b9274 8c 0 MusicPlayer::musicPlayerRequestFileNames
FUNC b9300 94 0 MusicPlayer::musicPlayerSetPlayModeToggle
FUNC b9394 5c 0 MusicPlayer::musicPlayerSetPlayMode
FUNC b93f0 130 0 MusicPlayer::musicPlayerSetPlayStatusToggle
FUNC b9520 168 0 MusicPlayer::musicPlayerSetPlayStatus
FUNC b9688 6c 0 MusicPlayer::musicPlayerPlayListViewIndex
FUNC b96f4 158 0 MusicPlayer::musicPlayerPlayPreviousListViewIndex
FUNC b984c 110 0 MusicPlayer::musicPlayerPlayNextListViewIndex
FUNC b995c 130 0 MusicPlayer::musicPlayerSeekToMillesimal
FUNC b9a8c 100 0 MusicPlayer::musicPlayerExit
FUNC b9b8c 2ac 0 MusicPlayer::onDeviceWatcherStatus
FUNC b9e38 84 0 MusicPlayer::onMusicFilePath
FUNC b9ebc 34 0 MusicPlayer::onTimeout
FUNC b9ef0 a4 0 MusicPlayer::MusicPlayer
FUNC b9f94 88 0 MusicPlayer::~MusicPlayer
FUNC ba01c 30 0 MusicPlayer::~MusicPlayer
FUNC ba04c 164 0 MusicPlayerPrivate::MusicPlayerPrivate
FUNC ba1b0 164 0 MusicPlayerPrivate::~MusicPlayerPrivate
FUNC ba314 c0 0 MusicPlayerPrivate::initialize
FUNC ba3d4 334 0 MusicPlayerPrivate::connectAllSlots
FUNC ba708 bc0 0 MusicPlayerPrivate::playMusicIndex
FUNC bb2c8 44 0 MusicPlayerPrivate::getPathList
FUNC bb30c 3f0 0 MusicPlayerPrivate::seekToMillesimal
FUNC bb6fc 58 0 MusicPlayerPrivate::setPlayStatus
FUNC bb754 58 0 MusicPlayerPrivate::setPlayMode
FUNC bb7ac 1d4 0 MusicPlayerPrivate::pauseToggleHandler
FUNC bb980 20 0 MusicPlayerPrivate::startHandler
FUNC bb9a0 1cc 0 MusicPlayerPrivate::timeLengthHandler
FUNC bbb6c 12c 0 MusicPlayerPrivate::millesimalHandler
FUNC bbc98 3a4 0 MusicPlayerPrivate::timePositionHandler
FUNC bc03c 24 0 MusicPlayerPrivate::quitHandler
FUNC bc060 64 0 MusicPlayerPrivate::stopHandler
FUNC bc0c4 1e0 0 MusicPlayerPrivate::endOfFileHandler
FUNC bc2a4 e0 0 MusicPlayerPrivate::unsupportHandler
FUNC bc384 b0 0 MusicPlayerPrivate::exitMusicPlayer
FUNC bc434 d34 0 MusicPlayerPrivate::createUSBFileNamesXml
FUNC bd168 d34 0 MusicPlayerPrivate::createSDFileNamesXml
FUNC bde9c ac 0 MusicPlayerPrivate::musicPlayerSetPlay
FUNC bdf48 84 0 MusicPlayerPrivate::musicPlayerSetPause
FUNC bdfcc 90 0 MusicPlayerPrivate::musicPlayerSetStop
FUNC be05c f0 0 MusicPlayerPrivate::musicPlayerSetExit
FUNC be14c 62c 0 MusicPlayer::onReadyReadStandardOutput
FUNC be778 ac 0 MusicPlayer::onReadyReadStandardError
FUNC be824 94 0 MusicPlayer::onStarted
FUNC be8b8 8c 0 MusicPlayer::onFinished
FUNC be944 78 0 MusicPlayer::onError
FUNC be9bc 78 0 MusicPlayer::onStateChanged
FUNC bea34 20 0 MusicPlayer::Interface::onMusicPlayerPlayMode
FUNC bea54 20 0 MusicPlayer::Interface::onMusicPlayerPlayStatus
FUNC bea74 24 0 MusicPlayer::Interface::onMusicPlayerElapsedInformation
FUNC bea98 28 0 MusicPlayer::Interface::onMusicPlayerID3TagChange
FUNC beac0 24 0 MusicPlayer::Interface::onMusicPlayerFileNames
FUNC beae4 58 0 MusicPlayer::Interface::~Interface
FUNC beb3c 30 0 MusicPlayer::Interface::~Interface
FUNC beb6c 64 0 QScopedPointer<MusicPlayerPrivate, QScopedPointerDeleter<MusicPlayerPrivate> >::operator->
FUNC bebd0 34 0 QScopedPointer<MusicPlayerPrivate, QScopedPointerDeleter<MusicPlayerPrivate> >::QScopedPointer
FUNC bec04 40 0 QScopedPointer<MusicPlayerPrivate, QScopedPointerDeleter<MusicPlayerPrivate> >::~QScopedPointer
FUNC bec44 34 0 QScopedPointerDeleter<MusicPlayerPrivate>::cleanup
FUNC bec78 8c 0 VideoPlayer::videoPlayerRequestFileNames
FUNC bed04 154 0 VideoPlayer::videoPlayerSetPlayStatusToggle
FUNC bee58 cc 0 VideoPlayer::videoPlayerSetShowStatus
FUNC bef24 2e8 0 VideoPlayer::videoPlayerSetPlayStatus
FUNC bf20c bc 0 VideoPlayer::videoPlayerPlayListViewIndex
FUNC bf2c8 1f8 0 VideoPlayer::videoPlayerPlayPreviousListViewIndex
FUNC bf4c0 1e8 0 VideoPlayer::videoPlayerPlayNextListViewIndex
FUNC bf6a8 c8 0 VideoPlayer::videoPlayerSeekToMillesimal
FUNC bf770 e0 0 VideoPlayer::videoPlayerExit
FUNC bf850 1f8 0 VideoPlayer::onDeviceWatcherStatus
FUNC bfa48 84 0 VideoPlayer::onVideoFilePath
FUNC bfacc 34 0 VideoPlayer::onTimeout
FUNC bfb00 5d0 0 VideoPlayer::onReadyReadStandardOutput
FUNC c00d0 94 0 VideoPlayer::onStarted
FUNC c0164 8c 0 VideoPlayer::onFinished
FUNC c01f0 78 0 VideoPlayer::onStateChanged
FUNC c0268 60 0 VideoPlayer::onReadyReadStandardError
FUNC c02c8 ac 0 VideoPlayer::onError
FUNC c0374 a4 0 VideoPlayer::VideoPlayer
FUNC c0418 88 0 VideoPlayer::~VideoPlayer
FUNC c04a0 30 0 VideoPlayer::~VideoPlayer
FUNC c04d0 188 0 VideoPlayerPrivate::VideoPlayerPrivate
FUNC c0658 140 0 VideoPlayerPrivate::~VideoPlayerPrivate
FUNC c0798 c0 0 VideoPlayerPrivate::initialize
FUNC c0858 2dc 0 VideoPlayerPrivate::connectAllSlots
FUNC c0b34 fd4 0 VideoPlayerPrivate::playVideoIndex
FUNC c1b08 50 0 VideoPlayerPrivate::setPlayStatus
FUNC c1b58 1e8 0 VideoPlayerPrivate::pauseToggleHandler
FUNC c1d40 20 0 VideoPlayerPrivate::startHandler
FUNC c1d60 3fc 0 VideoPlayerPrivate::endTimePositionHandler
FUNC c215c 12c 0 VideoPlayerPrivate::millesimalHandler
FUNC c2288 320 0 VideoPlayerPrivate::timePositionHandler
FUNC c25a8 44 0 VideoPlayerPrivate::getPathList
FUNC c25ec fc 0 VideoPlayerPrivate::endOfFileHandler
FUNC c26e8 168 0 VideoPlayerPrivate::unsupportHandler
FUNC c2850 348 0 VideoPlayerPrivate::seekToMillesimal
FUNC c2b98 d34 0 VideoPlayerPrivate::createSDFileNamesXml
FUNC c38cc dec 0 VideoPlayerPrivate::createUSBFileNamesXml
FUNC c46b8 88 0 VideoPlayerPrivate::videoPlayerSetPlay
FUNC c4740 13c 0 VideoPlayerPrivate::videoPlayerSetSuspend
FUNC c487c 130 0 VideoPlayerPrivate::videoPlayerSetPause
FUNC c49ac f4 0 VideoPlayerPrivate::videoPlayerSetExit
FUNC c4aa0 168 0 VideoPlayerPrivate::exitVideoPlayer
FUNC c4c08 20 0 VideoPlayer::Interface::onVideoPlayerShowStatus
FUNC c4c28 20 0 VideoPlayer::Interface::onVideoPlayerPlayStatus
FUNC c4c48 24 0 VideoPlayer::Interface::onVideoPlayerFileNames
FUNC c4c6c 28 0 VideoPlayer::Interface::onVideoPlayerInformation
FUNC c4c94 24 0 VideoPlayer::Interface::onVideoPlayerElapsedInformation
FUNC c4cb8 24 0 QChar::unicode
FUNC c4cdc 58 0 operator==
FUNC c4d34 10c 0 QString::operator+=
FUNC c4e40 58 0 VideoPlayer::Interface::~Interface
FUNC c4e98 30 0 VideoPlayer::Interface::~Interface
FUNC c4ec8 64 0 QScopedPointer<VideoPlayerPrivate, QScopedPointerDeleter<VideoPlayerPrivate> >::operator->
FUNC c4f2c 34 0 QScopedPointer<VideoPlayerPrivate, QScopedPointerDeleter<VideoPlayerPrivate> >::QScopedPointer
FUNC c4f60 40 0 QScopedPointer<VideoPlayerPrivate, QScopedPointerDeleter<VideoPlayerPrivate> >::~QScopedPointer
FUNC c4fa0 34 0 QScopedPointerDeleter<VideoPlayerPrivate>::cleanup
FUNC c4fd4 7c 0 LocalDbusServerMultimediaInterface::LocalDbusServerMultimediaInterface
FUNC c5050 64 0 LocalDbusServerMultimediaInterface::~LocalDbusServerMultimediaInterface
FUNC c50b4 30 0 LocalDbusServerMultimediaInterface::~LocalDbusServerMultimediaInterface
FUNC c50e4 24 0 LocalDbusServerMultimediaInterface::staticInterfaceName
FUNC c5108 34 0 MultimediaSettings::clear
FUNC c513c 34 0 MultimediaSettings::sync
FUNC c5170 158 0 MultimediaSettings::setValue
FUNC c52c8 29c 0 MultimediaSettings::MultimediaSettings
FUNC c5564 10c 0 MultimediaSettings::~MultimediaSettings
FUNC c5670 30 0 MultimediaSettings::~MultimediaSettings
FUNC c56a0 190 0 MultimediaPersistent::getMusicMillesmial
FUNC c5830 1a8 0 MultimediaPersistent::getMusicPathInfo
FUNC c59d8 1a8 0 MultimediaPersistent::getImagePathInfo
FUNC c5b80 190 0 MultimediaPersistent::getVideoMillesmial
FUNC c5d10 1a8 0 MultimediaPersistent::getVideoPathInfo
FUNC c5eb8 128 0 MultimediaPersistent::setMultimediaType
FUNC c5fe0 f8 0 MultimediaPersistent::setMusicMillesmial
FUNC c60d8 f8 0 MultimediaPersistent::setMusicPathInfo
FUNC c61d0 f8 0 MultimediaPersistent::setImagePathInfo
FUNC c62c8 f8 0 MultimediaPersistent::setVideoMillesmial
FUNC c63c0 f8 0 MultimediaPersistent::setVideoPathInfo
FUNC c64b8 190 0 MultimediaPersistent::getMultimediaType
FUNC c6648 2c 0 MultimediaPersistent::reset
FUNC c6674 24 0 MultimediaPersistent::MultimediaPersistent
FUNC c6698 24 0 MultimediaPersistent::~MultimediaPersistent
FUNC c66bc 538 0 __static_initialization_and_destruction_0
FUNC c6bf4 1c 0 _GLOBAL__sub_I_MultimediaPersistent.cpp
FUNC c6c10 e4 0 MultimediaSettings::instance
FUNC c6cf4 a4 0 DiskDetach::DiskDetach
FUNC c6d98 88 0 DiskDetach::~DiskDetach
FUNC c6e20 30 0 DiskDetach::~DiskDetach
FUNC c6e50 2c0 0 DiskDetach::onTimeout
FUNC c7110 c24 0 DiskDetach::onDiskDeviceChange
FUNC c7d34 b0 0 DiskDetachPrivate::DiskDetachPrivate
FUNC c7de4 58 0 DiskDetachPrivate::~DiskDetachPrivate
FUNC c7e3c 108 0 DiskDetachPrivate::initialize
FUNC c7f44 128 0 DiskDetachPrivate::connectAllSlots
FUNC c806c 7c 0 DiskDetachPrivate::regExpUSBPath
FUNC c80e8 7c 0 DiskDetachPrivate::regExpSDPath
FUNC c8164 58 0 operator>
FUNC c81bc 34 0 QScopedPointer<DiskDetachPrivate, QScopedPointerDeleter<DiskDetachPrivate> >::QScopedPointer
FUNC c81f0 40 0 QScopedPointer<DiskDetachPrivate, QScopedPointerDeleter<DiskDetachPrivate> >::~QScopedPointer
FUNC c8230 64 0 QScopedPointer<DiskDetachPrivate, QScopedPointerDeleter<DiskDetachPrivate> >::operator->
FUNC c8294 34 0 QScopedPointerDeleter<DiskDetachPrivate>::cleanup
FUNC c82c8 70 0 MultimediaService::metaObject
FUNC c8338 74 0 MultimediaService::qt_metacast
FUNC c83ac 724 0 MultimediaService::qt_metacall
FUNC c8ad0 88 0 MultimediaService::onDeviceWatcherStatus
FUNC c8b58 64 0 MultimediaService::onMusicPlayerPlayMode
FUNC c8bbc 64 0 MultimediaService::onMusicPlayerPlayStatus
FUNC c8c20 88 0 MultimediaService::onMusicPlayerElapsedInformation
FUNC c8ca8 b4 0 MultimediaService::onMusicPlayerID3TagChange
FUNC c8d5c 88 0 MultimediaService::onMusicPlayerFileNames
FUNC c8de4 88 0 MultimediaService::onImagePlayerFileNames
FUNC c8e6c 64 0 MultimediaService::onImagePlayerPlayStatus
FUNC c8ed0 c8 0 MultimediaService::onImagePlayerChange
FUNC c8f98 64 0 MultimediaService::onVideoPlayerShowStatus
FUNC c8ffc 64 0 MultimediaService::onVideoPlayerPlayStatus
FUNC c9060 88 0 MultimediaService::onVideoPlayerFileNames
FUNC c90e8 b4 0 MultimediaService::onVideoPlayerInformation
FUNC c919c 88 0 MultimediaService::onVideoPlayerElapsedInformation
FUNC c9224 70 0 DeviceWatcher::metaObject
FUNC c9294 74 0 DeviceWatcher::qt_metacast
FUNC c9308 2a8 0 DeviceWatcher::qt_metacall
FUNC c95b0 88 0 DeviceWatcher::onDeviceWatcherStatus
FUNC c9638 88 0 DeviceWatcher::onMusicFilePath
FUNC c96c0 88 0 DeviceWatcher::onImageFilePath
FUNC c9748 88 0 DeviceWatcher::onVideoFilePath
FUNC c97d0 70 0 ImagePlayer::metaObject
FUNC c9840 74 0 ImagePlayer::qt_metacast
FUNC c98b4 1c0 0 ImagePlayer::qt_metacall
FUNC c9a74 88 0 ImagePlayer::onImagePlayerFileNames
FUNC c9afc 64 0 ImagePlayer::onImagePlayerPlayStatus
FUNC c9b60 c8 0 ImagePlayer::onImagePlayerChange
FUNC c9c28 70 0 MusicPlayer::metaObject
FUNC c9c98 74 0 MusicPlayer::qt_metacast
FUNC c9d0c 2b8 0 MusicPlayer::qt_metacall
FUNC c9fc4 64 0 MusicPlayer::onMusicPlayerPlayMode
FUNC ca028 64 0 MusicPlayer::onMusicPlayerPlayStatus
FUNC ca08c 88 0 MusicPlayer::onMusicPlayerElapsedInformation
FUNC ca114 b4 0 MusicPlayer::onMusicPlayerID3TagChange
FUNC ca1c8 88 0 MusicPlayer::onMusicPlayerFileNames
FUNC ca250 70 0 VideoPlayer::metaObject
FUNC ca2c0 74 0 VideoPlayer::qt_metacast
FUNC ca334 2b8 0 VideoPlayer::qt_metacall
FUNC ca5ec 64 0 VideoPlayer::onVideoPlayerShowStatus
FUNC ca650 64 0 VideoPlayer::onVideoPlayerPlayStatus
FUNC ca6b4 88 0 VideoPlayer::onVideoPlayerFileNames
FUNC ca73c b4 0 VideoPlayer::onVideoPlayerInformation
FUNC ca7f0 88 0 VideoPlayer::onVideoPlayerElapsedInformation
FUNC ca878 70 0 LocalDbusServerMultimediaInterface::metaObject
FUNC ca8e8 74 0 LocalDbusServerMultimediaInterface::qt_metacast
FUNC ca95c 10a8 0 LocalDbusServerMultimediaInterface::qt_metacall
FUNC cba04 88 0 LocalDbusServerMultimediaInterface::onDeviceWatcherStatus
FUNC cba8c c8 0 LocalDbusServerMultimediaInterface::onImagePlayerChange
FUNC cbb54 88 0 LocalDbusServerMultimediaInterface::onImagePlayerFileNames
FUNC cbbdc 64 0 LocalDbusServerMultimediaInterface::onImagePlayerPlayStatus
FUNC cbc40 88 0 LocalDbusServerMultimediaInterface::onMusicPlayerElapsedInformation
FUNC cbcc8 88 0 LocalDbusServerMultimediaInterface::onMusicPlayerFileNames
FUNC cbd50 b4 0 LocalDbusServerMultimediaInterface::onMusicPlayerID3TagChange
FUNC cbe04 64 0 LocalDbusServerMultimediaInterface::onMusicPlayerPlayMode
FUNC cbe68 64 0 LocalDbusServerMultimediaInterface::onMusicPlayerPlayStatus
FUNC cbecc 88 0 LocalDbusServerMultimediaInterface::onVideoPlayerElapsedInformation
FUNC cbf54 88 0 LocalDbusServerMultimediaInterface::onVideoPlayerFileNames
FUNC cbfdc b4 0 LocalDbusServerMultimediaInterface::onVideoPlayerInformation
FUNC cc090 64 0 LocalDbusServerMultimediaInterface::onVideoPlayerPlayStatus
FUNC cc0f4 64 0 LocalDbusServerMultimediaInterface::onVideoPlayerShowStatus
FUNC cc158 e0 0 LocalDbusServerMultimediaInterface::synchronize
FUNC cc238 70 0 DiskDetach::metaObject
FUNC cc2a8 74 0 DiskDetach::qt_metacast
FUNC cc31c 134 0 DiskDetach::qt_metacall
FUNC cc450 88 0 DiskDetach::diskPartition
FUNC cc4d8 a4 0 DiskScanner::DiskScanner
FUNC cc57c 88 0 DiskScanner::~DiskScanner
FUNC cc604 30 0 DiskScanner::~DiskScanner
FUNC cc634 1c8 0 DiskScanner::setScannerSuffixMap
FUNC cc7fc 40 0 DiskScanner::setMinimumScanTime
FUNC cc83c 174 0 DiskScanner::startScanner
FUNC cc9b0 198 0 DiskScanner::stopScanner
FUNC ccb48 1b4 0 DiskScanner::onFinish
FUNC cccfc 12c 0 DiskScanner::onTimeout
FUNC cce28 fc 0 DiskScannerPrivate::DiskScannerPrivate
FUNC ccf24 dc 0 DiskScannerPrivate::~DiskScannerPrivate
FUNC cd000 d4 0 DiskScannerPrivate::initialize
FUNC cd0d4 d0 0 DiskScannerPrivate::connectAllSlots
FUNC cd1a4 630 0 DiskScannerPrivate::recursionScan
FUNC cd7d4 22c 0 DiskScannerPrivate::scanFinish
FUNC cda00 70 0 scannerThreadCallback
FUNC cda70 34 0 QScopedPointer<DiskScannerPrivate, QScopedPointerDeleter<DiskScannerPrivate> >::QScopedPointer
FUNC cdaa4 40 0 QScopedPointer<DiskScannerPrivate, QScopedPointerDeleter<DiskScannerPrivate> >::~QScopedPointer
FUNC cdae4 64 0 QScopedPointer<DiskScannerPrivate, QScopedPointerDeleter<DiskScannerPrivate> >::operator->
FUNC cdb48 c8 0 QMap<int, QStringList>::operator=
FUNC cdc10 44 0 QMap<int, QStringList>::begin
FUNC cdc54 40 0 QMap<int, QStringList>::end
FUNC cdc94 44 0 QMap<int, QStringList>::iterator::operator!=
FUNC cdcd8 38 0 QMap<int, QStringList>::iterator::operator++
FUNC cdd10 34 0 QMap<int, QStringList>::iterator::value
FUNC cdd44 2c 0 QQueue<QString>::QQueue
FUNC cdd70 2c 0 QQueue<QString>::~QQueue
FUNC cdd9c 2c 0 QQueue<QString>::enqueue
FUNC cddc8 34 0 QQueue<QString>::dequeue
FUNC cddfc 30 0 QMap<int, QStringList>::iterator::key
FUNC cde2c 24 0 QList<QString>::node_destruct
FUNC cde50 34 0 QScopedPointerDeleter<DiskScannerPrivate>::cleanup
FUNC cde84 50 0 QList<QString>::takeFirst
FUNC cded4 84 0 QList<QString>::first
FUNC cdf58 88 0 QList<QString>::removeFirst
FUNC cdfe0 44 0 QList<QString>::begin
FUNC ce024 60 0 QList<QString>::erase
FUNC ce084 70 0 DiskScanner::metaObject
FUNC ce0f4 74 0 DiskScanner::qt_metacast
FUNC ce168 ec 0 DiskScanner::qt_metacall
FUNC ce254 48 0 DiskScanner::finish
FUNC ce29c 88 0 DiskScanner::filePath
FUNC ce324 2c0 0 appFilePathSuffix
FUNC ce5e4 6e4 0 singleApplication
FUNC cecc8 3c 0 acquireApplication
FUNC ced04 30 0 releaseApplication
FUNC ced34 bc 0 acquirePreemptiveResource
FUNC cedf0 3c 0 clearOwner
FUNC cee2c 108 0 initializeArkVideoResources
FUNC cef34 90 0 hideArkStartupLogo
FUNC cefc4 ce4 0 perform_calibration
FUNC cfca8 38 0 sort_by_x
FUNC cfce0 38 0 sort_by_y
FUNC cfd18 33c 0 getxy
FUNC d0054 27c 0 get_sample
FUNC d02d0 468 0 startCalibratre
FUNC d0738 1dc 0 compilerDate
FUNC d0914 cf8 0 osVersion
FUNC d160c 90 0 __static_initialization_and_destruction_0
FUNC d169c 1c 0 _GLOBAL__sub_I_Utility.cpp
FUNC d16b8 4c 0 std::operator+<char, std::char_traits<char>, std::allocator<char> >
FUNC d1704 ac 0 CustomRunnable::CustomRunnable
FUNC d17b0 128 0 CustomRunnable::~CustomRunnable
FUNC d18d8 30 0 CustomRunnable::~CustomRunnable
FUNC d1908 58 0 CustomRunnable::setCallbackFunction
FUNC d1960 80 0 CustomRunnable::run
FUNC d19e0 4c 0 CustomRunnablePrivate::CustomRunnablePrivate
FUNC d1a2c 24 0 CustomRunnablePrivate::~CustomRunnablePrivate
FUNC d1a50 a4 0 CustomThread::CustomThread
FUNC d1af4 88 0 CustomThread::~CustomThread
FUNC d1b7c 30 0 CustomThread::~CustomThread
FUNC d1bac 58 0 CustomThread::setCallbackFunction
FUNC d1c04 3c 0 CustomThread::setEventLoop
FUNC d1c40 24 0 CustomThread::setusleep
FUNC d1c64 80 0 CustomThread::callbackFunctionSlots
FUNC d1ce4 b0 0 CustomThread::run
FUNC d1d94 58 0 CustomThreadPrivate::CustomThreadPrivate
FUNC d1dec 24 0 CustomThreadPrivate::~CustomThreadPrivate
FUNC d1e10 54 0 QRunnable::QRunnable
FUNC d1e64 58 0 QRunnable::~QRunnable
FUNC d1ebc 30 0 QRunnable::~QRunnable
FUNC d1eec 44 0 QRunnable::setAutoDelete
FUNC d1f30 34 0 QScopedPointer<CustomRunnablePrivate, QScopedPointerDeleter<CustomRunnablePrivate> >::QScopedPointer
FUNC d1f64 40 0 QScopedPointer<CustomRunnablePrivate, QScopedPointerDeleter<CustomRunnablePrivate> >::~QScopedPointer
FUNC d1fa4 64 0 QScopedPointer<CustomRunnablePrivate, QScopedPointerDeleter<CustomRunnablePrivate> >::operator->
FUNC d2008 34 0 QScopedPointer<CustomThreadPrivate, QScopedPointerDeleter<CustomThreadPrivate> >::QScopedPointer
FUNC d203c 40 0 QScopedPointer<CustomThreadPrivate, QScopedPointerDeleter<CustomThreadPrivate> >::~QScopedPointer
FUNC d207c 64 0 QScopedPointer<CustomThreadPrivate, QScopedPointerDeleter<CustomThreadPrivate> >::operator->
FUNC d20e0 34 0 QScopedPointerDeleter<CustomRunnablePrivate>::cleanup
FUNC d2114 34 0 QScopedPointerDeleter<CustomThreadPrivate>::cleanup
FUNC d2148 a4 0 DiskDeviceWatcher::DiskDeviceWatcher
FUNC d21ec 88 0 DiskDeviceWatcher::~DiskDeviceWatcher
FUNC d2274 30 0 DiskDeviceWatcher::~DiskDeviceWatcher
FUNC d22a4 2c8 0 DiskDeviceWatcher::onSocketNotifier
FUNC d256c 7c 0 DiskDeviceWatcherPrivate::DiskDeviceWatcherPrivate
FUNC d25e8 30 0 DiskDeviceWatcherPrivate::~DiskDeviceWatcherPrivate
FUNC d2618 1fc 0 DiskDeviceWatcherPrivate::initialize
FUNC d2814 3b4 0 DiskDeviceWatcherPrivate::parseLine
FUNC d2bc8 2c 0 QByteArray::length
FUNC d2bf4 30 0 QByteArray::operator+=
FUNC d2c24 78 0 operator+
FUNC d2c9c 58 0 QByteArray::contains
FUNC d2cf4 28 0 QSocketNotifier::socket
FUNC d2d1c 34 0 QScopedPointer<DiskDeviceWatcherPrivate, QScopedPointerDeleter<DiskDeviceWatcherPrivate> >::QScopedPointer
FUNC d2d50 40 0 QScopedPointer<DiskDeviceWatcherPrivate, QScopedPointerDeleter<DiskDeviceWatcherPrivate> >::~QScopedPointer
FUNC d2d90 64 0 QScopedPointer<DiskDeviceWatcherPrivate, QScopedPointerDeleter<DiskDeviceWatcherPrivate> >::operator->
FUNC d2df4 34 0 QScopedPointerDeleter<DiskDeviceWatcherPrivate>::cleanup
FUNC d2e28 70 0 DiskDeviceWatcher::metaObject
FUNC d2e98 74 0 DiskDeviceWatcher::qt_metacast
FUNC d2f0c cc 0 DiskDeviceWatcher::qt_metacall
FUNC d2fd8 88 0 DiskDeviceWatcher::diskDeviceChange
STACK CFI INIT ffb4 14 .cfa: sp 0 + .ra: lr
STACK CFI ffb8 .cfa: sp 4 + r11: .cfa -4 + ^
STACK CFI ffbc .cfa: r11 4 +
STACK CFI INIT ffc8 38 .cfa: sp 0 + .ra: lr
STACK CFI ffcc .cfa: sp 4 + r11: .cfa -4 + ^
STACK CFI ffd0 .cfa: r11 4 +
STACK CFI INIT 10000 28 .cfa: sp 0 + .ra: lr
STACK CFI 10004 .cfa: sp 4 + r11: .cfa -4 + ^
STACK CFI 10008 .cfa: r11 4 +
STACK CFI INIT 10028 40 .cfa: sp 0 + .ra: lr
STACK CFI 1002c .cfa: sp 8 + .ra: .cfa -4 + ^ r11: .cfa -8 + ^
STACK CFI 10030 .cfa: r11 4 +
STACK CFI INIT 10068 40 .cfa: sp 0 + .ra: lr
STACK CFI 1006c .cfa: sp 4 + r11: .cfa -4 + ^
STACK CFI 10070 .cfa: r11 4 +
STACK CFI INIT 100a8 6c .cfa: sp 0 + .ra: lr
STACK CFI 100ac .cfa: sp 16 + .ra: .cfa -4 + ^ r11: .cfa -8 + ^ r4: .cfa -16 + ^ r5: .cfa -12 + ^
STACK CFI 100b0 .cfa: r11 4 +
STACK CFI INIT 10114 6c .cfa: sp 0 + .ra: lr
STACK CFI 10118 .cfa: sp 16 + .ra: .cfa -4 + ^ r11: .cfa -8 + ^ r4: .cfa -16 + ^ r5: .cfa -12 + ^
STACK CFI 1011c .cfa: r11 4 +
STACK CFI INIT 10180 54 .cfa: sp 0 + .ra: lr
STACK CFI 10184 .cfa: sp 8 + .ra: .cfa -4 + ^ r11: .cfa -8 + ^
STACK CFI 10188 .cfa: r11 4 +
STACK CFI INIT 101d4 30 .cfa: sp 0 + .ra: lr
STACK CFI 101d8 .cfa: sp 8 + .ra: .cfa -4 + ^ r11: .cfa -8 + ^
STACK CFI 101dc .cfa: r11 4 +
STACK CFI INIT 10204 2c .cfa: sp 0 + .ra: lr
STACK CFI 10208 .cfa: sp 4 + r11: .cfa -4 + ^
STACK CFI 1020c .cfa: r11 4 +
STACK CFI INIT 10230 84 .cfa: sp 0 + .ra: lr
STACK CFI 10234 .cfa: sp 8 + .ra: .cfa -4 + ^ r11: .cfa -8 + ^
STACK CFI 10238 .cfa: r11 4 +
STACK CFI INIT 102b4 30 .cfa: sp 0 + .ra: lr
STACK CFI 102b8 .cfa: sp 8 + .ra: .cfa -4 + ^ r11: .cfa -8 + ^
STACK CFI 102bc .cfa: r11 4 +
STACK CFI INIT 102e4 3c .cfa: sp 0 + .ra: lr
STACK CFI 102e8 .cfa: sp 8 + .ra: .cfa -4 + ^ r11: .cfa -8 + ^
STACK CFI 102ec .cfa: r11 4 +
STACK CFI INIT 10320 78 .cfa: sp 0 + .ra: lr
STACK CFI 10324 .cfa: sp 8 + .ra: .cfa -4 + ^ r11: .cfa -8 + ^
STACK CFI 10328 .cfa: r11 4 +
STACK CFI INIT 10398 5c .cfa: sp 0 + .ra: lr
STACK CFI 1039c .cfa: sp 8 + .ra: .cfa -4 + ^ r11: .cfa -8 + ^
STACK CFI 103a0 .cfa: r11 4 +
STACK CFI INIT 103f4 40 .cfa: sp 0 + .ra: lr
STACK CFI 103f8 .cfa: sp 8 + .ra: .cfa -4 + ^ r11: .cfa -8 + ^
STACK CFI 103fc .cfa: r11 4 +
STACK CFI INIT 10434 54 .cfa: sp 0 + .ra: lr
STACK CFI 10438 .cfa: sp 8 + .ra: .cfa -4 + ^ r11: .cfa -8 + ^
STACK CFI 1043c .cfa: r11 4 +
STACK CFI INIT 10488 4c .cfa: sp 0 + .ra: lr
STACK CFI 1048c .cfa: sp 8 + .ra: .cfa -4 + ^ r11: .cfa -8 + ^
STACK CFI 10490 .cfa: r11 4 +
STACK CFI INIT 104d4 a8 .cfa: sp 0 + .ra: lr
STACK CFI 104d8 .cfa: sp 16 + .ra: .cfa -4 + ^ r11: .cfa -8 + ^ r4: .cfa -16 + ^ r5: .cfa -12 + ^
STACK CFI 104dc .cfa: r11 4 +
STACK CFI INIT 1057c 54 .cfa: sp 0 + .ra: lr
STACK CFI 10580 .cfa: sp 12 + .ra: .cfa -4 + ^ r11: .cfa -8 + ^ r4: .cfa -12 + ^
STACK CFI 10584 .cfa: r11 4 +
STACK CFI INIT 105d0 50 .cfa: sp 0 + .ra: lr
STACK CFI 105d4 .cfa: sp 8 + .ra: .cfa -4 + ^ r11: .cfa -8 + ^
STACK CFI 105d8 .cfa: r11 4 +
STACK CFI INIT 10620 e8 .cfa: sp 0 + .ra: lr
STACK CFI 10624 .cfa: sp 12 + .ra: .cfa -4 + ^ r11: .cfa -8 + ^ r4: .cfa -12 + ^
STACK CFI 10628 .cfa: r11 4 +
STACK CFI INIT 10708 48 .cfa: sp 0 + .ra: lr
STACK CFI 1070c .cfa: sp 8 + .ra: .cfa -4 + ^ r11: .cfa -8 + ^
STACK CFI 10710 .cfa: r11 4 +
STACK CFI INIT 10750 40 .cfa: sp 0 + .ra: lr
STACK CFI 10754 .cfa: sp 8 + .ra: .cfa -4 + ^ r11: .cfa -8 + ^
STACK CFI 10758 .cfa: r11 4 +
STACK CFI INIT 10790 7c .cfa: sp 0 + .ra: lr
STACK CFI 10794 .cfa: sp 12 + .ra: .cfa -4 + ^ r11: .cfa -8 + ^ r4: .cfa -12 + ^
STACK CFI 10798 .cfa: r11 4 +
STACK CFI INIT 1080c 60 .cfa: sp 0 + .ra: lr
STACK CFI 10810 .cfa: sp 8 + .ra: .cfa -4 + ^ r11: .cfa -8 + ^
STACK CFI 10814 .cfa: r11 4 +
STACK CFI INIT 1086c 28 .cfa: sp 0 + .ra: lr
STACK CFI 10870 .cfa: sp 8 + .ra: .cfa -4 + ^ r11: .cfa -8 + ^
STACK CFI 10874 .cfa: r11 4 +
STACK CFI INIT 10894 60 .cfa: sp 0 + .ra: lr
STACK CFI 10898 .cfa: sp 12 + .ra: .cfa -4 + ^ r11: .cfa -8 + ^ r4: .cfa -12 + ^
STACK CFI 1089c .cfa: r11 4 +
STACK CFI INIT 108f4 2c .cfa: sp 0 + .ra: lr
STACK CFI 108f8 .cfa: sp 4 + r11: .cfa -4 + ^
STACK CFI 108fc .cfa: r11 4 +
STACK CFI INIT 10920 2c .cfa: sp 0 + .ra: lr
STACK CFI 10924 .cfa: sp 4 + r11: .cfa -4 + ^
STACK CFI 10928 .cfa: r11 4 +
STACK CFI INIT f1d8 804 .cfa: sp 0 + .ra: lr
STACK CFI f1dc .cfa: sp 16 + .ra: .cfa -4 + ^ r11: .cfa -8 + ^ r4: .cfa -16 + ^ r5: .cfa -12 + ^
STACK CFI f1e0 .cfa: r11 4 +
STACK CFI INIT f9dc 424 .cfa: sp 0 + .ra: lr
STACK CFI f9e0 .cfa: sp 8 + .ra: .cfa -4 + ^ r11: .cfa -8 + ^
STACK CFI f9e4 .cfa: r11 4 +
STACK CFI INIT fe00 c8 .cfa: sp 0 + .ra: lr
STACK CFI fe04 .cfa: sp 8 + .ra: .cfa -4 + ^ r11: .cfa -8 + ^
STACK CFI fe08 .cfa: r11 4 +
STACK CFI INIT 1094c 34 .cfa: sp 0 + .ra: lr
STACK CFI 10950 .cfa: sp 4 + r11: .cfa -4 + ^
STACK CFI 10954 .cfa: r11 4 +
STACK CFI INIT fec8 d0 .cfa: sp 0 + .ra: lr
STACK CFI fecc .cfa: sp 8 + .ra: .cfa -4 + ^ r11: .cfa -8 + ^
STACK CFI fed0 .cfa: r11 4 +
STACK CFI INIT ff98 1c .cfa: sp 0 + .ra: lr
STACK CFI ff9c .cfa: sp 8 + .ra: .cfa -4 + ^ r11: .cfa -8 + ^
STACK CFI ffa0 .cfa: r11 4 +
STACK CFI INIT ffb4 14 .cfa: sp 0 + .ra: lr
STACK CFI ffb8 .cfa: sp 4 + r11: .cfa -4 + ^
STACK CFI ffbc .cfa: r11 4 +
STACK CFI INIT 13b60 4c .cfa: sp 0 + .ra: lr
STACK CFI 13b64 .cfa: sp 8 + .ra: .cfa -4 + ^ r11: .cfa -8 + ^
STACK CFI 13b68 .cfa: r11 4 +
STACK CFI INIT 13bac 40 .cfa: sp 0 + .ra: lr
STACK CFI 13bb0 .cfa: sp 4 + r11: .cfa -4 + ^
STACK CFI 13bb4 .cfa: r11 4 +
STACK CFI INIT 10068 40 .cfa: sp 0 + .ra: lr
STACK CFI 1006c .cfa: sp 4 + r11: .cfa -4 + ^
STACK CFI 10070 .cfa: r11 4 +
STACK CFI INIT 100a8 6c .cfa: sp 0 + .ra: lr
STACK CFI 100ac .cfa: sp 16 + .ra: .cfa -4 + ^ r11: .cfa -8 + ^ r4: .cfa -16 + ^ r5: .cfa -12 + ^
STACK CFI 100b0 .cfa: r11 4 +
STACK CFI INIT 10114 6c .cfa: sp 0 + .ra: lr
STACK CFI 10118 .cfa: sp 16 + .ra: .cfa -4 + ^ r11: .cfa -8 + ^ r4: .cfa -16 + ^ r5: .cfa -12 + ^
STACK CFI 1011c .cfa: r11 4 +
STACK CFI INIT 13bec 40 .cfa: sp 0 + .ra: lr
STACK CFI 13bf0 .cfa: sp 8 + .ra: .cfa -4 + ^ r11: .cfa -8 + ^
STACK CFI 13bf4 .cfa: r11 4 +
STACK CFI INIT 10180 54 .cfa: sp 0 + .ra: lr
STACK CFI 10184 .cfa: sp 8 + .ra: .cfa -4 + ^ r11: .cfa -8 + ^
STACK CFI 10188 .cfa: r11 4 +
STACK CFI INIT 101d4 30 .cfa: sp 0 + .ra: lr
STACK CFI 101d8 .cfa: sp 8 + .ra: .cfa -4 + ^ r11: .cfa -8 + ^
STACK CFI 101dc .cfa: r11 4 +
STACK CFI INIT 10204 2c .cfa: sp 0 + .ra: lr
STACK CFI 10208 .cfa: sp 4 + r11: .cfa -4 + ^
STACK CFI 1020c .cfa: r11 4 +
STACK CFI INIT 10230 84 .cfa: sp 0 + .ra: lr
STACK CFI 10234 .cfa: sp 8 + .ra: .cfa -4 + ^ r11: .cfa -8 + ^
STACK CFI 10238 .cfa: r11 4 +
STACK CFI INIT 13c2c 44 .cfa: sp 0 + .ra: lr
STACK CFI 13c30 .cfa: sp 8 + .ra: .cfa -4 + ^ r11: .cfa -8 + ^
STACK CFI 13c34 .cfa: r11 4 +
STACK CFI INIT 13c70 28 .cfa: sp 0 + .ra: lr
STACK CFI 13c74 .cfa: sp 4 + r11: .cfa -4 + ^
STACK CFI 13c78 .cfa: r11 4 +
STACK CFI INIT 13c98 20 .cfa: sp 0 + .ra: lr
STACK CFI 13c9c .cfa: sp 4 + r11: .cfa -4 + ^
STACK CFI 13ca0 .cfa: r11 4 +
STACK CFI INIT 102e4 3c .cfa: sp 0 + .ra: lr
STACK CFI 102e8 .cfa: sp 8 + .ra: .cfa -4 + ^ r11: .cfa -8 + ^
STACK CFI 102ec .cfa: r11 4 +
STACK CFI INIT 10320 78 .cfa: sp 0 + .ra: lr
STACK CFI 10324 .cfa: sp 8 + .ra: .cfa -4 + ^ r11: .cfa -8 + ^
STACK CFI 10328 .cfa: r11 4 +
STACK CFI INIT 103f4 40 .cfa: sp 0 + .ra: lr
STACK CFI 103f8 .cfa: sp 8 + .ra: .cfa -4 + ^ r11: .cfa -8 + ^
STACK CFI 103fc .cfa: r11 4 +
STACK CFI INIT 10434 54 .cfa: sp 0 + .ra: lr
STACK CFI 10438 .cfa: sp 8 + .ra: .cfa -4 + ^ r11: .cfa -8 + ^
STACK CFI 1043c .cfa: r11 4 +
STACK CFI INIT 13cb8 40 .cfa: sp 0 + .ra: lr
STACK CFI 13cbc .cfa: sp 8 + .ra: .cfa -4 + ^ r11: .cfa -8 + ^
STACK CFI 13cc0 .cfa: r11 4 +
STACK CFI INIT 13cf8 28 .cfa: sp 0 + .ra: lr
STACK CFI 13cfc .cfa: sp 4 + r11: .cfa -4 + ^
STACK CFI 13d00 .cfa: r11 4 +
STACK CFI INIT 13d20 5c .cfa: sp 0 + .ra: lr
STACK CFI 13d24 .cfa: sp 4 + r11: .cfa -4 + ^
STACK CFI 13d28 .cfa: r11 4 +
STACK CFI INIT 13d7c 78 .cfa: sp 0 + .ra: lr
STACK CFI 13d80 .cfa: sp 4 + r11: .cfa -4 + ^
STACK CFI 13d84 .cfa: r11 4 +
STACK CFI INIT 13df4 28 .cfa: sp 0 + .ra: lr
STACK CFI 13df8 .cfa: sp 4 + r11: .cfa -4 + ^
STACK CFI 13dfc .cfa: r11 4 +
STACK CFI INIT 13e1c 28 .cfa: sp 0 + .ra: lr
STACK CFI 13e20 .cfa: sp 4 + r11: .cfa -4 + ^
STACK CFI 13e24 .cfa: r11 4 +
STACK CFI INIT 13e44 38 .cfa: sp 0 + .ra: lr
STACK CFI 13e48 .cfa: sp 4 + r11: .cfa -4 + ^
STACK CFI 13e4c .cfa: r11 4 +
STACK CFI INIT 13e7c 38 .cfa: sp 0 + .ra: lr
STACK CFI 13e80 .cfa: sp 4 + r11: .cfa -4 + ^
STACK CFI 13e84 .cfa: r11 4 +
STACK CFI INIT 13eb4 60 .cfa: sp 0 + .ra: lr
STACK CFI 13eb8 .cfa: sp 4 + r11: .cfa -4 + ^
STACK CFI 13ebc .cfa: r11 4 +
STACK CFI INIT 13f14 a4 .cfa: sp 0 + .ra: lr
STACK CFI 13f18 .cfa: sp 8 + .ra: .cfa -4 + ^ r11: .cfa -8 + ^
STACK CFI 13f1c .cfa: r11 4 +
STACK CFI INIT 13fb8 24 .cfa: sp 0 + .ra: lr
STACK CFI 13fbc .cfa: sp 4 + r11: .cfa -4 + ^
STACK CFI 13fc0 .cfa: r11 4 +
STACK CFI INIT 13fdc 18 .cfa: sp 0 + .ra: lr
STACK CFI 13fe0 .cfa: sp 8 + .ra: .cfa -4 + ^ r11: .cfa -8 + ^
STACK CFI 13fe4 .cfa: r11 4 +
STACK CFI INIT 13ff4 34 .cfa: sp 0 + .ra: lr
STACK CFI 13ff8 .cfa: sp 4 + r11: .cfa -4 + ^
STACK CFI 13ffc .cfa: r11 4 +
STACK CFI INIT 14028 44 .cfa: sp 0 + .ra: lr
STACK CFI 1402c .cfa: sp 8 + .ra: .cfa -4 + ^ r11: .cfa -8 + ^
STACK CFI 14030 .cfa: r11 4 +
STACK CFI INIT 1406c 30 .cfa: sp 0 + .ra: lr
STACK CFI 14070 .cfa: sp 8 + .ra: .cfa -4 + ^ r11: .cfa -8 + ^
STACK CFI 14074 .cfa: r11 4 +
STACK CFI INIT 1409c b4 .cfa: sp 0 + .ra: lr
STACK CFI 140a0 .cfa: sp 24 + .ra: .cfa -4 + ^ r11: .cfa -8 + ^ r3: .cfa -24 + ^ r4: .cfa -20 + ^ r5: .cfa -16 + ^ r6: .cfa -12 + ^
STACK CFI 140a4 .cfa: r11 4 +
STACK CFI INIT 14150 2c .cfa: sp 0 + .ra: lr
STACK CFI 14154 .cfa: sp 8 + .ra: .cfa -4 + ^ r11: .cfa -8 + ^
STACK CFI 14158 .cfa: r11 4 +
STACK CFI INIT 1417c 70 .cfa: sp 0 + .ra: lr
STACK CFI 14180 .cfa: sp 8 + .ra: .cfa -4 + ^ r11: .cfa -8 + ^
STACK CFI 14184 .cfa: r11 4 +
STACK CFI INIT 141ec 30 .cfa: sp 0 + .ra: lr
STACK CFI 141f0 .cfa: sp 4 + r11: .cfa -4 + ^
STACK CFI 141f4 .cfa: r11 4 +
STACK CFI INIT 104d4 a8 .cfa: sp 0 + .ra: lr
STACK CFI 104d8 .cfa: sp 16 + .ra: .cfa -4 + ^ r11: .cfa -8 + ^ r4: .cfa -16 + ^ r5: .cfa -12 + ^
STACK CFI 104dc .cfa: r11 4 +
STACK CFI INIT 1057c 54 .cfa: sp 0 + .ra: lr
STACK CFI 10580 .cfa: sp 12 + .ra: .cfa -4 + ^ r11: .cfa -8 + ^ r4: .cfa -12 + ^
STACK CFI 10584 .cfa: r11 4 +
STACK CFI INIT 105d0 50 .cfa: sp 0 + .ra: lr
STACK CFI 105d4 .cfa: sp 8 + .ra: .cfa -4 + ^ r11: .cfa -8 + ^
STACK CFI 105d8 .cfa: r11 4 +
STACK CFI INIT 10620 e8 .cfa: sp 0 + .ra: lr
STACK CFI 10624 .cfa: sp 12 + .ra: .cfa -4 + ^ r11: .cfa -8 + ^ r4: .cfa -12 + ^
STACK CFI 10628 .cfa: r11 4 +
STACK CFI INIT 10708 48 .cfa: sp 0 + .ra: lr
STACK CFI 1070c .cfa: sp 8 + .ra: .cfa -4 + ^ r11: .cfa -8 + ^
STACK CFI 10710 .cfa: r11 4 +
STACK CFI INIT 10750 40 .cfa: sp 0 + .ra: lr
STACK CFI 10754 .cfa: sp 8 + .ra: .cfa -4 + ^ r11: .cfa -8 + ^
STACK CFI 10758 .cfa: r11 4 +
STACK CFI INIT 10790 7c .cfa: sp 0 + .ra: lr
STACK CFI 10794 .cfa: sp 12 + .ra: .cfa -4 + ^ r11: .cfa -8 + ^ r4: .cfa -12 + ^
STACK CFI 10798 .cfa: r11 4 +
STACK CFI INIT 1421c 40 .cfa: sp 0 + .ra: lr
STACK CFI 14220 .cfa: sp 8 + .ra: .cfa -4 + ^ r11: .cfa -8 + ^
STACK CFI 14224 .cfa: r11 4 +
STACK CFI INIT 1425c 28 .cfa: sp 0 + .ra: lr
STACK CFI 14260 .cfa: sp 8 + .ra: .cfa -4 + ^ r11: .cfa -8 + ^
STACK CFI 14264 .cfa: r11 4 +
STACK CFI INIT 14284 98 .cfa: sp 0 + .ra: lr
STACK CFI 14288 .cfa: sp 16 + .ra: .cfa -4 + ^ r11: .cfa -8 + ^ r3: .cfa -16 + ^ r4: .cfa -12 + ^
STACK CFI 1428c .cfa: r11 4 +
STACK CFI INIT 1431c ac .cfa: sp 0 + .ra: lr
STACK CFI 14320 .cfa: sp 12 + .ra: .cfa -4 + ^ r11: .cfa -8 + ^ r4: .cfa -12 + ^
STACK CFI 14324 .cfa: r11 4 +
STACK CFI INIT 143c8 28 .cfa: sp 0 + .ra: lr
STACK CFI 143cc .cfa: sp 4 + r11: .cfa -4 + ^
STACK CFI 143d0 .cfa: r11 4 +
STACK CFI INIT 10980 10c .cfa: sp 0 + .ra: lr
STACK CFI 10984 .cfa: sp 16 + .ra: .cfa -4 + ^ r11: .cfa -8 + ^ r4: .cfa -16 + ^ r5: .cfa -12 + ^
STACK CFI 10988 .cfa: r11 4 +
STACK CFI INIT 10a8c b4 .cfa: sp 0 + .ra: lr
STACK CFI 10a90 .cfa: sp 8 + .ra: .cfa -4 + ^ r11: .cfa -8 + ^
STACK CFI 10a94 .cfa: r11 4 +
STACK CFI INIT 10b40 8 .cfa: sp 0 + .ra: lr
STACK CFI INIT 10b48 8 .cfa: sp 0 + .ra: lr
STACK CFI INIT 10b50 30 .cfa: sp 0 + .ra: lr
STACK CFI 10b54 .cfa: sp 8 + .ra: .cfa -4 + ^ r11: .cfa -8 + ^
STACK CFI 10b58 .cfa: r11 4 +
STACK CFI INIT 10b80 8 .cfa: sp 0 + .ra: lr
STACK CFI INIT 10b88 8 .cfa: sp 0 + .ra: lr
STACK CFI INIT 10b90 540 .cfa: sp 0 + .ra: lr
STACK CFI 10b94 .cfa: sp 12 + .ra: .cfa -4 + ^ r11: .cfa -8 + ^ r4: .cfa -12 + ^
STACK CFI 10b98 .cfa: r11 4 +
STACK CFI INIT 110d0 c4 .cfa: sp 0 + .ra: lr
STACK CFI 110d4 .cfa: sp 12 + .ra: .cfa -4 + ^ r11: .cfa -8 + ^ r4: .cfa -12 + ^
STACK CFI 110d8 .cfa: r11 4 +
STACK CFI INIT 11194 20 .cfa: sp 0 + .ra: lr
STACK CFI 11198 .cfa: sp 4 + r11: .cfa -4 + ^
STACK CFI 1119c .cfa: r11 4 +
STACK CFI INIT 111b4 b8 .cfa: sp 0 + .ra: lr
STACK CFI 111b8 .cfa: sp 24 + .ra: .cfa -4 + ^ r11: .cfa -8 + ^ r4: .cfa -24 + ^ r5: .cfa -20 + ^ r6: .cfa -16 + ^ r7: .cfa -12 + ^
STACK CFI 111bc .cfa: r11 4 +
STACK CFI INIT 1126c 38 .cfa: sp 0 + .ra: lr
STACK CFI 11270 .cfa: sp 8 + .ra: .cfa -4 + ^ r11: .cfa -8 + ^
STACK CFI 11274 .cfa: r11 4 +
STACK CFI INIT 112a4 60 .cfa: sp 0 + .ra: lr
STACK CFI 112a8 .cfa: sp 8 + .ra: .cfa -4 + ^ r11: .cfa -8 + ^
STACK CFI 112ac .cfa: r11 4 +
STACK CFI INIT 11304 d3c .cfa: sp 0 + .ra: lr
STACK CFI 11308 .cfa: sp 24 + .ra: .cfa -4 + ^ r11: .cfa -8 + ^ r4: .cfa -24 + ^ r5: .cfa -20 + ^ r6: .cfa -16 + ^ r7: .cfa -12 + ^
STACK CFI 1130c .cfa: r11 4 +
STACK CFI INIT 12040 ec .cfa: sp 0 + .ra: lr
STACK CFI 12044 .cfa: sp 8 + .ra: .cfa -4 + ^ r11: .cfa -8 + ^
STACK CFI 12048 .cfa: r11 4 +
STACK CFI INIT 1212c 8 .cfa: sp 0 + .ra: lr
STACK CFI INIT 12134 a8 .cfa: sp 0 + .ra: lr
STACK CFI 12138 .cfa: sp 8 + .ra: .cfa -4 + ^ r11: .cfa -8 + ^
STACK CFI 1213c .cfa: r11 4 +
STACK CFI INIT 121dc 50 .cfa: sp 0 + .ra: lr
STACK CFI 121e0 .cfa: sp 8 + .ra: .cfa -4 + ^ r11: .cfa -8 + ^
STACK CFI 121e4 .cfa: r11 4 +
STACK CFI INIT 1222c 63c .cfa: sp 0 + .ra: lr
STACK CFI 12230 .cfa: sp 16 + .ra: .cfa -4 + ^ r11: .cfa -8 + ^ r4: .cfa -16 + ^ r5: .cfa -12 + ^
STACK CFI 12234 .cfa: r11 4 +
STACK CFI INIT 143f0 b0 .cfa: sp 0 + .ra: lr
STACK CFI 143f4 .cfa: sp 8 + .ra: .cfa -4 + ^ r11: .cfa -8 + ^
STACK CFI 143f8 .cfa: r11 4 +
STACK CFI INIT 144a0 7c .cfa: sp 0 + .ra: lr
STACK CFI 144a4 .cfa: sp 8 + .ra: .cfa -4 + ^ r11: .cfa -8 + ^
STACK CFI 144a8 .cfa: r11 4 +
STACK CFI INIT 12868 fa8 .cfa: sp 0 + .ra: lr
STACK CFI 1286c .cfa: sp 16 + .ra: .cfa -4 + ^ r11: .cfa -8 + ^ r4: .cfa -16 + ^ r5: .cfa -12 + ^
STACK CFI 12870 .cfa: r11 4 +
STACK CFI INIT 13810 6c .cfa: sp 0 + .ra: lr
STACK CFI 13814 .cfa: sp 16 + .ra: .cfa -4 + ^ r11: .cfa -8 + ^ r4: .cfa -16 + ^ r5: .cfa -12 + ^
STACK CFI 13818 .cfa: r11 4 +
STACK CFI INIT 1387c 110 .cfa: sp 0 + .ra: lr
STACK CFI 13880 .cfa: sp 8 + .ra: .cfa -4 + ^ r11: .cfa -8 + ^
STACK CFI 13884 .cfa: r11 4 +
STACK CFI INIT 1451c 34 .cfa: sp 0 + .ra: lr
STACK CFI 14520 .cfa: sp 4 + r11: .cfa -4 + ^
STACK CFI 14524 .cfa: r11 4 +
STACK CFI INIT 14550 4c .cfa: sp 0 + .ra: lr
STACK CFI 14554 .cfa: sp 8 + .ra: .cfa -4 + ^ r11: .cfa -8 + ^
STACK CFI 14558 .cfa: r11 4 +
STACK CFI INIT 1459c 34 .cfa: sp 0 + .ra: lr
STACK CFI 145a0 .cfa: sp 4 + r11: .cfa -4 + ^
STACK CFI 145a4 .cfa: r11 4 +
STACK CFI INIT 1094c 34 .cfa: sp 0 + .ra: lr
STACK CFI 10950 .cfa: sp 4 + r11: .cfa -4 + ^
STACK CFI 10954 .cfa: r11 4 +
STACK CFI INIT 145d0 40 .cfa: sp 0 + .ra: lr
STACK CFI 145d4 .cfa: sp 8 + .ra: .cfa -4 + ^ r11: .cfa -8 + ^
STACK CFI 145d8 .cfa: r11 4 +
STACK CFI INIT 14610 7c .cfa: sp 0 + .ra: lr
STACK CFI 14614 .cfa: sp 8 + .ra: .cfa -4 + ^ r11: .cfa -8 + ^
STACK CFI 14618 .cfa: r11 4 +
STACK CFI INIT 1468c 28 .cfa: sp 0 + .ra: lr
STACK CFI 14690 .cfa: sp 4 + r11: .cfa -4 + ^
STACK CFI 14694 .cfa: r11 4 +
STACK CFI INIT 146b4 34 .cfa: sp 0 + .ra: lr
STACK CFI 146b8 .cfa: sp 4 + r11: .cfa -4 + ^
STACK CFI 146bc .cfa: r11 4 +
STACK CFI INIT 146e8 34 .cfa: sp 0 + .ra: lr
STACK CFI 146ec .cfa: sp 4 + r11: .cfa -4 + ^
STACK CFI 146f0 .cfa: r11 4 +
STACK CFI INIT 1471c 40 .cfa: sp 0 + .ra: lr
STACK CFI 14720 .cfa: sp 8 + .ra: .cfa -4 + ^ r11: .cfa -8 + ^
STACK CFI 14724 .cfa: r11 4 +
STACK CFI INIT 1475c 54 .cfa: sp 0 + .ra: lr
STACK CFI 14760 .cfa: sp 8 + .ra: .cfa -4 + ^ r11: .cfa -8 + ^
STACK CFI 14764 .cfa: r11 4 +
STACK CFI INIT 147b0 2c .cfa: sp 0 + .ra: lr
STACK CFI 147b4 .cfa: sp 4 + r11: .cfa -4 + ^
STACK CFI 147b8 .cfa: r11 4 +
STACK CFI INIT 147dc 13c .cfa: sp 0 + .ra: lr
STACK CFI 147e0 .cfa: sp 12 + .ra: .cfa -4 + ^ r11: .cfa -8 + ^ r4: .cfa -12 + ^
STACK CFI 147e4 .cfa: r11 4 +
STACK CFI INIT 14918 3c .cfa: sp 0 + .ra: lr
STACK CFI 1491c .cfa: sp 8 + .ra: .cfa -4 + ^ r11: .cfa -8 + ^
STACK CFI 14920 .cfa: r11 4 +
STACK CFI INIT 14954 44 .cfa: sp 0 + .ra: lr
STACK CFI 14958 .cfa: sp 8 + .ra: .cfa -4 + ^ r11: .cfa -8 + ^
STACK CFI 1495c .cfa: r11 4 +
STACK CFI INIT 14998 70 .cfa: sp 0 + .ra: lr
STACK CFI 1499c .cfa: sp 8 + .ra: .cfa -4 + ^ r11: .cfa -8 + ^
STACK CFI 149a0 .cfa: r11 4 +
STACK CFI INIT 14a08 54 .cfa: sp 0 + .ra: lr
STACK CFI 14a0c .cfa: sp 8 + .ra: .cfa -4 + ^ r11: .cfa -8 + ^
STACK CFI 14a10 .cfa: r11 4 +
STACK CFI INIT 14a5c c4 .cfa: sp 0 + .ra: lr
STACK CFI 14a60 .cfa: sp 8 + .ra: .cfa -4 + ^ r11: .cfa -8 + ^
STACK CFI 14a64 .cfa: r11 4 +
STACK CFI INIT 14b20 c0 .cfa: sp 0 + .ra: lr
STACK CFI 14b24 .cfa: sp 8 + .ra: .cfa -4 + ^ r11: .cfa -8 + ^
STACK CFI 14b28 .cfa: r11 4 +
STACK CFI INIT 14be0 34 .cfa: sp 0 + .ra: lr
STACK CFI 14be4 .cfa: sp 4 + r11: .cfa -4 + ^
STACK CFI 14be8 .cfa: r11 4 +
STACK CFI INIT 14c14 88 .cfa: sp 0 + .ra: lr
STACK CFI 14c18 .cfa: sp 8 + .ra: .cfa -4 + ^ r11: .cfa -8 + ^
STACK CFI 14c1c .cfa: r11 4 +
STACK CFI INIT 14c9c 34 .cfa: sp 0 + .ra: lr
STACK CFI 14ca0 .cfa: sp 12 + .ra: .cfa -4 + ^ r11: .cfa -8 + ^ r4: .cfa -12 + ^
STACK CFI 14ca4 .cfa: r11 4 +
STACK CFI INIT 14cd0 44 .cfa: sp 0 + .ra: lr
STACK CFI 14cd4 .cfa: sp 8 + .ra: .cfa -4 + ^ r11: .cfa -8 + ^
STACK CFI 14cd8 .cfa: r11 4 +
STACK CFI INIT 14d14 15c .cfa: sp 0 + .ra: lr
STACK CFI 14d18 .cfa: sp 8 + .ra: .cfa -4 + ^ r11: .cfa -8 + ^
STACK CFI 14d1c .cfa: r11 4 +
STACK CFI INIT 14e70 f0 .cfa: sp 0 + .ra: lr
STACK CFI 14e74 .cfa: sp 8 + .ra: .cfa -4 + ^ r11: .cfa -8 + ^
STACK CFI 14e78 .cfa: r11 4 +
STACK CFI INIT 14f60 d0 .cfa: sp 0 + .ra: lr
STACK CFI 14f64 .cfa: sp 16 + .ra: .cfa -4 + ^ r11: .cfa -8 + ^ r4: .cfa -16 + ^ r5: .cfa -12 + ^
STACK CFI 14f68 .cfa: r11 4 +
STACK CFI INIT 15030 30 .cfa: sp 0 + .ra: lr
STACK CFI 15034 .cfa: sp 8 + .ra: .cfa -4 + ^ r11: .cfa -8 + ^
STACK CFI 15038 .cfa: r11 4 +
STACK CFI INIT 15060 38 .cfa: sp 0 + .ra: lr
STACK CFI 15064 .cfa: sp 4 + r11: .cfa -4 + ^
STACK CFI 15068 .cfa: r11 4 +
STACK CFI INIT 15098 8c .cfa: sp 0 + .ra: lr
STACK CFI 1509c .cfa: sp 8 + .ra: .cfa -4 + ^ r11: .cfa -8 + ^
STACK CFI 150a0 .cfa: r11 4 +
STACK CFI INIT 15124 c8 .cfa: sp 0 + .ra: lr
STACK CFI 15128 .cfa: sp 8 + .ra: .cfa -4 + ^ r11: .cfa -8 + ^
STACK CFI 1512c .cfa: r11 4 +
STACK CFI INIT 151ec 34 .cfa: sp 0 + .ra: lr
STACK CFI 151f0 .cfa: sp 4 + r11: .cfa -4 + ^
STACK CFI 151f4 .cfa: r11 4 +
STACK CFI INIT 15220 48 .cfa: sp 0 + .ra: lr
STACK CFI 15224 .cfa: sp 8 + .ra: .cfa -4 + ^ r11: .cfa -8 + ^
STACK CFI 15228 .cfa: r11 4 +
STACK CFI INIT 15268 118 .cfa: sp 0 + .ra: lr
STACK CFI 1526c .cfa: sp 8 + .ra: .cfa -4 + ^ r11: .cfa -8 + ^
STACK CFI 15270 .cfa: r11 4 +
STACK CFI INIT 15380 44 .cfa: sp 0 + .ra: lr
STACK CFI 15384 .cfa: sp 4 + r11: .cfa -4 + ^
STACK CFI 15388 .cfa: r11 4 +
STACK CFI INIT 153c4 1c .cfa: sp 0 + .ra: lr
STACK CFI 153c8 .cfa: sp 4 + r11: .cfa -4 + ^
STACK CFI 153cc .cfa: r11 4 +
STACK CFI INIT 153e0 44 .cfa: sp 0 + .ra: lr
STACK CFI 153e4 .cfa: sp 8 + .ra: .cfa -4 + ^ r11: .cfa -8 + ^
STACK CFI 153e8 .cfa: r11 4 +
STACK CFI INIT 15424 48 .cfa: sp 0 + .ra: lr
STACK CFI 15428 .cfa: sp 4 + r11: .cfa -4 + ^
STACK CFI 1542c .cfa: r11 4 +
STACK CFI INIT 1398c 1b8 .cfa: sp 0 + .ra: lr
STACK CFI 13990 .cfa: sp 8 + .ra: .cfa -4 + ^ r11: .cfa -8 + ^
STACK CFI 13994 .cfa: r11 4 +
STACK CFI INIT 13b44 1c .cfa: sp 0 + .ra: lr
STACK CFI 13b48 .cfa: sp 8 + .ra: .cfa -4 + ^ r11: .cfa -8 + ^
STACK CFI 13b4c .cfa: r11 4 +
STACK CFI INIT ffb4 14 .cfa: sp 0 + .ra: lr
STACK CFI ffb8 .cfa: sp 4 + r11: .cfa -4 + ^
STACK CFI ffbc .cfa: r11 4 +
STACK CFI INIT 13bac 40 .cfa: sp 0 + .ra: lr
STACK CFI 13bb0 .cfa: sp 4 + r11: .cfa -4 + ^
STACK CFI 13bb4 .cfa: r11 4 +
STACK CFI INIT 10068 40 .cfa: sp 0 + .ra: lr
STACK CFI 1006c .cfa: sp 4 + r11: .cfa -4 + ^
STACK CFI 10070 .cfa: r11 4 +
STACK CFI INIT 100a8 6c .cfa: sp 0 + .ra: lr
STACK CFI 100ac .cfa: sp 16 + .ra: .cfa -4 + ^ r11: .cfa -8 + ^ r4: .cfa -16 + ^ r5: .cfa -12 + ^
STACK CFI 100b0 .cfa: r11 4 +
STACK CFI INIT 10114 6c .cfa: sp 0 + .ra: lr
STACK CFI 10118 .cfa: sp 16 + .ra: .cfa -4 + ^ r11: .cfa -8 + ^ r4: .cfa -16 + ^ r5: .cfa -12 + ^
STACK CFI 1011c .cfa: r11 4 +
STACK CFI INIT 10180 54 .cfa: sp 0 + .ra: lr
STACK CFI 10184 .cfa: sp 8 + .ra: .cfa -4 + ^ r11: .cfa -8 + ^
STACK CFI 10188 .cfa: r11 4 +
STACK CFI INIT 101d4 30 .cfa: sp 0 + .ra: lr
STACK CFI 101d8 .cfa: sp 8 + .ra: .cfa -4 + ^ r11: .cfa -8 + ^
STACK CFI 101dc .cfa: r11 4 +
STACK CFI INIT 10230 84 .cfa: sp 0 + .ra: lr
STACK CFI 10234 .cfa: sp 8 + .ra: .cfa -4 + ^ r11: .cfa -8 + ^
STACK CFI 10238 .cfa: r11 4 +
STACK CFI INIT 102e4 3c .cfa: sp 0 + .ra: lr
STACK CFI 102e8 .cfa: sp 8 + .ra: .cfa -4 + ^ r11: .cfa -8 + ^
STACK CFI 102ec .cfa: r11 4 +
STACK CFI INIT 103f4 40 .cfa: sp 0 + .ra: lr
STACK CFI 103f8 .cfa: sp 8 + .ra: .cfa -4 + ^ r11: .cfa -8 + ^
STACK CFI 103fc .cfa: r11 4 +
STACK CFI INIT 10434 54 .cfa: sp 0 + .ra: lr
STACK CFI 10438 .cfa: sp 8 + .ra: .cfa -4 + ^ r11: .cfa -8 + ^
STACK CFI 1043c .cfa: r11 4 +
STACK CFI INIT 13cf8 28 .cfa: sp 0 + .ra: lr
STACK CFI 13cfc .cfa: sp 4 + r11: .cfa -4 + ^
STACK CFI 13d00 .cfa: r11 4 +
STACK CFI INIT 13fb8 24 .cfa: sp 0 + .ra: lr
STACK CFI 13fbc .cfa: sp 4 + r11: .cfa -4 + ^
STACK CFI 13fc0 .cfa: r11 4 +
STACK CFI INIT 104d4 a8 .cfa: sp 0 + .ra: lr
STACK CFI 104d8 .cfa: sp 16 + .ra: .cfa -4 + ^ r11: .cfa -8 + ^ r4: .cfa -16 + ^ r5: .cfa -12 + ^
STACK CFI 104dc .cfa: r11 4 +
STACK CFI INIT 1057c 54 .cfa: sp 0 + .ra: lr
STACK CFI 10580 .cfa: sp 12 + .ra: .cfa -4 + ^ r11: .cfa -8 + ^ r4: .cfa -12 + ^
STACK CFI 10584 .cfa: r11 4 +
STACK CFI INIT 105d0 50 .cfa: sp 0 + .ra: lr
STACK CFI 105d4 .cfa: sp 8 + .ra: .cfa -4 + ^ r11: .cfa -8 + ^
STACK CFI 105d8 .cfa: r11 4 +
STACK CFI INIT 10620 e8 .cfa: sp 0 + .ra: lr
STACK CFI 10624 .cfa: sp 12 + .ra: .cfa -4 + ^ r11: .cfa -8 + ^ r4: .cfa -12 + ^
STACK CFI 10628 .cfa: r11 4 +
STACK CFI INIT 10708 48 .cfa: sp 0 + .ra: lr
STACK CFI 1070c .cfa: sp 8 + .ra: .cfa -4 + ^ r11: .cfa -8 + ^
STACK CFI 10710 .cfa: r11 4 +
STACK CFI INIT 10750 40 .cfa: sp 0 + .ra: lr
STACK CFI 10754 .cfa: sp 8 + .ra: .cfa -4 + ^ r11: .cfa -8 + ^
STACK CFI 10758 .cfa: r11 4 +
STACK CFI INIT 10790 7c .cfa: sp 0 + .ra: lr
STACK CFI 10794 .cfa: sp 12 + .ra: .cfa -4 + ^ r11: .cfa -8 + ^ r4: .cfa -12 + ^
STACK CFI 10798 .cfa: r11 4 +
STACK CFI INIT 1086c 28 .cfa: sp 0 + .ra: lr
STACK CFI 10870 .cfa: sp 8 + .ra: .cfa -4 + ^ r11: .cfa -8 + ^
STACK CFI 10874 .cfa: r11 4 +
STACK CFI INIT 13d7c 78 .cfa: sp 0 + .ra: lr
STACK CFI 13d80 .cfa: sp 4 + r11: .cfa -4 + ^
STACK CFI 13d84 .cfa: r11 4 +
STACK CFI INIT 13e44 38 .cfa: sp 0 + .ra: lr
STACK CFI 13e48 .cfa: sp 4 + r11: .cfa -4 + ^
STACK CFI 13e4c .cfa: r11 4 +
STACK CFI INIT 13e7c 38 .cfa: sp 0 + .ra: lr
STACK CFI 13e80 .cfa: sp 4 + r11: .cfa -4 + ^
STACK CFI 13e84 .cfa: r11 4 +
STACK CFI INIT 15ca0 34 .cfa: sp 0 + .ra: lr
STACK CFI 15ca4 .cfa: sp 4 + r11: .cfa -4 + ^
STACK CFI 15ca8 .cfa: r11 4 +
STACK CFI INIT 15cd4 44 .cfa: sp 0 + .ra: lr
STACK CFI 15cd8 .cfa: sp 8 + .ra: .cfa -4 + ^ r11: .cfa -8 + ^
STACK CFI 15cdc .cfa: r11 4 +
STACK CFI INIT 15d18 30 .cfa: sp 0 + .ra: lr
STACK CFI 15d1c .cfa: sp 8 + .ra: .cfa -4 + ^ r11: .cfa -8 + ^
STACK CFI 15d20 .cfa: r11 4 +
STACK CFI INIT 15d48 b4 .cfa: sp 0 + .ra: lr
STACK CFI 15d4c .cfa: sp 24 + .ra: .cfa -4 + ^ r11: .cfa -8 + ^ r3: .cfa -24 + ^ r4: .cfa -20 + ^ r5: .cfa -16 + ^ r6: .cfa -12 + ^
STACK CFI 15d50 .cfa: r11 4 +
STACK CFI INIT 15dfc 68 .cfa: sp 0 + .ra: lr
STACK CFI 15e00 .cfa: sp 12 + .ra: .cfa -4 + ^ r11: .cfa -8 + ^ r4: .cfa -12 + ^
STACK CFI 15e04 .cfa: r11 4 +
STACK CFI INIT 1409c b4 .cfa: sp 0 + .ra: lr
STACK CFI 140a0 .cfa: sp 24 + .ra: .cfa -4 + ^ r11: .cfa -8 + ^ r3: .cfa -24 + ^ r4: .cfa -20 + ^ r5: .cfa -16 + ^ r6: .cfa -12 + ^
STACK CFI 140a4 .cfa: r11 4 +
STACK CFI INIT 14284 98 .cfa: sp 0 + .ra: lr
STACK CFI 14288 .cfa: sp 16 + .ra: .cfa -4 + ^ r11: .cfa -8 + ^ r3: .cfa -16 + ^ r4: .cfa -12 + ^
STACK CFI 1428c .cfa: r11 4 +
STACK CFI INIT 15e64 44 .cfa: sp 0 + .ra: lr
STACK CFI 15e68 .cfa: sp 8 + .ra: .cfa -4 + ^ r11: .cfa -8 + ^
STACK CFI 15e6c .cfa: r11 4 +
STACK CFI INIT 1546c 10c .cfa: sp 0 + .ra: lr
STACK CFI 15470 .cfa: sp 16 + .ra: .cfa -4 + ^ r11: .cfa -8 + ^ r4: .cfa -16 + ^ r5: .cfa -12 + ^
STACK CFI 15474 .cfa: r11 4 +
STACK CFI INIT 15578 b4 .cfa: sp 0 + .ra: lr
STACK CFI 1557c .cfa: sp 8 + .ra: .cfa -4 + ^ r11: .cfa -8 + ^
STACK CFI 15580 .cfa: r11 4 +
STACK CFI INIT 1562c 8 .cfa: sp 0 + .ra: lr
STACK CFI INIT 15634 8 .cfa: sp 0 + .ra: lr
STACK CFI INIT 1563c 30 .cfa: sp 0 + .ra: lr
STACK CFI 15640 .cfa: sp 8 + .ra: .cfa -4 + ^ r11: .cfa -8 + ^
STACK CFI 15644 .cfa: r11 4 +
STACK CFI INIT 1566c 8 .cfa: sp 0 + .ra: lr
STACK CFI INIT 15674 8 .cfa: sp 0 + .ra: lr
STACK CFI INIT 1567c 80 .cfa: sp 0 + .ra: lr
STACK CFI 15680 .cfa: sp 8 + .ra: .cfa -4 + ^ r11: .cfa -8 + ^
STACK CFI 15684 .cfa: r11 4 +
STACK CFI INIT 156fc 80 .cfa: sp 0 + .ra: lr
STACK CFI 15700 .cfa: sp 8 + .ra: .cfa -4 + ^ r11: .cfa -8 + ^
STACK CFI 15704 .cfa: r11 4 +
STACK CFI INIT 1577c 74 .cfa: sp 0 + .ra: lr
STACK CFI 15780 .cfa: sp 16 + .ra: .cfa -4 + ^ r11: .cfa -8 + ^ r4: .cfa -16 + ^ r5: .cfa -12 + ^
STACK CFI 15784 .cfa: r11 4 +
STACK CFI INIT 157f0 3c .cfa: sp 0 + .ra: lr
STACK CFI 157f4 .cfa: sp 8 + .ra: .cfa -4 + ^ r11: .cfa -8 + ^
STACK CFI 157f8 .cfa: r11 4 +
STACK CFI INIT 1582c 180 .cfa: sp 0 + .ra: lr
STACK CFI 15830 .cfa: sp 12 + .ra: .cfa -4 + ^ r11: .cfa -8 + ^ r4: .cfa -12 + ^
STACK CFI 15834 .cfa: r11 4 +
STACK CFI INIT 159ac 104 .cfa: sp 0 + .ra: lr
STACK CFI 159b0 .cfa: sp 8 + .ra: .cfa -4 + ^ r11: .cfa -8 + ^
STACK CFI 159b4 .cfa: r11 4 +
STACK CFI INIT 15ab0 8 .cfa: sp 0 + .ra: lr
STACK CFI INIT 15ab8 38 .cfa: sp 0 + .ra: lr
STACK CFI 15abc .cfa: sp 8 + .ra: .cfa -4 + ^ r11: .cfa -8 + ^
STACK CFI 15ac0 .cfa: r11 4 +
STACK CFI INIT 15af0 24 .cfa: sp 0 + .ra: lr
STACK CFI 15af4 .cfa: sp 4 + r11: .cfa -4 + ^
STACK CFI 15af8 .cfa: r11 4 +
STACK CFI INIT 15b14 1c .cfa: sp 0 + .ra: lr
STACK CFI 15b18 .cfa: sp 4 + r11: .cfa -4 + ^
STACK CFI 15b1c .cfa: r11 4 +
STACK CFI INIT 15b30 38 .cfa: sp 0 + .ra: lr
STACK CFI 15b34 .cfa: sp 8 + .ra: .cfa -4 + ^ r11: .cfa -8 + ^
STACK CFI 15b38 .cfa: r11 4 +
STACK CFI INIT 15b68 6c .cfa: sp 0 + .ra: lr
STACK CFI 15b6c .cfa: sp 16 + .ra: .cfa -4 + ^ r11: .cfa -8 + ^ r4: .cfa -16 + ^ r5: .cfa -12 + ^
STACK CFI 15b70 .cfa: r11 4 +
STACK CFI INIT 1094c 34 .cfa: sp 0 + .ra: lr
STACK CFI 10950 .cfa: sp 4 + r11: .cfa -4 + ^
STACK CFI 10954 .cfa: r11 4 +
STACK CFI INIT 145d0 40 .cfa: sp 0 + .ra: lr
STACK CFI 145d4 .cfa: sp 8 + .ra: .cfa -4 + ^ r11: .cfa -8 + ^
STACK CFI 145d8 .cfa: r11 4 +
STACK CFI INIT 14610 7c .cfa: sp 0 + .ra: lr
STACK CFI 14614 .cfa: sp 8 + .ra: .cfa -4 + ^ r11: .cfa -8 + ^
STACK CFI 14618 .cfa: r11 4 +
STACK CFI INIT 146b4 34 .cfa: sp 0 + .ra: lr
STACK CFI 146b8 .cfa: sp 4 + r11: .cfa -4 + ^
STACK CFI 146bc .cfa: r11 4 +
STACK CFI INIT 15ea8 34 .cfa: sp 0 + .ra: lr
STACK CFI 15eac .cfa: sp 4 + r11: .cfa -4 + ^
STACK CFI 15eb0 .cfa: r11 4 +
STACK CFI INIT 15edc 40 .cfa: sp 0 + .ra: lr
STACK CFI 15ee0 .cfa: sp 8 + .ra: .cfa -4 + ^ r11: .cfa -8 + ^
STACK CFI 15ee4 .cfa: r11 4 +
STACK CFI INIT 15f1c 3c .cfa: sp 0 + .ra: lr
STACK CFI 15f20 .cfa: sp 8 + .ra: .cfa -4 + ^ r11: .cfa -8 + ^
STACK CFI 15f24 .cfa: r11 4 +
STACK CFI INIT 15f58 54 .cfa: sp 0 + .ra: lr
STACK CFI 15f5c .cfa: sp 8 + .ra: .cfa -4 + ^ r11: .cfa -8 + ^
STACK CFI 15f60 .cfa: r11 4 +
STACK CFI INIT 14c14 88 .cfa: sp 0 + .ra: lr
STACK CFI 14c18 .cfa: sp 8 + .ra: .cfa -4 + ^ r11: .cfa -8 + ^
STACK CFI 14c1c .cfa: r11 4 +
STACK CFI INIT 15fac 34 .cfa: sp 0 + .ra: lr
STACK CFI 15fb0 .cfa: sp 12 + .ra: .cfa -4 + ^ r11: .cfa -8 + ^ r4: .cfa -12 + ^
STACK CFI 15fb4 .cfa: r11 4 +
STACK CFI INIT 15fe0 38 .cfa: sp 0 + .ra: lr
STACK CFI 15fe4 .cfa: sp 4 + r11: .cfa -4 + ^
STACK CFI 15fe8 .cfa: r11 4 +
STACK CFI INIT 15220 48 .cfa: sp 0 + .ra: lr
STACK CFI 15224 .cfa: sp 8 + .ra: .cfa -4 + ^ r11: .cfa -8 + ^
STACK CFI 15228 .cfa: r11 4 +
STACK CFI INIT 15bd4 b0 .cfa: sp 0 + .ra: lr
STACK CFI 15bd8 .cfa: sp 8 + .ra: .cfa -4 + ^ r11: .cfa -8 + ^
STACK CFI 15bdc .cfa: r11 4 +
STACK CFI INIT 15c84 1c .cfa: sp 0 + .ra: lr
STACK CFI 15c88 .cfa: sp 8 + .ra: .cfa -4 + ^ r11: .cfa -8 + ^
STACK CFI 15c8c .cfa: r11 4 +
STACK CFI INIT 1899c 10c .cfa: sp 0 + .ra: lr
STACK CFI 189a0 .cfa: sp 12 + .ra: .cfa -4 + ^ r11: .cfa -8 + ^ r4: .cfa -12 + ^
STACK CFI 189a4 .cfa: r11 4 +
STACK CFI INIT ffb4 14 .cfa: sp 0 + .ra: lr
STACK CFI ffb8 .cfa: sp 4 + r11: .cfa -4 + ^
STACK CFI ffbc .cfa: r11 4 +
STACK CFI INIT 13bac 40 .cfa: sp 0 + .ra: lr
STACK CFI 13bb0 .cfa: sp 4 + r11: .cfa -4 + ^
STACK CFI 13bb4 .cfa: r11 4 +
STACK CFI INIT 10068 40 .cfa: sp 0 + .ra: lr
STACK CFI 1006c .cfa: sp 4 + r11: .cfa -4 + ^
STACK CFI 10070 .cfa: r11 4 +
STACK CFI INIT 100a8 6c .cfa: sp 0 + .ra: lr
STACK CFI 100ac .cfa: sp 16 + .ra: .cfa -4 + ^ r11: .cfa -8 + ^ r4: .cfa -16 + ^ r5: .cfa -12 + ^
STACK CFI 100b0 .cfa: r11 4 +
STACK CFI INIT 10114 6c .cfa: sp 0 + .ra: lr
STACK CFI 10118 .cfa: sp 16 + .ra: .cfa -4 + ^ r11: .cfa -8 + ^ r4: .cfa -16 + ^ r5: .cfa -12 + ^
STACK CFI 1011c .cfa: r11 4 +
STACK CFI INIT 10180 54 .cfa: sp 0 + .ra: lr
STACK CFI 10184 .cfa: sp 8 + .ra: .cfa -4 + ^ r11: .cfa -8 + ^
STACK CFI 10188 .cfa: r11 4 +
STACK CFI INIT 101d4 30 .cfa: sp 0 + .ra: lr
STACK CFI 101d8 .cfa: sp 8 + .ra: .cfa -4 + ^ r11: .cfa -8 + ^
STACK CFI 101dc .cfa: r11 4 +
STACK CFI INIT 10204 2c .cfa: sp 0 + .ra: lr
STACK CFI 10208 .cfa: sp 4 + r11: .cfa -4 + ^
STACK CFI 1020c .cfa: r11 4 +
STACK CFI INIT 10230 84 .cfa: sp 0 + .ra: lr
STACK CFI 10234 .cfa: sp 8 + .ra: .cfa -4 + ^ r11: .cfa -8 + ^
STACK CFI 10238 .cfa: r11 4 +
STACK CFI INIT 13c70 28 .cfa: sp 0 + .ra: lr
STACK CFI 13c74 .cfa: sp 4 + r11: .cfa -4 + ^
STACK CFI 13c78 .cfa: r11 4 +
STACK CFI INIT 102b4 30 .cfa: sp 0 + .ra: lr
STACK CFI 102b8 .cfa: sp 8 + .ra: .cfa -4 + ^ r11: .cfa -8 + ^
STACK CFI 102bc .cfa: r11 4 +
STACK CFI INIT 102e4 3c .cfa: sp 0 + .ra: lr
STACK CFI 102e8 .cfa: sp 8 + .ra: .cfa -4 + ^ r11: .cfa -8 + ^
STACK CFI 102ec .cfa: r11 4 +
STACK CFI INIT 18aa8 40 .cfa: sp 0 + .ra: lr
STACK CFI 18aac .cfa: sp 4 + r11: .cfa -4 + ^
STACK CFI 18ab0 .cfa: r11 4 +
STACK CFI INIT 18ae8 3c .cfa: sp 0 + .ra: lr
STACK CFI 18aec .cfa: sp 4 + r11: .cfa -4 + ^
STACK CFI 18af0 .cfa: r11 4 +
STACK CFI INIT 18b24 70 .cfa: sp 0 + .ra: lr
STACK CFI 18b28 .cfa: sp 8 + .ra: .cfa -4 + ^ r11: .cfa -8 + ^
STACK CFI 18b2c .cfa: r11 4 +
STACK CFI INIT 10320 78 .cfa: sp 0 + .ra: lr
STACK CFI 10324 .cfa: sp 8 + .ra: .cfa -4 + ^ r11: .cfa -8 + ^
STACK CFI 10328 .cfa: r11 4 +
STACK CFI INIT 103f4 40 .cfa: sp 0 + .ra: lr
STACK CFI 103f8 .cfa: sp 8 + .ra: .cfa -4 + ^ r11: .cfa -8 + ^
STACK CFI 103fc .cfa: r11 4 +
STACK CFI INIT 10434 54 .cfa: sp 0 + .ra: lr
STACK CFI 10438 .cfa: sp 8 + .ra: .cfa -4 + ^ r11: .cfa -8 + ^
STACK CFI 1043c .cfa: r11 4 +
STACK CFI INIT 10488 4c .cfa: sp 0 + .ra: lr
STACK CFI 1048c .cfa: sp 8 + .ra: .cfa -4 + ^ r11: .cfa -8 + ^
STACK CFI 10490 .cfa: r11 4 +
STACK CFI INIT 18b94 3c .cfa: sp 0 + .ra: lr
STACK CFI 18b98 .cfa: sp 4 + r11: .cfa -4 + ^
STACK CFI 18b9c .cfa: r11 4 +
STACK CFI INIT 18bd0 54 .cfa: sp 0 + .ra: lr
STACK CFI 18bd4 .cfa: sp 4 + r11: .cfa -4 + ^
STACK CFI 18bd8 .cfa: r11 4 +
STACK CFI INIT 18c24 44 .cfa: sp 0 + .ra: lr
STACK CFI 18c28 .cfa: sp 4 + r11: .cfa -4 + ^
STACK CFI 18c2c .cfa: r11 4 +
STACK CFI INIT 18c68 44 .cfa: sp 0 + .ra: lr
STACK CFI 18c6c .cfa: sp 4 + r11: .cfa -4 + ^
STACK CFI 18c70 .cfa: r11 4 +
STACK CFI INIT 13cb8 40 .cfa: sp 0 + .ra: lr
STACK CFI 13cbc .cfa: sp 8 + .ra: .cfa -4 + ^ r11: .cfa -8 + ^
STACK CFI 13cc0 .cfa: r11 4 +
STACK CFI INIT 13cf8 28 .cfa: sp 0 + .ra: lr
STACK CFI 13cfc .cfa: sp 4 + r11: .cfa -4 + ^
STACK CFI 13d00 .cfa: r11 4 +
STACK CFI INIT 18cac 28 .cfa: sp 0 + .ra: lr
STACK CFI 18cb0 .cfa: sp 4 + r11: .cfa -4 + ^
STACK CFI 18cb4 .cfa: r11 4 +
STACK CFI INIT 13fb8 24 .cfa: sp 0 + .ra: lr
STACK CFI 13fbc .cfa: sp 4 + r11: .cfa -4 + ^
STACK CFI 13fc0 .cfa: r11 4 +
STACK CFI INIT 18cd4 24 .cfa: sp 0 + .ra: lr
STACK CFI 18cd8 .cfa: sp 4 + r11: .cfa -4 + ^
STACK CFI 18cdc .cfa: r11 4 +
STACK CFI INIT 18cf8 24 .cfa: sp 0 + .ra: lr
STACK CFI 18cfc .cfa: sp 4 + r11: .cfa -4 + ^
STACK CFI 18d00 .cfa: r11 4 +
STACK CFI INIT 18d1c 34 .cfa: sp 0 + .ra: lr
STACK CFI 18d20 .cfa: sp 4 + r11: .cfa -4 + ^
STACK CFI 18d24 .cfa: r11 4 +
STACK CFI INIT 18d50 44 .cfa: sp 0 + .ra: lr
STACK CFI 18d54 .cfa: sp 8 + .ra: .cfa -4 + ^ r11: .cfa -8 + ^
STACK CFI 18d58 .cfa: r11 4 +
STACK CFI INIT 18d94 30 .cfa: sp 0 + .ra: lr
STACK CFI 18d98 .cfa: sp 8 + .ra: .cfa -4 + ^ r11: .cfa -8 + ^
STACK CFI 18d9c .cfa: r11 4 +
STACK CFI INIT 18dc4 b4 .cfa: sp 0 + .ra: lr
STACK CFI 18dc8 .cfa: sp 24 + .ra: .cfa -4 + ^ r11: .cfa -8 + ^ r3: .cfa -24 + ^ r4: .cfa -20 + ^ r5: .cfa -16 + ^ r6: .cfa -12 + ^
STACK CFI 18dcc .cfa: r11 4 +
STACK CFI INIT 18e78 44 .cfa: sp 0 + .ra: lr
STACK CFI 18e7c .cfa: sp 4 + r11: .cfa -4 + ^
STACK CFI 18e80 .cfa: r11 4 +
STACK CFI INIT 18ebc 28 .cfa: sp 0 + .ra: lr
STACK CFI 18ec0 .cfa: sp 4 + r11: .cfa -4 + ^
STACK CFI 18ec4 .cfa: r11 4 +
STACK CFI INIT 18ee4 28 .cfa: sp 0 + .ra: lr
STACK CFI 18ee8 .cfa: sp 4 + r11: .cfa -4 + ^
STACK CFI 18eec .cfa: r11 4 +
STACK CFI INIT 18f0c 58 .cfa: sp 0 + .ra: lr
STACK CFI 18f10 .cfa: sp 12 + .ra: .cfa -4 + ^ r11: .cfa -8 + ^ r4: .cfa -12 + ^
STACK CFI 18f14 .cfa: r11 4 +
STACK CFI INIT 13d7c 78 .cfa: sp 0 + .ra: lr
STACK CFI 13d80 .cfa: sp 4 + r11: .cfa -4 + ^
STACK CFI 13d84 .cfa: r11 4 +
STACK CFI INIT 13e44 38 .cfa: sp 0 + .ra: lr
STACK CFI 13e48 .cfa: sp 4 + r11: .cfa -4 + ^
STACK CFI 13e4c .cfa: r11 4 +
STACK CFI INIT 13e7c 38 .cfa: sp 0 + .ra: lr
STACK CFI 13e80 .cfa: sp 4 + r11: .cfa -4 + ^
STACK CFI 13e84 .cfa: r11 4 +
STACK CFI INIT 13ff4 34 .cfa: sp 0 + .ra: lr
STACK CFI 13ff8 .cfa: sp 4 + r11: .cfa -4 + ^
STACK CFI 13ffc .cfa: r11 4 +
STACK CFI INIT 14028 44 .cfa: sp 0 + .ra: lr
STACK CFI 1402c .cfa: sp 8 + .ra: .cfa -4 + ^ r11: .cfa -8 + ^
STACK CFI 14030 .cfa: r11 4 +
STACK CFI INIT 1406c 30 .cfa: sp 0 + .ra: lr
STACK CFI 14070 .cfa: sp 8 + .ra: .cfa -4 + ^ r11: .cfa -8 + ^
STACK CFI 14074 .cfa: r11 4 +
STACK CFI INIT 1409c b4 .cfa: sp 0 + .ra: lr
STACK CFI 140a0 .cfa: sp 24 + .ra: .cfa -4 + ^ r11: .cfa -8 + ^ r3: .cfa -24 + ^ r4: .cfa -20 + ^ r5: .cfa -16 + ^ r6: .cfa -12 + ^
STACK CFI 140a4 .cfa: r11 4 +
STACK CFI INIT 18f64 48 .cfa: sp 0 + .ra: lr
STACK CFI 18f68 .cfa: sp 8 + .ra: .cfa -4 + ^ r11: .cfa -8 + ^
STACK CFI 18f6c .cfa: r11 4 +
STACK CFI INIT 18fac 34 .cfa: sp 0 + .ra: lr
STACK CFI 18fb0 .cfa: sp 8 + .ra: .cfa -4 + ^ r11: .cfa -8 + ^
STACK CFI 18fb4 .cfa: r11 4 +
STACK CFI INIT 14150 2c .cfa: sp 0 + .ra: lr
STACK CFI 14154 .cfa: sp 8 + .ra: .cfa -4 + ^ r11: .cfa -8 + ^
STACK CFI 14158 .cfa: r11 4 +
STACK CFI INIT 15dfc 68 .cfa: sp 0 + .ra: lr
STACK CFI 15e00 .cfa: sp 12 + .ra: .cfa -4 + ^ r11: .cfa -8 + ^ r4: .cfa -12 + ^
STACK CFI 15e04 .cfa: r11 4 +
STACK CFI INIT 1417c 70 .cfa: sp 0 + .ra: lr
STACK CFI 14180 .cfa: sp 8 + .ra: .cfa -4 + ^ r11: .cfa -8 + ^
STACK CFI 14184 .cfa: r11 4 +
STACK CFI INIT 104d4 a8 .cfa: sp 0 + .ra: lr
STACK CFI 104d8 .cfa: sp 16 + .ra: .cfa -4 + ^ r11: .cfa -8 + ^ r4: .cfa -16 + ^ r5: .cfa -12 + ^
STACK CFI 104dc .cfa: r11 4 +
STACK CFI INIT 1057c 54 .cfa: sp 0 + .ra: lr
STACK CFI 10580 .cfa: sp 12 + .ra: .cfa -4 + ^ r11: .cfa -8 + ^ r4: .cfa -12 + ^
STACK CFI 10584 .cfa: r11 4 +
STACK CFI INIT 18fe0 4c .cfa: sp 0 + .ra: lr
STACK CFI 18fe4 .cfa: sp 4 + r11: .cfa -4 + ^
STACK CFI 18fe8 .cfa: r11 4 +
STACK CFI INIT 105d0 50 .cfa: sp 0 + .ra: lr
STACK CFI 105d4 .cfa: sp 8 + .ra: .cfa -4 + ^ r11: .cfa -8 + ^
STACK CFI 105d8 .cfa: r11 4 +
STACK CFI INIT 10620 e8 .cfa: sp 0 + .ra: lr
STACK CFI 10624 .cfa: sp 12 + .ra: .cfa -4 + ^ r11: .cfa -8 + ^ r4: .cfa -12 + ^
STACK CFI 10628 .cfa: r11 4 +
STACK CFI INIT 1902c 44 .cfa: sp 0 + .ra: lr
STACK CFI 19030 .cfa: sp 8 + .ra: .cfa -4 + ^ r11: .cfa -8 + ^
STACK CFI 19034 .cfa: r11 4 +
STACK CFI INIT 19070 34 .cfa: sp 0 + .ra: lr
STACK CFI 19074 .cfa: sp 4 + r11: .cfa -4 + ^
STACK CFI 19078 .cfa: r11 4 +
STACK CFI INIT 10708 48 .cfa: sp 0 + .ra: lr
STACK CFI 1070c .cfa: sp 8 + .ra: .cfa -4 + ^ r11: .cfa -8 + ^
STACK CFI 10710 .cfa: r11 4 +
STACK CFI INIT 190a4 68 .cfa: sp 0 + .ra: lr
STACK CFI 190a8 .cfa: sp 8 + .ra: .cfa -4 + ^ r11: .cfa -8 + ^
STACK CFI 190ac .cfa: r11 4 +
STACK CFI INIT 1910c 4c .cfa: sp 0 + .ra: lr
STACK CFI 19110 .cfa: sp 8 + .ra: .cfa -4 + ^ r11: .cfa -8 + ^
STACK CFI 19114 .cfa: r11 4 +
STACK CFI INIT 10750 40 .cfa: sp 0 + .ra: lr
STACK CFI 10754 .cfa: sp 8 + .ra: .cfa -4 + ^ r11: .cfa -8 + ^
STACK CFI 10758 .cfa: r11 4 +
STACK CFI INIT 10790 7c .cfa: sp 0 + .ra: lr
STACK CFI 10794 .cfa: sp 12 + .ra: .cfa -4 + ^ r11: .cfa -8 + ^ r4: .cfa -12 + ^
STACK CFI 10798 .cfa: r11 4 +
STACK CFI INIT 1086c 28 .cfa: sp 0 + .ra: lr
STACK CFI 10870 .cfa: sp 8 + .ra: .cfa -4 + ^ r11: .cfa -8 + ^
STACK CFI 10874 .cfa: r11 4 +
STACK CFI INIT 1425c 28 .cfa: sp 0 + .ra: lr
STACK CFI 14260 .cfa: sp 8 + .ra: .cfa -4 + ^ r11: .cfa -8 + ^
STACK CFI 14264 .cfa: r11 4 +
STACK CFI INIT 14284 98 .cfa: sp 0 + .ra: lr
STACK CFI 14288 .cfa: sp 16 + .ra: .cfa -4 + ^ r11: .cfa -8 + ^ r3: .cfa -16 + ^ r4: .cfa -12 + ^
STACK CFI 1428c .cfa: r11 4 +
STACK CFI INIT 19158 1c .cfa: sp 0 + .ra: lr
STACK CFI 1915c .cfa: sp 4 + r11: .cfa -4 + ^
STACK CFI 19160 .cfa: r11 4 +
STACK CFI INIT 19174 60 .cfa: sp 0 + .ra: lr
STACK CFI 19178 .cfa: sp 4 + r11: .cfa -4 + ^
STACK CFI 1917c .cfa: r11 4 +
STACK CFI INIT 191d4 24 .cfa: sp 0 + .ra: lr
STACK CFI 191d8 .cfa: sp 4 + r11: .cfa -4 + ^
STACK CFI 191dc .cfa: r11 4 +
STACK CFI INIT 191f8 50 .cfa: sp 0 + .ra: lr
STACK CFI 191fc .cfa: sp 8 + .ra: .cfa -4 + ^ r11: .cfa -8 + ^
STACK CFI 19200 .cfa: r11 4 +
STACK CFI INIT 19248 2c .cfa: sp 0 + .ra: lr
STACK CFI 1924c .cfa: sp 8 + .ra: .cfa -4 + ^ r11: .cfa -8 + ^
STACK CFI 19250 .cfa: r11 4 +
STACK CFI INIT 19274 68 .cfa: sp 0 + .ra: lr
STACK CFI 19278 .cfa: sp 8 + .ra: .cfa -4 + ^ r11: .cfa -8 + ^
STACK CFI 1927c .cfa: r11 4 +
STACK CFI INIT 15d48 b4 .cfa: sp 0 + .ra: lr
STACK CFI 15d4c .cfa: sp 24 + .ra: .cfa -4 + ^ r11: .cfa -8 + ^ r3: .cfa -24 + ^ r4: .cfa -20 + ^ r5: .cfa -16 + ^ r6: .cfa -12 + ^
STACK CFI 15d50 .cfa: r11 4 +
STACK CFI INIT 143c8 28 .cfa: sp 0 + .ra: lr
STACK CFI 143cc .cfa: sp 4 + r11: .cfa -4 + ^
STACK CFI 143d0 .cfa: r11 4 +
STACK CFI INIT 192dc 34 .cfa: sp 0 + .ra: lr
STACK CFI 192e0 .cfa: sp 8 + .ra: .cfa -4 + ^ r11: .cfa -8 + ^
STACK CFI 192e4 .cfa: r11 4 +
STACK CFI INIT 19310 28 .cfa: sp 0 + .ra: lr
STACK CFI 19314 .cfa: sp 4 + r11: .cfa -4 + ^
STACK CFI 19318 .cfa: r11 4 +
STACK CFI INIT 16018 118 .cfa: sp 0 + .ra: lr
STACK CFI 1601c .cfa: sp 16 + .ra: .cfa -4 + ^ r11: .cfa -8 + ^ r4: .cfa -16 + ^ r5: .cfa -12 + ^
STACK CFI 16020 .cfa: r11 4 +
STACK CFI INIT 16130 e4 .cfa: sp 0 + .ra: lr
STACK CFI 16134 .cfa: sp 8 + .ra: .cfa -4 + ^ r11: .cfa -8 + ^
STACK CFI 16138 .cfa: r11 4 +
STACK CFI INIT 16214 8 .cfa: sp 0 + .ra: lr
STACK CFI INIT 1621c 8 .cfa: sp 0 + .ra: lr
STACK CFI INIT 16224 8 .cfa: sp 0 + .ra: lr
STACK CFI INIT 1622c 30 .cfa: sp 0 + .ra: lr
STACK CFI 16230 .cfa: sp 8 + .ra: .cfa -4 + ^ r11: .cfa -8 + ^
STACK CFI 16234 .cfa: r11 4 +
STACK CFI INIT 1625c 8 .cfa: sp 0 + .ra: lr
STACK CFI INIT 16264 8 .cfa: sp 0 + .ra: lr
STACK CFI INIT 1626c 8 .cfa: sp 0 + .ra: lr
STACK CFI INIT 16274 74 .cfa: sp 0 + .ra: lr
STACK CFI 16278 .cfa: sp 16 + .ra: .cfa -4 + ^ r11: .cfa -8 + ^ r4: .cfa -16 + ^ r5: .cfa -12 + ^
STACK CFI 1627c .cfa: r11 4 +
STACK CFI INIT 162e8 d8 .cfa: sp 0 + .ra: lr
STACK CFI 162ec .cfa: sp 8 + .ra: .cfa -4 + ^ r11: .cfa -8 + ^
STACK CFI 162f0 .cfa: r11 4 +
STACK CFI INIT 163c0 2e0 .cfa: sp 0 + .ra: lr
STACK CFI 163c4 .cfa: sp 12 + .ra: .cfa -4 + ^ r11: .cfa -8 + ^ r4: .cfa -12 + ^
STACK CFI 163c8 .cfa: r11 4 +
STACK CFI INIT 166a0 1ac .cfa: sp 0 + .ra: lr
STACK CFI 166a4 .cfa: sp 12 + .ra: .cfa -4 + ^ r11: .cfa -8 + ^ r4: .cfa -12 + ^
STACK CFI 166a8 .cfa: r11 4 +
STACK CFI INIT 1684c 1ac .cfa: sp 0 + .ra: lr
STACK CFI 16850 .cfa: sp 12 + .ra: .cfa -4 + ^ r11: .cfa -8 + ^ r4: .cfa -12 + ^
STACK CFI 16854 .cfa: r11 4 +
STACK CFI INIT 169f8 158 .cfa: sp 0 + .ra: lr
STACK CFI 169fc .cfa: sp 12 + .ra: .cfa -4 + ^ r11: .cfa -8 + ^ r4: .cfa -12 + ^
STACK CFI 16a00 .cfa: r11 4 +
STACK CFI INIT 16b50 58 .cfa: sp 0 + .ra: lr
STACK CFI 16b54 .cfa: sp 12 + .ra: .cfa -4 + ^ r11: .cfa -8 + ^ r4: .cfa -12 + ^
STACK CFI 16b58 .cfa: r11 4 +
STACK CFI INIT 16ba8 ec .cfa: sp 0 + .ra: lr
STACK CFI 16bac .cfa: sp 8 + .ra: .cfa -4 + ^ r11: .cfa -8 + ^
STACK CFI 16bb0 .cfa: r11 4 +
STACK CFI INIT 16c94 1b0 .cfa: sp 0 + .ra: lr
STACK CFI 16c98 .cfa: sp 12 + .ra: .cfa -4 + ^ r11: .cfa -8 + ^ r4: .cfa -12 + ^
STACK CFI 16c9c .cfa: r11 4 +
STACK CFI INIT 16e44 8 .cfa: sp 0 + .ra: lr
STACK CFI INIT 16e4c ec .cfa: sp 0 + .ra: lr
STACK CFI 16e50 .cfa: sp 8 + .ra: .cfa -4 + ^ r11: .cfa -8 + ^
STACK CFI 16e54 .cfa: r11 4 +
STACK CFI INIT 16f38 8 .cfa: sp 0 + .ra: lr
STACK CFI INIT 16f40 90 .cfa: sp 0 + .ra: lr
STACK CFI 16f44 .cfa: sp 8 + .ra: .cfa -4 + ^ r11: .cfa -8 + ^
STACK CFI 16f48 .cfa: r11 4 +
STACK CFI INIT 16fd0 24 .cfa: sp 0 + .ra: lr
STACK CFI 16fd4 .cfa: sp 4 + r11: .cfa -4 + ^
STACK CFI 16fd8 .cfa: r11 4 +
STACK CFI INIT 16ff4 dc .cfa: sp 0 + .ra: lr
STACK CFI 16ff8 .cfa: sp 12 + .ra: .cfa -4 + ^ r11: .cfa -8 + ^ r4: .cfa -12 + ^
STACK CFI 16ffc .cfa: r11 4 +
STACK CFI INIT 170d0 38 .cfa: sp 0 + .ra: lr
STACK CFI 170d4 .cfa: sp 8 + .ra: .cfa -4 + ^ r11: .cfa -8 + ^
STACK CFI 170d8 .cfa: r11 4 +
STACK CFI INIT 17108 bc .cfa: sp 0 + .ra: lr
STACK CFI 1710c .cfa: sp 16 + .ra: .cfa -4 + ^ r11: .cfa -8 + ^ r4: .cfa -16 + ^ r5: .cfa -12 + ^
STACK CFI 17110 .cfa: r11 4 +
STACK CFI INIT 171c4 6c4 .cfa: sp 0 + .ra: lr
STACK CFI 171c8 .cfa: sp 16 + .ra: .cfa -4 + ^ r11: .cfa -8 + ^ r4: .cfa -16 + ^ r5: .cfa -12 + ^
STACK CFI 171cc .cfa: r11 4 +
STACK CFI INIT 17888 2f8 .cfa: sp 0 + .ra: lr
STACK CFI 1788c .cfa: sp 8 + .ra: .cfa -4 + ^ r11: .cfa -8 + ^
STACK CFI 17890 .cfa: r11 4 +
STACK CFI INIT 17b80 254 .cfa: sp 0 + .ra: lr
STACK CFI 17b84 .cfa: sp 8 + .ra: .cfa -4 + ^ r11: .cfa -8 + ^
STACK CFI 17b88 .cfa: r11 4 +
STACK CFI INIT 17dd4 254 .cfa: sp 0 + .ra: lr
STACK CFI 17dd8 .cfa: sp 8 + .ra: .cfa -4 + ^ r11: .cfa -8 + ^
STACK CFI 17ddc .cfa: r11 4 +
STACK CFI INIT 19338 2c .cfa: sp 0 + .ra: lr
STACK CFI 1933c .cfa: sp 8 + .ra: .cfa -4 + ^ r11: .cfa -8 + ^
STACK CFI 19340 .cfa: r11 4 +
STACK CFI INIT 19364 2c .cfa: sp 0 + .ra: lr
STACK CFI 19368 .cfa: sp 8 + .ra: .cfa -4 + ^ r11: .cfa -8 + ^
STACK CFI 1936c .cfa: r11 4 +
STACK CFI INIT 19390 2c .cfa: sp 0 + .ra: lr
STACK CFI 19394 .cfa: sp 8 + .ra: .cfa -4 + ^ r11: .cfa -8 + ^
STACK CFI 19398 .cfa: r11 4 +
STACK CFI INIT 18028 824 .cfa: sp 0 + .ra: lr
STACK CFI 1802c .cfa: sp 8 + .ra: .cfa -4 + ^ r11: .cfa -8 + ^
STACK CFI 18030 .cfa: r11 4 +
STACK CFI INIT 193bc 38 .cfa: sp 0 + .ra: lr
STACK CFI 193c0 .cfa: sp 4 + r11: .cfa -4 + ^
STACK CFI 193c4 .cfa: r11 4 +
STACK CFI INIT 1094c 34 .cfa: sp 0 + .ra: lr
STACK CFI 10950 .cfa: sp 4 + r11: .cfa -4 + ^
STACK CFI 10954 .cfa: r11 4 +
STACK CFI INIT 145d0 40 .cfa: sp 0 + .ra: lr
STACK CFI 145d4 .cfa: sp 8 + .ra: .cfa -4 + ^ r11: .cfa -8 + ^
STACK CFI 145d8 .cfa: r11 4 +
STACK CFI INIT 14610 7c .cfa: sp 0 + .ra: lr
STACK CFI 14614 .cfa: sp 8 + .ra: .cfa -4 + ^ r11: .cfa -8 + ^
STACK CFI 14618 .cfa: r11 4 +
STACK CFI INIT 193f4 7c .cfa: sp 0 + .ra: lr
STACK CFI 193f8 .cfa: sp 8 + .ra: .cfa -4 + ^ r11: .cfa -8 + ^
STACK CFI 193fc .cfa: r11 4 +
STACK CFI INIT 146b4 34 .cfa: sp 0 + .ra: lr
STACK CFI 146b8 .cfa: sp 4 + r11: .cfa -4 + ^
STACK CFI 146bc .cfa: r11 4 +
STACK CFI INIT 19470 34 .cfa: sp 0 + .ra: lr
STACK CFI 19474 .cfa: sp 4 + r11: .cfa -4 + ^
STACK CFI 19478 .cfa: r11 4 +
STACK CFI INIT 194a4 40 .cfa: sp 0 + .ra: lr
STACK CFI 194a8 .cfa: sp 8 + .ra: .cfa -4 + ^ r11: .cfa -8 + ^
STACK CFI 194ac .cfa: r11 4 +
STACK CFI INIT 194e4 40 .cfa: sp 0 + .ra: lr
STACK CFI 194e8 .cfa: sp 8 + .ra: .cfa -4 + ^ r11: .cfa -8 + ^
STACK CFI 194ec .cfa: r11 4 +
STACK CFI INIT 19524 7c .cfa: sp 0 + .ra: lr
STACK CFI 19528 .cfa: sp 8 + .ra: .cfa -4 + ^ r11: .cfa -8 + ^
STACK CFI 1952c .cfa: r11 4 +
STACK CFI INIT 195a0 54 .cfa: sp 0 + .ra: lr
STACK CFI 195a4 .cfa: sp 8 + .ra: .cfa -4 + ^ r11: .cfa -8 + ^
STACK CFI 195a8 .cfa: r11 4 +
STACK CFI INIT 195f4 8c .cfa: sp 0 + .ra: lr
STACK CFI 195f8 .cfa: sp 8 + .ra: .cfa -4 + ^ r11: .cfa -8 + ^
STACK CFI 195fc .cfa: r11 4 +
STACK CFI INIT 19680 54 .cfa: sp 0 + .ra: lr
STACK CFI 19684 .cfa: sp 8 + .ra: .cfa -4 + ^ r11: .cfa -8 + ^
STACK CFI 19688 .cfa: r11 4 +
STACK CFI INIT 196d4 28 .cfa: sp 0 + .ra: lr
STACK CFI 196d8 .cfa: sp 8 + .ra: .cfa -4 + ^ r11: .cfa -8 + ^
STACK CFI 196dc .cfa: r11 4 +
STACK CFI INIT 196fc 28 .cfa: sp 0 + .ra: lr
STACK CFI 19700 .cfa: sp 8 + .ra: .cfa -4 + ^ r11: .cfa -8 + ^
STACK CFI 19704 .cfa: r11 4 +
STACK CFI INIT 19724 28 .cfa: sp 0 + .ra: lr
STACK CFI 19728 .cfa: sp 8 + .ra: .cfa -4 + ^ r11: .cfa -8 + ^
STACK CFI 1972c .cfa: r11 4 +
STACK CFI INIT 1974c 54 .cfa: sp 0 + .ra: lr
STACK CFI 19750 .cfa: sp 8 + .ra: .cfa -4 + ^ r11: .cfa -8 + ^
STACK CFI 19754 .cfa: r11 4 +
STACK CFI INIT 197a0 a0 .cfa: sp 0 + .ra: lr
STACK CFI 197a4 .cfa: sp 12 + .ra: .cfa -4 + ^ r11: .cfa -8 + ^ r4: .cfa -12 + ^
STACK CFI 197a8 .cfa: r11 4 +
STACK CFI INIT 19840 30 .cfa: sp 0 + .ra: lr
STACK CFI 19844 .cfa: sp 8 + .ra: .cfa -4 + ^ r11: .cfa -8 + ^
STACK CFI 19848 .cfa: r11 4 +
STACK CFI INIT 19870 54 .cfa: sp 0 + .ra: lr
STACK CFI 19874 .cfa: sp 8 + .ra: .cfa -4 + ^ r11: .cfa -8 + ^
STACK CFI 19878 .cfa: r11 4 +
STACK CFI INIT 198c4 a0 .cfa: sp 0 + .ra: lr
STACK CFI 198c8 .cfa: sp 12 + .ra: .cfa -4 + ^ r11: .cfa -8 + ^ r4: .cfa -12 + ^
STACK CFI 198cc .cfa: r11 4 +
STACK CFI INIT 19964 30 .cfa: sp 0 + .ra: lr
STACK CFI 19968 .cfa: sp 8 + .ra: .cfa -4 + ^ r11: .cfa -8 + ^
STACK CFI 1996c .cfa: r11 4 +
STACK CFI INIT 19994 164 .cfa: sp 0 + .ra: lr
STACK CFI 19998 .cfa: sp 12 + .ra: .cfa -4 + ^ r11: .cfa -8 + ^ r4: .cfa -12 + ^
STACK CFI 1999c .cfa: r11 4 +
STACK CFI INIT 19af8 68 .cfa: sp 0 + .ra: lr
STACK CFI 19afc .cfa: sp 8 + .ra: .cfa -4 + ^ r11: .cfa -8 + ^
STACK CFI 19b00 .cfa: r11 4 +
STACK CFI INIT 19b60 2c .cfa: sp 0 + .ra: lr
STACK CFI 19b64 .cfa: sp 8 + .ra: .cfa -4 + ^ r11: .cfa -8 + ^
STACK CFI 19b68 .cfa: r11 4 +
STACK CFI INIT 19b8c 90 .cfa: sp 0 + .ra: lr
STACK CFI 19b90 .cfa: sp 8 + .ra: .cfa -4 + ^ r11: .cfa -8 + ^
STACK CFI 19b94 .cfa: r11 4 +
STACK CFI INIT 19c1c 2c .cfa: sp 0 + .ra: lr
STACK CFI 19c20 .cfa: sp 8 + .ra: .cfa -4 + ^ r11: .cfa -8 + ^
STACK CFI 19c24 .cfa: r11 4 +
STACK CFI INIT 19c48 90 .cfa: sp 0 + .ra: lr
STACK CFI 19c4c .cfa: sp 8 + .ra: .cfa -4 + ^ r11: .cfa -8 + ^
STACK CFI 19c50 .cfa: r11 4 +
STACK CFI INIT 14c14 88 .cfa: sp 0 + .ra: lr
STACK CFI 14c18 .cfa: sp 8 + .ra: .cfa -4 + ^ r11: .cfa -8 + ^
STACK CFI 14c1c .cfa: r11 4 +
STACK CFI INIT 19cd8 88 .cfa: sp 0 + .ra: lr
STACK CFI 19cdc .cfa: sp 8 + .ra: .cfa -4 + ^ r11: .cfa -8 + ^
STACK CFI 19ce0 .cfa: r11 4 +
STACK CFI INIT 19d60 30 .cfa: sp 0 + .ra: lr
STACK CFI 19d64 .cfa: sp 8 + .ra: .cfa -4 + ^ r11: .cfa -8 + ^
STACK CFI 19d68 .cfa: r11 4 +
STACK CFI INIT 19d90 34 .cfa: sp 0 + .ra: lr
STACK CFI 19d94 .cfa: sp 12 + .ra: .cfa -4 + ^ r11: .cfa -8 + ^ r4: .cfa -12 + ^
STACK CFI 19d98 .cfa: r11 4 +
STACK CFI INIT 19dc4 88 .cfa: sp 0 + .ra: lr
STACK CFI 19dc8 .cfa: sp 8 + .ra: .cfa -4 + ^ r11: .cfa -8 + ^
STACK CFI 19dcc .cfa: r11 4 +
STACK CFI INIT 19e4c bc .cfa: sp 0 + .ra: lr
STACK CFI 19e50 .cfa: sp 8 + .ra: .cfa -4 + ^ r11: .cfa -8 + ^
STACK CFI 19e54 .cfa: r11 4 +
STACK CFI INIT 19f08 130 .cfa: sp 0 + .ra: lr
STACK CFI 19f0c .cfa: sp 12 + .ra: .cfa -4 + ^ r11: .cfa -8 + ^ r4: .cfa -12 + ^
STACK CFI 19f10 .cfa: r11 4 +
STACK CFI INIT 1a038 44 .cfa: sp 0 + .ra: lr
STACK CFI 1a03c .cfa: sp 8 + .ra: .cfa -4 + ^ r11: .cfa -8 + ^
STACK CFI 1a040 .cfa: r11 4 +
STACK CFI INIT 1a07c 38 .cfa: sp 0 + .ra: lr
STACK CFI 1a080 .cfa: sp 8 + .ra: .cfa -4 + ^ r11: .cfa -8 + ^
STACK CFI 1a084 .cfa: r11 4 +
STACK CFI INIT 1a0b4 28 .cfa: sp 0 + .ra: lr
STACK CFI 1a0b8 .cfa: sp 8 + .ra: .cfa -4 + ^ r11: .cfa -8 + ^
STACK CFI 1a0bc .cfa: r11 4 +
STACK CFI INIT 1a0dc 17c .cfa: sp 0 + .ra: lr
STACK CFI 1a0e0 .cfa: sp 8 + .ra: .cfa -4 + ^ r11: .cfa -8 + ^
STACK CFI 1a0e4 .cfa: r11 4 +
STACK CFI INIT 1a258 6c .cfa: sp 0 + .ra: lr
STACK CFI 1a25c .cfa: sp 4 + r11: .cfa -4 + ^
STACK CFI 1a260 .cfa: r11 4 +
STACK CFI INIT 1a2c4 28 .cfa: sp 0 + .ra: lr
STACK CFI 1a2c8 .cfa: sp 4 + r11: .cfa -4 + ^
STACK CFI 1a2cc .cfa: r11 4 +
STACK CFI INIT 1a2ec 28 .cfa: sp 0 + .ra: lr
STACK CFI 1a2f0 .cfa: sp 4 + r11: .cfa -4 + ^
STACK CFI 1a2f4 .cfa: r11 4 +
STACK CFI INIT 15220 48 .cfa: sp 0 + .ra: lr
STACK CFI 15224 .cfa: sp 8 + .ra: .cfa -4 + ^ r11: .cfa -8 + ^
STACK CFI 15228 .cfa: r11 4 +
STACK CFI INIT 1a314 60 .cfa: sp 0 + .ra: lr
STACK CFI 1a318 .cfa: sp 12 + .ra: .cfa -4 + ^ r11: .cfa -8 + ^ r4: .cfa -12 + ^
STACK CFI 1a31c .cfa: r11 4 +
STACK CFI INIT 1a374 a4 .cfa: sp 0 + .ra: lr
STACK CFI 1a378 .cfa: sp 12 + .ra: .cfa -4 + ^ r11: .cfa -8 + ^ r4: .cfa -12 + ^
STACK CFI 1a37c .cfa: r11 4 +
STACK CFI INIT 1a418 60 .cfa: sp 0 + .ra: lr
STACK CFI 1a41c .cfa: sp 12 + .ra: .cfa -4 + ^ r11: .cfa -8 + ^ r4: .cfa -12 + ^
STACK CFI 1a420 .cfa: r11 4 +
STACK CFI INIT 1a478 30 .cfa: sp 0 + .ra: lr
STACK CFI 1a47c .cfa: sp 8 + .ra: .cfa -4 + ^ r11: .cfa -8 + ^
STACK CFI 1a480 .cfa: r11 4 +
STACK CFI INIT 1a4a8 80 .cfa: sp 0 + .ra: lr
STACK CFI 1a4ac .cfa: sp 8 + .ra: .cfa -4 + ^ r11: .cfa -8 + ^
STACK CFI 1a4b0 .cfa: r11 4 +
STACK CFI INIT 1a528 24 .cfa: sp 0 + .ra: lr
STACK CFI 1a52c .cfa: sp 8 + .ra: .cfa -4 + ^ r11: .cfa -8 + ^
STACK CFI 1a530 .cfa: r11 4 +
STACK CFI INIT 1a54c a0 .cfa: sp 0 + .ra: lr
STACK CFI 1a550 .cfa: sp 8 + .ra: .cfa -4 + ^ r11: .cfa -8 + ^
STACK CFI 1a554 .cfa: r11 4 +
STACK CFI INIT 1a5ec 90 .cfa: sp 0 + .ra: lr
STACK CFI 1a5f0 .cfa: sp 12 + .ra: .cfa -4 + ^ r11: .cfa -8 + ^ r4: .cfa -12 + ^
STACK CFI 1a5f4 .cfa: r11 4 +
STACK CFI INIT 1a67c a4 .cfa: sp 0 + .ra: lr
STACK CFI 1a680 .cfa: sp 12 + .ra: .cfa -4 + ^ r11: .cfa -8 + ^ r4: .cfa -12 + ^
STACK CFI 1a684 .cfa: r11 4 +
STACK CFI INIT 1884c 134 .cfa: sp 0 + .ra: lr
STACK CFI 18850 .cfa: sp 8 + .ra: .cfa -4 + ^ r11: .cfa -8 + ^
STACK CFI 18854 .cfa: r11 4 +
STACK CFI INIT 18980 1c .cfa: sp 0 + .ra: lr
STACK CFI 18984 .cfa: sp 8 + .ra: .cfa -4 + ^ r11: .cfa -8 + ^
STACK CFI 18988 .cfa: r11 4 +
STACK CFI INIT 1899c 10c .cfa: sp 0 + .ra: lr
STACK CFI 189a0 .cfa: sp 12 + .ra: .cfa -4 + ^ r11: .cfa -8 + ^ r4: .cfa -12 + ^
STACK CFI 189a4 .cfa: r11 4 +
STACK CFI INIT ffb4 14 .cfa: sp 0 + .ra: lr
STACK CFI ffb8 .cfa: sp 4 + r11: .cfa -4 + ^
STACK CFI ffbc .cfa: r11 4 +
STACK CFI INIT 13bac 40 .cfa: sp 0 + .ra: lr
STACK CFI 13bb0 .cfa: sp 4 + r11: .cfa -4 + ^
STACK CFI 13bb4 .cfa: r11 4 +
STACK CFI INIT 10068 40 .cfa: sp 0 + .ra: lr
STACK CFI 1006c .cfa: sp 4 + r11: .cfa -4 + ^
STACK CFI 10070 .cfa: r11 4 +
STACK CFI INIT 100a8 6c .cfa: sp 0 + .ra: lr
STACK CFI 100ac .cfa: sp 16 + .ra: .cfa -4 + ^ r11: .cfa -8 + ^ r4: .cfa -16 + ^ r5: .cfa -12 + ^
STACK CFI 100b0 .cfa: r11 4 +
STACK CFI INIT 10114 6c .cfa: sp 0 + .ra: lr
STACK CFI 10118 .cfa: sp 16 + .ra: .cfa -4 + ^ r11: .cfa -8 + ^ r4: .cfa -16 + ^ r5: .cfa -12 + ^
STACK CFI 1011c .cfa: r11 4 +
STACK CFI INIT 10180 54 .cfa: sp 0 + .ra: lr
STACK CFI 10184 .cfa: sp 8 + .ra: .cfa -4 + ^ r11: .cfa -8 + ^
STACK CFI 10188 .cfa: r11 4 +
STACK CFI INIT 101d4 30 .cfa: sp 0 + .ra: lr
STACK CFI 101d8 .cfa: sp 8 + .ra: .cfa -4 + ^ r11: .cfa -8 + ^
STACK CFI 101dc .cfa: r11 4 +
STACK CFI INIT 10230 84 .cfa: sp 0 + .ra: lr
STACK CFI 10234 .cfa: sp 8 + .ra: .cfa -4 + ^ r11: .cfa -8 + ^
STACK CFI 10238 .cfa: r11 4 +
STACK CFI INIT 13c70 28 .cfa: sp 0 + .ra: lr
STACK CFI 13c74 .cfa: sp 4 + r11: .cfa -4 + ^
STACK CFI 13c78 .cfa: r11 4 +
STACK CFI INIT 102b4 30 .cfa: sp 0 + .ra: lr
STACK CFI 102b8 .cfa: sp 8 + .ra: .cfa -4 + ^ r11: .cfa -8 + ^
STACK CFI 102bc .cfa: r11 4 +
STACK CFI INIT 102e4 3c .cfa: sp 0 + .ra: lr
STACK CFI 102e8 .cfa: sp 8 + .ra: .cfa -4 + ^ r11: .cfa -8 + ^
STACK CFI 102ec .cfa: r11 4 +
STACK CFI INIT 18aa8 40 .cfa: sp 0 + .ra: lr
STACK CFI 18aac .cfa: sp 4 + r11: .cfa -4 + ^
STACK CFI 18ab0 .cfa: r11 4 +
STACK CFI INIT 18ae8 3c .cfa: sp 0 + .ra: lr
STACK CFI 18aec .cfa: sp 4 + r11: .cfa -4 + ^
STACK CFI 18af0 .cfa: r11 4 +
STACK CFI INIT 18b24 70 .cfa: sp 0 + .ra: lr
STACK CFI 18b28 .cfa: sp 8 + .ra: .cfa -4 + ^ r11: .cfa -8 + ^
STACK CFI 18b2c .cfa: r11 4 +
STACK CFI INIT 10320 78 .cfa: sp 0 + .ra: lr
STACK CFI 10324 .cfa: sp 8 + .ra: .cfa -4 + ^ r11: .cfa -8 + ^
STACK CFI 10328 .cfa: r11 4 +
STACK CFI INIT 103f4 40 .cfa: sp 0 + .ra: lr
STACK CFI 103f8 .cfa: sp 8 + .ra: .cfa -4 + ^ r11: .cfa -8 + ^
STACK CFI 103fc .cfa: r11 4 +
STACK CFI INIT 10434 54 .cfa: sp 0 + .ra: lr
STACK CFI 10438 .cfa: sp 8 + .ra: .cfa -4 + ^ r11: .cfa -8 + ^
STACK CFI 1043c .cfa: r11 4 +
STACK CFI INIT 10488 4c .cfa: sp 0 + .ra: lr
STACK CFI 1048c .cfa: sp 8 + .ra: .cfa -4 + ^ r11: .cfa -8 + ^
STACK CFI 10490 .cfa: r11 4 +
STACK CFI INIT 18b94 3c .cfa: sp 0 + .ra: lr
STACK CFI 18b98 .cfa: sp 4 + r11: .cfa -4 + ^
STACK CFI 18b9c .cfa: r11 4 +
STACK CFI INIT 18bd0 54 .cfa: sp 0 + .ra: lr
STACK CFI 18bd4 .cfa: sp 4 + r11: .cfa -4 + ^
STACK CFI 18bd8 .cfa: r11 4 +
STACK CFI INIT 18c24 44 .cfa: sp 0 + .ra: lr
STACK CFI 18c28 .cfa: sp 4 + r11: .cfa -4 + ^
STACK CFI 18c2c .cfa: r11 4 +
STACK CFI INIT 18c68 44 .cfa: sp 0 + .ra: lr
STACK CFI 18c6c .cfa: sp 4 + r11: .cfa -4 + ^
STACK CFI 18c70 .cfa: r11 4 +
STACK CFI INIT 13cb8 40 .cfa: sp 0 + .ra: lr
STACK CFI 13cbc .cfa: sp 8 + .ra: .cfa -4 + ^ r11: .cfa -8 + ^
STACK CFI 13cc0 .cfa: r11 4 +
STACK CFI INIT 13cf8 28 .cfa: sp 0 + .ra: lr
STACK CFI 13cfc .cfa: sp 4 + r11: .cfa -4 + ^
STACK CFI 13d00 .cfa: r11 4 +
STACK CFI INIT 18cac 28 .cfa: sp 0 + .ra: lr
STACK CFI 18cb0 .cfa: sp 4 + r11: .cfa -4 + ^
STACK CFI 18cb4 .cfa: r11 4 +
STACK CFI INIT 13fb8 24 .cfa: sp 0 + .ra: lr
STACK CFI 13fbc .cfa: sp 4 + r11: .cfa -4 + ^
STACK CFI 13fc0 .cfa: r11 4 +
STACK CFI INIT 18cd4 24 .cfa: sp 0 + .ra: lr
STACK CFI 18cd8 .cfa: sp 4 + r11: .cfa -4 + ^
STACK CFI 18cdc .cfa: r11 4 +
STACK CFI INIT 18cf8 24 .cfa: sp 0 + .ra: lr
STACK CFI 18cfc .cfa: sp 4 + r11: .cfa -4 + ^
STACK CFI 18d00 .cfa: r11 4 +
STACK CFI INIT 18d1c 34 .cfa: sp 0 + .ra: lr
STACK CFI 18d20 .cfa: sp 4 + r11: .cfa -4 + ^
STACK CFI 18d24 .cfa: r11 4 +
STACK CFI INIT 18d50 44 .cfa: sp 0 + .ra: lr
STACK CFI 18d54 .cfa: sp 8 + .ra: .cfa -4 + ^ r11: .cfa -8 + ^
STACK CFI 18d58 .cfa: r11 4 +
STACK CFI INIT 18d94 30 .cfa: sp 0 + .ra: lr
STACK CFI 18d98 .cfa: sp 8 + .ra: .cfa -4 + ^ r11: .cfa -8 + ^
STACK CFI 18d9c .cfa: r11 4 +
STACK CFI INIT 18dc4 b4 .cfa: sp 0 + .ra: lr
STACK CFI 18dc8 .cfa: sp 24 + .ra: .cfa -4 + ^ r11: .cfa -8 + ^ r3: .cfa -24 + ^ r4: .cfa -20 + ^ r5: .cfa -16 + ^ r6: .cfa -12 + ^
STACK CFI 18dcc .cfa: r11 4 +
STACK CFI INIT 18e78 44 .cfa: sp 0 + .ra: lr
STACK CFI 18e7c .cfa: sp 4 + r11: .cfa -4 + ^
STACK CFI 18e80 .cfa: r11 4 +
STACK CFI INIT 18ebc 28 .cfa: sp 0 + .ra: lr
STACK CFI 18ec0 .cfa: sp 4 + r11: .cfa -4 + ^
STACK CFI 18ec4 .cfa: r11 4 +
STACK CFI INIT 18ee4 28 .cfa: sp 0 + .ra: lr
STACK CFI 18ee8 .cfa: sp 4 + r11: .cfa -4 + ^
STACK CFI 18eec .cfa: r11 4 +
STACK CFI INIT 18f0c 58 .cfa: sp 0 + .ra: lr
STACK CFI 18f10 .cfa: sp 12 + .ra: .cfa -4 + ^ r11: .cfa -8 + ^ r4: .cfa -12 + ^
STACK CFI 18f14 .cfa: r11 4 +
STACK CFI INIT 13d7c 78 .cfa: sp 0 + .ra: lr
STACK CFI 13d80 .cfa: sp 4 + r11: .cfa -4 + ^
STACK CFI 13d84 .cfa: r11 4 +
STACK CFI INIT 13e44 38 .cfa: sp 0 + .ra: lr
STACK CFI 13e48 .cfa: sp 4 + r11: .cfa -4 + ^
STACK CFI 13e4c .cfa: r11 4 +
STACK CFI INIT 13e7c 38 .cfa: sp 0 + .ra: lr
STACK CFI 13e80 .cfa: sp 4 + r11: .cfa -4 + ^
STACK CFI 13e84 .cfa: r11 4 +
STACK CFI INIT 13ff4 34 .cfa: sp 0 + .ra: lr
STACK CFI 13ff8 .cfa: sp 4 + r11: .cfa -4 + ^
STACK CFI 13ffc .cfa: r11 4 +
STACK CFI INIT 14028 44 .cfa: sp 0 + .ra: lr
STACK CFI 1402c .cfa: sp 8 + .ra: .cfa -4 + ^ r11: .cfa -8 + ^
STACK CFI 14030 .cfa: r11 4 +
STACK CFI INIT 1406c 30 .cfa: sp 0 + .ra: lr
STACK CFI 14070 .cfa: sp 8 + .ra: .cfa -4 + ^ r11: .cfa -8 + ^
STACK CFI 14074 .cfa: r11 4 +
STACK CFI INIT 1409c b4 .cfa: sp 0 + .ra: lr
STACK CFI 140a0 .cfa: sp 24 + .ra: .cfa -4 + ^ r11: .cfa -8 + ^ r3: .cfa -24 + ^ r4: .cfa -20 + ^ r5: .cfa -16 + ^ r6: .cfa -12 + ^
STACK CFI 140a4 .cfa: r11 4 +
STACK CFI INIT 18f64 48 .cfa: sp 0 + .ra: lr
STACK CFI 18f68 .cfa: sp 8 + .ra: .cfa -4 + ^ r11: .cfa -8 + ^
STACK CFI 18f6c .cfa: r11 4 +
STACK CFI INIT 18fac 34 .cfa: sp 0 + .ra: lr
STACK CFI 18fb0 .cfa: sp 8 + .ra: .cfa -4 + ^ r11: .cfa -8 + ^
STACK CFI 18fb4 .cfa: r11 4 +
STACK CFI INIT 14150 2c .cfa: sp 0 + .ra: lr
STACK CFI 14154 .cfa: sp 8 + .ra: .cfa -4 + ^ r11: .cfa -8 + ^
STACK CFI 14158 .cfa: r11 4 +
STACK CFI INIT 15dfc 68 .cfa: sp 0 + .ra: lr
STACK CFI 15e00 .cfa: sp 12 + .ra: .cfa -4 + ^ r11: .cfa -8 + ^ r4: .cfa -12 + ^
STACK CFI 15e04 .cfa: r11 4 +
STACK CFI INIT 1417c 70 .cfa: sp 0 + .ra: lr
STACK CFI 14180 .cfa: sp 8 + .ra: .cfa -4 + ^ r11: .cfa -8 + ^
STACK CFI 14184 .cfa: r11 4 +
STACK CFI INIT 1e018 34 .cfa: sp 0 + .ra: lr
STACK CFI 1e01c .cfa: sp 4 + r11: .cfa -4 + ^
STACK CFI 1e020 .cfa: r11 4 +
STACK CFI INIT 1e04c 44 .cfa: sp 0 + .ra: lr
STACK CFI 1e050 .cfa: sp 8 + .ra: .cfa -4 + ^ r11: .cfa -8 + ^
STACK CFI 1e054 .cfa: r11 4 +
STACK CFI INIT 1e090 30 .cfa: sp 0 + .ra: lr
STACK CFI 1e094 .cfa: sp 8 + .ra: .cfa -4 + ^ r11: .cfa -8 + ^
STACK CFI 1e098 .cfa: r11 4 +
STACK CFI INIT 1e0c0 b4 .cfa: sp 0 + .ra: lr
STACK CFI 1e0c4 .cfa: sp 24 + .ra: .cfa -4 + ^ r11: .cfa -8 + ^ r3: .cfa -24 + ^ r4: .cfa -20 + ^ r5: .cfa -16 + ^ r6: .cfa -12 + ^
STACK CFI 1e0c8 .cfa: r11 4 +
STACK CFI INIT 104d4 a8 .cfa: sp 0 + .ra: lr
STACK CFI 104d8 .cfa: sp 16 + .ra: .cfa -4 + ^ r11: .cfa -8 + ^ r4: .cfa -16 + ^ r5: .cfa -12 + ^
STACK CFI 104dc .cfa: r11 4 +
STACK CFI INIT 1057c 54 .cfa: sp 0 + .ra: lr
STACK CFI 10580 .cfa: sp 12 + .ra: .cfa -4 + ^ r11: .cfa -8 + ^ r4: .cfa -12 + ^
STACK CFI 10584 .cfa: r11 4 +
STACK CFI INIT 18fe0 4c .cfa: sp 0 + .ra: lr
STACK CFI 18fe4 .cfa: sp 4 + r11: .cfa -4 + ^
STACK CFI 18fe8 .cfa: r11 4 +
STACK CFI INIT 105d0 50 .cfa: sp 0 + .ra: lr
STACK CFI 105d4 .cfa: sp 8 + .ra: .cfa -4 + ^ r11: .cfa -8 + ^
STACK CFI 105d8 .cfa: r11 4 +
STACK CFI INIT 10620 e8 .cfa: sp 0 + .ra: lr
STACK CFI 10624 .cfa: sp 12 + .ra: .cfa -4 + ^ r11: .cfa -8 + ^ r4: .cfa -12 + ^
STACK CFI 10628 .cfa: r11 4 +
STACK CFI INIT 10708 48 .cfa: sp 0 + .ra: lr
STACK CFI 1070c .cfa: sp 8 + .ra: .cfa -4 + ^ r11: .cfa -8 + ^
STACK CFI 10710 .cfa: r11 4 +
STACK CFI INIT 190a4 68 .cfa: sp 0 + .ra: lr
STACK CFI 190a8 .cfa: sp 8 + .ra: .cfa -4 + ^ r11: .cfa -8 + ^
STACK CFI 190ac .cfa: r11 4 +
STACK CFI INIT 10750 40 .cfa: sp 0 + .ra: lr
STACK CFI 10754 .cfa: sp 8 + .ra: .cfa -4 + ^ r11: .cfa -8 + ^
STACK CFI 10758 .cfa: r11 4 +
STACK CFI INIT 10790 7c .cfa: sp 0 + .ra: lr
STACK CFI 10794 .cfa: sp 12 + .ra: .cfa -4 + ^ r11: .cfa -8 + ^ r4: .cfa -12 + ^
STACK CFI 10798 .cfa: r11 4 +
STACK CFI INIT 1080c 60 .cfa: sp 0 + .ra: lr
STACK CFI 10810 .cfa: sp 8 + .ra: .cfa -4 + ^ r11: .cfa -8 + ^
STACK CFI 10814 .cfa: r11 4 +
STACK CFI INIT 1086c 28 .cfa: sp 0 + .ra: lr
STACK CFI 10870 .cfa: sp 8 + .ra: .cfa -4 + ^ r11: .cfa -8 + ^
STACK CFI 10874 .cfa: r11 4 +
STACK CFI INIT 1425c 28 .cfa: sp 0 + .ra: lr
STACK CFI 14260 .cfa: sp 8 + .ra: .cfa -4 + ^ r11: .cfa -8 + ^
STACK CFI 14264 .cfa: r11 4 +
STACK CFI INIT 14284 98 .cfa: sp 0 + .ra: lr
STACK CFI 14288 .cfa: sp 16 + .ra: .cfa -4 + ^ r11: .cfa -8 + ^ r3: .cfa -16 + ^ r4: .cfa -12 + ^
STACK CFI 1428c .cfa: r11 4 +
STACK CFI INIT 19158 1c .cfa: sp 0 + .ra: lr
STACK CFI 1915c .cfa: sp 4 + r11: .cfa -4 + ^
STACK CFI 19160 .cfa: r11 4 +
STACK CFI INIT 19174 60 .cfa: sp 0 + .ra: lr
STACK CFI 19178 .cfa: sp 4 + r11: .cfa -4 + ^
STACK CFI 1917c .cfa: r11 4 +
STACK CFI INIT 191d4 24 .cfa: sp 0 + .ra: lr
STACK CFI 191d8 .cfa: sp 4 + r11: .cfa -4 + ^
STACK CFI 191dc .cfa: r11 4 +
STACK CFI INIT 191f8 50 .cfa: sp 0 + .ra: lr
STACK CFI 191fc .cfa: sp 8 + .ra: .cfa -4 + ^ r11: .cfa -8 + ^
STACK CFI 19200 .cfa: r11 4 +
STACK CFI INIT 19248 2c .cfa: sp 0 + .ra: lr
STACK CFI 1924c .cfa: sp 8 + .ra: .cfa -4 + ^ r11: .cfa -8 + ^
STACK CFI 19250 .cfa: r11 4 +
STACK CFI INIT 19274 68 .cfa: sp 0 + .ra: lr
STACK CFI 19278 .cfa: sp 8 + .ra: .cfa -4 + ^ r11: .cfa -8 + ^
STACK CFI 1927c .cfa: r11 4 +
STACK CFI INIT 1e174 48 .cfa: sp 0 + .ra: lr
STACK CFI 1e178 .cfa: sp 4 + r11: .cfa -4 + ^
STACK CFI 1e17c .cfa: r11 4 +
STACK CFI INIT 15d48 b4 .cfa: sp 0 + .ra: lr
STACK CFI 15d4c .cfa: sp 24 + .ra: .cfa -4 + ^ r11: .cfa -8 + ^ r3: .cfa -24 + ^ r4: .cfa -20 + ^ r5: .cfa -16 + ^ r6: .cfa -12 + ^
STACK CFI 15d50 .cfa: r11 4 +
STACK CFI INIT 143c8 28 .cfa: sp 0 + .ra: lr
STACK CFI 143cc .cfa: sp 4 + r11: .cfa -4 + ^
STACK CFI 143d0 .cfa: r11 4 +
STACK CFI INIT 19310 28 .cfa: sp 0 + .ra: lr
STACK CFI 19314 .cfa: sp 4 + r11: .cfa -4 + ^
STACK CFI 19318 .cfa: r11 4 +
STACK CFI INIT 1a720 148 .cfa: sp 0 + .ra: lr
STACK CFI 1a724 .cfa: sp 16 + .ra: .cfa -4 + ^ r11: .cfa -8 + ^ r4: .cfa -16 + ^ r5: .cfa -12 + ^
STACK CFI 1a728 .cfa: r11 4 +
STACK CFI INIT 1a868 114 .cfa: sp 0 + .ra: lr
STACK CFI 1a86c .cfa: sp 8 + .ra: .cfa -4 + ^ r11: .cfa -8 + ^
STACK CFI 1a870 .cfa: r11 4 +
STACK CFI INIT 1a97c 8 .cfa: sp 0 + .ra: lr
STACK CFI INIT 1a984 8 .cfa: sp 0 + .ra: lr
STACK CFI INIT 1a98c 8 .cfa: sp 0 + .ra: lr
STACK CFI INIT 1a994 8 .cfa: sp 0 + .ra: lr
STACK CFI INIT 1a99c 30 .cfa: sp 0 + .ra: lr
STACK CFI 1a9a0 .cfa: sp 8 + .ra: .cfa -4 + ^ r11: .cfa -8 + ^
STACK CFI 1a9a4 .cfa: r11 4 +
STACK CFI INIT 1a9cc 8 .cfa: sp 0 + .ra: lr
STACK CFI INIT 1a9d4 8 .cfa: sp 0 + .ra: lr
STACK CFI INIT 1a9dc 8 .cfa: sp 0 + .ra: lr
STACK CFI INIT 1a9e4 8 .cfa: sp 0 + .ra: lr
STACK CFI INIT 1a9ec 144 .cfa: sp 0 + .ra: lr
STACK CFI 1a9f0 .cfa: sp 20 + .ra: .cfa -4 + ^ r11: .cfa -8 + ^ r4: .cfa -20 + ^ r5: .cfa -16 + ^ r6: .cfa -12 + ^
STACK CFI 1a9f4 .cfa: r11 4 +
STACK CFI INIT 1ab30 e8 .cfa: sp 0 + .ra: lr
STACK CFI 1ab34 .cfa: sp 8 + .ra: .cfa -4 + ^ r11: .cfa -8 + ^
STACK CFI 1ab38 .cfa: r11 4 +
STACK CFI INIT 1ac18 2e0 .cfa: sp 0 + .ra: lr
STACK CFI 1ac1c .cfa: sp 12 + .ra: .cfa -4 + ^ r11: .cfa -8 + ^ r4: .cfa -12 + ^
STACK CFI 1ac20 .cfa: r11 4 +
STACK CFI INIT 1aef8 1ac .cfa: sp 0 + .ra: lr
STACK CFI 1aefc .cfa: sp 12 + .ra: .cfa -4 + ^ r11: .cfa -8 + ^ r4: .cfa -12 + ^
STACK CFI 1af00 .cfa: r11 4 +
STACK CFI INIT 1b0a4 1ac .cfa: sp 0 + .ra: lr
STACK CFI 1b0a8 .cfa: sp 12 + .ra: .cfa -4 + ^ r11: .cfa -8 + ^ r4: .cfa -12 + ^
STACK CFI 1b0ac .cfa: r11 4 +
STACK CFI INIT 1b250 158 .cfa: sp 0 + .ra: lr
STACK CFI 1b254 .cfa: sp 12 + .ra: .cfa -4 + ^ r11: .cfa -8 + ^ r4: .cfa -12 + ^
STACK CFI 1b258 .cfa: r11 4 +
STACK CFI INIT 1b3a8 58 .cfa: sp 0 + .ra: lr
STACK CFI 1b3ac .cfa: sp 12 + .ra: .cfa -4 + ^ r11: .cfa -8 + ^ r4: .cfa -12 + ^
STACK CFI 1b3b0 .cfa: r11 4 +
STACK CFI INIT 1b400 ec .cfa: sp 0 + .ra: lr
STACK CFI 1b404 .cfa: sp 8 + .ra: .cfa -4 + ^ r11: .cfa -8 + ^
STACK CFI 1b408 .cfa: r11 4 +
STACK CFI INIT 1b4ec 234 .cfa: sp 0 + .ra: lr
STACK CFI 1b4f0 .cfa: sp 12 + .ra: .cfa -4 + ^ r11: .cfa -8 + ^ r4: .cfa -12 + ^
STACK CFI 1b4f4 .cfa: r11 4 +
STACK CFI INIT 1b720 8 .cfa: sp 0 + .ra: lr
STACK CFI INIT 1b728 58 .cfa: sp 0 + .ra: lr
STACK CFI 1b72c .cfa: sp 8 + .ra: .cfa -4 + ^ r11: .cfa -8 + ^
STACK CFI 1b730 .cfa: r11 4 +
STACK CFI INIT 1b780 18c .cfa: sp 0 + .ra: lr
STACK CFI 1b784 .cfa: sp 12 + .ra: .cfa -4 + ^ r11: .cfa -8 + ^ r4: .cfa -12 + ^
STACK CFI 1b788 .cfa: r11 4 +
STACK CFI INIT 1b90c 27c .cfa: sp 0 + .ra: lr
STACK CFI 1b910 .cfa: sp 8 + .ra: .cfa -4 + ^ r11: .cfa -8 + ^
STACK CFI 1b914 .cfa: r11 4 +
STACK CFI INIT 1bb88 78 .cfa: sp 0 + .ra: lr
STACK CFI 1bb8c .cfa: sp 8 + .ra: .cfa -4 + ^ r11: .cfa -8 + ^
STACK CFI 1bb90 .cfa: r11 4 +
STACK CFI INIT 1bc00 f0 .cfa: sp 0 + .ra: lr
STACK CFI 1bc04 .cfa: sp 8 + .ra: .cfa -4 + ^ r11: .cfa -8 + ^
STACK CFI 1bc08 .cfa: r11 4 +
STACK CFI INIT 1bcf0 8 .cfa: sp 0 + .ra: lr
STACK CFI INIT 1bcf8 180 .cfa: sp 0 + .ra: lr
STACK CFI 1bcfc .cfa: sp 12 + .ra: .cfa -4 + ^ r11: .cfa -8 + ^ r4: .cfa -12 + ^
STACK CFI 1bd00 .cfa: r11 4 +
STACK CFI INIT 1be78 8 .cfa: sp 0 + .ra: lr
STACK CFI INIT 1be80 fc .cfa: sp 0 + .ra: lr
STACK CFI 1be84 .cfa: sp 8 + .ra: .cfa -4 + ^ r11: .cfa -8 + ^
STACK CFI 1be88 .cfa: r11 4 +
STACK CFI INIT 1bf7c 8 .cfa: sp 0 + .ra: lr
STACK CFI INIT 1bf84 fc .cfa: sp 0 + .ra: lr
STACK CFI 1bf88 .cfa: sp 8 + .ra: .cfa -4 + ^ r11: .cfa -8 + ^
STACK CFI 1bf8c .cfa: r11 4 +
STACK CFI INIT 1c080 8 .cfa: sp 0 + .ra: lr
STACK CFI INIT 1c088 164 .cfa: sp 0 + .ra: lr
STACK CFI 1c08c .cfa: sp 16 + .ra: .cfa -4 + ^ r11: .cfa -8 + ^ r4: .cfa -16 + ^ r5: .cfa -12 + ^
STACK CFI 1c090 .cfa: r11 4 +
STACK CFI INIT 1c1ec 24 .cfa: sp 0 + .ra: lr
STACK CFI 1c1f0 .cfa: sp 4 + r11: .cfa -4 + ^
STACK CFI 1c1f4 .cfa: r11 4 +
STACK CFI INIT 1c210 33c .cfa: sp 0 + .ra: lr
STACK CFI 1c214 .cfa: sp 12 + .ra: .cfa -4 + ^ r11: .cfa -8 + ^ r4: .cfa -12 + ^
STACK CFI 1c218 .cfa: r11 4 +
STACK CFI INIT 1c54c 150 .cfa: sp 0 + .ra: lr
STACK CFI 1c550 .cfa: sp 12 + .ra: .cfa -4 + ^ r11: .cfa -8 + ^ r4: .cfa -12 + ^
STACK CFI 1c554 .cfa: r11 4 +
STACK CFI INIT 1c69c 38 .cfa: sp 0 + .ra: lr
STACK CFI 1c6a0 .cfa: sp 8 + .ra: .cfa -4 + ^ r11: .cfa -8 + ^
STACK CFI 1c6a4 .cfa: r11 4 +
STACK CFI INIT 1c6d4 1d4 .cfa: sp 0 + .ra: lr
STACK CFI 1c6d8 .cfa: sp 20 + .ra: .cfa -4 + ^ r11: .cfa -8 + ^ r4: .cfa -20 + ^ r5: .cfa -16 + ^ r6: .cfa -12 + ^
STACK CFI 1c6dc .cfa: r11 4 +
STACK CFI INIT 1c8a8 700 .cfa: sp 0 + .ra: lr
STACK CFI 1c8ac .cfa: sp 16 + .ra: .cfa -4 + ^ r11: .cfa -8 + ^ r4: .cfa -16 + ^ r5: .cfa -12 + ^
STACK CFI 1c8b0 .cfa: r11 4 +
STACK CFI INIT 1cfa8 254 .cfa: sp 0 + .ra: lr
STACK CFI 1cfac .cfa: sp 8 + .ra: .cfa -4 + ^ r11: .cfa -8 + ^
STACK CFI 1cfb0 .cfa: r11 4 +
STACK CFI INIT 1d1fc 254 .cfa: sp 0 + .ra: lr
STACK CFI 1d200 .cfa: sp 8 + .ra: .cfa -4 + ^ r11: .cfa -8 + ^
STACK CFI 1d204 .cfa: r11 4 +
STACK CFI INIT 1d450 254 .cfa: sp 0 + .ra: lr
STACK CFI 1d454 .cfa: sp 8 + .ra: .cfa -4 + ^ r11: .cfa -8 + ^
STACK CFI 1d458 .cfa: r11 4 +
STACK CFI INIT 19338 2c .cfa: sp 0 + .ra: lr
STACK CFI 1933c .cfa: sp 8 + .ra: .cfa -4 + ^ r11: .cfa -8 + ^
STACK CFI 19340 .cfa: r11 4 +
STACK CFI INIT 19364 2c .cfa: sp 0 + .ra: lr
STACK CFI 19368 .cfa: sp 8 + .ra: .cfa -4 + ^ r11: .cfa -8 + ^
STACK CFI 1936c .cfa: r11 4 +
STACK CFI INIT 19390 2c .cfa: sp 0 + .ra: lr
STACK CFI 19394 .cfa: sp 8 + .ra: .cfa -4 + ^ r11: .cfa -8 + ^
STACK CFI 19398 .cfa: r11 4 +
STACK CFI INIT 1d6a4 824 .cfa: sp 0 + .ra: lr
STACK CFI 1d6a8 .cfa: sp 8 + .ra: .cfa -4 + ^ r11: .cfa -8 + ^
STACK CFI 1d6ac .cfa: r11 4 +
STACK CFI INIT 1094c 34 .cfa: sp 0 + .ra: lr
STACK CFI 10950 .cfa: sp 4 + r11: .cfa -4 + ^
STACK CFI 10954 .cfa: r11 4 +
STACK CFI INIT 145d0 40 .cfa: sp 0 + .ra: lr
STACK CFI 145d4 .cfa: sp 8 + .ra: .cfa -4 + ^ r11: .cfa -8 + ^
STACK CFI 145d8 .cfa: r11 4 +
STACK CFI INIT 14610 7c .cfa: sp 0 + .ra: lr
STACK CFI 14614 .cfa: sp 8 + .ra: .cfa -4 + ^ r11: .cfa -8 + ^
STACK CFI 14618 .cfa: r11 4 +
STACK CFI INIT 193f4 7c .cfa: sp 0 + .ra: lr
STACK CFI 193f8 .cfa: sp 8 + .ra: .cfa -4 + ^ r11: .cfa -8 + ^
STACK CFI 193fc .cfa: r11 4 +
STACK CFI INIT 146b4 34 .cfa: sp 0 + .ra: lr
STACK CFI 146b8 .cfa: sp 4 + r11: .cfa -4 + ^
STACK CFI 146bc .cfa: r11 4 +
STACK CFI INIT 1e1bc 34 .cfa: sp 0 + .ra: lr
STACK CFI 1e1c0 .cfa: sp 4 + r11: .cfa -4 + ^
STACK CFI 1e1c4 .cfa: r11 4 +
STACK CFI INIT 1e1f0 40 .cfa: sp 0 + .ra: lr
STACK CFI 1e1f4 .cfa: sp 8 + .ra: .cfa -4 + ^ r11: .cfa -8 + ^
STACK CFI 1e1f8 .cfa: r11 4 +
STACK CFI INIT 1e230 54 .cfa: sp 0 + .ra: lr
STACK CFI 1e234 .cfa: sp 8 + .ra: .cfa -4 + ^ r11: .cfa -8 + ^
STACK CFI 1e238 .cfa: r11 4 +
STACK CFI INIT 194e4 40 .cfa: sp 0 + .ra: lr
STACK CFI 194e8 .cfa: sp 8 + .ra: .cfa -4 + ^ r11: .cfa -8 + ^
STACK CFI 194ec .cfa: r11 4 +
STACK CFI INIT 19524 7c .cfa: sp 0 + .ra: lr
STACK CFI 19528 .cfa: sp 8 + .ra: .cfa -4 + ^ r11: .cfa -8 + ^
STACK CFI 1952c .cfa: r11 4 +
STACK CFI INIT 195a0 54 .cfa: sp 0 + .ra: lr
STACK CFI 195a4 .cfa: sp 8 + .ra: .cfa -4 + ^ r11: .cfa -8 + ^
STACK CFI 195a8 .cfa: r11 4 +
STACK CFI INIT 195f4 8c .cfa: sp 0 + .ra: lr
STACK CFI 195f8 .cfa: sp 8 + .ra: .cfa -4 + ^ r11: .cfa -8 + ^
STACK CFI 195fc .cfa: r11 4 +
STACK CFI INIT 196d4 28 .cfa: sp 0 + .ra: lr
STACK CFI 196d8 .cfa: sp 8 + .ra: .cfa -4 + ^ r11: .cfa -8 + ^
STACK CFI 196dc .cfa: r11 4 +
STACK CFI INIT 196fc 28 .cfa: sp 0 + .ra: lr
STACK CFI 19700 .cfa: sp 8 + .ra: .cfa -4 + ^ r11: .cfa -8 + ^
STACK CFI 19704 .cfa: r11 4 +
STACK CFI INIT 19724 28 .cfa: sp 0 + .ra: lr
STACK CFI 19728 .cfa: sp 8 + .ra: .cfa -4 + ^ r11: .cfa -8 + ^
STACK CFI 1972c .cfa: r11 4 +
STACK CFI INIT 1974c 54 .cfa: sp 0 + .ra: lr
STACK CFI 19750 .cfa: sp 8 + .ra: .cfa -4 + ^ r11: .cfa -8 + ^
STACK CFI 19754 .cfa: r11 4 +
STACK CFI INIT 197a0 a0 .cfa: sp 0 + .ra: lr
STACK CFI 197a4 .cfa: sp 12 + .ra: .cfa -4 + ^ r11: .cfa -8 + ^ r4: .cfa -12 + ^
STACK CFI 197a8 .cfa: r11 4 +
STACK CFI INIT 19840 30 .cfa: sp 0 + .ra: lr
STACK CFI 19844 .cfa: sp 8 + .ra: .cfa -4 + ^ r11: .cfa -8 + ^
STACK CFI 19848 .cfa: r11 4 +
STACK CFI INIT 19870 54 .cfa: sp 0 + .ra: lr
STACK CFI 19874 .cfa: sp 8 + .ra: .cfa -4 + ^ r11: .cfa -8 + ^
STACK CFI 19878 .cfa: r11 4 +
STACK CFI INIT 198c4 a0 .cfa: sp 0 + .ra: lr
STACK CFI 198c8 .cfa: sp 12 + .ra: .cfa -4 + ^ r11: .cfa -8 + ^ r4: .cfa -12 + ^
STACK CFI 198cc .cfa: r11 4 +
STACK CFI INIT 19964 30 .cfa: sp 0 + .ra: lr
STACK CFI 19968 .cfa: sp 8 + .ra: .cfa -4 + ^ r11: .cfa -8 + ^
STACK CFI 1996c .cfa: r11 4 +
STACK CFI INIT 19af8 68 .cfa: sp 0 + .ra: lr
STACK CFI 19afc .cfa: sp 8 + .ra: .cfa -4 + ^ r11: .cfa -8 + ^
STACK CFI 19b00 .cfa: r11 4 +
STACK CFI INIT 19b60 2c .cfa: sp 0 + .ra: lr
STACK CFI 19b64 .cfa: sp 8 + .ra: .cfa -4 + ^ r11: .cfa -8 + ^
STACK CFI 19b68 .cfa: r11 4 +
STACK CFI INIT 19b8c 90 .cfa: sp 0 + .ra: lr
STACK CFI 19b90 .cfa: sp 8 + .ra: .cfa -4 + ^ r11: .cfa -8 + ^
STACK CFI 19b94 .cfa: r11 4 +
STACK CFI INIT 19c1c 2c .cfa: sp 0 + .ra: lr
STACK CFI 19c20 .cfa: sp 8 + .ra: .cfa -4 + ^ r11: .cfa -8 + ^
STACK CFI 19c24 .cfa: r11 4 +
STACK CFI INIT 19c48 90 .cfa: sp 0 + .ra: lr
STACK CFI 19c4c .cfa: sp 8 + .ra: .cfa -4 + ^ r11: .cfa -8 + ^
STACK CFI 19c50 .cfa: r11 4 +
STACK CFI INIT 14c14 88 .cfa: sp 0 + .ra: lr
STACK CFI 14c18 .cfa: sp 8 + .ra: .cfa -4 + ^ r11: .cfa -8 + ^
STACK CFI 14c1c .cfa: r11 4 +
STACK CFI INIT 19cd8 88 .cfa: sp 0 + .ra: lr
STACK CFI 19cdc .cfa: sp 8 + .ra: .cfa -4 + ^ r11: .cfa -8 + ^
STACK CFI 19ce0 .cfa: r11 4 +
STACK CFI INIT 19d60 30 .cfa: sp 0 + .ra: lr
STACK CFI 19d64 .cfa: sp 8 + .ra: .cfa -4 + ^ r11: .cfa -8 + ^
STACK CFI 19d68 .cfa: r11 4 +
STACK CFI INIT 1e284 34 .cfa: sp 0 + .ra: lr
STACK CFI 1e288 .cfa: sp 12 + .ra: .cfa -4 + ^ r11: .cfa -8 + ^ r4: .cfa -12 + ^
STACK CFI 1e28c .cfa: r11 4 +
STACK CFI INIT 19dc4 88 .cfa: sp 0 + .ra: lr
STACK CFI 19dc8 .cfa: sp 8 + .ra: .cfa -4 + ^ r11: .cfa -8 + ^
STACK CFI 19dcc .cfa: r11 4 +
STACK CFI INIT 19e4c bc .cfa: sp 0 + .ra: lr
STACK CFI 19e50 .cfa: sp 8 + .ra: .cfa -4 + ^ r11: .cfa -8 + ^
STACK CFI 19e54 .cfa: r11 4 +
STACK CFI INIT 19f08 130 .cfa: sp 0 + .ra: lr
STACK CFI 19f0c .cfa: sp 12 + .ra: .cfa -4 + ^ r11: .cfa -8 + ^ r4: .cfa -12 + ^
STACK CFI 19f10 .cfa: r11 4 +
STACK CFI INIT 1a038 44 .cfa: sp 0 + .ra: lr
STACK CFI 1a03c .cfa: sp 8 + .ra: .cfa -4 + ^ r11: .cfa -8 + ^
STACK CFI 1a040 .cfa: r11 4 +
STACK CFI INIT 1a07c 38 .cfa: sp 0 + .ra: lr
STACK CFI 1a080 .cfa: sp 8 + .ra: .cfa -4 + ^ r11: .cfa -8 + ^
STACK CFI 1a084 .cfa: r11 4 +
STACK CFI INIT 1a0b4 28 .cfa: sp 0 + .ra: lr
STACK CFI 1a0b8 .cfa: sp 8 + .ra: .cfa -4 + ^ r11: .cfa -8 + ^
STACK CFI 1a0bc .cfa: r11 4 +
STACK CFI INIT 1a0dc 17c .cfa: sp 0 + .ra: lr
STACK CFI 1a0e0 .cfa: sp 8 + .ra: .cfa -4 + ^ r11: .cfa -8 + ^
STACK CFI 1a0e4 .cfa: r11 4 +
STACK CFI INIT 1a2c4 28 .cfa: sp 0 + .ra: lr
STACK CFI 1a2c8 .cfa: sp 4 + r11: .cfa -4 + ^
STACK CFI 1a2cc .cfa: r11 4 +
STACK CFI INIT 1a2ec 28 .cfa: sp 0 + .ra: lr
STACK CFI 1a2f0 .cfa: sp 4 + r11: .cfa -4 + ^
STACK CFI 1a2f4 .cfa: r11 4 +
STACK CFI INIT 15220 48 .cfa: sp 0 + .ra: lr
STACK CFI 15224 .cfa: sp 8 + .ra: .cfa -4 + ^ r11: .cfa -8 + ^
STACK CFI 15228 .cfa: r11 4 +
STACK CFI INIT 1a314 60 .cfa: sp 0 + .ra: lr
STACK CFI 1a318 .cfa: sp 12 + .ra: .cfa -4 + ^ r11: .cfa -8 + ^ r4: .cfa -12 + ^
STACK CFI 1a31c .cfa: r11 4 +
STACK CFI INIT 1a374 a4 .cfa: sp 0 + .ra: lr
STACK CFI 1a378 .cfa: sp 12 + .ra: .cfa -4 + ^ r11: .cfa -8 + ^ r4: .cfa -12 + ^
STACK CFI 1a37c .cfa: r11 4 +
STACK CFI INIT 1a418 60 .cfa: sp 0 + .ra: lr
STACK CFI 1a41c .cfa: sp 12 + .ra: .cfa -4 + ^ r11: .cfa -8 + ^ r4: .cfa -12 + ^
STACK CFI 1a420 .cfa: r11 4 +
STACK CFI INIT 1a478 30 .cfa: sp 0 + .ra: lr
STACK CFI 1a47c .cfa: sp 8 + .ra: .cfa -4 + ^ r11: .cfa -8 + ^
STACK CFI 1a480 .cfa: r11 4 +
STACK CFI INIT 1a4a8 80 .cfa: sp 0 + .ra: lr
STACK CFI 1a4ac .cfa: sp 8 + .ra: .cfa -4 + ^ r11: .cfa -8 + ^
STACK CFI 1a4b0 .cfa: r11 4 +
STACK CFI INIT 1a528 24 .cfa: sp 0 + .ra: lr
STACK CFI 1a52c .cfa: sp 8 + .ra: .cfa -4 + ^ r11: .cfa -8 + ^
STACK CFI 1a530 .cfa: r11 4 +
STACK CFI INIT 1a54c a0 .cfa: sp 0 + .ra: lr
STACK CFI 1a550 .cfa: sp 8 + .ra: .cfa -4 + ^ r11: .cfa -8 + ^
STACK CFI 1a554 .cfa: r11 4 +
STACK CFI INIT 1a5ec 90 .cfa: sp 0 + .ra: lr
STACK CFI 1a5f0 .cfa: sp 12 + .ra: .cfa -4 + ^ r11: .cfa -8 + ^ r4: .cfa -12 + ^
STACK CFI 1a5f4 .cfa: r11 4 +
STACK CFI INIT 1a67c a4 .cfa: sp 0 + .ra: lr
STACK CFI 1a680 .cfa: sp 12 + .ra: .cfa -4 + ^ r11: .cfa -8 + ^ r4: .cfa -12 + ^
STACK CFI 1a684 .cfa: r11 4 +
STACK CFI INIT 1dec8 134 .cfa: sp 0 + .ra: lr
STACK CFI 1decc .cfa: sp 8 + .ra: .cfa -4 + ^ r11: .cfa -8 + ^
STACK CFI 1ded0 .cfa: r11 4 +
STACK CFI INIT 1dffc 1c .cfa: sp 0 + .ra: lr
STACK CFI 1e000 .cfa: sp 8 + .ra: .cfa -4 + ^ r11: .cfa -8 + ^
STACK CFI 1e004 .cfa: r11 4 +
STACK CFI INIT ffb4 14 .cfa: sp 0 + .ra: lr
STACK CFI ffb8 .cfa: sp 4 + r11: .cfa -4 + ^
STACK CFI ffbc .cfa: r11 4 +
STACK CFI INIT 13b60 4c .cfa: sp 0 + .ra: lr
STACK CFI 13b64 .cfa: sp 8 + .ra: .cfa -4 + ^ r11: .cfa -8 + ^
STACK CFI 13b68 .cfa: r11 4 +
STACK CFI INIT 13bac 40 .cfa: sp 0 + .ra: lr
STACK CFI 13bb0 .cfa: sp 4 + r11: .cfa -4 + ^
STACK CFI 13bb4 .cfa: r11 4 +
STACK CFI INIT 10068 40 .cfa: sp 0 + .ra: lr
STACK CFI 1006c .cfa: sp 4 + r11: .cfa -4 + ^
STACK CFI 10070 .cfa: r11 4 +
STACK CFI INIT 100a8 6c .cfa: sp 0 + .ra: lr
STACK CFI 100ac .cfa: sp 16 + .ra: .cfa -4 + ^ r11: .cfa -8 + ^ r4: .cfa -16 + ^ r5: .cfa -12 + ^
STACK CFI 100b0 .cfa: r11 4 +
STACK CFI INIT 10114 6c .cfa: sp 0 + .ra: lr
STACK CFI 10118 .cfa: sp 16 + .ra: .cfa -4 + ^ r11: .cfa -8 + ^ r4: .cfa -16 + ^ r5: .cfa -12 + ^
STACK CFI 1011c .cfa: r11 4 +
STACK CFI INIT 10180 54 .cfa: sp 0 + .ra: lr
STACK CFI 10184 .cfa: sp 8 + .ra: .cfa -4 + ^ r11: .cfa -8 + ^
STACK CFI 10188 .cfa: r11 4 +
STACK CFI INIT 101d4 30 .cfa: sp 0 + .ra: lr
STACK CFI 101d8 .cfa: sp 8 + .ra: .cfa -4 + ^ r11: .cfa -8 + ^
STACK CFI 101dc .cfa: r11 4 +
STACK CFI INIT 10230 84 .cfa: sp 0 + .ra: lr
STACK CFI 10234 .cfa: sp 8 + .ra: .cfa -4 + ^ r11: .cfa -8 + ^
STACK CFI 10238 .cfa: r11 4 +
STACK CFI INIT 102e4 3c .cfa: sp 0 + .ra: lr
STACK CFI 102e8 .cfa: sp 8 + .ra: .cfa -4 + ^ r11: .cfa -8 + ^
STACK CFI 102ec .cfa: r11 4 +
STACK CFI INIT 103f4 40 .cfa: sp 0 + .ra: lr
STACK CFI 103f8 .cfa: sp 8 + .ra: .cfa -4 + ^ r11: .cfa -8 + ^
STACK CFI 103fc .cfa: r11 4 +
STACK CFI INIT 10434 54 .cfa: sp 0 + .ra: lr
STACK CFI 10438 .cfa: sp 8 + .ra: .cfa -4 + ^ r11: .cfa -8 + ^
STACK CFI 1043c .cfa: r11 4 +
STACK CFI INIT 13cb8 40 .cfa: sp 0 + .ra: lr
STACK CFI 13cbc .cfa: sp 8 + .ra: .cfa -4 + ^ r11: .cfa -8 + ^
STACK CFI 13cc0 .cfa: r11 4 +
STACK CFI INIT 13cf8 28 .cfa: sp 0 + .ra: lr
STACK CFI 13cfc .cfa: sp 4 + r11: .cfa -4 + ^
STACK CFI 13d00 .cfa: r11 4 +
STACK CFI INIT 18cac 28 .cfa: sp 0 + .ra: lr
STACK CFI 18cb0 .cfa: sp 4 + r11: .cfa -4 + ^
STACK CFI 18cb4 .cfa: r11 4 +
STACK CFI INIT 13fb8 24 .cfa: sp 0 + .ra: lr
STACK CFI 13fbc .cfa: sp 4 + r11: .cfa -4 + ^
STACK CFI 13fc0 .cfa: r11 4 +
STACK CFI INIT 13ff4 34 .cfa: sp 0 + .ra: lr
STACK CFI 13ff8 .cfa: sp 4 + r11: .cfa -4 + ^
STACK CFI 13ffc .cfa: r11 4 +
STACK CFI INIT 14028 44 .cfa: sp 0 + .ra: lr
STACK CFI 1402c .cfa: sp 8 + .ra: .cfa -4 + ^ r11: .cfa -8 + ^
STACK CFI 14030 .cfa: r11 4 +
STACK CFI INIT 1406c 30 .cfa: sp 0 + .ra: lr
STACK CFI 14070 .cfa: sp 8 + .ra: .cfa -4 + ^ r11: .cfa -8 + ^
STACK CFI 14074 .cfa: r11 4 +
STACK CFI INIT 1409c b4 .cfa: sp 0 + .ra: lr
STACK CFI 140a0 .cfa: sp 24 + .ra: .cfa -4 + ^ r11: .cfa -8 + ^ r3: .cfa -24 + ^ r4: .cfa -20 + ^ r5: .cfa -16 + ^ r6: .cfa -12 + ^
STACK CFI 140a4 .cfa: r11 4 +
STACK CFI INIT 14150 2c .cfa: sp 0 + .ra: lr
STACK CFI 14154 .cfa: sp 8 + .ra: .cfa -4 + ^ r11: .cfa -8 + ^
STACK CFI 14158 .cfa: r11 4 +
STACK CFI INIT 1417c 70 .cfa: sp 0 + .ra: lr
STACK CFI 14180 .cfa: sp 8 + .ra: .cfa -4 + ^ r11: .cfa -8 + ^
STACK CFI 14184 .cfa: r11 4 +
STACK CFI INIT 104d4 a8 .cfa: sp 0 + .ra: lr
STACK CFI 104d8 .cfa: sp 16 + .ra: .cfa -4 + ^ r11: .cfa -8 + ^ r4: .cfa -16 + ^ r5: .cfa -12 + ^
STACK CFI 104dc .cfa: r11 4 +
STACK CFI INIT 1057c 54 .cfa: sp 0 + .ra: lr
STACK CFI 10580 .cfa: sp 12 + .ra: .cfa -4 + ^ r11: .cfa -8 + ^ r4: .cfa -12 + ^
STACK CFI 10584 .cfa: r11 4 +
STACK CFI INIT 18fe0 4c .cfa: sp 0 + .ra: lr
STACK CFI 18fe4 .cfa: sp 4 + r11: .cfa -4 + ^
STACK CFI 18fe8 .cfa: r11 4 +
STACK CFI INIT 105d0 50 .cfa: sp 0 + .ra: lr
STACK CFI 105d4 .cfa: sp 8 + .ra: .cfa -4 + ^ r11: .cfa -8 + ^
STACK CFI 105d8 .cfa: r11 4 +
STACK CFI INIT 10620 e8 .cfa: sp 0 + .ra: lr
STACK CFI 10624 .cfa: sp 12 + .ra: .cfa -4 + ^ r11: .cfa -8 + ^ r4: .cfa -12 + ^
STACK CFI 10628 .cfa: r11 4 +
STACK CFI INIT 10708 48 .cfa: sp 0 + .ra: lr
STACK CFI 1070c .cfa: sp 8 + .ra: .cfa -4 + ^ r11: .cfa -8 + ^
STACK CFI 10710 .cfa: r11 4 +
STACK CFI INIT 10750 40 .cfa: sp 0 + .ra: lr
STACK CFI 10754 .cfa: sp 8 + .ra: .cfa -4 + ^ r11: .cfa -8 + ^
STACK CFI 10758 .cfa: r11 4 +
STACK CFI INIT 10790 7c .cfa: sp 0 + .ra: lr
STACK CFI 10794 .cfa: sp 12 + .ra: .cfa -4 + ^ r11: .cfa -8 + ^ r4: .cfa -12 + ^
STACK CFI 10798 .cfa: r11 4 +
STACK CFI INIT 1080c 60 .cfa: sp 0 + .ra: lr
STACK CFI 10810 .cfa: sp 8 + .ra: .cfa -4 + ^ r11: .cfa -8 + ^
STACK CFI 10814 .cfa: r11 4 +
STACK CFI INIT 1086c 28 .cfa: sp 0 + .ra: lr
STACK CFI 10870 .cfa: sp 8 + .ra: .cfa -4 + ^ r11: .cfa -8 + ^
STACK CFI 10874 .cfa: r11 4 +
STACK CFI INIT 14284 98 .cfa: sp 0 + .ra: lr
STACK CFI 14288 .cfa: sp 16 + .ra: .cfa -4 + ^ r11: .cfa -8 + ^ r3: .cfa -16 + ^ r4: .cfa -12 + ^
STACK CFI 1428c .cfa: r11 4 +
STACK CFI INIT 19158 1c .cfa: sp 0 + .ra: lr
STACK CFI 1915c .cfa: sp 4 + r11: .cfa -4 + ^
STACK CFI 19160 .cfa: r11 4 +
STACK CFI INIT 191f8 50 .cfa: sp 0 + .ra: lr
STACK CFI 191fc .cfa: sp 8 + .ra: .cfa -4 + ^ r11: .cfa -8 + ^
STACK CFI 19200 .cfa: r11 4 +
STACK CFI INIT 1e2b8 e8 .cfa: sp 0 + .ra: lr
STACK CFI 1e2bc .cfa: sp 16 + .ra: .cfa -4 + ^ r11: .cfa -8 + ^ r4: .cfa -16 + ^ r5: .cfa -12 + ^
STACK CFI 1e2c0 .cfa: r11 4 +
STACK CFI INIT 1e3a0 b4 .cfa: sp 0 + .ra: lr
STACK CFI 1e3a4 .cfa: sp 8 + .ra: .cfa -4 + ^ r11: .cfa -8 + ^
STACK CFI 1e3a8 .cfa: r11 4 +
STACK CFI INIT 1e454 8 .cfa: sp 0 + .ra: lr
STACK CFI INIT 1e45c 8 .cfa: sp 0 + .ra: lr
STACK CFI INIT 1e464 30 .cfa: sp 0 + .ra: lr
STACK CFI 1e468 .cfa: sp 8 + .ra: .cfa -4 + ^ r11: .cfa -8 + ^
STACK CFI 1e46c .cfa: r11 4 +
STACK CFI INIT 1e494 8 .cfa: sp 0 + .ra: lr
STACK CFI INIT 1e49c 8 .cfa: sp 0 + .ra: lr
STACK CFI INIT 1e4a4 74 .cfa: sp 0 + .ra: lr
STACK CFI 1e4a8 .cfa: sp 16 + .ra: .cfa -4 + ^ r11: .cfa -8 + ^ r4: .cfa -16 + ^ r5: .cfa -12 + ^
STACK CFI 1e4ac .cfa: r11 4 +
STACK CFI INIT 1e518 f8 .cfa: sp 0 + .ra: lr
STACK CFI 1e51c .cfa: sp 8 + .ra: .cfa -4 + ^ r11: .cfa -8 + ^
STACK CFI 1e520 .cfa: r11 4 +
STACK CFI INIT 1e610 1bc .cfa: sp 0 + .ra: lr
STACK CFI 1e614 .cfa: sp 8 + .ra: .cfa -4 + ^ r11: .cfa -8 + ^
STACK CFI 1e618 .cfa: r11 4 +
STACK CFI INIT 1e7cc 70 .cfa: sp 0 + .ra: lr
STACK CFI 1e7d0 .cfa: sp 12 + .ra: .cfa -4 + ^ r11: .cfa -8 + ^ r4: .cfa -12 + ^
STACK CFI 1e7d4 .cfa: r11 4 +
STACK CFI INIT 1e83c 254 .cfa: sp 0 + .ra: lr
STACK CFI 1e840 .cfa: sp 8 + .ra: .cfa -4 + ^ r11: .cfa -8 + ^
STACK CFI 1e844 .cfa: r11 4 +
STACK CFI INIT 1ea90 8 .cfa: sp 0 + .ra: lr
STACK CFI INIT 1ea98 180 .cfa: sp 0 + .ra: lr
STACK CFI 1ea9c .cfa: sp 12 + .ra: .cfa -4 + ^ r11: .cfa -8 + ^ r4: .cfa -12 + ^
STACK CFI 1eaa0 .cfa: r11 4 +
STACK CFI INIT 1ec18 fc .cfa: sp 0 + .ra: lr
STACK CFI 1ec1c .cfa: sp 16 + .ra: .cfa -4 + ^ r11: .cfa -8 + ^ r4: .cfa -16 + ^ r5: .cfa -12 + ^
STACK CFI 1ec20 .cfa: r11 4 +
STACK CFI INIT 1ed14 24 .cfa: sp 0 + .ra: lr
STACK CFI 1ed18 .cfa: sp 4 + r11: .cfa -4 + ^
STACK CFI 1ed1c .cfa: r11 4 +
STACK CFI INIT 1ed38 f10 .cfa: sp 0 + .ra: lr
STACK CFI 1ed3c .cfa: sp 28 + .ra: .cfa -4 + ^ r11: .cfa -8 + ^ r4: .cfa -28 + ^ r5: .cfa -24 + ^ r6: .cfa -20 + ^ r7: .cfa -16 + ^ r8: .cfa -12 + ^
STACK CFI 1ed40 .cfa: r11 4 +
STACK CFI INIT 1fc48 60 .cfa: sp 0 + .ra: lr
STACK CFI 1fc4c .cfa: sp 12 + .ra: .cfa -4 + ^ r11: .cfa -8 + ^ r4: .cfa -12 + ^
STACK CFI 1fc50 .cfa: r11 4 +
STACK CFI INIT 1fca8 60 .cfa: sp 0 + .ra: lr
STACK CFI 1fcac .cfa: sp 12 + .ra: .cfa -4 + ^ r11: .cfa -8 + ^ r4: .cfa -12 + ^
STACK CFI 1fcb0 .cfa: r11 4 +
STACK CFI INIT 1fd08 38 .cfa: sp 0 + .ra: lr
STACK CFI 1fd0c .cfa: sp 8 + .ra: .cfa -4 + ^ r11: .cfa -8 + ^
STACK CFI 1fd10 .cfa: r11 4 +
STACK CFI INIT 1fd40 1e0 .cfa: sp 0 + .ra: lr
STACK CFI 1fd44 .cfa: sp 20 + .ra: .cfa -4 + ^ r11: .cfa -8 + ^ r4: .cfa -20 + ^ r5: .cfa -16 + ^ r6: .cfa -12 + ^
STACK CFI 1fd48 .cfa: r11 4 +
STACK CFI INIT 1451c 34 .cfa: sp 0 + .ra: lr
STACK CFI 14520 .cfa: sp 4 + r11: .cfa -4 + ^
STACK CFI 14524 .cfa: r11 4 +
STACK CFI INIT 14550 4c .cfa: sp 0 + .ra: lr
STACK CFI 14554 .cfa: sp 8 + .ra: .cfa -4 + ^ r11: .cfa -8 + ^
STACK CFI 14558 .cfa: r11 4 +
STACK CFI INIT 1094c 34 .cfa: sp 0 + .ra: lr
STACK CFI 10950 .cfa: sp 4 + r11: .cfa -4 + ^
STACK CFI 10954 .cfa: r11 4 +
STACK CFI INIT 145d0 40 .cfa: sp 0 + .ra: lr
STACK CFI 145d4 .cfa: sp 8 + .ra: .cfa -4 + ^ r11: .cfa -8 + ^
STACK CFI 145d8 .cfa: r11 4 +
STACK CFI INIT 14610 7c .cfa: sp 0 + .ra: lr
STACK CFI 14614 .cfa: sp 8 + .ra: .cfa -4 + ^ r11: .cfa -8 + ^
STACK CFI 14618 .cfa: r11 4 +
STACK CFI INIT 146b4 34 .cfa: sp 0 + .ra: lr
STACK CFI 146b8 .cfa: sp 4 + r11: .cfa -4 + ^
STACK CFI 146bc .cfa: r11 4 +
STACK CFI INIT 200c8 34 .cfa: sp 0 + .ra: lr
STACK CFI 200cc .cfa: sp 4 + r11: .cfa -4 + ^
STACK CFI 200d0 .cfa: r11 4 +
STACK CFI INIT 200fc 40 .cfa: sp 0 + .ra: lr
STACK CFI 20100 .cfa: sp 8 + .ra: .cfa -4 + ^ r11: .cfa -8 + ^
STACK CFI 20104 .cfa: r11 4 +
STACK CFI INIT 2013c 3c .cfa: sp 0 + .ra: lr
STACK CFI 20140 .cfa: sp 8 + .ra: .cfa -4 + ^ r11: .cfa -8 + ^
STACK CFI 20144 .cfa: r11 4 +
STACK CFI INIT 20178 54 .cfa: sp 0 + .ra: lr
STACK CFI 2017c .cfa: sp 8 + .ra: .cfa -4 + ^ r11: .cfa -8 + ^
STACK CFI 20180 .cfa: r11 4 +
STACK CFI INIT 196d4 28 .cfa: sp 0 + .ra: lr
STACK CFI 196d8 .cfa: sp 8 + .ra: .cfa -4 + ^ r11: .cfa -8 + ^
STACK CFI 196dc .cfa: r11 4 +
STACK CFI INIT 196fc 28 .cfa: sp 0 + .ra: lr
STACK CFI 19700 .cfa: sp 8 + .ra: .cfa -4 + ^ r11: .cfa -8 + ^
STACK CFI 19704 .cfa: r11 4 +
STACK CFI INIT 1468c 28 .cfa: sp 0 + .ra: lr
STACK CFI 14690 .cfa: sp 4 + r11: .cfa -4 + ^
STACK CFI 14694 .cfa: r11 4 +
STACK CFI INIT 14be0 34 .cfa: sp 0 + .ra: lr
STACK CFI 14be4 .cfa: sp 4 + r11: .cfa -4 + ^
STACK CFI 14be8 .cfa: r11 4 +
STACK CFI INIT 14c14 88 .cfa: sp 0 + .ra: lr
STACK CFI 14c18 .cfa: sp 8 + .ra: .cfa -4 + ^ r11: .cfa -8 + ^
STACK CFI 14c1c .cfa: r11 4 +
STACK CFI INIT 201cc 34 .cfa: sp 0 + .ra: lr
STACK CFI 201d0 .cfa: sp 12 + .ra: .cfa -4 + ^ r11: .cfa -8 + ^ r4: .cfa -12 + ^
STACK CFI 201d4 .cfa: r11 4 +
STACK CFI INIT 20200 38 .cfa: sp 0 + .ra: lr
STACK CFI 20204 .cfa: sp 4 + r11: .cfa -4 + ^
STACK CFI 20208 .cfa: r11 4 +
STACK CFI INIT 1a07c 38 .cfa: sp 0 + .ra: lr
STACK CFI 1a080 .cfa: sp 8 + .ra: .cfa -4 + ^ r11: .cfa -8 + ^
STACK CFI 1a084 .cfa: r11 4 +
STACK CFI INIT 1a0b4 28 .cfa: sp 0 + .ra: lr
STACK CFI 1a0b8 .cfa: sp 8 + .ra: .cfa -4 + ^ r11: .cfa -8 + ^
STACK CFI 1a0bc .cfa: r11 4 +
STACK CFI INIT 15220 48 .cfa: sp 0 + .ra: lr
STACK CFI 15224 .cfa: sp 8 + .ra: .cfa -4 + ^ r11: .cfa -8 + ^
STACK CFI 15228 .cfa: r11 4 +
STACK CFI INIT 1a528 24 .cfa: sp 0 + .ra: lr
STACK CFI 1a52c .cfa: sp 8 + .ra: .cfa -4 + ^ r11: .cfa -8 + ^
STACK CFI 1a530 .cfa: r11 4 +
STACK CFI INIT 1a54c a0 .cfa: sp 0 + .ra: lr
STACK CFI 1a550 .cfa: sp 8 + .ra: .cfa -4 + ^ r11: .cfa -8 + ^
STACK CFI 1a554 .cfa: r11 4 +
STACK CFI INIT 1ff20 18c .cfa: sp 0 + .ra: lr
STACK CFI 1ff24 .cfa: sp 8 + .ra: .cfa -4 + ^ r11: .cfa -8 + ^
STACK CFI 1ff28 .cfa: r11 4 +
STACK CFI INIT 200ac 1c .cfa: sp 0 + .ra: lr
STACK CFI 200b0 .cfa: sp 8 + .ra: .cfa -4 + ^ r11: .cfa -8 + ^
STACK CFI 200b4 .cfa: r11 4 +
STACK CFI INIT 10068 40 .cfa: sp 0 + .ra: lr
STACK CFI 1006c .cfa: sp 4 + r11: .cfa -4 + ^
STACK CFI 10070 .cfa: r11 4 +
STACK CFI INIT 100a8 6c .cfa: sp 0 + .ra: lr
STACK CFI 100ac .cfa: sp 16 + .ra: .cfa -4 + ^ r11: .cfa -8 + ^ r4: .cfa -16 + ^ r5: .cfa -12 + ^
STACK CFI 100b0 .cfa: r11 4 +
STACK CFI INIT 10114 6c .cfa: sp 0 + .ra: lr
STACK CFI 10118 .cfa: sp 16 + .ra: .cfa -4 + ^ r11: .cfa -8 + ^ r4: .cfa -16 + ^ r5: .cfa -12 + ^
STACK CFI 1011c .cfa: r11 4 +
STACK CFI INIT 10180 54 .cfa: sp 0 + .ra: lr
STACK CFI 10184 .cfa: sp 8 + .ra: .cfa -4 + ^ r11: .cfa -8 + ^
STACK CFI 10188 .cfa: r11 4 +
STACK CFI INIT 101d4 30 .cfa: sp 0 + .ra: lr
STACK CFI 101d8 .cfa: sp 8 + .ra: .cfa -4 + ^ r11: .cfa -8 + ^
STACK CFI 101dc .cfa: r11 4 +
STACK CFI INIT 10230 84 .cfa: sp 0 + .ra: lr
STACK CFI 10234 .cfa: sp 8 + .ra: .cfa -4 + ^ r11: .cfa -8 + ^
STACK CFI 10238 .cfa: r11 4 +
STACK CFI INIT 102e4 3c .cfa: sp 0 + .ra: lr
STACK CFI 102e8 .cfa: sp 8 + .ra: .cfa -4 + ^ r11: .cfa -8 + ^
STACK CFI 102ec .cfa: r11 4 +
STACK CFI INIT 103f4 40 .cfa: sp 0 + .ra: lr
STACK CFI 103f8 .cfa: sp 8 + .ra: .cfa -4 + ^ r11: .cfa -8 + ^
STACK CFI 103fc .cfa: r11 4 +
STACK CFI INIT 10434 54 .cfa: sp 0 + .ra: lr
STACK CFI 10438 .cfa: sp 8 + .ra: .cfa -4 + ^ r11: .cfa -8 + ^
STACK CFI 1043c .cfa: r11 4 +
STACK CFI INIT 14150 2c .cfa: sp 0 + .ra: lr
STACK CFI 14154 .cfa: sp 8 + .ra: .cfa -4 + ^ r11: .cfa -8 + ^
STACK CFI 14158 .cfa: r11 4 +
STACK CFI INIT 1417c 70 .cfa: sp 0 + .ra: lr
STACK CFI 14180 .cfa: sp 8 + .ra: .cfa -4 + ^ r11: .cfa -8 + ^
STACK CFI 14184 .cfa: r11 4 +
STACK CFI INIT 13cf8 28 .cfa: sp 0 + .ra: lr
STACK CFI 13cfc .cfa: sp 4 + r11: .cfa -4 + ^
STACK CFI 13d00 .cfa: r11 4 +
STACK CFI INIT 13fb8 24 .cfa: sp 0 + .ra: lr
STACK CFI 13fbc .cfa: sp 4 + r11: .cfa -4 + ^
STACK CFI 13fc0 .cfa: r11 4 +
STACK CFI INIT 1409c b4 .cfa: sp 0 + .ra: lr
STACK CFI 140a0 .cfa: sp 24 + .ra: .cfa -4 + ^ r11: .cfa -8 + ^ r3: .cfa -24 + ^ r4: .cfa -20 + ^ r5: .cfa -16 + ^ r6: .cfa -12 + ^
STACK CFI 140a4 .cfa: r11 4 +
STACK CFI INIT 104d4 a8 .cfa: sp 0 + .ra: lr
STACK CFI 104d8 .cfa: sp 16 + .ra: .cfa -4 + ^ r11: .cfa -8 + ^ r4: .cfa -16 + ^ r5: .cfa -12 + ^
STACK CFI 104dc .cfa: r11 4 +
STACK CFI INIT 1057c 54 .cfa: sp 0 + .ra: lr
STACK CFI 10580 .cfa: sp 12 + .ra: .cfa -4 + ^ r11: .cfa -8 + ^ r4: .cfa -12 + ^
STACK CFI 10584 .cfa: r11 4 +
STACK CFI INIT 105d0 50 .cfa: sp 0 + .ra: lr
STACK CFI 105d4 .cfa: sp 8 + .ra: .cfa -4 + ^ r11: .cfa -8 + ^
STACK CFI 105d8 .cfa: r11 4 +
STACK CFI INIT 10620 e8 .cfa: sp 0 + .ra: lr
STACK CFI 10624 .cfa: sp 12 + .ra: .cfa -4 + ^ r11: .cfa -8 + ^ r4: .cfa -12 + ^
STACK CFI 10628 .cfa: r11 4 +
STACK CFI INIT 10708 48 .cfa: sp 0 + .ra: lr
STACK CFI 1070c .cfa: sp 8 + .ra: .cfa -4 + ^ r11: .cfa -8 + ^
STACK CFI 10710 .cfa: r11 4 +
STACK CFI INIT 190a4 68 .cfa: sp 0 + .ra: lr
STACK CFI 190a8 .cfa: sp 8 + .ra: .cfa -4 + ^ r11: .cfa -8 + ^
STACK CFI 190ac .cfa: r11 4 +
STACK CFI INIT 10750 40 .cfa: sp 0 + .ra: lr
STACK CFI 10754 .cfa: sp 8 + .ra: .cfa -4 + ^ r11: .cfa -8 + ^
STACK CFI 10758 .cfa: r11 4 +
STACK CFI INIT 10790 7c .cfa: sp 0 + .ra: lr
STACK CFI 10794 .cfa: sp 12 + .ra: .cfa -4 + ^ r11: .cfa -8 + ^ r4: .cfa -12 + ^
STACK CFI 10798 .cfa: r11 4 +
STACK CFI INIT 1086c 28 .cfa: sp 0 + .ra: lr
STACK CFI 10870 .cfa: sp 8 + .ra: .cfa -4 + ^ r11: .cfa -8 + ^
STACK CFI 10874 .cfa: r11 4 +
STACK CFI INIT 14284 98 .cfa: sp 0 + .ra: lr
STACK CFI 14288 .cfa: sp 16 + .ra: .cfa -4 + ^ r11: .cfa -8 + ^ r3: .cfa -16 + ^ r4: .cfa -12 + ^
STACK CFI 1428c .cfa: r11 4 +
STACK CFI INIT 19158 1c .cfa: sp 0 + .ra: lr
STACK CFI 1915c .cfa: sp 4 + r11: .cfa -4 + ^
STACK CFI 19160 .cfa: r11 4 +
STACK CFI INIT 191f8 50 .cfa: sp 0 + .ra: lr
STACK CFI 191fc .cfa: sp 8 + .ra: .cfa -4 + ^ r11: .cfa -8 + ^
STACK CFI 19200 .cfa: r11 4 +
STACK CFI INIT 20238 b8 .cfa: sp 0 + .ra: lr
STACK CFI 2023c .cfa: sp 16 + .ra: .cfa -4 + ^ r11: .cfa -8 + ^ r4: .cfa -16 + ^ r5: .cfa -12 + ^
STACK CFI 20240 .cfa: r11 4 +
STACK CFI INIT 202f0 84 .cfa: sp 0 + .ra: lr
STACK CFI 202f4 .cfa: sp 8 + .ra: .cfa -4 + ^ r11: .cfa -8 + ^
STACK CFI 202f8 .cfa: r11 4 +
STACK CFI INIT 20374 8 .cfa: sp 0 + .ra: lr
STACK CFI INIT 2037c 30 .cfa: sp 0 + .ra: lr
STACK CFI 20380 .cfa: sp 8 + .ra: .cfa -4 + ^ r11: .cfa -8 + ^
STACK CFI 20384 .cfa: r11 4 +
STACK CFI INIT 203ac 8 .cfa: sp 0 + .ra: lr
STACK CFI INIT 203b4 35c .cfa: sp 0 + .ra: lr
STACK CFI 203b8 .cfa: sp 12 + .ra: .cfa -4 + ^ r11: .cfa -8 + ^ r4: .cfa -12 + ^
STACK CFI 203bc .cfa: r11 4 +
STACK CFI INIT 20710 74 .cfa: sp 0 + .ra: lr
STACK CFI 20714 .cfa: sp 16 + .ra: .cfa -4 + ^ r11: .cfa -8 + ^ r4: .cfa -16 + ^ r5: .cfa -12 + ^
STACK CFI 20718 .cfa: r11 4 +
STACK CFI INIT 20784 20 .cfa: sp 0 + .ra: lr
STACK CFI 20788 .cfa: sp 4 + r11: .cfa -4 + ^
STACK CFI 2078c .cfa: r11 4 +
STACK CFI INIT 207a4 40 .cfa: sp 0 + .ra: lr
STACK CFI 207a8 .cfa: sp 8 + .ra: .cfa -4 + ^ r11: .cfa -8 + ^
STACK CFI 207ac .cfa: r11 4 +
STACK CFI INIT 207e4 24 .cfa: sp 0 + .ra: lr
STACK CFI 207e8 .cfa: sp 4 + r11: .cfa -4 + ^
STACK CFI 207ec .cfa: r11 4 +
STACK CFI INIT 20808 1c .cfa: sp 0 + .ra: lr
STACK CFI 2080c .cfa: sp 4 + r11: .cfa -4 + ^
STACK CFI 20810 .cfa: r11 4 +
STACK CFI INIT 20824 38 .cfa: sp 0 + .ra: lr
STACK CFI 20828 .cfa: sp 8 + .ra: .cfa -4 + ^ r11: .cfa -8 + ^
STACK CFI 2082c .cfa: r11 4 +
STACK CFI INIT 1094c 34 .cfa: sp 0 + .ra: lr
STACK CFI 10950 .cfa: sp 4 + r11: .cfa -4 + ^
STACK CFI 10954 .cfa: r11 4 +
STACK CFI INIT 146b4 34 .cfa: sp 0 + .ra: lr
STACK CFI 146b8 .cfa: sp 4 + r11: .cfa -4 + ^
STACK CFI 146bc .cfa: r11 4 +
STACK CFI INIT 20928 34 .cfa: sp 0 + .ra: lr
STACK CFI 2092c .cfa: sp 4 + r11: .cfa -4 + ^
STACK CFI 20930 .cfa: r11 4 +
STACK CFI INIT 2095c 40 .cfa: sp 0 + .ra: lr
STACK CFI 20960 .cfa: sp 8 + .ra: .cfa -4 + ^ r11: .cfa -8 + ^
STACK CFI 20964 .cfa: r11 4 +
STACK CFI INIT 196d4 28 .cfa: sp 0 + .ra: lr
STACK CFI 196d8 .cfa: sp 8 + .ra: .cfa -4 + ^ r11: .cfa -8 + ^
STACK CFI 196dc .cfa: r11 4 +
STACK CFI INIT 196fc 28 .cfa: sp 0 + .ra: lr
STACK CFI 19700 .cfa: sp 8 + .ra: .cfa -4 + ^ r11: .cfa -8 + ^
STACK CFI 19704 .cfa: r11 4 +
STACK CFI INIT 2099c 34 .cfa: sp 0 + .ra: lr
STACK CFI 209a0 .cfa: sp 12 + .ra: .cfa -4 + ^ r11: .cfa -8 + ^ r4: .cfa -12 + ^
STACK CFI 209a4 .cfa: r11 4 +
STACK CFI INIT 1a07c 38 .cfa: sp 0 + .ra: lr
STACK CFI 1a080 .cfa: sp 8 + .ra: .cfa -4 + ^ r11: .cfa -8 + ^
STACK CFI 1a084 .cfa: r11 4 +
STACK CFI INIT 1a0b4 28 .cfa: sp 0 + .ra: lr
STACK CFI 1a0b8 .cfa: sp 8 + .ra: .cfa -4 + ^ r11: .cfa -8 + ^
STACK CFI 1a0bc .cfa: r11 4 +
STACK CFI INIT 1a528 24 .cfa: sp 0 + .ra: lr
STACK CFI 1a52c .cfa: sp 8 + .ra: .cfa -4 + ^ r11: .cfa -8 + ^
STACK CFI 1a530 .cfa: r11 4 +
STACK CFI INIT 1a54c a0 .cfa: sp 0 + .ra: lr
STACK CFI 1a550 .cfa: sp 8 + .ra: .cfa -4 + ^ r11: .cfa -8 + ^
STACK CFI 1a554 .cfa: r11 4 +
STACK CFI INIT 2085c b0 .cfa: sp 0 + .ra: lr
STACK CFI 20860 .cfa: sp 8 + .ra: .cfa -4 + ^ r11: .cfa -8 + ^
STACK CFI 20864 .cfa: r11 4 +
STACK CFI INIT 2090c 1c .cfa: sp 0 + .ra: lr
STACK CFI 20910 .cfa: sp 8 + .ra: .cfa -4 + ^ r11: .cfa -8 + ^
STACK CFI 20914 .cfa: r11 4 +
STACK CFI INIT ffb4 14 .cfa: sp 0 + .ra: lr
STACK CFI ffb8 .cfa: sp 4 + r11: .cfa -4 + ^
STACK CFI ffbc .cfa: r11 4 +
STACK CFI INIT 13b60 4c .cfa: sp 0 + .ra: lr
STACK CFI 13b64 .cfa: sp 8 + .ra: .cfa -4 + ^ r11: .cfa -8 + ^
STACK CFI 13b68 .cfa: r11 4 +
STACK CFI INIT 13bac 40 .cfa: sp 0 + .ra: lr
STACK CFI 13bb0 .cfa: sp 4 + r11: .cfa -4 + ^
STACK CFI 13bb4 .cfa: r11 4 +
STACK CFI INIT 10068 40 .cfa: sp 0 + .ra: lr
STACK CFI 1006c .cfa: sp 4 + r11: .cfa -4 + ^
STACK CFI 10070 .cfa: r11 4 +
STACK CFI INIT 100a8 6c .cfa: sp 0 + .ra: lr
STACK CFI 100ac .cfa: sp 16 + .ra: .cfa -4 + ^ r11: .cfa -8 + ^ r4: .cfa -16 + ^ r5: .cfa -12 + ^
STACK CFI 100b0 .cfa: r11 4 +
STACK CFI INIT 10114 6c .cfa: sp 0 + .ra: lr
STACK CFI 10118 .cfa: sp 16 + .ra: .cfa -4 + ^ r11: .cfa -8 + ^ r4: .cfa -16 + ^ r5: .cfa -12 + ^
STACK CFI 1011c .cfa: r11 4 +
STACK CFI INIT 10180 54 .cfa: sp 0 + .ra: lr
STACK CFI 10184 .cfa: sp 8 + .ra: .cfa -4 + ^ r11: .cfa -8 + ^
STACK CFI 10188 .cfa: r11 4 +
STACK CFI INIT 101d4 30 .cfa: sp 0 + .ra: lr
STACK CFI 101d8 .cfa: sp 8 + .ra: .cfa -4 + ^ r11: .cfa -8 + ^
STACK CFI 101dc .cfa: r11 4 +
STACK CFI INIT 10230 84 .cfa: sp 0 + .ra: lr
STACK CFI 10234 .cfa: sp 8 + .ra: .cfa -4 + ^ r11: .cfa -8 + ^
STACK CFI 10238 .cfa: r11 4 +
STACK CFI INIT 102e4 3c .cfa: sp 0 + .ra: lr
STACK CFI 102e8 .cfa: sp 8 + .ra: .cfa -4 + ^ r11: .cfa -8 + ^
STACK CFI 102ec .cfa: r11 4 +
STACK CFI INIT 103f4 40 .cfa: sp 0 + .ra: lr
STACK CFI 103f8 .cfa: sp 8 + .ra: .cfa -4 + ^ r11: .cfa -8 + ^
STACK CFI 103fc .cfa: r11 4 +
STACK CFI INIT 10434 54 .cfa: sp 0 + .ra: lr
STACK CFI 10438 .cfa: sp 8 + .ra: .cfa -4 + ^ r11: .cfa -8 + ^
STACK CFI 1043c .cfa: r11 4 +
STACK CFI INIT 13cb8 40 .cfa: sp 0 + .ra: lr
STACK CFI 13cbc .cfa: sp 8 + .ra: .cfa -4 + ^ r11: .cfa -8 + ^
STACK CFI 13cc0 .cfa: r11 4 +
STACK CFI INIT 13cf8 28 .cfa: sp 0 + .ra: lr
STACK CFI 13cfc .cfa: sp 4 + r11: .cfa -4 + ^
STACK CFI 13d00 .cfa: r11 4 +
STACK CFI INIT 13d7c 78 .cfa: sp 0 + .ra: lr
STACK CFI 13d80 .cfa: sp 4 + r11: .cfa -4 + ^
STACK CFI 13d84 .cfa: r11 4 +
STACK CFI INIT 13e44 38 .cfa: sp 0 + .ra: lr
STACK CFI 13e48 .cfa: sp 4 + r11: .cfa -4 + ^
STACK CFI 13e4c .cfa: r11 4 +
STACK CFI INIT 13e7c 38 .cfa: sp 0 + .ra: lr
STACK CFI 13e80 .cfa: sp 4 + r11: .cfa -4 + ^
STACK CFI 13e84 .cfa: r11 4 +
STACK CFI INIT 13fb8 24 .cfa: sp 0 + .ra: lr
STACK CFI 13fbc .cfa: sp 4 + r11: .cfa -4 + ^
STACK CFI 13fc0 .cfa: r11 4 +
STACK CFI INIT 13ff4 34 .cfa: sp 0 + .ra: lr
STACK CFI 13ff8 .cfa: sp 4 + r11: .cfa -4 + ^
STACK CFI 13ffc .cfa: r11 4 +
STACK CFI INIT 14028 44 .cfa: sp 0 + .ra: lr
STACK CFI 1402c .cfa: sp 8 + .ra: .cfa -4 + ^ r11: .cfa -8 + ^
STACK CFI 14030 .cfa: r11 4 +
STACK CFI INIT 1406c 30 .cfa: sp 0 + .ra: lr
STACK CFI 14070 .cfa: sp 8 + .ra: .cfa -4 + ^ r11: .cfa -8 + ^
STACK CFI 14074 .cfa: r11 4 +
STACK CFI INIT 1409c b4 .cfa: sp 0 + .ra: lr
STACK CFI 140a0 .cfa: sp 24 + .ra: .cfa -4 + ^ r11: .cfa -8 + ^ r3: .cfa -24 + ^ r4: .cfa -20 + ^ r5: .cfa -16 + ^ r6: .cfa -12 + ^
STACK CFI 140a4 .cfa: r11 4 +
STACK CFI INIT 19158 1c .cfa: sp 0 + .ra: lr
STACK CFI 1915c .cfa: sp 4 + r11: .cfa -4 + ^
STACK CFI 19160 .cfa: r11 4 +
STACK CFI INIT 191f8 50 .cfa: sp 0 + .ra: lr
STACK CFI 191fc .cfa: sp 8 + .ra: .cfa -4 + ^ r11: .cfa -8 + ^
STACK CFI 19200 .cfa: r11 4 +
STACK CFI INIT 104d4 a8 .cfa: sp 0 + .ra: lr
STACK CFI 104d8 .cfa: sp 16 + .ra: .cfa -4 + ^ r11: .cfa -8 + ^ r4: .cfa -16 + ^ r5: .cfa -12 + ^
STACK CFI 104dc .cfa: r11 4 +
STACK CFI INIT 1057c 54 .cfa: sp 0 + .ra: lr
STACK CFI 10580 .cfa: sp 12 + .ra: .cfa -4 + ^ r11: .cfa -8 + ^ r4: .cfa -12 + ^
STACK CFI 10584 .cfa: r11 4 +
STACK CFI INIT 105d0 50 .cfa: sp 0 + .ra: lr
STACK CFI 105d4 .cfa: sp 8 + .ra: .cfa -4 + ^ r11: .cfa -8 + ^
STACK CFI 105d8 .cfa: r11 4 +
STACK CFI INIT 10620 e8 .cfa: sp 0 + .ra: lr
STACK CFI 10624 .cfa: sp 12 + .ra: .cfa -4 + ^ r11: .cfa -8 + ^ r4: .cfa -12 + ^
STACK CFI 10628 .cfa: r11 4 +
STACK CFI INIT 10708 48 .cfa: sp 0 + .ra: lr
STACK CFI 1070c .cfa: sp 8 + .ra: .cfa -4 + ^ r11: .cfa -8 + ^
STACK CFI 10710 .cfa: r11 4 +
STACK CFI INIT 10750 40 .cfa: sp 0 + .ra: lr
STACK CFI 10754 .cfa: sp 8 + .ra: .cfa -4 + ^ r11: .cfa -8 + ^
STACK CFI 10758 .cfa: r11 4 +
STACK CFI INIT 10790 7c .cfa: sp 0 + .ra: lr
STACK CFI 10794 .cfa: sp 12 + .ra: .cfa -4 + ^ r11: .cfa -8 + ^ r4: .cfa -12 + ^
STACK CFI 10798 .cfa: r11 4 +
STACK CFI INIT 1086c 28 .cfa: sp 0 + .ra: lr
STACK CFI 10870 .cfa: sp 8 + .ra: .cfa -4 + ^ r11: .cfa -8 + ^
STACK CFI 10874 .cfa: r11 4 +
STACK CFI INIT 21540 34 .cfa: sp 0 + .ra: lr
STACK CFI 21544 .cfa: sp 4 + r11: .cfa -4 + ^
STACK CFI 21548 .cfa: r11 4 +
STACK CFI INIT 21574 44 .cfa: sp 0 + .ra: lr
STACK CFI 21578 .cfa: sp 8 + .ra: .cfa -4 + ^ r11: .cfa -8 + ^
STACK CFI 2157c .cfa: r11 4 +
STACK CFI INIT 215b8 30 .cfa: sp 0 + .ra: lr
STACK CFI 215bc .cfa: sp 8 + .ra: .cfa -4 + ^ r11: .cfa -8 + ^
STACK CFI 215c0 .cfa: r11 4 +
STACK CFI INIT 215e8 b4 .cfa: sp 0 + .ra: lr
STACK CFI 215ec .cfa: sp 24 + .ra: .cfa -4 + ^ r11: .cfa -8 + ^ r3: .cfa -24 + ^ r4: .cfa -20 + ^ r5: .cfa -16 + ^ r6: .cfa -12 + ^
STACK CFI 215f0 .cfa: r11 4 +
STACK CFI INIT 2169c 34 .cfa: sp 0 + .ra: lr
STACK CFI 216a0 .cfa: sp 8 + .ra: .cfa -4 + ^ r11: .cfa -8 + ^
STACK CFI 216a4 .cfa: r11 4 +
STACK CFI INIT 15dfc 68 .cfa: sp 0 + .ra: lr
STACK CFI 15e00 .cfa: sp 12 + .ra: .cfa -4 + ^ r11: .cfa -8 + ^ r4: .cfa -12 + ^
STACK CFI 15e04 .cfa: r11 4 +
STACK CFI INIT 14284 98 .cfa: sp 0 + .ra: lr
STACK CFI 14288 .cfa: sp 16 + .ra: .cfa -4 + ^ r11: .cfa -8 + ^ r3: .cfa -16 + ^ r4: .cfa -12 + ^
STACK CFI 1428c .cfa: r11 4 +
STACK CFI INIT 209d0 118 .cfa: sp 0 + .ra: lr
STACK CFI 209d4 .cfa: sp 16 + .ra: .cfa -4 + ^ r11: .cfa -8 + ^ r4: .cfa -16 + ^ r5: .cfa -12 + ^
STACK CFI 209d8 .cfa: r11 4 +
STACK CFI INIT 20ae8 e4 .cfa: sp 0 + .ra: lr
STACK CFI 20aec .cfa: sp 8 + .ra: .cfa -4 + ^ r11: .cfa -8 + ^
STACK CFI 20af0 .cfa: r11 4 +
STACK CFI INIT 20bcc 8 .cfa: sp 0 + .ra: lr
STACK CFI INIT 20bd4 8 .cfa: sp 0 + .ra: lr
STACK CFI INIT 20bdc 8 .cfa: sp 0 + .ra: lr
STACK CFI INIT 20be4 30 .cfa: sp 0 + .ra: lr
STACK CFI 20be8 .cfa: sp 8 + .ra: .cfa -4 + ^ r11: .cfa -8 + ^
STACK CFI 20bec .cfa: r11 4 +
STACK CFI INIT 20c14 8 .cfa: sp 0 + .ra: lr
STACK CFI INIT 20c1c 8 .cfa: sp 0 + .ra: lr
STACK CFI INIT 20c24 8 .cfa: sp 0 + .ra: lr
STACK CFI INIT 20c2c 10c .cfa: sp 0 + .ra: lr
STACK CFI 20c30 .cfa: sp 12 + .ra: .cfa -4 + ^ r11: .cfa -8 + ^ r4: .cfa -12 + ^
STACK CFI 20c34 .cfa: r11 4 +
STACK CFI INIT 20d38 d4 .cfa: sp 0 + .ra: lr
STACK CFI 20d3c .cfa: sp 8 + .ra: .cfa -4 + ^ r11: .cfa -8 + ^
STACK CFI 20d40 .cfa: r11 4 +
STACK CFI INIT 20e0c 1d8 .cfa: sp 0 + .ra: lr
STACK CFI 20e10 .cfa: sp 12 + .ra: .cfa -4 + ^ r11: .cfa -8 + ^ r4: .cfa -12 + ^
STACK CFI 20e14 .cfa: r11 4 +
STACK CFI INIT 20fe4 90 .cfa: sp 0 + .ra: lr
STACK CFI 20fe8 .cfa: sp 8 + .ra: .cfa -4 + ^ r11: .cfa -8 + ^
STACK CFI 20fec .cfa: r11 4 +
STACK CFI INIT 21074 8 .cfa: sp 0 + .ra: lr
STACK CFI INIT 2107c ac .cfa: sp 0 + .ra: lr
STACK CFI 21080 .cfa: sp 12 + .ra: .cfa -4 + ^ r11: .cfa -8 + ^ r4: .cfa -12 + ^
STACK CFI 21084 .cfa: r11 4 +
STACK CFI INIT 21128 8 .cfa: sp 0 + .ra: lr
STACK CFI INIT 21130 60 .cfa: sp 0 + .ra: lr
STACK CFI 21134 .cfa: sp 8 + .ra: .cfa -4 + ^ r11: .cfa -8 + ^
STACK CFI 21138 .cfa: r11 4 +
STACK CFI INIT 21190 24 .cfa: sp 0 + .ra: lr
STACK CFI 21194 .cfa: sp 4 + r11: .cfa -4 + ^
STACK CFI 21198 .cfa: r11 4 +
STACK CFI INIT 211b4 1a0 .cfa: sp 0 + .ra: lr
STACK CFI 211b8 .cfa: sp 12 + .ra: .cfa -4 + ^ r11: .cfa -8 + ^ r4: .cfa -12 + ^
STACK CFI 211bc .cfa: r11 4 +
STACK CFI INIT 21354 38 .cfa: sp 0 + .ra: lr
STACK CFI 21358 .cfa: sp 8 + .ra: .cfa -4 + ^ r11: .cfa -8 + ^
STACK CFI 2135c .cfa: r11 4 +
STACK CFI INIT 2138c bc .cfa: sp 0 + .ra: lr
STACK CFI 21390 .cfa: sp 16 + .ra: .cfa -4 + ^ r11: .cfa -8 + ^ r4: .cfa -16 + ^ r5: .cfa -12 + ^
STACK CFI 21394 .cfa: r11 4 +
STACK CFI INIT 1451c 34 .cfa: sp 0 + .ra: lr
STACK CFI 14520 .cfa: sp 4 + r11: .cfa -4 + ^
STACK CFI 14524 .cfa: r11 4 +
STACK CFI INIT 14550 4c .cfa: sp 0 + .ra: lr
STACK CFI 14554 .cfa: sp 8 + .ra: .cfa -4 + ^ r11: .cfa -8 + ^
STACK CFI 14558 .cfa: r11 4 +
STACK CFI INIT 1094c 34 .cfa: sp 0 + .ra: lr
STACK CFI 10950 .cfa: sp 4 + r11: .cfa -4 + ^
STACK CFI 10954 .cfa: r11 4 +
STACK CFI INIT 145d0 40 .cfa: sp 0 + .ra: lr
STACK CFI 145d4 .cfa: sp 8 + .ra: .cfa -4 + ^ r11: .cfa -8 + ^
STACK CFI 145d8 .cfa: r11 4 +
STACK CFI INIT 14610 7c .cfa: sp 0 + .ra: lr
STACK CFI 14614 .cfa: sp 8 + .ra: .cfa -4 + ^ r11: .cfa -8 + ^
STACK CFI 14618 .cfa: r11 4 +
STACK CFI INIT 1468c 28 .cfa: sp 0 + .ra: lr
STACK CFI 14690 .cfa: sp 4 + r11: .cfa -4 + ^
STACK CFI 14694 .cfa: r11 4 +
STACK CFI INIT 146b4 34 .cfa: sp 0 + .ra: lr
STACK CFI 146b8 .cfa: sp 4 + r11: .cfa -4 + ^
STACK CFI 146bc .cfa: r11 4 +
STACK CFI INIT 216d0 34 .cfa: sp 0 + .ra: lr
STACK CFI 216d4 .cfa: sp 4 + r11: .cfa -4 + ^
STACK CFI 216d8 .cfa: r11 4 +
STACK CFI INIT 21704 40 .cfa: sp 0 + .ra: lr
STACK CFI 21708 .cfa: sp 8 + .ra: .cfa -4 + ^ r11: .cfa -8 + ^
STACK CFI 2170c .cfa: r11 4 +
STACK CFI INIT 21744 54 .cfa: sp 0 + .ra: lr
STACK CFI 21748 .cfa: sp 8 + .ra: .cfa -4 + ^ r11: .cfa -8 + ^
STACK CFI 2174c .cfa: r11 4 +
STACK CFI INIT 196d4 28 .cfa: sp 0 + .ra: lr
STACK CFI 196d8 .cfa: sp 8 + .ra: .cfa -4 + ^ r11: .cfa -8 + ^
STACK CFI 196dc .cfa: r11 4 +
STACK CFI INIT 196fc 28 .cfa: sp 0 + .ra: lr
STACK CFI 19700 .cfa: sp 8 + .ra: .cfa -4 + ^ r11: .cfa -8 + ^
STACK CFI 19704 .cfa: r11 4 +
STACK CFI INIT 14be0 34 .cfa: sp 0 + .ra: lr
STACK CFI 14be4 .cfa: sp 4 + r11: .cfa -4 + ^
STACK CFI 14be8 .cfa: r11 4 +
STACK CFI INIT 14c14 88 .cfa: sp 0 + .ra: lr
STACK CFI 14c18 .cfa: sp 8 + .ra: .cfa -4 + ^ r11: .cfa -8 + ^
STACK CFI 14c1c .cfa: r11 4 +
STACK CFI INIT 21798 34 .cfa: sp 0 + .ra: lr
STACK CFI 2179c .cfa: sp 12 + .ra: .cfa -4 + ^ r11: .cfa -8 + ^ r4: .cfa -12 + ^
STACK CFI 217a0 .cfa: r11 4 +
STACK CFI INIT 1a07c 38 .cfa: sp 0 + .ra: lr
STACK CFI 1a080 .cfa: sp 8 + .ra: .cfa -4 + ^ r11: .cfa -8 + ^
STACK CFI 1a084 .cfa: r11 4 +
STACK CFI INIT 1a0b4 28 .cfa: sp 0 + .ra: lr
STACK CFI 1a0b8 .cfa: sp 8 + .ra: .cfa -4 + ^ r11: .cfa -8 + ^
STACK CFI 1a0bc .cfa: r11 4 +
STACK CFI INIT 15220 48 .cfa: sp 0 + .ra: lr
STACK CFI 15224 .cfa: sp 8 + .ra: .cfa -4 + ^ r11: .cfa -8 + ^
STACK CFI 15228 .cfa: r11 4 +
STACK CFI INIT 1a528 24 .cfa: sp 0 + .ra: lr
STACK CFI 1a52c .cfa: sp 8 + .ra: .cfa -4 + ^ r11: .cfa -8 + ^
STACK CFI 1a530 .cfa: r11 4 +
STACK CFI INIT 1a54c a0 .cfa: sp 0 + .ra: lr
STACK CFI 1a550 .cfa: sp 8 + .ra: .cfa -4 + ^ r11: .cfa -8 + ^
STACK CFI 1a554 .cfa: r11 4 +
STACK CFI INIT 21448 dc .cfa: sp 0 + .ra: lr
STACK CFI 2144c .cfa: sp 8 + .ra: .cfa -4 + ^ r11: .cfa -8 + ^
STACK CFI 21450 .cfa: r11 4 +
STACK CFI INIT 21524 1c .cfa: sp 0 + .ra: lr
STACK CFI 21528 .cfa: sp 8 + .ra: .cfa -4 + ^ r11: .cfa -8 + ^
STACK CFI 2152c .cfa: r11 4 +
STACK CFI INIT ffb4 14 .cfa: sp 0 + .ra: lr
STACK CFI ffb8 .cfa: sp 4 + r11: .cfa -4 + ^
STACK CFI ffbc .cfa: r11 4 +
STACK CFI INIT 13bac 40 .cfa: sp 0 + .ra: lr
STACK CFI 13bb0 .cfa: sp 4 + r11: .cfa -4 + ^
STACK CFI 13bb4 .cfa: r11 4 +
STACK CFI INIT 10068 40 .cfa: sp 0 + .ra: lr
STACK CFI 1006c .cfa: sp 4 + r11: .cfa -4 + ^
STACK CFI 10070 .cfa: r11 4 +
STACK CFI INIT 100a8 6c .cfa: sp 0 + .ra: lr
STACK CFI 100ac .cfa: sp 16 + .ra: .cfa -4 + ^ r11: .cfa -8 + ^ r4: .cfa -16 + ^ r5: .cfa -12 + ^
STACK CFI 100b0 .cfa: r11 4 +
STACK CFI INIT 10114 6c .cfa: sp 0 + .ra: lr
STACK CFI 10118 .cfa: sp 16 + .ra: .cfa -4 + ^ r11: .cfa -8 + ^ r4: .cfa -16 + ^ r5: .cfa -12 + ^
STACK CFI 1011c .cfa: r11 4 +
STACK CFI INIT 10180 54 .cfa: sp 0 + .ra: lr
STACK CFI 10184 .cfa: sp 8 + .ra: .cfa -4 + ^ r11: .cfa -8 + ^
STACK CFI 10188 .cfa: r11 4 +
STACK CFI INIT 101d4 30 .cfa: sp 0 + .ra: lr
STACK CFI 101d8 .cfa: sp 8 + .ra: .cfa -4 + ^ r11: .cfa -8 + ^
STACK CFI 101dc .cfa: r11 4 +
STACK CFI INIT 10230 84 .cfa: sp 0 + .ra: lr
STACK CFI 10234 .cfa: sp 8 + .ra: .cfa -4 + ^ r11: .cfa -8 + ^
STACK CFI 10238 .cfa: r11 4 +
STACK CFI INIT 102e4 3c .cfa: sp 0 + .ra: lr
STACK CFI 102e8 .cfa: sp 8 + .ra: .cfa -4 + ^ r11: .cfa -8 + ^
STACK CFI 102ec .cfa: r11 4 +
STACK CFI INIT 103f4 40 .cfa: sp 0 + .ra: lr
STACK CFI 103f8 .cfa: sp 8 + .ra: .cfa -4 + ^ r11: .cfa -8 + ^
STACK CFI 103fc .cfa: r11 4 +
STACK CFI INIT 10434 54 .cfa: sp 0 + .ra: lr
STACK CFI 10438 .cfa: sp 8 + .ra: .cfa -4 + ^ r11: .cfa -8 + ^
STACK CFI 1043c .cfa: r11 4 +
STACK CFI INIT 13d7c 78 .cfa: sp 0 + .ra: lr
STACK CFI 13d80 .cfa: sp 4 + r11: .cfa -4 + ^
STACK CFI 13d84 .cfa: r11 4 +
STACK CFI INIT 13e44 38 .cfa: sp 0 + .ra: lr
STACK CFI 13e48 .cfa: sp 4 + r11: .cfa -4 + ^
STACK CFI 13e4c .cfa: r11 4 +
STACK CFI INIT 13e7c 38 .cfa: sp 0 + .ra: lr
STACK CFI 13e80 .cfa: sp 4 + r11: .cfa -4 + ^
STACK CFI 13e84 .cfa: r11 4 +
STACK CFI INIT 13fb8 24 .cfa: sp 0 + .ra: lr
STACK CFI 13fbc .cfa: sp 4 + r11: .cfa -4 + ^
STACK CFI 13fc0 .cfa: r11 4 +
STACK CFI INIT 13ff4 34 .cfa: sp 0 + .ra: lr
STACK CFI 13ff8 .cfa: sp 4 + r11: .cfa -4 + ^
STACK CFI 13ffc .cfa: r11 4 +
STACK CFI INIT 14028 44 .cfa: sp 0 + .ra: lr
STACK CFI 1402c .cfa: sp 8 + .ra: .cfa -4 + ^ r11: .cfa -8 + ^
STACK CFI 14030 .cfa: r11 4 +
STACK CFI INIT 1406c 30 .cfa: sp 0 + .ra: lr
STACK CFI 14070 .cfa: sp 8 + .ra: .cfa -4 + ^ r11: .cfa -8 + ^
STACK CFI 14074 .cfa: r11 4 +
STACK CFI INIT 1409c b4 .cfa: sp 0 + .ra: lr
STACK CFI 140a0 .cfa: sp 24 + .ra: .cfa -4 + ^ r11: .cfa -8 + ^ r3: .cfa -24 + ^ r4: .cfa -20 + ^ r5: .cfa -16 + ^ r6: .cfa -12 + ^
STACK CFI 140a4 .cfa: r11 4 +
STACK CFI INIT 104d4 a8 .cfa: sp 0 + .ra: lr
STACK CFI 104d8 .cfa: sp 16 + .ra: .cfa -4 + ^ r11: .cfa -8 + ^ r4: .cfa -16 + ^ r5: .cfa -12 + ^
STACK CFI 104dc .cfa: r11 4 +
STACK CFI INIT 1057c 54 .cfa: sp 0 + .ra: lr
STACK CFI 10580 .cfa: sp 12 + .ra: .cfa -4 + ^ r11: .cfa -8 + ^ r4: .cfa -12 + ^
STACK CFI 10584 .cfa: r11 4 +
STACK CFI INIT 105d0 50 .cfa: sp 0 + .ra: lr
STACK CFI 105d4 .cfa: sp 8 + .ra: .cfa -4 + ^ r11: .cfa -8 + ^
STACK CFI 105d8 .cfa: r11 4 +
STACK CFI INIT 10620 e8 .cfa: sp 0 + .ra: lr
STACK CFI 10624 .cfa: sp 12 + .ra: .cfa -4 + ^ r11: .cfa -8 + ^ r4: .cfa -12 + ^
STACK CFI 10628 .cfa: r11 4 +
STACK CFI INIT 10708 48 .cfa: sp 0 + .ra: lr
STACK CFI 1070c .cfa: sp 8 + .ra: .cfa -4 + ^ r11: .cfa -8 + ^
STACK CFI 10710 .cfa: r11 4 +
STACK CFI INIT 10750 40 .cfa: sp 0 + .ra: lr
STACK CFI 10754 .cfa: sp 8 + .ra: .cfa -4 + ^ r11: .cfa -8 + ^
STACK CFI 10758 .cfa: r11 4 +
STACK CFI INIT 10790 7c .cfa: sp 0 + .ra: lr
STACK CFI 10794 .cfa: sp 12 + .ra: .cfa -4 + ^ r11: .cfa -8 + ^ r4: .cfa -12 + ^
STACK CFI 10798 .cfa: r11 4 +
STACK CFI INIT 1086c 28 .cfa: sp 0 + .ra: lr
STACK CFI 10870 .cfa: sp 8 + .ra: .cfa -4 + ^ r11: .cfa -8 + ^
STACK CFI 10874 .cfa: r11 4 +
STACK CFI INIT 21540 34 .cfa: sp 0 + .ra: lr
STACK CFI 21544 .cfa: sp 4 + r11: .cfa -4 + ^
STACK CFI 21548 .cfa: r11 4 +
STACK CFI INIT 21574 44 .cfa: sp 0 + .ra: lr
STACK CFI 21578 .cfa: sp 8 + .ra: .cfa -4 + ^ r11: .cfa -8 + ^
STACK CFI 2157c .cfa: r11 4 +
STACK CFI INIT 215b8 30 .cfa: sp 0 + .ra: lr
STACK CFI 215bc .cfa: sp 8 + .ra: .cfa -4 + ^ r11: .cfa -8 + ^
STACK CFI 215c0 .cfa: r11 4 +
STACK CFI INIT 215e8 b4 .cfa: sp 0 + .ra: lr
STACK CFI 215ec .cfa: sp 24 + .ra: .cfa -4 + ^ r11: .cfa -8 + ^ r3: .cfa -24 + ^ r4: .cfa -20 + ^ r5: .cfa -16 + ^ r6: .cfa -12 + ^
STACK CFI 215f0 .cfa: r11 4 +
STACK CFI INIT 2169c 34 .cfa: sp 0 + .ra: lr
STACK CFI 216a0 .cfa: sp 8 + .ra: .cfa -4 + ^ r11: .cfa -8 + ^
STACK CFI 216a4 .cfa: r11 4 +
STACK CFI INIT 15dfc 68 .cfa: sp 0 + .ra: lr
STACK CFI 15e00 .cfa: sp 12 + .ra: .cfa -4 + ^ r11: .cfa -8 + ^ r4: .cfa -12 + ^
STACK CFI 15e04 .cfa: r11 4 +
STACK CFI INIT 217cc 118 .cfa: sp 0 + .ra: lr
STACK CFI 217d0 .cfa: sp 16 + .ra: .cfa -4 + ^ r11: .cfa -8 + ^ r4: .cfa -16 + ^ r5: .cfa -12 + ^
STACK CFI 217d4 .cfa: r11 4 +
STACK CFI INIT 218e4 e4 .cfa: sp 0 + .ra: lr
STACK CFI 218e8 .cfa: sp 8 + .ra: .cfa -4 + ^ r11: .cfa -8 + ^
STACK CFI 218ec .cfa: r11 4 +
STACK CFI INIT 219c8 8 .cfa: sp 0 + .ra: lr
STACK CFI INIT 219d0 8 .cfa: sp 0 + .ra: lr
STACK CFI INIT 219d8 8 .cfa: sp 0 + .ra: lr
STACK CFI INIT 219e0 30 .cfa: sp 0 + .ra: lr
STACK CFI 219e4 .cfa: sp 8 + .ra: .cfa -4 + ^ r11: .cfa -8 + ^
STACK CFI 219e8 .cfa: r11 4 +
STACK CFI INIT 21a10 8 .cfa: sp 0 + .ra: lr
STACK CFI INIT 21a18 8 .cfa: sp 0 + .ra: lr
STACK CFI INIT 21a20 8 .cfa: sp 0 + .ra: lr
STACK CFI INIT 21a28 4a4 .cfa: sp 0 + .ra: lr
STACK CFI 21a2c .cfa: sp 20 + .ra: .cfa -4 + ^ r11: .cfa -8 + ^ r4: .cfa -20 + ^ r5: .cfa -16 + ^ r6: .cfa -12 + ^
STACK CFI 21a30 .cfa: r11 4 +
STACK CFI INIT 21ecc d4 .cfa: sp 0 + .ra: lr
STACK CFI 21ed0 .cfa: sp 8 + .ra: .cfa -4 + ^ r11: .cfa -8 + ^
STACK CFI 21ed4 .cfa: r11 4 +
STACK CFI INIT 21fa0 90 .cfa: sp 0 + .ra: lr
STACK CFI 21fa4 .cfa: sp 8 + .ra: .cfa -4 + ^ r11: .cfa -8 + ^
STACK CFI 21fa8 .cfa: r11 4 +
STACK CFI INIT 22030 8 .cfa: sp 0 + .ra: lr
STACK CFI INIT 22038 21c .cfa: sp 0 + .ra: lr
STACK CFI 2203c .cfa: sp 12 + .ra: .cfa -4 + ^ r11: .cfa -8 + ^ r4: .cfa -12 + ^
STACK CFI 22040 .cfa: r11 4 +
STACK CFI INIT 22254 8 .cfa: sp 0 + .ra: lr
STACK CFI INIT 2225c 248 .cfa: sp 0 + .ra: lr
STACK CFI 22260 .cfa: sp 12 + .ra: .cfa -4 + ^ r11: .cfa -8 + ^ r4: .cfa -12 + ^
STACK CFI 22264 .cfa: r11 4 +
STACK CFI INIT 224a4 d0 .cfa: sp 0 + .ra: lr
STACK CFI 224a8 .cfa: sp 8 + .ra: .cfa -4 + ^ r11: .cfa -8 + ^
STACK CFI 224ac .cfa: r11 4 +
STACK CFI INIT 22574 24 .cfa: sp 0 + .ra: lr
STACK CFI 22578 .cfa: sp 4 + r11: .cfa -4 + ^
STACK CFI 2257c .cfa: r11 4 +
STACK CFI INIT 22598 4fc .cfa: sp 0 + .ra: lr
STACK CFI 2259c .cfa: sp 12 + .ra: .cfa -4 + ^ r11: .cfa -8 + ^ r4: .cfa -12 + ^
STACK CFI 225a0 .cfa: r11 4 +
STACK CFI INIT 22a94 274 .cfa: sp 0 + .ra: lr
STACK CFI 22a98 .cfa: sp 20 + .ra: .cfa -4 + ^ r11: .cfa -8 + ^ r4: .cfa -20 + ^ r5: .cfa -16 + ^ r6: .cfa -12 + ^
STACK CFI 22a9c .cfa: r11 4 +
STACK CFI INIT 1094c 34 .cfa: sp 0 + .ra: lr
STACK CFI 10950 .cfa: sp 4 + r11: .cfa -4 + ^
STACK CFI 10954 .cfa: r11 4 +
STACK CFI INIT 145d0 40 .cfa: sp 0 + .ra: lr
STACK CFI 145d4 .cfa: sp 8 + .ra: .cfa -4 + ^ r11: .cfa -8 + ^
STACK CFI 145d8 .cfa: r11 4 +
STACK CFI INIT 14610 7c .cfa: sp 0 + .ra: lr
STACK CFI 14614 .cfa: sp 8 + .ra: .cfa -4 + ^ r11: .cfa -8 + ^
STACK CFI 14618 .cfa: r11 4 +
STACK CFI INIT 146b4 34 .cfa: sp 0 + .ra: lr
STACK CFI 146b8 .cfa: sp 4 + r11: .cfa -4 + ^
STACK CFI 146bc .cfa: r11 4 +
STACK CFI INIT 22dd4 34 .cfa: sp 0 + .ra: lr
STACK CFI 22dd8 .cfa: sp 4 + r11: .cfa -4 + ^
STACK CFI 22ddc .cfa: r11 4 +
STACK CFI INIT 22e08 40 .cfa: sp 0 + .ra: lr
STACK CFI 22e0c .cfa: sp 8 + .ra: .cfa -4 + ^ r11: .cfa -8 + ^
STACK CFI 22e10 .cfa: r11 4 +
STACK CFI INIT 22e48 54 .cfa: sp 0 + .ra: lr
STACK CFI 22e4c .cfa: sp 8 + .ra: .cfa -4 + ^ r11: .cfa -8 + ^
STACK CFI 22e50 .cfa: r11 4 +
STACK CFI INIT 14c14 88 .cfa: sp 0 + .ra: lr
STACK CFI 14c18 .cfa: sp 8 + .ra: .cfa -4 + ^ r11: .cfa -8 + ^
STACK CFI 14c1c .cfa: r11 4 +
STACK CFI INIT 22e9c 34 .cfa: sp 0 + .ra: lr
STACK CFI 22ea0 .cfa: sp 12 + .ra: .cfa -4 + ^ r11: .cfa -8 + ^ r4: .cfa -12 + ^
STACK CFI 22ea4 .cfa: r11 4 +
STACK CFI INIT 15220 48 .cfa: sp 0 + .ra: lr
STACK CFI 15224 .cfa: sp 8 + .ra: .cfa -4 + ^ r11: .cfa -8 + ^
STACK CFI 15228 .cfa: r11 4 +
STACK CFI INIT 22d08 b0 .cfa: sp 0 + .ra: lr
STACK CFI 22d0c .cfa: sp 8 + .ra: .cfa -4 + ^ r11: .cfa -8 + ^
STACK CFI 22d10 .cfa: r11 4 +
STACK CFI INIT 22db8 1c .cfa: sp 0 + .ra: lr
STACK CFI 22dbc .cfa: sp 8 + .ra: .cfa -4 + ^ r11: .cfa -8 + ^
STACK CFI 22dc0 .cfa: r11 4 +
STACK CFI INIT ffb4 14 .cfa: sp 0 + .ra: lr
STACK CFI ffb8 .cfa: sp 4 + r11: .cfa -4 + ^
STACK CFI ffbc .cfa: r11 4 +
STACK CFI INIT 13bac 40 .cfa: sp 0 + .ra: lr
STACK CFI 13bb0 .cfa: sp 4 + r11: .cfa -4 + ^
STACK CFI 13bb4 .cfa: r11 4 +
STACK CFI INIT 10068 40 .cfa: sp 0 + .ra: lr
STACK CFI 1006c .cfa: sp 4 + r11: .cfa -4 + ^
STACK CFI 10070 .cfa: r11 4 +
STACK CFI INIT 100a8 6c .cfa: sp 0 + .ra: lr
STACK CFI 100ac .cfa: sp 16 + .ra: .cfa -4 + ^ r11: .cfa -8 + ^ r4: .cfa -16 + ^ r5: .cfa -12 + ^
STACK CFI 100b0 .cfa: r11 4 +
STACK CFI INIT 10114 6c .cfa: sp 0 + .ra: lr
STACK CFI 10118 .cfa: sp 16 + .ra: .cfa -4 + ^ r11: .cfa -8 + ^ r4: .cfa -16 + ^ r5: .cfa -12 + ^
STACK CFI 1011c .cfa: r11 4 +
STACK CFI INIT 10180 54 .cfa: sp 0 + .ra: lr
STACK CFI 10184 .cfa: sp 8 + .ra: .cfa -4 + ^ r11: .cfa -8 + ^
STACK CFI 10188 .cfa: r11 4 +
STACK CFI INIT 101d4 30 .cfa: sp 0 + .ra: lr
STACK CFI 101d8 .cfa: sp 8 + .ra: .cfa -4 + ^ r11: .cfa -8 + ^
STACK CFI 101dc .cfa: r11 4 +
STACK CFI INIT 10230 84 .cfa: sp 0 + .ra: lr
STACK CFI 10234 .cfa: sp 8 + .ra: .cfa -4 + ^ r11: .cfa -8 + ^
STACK CFI 10238 .cfa: r11 4 +
STACK CFI INIT 102e4 3c .cfa: sp 0 + .ra: lr
STACK CFI 102e8 .cfa: sp 8 + .ra: .cfa -4 + ^ r11: .cfa -8 + ^
STACK CFI 102ec .cfa: r11 4 +
STACK CFI INIT 10320 78 .cfa: sp 0 + .ra: lr
STACK CFI 10324 .cfa: sp 8 + .ra: .cfa -4 + ^ r11: .cfa -8 + ^
STACK CFI 10328 .cfa: r11 4 +
STACK CFI INIT 103f4 40 .cfa: sp 0 + .ra: lr
STACK CFI 103f8 .cfa: sp 8 + .ra: .cfa -4 + ^ r11: .cfa -8 + ^
STACK CFI 103fc .cfa: r11 4 +
STACK CFI INIT 10434 54 .cfa: sp 0 + .ra: lr
STACK CFI 10438 .cfa: sp 8 + .ra: .cfa -4 + ^ r11: .cfa -8 + ^
STACK CFI 1043c .cfa: r11 4 +
STACK CFI INIT 13fb8 24 .cfa: sp 0 + .ra: lr
STACK CFI 13fbc .cfa: sp 4 + r11: .cfa -4 + ^
STACK CFI 13fc0 .cfa: r11 4 +
STACK CFI INIT 24a3c 34 .cfa: sp 0 + .ra: lr
STACK CFI 24a40 .cfa: sp 4 + r11: .cfa -4 + ^
STACK CFI 24a44 .cfa: r11 4 +
STACK CFI INIT 1e174 48 .cfa: sp 0 + .ra: lr
STACK CFI 1e178 .cfa: sp 4 + r11: .cfa -4 + ^
STACK CFI 1e17c .cfa: r11 4 +
STACK CFI INIT 104d4 a8 .cfa: sp 0 + .ra: lr
STACK CFI 104d8 .cfa: sp 16 + .ra: .cfa -4 + ^ r11: .cfa -8 + ^ r4: .cfa -16 + ^ r5: .cfa -12 + ^
STACK CFI 104dc .cfa: r11 4 +
STACK CFI INIT 1057c 54 .cfa: sp 0 + .ra: lr
STACK CFI 10580 .cfa: sp 12 + .ra: .cfa -4 + ^ r11: .cfa -8 + ^ r4: .cfa -12 + ^
STACK CFI 10584 .cfa: r11 4 +
STACK CFI INIT 105d0 50 .cfa: sp 0 + .ra: lr
STACK CFI 105d4 .cfa: sp 8 + .ra: .cfa -4 + ^ r11: .cfa -8 + ^
STACK CFI 105d8 .cfa: r11 4 +
STACK CFI INIT 10620 e8 .cfa: sp 0 + .ra: lr
STACK CFI 10624 .cfa: sp 12 + .ra: .cfa -4 + ^ r11: .cfa -8 + ^ r4: .cfa -12 + ^
STACK CFI 10628 .cfa: r11 4 +
STACK CFI INIT 10708 48 .cfa: sp 0 + .ra: lr
STACK CFI 1070c .cfa: sp 8 + .ra: .cfa -4 + ^ r11: .cfa -8 + ^
STACK CFI 10710 .cfa: r11 4 +
STACK CFI INIT 190a4 68 .cfa: sp 0 + .ra: lr
STACK CFI 190a8 .cfa: sp 8 + .ra: .cfa -4 + ^ r11: .cfa -8 + ^
STACK CFI 190ac .cfa: r11 4 +
STACK CFI INIT 10750 40 .cfa: sp 0 + .ra: lr
STACK CFI 10754 .cfa: sp 8 + .ra: .cfa -4 + ^ r11: .cfa -8 + ^
STACK CFI 10758 .cfa: r11 4 +
STACK CFI INIT 10790 7c .cfa: sp 0 + .ra: lr
STACK CFI 10794 .cfa: sp 12 + .ra: .cfa -4 + ^ r11: .cfa -8 + ^ r4: .cfa -12 + ^
STACK CFI 10798 .cfa: r11 4 +
STACK CFI INIT 1080c 60 .cfa: sp 0 + .ra: lr
STACK CFI 10810 .cfa: sp 8 + .ra: .cfa -4 + ^ r11: .cfa -8 + ^
STACK CFI 10814 .cfa: r11 4 +
STACK CFI INIT 1086c 28 .cfa: sp 0 + .ra: lr
STACK CFI 10870 .cfa: sp 8 + .ra: .cfa -4 + ^ r11: .cfa -8 + ^
STACK CFI 10874 .cfa: r11 4 +
STACK CFI INIT 1425c 28 .cfa: sp 0 + .ra: lr
STACK CFI 14260 .cfa: sp 8 + .ra: .cfa -4 + ^ r11: .cfa -8 + ^
STACK CFI 14264 .cfa: r11 4 +
STACK CFI INIT 24a70 44 .cfa: sp 0 + .ra: lr
STACK CFI 24a74 .cfa: sp 4 + r11: .cfa -4 + ^
STACK CFI 24a78 .cfa: r11 4 +
STACK CFI INIT 13d7c 78 .cfa: sp 0 + .ra: lr
STACK CFI 13d80 .cfa: sp 4 + r11: .cfa -4 + ^
STACK CFI 13d84 .cfa: r11 4 +
STACK CFI INIT 13e44 38 .cfa: sp 0 + .ra: lr
STACK CFI 13e48 .cfa: sp 4 + r11: .cfa -4 + ^
STACK CFI 13e4c .cfa: r11 4 +
STACK CFI INIT 13e7c 38 .cfa: sp 0 + .ra: lr
STACK CFI 13e80 .cfa: sp 4 + r11: .cfa -4 + ^
STACK CFI 13e84 .cfa: r11 4 +
STACK CFI INIT 24ab4 90 .cfa: sp 0 + .ra: lr
STACK CFI 24ab8 .cfa: sp 4 + r11: .cfa -4 + ^
STACK CFI 24abc .cfa: r11 4 +
STACK CFI INIT 24b44 90 .cfa: sp 0 + .ra: lr
STACK CFI 24b48 .cfa: sp 4 + r11: .cfa -4 + ^
STACK CFI 24b4c .cfa: r11 4 +
STACK CFI INIT 21540 34 .cfa: sp 0 + .ra: lr
STACK CFI 21544 .cfa: sp 4 + r11: .cfa -4 + ^
STACK CFI 21548 .cfa: r11 4 +
STACK CFI INIT 21574 44 .cfa: sp 0 + .ra: lr
STACK CFI 21578 .cfa: sp 8 + .ra: .cfa -4 + ^ r11: .cfa -8 + ^
STACK CFI 2157c .cfa: r11 4 +
STACK CFI INIT 215b8 30 .cfa: sp 0 + .ra: lr
STACK CFI 215bc .cfa: sp 8 + .ra: .cfa -4 + ^ r11: .cfa -8 + ^
STACK CFI 215c0 .cfa: r11 4 +
STACK CFI INIT 215e8 b4 .cfa: sp 0 + .ra: lr
STACK CFI 215ec .cfa: sp 24 + .ra: .cfa -4 + ^ r11: .cfa -8 + ^ r3: .cfa -24 + ^ r4: .cfa -20 + ^ r5: .cfa -16 + ^ r6: .cfa -12 + ^
STACK CFI 215f0 .cfa: r11 4 +
STACK CFI INIT 13ff4 34 .cfa: sp 0 + .ra: lr
STACK CFI 13ff8 .cfa: sp 4 + r11: .cfa -4 + ^
STACK CFI 13ffc .cfa: r11 4 +
STACK CFI INIT 14028 44 .cfa: sp 0 + .ra: lr
STACK CFI 1402c .cfa: sp 8 + .ra: .cfa -4 + ^ r11: .cfa -8 + ^
STACK CFI 14030 .cfa: r11 4 +
STACK CFI INIT 1406c 30 .cfa: sp 0 + .ra: lr
STACK CFI 14070 .cfa: sp 8 + .ra: .cfa -4 + ^ r11: .cfa -8 + ^
STACK CFI 14074 .cfa: r11 4 +
STACK CFI INIT 1409c b4 .cfa: sp 0 + .ra: lr
STACK CFI 140a0 .cfa: sp 24 + .ra: .cfa -4 + ^ r11: .cfa -8 + ^ r3: .cfa -24 + ^ r4: .cfa -20 + ^ r5: .cfa -16 + ^ r6: .cfa -12 + ^
STACK CFI 140a4 .cfa: r11 4 +
STACK CFI INIT 24bd4 60 .cfa: sp 0 + .ra: lr
STACK CFI 24bd8 .cfa: sp 8 + .ra: .cfa -4 + ^ r11: .cfa -8 + ^
STACK CFI 24bdc .cfa: r11 4 +
STACK CFI INIT 14150 2c .cfa: sp 0 + .ra: lr
STACK CFI 14154 .cfa: sp 8 + .ra: .cfa -4 + ^ r11: .cfa -8 + ^
STACK CFI 14158 .cfa: r11 4 +
STACK CFI INIT 15dfc 68 .cfa: sp 0 + .ra: lr
STACK CFI 15e00 .cfa: sp 12 + .ra: .cfa -4 + ^ r11: .cfa -8 + ^ r4: .cfa -12 + ^
STACK CFI 15e04 .cfa: r11 4 +
STACK CFI INIT 1417c 70 .cfa: sp 0 + .ra: lr
STACK CFI 14180 .cfa: sp 8 + .ra: .cfa -4 + ^ r11: .cfa -8 + ^
STACK CFI 14184 .cfa: r11 4 +
STACK CFI INIT 143c8 28 .cfa: sp 0 + .ra: lr
STACK CFI 143cc .cfa: sp 4 + r11: .cfa -4 + ^
STACK CFI 143d0 .cfa: r11 4 +
STACK CFI INIT 22ed0 118 .cfa: sp 0 + .ra: lr
STACK CFI 22ed4 .cfa: sp 16 + .ra: .cfa -4 + ^ r11: .cfa -8 + ^ r4: .cfa -16 + ^ r5: .cfa -12 + ^
STACK CFI 22ed8 .cfa: r11 4 +
STACK CFI INIT 22fe8 e4 .cfa: sp 0 + .ra: lr
STACK CFI 22fec .cfa: sp 8 + .ra: .cfa -4 + ^ r11: .cfa -8 + ^
STACK CFI 22ff0 .cfa: r11 4 +
STACK CFI INIT 230cc 8 .cfa: sp 0 + .ra: lr
STACK CFI INIT 230d4 8 .cfa: sp 0 + .ra: lr
STACK CFI INIT 230dc 8 .cfa: sp 0 + .ra: lr
STACK CFI INIT 230e4 30 .cfa: sp 0 + .ra: lr
STACK CFI 230e8 .cfa: sp 8 + .ra: .cfa -4 + ^ r11: .cfa -8 + ^
STACK CFI 230ec .cfa: r11 4 +
STACK CFI INIT 23114 8 .cfa: sp 0 + .ra: lr
STACK CFI INIT 2311c 8 .cfa: sp 0 + .ra: lr
STACK CFI INIT 23124 8 .cfa: sp 0 + .ra: lr
STACK CFI INIT 2312c 74 .cfa: sp 0 + .ra: lr
STACK CFI 23130 .cfa: sp 16 + .ra: .cfa -4 + ^ r11: .cfa -8 + ^ r4: .cfa -16 + ^ r5: .cfa -12 + ^
STACK CFI 23134 .cfa: r11 4 +
STACK CFI INIT 231a0 90 .cfa: sp 0 + .ra: lr
STACK CFI 231a4 .cfa: sp 8 + .ra: .cfa -4 + ^ r11: .cfa -8 + ^
STACK CFI 231a8 .cfa: r11 4 +
STACK CFI INIT 23230 168 .cfa: sp 0 + .ra: lr
STACK CFI 23234 .cfa: sp 12 + .ra: .cfa -4 + ^ r11: .cfa -8 + ^ r4: .cfa -12 + ^
STACK CFI 23238 .cfa: r11 4 +
STACK CFI INIT 23398 180 .cfa: sp 0 + .ra: lr
STACK CFI 2339c .cfa: sp 16 + .ra: .cfa -4 + ^ r11: .cfa -8 + ^ r4: .cfa -16 + ^ r5: .cfa -12 + ^
STACK CFI 233a0 .cfa: r11 4 +
STACK CFI INIT 23518 8 .cfa: sp 0 + .ra: lr
STACK CFI INIT 23520 210 .cfa: sp 0 + .ra: lr
STACK CFI 23524 .cfa: sp 8 + .ra: .cfa -4 + ^ r11: .cfa -8 + ^
STACK CFI 23528 .cfa: r11 4 +
STACK CFI INIT 23730 8 .cfa: sp 0 + .ra: lr
STACK CFI INIT 23738 514 .cfa: sp 0 + .ra: lr
STACK CFI 2373c .cfa: sp 24 + .ra: .cfa -4 + ^ r11: .cfa -8 + ^ r4: .cfa -24 + ^ r5: .cfa -20 + ^ r6: .cfa -16 + ^ r7: .cfa -12 + ^
STACK CFI 23740 .cfa: r11 4 +
STACK CFI INIT 23c4c 8 .cfa: sp 0 + .ra: lr
STACK CFI INIT 23c54 128 .cfa: sp 0 + .ra: lr
STACK CFI 23c58 .cfa: sp 12 + .ra: .cfa -4 + ^ r11: .cfa -8 + ^ r4: .cfa -12 + ^
STACK CFI 23c5c .cfa: r11 4 +
STACK CFI INIT 23d7c b0 .cfa: sp 0 + .ra: lr
STACK CFI 23d80 .cfa: sp 8 + .ra: .cfa -4 + ^ r11: .cfa -8 + ^
STACK CFI 23d84 .cfa: r11 4 +
STACK CFI INIT 23e2c 120 .cfa: sp 0 + .ra: lr
STACK CFI 23e30 .cfa: sp 8 + .ra: .cfa -4 + ^ r11: .cfa -8 + ^
STACK CFI 23e34 .cfa: r11 4 +
STACK CFI INIT 23f4c 58 .cfa: sp 0 + .ra: lr
STACK CFI 23f50 .cfa: sp 8 + .ra: .cfa -4 + ^ r11: .cfa -8 + ^
STACK CFI 23f54 .cfa: r11 4 +
STACK CFI INIT 23fa4 1c8 .cfa: sp 0 + .ra: lr
STACK CFI 23fa8 .cfa: sp 12 + .ra: .cfa -4 + ^ r11: .cfa -8 + ^ r4: .cfa -12 + ^
STACK CFI 23fac .cfa: r11 4 +
STACK CFI INIT 2416c 154 .cfa: sp 0 + .ra: lr
STACK CFI 24170 .cfa: sp 20 + .ra: .cfa -4 + ^ r11: .cfa -8 + ^ r4: .cfa -20 + ^ r5: .cfa -16 + ^ r6: .cfa -12 + ^
STACK CFI 24174 .cfa: r11 4 +
STACK CFI INIT 242c0 510 .cfa: sp 0 + .ra: lr
STACK CFI 242c4 .cfa: sp 24 + .ra: .cfa -4 + ^ r11: .cfa -8 + ^ r4: .cfa -24 + ^ r5: .cfa -20 + ^ r6: .cfa -16 + ^ r7: .cfa -12 + ^
STACK CFI 242c8 .cfa: r11 4 +
STACK CFI INIT 247d0 1a0 .cfa: sp 0 + .ra: lr
STACK CFI 247d4 .cfa: sp 20 + .ra: .cfa -4 + ^ r11: .cfa -8 + ^ r4: .cfa -20 + ^ r5: .cfa -16 + ^ r6: .cfa -12 + ^
STACK CFI 247d8 .cfa: r11 4 +
STACK CFI INIT 1459c 34 .cfa: sp 0 + .ra: lr
STACK CFI 145a0 .cfa: sp 4 + r11: .cfa -4 + ^
STACK CFI 145a4 .cfa: r11 4 +
STACK CFI INIT 1094c 34 .cfa: sp 0 + .ra: lr
STACK CFI 10950 .cfa: sp 4 + r11: .cfa -4 + ^
STACK CFI 10954 .cfa: r11 4 +
STACK CFI INIT 145d0 40 .cfa: sp 0 + .ra: lr
STACK CFI 145d4 .cfa: sp 8 + .ra: .cfa -4 + ^ r11: .cfa -8 + ^
STACK CFI 145d8 .cfa: r11 4 +
STACK CFI INIT 14610 7c .cfa: sp 0 + .ra: lr
STACK CFI 14614 .cfa: sp 8 + .ra: .cfa -4 + ^ r11: .cfa -8 + ^
STACK CFI 14618 .cfa: r11 4 +
STACK CFI INIT 146b4 34 .cfa: sp 0 + .ra: lr
STACK CFI 146b8 .cfa: sp 4 + r11: .cfa -4 + ^
STACK CFI 146bc .cfa: r11 4 +
STACK CFI INIT 24c34 34 .cfa: sp 0 + .ra: lr
STACK CFI 24c38 .cfa: sp 4 + r11: .cfa -4 + ^
STACK CFI 24c3c .cfa: r11 4 +
STACK CFI INIT 24c68 40 .cfa: sp 0 + .ra: lr
STACK CFI 24c6c .cfa: sp 8 + .ra: .cfa -4 + ^ r11: .cfa -8 + ^
STACK CFI 24c70 .cfa: r11 4 +
STACK CFI INIT 24ca8 54 .cfa: sp 0 + .ra: lr
STACK CFI 24cac .cfa: sp 8 + .ra: .cfa -4 + ^ r11: .cfa -8 + ^
STACK CFI 24cb0 .cfa: r11 4 +
STACK CFI INIT 24cfc 3c .cfa: sp 0 + .ra: lr
STACK CFI 24d00 .cfa: sp 8 + .ra: .cfa -4 + ^ r11: .cfa -8 + ^
STACK CFI 24d04 .cfa: r11 4 +
STACK CFI INIT 14c14 88 .cfa: sp 0 + .ra: lr
STACK CFI 14c18 .cfa: sp 8 + .ra: .cfa -4 + ^ r11: .cfa -8 + ^
STACK CFI 14c1c .cfa: r11 4 +
STACK CFI INIT 24d38 34 .cfa: sp 0 + .ra: lr
STACK CFI 24d3c .cfa: sp 12 + .ra: .cfa -4 + ^ r11: .cfa -8 + ^ r4: .cfa -12 + ^
STACK CFI 24d40 .cfa: r11 4 +
STACK CFI INIT 24d6c 2c .cfa: sp 0 + .ra: lr
STACK CFI 24d70 .cfa: sp 8 + .ra: .cfa -4 + ^ r11: .cfa -8 + ^
STACK CFI 24d74 .cfa: r11 4 +
STACK CFI INIT 15220 48 .cfa: sp 0 + .ra: lr
STACK CFI 15224 .cfa: sp 8 + .ra: .cfa -4 + ^ r11: .cfa -8 + ^
STACK CFI 15228 .cfa: r11 4 +
STACK CFI INIT 24d98 28 .cfa: sp 0 + .ra: lr
STACK CFI 24d9c .cfa: sp 4 + r11: .cfa -4 + ^
STACK CFI 24da0 .cfa: r11 4 +
STACK CFI INIT 24970 b0 .cfa: sp 0 + .ra: lr
STACK CFI 24974 .cfa: sp 8 + .ra: .cfa -4 + ^ r11: .cfa -8 + ^
STACK CFI 24978 .cfa: r11 4 +
STACK CFI INIT 24a20 1c .cfa: sp 0 + .ra: lr
STACK CFI 24a24 .cfa: sp 8 + .ra: .cfa -4 + ^ r11: .cfa -8 + ^
STACK CFI 24a28 .cfa: r11 4 +
STACK CFI INIT ffb4 14 .cfa: sp 0 + .ra: lr
STACK CFI ffb8 .cfa: sp 4 + r11: .cfa -4 + ^
STACK CFI ffbc .cfa: r11 4 +
STACK CFI INIT 13bac 40 .cfa: sp 0 + .ra: lr
STACK CFI 13bb0 .cfa: sp 4 + r11: .cfa -4 + ^
STACK CFI 13bb4 .cfa: r11 4 +
STACK CFI INIT 10068 40 .cfa: sp 0 + .ra: lr
STACK CFI 1006c .cfa: sp 4 + r11: .cfa -4 + ^
STACK CFI 10070 .cfa: r11 4 +
STACK CFI INIT 100a8 6c .cfa: sp 0 + .ra: lr
STACK CFI 100ac .cfa: sp 16 + .ra: .cfa -4 + ^ r11: .cfa -8 + ^ r4: .cfa -16 + ^ r5: .cfa -12 + ^
STACK CFI 100b0 .cfa: r11 4 +
STACK CFI INIT 10114 6c .cfa: sp 0 + .ra: lr
STACK CFI 10118 .cfa: sp 16 + .ra: .cfa -4 + ^ r11: .cfa -8 + ^ r4: .cfa -16 + ^ r5: .cfa -12 + ^
STACK CFI 1011c .cfa: r11 4 +
STACK CFI INIT 10180 54 .cfa: sp 0 + .ra: lr
STACK CFI 10184 .cfa: sp 8 + .ra: .cfa -4 + ^ r11: .cfa -8 + ^
STACK CFI 10188 .cfa: r11 4 +
STACK CFI INIT 101d4 30 .cfa: sp 0 + .ra: lr
STACK CFI 101d8 .cfa: sp 8 + .ra: .cfa -4 + ^ r11: .cfa -8 + ^
STACK CFI 101dc .cfa: r11 4 +
STACK CFI INIT 10230 84 .cfa: sp 0 + .ra: lr
STACK CFI 10234 .cfa: sp 8 + .ra: .cfa -4 + ^ r11: .cfa -8 + ^
STACK CFI 10238 .cfa: r11 4 +
STACK CFI INIT 13c70 28 .cfa: sp 0 + .ra: lr
STACK CFI 13c74 .cfa: sp 4 + r11: .cfa -4 + ^
STACK CFI 13c78 .cfa: r11 4 +
STACK CFI INIT 102e4 3c .cfa: sp 0 + .ra: lr
STACK CFI 102e8 .cfa: sp 8 + .ra: .cfa -4 + ^ r11: .cfa -8 + ^
STACK CFI 102ec .cfa: r11 4 +
STACK CFI INIT 103f4 40 .cfa: sp 0 + .ra: lr
STACK CFI 103f8 .cfa: sp 8 + .ra: .cfa -4 + ^ r11: .cfa -8 + ^
STACK CFI 103fc .cfa: r11 4 +
STACK CFI INIT 10434 54 .cfa: sp 0 + .ra: lr
STACK CFI 10438 .cfa: sp 8 + .ra: .cfa -4 + ^ r11: .cfa -8 + ^
STACK CFI 1043c .cfa: r11 4 +
STACK CFI INIT 13cf8 28 .cfa: sp 0 + .ra: lr
STACK CFI 13cfc .cfa: sp 4 + r11: .cfa -4 + ^
STACK CFI 13d00 .cfa: r11 4 +
STACK CFI INIT 18cac 28 .cfa: sp 0 + .ra: lr
STACK CFI 18cb0 .cfa: sp 4 + r11: .cfa -4 + ^
STACK CFI 18cb4 .cfa: r11 4 +
STACK CFI INIT 13fb8 24 .cfa: sp 0 + .ra: lr
STACK CFI 13fbc .cfa: sp 4 + r11: .cfa -4 + ^
STACK CFI 13fc0 .cfa: r11 4 +
STACK CFI INIT 13ff4 34 .cfa: sp 0 + .ra: lr
STACK CFI 13ff8 .cfa: sp 4 + r11: .cfa -4 + ^
STACK CFI 13ffc .cfa: r11 4 +
STACK CFI INIT 14028 44 .cfa: sp 0 + .ra: lr
STACK CFI 1402c .cfa: sp 8 + .ra: .cfa -4 + ^ r11: .cfa -8 + ^
STACK CFI 14030 .cfa: r11 4 +
STACK CFI INIT 1406c 30 .cfa: sp 0 + .ra: lr
STACK CFI 14070 .cfa: sp 8 + .ra: .cfa -4 + ^ r11: .cfa -8 + ^
STACK CFI 14074 .cfa: r11 4 +
STACK CFI INIT 1409c b4 .cfa: sp 0 + .ra: lr
STACK CFI 140a0 .cfa: sp 24 + .ra: .cfa -4 + ^ r11: .cfa -8 + ^ r3: .cfa -24 + ^ r4: .cfa -20 + ^ r5: .cfa -16 + ^ r6: .cfa -12 + ^
STACK CFI 140a4 .cfa: r11 4 +
STACK CFI INIT 19158 1c .cfa: sp 0 + .ra: lr
STACK CFI 1915c .cfa: sp 4 + r11: .cfa -4 + ^
STACK CFI 19160 .cfa: r11 4 +
STACK CFI INIT 19174 60 .cfa: sp 0 + .ra: lr
STACK CFI 19178 .cfa: sp 4 + r11: .cfa -4 + ^
STACK CFI 1917c .cfa: r11 4 +
STACK CFI INIT 191d4 24 .cfa: sp 0 + .ra: lr
STACK CFI 191d8 .cfa: sp 4 + r11: .cfa -4 + ^
STACK CFI 191dc .cfa: r11 4 +
STACK CFI INIT 191f8 50 .cfa: sp 0 + .ra: lr
STACK CFI 191fc .cfa: sp 8 + .ra: .cfa -4 + ^ r11: .cfa -8 + ^
STACK CFI 19200 .cfa: r11 4 +
STACK CFI INIT 19248 2c .cfa: sp 0 + .ra: lr
STACK CFI 1924c .cfa: sp 8 + .ra: .cfa -4 + ^ r11: .cfa -8 + ^
STACK CFI 19250 .cfa: r11 4 +
STACK CFI INIT 19274 68 .cfa: sp 0 + .ra: lr
STACK CFI 19278 .cfa: sp 8 + .ra: .cfa -4 + ^ r11: .cfa -8 + ^
STACK CFI 1927c .cfa: r11 4 +
STACK CFI INIT 104d4 a8 .cfa: sp 0 + .ra: lr
STACK CFI 104d8 .cfa: sp 16 + .ra: .cfa -4 + ^ r11: .cfa -8 + ^ r4: .cfa -16 + ^ r5: .cfa -12 + ^
STACK CFI 104dc .cfa: r11 4 +
STACK CFI INIT 1057c 54 .cfa: sp 0 + .ra: lr
STACK CFI 10580 .cfa: sp 12 + .ra: .cfa -4 + ^ r11: .cfa -8 + ^ r4: .cfa -12 + ^
STACK CFI 10584 .cfa: r11 4 +
STACK CFI INIT 105d0 50 .cfa: sp 0 + .ra: lr
STACK CFI 105d4 .cfa: sp 8 + .ra: .cfa -4 + ^ r11: .cfa -8 + ^
STACK CFI 105d8 .cfa: r11 4 +
STACK CFI INIT 10620 e8 .cfa: sp 0 + .ra: lr
STACK CFI 10624 .cfa: sp 12 + .ra: .cfa -4 + ^ r11: .cfa -8 + ^ r4: .cfa -12 + ^
STACK CFI 10628 .cfa: r11 4 +
STACK CFI INIT 10708 48 .cfa: sp 0 + .ra: lr
STACK CFI 1070c .cfa: sp 8 + .ra: .cfa -4 + ^ r11: .cfa -8 + ^
STACK CFI 10710 .cfa: r11 4 +
STACK CFI INIT 10750 40 .cfa: sp 0 + .ra: lr
STACK CFI 10754 .cfa: sp 8 + .ra: .cfa -4 + ^ r11: .cfa -8 + ^
STACK CFI 10758 .cfa: r11 4 +
STACK CFI INIT 10790 7c .cfa: sp 0 + .ra: lr
STACK CFI 10794 .cfa: sp 12 + .ra: .cfa -4 + ^ r11: .cfa -8 + ^ r4: .cfa -12 + ^
STACK CFI 10798 .cfa: r11 4 +
STACK CFI INIT 1086c 28 .cfa: sp 0 + .ra: lr
STACK CFI 10870 .cfa: sp 8 + .ra: .cfa -4 + ^ r11: .cfa -8 + ^
STACK CFI 10874 .cfa: r11 4 +
STACK CFI INIT 21540 34 .cfa: sp 0 + .ra: lr
STACK CFI 21544 .cfa: sp 4 + r11: .cfa -4 + ^
STACK CFI 21548 .cfa: r11 4 +
STACK CFI INIT 21574 44 .cfa: sp 0 + .ra: lr
STACK CFI 21578 .cfa: sp 8 + .ra: .cfa -4 + ^ r11: .cfa -8 + ^
STACK CFI 2157c .cfa: r11 4 +
STACK CFI INIT 215b8 30 .cfa: sp 0 + .ra: lr
STACK CFI 215bc .cfa: sp 8 + .ra: .cfa -4 + ^ r11: .cfa -8 + ^
STACK CFI 215c0 .cfa: r11 4 +
STACK CFI INIT 215e8 b4 .cfa: sp 0 + .ra: lr
STACK CFI 215ec .cfa: sp 24 + .ra: .cfa -4 + ^ r11: .cfa -8 + ^ r3: .cfa -24 + ^ r4: .cfa -20 + ^ r5: .cfa -16 + ^ r6: .cfa -12 + ^
STACK CFI 215f0 .cfa: r11 4 +
STACK CFI INIT 2169c 34 .cfa: sp 0 + .ra: lr
STACK CFI 216a0 .cfa: sp 8 + .ra: .cfa -4 + ^ r11: .cfa -8 + ^
STACK CFI 216a4 .cfa: r11 4 +
STACK CFI INIT 14284 98 .cfa: sp 0 + .ra: lr
STACK CFI 14288 .cfa: sp 16 + .ra: .cfa -4 + ^ r11: .cfa -8 + ^ r3: .cfa -16 + ^ r4: .cfa -12 + ^
STACK CFI 1428c .cfa: r11 4 +
STACK CFI INIT 24dc0 118 .cfa: sp 0 + .ra: lr
STACK CFI 24dc4 .cfa: sp 16 + .ra: .cfa -4 + ^ r11: .cfa -8 + ^ r4: .cfa -16 + ^ r5: .cfa -12 + ^
STACK CFI 24dc8 .cfa: r11 4 +
STACK CFI INIT 24ed8 e4 .cfa: sp 0 + .ra: lr
STACK CFI 24edc .cfa: sp 8 + .ra: .cfa -4 + ^ r11: .cfa -8 + ^
STACK CFI 24ee0 .cfa: r11 4 +
STACK CFI INIT 24fbc 8 .cfa: sp 0 + .ra: lr
STACK CFI INIT 24fc4 8 .cfa: sp 0 + .ra: lr
STACK CFI INIT 24fcc 8 .cfa: sp 0 + .ra: lr
STACK CFI INIT 24fd4 30 .cfa: sp 0 + .ra: lr
STACK CFI 24fd8 .cfa: sp 8 + .ra: .cfa -4 + ^ r11: .cfa -8 + ^
STACK CFI 24fdc .cfa: r11 4 +
STACK CFI INIT 25004 8 .cfa: sp 0 + .ra: lr
STACK CFI INIT 2500c 8 .cfa: sp 0 + .ra: lr
STACK CFI INIT 25014 8 .cfa: sp 0 + .ra: lr
STACK CFI INIT 2501c 118 .cfa: sp 0 + .ra: lr
STACK CFI 25020 .cfa: sp 20 + .ra: .cfa -4 + ^ r11: .cfa -8 + ^ r4: .cfa -20 + ^ r5: .cfa -16 + ^ r6: .cfa -12 + ^
STACK CFI 25024 .cfa: r11 4 +
STACK CFI INIT 25134 1d8 .cfa: sp 0 + .ra: lr
STACK CFI 25138 .cfa: sp 12 + .ra: .cfa -4 + ^ r11: .cfa -8 + ^ r4: .cfa -12 + ^
STACK CFI 2513c .cfa: r11 4 +
STACK CFI INIT 2530c 54 .cfa: sp 0 + .ra: lr
STACK CFI 25310 .cfa: sp 12 + .ra: .cfa -4 + ^ r11: .cfa -8 + ^ r4: .cfa -12 + ^
STACK CFI 25314 .cfa: r11 4 +
STACK CFI INIT 25360 84 .cfa: sp 0 + .ra: lr
STACK CFI 25364 .cfa: sp 8 + .ra: .cfa -4 + ^ r11: .cfa -8 + ^
STACK CFI 25368 .cfa: r11 4 +
STACK CFI INIT 253e4 8 .cfa: sp 0 + .ra: lr
STACK CFI INIT 253ec 1b4 .cfa: sp 0 + .ra: lr
STACK CFI 253f0 .cfa: sp 12 + .ra: .cfa -4 + ^ r11: .cfa -8 + ^ r4: .cfa -12 + ^
STACK CFI 253f4 .cfa: r11 4 +
STACK CFI INIT 255a0 8 .cfa: sp 0 + .ra: lr
STACK CFI INIT 255a8 5c .cfa: sp 0 + .ra: lr
STACK CFI 255ac .cfa: sp 8 + .ra: .cfa -4 + ^ r11: .cfa -8 + ^
STACK CFI 255b0 .cfa: r11 4 +
STACK CFI INIT 25604 60 .cfa: sp 0 + .ra: lr
STACK CFI 25608 .cfa: sp 8 + .ra: .cfa -4 + ^ r11: .cfa -8 + ^
STACK CFI 2560c .cfa: r11 4 +
STACK CFI INIT 25664 24 .cfa: sp 0 + .ra: lr
STACK CFI 25668 .cfa: sp 4 + r11: .cfa -4 + ^
STACK CFI 2566c .cfa: r11 4 +
STACK CFI INIT 25688 ec .cfa: sp 0 + .ra: lr
STACK CFI 2568c .cfa: sp 12 + .ra: .cfa -4 + ^ r11: .cfa -8 + ^ r4: .cfa -12 + ^
STACK CFI 25690 .cfa: r11 4 +
STACK CFI INIT 25774 38 .cfa: sp 0 + .ra: lr
STACK CFI 25778 .cfa: sp 8 + .ra: .cfa -4 + ^ r11: .cfa -8 + ^
STACK CFI 2577c .cfa: r11 4 +
STACK CFI INIT 257ac 10c .cfa: sp 0 + .ra: lr
STACK CFI 257b0 .cfa: sp 20 + .ra: .cfa -4 + ^ r11: .cfa -8 + ^ r4: .cfa -20 + ^ r5: .cfa -16 + ^ r6: .cfa -12 + ^
STACK CFI 257b4 .cfa: r11 4 +
STACK CFI INIT 1094c 34 .cfa: sp 0 + .ra: lr
STACK CFI 10950 .cfa: sp 4 + r11: .cfa -4 + ^
STACK CFI 10954 .cfa: r11 4 +
STACK CFI INIT 145d0 40 .cfa: sp 0 + .ra: lr
STACK CFI 145d4 .cfa: sp 8 + .ra: .cfa -4 + ^ r11: .cfa -8 + ^
STACK CFI 145d8 .cfa: r11 4 +
STACK CFI INIT 14610 7c .cfa: sp 0 + .ra: lr
STACK CFI 14614 .cfa: sp 8 + .ra: .cfa -4 + ^ r11: .cfa -8 + ^
STACK CFI 14618 .cfa: r11 4 +
STACK CFI INIT 146b4 34 .cfa: sp 0 + .ra: lr
STACK CFI 146b8 .cfa: sp 4 + r11: .cfa -4 + ^
STACK CFI 146bc .cfa: r11 4 +
STACK CFI INIT 25984 34 .cfa: sp 0 + .ra: lr
STACK CFI 25988 .cfa: sp 4 + r11: .cfa -4 + ^
STACK CFI 2598c .cfa: r11 4 +
STACK CFI INIT 259b8 40 .cfa: sp 0 + .ra: lr
STACK CFI 259bc .cfa: sp 8 + .ra: .cfa -4 + ^ r11: .cfa -8 + ^
STACK CFI 259c0 .cfa: r11 4 +
STACK CFI INIT 259f8 54 .cfa: sp 0 + .ra: lr
STACK CFI 259fc .cfa: sp 8 + .ra: .cfa -4 + ^ r11: .cfa -8 + ^
STACK CFI 25a00 .cfa: r11 4 +
STACK CFI INIT 196d4 28 .cfa: sp 0 + .ra: lr
STACK CFI 196d8 .cfa: sp 8 + .ra: .cfa -4 + ^ r11: .cfa -8 + ^
STACK CFI 196dc .cfa: r11 4 +
STACK CFI INIT 196fc 28 .cfa: sp 0 + .ra: lr
STACK CFI 19700 .cfa: sp 8 + .ra: .cfa -4 + ^ r11: .cfa -8 + ^
STACK CFI 19704 .cfa: r11 4 +
STACK CFI INIT 19724 28 .cfa: sp 0 + .ra: lr
STACK CFI 19728 .cfa: sp 8 + .ra: .cfa -4 + ^ r11: .cfa -8 + ^
STACK CFI 1972c .cfa: r11 4 +
STACK CFI INIT 1974c 54 .cfa: sp 0 + .ra: lr
STACK CFI 19750 .cfa: sp 8 + .ra: .cfa -4 + ^ r11: .cfa -8 + ^
STACK CFI 19754 .cfa: r11 4 +
STACK CFI INIT 197a0 a0 .cfa: sp 0 + .ra: lr
STACK CFI 197a4 .cfa: sp 12 + .ra: .cfa -4 + ^ r11: .cfa -8 + ^ r4: .cfa -12 + ^
STACK CFI 197a8 .cfa: r11 4 +
STACK CFI INIT 19840 30 .cfa: sp 0 + .ra: lr
STACK CFI 19844 .cfa: sp 8 + .ra: .cfa -4 + ^ r11: .cfa -8 + ^
STACK CFI 19848 .cfa: r11 4 +
STACK CFI INIT 14c14 88 .cfa: sp 0 + .ra: lr
STACK CFI 14c18 .cfa: sp 8 + .ra: .cfa -4 + ^ r11: .cfa -8 + ^
STACK CFI 14c1c .cfa: r11 4 +
STACK CFI INIT 25a4c 34 .cfa: sp 0 + .ra: lr
STACK CFI 25a50 .cfa: sp 12 + .ra: .cfa -4 + ^ r11: .cfa -8 + ^ r4: .cfa -12 + ^
STACK CFI 25a54 .cfa: r11 4 +
STACK CFI INIT 1a07c 38 .cfa: sp 0 + .ra: lr
STACK CFI 1a080 .cfa: sp 8 + .ra: .cfa -4 + ^ r11: .cfa -8 + ^
STACK CFI 1a084 .cfa: r11 4 +
STACK CFI INIT 1a0b4 28 .cfa: sp 0 + .ra: lr
STACK CFI 1a0b8 .cfa: sp 8 + .ra: .cfa -4 + ^ r11: .cfa -8 + ^
STACK CFI 1a0bc .cfa: r11 4 +
STACK CFI INIT 1a0dc 17c .cfa: sp 0 + .ra: lr
STACK CFI 1a0e0 .cfa: sp 8 + .ra: .cfa -4 + ^ r11: .cfa -8 + ^
STACK CFI 1a0e4 .cfa: r11 4 +
STACK CFI INIT 15220 48 .cfa: sp 0 + .ra: lr
STACK CFI 15224 .cfa: sp 8 + .ra: .cfa -4 + ^ r11: .cfa -8 + ^
STACK CFI 15228 .cfa: r11 4 +
STACK CFI INIT 1a528 24 .cfa: sp 0 + .ra: lr
STACK CFI 1a52c .cfa: sp 8 + .ra: .cfa -4 + ^ r11: .cfa -8 + ^
STACK CFI 1a530 .cfa: r11 4 +
STACK CFI INIT 1a54c a0 .cfa: sp 0 + .ra: lr
STACK CFI 1a550 .cfa: sp 8 + .ra: .cfa -4 + ^ r11: .cfa -8 + ^
STACK CFI 1a554 .cfa: r11 4 +
STACK CFI INIT 258b8 b0 .cfa: sp 0 + .ra: lr
STACK CFI 258bc .cfa: sp 8 + .ra: .cfa -4 + ^ r11: .cfa -8 + ^
STACK CFI 258c0 .cfa: r11 4 +
STACK CFI INIT 25968 1c .cfa: sp 0 + .ra: lr
STACK CFI 2596c .cfa: sp 8 + .ra: .cfa -4 + ^ r11: .cfa -8 + ^
STACK CFI 25970 .cfa: r11 4 +
STACK CFI INIT ffb4 14 .cfa: sp 0 + .ra: lr
STACK CFI ffb8 .cfa: sp 4 + r11: .cfa -4 + ^
STACK CFI ffbc .cfa: r11 4 +
STACK CFI INIT 13bac 40 .cfa: sp 0 + .ra: lr
STACK CFI 13bb0 .cfa: sp 4 + r11: .cfa -4 + ^
STACK CFI 13bb4 .cfa: r11 4 +
STACK CFI INIT 10068 40 .cfa: sp 0 + .ra: lr
STACK CFI 1006c .cfa: sp 4 + r11: .cfa -4 + ^
STACK CFI 10070 .cfa: r11 4 +
STACK CFI INIT 100a8 6c .cfa: sp 0 + .ra: lr
STACK CFI 100ac .cfa: sp 16 + .ra: .cfa -4 + ^ r11: .cfa -8 + ^ r4: .cfa -16 + ^ r5: .cfa -12 + ^
STACK CFI 100b0 .cfa: r11 4 +
STACK CFI INIT 10114 6c .cfa: sp 0 + .ra: lr
STACK CFI 10118 .cfa: sp 16 + .ra: .cfa -4 + ^ r11: .cfa -8 + ^ r4: .cfa -16 + ^ r5: .cfa -12 + ^
STACK CFI 1011c .cfa: r11 4 +
STACK CFI INIT 10180 54 .cfa: sp 0 + .ra: lr
STACK CFI 10184 .cfa: sp 8 + .ra: .cfa -4 + ^ r11: .cfa -8 + ^
STACK CFI 10188 .cfa: r11 4 +
STACK CFI INIT 101d4 30 .cfa: sp 0 + .ra: lr
STACK CFI 101d8 .cfa: sp 8 + .ra: .cfa -4 + ^ r11: .cfa -8 + ^
STACK CFI 101dc .cfa: r11 4 +
STACK CFI INIT 10230 84 .cfa: sp 0 + .ra: lr
STACK CFI 10234 .cfa: sp 8 + .ra: .cfa -4 + ^ r11: .cfa -8 + ^
STACK CFI 10238 .cfa: r11 4 +
STACK CFI INIT 102e4 3c .cfa: sp 0 + .ra: lr
STACK CFI 102e8 .cfa: sp 8 + .ra: .cfa -4 + ^ r11: .cfa -8 + ^
STACK CFI 102ec .cfa: r11 4 +
STACK CFI INIT 103f4 40 .cfa: sp 0 + .ra: lr
STACK CFI 103f8 .cfa: sp 8 + .ra: .cfa -4 + ^ r11: .cfa -8 + ^
STACK CFI 103fc .cfa: r11 4 +
STACK CFI INIT 10434 54 .cfa: sp 0 + .ra: lr
STACK CFI 10438 .cfa: sp 8 + .ra: .cfa -4 + ^ r11: .cfa -8 + ^
STACK CFI 1043c .cfa: r11 4 +
STACK CFI INIT 13cb8 40 .cfa: sp 0 + .ra: lr
STACK CFI 13cbc .cfa: sp 8 + .ra: .cfa -4 + ^ r11: .cfa -8 + ^
STACK CFI 13cc0 .cfa: r11 4 +
STACK CFI INIT 13fb8 24 .cfa: sp 0 + .ra: lr
STACK CFI 13fbc .cfa: sp 4 + r11: .cfa -4 + ^
STACK CFI 13fc0 .cfa: r11 4 +
STACK CFI INIT 104d4 a8 .cfa: sp 0 + .ra: lr
STACK CFI 104d8 .cfa: sp 16 + .ra: .cfa -4 + ^ r11: .cfa -8 + ^ r4: .cfa -16 + ^ r5: .cfa -12 + ^
STACK CFI 104dc .cfa: r11 4 +
STACK CFI INIT 1057c 54 .cfa: sp 0 + .ra: lr
STACK CFI 10580 .cfa: sp 12 + .ra: .cfa -4 + ^ r11: .cfa -8 + ^ r4: .cfa -12 + ^
STACK CFI 10584 .cfa: r11 4 +
STACK CFI INIT 105d0 50 .cfa: sp 0 + .ra: lr
STACK CFI 105d4 .cfa: sp 8 + .ra: .cfa -4 + ^ r11: .cfa -8 + ^
STACK CFI 105d8 .cfa: r11 4 +
STACK CFI INIT 10620 e8 .cfa: sp 0 + .ra: lr
STACK CFI 10624 .cfa: sp 12 + .ra: .cfa -4 + ^ r11: .cfa -8 + ^ r4: .cfa -12 + ^
STACK CFI 10628 .cfa: r11 4 +
STACK CFI INIT 10708 48 .cfa: sp 0 + .ra: lr
STACK CFI 1070c .cfa: sp 8 + .ra: .cfa -4 + ^ r11: .cfa -8 + ^
STACK CFI 10710 .cfa: r11 4 +
STACK CFI INIT 10750 40 .cfa: sp 0 + .ra: lr
STACK CFI 10754 .cfa: sp 8 + .ra: .cfa -4 + ^ r11: .cfa -8 + ^
STACK CFI 10758 .cfa: r11 4 +
STACK CFI INIT 10790 7c .cfa: sp 0 + .ra: lr
STACK CFI 10794 .cfa: sp 12 + .ra: .cfa -4 + ^ r11: .cfa -8 + ^ r4: .cfa -12 + ^
STACK CFI 10798 .cfa: r11 4 +
STACK CFI INIT 1080c 60 .cfa: sp 0 + .ra: lr
STACK CFI 10810 .cfa: sp 8 + .ra: .cfa -4 + ^ r11: .cfa -8 + ^
STACK CFI 10814 .cfa: r11 4 +
STACK CFI INIT 1086c 28 .cfa: sp 0 + .ra: lr
STACK CFI 10870 .cfa: sp 8 + .ra: .cfa -4 + ^ r11: .cfa -8 + ^
STACK CFI 10874 .cfa: r11 4 +
STACK CFI INIT 21540 34 .cfa: sp 0 + .ra: lr
STACK CFI 21544 .cfa: sp 4 + r11: .cfa -4 + ^
STACK CFI 21548 .cfa: r11 4 +
STACK CFI INIT 21574 44 .cfa: sp 0 + .ra: lr
STACK CFI 21578 .cfa: sp 8 + .ra: .cfa -4 + ^ r11: .cfa -8 + ^
STACK CFI 2157c .cfa: r11 4 +
STACK CFI INIT 215b8 30 .cfa: sp 0 + .ra: lr
STACK CFI 215bc .cfa: sp 8 + .ra: .cfa -4 + ^ r11: .cfa -8 + ^
STACK CFI 215c0 .cfa: r11 4 +
STACK CFI INIT 215e8 b4 .cfa: sp 0 + .ra: lr
STACK CFI 215ec .cfa: sp 24 + .ra: .cfa -4 + ^ r11: .cfa -8 + ^ r3: .cfa -24 + ^ r4: .cfa -20 + ^ r5: .cfa -16 + ^ r6: .cfa -12 + ^
STACK CFI 215f0 .cfa: r11 4 +
STACK CFI INIT 13ff4 34 .cfa: sp 0 + .ra: lr
STACK CFI 13ff8 .cfa: sp 4 + r11: .cfa -4 + ^
STACK CFI 13ffc .cfa: r11 4 +
STACK CFI INIT 14028 44 .cfa: sp 0 + .ra: lr
STACK CFI 1402c .cfa: sp 8 + .ra: .cfa -4 + ^ r11: .cfa -8 + ^
STACK CFI 14030 .cfa: r11 4 +
STACK CFI INIT 1406c 30 .cfa: sp 0 + .ra: lr
STACK CFI 14070 .cfa: sp 8 + .ra: .cfa -4 + ^ r11: .cfa -8 + ^
STACK CFI 14074 .cfa: r11 4 +
STACK CFI INIT 1409c b4 .cfa: sp 0 + .ra: lr
STACK CFI 140a0 .cfa: sp 24 + .ra: .cfa -4 + ^ r11: .cfa -8 + ^ r3: .cfa -24 + ^ r4: .cfa -20 + ^ r5: .cfa -16 + ^ r6: .cfa -12 + ^
STACK CFI 140a4 .cfa: r11 4 +
STACK CFI INIT 25a80 118 .cfa: sp 0 + .ra: lr
STACK CFI 25a84 .cfa: sp 16 + .ra: .cfa -4 + ^ r11: .cfa -8 + ^ r4: .cfa -16 + ^ r5: .cfa -12 + ^
STACK CFI 25a88 .cfa: r11 4 +
STACK CFI INIT 25b98 e4 .cfa: sp 0 + .ra: lr
STACK CFI 25b9c .cfa: sp 8 + .ra: .cfa -4 + ^ r11: .cfa -8 + ^
STACK CFI 25ba0 .cfa: r11 4 +
STACK CFI INIT 25c7c 8 .cfa: sp 0 + .ra: lr
STACK CFI INIT 25c84 8 .cfa: sp 0 + .ra: lr
STACK CFI INIT 25c8c 8 .cfa: sp 0 + .ra: lr
STACK CFI INIT 25c94 30 .cfa: sp 0 + .ra: lr
STACK CFI 25c98 .cfa: sp 8 + .ra: .cfa -4 + ^ r11: .cfa -8 + ^
STACK CFI 25c9c .cfa: r11 4 +
STACK CFI INIT 25cc4 8 .cfa: sp 0 + .ra: lr
STACK CFI INIT 25ccc 8 .cfa: sp 0 + .ra: lr
STACK CFI INIT 25cd4 8 .cfa: sp 0 + .ra: lr
STACK CFI INIT 25cdc c4 .cfa: sp 0 + .ra: lr
STACK CFI 25ce0 .cfa: sp 16 + .ra: .cfa -4 + ^ r11: .cfa -8 + ^ r4: .cfa -16 + ^ r5: .cfa -12 + ^
STACK CFI 25ce4 .cfa: r11 4 +
STACK CFI INIT 25da0 20 .cfa: sp 0 + .ra: lr
STACK CFI 25da4 .cfa: sp 4 + r11: .cfa -4 + ^
STACK CFI 25da8 .cfa: r11 4 +
STACK CFI INIT 25dc0 17c .cfa: sp 0 + .ra: lr
STACK CFI 25dc4 .cfa: sp 8 + .ra: .cfa -4 + ^ r11: .cfa -8 + ^
STACK CFI 25dc8 .cfa: r11 4 +
STACK CFI INIT 25f3c 8 .cfa: sp 0 + .ra: lr
STACK CFI INIT 25f44 ac .cfa: sp 0 + .ra: lr
STACK CFI 25f48 .cfa: sp 8 + .ra: .cfa -4 + ^ r11: .cfa -8 + ^
STACK CFI 25f4c .cfa: r11 4 +
STACK CFI INIT 25ff0 8 .cfa: sp 0 + .ra: lr
STACK CFI INIT 25ff8 70 .cfa: sp 0 + .ra: lr
STACK CFI 25ffc .cfa: sp 8 + .ra: .cfa -4 + ^ r11: .cfa -8 + ^
STACK CFI 26000 .cfa: r11 4 +
STACK CFI INIT 26068 24 .cfa: sp 0 + .ra: lr
STACK CFI 2606c .cfa: sp 4 + r11: .cfa -4 + ^
STACK CFI 26070 .cfa: r11 4 +
STACK CFI INIT 2608c 174 .cfa: sp 0 + .ra: lr
STACK CFI 26090 .cfa: sp 12 + .ra: .cfa -4 + ^ r11: .cfa -8 + ^ r4: .cfa -12 + ^
STACK CFI 26094 .cfa: r11 4 +
STACK CFI INIT 26200 bc .cfa: sp 0 + .ra: lr
STACK CFI 26204 .cfa: sp 16 + .ra: .cfa -4 + ^ r11: .cfa -8 + ^ r4: .cfa -16 + ^ r5: .cfa -12 + ^
STACK CFI 26208 .cfa: r11 4 +
STACK CFI INIT 1094c 34 .cfa: sp 0 + .ra: lr
STACK CFI 10950 .cfa: sp 4 + r11: .cfa -4 + ^
STACK CFI 10954 .cfa: r11 4 +
STACK CFI INIT 145d0 40 .cfa: sp 0 + .ra: lr
STACK CFI 145d4 .cfa: sp 8 + .ra: .cfa -4 + ^ r11: .cfa -8 + ^
STACK CFI 145d8 .cfa: r11 4 +
STACK CFI INIT 14610 7c .cfa: sp 0 + .ra: lr
STACK CFI 14614 .cfa: sp 8 + .ra: .cfa -4 + ^ r11: .cfa -8 + ^
STACK CFI 14618 .cfa: r11 4 +
STACK CFI INIT 146b4 34 .cfa: sp 0 + .ra: lr
STACK CFI 146b8 .cfa: sp 4 + r11: .cfa -4 + ^
STACK CFI 146bc .cfa: r11 4 +
STACK CFI INIT 263b4 34 .cfa: sp 0 + .ra: lr
STACK CFI 263b8 .cfa: sp 4 + r11: .cfa -4 + ^
STACK CFI 263bc .cfa: r11 4 +
STACK CFI INIT 263e8 40 .cfa: sp 0 + .ra: lr
STACK CFI 263ec .cfa: sp 8 + .ra: .cfa -4 + ^ r11: .cfa -8 + ^
STACK CFI 263f0 .cfa: r11 4 +
STACK CFI INIT 26428 54 .cfa: sp 0 + .ra: lr
STACK CFI 2642c .cfa: sp 8 + .ra: .cfa -4 + ^ r11: .cfa -8 + ^
STACK CFI 26430 .cfa: r11 4 +
STACK CFI INIT 14c14 88 .cfa: sp 0 + .ra: lr
STACK CFI 14c18 .cfa: sp 8 + .ra: .cfa -4 + ^ r11: .cfa -8 + ^
STACK CFI 14c1c .cfa: r11 4 +
STACK CFI INIT 2647c 34 .cfa: sp 0 + .ra: lr
STACK CFI 26480 .cfa: sp 12 + .ra: .cfa -4 + ^ r11: .cfa -8 + ^ r4: .cfa -12 + ^
STACK CFI 26484 .cfa: r11 4 +
STACK CFI INIT 15220 48 .cfa: sp 0 + .ra: lr
STACK CFI 15224 .cfa: sp 8 + .ra: .cfa -4 + ^ r11: .cfa -8 + ^
STACK CFI 15228 .cfa: r11 4 +
STACK CFI INIT 262bc dc .cfa: sp 0 + .ra: lr
STACK CFI 262c0 .cfa: sp 8 + .ra: .cfa -4 + ^ r11: .cfa -8 + ^
STACK CFI 262c4 .cfa: r11 4 +
STACK CFI INIT 26398 1c .cfa: sp 0 + .ra: lr
STACK CFI 2639c .cfa: sp 8 + .ra: .cfa -4 + ^ r11: .cfa -8 + ^
STACK CFI 263a0 .cfa: r11 4 +
STACK CFI INIT ffb4 14 .cfa: sp 0 + .ra: lr
STACK CFI ffb8 .cfa: sp 4 + r11: .cfa -4 + ^
STACK CFI ffbc .cfa: r11 4 +
STACK CFI INIT 13b60 4c .cfa: sp 0 + .ra: lr
STACK CFI 13b64 .cfa: sp 8 + .ra: .cfa -4 + ^ r11: .cfa -8 + ^
STACK CFI 13b68 .cfa: r11 4 +
STACK CFI INIT 13bac 40 .cfa: sp 0 + .ra: lr
STACK CFI 13bb0 .cfa: sp 4 + r11: .cfa -4 + ^
STACK CFI 13bb4 .cfa: r11 4 +
STACK CFI INIT 10068 40 .cfa: sp 0 + .ra: lr
STACK CFI 1006c .cfa: sp 4 + r11: .cfa -4 + ^
STACK CFI 10070 .cfa: r11 4 +
STACK CFI INIT 100a8 6c .cfa: sp 0 + .ra: lr
STACK CFI 100ac .cfa: sp 16 + .ra: .cfa -4 + ^ r11: .cfa -8 + ^ r4: .cfa -16 + ^ r5: .cfa -12 + ^
STACK CFI 100b0 .cfa: r11 4 +
STACK CFI INIT 10114 6c .cfa: sp 0 + .ra: lr
STACK CFI 10118 .cfa: sp 16 + .ra: .cfa -4 + ^ r11: .cfa -8 + ^ r4: .cfa -16 + ^ r5: .cfa -12 + ^
STACK CFI 1011c .cfa: r11 4 +
STACK CFI INIT 10180 54 .cfa: sp 0 + .ra: lr
STACK CFI 10184 .cfa: sp 8 + .ra: .cfa -4 + ^ r11: .cfa -8 + ^
STACK CFI 10188 .cfa: r11 4 +
STACK CFI INIT 101d4 30 .cfa: sp 0 + .ra: lr
STACK CFI 101d8 .cfa: sp 8 + .ra: .cfa -4 + ^ r11: .cfa -8 + ^
STACK CFI 101dc .cfa: r11 4 +
STACK CFI INIT 10230 84 .cfa: sp 0 + .ra: lr
STACK CFI 10234 .cfa: sp 8 + .ra: .cfa -4 + ^ r11: .cfa -8 + ^
STACK CFI 10238 .cfa: r11 4 +
STACK CFI INIT 102e4 3c .cfa: sp 0 + .ra: lr
STACK CFI 102e8 .cfa: sp 8 + .ra: .cfa -4 + ^ r11: .cfa -8 + ^
STACK CFI 102ec .cfa: r11 4 +
STACK CFI INIT 103f4 40 .cfa: sp 0 + .ra: lr
STACK CFI 103f8 .cfa: sp 8 + .ra: .cfa -4 + ^ r11: .cfa -8 + ^
STACK CFI 103fc .cfa: r11 4 +
STACK CFI INIT 10434 54 .cfa: sp 0 + .ra: lr
STACK CFI 10438 .cfa: sp 8 + .ra: .cfa -4 + ^ r11: .cfa -8 + ^
STACK CFI 1043c .cfa: r11 4 +
STACK CFI INIT 13cb8 40 .cfa: sp 0 + .ra: lr
STACK CFI 13cbc .cfa: sp 8 + .ra: .cfa -4 + ^ r11: .cfa -8 + ^
STACK CFI 13cc0 .cfa: r11 4 +
STACK CFI INIT 19158 1c .cfa: sp 0 + .ra: lr
STACK CFI 1915c .cfa: sp 4 + r11: .cfa -4 + ^
STACK CFI 19160 .cfa: r11 4 +
STACK CFI INIT 191f8 50 .cfa: sp 0 + .ra: lr
STACK CFI 191fc .cfa: sp 8 + .ra: .cfa -4 + ^ r11: .cfa -8 + ^
STACK CFI 19200 .cfa: r11 4 +
STACK CFI INIT 13cf8 28 .cfa: sp 0 + .ra: lr
STACK CFI 13cfc .cfa: sp 4 + r11: .cfa -4 + ^
STACK CFI 13d00 .cfa: r11 4 +
STACK CFI INIT 13fb8 24 .cfa: sp 0 + .ra: lr
STACK CFI 13fbc .cfa: sp 4 + r11: .cfa -4 + ^
STACK CFI 13fc0 .cfa: r11 4 +
STACK CFI INIT 104d4 a8 .cfa: sp 0 + .ra: lr
STACK CFI 104d8 .cfa: sp 16 + .ra: .cfa -4 + ^ r11: .cfa -8 + ^ r4: .cfa -16 + ^ r5: .cfa -12 + ^
STACK CFI 104dc .cfa: r11 4 +
STACK CFI INIT 1057c 54 .cfa: sp 0 + .ra: lr
STACK CFI 10580 .cfa: sp 12 + .ra: .cfa -4 + ^ r11: .cfa -8 + ^ r4: .cfa -12 + ^
STACK CFI 10584 .cfa: r11 4 +
STACK CFI INIT 18fe0 4c .cfa: sp 0 + .ra: lr
STACK CFI 18fe4 .cfa: sp 4 + r11: .cfa -4 + ^
STACK CFI 18fe8 .cfa: r11 4 +
STACK CFI INIT 105d0 50 .cfa: sp 0 + .ra: lr
STACK CFI 105d4 .cfa: sp 8 + .ra: .cfa -4 + ^ r11: .cfa -8 + ^
STACK CFI 105d8 .cfa: r11 4 +
STACK CFI INIT 10620 e8 .cfa: sp 0 + .ra: lr
STACK CFI 10624 .cfa: sp 12 + .ra: .cfa -4 + ^ r11: .cfa -8 + ^ r4: .cfa -12 + ^
STACK CFI 10628 .cfa: r11 4 +
STACK CFI INIT 10708 48 .cfa: sp 0 + .ra: lr
STACK CFI 1070c .cfa: sp 8 + .ra: .cfa -4 + ^ r11: .cfa -8 + ^
STACK CFI 10710 .cfa: r11 4 +
STACK CFI INIT 10750 40 .cfa: sp 0 + .ra: lr
STACK CFI 10754 .cfa: sp 8 + .ra: .cfa -4 + ^ r11: .cfa -8 + ^
STACK CFI 10758 .cfa: r11 4 +
STACK CFI INIT 10790 7c .cfa: sp 0 + .ra: lr
STACK CFI 10794 .cfa: sp 12 + .ra: .cfa -4 + ^ r11: .cfa -8 + ^ r4: .cfa -12 + ^
STACK CFI 10798 .cfa: r11 4 +
STACK CFI INIT 1080c 60 .cfa: sp 0 + .ra: lr
STACK CFI 10810 .cfa: sp 8 + .ra: .cfa -4 + ^ r11: .cfa -8 + ^
STACK CFI 10814 .cfa: r11 4 +
STACK CFI INIT 1086c 28 .cfa: sp 0 + .ra: lr
STACK CFI 10870 .cfa: sp 8 + .ra: .cfa -4 + ^ r11: .cfa -8 + ^
STACK CFI 10874 .cfa: r11 4 +
STACK CFI INIT 13d7c 78 .cfa: sp 0 + .ra: lr
STACK CFI 13d80 .cfa: sp 4 + r11: .cfa -4 + ^
STACK CFI 13d84 .cfa: r11 4 +
STACK CFI INIT 13e44 38 .cfa: sp 0 + .ra: lr
STACK CFI 13e48 .cfa: sp 4 + r11: .cfa -4 + ^
STACK CFI 13e4c .cfa: r11 4 +
STACK CFI INIT 13e7c 38 .cfa: sp 0 + .ra: lr
STACK CFI 13e80 .cfa: sp 4 + r11: .cfa -4 + ^
STACK CFI 13e84 .cfa: r11 4 +
STACK CFI INIT 21540 34 .cfa: sp 0 + .ra: lr
STACK CFI 21544 .cfa: sp 4 + r11: .cfa -4 + ^
STACK CFI 21548 .cfa: r11 4 +
STACK CFI INIT 21574 44 .cfa: sp 0 + .ra: lr
STACK CFI 21578 .cfa: sp 8 + .ra: .cfa -4 + ^ r11: .cfa -8 + ^
STACK CFI 2157c .cfa: r11 4 +
STACK CFI INIT 215b8 30 .cfa: sp 0 + .ra: lr
STACK CFI 215bc .cfa: sp 8 + .ra: .cfa -4 + ^ r11: .cfa -8 + ^
STACK CFI 215c0 .cfa: r11 4 +
STACK CFI INIT 215e8 b4 .cfa: sp 0 + .ra: lr
STACK CFI 215ec .cfa: sp 24 + .ra: .cfa -4 + ^ r11: .cfa -8 + ^ r3: .cfa -24 + ^ r4: .cfa -20 + ^ r5: .cfa -16 + ^ r6: .cfa -12 + ^
STACK CFI 215f0 .cfa: r11 4 +
STACK CFI INIT 13ff4 34 .cfa: sp 0 + .ra: lr
STACK CFI 13ff8 .cfa: sp 4 + r11: .cfa -4 + ^
STACK CFI 13ffc .cfa: r11 4 +
STACK CFI INIT 14028 44 .cfa: sp 0 + .ra: lr
STACK CFI 1402c .cfa: sp 8 + .ra: .cfa -4 + ^ r11: .cfa -8 + ^
STACK CFI 14030 .cfa: r11 4 +
STACK CFI INIT 1406c 30 .cfa: sp 0 + .ra: lr
STACK CFI 14070 .cfa: sp 8 + .ra: .cfa -4 + ^ r11: .cfa -8 + ^
STACK CFI 14074 .cfa: r11 4 +
STACK CFI INIT 1409c b4 .cfa: sp 0 + .ra: lr
STACK CFI 140a0 .cfa: sp 24 + .ra: .cfa -4 + ^ r11: .cfa -8 + ^ r3: .cfa -24 + ^ r4: .cfa -20 + ^ r5: .cfa -16 + ^ r6: .cfa -12 + ^
STACK CFI 140a4 .cfa: r11 4 +
STACK CFI INIT 2169c 34 .cfa: sp 0 + .ra: lr
STACK CFI 216a0 .cfa: sp 8 + .ra: .cfa -4 + ^ r11: .cfa -8 + ^
STACK CFI 216a4 .cfa: r11 4 +
STACK CFI INIT 15dfc 68 .cfa: sp 0 + .ra: lr
STACK CFI 15e00 .cfa: sp 12 + .ra: .cfa -4 + ^ r11: .cfa -8 + ^ r4: .cfa -12 + ^
STACK CFI 15e04 .cfa: r11 4 +
STACK CFI INIT 272c4 2c .cfa: sp 0 + .ra: lr
STACK CFI 272c8 .cfa: sp 4 + r11: .cfa -4 + ^
STACK CFI 272cc .cfa: r11 4 +
STACK CFI INIT 14284 98 .cfa: sp 0 + .ra: lr
STACK CFI 14288 .cfa: sp 16 + .ra: .cfa -4 + ^ r11: .cfa -8 + ^ r3: .cfa -16 + ^ r4: .cfa -12 + ^
STACK CFI 1428c .cfa: r11 4 +
STACK CFI INIT 264b0 13c .cfa: sp 0 + .ra: lr
STACK CFI 264b4 .cfa: sp 16 + .ra: .cfa -4 + ^ r11: .cfa -8 + ^ r4: .cfa -16 + ^ r5: .cfa -12 + ^
STACK CFI 264b8 .cfa: r11 4 +
STACK CFI INIT 265ec e4 .cfa: sp 0 + .ra: lr
STACK CFI 265f0 .cfa: sp 8 + .ra: .cfa -4 + ^ r11: .cfa -8 + ^
STACK CFI 265f4 .cfa: r11 4 +
STACK CFI INIT 266d0 8 .cfa: sp 0 + .ra: lr
STACK CFI INIT 266d8 8 .cfa: sp 0 + .ra: lr
STACK CFI INIT 266e0 8 .cfa: sp 0 + .ra: lr
STACK CFI INIT 266e8 30 .cfa: sp 0 + .ra: lr
STACK CFI 266ec .cfa: sp 8 + .ra: .cfa -4 + ^ r11: .cfa -8 + ^
STACK CFI 266f0 .cfa: r11 4 +
STACK CFI INIT 26718 8 .cfa: sp 0 + .ra: lr
STACK CFI INIT 26720 8 .cfa: sp 0 + .ra: lr
STACK CFI INIT 26728 8 .cfa: sp 0 + .ra: lr
STACK CFI INIT 26730 10c .cfa: sp 0 + .ra: lr
STACK CFI 26734 .cfa: sp 12 + .ra: .cfa -4 + ^ r11: .cfa -8 + ^ r4: .cfa -12 + ^
STACK CFI 26738 .cfa: r11 4 +
STACK CFI INIT 2683c 1c4 .cfa: sp 0 + .ra: lr
STACK CFI 26840 .cfa: sp 8 + .ra: .cfa -4 + ^ r11: .cfa -8 + ^
STACK CFI 26844 .cfa: r11 4 +
STACK CFI INIT 26a00 1fc .cfa: sp 0 + .ra: lr
STACK CFI 26a04 .cfa: sp 12 + .ra: .cfa -4 + ^ r11: .cfa -8 + ^ r4: .cfa -12 + ^
STACK CFI 26a08 .cfa: r11 4 +
STACK CFI INIT 26bfc b4 .cfa: sp 0 + .ra: lr
STACK CFI 26c00 .cfa: sp 8 + .ra: .cfa -4 + ^ r11: .cfa -8 + ^
STACK CFI 26c04 .cfa: r11 4 +
STACK CFI INIT 26cb0 8 .cfa: sp 0 + .ra: lr
STACK CFI INIT 26cb8 bc .cfa: sp 0 + .ra: lr
STACK CFI 26cbc .cfa: sp 12 + .ra: .cfa -4 + ^ r11: .cfa -8 + ^ r4: .cfa -12 + ^
STACK CFI 26cc0 .cfa: r11 4 +
STACK CFI INIT 26d74 8 .cfa: sp 0 + .ra: lr
STACK CFI INIT 26d7c 100 .cfa: sp 0 + .ra: lr
STACK CFI 26d80 .cfa: sp 8 + .ra: .cfa -4 + ^ r11: .cfa -8 + ^
STACK CFI 26d84 .cfa: r11 4 +
STACK CFI INIT 26e7c 8 .cfa: sp 0 + .ra: lr
STACK CFI INIT 26e84 90 .cfa: sp 0 + .ra: lr
STACK CFI 26e88 .cfa: sp 8 + .ra: .cfa -4 + ^ r11: .cfa -8 + ^
STACK CFI 26e8c .cfa: r11 4 +
STACK CFI INIT 26f14 24 .cfa: sp 0 + .ra: lr
STACK CFI 26f18 .cfa: sp 4 + r11: .cfa -4 + ^
STACK CFI 26f1c .cfa: r11 4 +
STACK CFI INIT 26f38 1a0 .cfa: sp 0 + .ra: lr
STACK CFI 26f3c .cfa: sp 12 + .ra: .cfa -4 + ^ r11: .cfa -8 + ^ r4: .cfa -12 + ^
STACK CFI 26f40 .cfa: r11 4 +
STACK CFI INIT 270d8 38 .cfa: sp 0 + .ra: lr
STACK CFI 270dc .cfa: sp 8 + .ra: .cfa -4 + ^ r11: .cfa -8 + ^
STACK CFI 270e0 .cfa: r11 4 +
STACK CFI INIT 27110 bc .cfa: sp 0 + .ra: lr
STACK CFI 27114 .cfa: sp 16 + .ra: .cfa -4 + ^ r11: .cfa -8 + ^ r4: .cfa -16 + ^ r5: .cfa -12 + ^
STACK CFI 27118 .cfa: r11 4 +
STACK CFI INIT 1451c 34 .cfa: sp 0 + .ra: lr
STACK CFI 14520 .cfa: sp 4 + r11: .cfa -4 + ^
STACK CFI 14524 .cfa: r11 4 +
STACK CFI INIT 14550 4c .cfa: sp 0 + .ra: lr
STACK CFI 14554 .cfa: sp 8 + .ra: .cfa -4 + ^ r11: .cfa -8 + ^
STACK CFI 14558 .cfa: r11 4 +
STACK CFI INIT 1094c 34 .cfa: sp 0 + .ra: lr
STACK CFI 10950 .cfa: sp 4 + r11: .cfa -4 + ^
STACK CFI 10954 .cfa: r11 4 +
STACK CFI INIT 145d0 40 .cfa: sp 0 + .ra: lr
STACK CFI 145d4 .cfa: sp 8 + .ra: .cfa -4 + ^ r11: .cfa -8 + ^
STACK CFI 145d8 .cfa: r11 4 +
STACK CFI INIT 14610 7c .cfa: sp 0 + .ra: lr
STACK CFI 14614 .cfa: sp 8 + .ra: .cfa -4 + ^ r11: .cfa -8 + ^
STACK CFI 14618 .cfa: r11 4 +
STACK CFI INIT 1468c 28 .cfa: sp 0 + .ra: lr
STACK CFI 14690 .cfa: sp 4 + r11: .cfa -4 + ^
STACK CFI 14694 .cfa: r11 4 +
STACK CFI INIT 146b4 34 .cfa: sp 0 + .ra: lr
STACK CFI 146b8 .cfa: sp 4 + r11: .cfa -4 + ^
STACK CFI 146bc .cfa: r11 4 +
STACK CFI INIT 272f0 34 .cfa: sp 0 + .ra: lr
STACK CFI 272f4 .cfa: sp 4 + r11: .cfa -4 + ^
STACK CFI 272f8 .cfa: r11 4 +
STACK CFI INIT 27324 40 .cfa: sp 0 + .ra: lr
STACK CFI 27328 .cfa: sp 8 + .ra: .cfa -4 + ^ r11: .cfa -8 + ^
STACK CFI 2732c .cfa: r11 4 +
STACK CFI INIT 27364 54 .cfa: sp 0 + .ra: lr
STACK CFI 27368 .cfa: sp 8 + .ra: .cfa -4 + ^ r11: .cfa -8 + ^
STACK CFI 2736c .cfa: r11 4 +
STACK CFI INIT 196d4 28 .cfa: sp 0 + .ra: lr
STACK CFI 196d8 .cfa: sp 8 + .ra: .cfa -4 + ^ r11: .cfa -8 + ^
STACK CFI 196dc .cfa: r11 4 +
STACK CFI INIT 196fc 28 .cfa: sp 0 + .ra: lr
STACK CFI 19700 .cfa: sp 8 + .ra: .cfa -4 + ^ r11: .cfa -8 + ^
STACK CFI 19704 .cfa: r11 4 +
STACK CFI INIT 14be0 34 .cfa: sp 0 + .ra: lr
STACK CFI 14be4 .cfa: sp 4 + r11: .cfa -4 + ^
STACK CFI 14be8 .cfa: r11 4 +
STACK CFI INIT 14c14 88 .cfa: sp 0 + .ra: lr
STACK CFI 14c18 .cfa: sp 8 + .ra: .cfa -4 + ^ r11: .cfa -8 + ^
STACK CFI 14c1c .cfa: r11 4 +
STACK CFI INIT 273b8 34 .cfa: sp 0 + .ra: lr
STACK CFI 273bc .cfa: sp 12 + .ra: .cfa -4 + ^ r11: .cfa -8 + ^ r4: .cfa -12 + ^
STACK CFI 273c0 .cfa: r11 4 +
STACK CFI INIT 1a07c 38 .cfa: sp 0 + .ra: lr
STACK CFI 1a080 .cfa: sp 8 + .ra: .cfa -4 + ^ r11: .cfa -8 + ^
STACK CFI 1a084 .cfa: r11 4 +
STACK CFI INIT 1a0b4 28 .cfa: sp 0 + .ra: lr
STACK CFI 1a0b8 .cfa: sp 8 + .ra: .cfa -4 + ^ r11: .cfa -8 + ^
STACK CFI 1a0bc .cfa: r11 4 +
STACK CFI INIT 15220 48 .cfa: sp 0 + .ra: lr
STACK CFI 15224 .cfa: sp 8 + .ra: .cfa -4 + ^ r11: .cfa -8 + ^
STACK CFI 15228 .cfa: r11 4 +
STACK CFI INIT 1a528 24 .cfa: sp 0 + .ra: lr
STACK CFI 1a52c .cfa: sp 8 + .ra: .cfa -4 + ^ r11: .cfa -8 + ^
STACK CFI 1a530 .cfa: r11 4 +
STACK CFI INIT 1a54c a0 .cfa: sp 0 + .ra: lr
STACK CFI 1a550 .cfa: sp 8 + .ra: .cfa -4 + ^ r11: .cfa -8 + ^
STACK CFI 1a554 .cfa: r11 4 +
STACK CFI INIT 271cc dc .cfa: sp 0 + .ra: lr
STACK CFI 271d0 .cfa: sp 8 + .ra: .cfa -4 + ^ r11: .cfa -8 + ^
STACK CFI 271d4 .cfa: r11 4 +
STACK CFI INIT 272a8 1c .cfa: sp 0 + .ra: lr
STACK CFI 272ac .cfa: sp 8 + .ra: .cfa -4 + ^ r11: .cfa -8 + ^
STACK CFI 272b0 .cfa: r11 4 +
STACK CFI INIT ffb4 14 .cfa: sp 0 + .ra: lr
STACK CFI ffb8 .cfa: sp 4 + r11: .cfa -4 + ^
STACK CFI ffbc .cfa: r11 4 +
STACK CFI INIT 13bac 40 .cfa: sp 0 + .ra: lr
STACK CFI 13bb0 .cfa: sp 4 + r11: .cfa -4 + ^
STACK CFI 13bb4 .cfa: r11 4 +
STACK CFI INIT 100a8 6c .cfa: sp 0 + .ra: lr
STACK CFI 100ac .cfa: sp 16 + .ra: .cfa -4 + ^ r11: .cfa -8 + ^ r4: .cfa -16 + ^ r5: .cfa -12 + ^
STACK CFI 100b0 .cfa: r11 4 +
STACK CFI INIT 10114 6c .cfa: sp 0 + .ra: lr
STACK CFI 10118 .cfa: sp 16 + .ra: .cfa -4 + ^ r11: .cfa -8 + ^ r4: .cfa -16 + ^ r5: .cfa -12 + ^
STACK CFI 1011c .cfa: r11 4 +
STACK CFI INIT 102b4 30 .cfa: sp 0 + .ra: lr
STACK CFI 102b8 .cfa: sp 8 + .ra: .cfa -4 + ^ r11: .cfa -8 + ^
STACK CFI 102bc .cfa: r11 4 +
STACK CFI INIT 102e4 3c .cfa: sp 0 + .ra: lr
STACK CFI 102e8 .cfa: sp 8 + .ra: .cfa -4 + ^ r11: .cfa -8 + ^
STACK CFI 102ec .cfa: r11 4 +
STACK CFI INIT 10320 78 .cfa: sp 0 + .ra: lr
STACK CFI 10324 .cfa: sp 8 + .ra: .cfa -4 + ^ r11: .cfa -8 + ^
STACK CFI 10328 .cfa: r11 4 +
STACK CFI INIT 10398 5c .cfa: sp 0 + .ra: lr
STACK CFI 1039c .cfa: sp 8 + .ra: .cfa -4 + ^ r11: .cfa -8 + ^
STACK CFI 103a0 .cfa: r11 4 +
STACK CFI INIT 10434 54 .cfa: sp 0 + .ra: lr
STACK CFI 10438 .cfa: sp 8 + .ra: .cfa -4 + ^ r11: .cfa -8 + ^
STACK CFI 1043c .cfa: r11 4 +
STACK CFI INIT 10488 4c .cfa: sp 0 + .ra: lr
STACK CFI 1048c .cfa: sp 8 + .ra: .cfa -4 + ^ r11: .cfa -8 + ^
STACK CFI 10490 .cfa: r11 4 +
STACK CFI INIT 13fb8 24 .cfa: sp 0 + .ra: lr
STACK CFI 13fbc .cfa: sp 4 + r11: .cfa -4 + ^
STACK CFI 13fc0 .cfa: r11 4 +
STACK CFI INIT 24a70 44 .cfa: sp 0 + .ra: lr
STACK CFI 24a74 .cfa: sp 4 + r11: .cfa -4 + ^
STACK CFI 24a78 .cfa: r11 4 +
STACK CFI INIT 13d7c 78 .cfa: sp 0 + .ra: lr
STACK CFI 13d80 .cfa: sp 4 + r11: .cfa -4 + ^
STACK CFI 13d84 .cfa: r11 4 +
STACK CFI INIT 13e44 38 .cfa: sp 0 + .ra: lr
STACK CFI 13e48 .cfa: sp 4 + r11: .cfa -4 + ^
STACK CFI 13e4c .cfa: r11 4 +
STACK CFI INIT 13e7c 38 .cfa: sp 0 + .ra: lr
STACK CFI 13e80 .cfa: sp 4 + r11: .cfa -4 + ^
STACK CFI 13e84 .cfa: r11 4 +
STACK CFI INIT 21540 34 .cfa: sp 0 + .ra: lr
STACK CFI 21544 .cfa: sp 4 + r11: .cfa -4 + ^
STACK CFI 21548 .cfa: r11 4 +
STACK CFI INIT 21574 44 .cfa: sp 0 + .ra: lr
STACK CFI 21578 .cfa: sp 8 + .ra: .cfa -4 + ^ r11: .cfa -8 + ^
STACK CFI 2157c .cfa: r11 4 +
STACK CFI INIT 215b8 30 .cfa: sp 0 + .ra: lr
STACK CFI 215bc .cfa: sp 8 + .ra: .cfa -4 + ^ r11: .cfa -8 + ^
STACK CFI 215c0 .cfa: r11 4 +
STACK CFI INIT 215e8 b4 .cfa: sp 0 + .ra: lr
STACK CFI 215ec .cfa: sp 24 + .ra: .cfa -4 + ^ r11: .cfa -8 + ^ r3: .cfa -24 + ^ r4: .cfa -20 + ^ r5: .cfa -16 + ^ r6: .cfa -12 + ^
STACK CFI 215f0 .cfa: r11 4 +
STACK CFI INIT 13ff4 34 .cfa: sp 0 + .ra: lr
STACK CFI 13ff8 .cfa: sp 4 + r11: .cfa -4 + ^
STACK CFI 13ffc .cfa: r11 4 +
STACK CFI INIT 14028 44 .cfa: sp 0 + .ra: lr
STACK CFI 1402c .cfa: sp 8 + .ra: .cfa -4 + ^ r11: .cfa -8 + ^
STACK CFI 14030 .cfa: r11 4 +
STACK CFI INIT 1406c 30 .cfa: sp 0 + .ra: lr
STACK CFI 14070 .cfa: sp 8 + .ra: .cfa -4 + ^ r11: .cfa -8 + ^
STACK CFI 14074 .cfa: r11 4 +
STACK CFI INIT 1409c b4 .cfa: sp 0 + .ra: lr
STACK CFI 140a0 .cfa: sp 24 + .ra: .cfa -4 + ^ r11: .cfa -8 + ^ r3: .cfa -24 + ^ r4: .cfa -20 + ^ r5: .cfa -16 + ^ r6: .cfa -12 + ^
STACK CFI 140a4 .cfa: r11 4 +
STACK CFI INIT 2169c 34 .cfa: sp 0 + .ra: lr
STACK CFI 216a0 .cfa: sp 8 + .ra: .cfa -4 + ^ r11: .cfa -8 + ^
STACK CFI 216a4 .cfa: r11 4 +
STACK CFI INIT 18fac 34 .cfa: sp 0 + .ra: lr
STACK CFI 18fb0 .cfa: sp 8 + .ra: .cfa -4 + ^ r11: .cfa -8 + ^
STACK CFI 18fb4 .cfa: r11 4 +
STACK CFI INIT 15dfc 68 .cfa: sp 0 + .ra: lr
STACK CFI 15e00 .cfa: sp 12 + .ra: .cfa -4 + ^ r11: .cfa -8 + ^ r4: .cfa -12 + ^
STACK CFI 15e04 .cfa: r11 4 +
STACK CFI INIT 14284 98 .cfa: sp 0 + .ra: lr
STACK CFI 14288 .cfa: sp 16 + .ra: .cfa -4 + ^ r11: .cfa -8 + ^ r3: .cfa -16 + ^ r4: .cfa -12 + ^
STACK CFI 1428c .cfa: r11 4 +
STACK CFI INIT 273ec 118 .cfa: sp 0 + .ra: lr
STACK CFI 273f0 .cfa: sp 16 + .ra: .cfa -4 + ^ r11: .cfa -8 + ^ r4: .cfa -16 + ^ r5: .cfa -12 + ^
STACK CFI 273f4 .cfa: r11 4 +
STACK CFI INIT 27504 e4 .cfa: sp 0 + .ra: lr
STACK CFI 27508 .cfa: sp 8 + .ra: .cfa -4 + ^ r11: .cfa -8 + ^
STACK CFI 2750c .cfa: r11 4 +
STACK CFI INIT 275e8 8 .cfa: sp 0 + .ra: lr
STACK CFI INIT 275f0 8 .cfa: sp 0 + .ra: lr
STACK CFI INIT 275f8 8 .cfa: sp 0 + .ra: lr
STACK CFI INIT 27600 30 .cfa: sp 0 + .ra: lr
STACK CFI 27604 .cfa: sp 8 + .ra: .cfa -4 + ^ r11: .cfa -8 + ^
STACK CFI 27608 .cfa: r11 4 +
STACK CFI INIT 27630 8 .cfa: sp 0 + .ra: lr
STACK CFI INIT 27638 8 .cfa: sp 0 + .ra: lr
STACK CFI INIT 27640 8 .cfa: sp 0 + .ra: lr
STACK CFI INIT 27648 aa4 .cfa: sp 0 + .ra: lr
STACK CFI 2764c .cfa: sp 24 + .ra: .cfa -4 + ^ r11: .cfa -8 + ^ r4: .cfa -24 + ^ r5: .cfa -20 + ^ r6: .cfa -16 + ^ r7: .cfa -12 + ^
STACK CFI 27650 .cfa: r11 4 +
STACK CFI INIT 280ec c4 .cfa: sp 0 + .ra: lr
STACK CFI 280f0 .cfa: sp 8 + .ra: .cfa -4 + ^ r11: .cfa -8 + ^
STACK CFI 280f4 .cfa: r11 4 +
STACK CFI INIT 281b0 478 .cfa: sp 0 + .ra: lr
STACK CFI 281b4 .cfa: sp 8 + .ra: .cfa -4 + ^ r11: .cfa -8 + ^
STACK CFI 281b8 .cfa: r11 4 +
STACK CFI INIT 28628 8 .cfa: sp 0 + .ra: lr
STACK CFI INIT 28630 374 .cfa: sp 0 + .ra: lr
STACK CFI 28634 .cfa: sp 12 + .ra: .cfa -4 + ^ r11: .cfa -8 + ^ r4: .cfa -12 + ^
STACK CFI 28638 .cfa: r11 4 +
STACK CFI INIT 289a4 8 .cfa: sp 0 + .ra: lr
STACK CFI INIT 289ac 154 .cfa: sp 0 + .ra: lr
STACK CFI 289b0 .cfa: sp 12 + .ra: .cfa -4 + ^ r11: .cfa -8 + ^ r4: .cfa -12 + ^
STACK CFI 289b4 .cfa: r11 4 +
STACK CFI INIT 28b00 8 .cfa: sp 0 + .ra: lr
STACK CFI INIT 28b08 148 .cfa: sp 0 + .ra: lr
STACK CFI 28b0c .cfa: sp 12 + .ra: .cfa -4 + ^ r11: .cfa -8 + ^ r4: .cfa -12 + ^
STACK CFI 28b10 .cfa: r11 4 +
STACK CFI INIT 28c50 8 .cfa: sp 0 + .ra: lr
STACK CFI INIT 28c58 38c .cfa: sp 0 + .ra: lr
STACK CFI 28c5c .cfa: sp 12 + .ra: .cfa -4 + ^ r11: .cfa -8 + ^ r4: .cfa -12 + ^
STACK CFI 28c60 .cfa: r11 4 +
STACK CFI INIT 28fe4 2c .cfa: sp 0 + .ra: lr
STACK CFI 28fe8 .cfa: sp 8 + .ra: .cfa -4 + ^ r11: .cfa -8 + ^
STACK CFI 28fec .cfa: r11 4 +
STACK CFI INIT 29010 4c .cfa: sp 0 + .ra: lr
STACK CFI 29014 .cfa: sp 8 + .ra: .cfa -4 + ^ r11: .cfa -8 + ^
STACK CFI 29018 .cfa: r11 4 +
STACK CFI INIT 2905c dc .cfa: sp 0 + .ra: lr
STACK CFI 29060 .cfa: sp 8 + .ra: .cfa -4 + ^ r11: .cfa -8 + ^
STACK CFI 29064 .cfa: r11 4 +
STACK CFI INIT 29138 24 .cfa: sp 0 + .ra: lr
STACK CFI 2913c .cfa: sp 4 + r11: .cfa -4 + ^
STACK CFI 29140 .cfa: r11 4 +
STACK CFI INIT 2915c 888 .cfa: sp 0 + .ra: lr
STACK CFI 29160 .cfa: sp 16 + .ra: .cfa -4 + ^ r11: .cfa -8 + ^ r4: .cfa -16 + ^ r5: .cfa -12 + ^
STACK CFI 29164 .cfa: r11 4 +
STACK CFI INIT 299e4 34c .cfa: sp 0 + .ra: lr
STACK CFI 299e8 .cfa: sp 20 + .ra: .cfa -4 + ^ r11: .cfa -8 + ^ r4: .cfa -20 + ^ r5: .cfa -16 + ^ r6: .cfa -12 + ^
STACK CFI 299ec .cfa: r11 4 +
STACK CFI INIT 29d30 60 .cfa: sp 0 + .ra: lr
STACK CFI 29d34 .cfa: sp 8 + .ra: .cfa -4 + ^ r11: .cfa -8 + ^
STACK CFI 29d38 .cfa: r11 4 +
STACK CFI INIT 29d90 374 .cfa: sp 0 + .ra: lr
STACK CFI 29d94 .cfa: sp 12 + .ra: .cfa -4 + ^ r11: .cfa -8 + ^ r4: .cfa -12 + ^
STACK CFI 29d98 .cfa: r11 4 +
STACK CFI INIT 145d0 40 .cfa: sp 0 + .ra: lr
STACK CFI 145d4 .cfa: sp 8 + .ra: .cfa -4 + ^ r11: .cfa -8 + ^
STACK CFI 145d8 .cfa: r11 4 +
STACK CFI INIT 14610 7c .cfa: sp 0 + .ra: lr
STACK CFI 14614 .cfa: sp 8 + .ra: .cfa -4 + ^ r11: .cfa -8 + ^
STACK CFI 14618 .cfa: r11 4 +
STACK CFI INIT 146b4 34 .cfa: sp 0 + .ra: lr
STACK CFI 146b8 .cfa: sp 4 + r11: .cfa -4 + ^
STACK CFI 146bc .cfa: r11 4 +
STACK CFI INIT 2a1d0 34 .cfa: sp 0 + .ra: lr
STACK CFI 2a1d4 .cfa: sp 4 + r11: .cfa -4 + ^
STACK CFI 2a1d8 .cfa: r11 4 +
STACK CFI INIT 2a204 40 .cfa: sp 0 + .ra: lr
STACK CFI 2a208 .cfa: sp 8 + .ra: .cfa -4 + ^ r11: .cfa -8 + ^
STACK CFI 2a20c .cfa: r11 4 +
STACK CFI INIT 2a244 54 .cfa: sp 0 + .ra: lr
STACK CFI 2a248 .cfa: sp 8 + .ra: .cfa -4 + ^ r11: .cfa -8 + ^
STACK CFI 2a24c .cfa: r11 4 +
STACK CFI INIT 19870 54 .cfa: sp 0 + .ra: lr
STACK CFI 19874 .cfa: sp 8 + .ra: .cfa -4 + ^ r11: .cfa -8 + ^
STACK CFI 19878 .cfa: r11 4 +
STACK CFI INIT 198c4 a0 .cfa: sp 0 + .ra: lr
STACK CFI 198c8 .cfa: sp 12 + .ra: .cfa -4 + ^ r11: .cfa -8 + ^ r4: .cfa -12 + ^
STACK CFI 198cc .cfa: r11 4 +
STACK CFI INIT 19964 30 .cfa: sp 0 + .ra: lr
STACK CFI 19968 .cfa: sp 8 + .ra: .cfa -4 + ^ r11: .cfa -8 + ^
STACK CFI 1996c .cfa: r11 4 +
STACK CFI INIT 14c14 88 .cfa: sp 0 + .ra: lr
STACK CFI 14c18 .cfa: sp 8 + .ra: .cfa -4 + ^ r11: .cfa -8 + ^
STACK CFI 14c1c .cfa: r11 4 +
STACK CFI INIT 2a298 34 .cfa: sp 0 + .ra: lr
STACK CFI 2a29c .cfa: sp 12 + .ra: .cfa -4 + ^ r11: .cfa -8 + ^ r4: .cfa -12 + ^
STACK CFI 2a2a0 .cfa: r11 4 +
STACK CFI INIT 15220 48 .cfa: sp 0 + .ra: lr
STACK CFI 15224 .cfa: sp 8 + .ra: .cfa -4 + ^ r11: .cfa -8 + ^
STACK CFI 15228 .cfa: r11 4 +
STACK CFI INIT 2a104 b0 .cfa: sp 0 + .ra: lr
STACK CFI 2a108 .cfa: sp 8 + .ra: .cfa -4 + ^ r11: .cfa -8 + ^
STACK CFI 2a10c .cfa: r11 4 +
STACK CFI INIT 2a1b4 1c .cfa: sp 0 + .ra: lr
STACK CFI 2a1b8 .cfa: sp 8 + .ra: .cfa -4 + ^ r11: .cfa -8 + ^
STACK CFI 2a1bc .cfa: r11 4 +
STACK CFI INIT ffb4 14 .cfa: sp 0 + .ra: lr
STACK CFI ffb8 .cfa: sp 4 + r11: .cfa -4 + ^
STACK CFI ffbc .cfa: r11 4 +
STACK CFI INIT 13bac 40 .cfa: sp 0 + .ra: lr
STACK CFI 13bb0 .cfa: sp 4 + r11: .cfa -4 + ^
STACK CFI 13bb4 .cfa: r11 4 +
STACK CFI INIT 100a8 6c .cfa: sp 0 + .ra: lr
STACK CFI 100ac .cfa: sp 16 + .ra: .cfa -4 + ^ r11: .cfa -8 + ^ r4: .cfa -16 + ^ r5: .cfa -12 + ^
STACK CFI 100b0 .cfa: r11 4 +
STACK CFI INIT 10114 6c .cfa: sp 0 + .ra: lr
STACK CFI 10118 .cfa: sp 16 + .ra: .cfa -4 + ^ r11: .cfa -8 + ^ r4: .cfa -16 + ^ r5: .cfa -12 + ^
STACK CFI 1011c .cfa: r11 4 +
STACK CFI INIT 102b4 30 .cfa: sp 0 + .ra: lr
STACK CFI 102b8 .cfa: sp 8 + .ra: .cfa -4 + ^ r11: .cfa -8 + ^
STACK CFI 102bc .cfa: r11 4 +
STACK CFI INIT 102e4 3c .cfa: sp 0 + .ra: lr
STACK CFI 102e8 .cfa: sp 8 + .ra: .cfa -4 + ^ r11: .cfa -8 + ^
STACK CFI 102ec .cfa: r11 4 +
STACK CFI INIT 10320 78 .cfa: sp 0 + .ra: lr
STACK CFI 10324 .cfa: sp 8 + .ra: .cfa -4 + ^ r11: .cfa -8 + ^
STACK CFI 10328 .cfa: r11 4 +
STACK CFI INIT 10398 5c .cfa: sp 0 + .ra: lr
STACK CFI 1039c .cfa: sp 8 + .ra: .cfa -4 + ^ r11: .cfa -8 + ^
STACK CFI 103a0 .cfa: r11 4 +
STACK CFI INIT 10434 54 .cfa: sp 0 + .ra: lr
STACK CFI 10438 .cfa: sp 8 + .ra: .cfa -4 + ^ r11: .cfa -8 + ^
STACK CFI 1043c .cfa: r11 4 +
STACK CFI INIT 10488 4c .cfa: sp 0 + .ra: lr
STACK CFI 1048c .cfa: sp 8 + .ra: .cfa -4 + ^ r11: .cfa -8 + ^
STACK CFI 10490 .cfa: r11 4 +
STACK CFI INIT 13cb8 40 .cfa: sp 0 + .ra: lr
STACK CFI 13cbc .cfa: sp 8 + .ra: .cfa -4 + ^ r11: .cfa -8 + ^
STACK CFI 13cc0 .cfa: r11 4 +
STACK CFI INIT 13fb8 24 .cfa: sp 0 + .ra: lr
STACK CFI 13fbc .cfa: sp 4 + r11: .cfa -4 + ^
STACK CFI 13fc0 .cfa: r11 4 +
STACK CFI INIT 24a3c 34 .cfa: sp 0 + .ra: lr
STACK CFI 24a40 .cfa: sp 4 + r11: .cfa -4 + ^
STACK CFI 24a44 .cfa: r11 4 +
STACK CFI INIT 1e174 48 .cfa: sp 0 + .ra: lr
STACK CFI 1e178 .cfa: sp 4 + r11: .cfa -4 + ^
STACK CFI 1e17c .cfa: r11 4 +
STACK CFI INIT 13d7c 78 .cfa: sp 0 + .ra: lr
STACK CFI 13d80 .cfa: sp 4 + r11: .cfa -4 + ^
STACK CFI 13d84 .cfa: r11 4 +
STACK CFI INIT 13e44 38 .cfa: sp 0 + .ra: lr
STACK CFI 13e48 .cfa: sp 4 + r11: .cfa -4 + ^
STACK CFI 13e4c .cfa: r11 4 +
STACK CFI INIT 13e7c 38 .cfa: sp 0 + .ra: lr
STACK CFI 13e80 .cfa: sp 4 + r11: .cfa -4 + ^
STACK CFI 13e84 .cfa: r11 4 +
STACK CFI INIT 24ab4 90 .cfa: sp 0 + .ra: lr
STACK CFI 24ab8 .cfa: sp 4 + r11: .cfa -4 + ^
STACK CFI 24abc .cfa: r11 4 +
STACK CFI INIT 21540 34 .cfa: sp 0 + .ra: lr
STACK CFI 21544 .cfa: sp 4 + r11: .cfa -4 + ^
STACK CFI 21548 .cfa: r11 4 +
STACK CFI INIT 21574 44 .cfa: sp 0 + .ra: lr
STACK CFI 21578 .cfa: sp 8 + .ra: .cfa -4 + ^ r11: .cfa -8 + ^
STACK CFI 2157c .cfa: r11 4 +
STACK CFI INIT 215b8 30 .cfa: sp 0 + .ra: lr
STACK CFI 215bc .cfa: sp 8 + .ra: .cfa -4 + ^ r11: .cfa -8 + ^
STACK CFI 215c0 .cfa: r11 4 +
STACK CFI INIT 215e8 b4 .cfa: sp 0 + .ra: lr
STACK CFI 215ec .cfa: sp 24 + .ra: .cfa -4 + ^ r11: .cfa -8 + ^ r3: .cfa -24 + ^ r4: .cfa -20 + ^ r5: .cfa -16 + ^ r6: .cfa -12 + ^
STACK CFI 215f0 .cfa: r11 4 +
STACK CFI INIT 13ff4 34 .cfa: sp 0 + .ra: lr
STACK CFI 13ff8 .cfa: sp 4 + r11: .cfa -4 + ^
STACK CFI 13ffc .cfa: r11 4 +
STACK CFI INIT 14028 44 .cfa: sp 0 + .ra: lr
STACK CFI 1402c .cfa: sp 8 + .ra: .cfa -4 + ^ r11: .cfa -8 + ^
STACK CFI 14030 .cfa: r11 4 +
STACK CFI INIT 1406c 30 .cfa: sp 0 + .ra: lr
STACK CFI 14070 .cfa: sp 8 + .ra: .cfa -4 + ^ r11: .cfa -8 + ^
STACK CFI 14074 .cfa: r11 4 +
STACK CFI INIT 1409c b4 .cfa: sp 0 + .ra: lr
STACK CFI 140a0 .cfa: sp 24 + .ra: .cfa -4 + ^ r11: .cfa -8 + ^ r3: .cfa -24 + ^ r4: .cfa -20 + ^ r5: .cfa -16 + ^ r6: .cfa -12 + ^
STACK CFI 140a4 .cfa: r11 4 +
STACK CFI INIT 18f64 48 .cfa: sp 0 + .ra: lr
STACK CFI 18f68 .cfa: sp 8 + .ra: .cfa -4 + ^ r11: .cfa -8 + ^
STACK CFI 18f6c .cfa: r11 4 +
STACK CFI INIT 14150 2c .cfa: sp 0 + .ra: lr
STACK CFI 14154 .cfa: sp 8 + .ra: .cfa -4 + ^ r11: .cfa -8 + ^
STACK CFI 14158 .cfa: r11 4 +
STACK CFI INIT 15dfc 68 .cfa: sp 0 + .ra: lr
STACK CFI 15e00 .cfa: sp 12 + .ra: .cfa -4 + ^ r11: .cfa -8 + ^ r4: .cfa -12 + ^
STACK CFI 15e04 .cfa: r11 4 +
STACK CFI INIT 1417c 70 .cfa: sp 0 + .ra: lr
STACK CFI 14180 .cfa: sp 8 + .ra: .cfa -4 + ^ r11: .cfa -8 + ^
STACK CFI 14184 .cfa: r11 4 +
STACK CFI INIT 143c8 28 .cfa: sp 0 + .ra: lr
STACK CFI 143cc .cfa: sp 4 + r11: .cfa -4 + ^
STACK CFI 143d0 .cfa: r11 4 +
STACK CFI INIT 2a2cc 118 .cfa: sp 0 + .ra: lr
STACK CFI 2a2d0 .cfa: sp 16 + .ra: .cfa -4 + ^ r11: .cfa -8 + ^ r4: .cfa -16 + ^ r5: .cfa -12 + ^
STACK CFI 2a2d4 .cfa: r11 4 +
STACK CFI INIT 2a3e4 e4 .cfa: sp 0 + .ra: lr
STACK CFI 2a3e8 .cfa: sp 8 + .ra: .cfa -4 + ^ r11: .cfa -8 + ^
STACK CFI 2a3ec .cfa: r11 4 +
STACK CFI INIT 2a4c8 8 .cfa: sp 0 + .ra: lr
STACK CFI INIT 2a4d0 8 .cfa: sp 0 + .ra: lr
STACK CFI INIT 2a4d8 8 .cfa: sp 0 + .ra: lr
STACK CFI INIT 2a4e0 30 .cfa: sp 0 + .ra: lr
STACK CFI 2a4e4 .cfa: sp 8 + .ra: .cfa -4 + ^ r11: .cfa -8 + ^
STACK CFI 2a4e8 .cfa: r11 4 +
STACK CFI INIT 2a510 8 .cfa: sp 0 + .ra: lr
STACK CFI INIT 2a518 8 .cfa: sp 0 + .ra: lr
STACK CFI INIT 2a520 8 .cfa: sp 0 + .ra: lr
STACK CFI INIT 2a528 e0 .cfa: sp 0 + .ra: lr
STACK CFI 2a52c .cfa: sp 20 + .ra: .cfa -4 + ^ r11: .cfa -8 + ^ r4: .cfa -20 + ^ r5: .cfa -16 + ^ r6: .cfa -12 + ^
STACK CFI 2a530 .cfa: r11 4 +
STACK CFI INIT 2a608 d8 .cfa: sp 0 + .ra: lr
STACK CFI 2a60c .cfa: sp 8 + .ra: .cfa -4 + ^ r11: .cfa -8 + ^
STACK CFI 2a610 .cfa: r11 4 +
STACK CFI INIT 2a6e0 148 .cfa: sp 0 + .ra: lr
STACK CFI 2a6e4 .cfa: sp 20 + .ra: .cfa -4 + ^ r11: .cfa -8 + ^ r4: .cfa -20 + ^ r5: .cfa -16 + ^ r6: .cfa -12 + ^
STACK CFI 2a6e8 .cfa: r11 4 +
STACK CFI INIT 2a828 15c .cfa: sp 0 + .ra: lr
STACK CFI 2a82c .cfa: sp 20 + .ra: .cfa -4 + ^ r11: .cfa -8 + ^ r4: .cfa -20 + ^ r5: .cfa -16 + ^ r6: .cfa -12 + ^
STACK CFI 2a830 .cfa: r11 4 +
STACK CFI INIT 2a984 8 .cfa: sp 0 + .ra: lr
STACK CFI INIT 2a98c 1cc .cfa: sp 0 + .ra: lr
STACK CFI 2a990 .cfa: sp 8 + .ra: .cfa -4 + ^ r11: .cfa -8 + ^
STACK CFI 2a994 .cfa: r11 4 +
STACK CFI INIT 2ab58 8 .cfa: sp 0 + .ra: lr
STACK CFI INIT 2ab60 44 .cfa: sp 0 + .ra: lr
STACK CFI 2ab64 .cfa: sp 8 + .ra: .cfa -4 + ^ r11: .cfa -8 + ^
STACK CFI 2ab68 .cfa: r11 4 +
STACK CFI INIT 2aba4 8 .cfa: sp 0 + .ra: lr
STACK CFI INIT 2abac 34 .cfa: sp 0 + .ra: lr
STACK CFI 2abb0 .cfa: sp 8 + .ra: .cfa -4 + ^ r11: .cfa -8 + ^
STACK CFI 2abb4 .cfa: r11 4 +
STACK CFI INIT 2abe0 ac .cfa: sp 0 + .ra: lr
STACK CFI 2abe4 .cfa: sp 8 + .ra: .cfa -4 + ^ r11: .cfa -8 + ^
STACK CFI 2abe8 .cfa: r11 4 +
STACK CFI INIT 2ac8c 24 .cfa: sp 0 + .ra: lr
STACK CFI 2ac90 .cfa: sp 4 + r11: .cfa -4 + ^
STACK CFI 2ac94 .cfa: r11 4 +
STACK CFI INIT 2acb0 1f0 .cfa: sp 0 + .ra: lr
STACK CFI 2acb4 .cfa: sp 12 + .ra: .cfa -4 + ^ r11: .cfa -8 + ^ r4: .cfa -12 + ^
STACK CFI 2acb8 .cfa: r11 4 +
STACK CFI INIT 2aea0 10c .cfa: sp 0 + .ra: lr
STACK CFI 2aea4 .cfa: sp 20 + .ra: .cfa -4 + ^ r11: .cfa -8 + ^ r4: .cfa -20 + ^ r5: .cfa -16 + ^ r6: .cfa -12 + ^
STACK CFI 2aea8 .cfa: r11 4 +
STACK CFI INIT 2afac 118 .cfa: sp 0 + .ra: lr
STACK CFI 2afb0 .cfa: sp 20 + .ra: .cfa -4 + ^ r11: .cfa -8 + ^ r4: .cfa -20 + ^ r5: .cfa -16 + ^ r6: .cfa -12 + ^
STACK CFI 2afb4 .cfa: r11 4 +
STACK CFI INIT 2b0c4 374 .cfa: sp 0 + .ra: lr
STACK CFI 2b0c8 .cfa: sp 12 + .ra: .cfa -4 + ^ r11: .cfa -8 + ^ r4: .cfa -12 + ^
STACK CFI 2b0cc .cfa: r11 4 +
STACK CFI INIT 145d0 40 .cfa: sp 0 + .ra: lr
STACK CFI 145d4 .cfa: sp 8 + .ra: .cfa -4 + ^ r11: .cfa -8 + ^
STACK CFI 145d8 .cfa: r11 4 +
STACK CFI INIT 14610 7c .cfa: sp 0 + .ra: lr
STACK CFI 14614 .cfa: sp 8 + .ra: .cfa -4 + ^ r11: .cfa -8 + ^
STACK CFI 14618 .cfa: r11 4 +
STACK CFI INIT 146b4 34 .cfa: sp 0 + .ra: lr
STACK CFI 146b8 .cfa: sp 4 + r11: .cfa -4 + ^
STACK CFI 146bc .cfa: r11 4 +
STACK CFI INIT 2b530 34 .cfa: sp 0 + .ra: lr
STACK CFI 2b534 .cfa: sp 4 + r11: .cfa -4 + ^
STACK CFI 2b538 .cfa: r11 4 +
STACK CFI INIT 2b564 40 .cfa: sp 0 + .ra: lr
STACK CFI 2b568 .cfa: sp 8 + .ra: .cfa -4 + ^ r11: .cfa -8 + ^
STACK CFI 2b56c .cfa: r11 4 +
STACK CFI INIT 2b5a4 54 .cfa: sp 0 + .ra: lr
STACK CFI 2b5a8 .cfa: sp 8 + .ra: .cfa -4 + ^ r11: .cfa -8 + ^
STACK CFI 2b5ac .cfa: r11 4 +
STACK CFI INIT 14c14 88 .cfa: sp 0 + .ra: lr
STACK CFI 14c18 .cfa: sp 8 + .ra: .cfa -4 + ^ r11: .cfa -8 + ^
STACK CFI 14c1c .cfa: r11 4 +
STACK CFI INIT 2b5f8 34 .cfa: sp 0 + .ra: lr
STACK CFI 2b5fc .cfa: sp 12 + .ra: .cfa -4 + ^ r11: .cfa -8 + ^ r4: .cfa -12 + ^
STACK CFI 2b600 .cfa: r11 4 +
STACK CFI INIT 15220 48 .cfa: sp 0 + .ra: lr
STACK CFI 15224 .cfa: sp 8 + .ra: .cfa -4 + ^ r11: .cfa -8 + ^
STACK CFI 15228 .cfa: r11 4 +
STACK CFI INIT 2b438 dc .cfa: sp 0 + .ra: lr
STACK CFI 2b43c .cfa: sp 8 + .ra: .cfa -4 + ^ r11: .cfa -8 + ^
STACK CFI 2b440 .cfa: r11 4 +
STACK CFI INIT 2b514 1c .cfa: sp 0 + .ra: lr
STACK CFI 2b518 .cfa: sp 8 + .ra: .cfa -4 + ^ r11: .cfa -8 + ^
STACK CFI 2b51c .cfa: r11 4 +
STACK CFI INIT ffb4 14 .cfa: sp 0 + .ra: lr
STACK CFI ffb8 .cfa: sp 4 + r11: .cfa -4 + ^
STACK CFI ffbc .cfa: r11 4 +
STACK CFI INIT 13bac 40 .cfa: sp 0 + .ra: lr
STACK CFI 13bb0 .cfa: sp 4 + r11: .cfa -4 + ^
STACK CFI 13bb4 .cfa: r11 4 +
STACK CFI INIT 10068 40 .cfa: sp 0 + .ra: lr
STACK CFI 1006c .cfa: sp 4 + r11: .cfa -4 + ^
STACK CFI 10070 .cfa: r11 4 +
STACK CFI INIT 100a8 6c .cfa: sp 0 + .ra: lr
STACK CFI 100ac .cfa: sp 16 + .ra: .cfa -4 + ^ r11: .cfa -8 + ^ r4: .cfa -16 + ^ r5: .cfa -12 + ^
STACK CFI 100b0 .cfa: r11 4 +
STACK CFI INIT 10114 6c .cfa: sp 0 + .ra: lr
STACK CFI 10118 .cfa: sp 16 + .ra: .cfa -4 + ^ r11: .cfa -8 + ^ r4: .cfa -16 + ^ r5: .cfa -12 + ^
STACK CFI 1011c .cfa: r11 4 +
STACK CFI INIT 10180 54 .cfa: sp 0 + .ra: lr
STACK CFI 10184 .cfa: sp 8 + .ra: .cfa -4 + ^ r11: .cfa -8 + ^
STACK CFI 10188 .cfa: r11 4 +
STACK CFI INIT 101d4 30 .cfa: sp 0 + .ra: lr
STACK CFI 101d8 .cfa: sp 8 + .ra: .cfa -4 + ^ r11: .cfa -8 + ^
STACK CFI 101dc .cfa: r11 4 +
STACK CFI INIT 10230 84 .cfa: sp 0 + .ra: lr
STACK CFI 10234 .cfa: sp 8 + .ra: .cfa -4 + ^ r11: .cfa -8 + ^
STACK CFI 10238 .cfa: r11 4 +
STACK CFI INIT 102e4 3c .cfa: sp 0 + .ra: lr
STACK CFI 102e8 .cfa: sp 8 + .ra: .cfa -4 + ^ r11: .cfa -8 + ^
STACK CFI 102ec .cfa: r11 4 +
STACK CFI INIT 18ae8 3c .cfa: sp 0 + .ra: lr
STACK CFI 18aec .cfa: sp 4 + r11: .cfa -4 + ^
STACK CFI 18af0 .cfa: r11 4 +
STACK CFI INIT 103f4 40 .cfa: sp 0 + .ra: lr
STACK CFI 103f8 .cfa: sp 8 + .ra: .cfa -4 + ^ r11: .cfa -8 + ^
STACK CFI 103fc .cfa: r11 4 +
STACK CFI INIT 10434 54 .cfa: sp 0 + .ra: lr
STACK CFI 10438 .cfa: sp 8 + .ra: .cfa -4 + ^ r11: .cfa -8 + ^
STACK CFI 1043c .cfa: r11 4 +
STACK CFI INIT 2bf6c 34 .cfa: sp 0 + .ra: lr
STACK CFI 2bf70 .cfa: sp 8 + .ra: .cfa -4 + ^ r11: .cfa -8 + ^
STACK CFI 2bf74 .cfa: r11 4 +
STACK CFI INIT 13fb8 24 .cfa: sp 0 + .ra: lr
STACK CFI 13fbc .cfa: sp 4 + r11: .cfa -4 + ^
STACK CFI 13fc0 .cfa: r11 4 +
STACK CFI INIT 13ff4 34 .cfa: sp 0 + .ra: lr
STACK CFI 13ff8 .cfa: sp 4 + r11: .cfa -4 + ^
STACK CFI 13ffc .cfa: r11 4 +
STACK CFI INIT 14028 44 .cfa: sp 0 + .ra: lr
STACK CFI 1402c .cfa: sp 8 + .ra: .cfa -4 + ^ r11: .cfa -8 + ^
STACK CFI 14030 .cfa: r11 4 +
STACK CFI INIT 1406c 30 .cfa: sp 0 + .ra: lr
STACK CFI 14070 .cfa: sp 8 + .ra: .cfa -4 + ^ r11: .cfa -8 + ^
STACK CFI 14074 .cfa: r11 4 +
STACK CFI INIT 1409c b4 .cfa: sp 0 + .ra: lr
STACK CFI 140a0 .cfa: sp 24 + .ra: .cfa -4 + ^ r11: .cfa -8 + ^ r3: .cfa -24 + ^ r4: .cfa -20 + ^ r5: .cfa -16 + ^ r6: .cfa -12 + ^
STACK CFI 140a4 .cfa: r11 4 +
STACK CFI INIT 2bfa0 2c .cfa: sp 0 + .ra: lr
STACK CFI 2bfa4 .cfa: sp 8 + .ra: .cfa -4 + ^ r11: .cfa -8 + ^
STACK CFI 2bfa8 .cfa: r11 4 +
STACK CFI INIT 104d4 a8 .cfa: sp 0 + .ra: lr
STACK CFI 104d8 .cfa: sp 16 + .ra: .cfa -4 + ^ r11: .cfa -8 + ^ r4: .cfa -16 + ^ r5: .cfa -12 + ^
STACK CFI 104dc .cfa: r11 4 +
STACK CFI INIT 1057c 54 .cfa: sp 0 + .ra: lr
STACK CFI 10580 .cfa: sp 12 + .ra: .cfa -4 + ^ r11: .cfa -8 + ^ r4: .cfa -12 + ^
STACK CFI 10584 .cfa: r11 4 +
STACK CFI INIT 105d0 50 .cfa: sp 0 + .ra: lr
STACK CFI 105d4 .cfa: sp 8 + .ra: .cfa -4 + ^ r11: .cfa -8 + ^
STACK CFI 105d8 .cfa: r11 4 +
STACK CFI INIT 10620 e8 .cfa: sp 0 + .ra: lr
STACK CFI 10624 .cfa: sp 12 + .ra: .cfa -4 + ^ r11: .cfa -8 + ^ r4: .cfa -12 + ^
STACK CFI 10628 .cfa: r11 4 +
STACK CFI INIT 10708 48 .cfa: sp 0 + .ra: lr
STACK CFI 1070c .cfa: sp 8 + .ra: .cfa -4 + ^ r11: .cfa -8 + ^
STACK CFI 10710 .cfa: r11 4 +
STACK CFI INIT 10750 40 .cfa: sp 0 + .ra: lr
STACK CFI 10754 .cfa: sp 8 + .ra: .cfa -4 + ^ r11: .cfa -8 + ^
STACK CFI 10758 .cfa: r11 4 +
STACK CFI INIT 10790 7c .cfa: sp 0 + .ra: lr
STACK CFI 10794 .cfa: sp 12 + .ra: .cfa -4 + ^ r11: .cfa -8 + ^ r4: .cfa -12 + ^
STACK CFI 10798 .cfa: r11 4 +
STACK CFI INIT 1080c 60 .cfa: sp 0 + .ra: lr
STACK CFI 10810 .cfa: sp 8 + .ra: .cfa -4 + ^ r11: .cfa -8 + ^
STACK CFI 10814 .cfa: r11 4 +
STACK CFI INIT 1086c 28 .cfa: sp 0 + .ra: lr
STACK CFI 10870 .cfa: sp 8 + .ra: .cfa -4 + ^ r11: .cfa -8 + ^
STACK CFI 10874 .cfa: r11 4 +
STACK CFI INIT 2b62c 10c .cfa: sp 0 + .ra: lr
STACK CFI 2b630 .cfa: sp 16 + .ra: .cfa -4 + ^ r11: .cfa -8 + ^ r4: .cfa -16 + ^ r5: .cfa -12 + ^
STACK CFI 2b634 .cfa: r11 4 +
STACK CFI INIT 2b738 b4 .cfa: sp 0 + .ra: lr
STACK CFI 2b73c .cfa: sp 8 + .ra: .cfa -4 + ^ r11: .cfa -8 + ^
STACK CFI 2b740 .cfa: r11 4 +
STACK CFI INIT 2b7ec 8 .cfa: sp 0 + .ra: lr
STACK CFI INIT 2b7f4 8 .cfa: sp 0 + .ra: lr
STACK CFI INIT 2b7fc 30 .cfa: sp 0 + .ra: lr
STACK CFI 2b800 .cfa: sp 8 + .ra: .cfa -4 + ^ r11: .cfa -8 + ^
STACK CFI 2b804 .cfa: r11 4 +
STACK CFI INIT 2b82c 8 .cfa: sp 0 + .ra: lr
STACK CFI INIT 2b834 8 .cfa: sp 0 + .ra: lr
STACK CFI INIT 2b83c 74 .cfa: sp 0 + .ra: lr
STACK CFI 2b840 .cfa: sp 12 + .ra: .cfa -4 + ^ r11: .cfa -8 + ^ r4: .cfa -12 + ^
STACK CFI 2b844 .cfa: r11 4 +
STACK CFI INIT 2b8b0 80 .cfa: sp 0 + .ra: lr
STACK CFI 2b8b4 .cfa: sp 8 + .ra: .cfa -4 + ^ r11: .cfa -8 + ^
STACK CFI 2b8b8 .cfa: r11 4 +
STACK CFI INIT 2b930 194 .cfa: sp 0 + .ra: lr
STACK CFI 2b934 .cfa: sp 8 + .ra: .cfa -4 + ^ r11: .cfa -8 + ^
STACK CFI 2b938 .cfa: r11 4 +
STACK CFI INIT 2bac4 8 .cfa: sp 0 + .ra: lr
STACK CFI INIT 2bacc 1d4 .cfa: sp 0 + .ra: lr
STACK CFI 2bad0 .cfa: sp 12 + .ra: .cfa -4 + ^ r11: .cfa -8 + ^ r4: .cfa -12 + ^
STACK CFI 2bad4 .cfa: r11 4 +
STACK CFI INIT 2bca0 50 .cfa: sp 0 + .ra: lr
STACK CFI 2bca4 .cfa: sp 8 + .ra: .cfa -4 + ^ r11: .cfa -8 + ^
STACK CFI 2bca8 .cfa: r11 4 +
STACK CFI INIT 2bcf0 24 .cfa: sp 0 + .ra: lr
STACK CFI 2bcf4 .cfa: sp 4 + r11: .cfa -4 + ^
STACK CFI 2bcf8 .cfa: r11 4 +
STACK CFI INIT 2bd14 60 .cfa: sp 0 + .ra: lr
STACK CFI 2bd18 .cfa: sp 12 + .ra: .cfa -4 + ^ r11: .cfa -8 + ^ r4: .cfa -12 + ^
STACK CFI 2bd1c .cfa: r11 4 +
STACK CFI INIT 2bd74 60 .cfa: sp 0 + .ra: lr
STACK CFI 2bd78 .cfa: sp 12 + .ra: .cfa -4 + ^ r11: .cfa -8 + ^ r4: .cfa -12 + ^
STACK CFI 2bd7c .cfa: r11 4 +
STACK CFI INIT 2bdd4 cc .cfa: sp 0 + .ra: lr
STACK CFI 2bdd8 .cfa: sp 20 + .ra: .cfa -4 + ^ r11: .cfa -8 + ^ r4: .cfa -20 + ^ r5: .cfa -16 + ^ r6: .cfa -12 + ^
STACK CFI 2bddc .cfa: r11 4 +
STACK CFI INIT 2bfcc 54 .cfa: sp 0 + .ra: lr
STACK CFI 2bfd0 .cfa: sp 8 + .ra: .cfa -4 + ^ r11: .cfa -8 + ^
STACK CFI 2bfd4 .cfa: r11 4 +
STACK CFI INIT 1094c 34 .cfa: sp 0 + .ra: lr
STACK CFI 10950 .cfa: sp 4 + r11: .cfa -4 + ^
STACK CFI 10954 .cfa: r11 4 +
STACK CFI INIT 145d0 40 .cfa: sp 0 + .ra: lr
STACK CFI 145d4 .cfa: sp 8 + .ra: .cfa -4 + ^ r11: .cfa -8 + ^
STACK CFI 145d8 .cfa: r11 4 +
STACK CFI INIT 14610 7c .cfa: sp 0 + .ra: lr
STACK CFI 14614 .cfa: sp 8 + .ra: .cfa -4 + ^ r11: .cfa -8 + ^
STACK CFI 14618 .cfa: r11 4 +
STACK CFI INIT 146b4 34 .cfa: sp 0 + .ra: lr
STACK CFI 146b8 .cfa: sp 4 + r11: .cfa -4 + ^
STACK CFI 146bc .cfa: r11 4 +
STACK CFI INIT 2c020 34 .cfa: sp 0 + .ra: lr
STACK CFI 2c024 .cfa: sp 4 + r11: .cfa -4 + ^
STACK CFI 2c028 .cfa: r11 4 +
STACK CFI INIT 2c054 40 .cfa: sp 0 + .ra: lr
STACK CFI 2c058 .cfa: sp 8 + .ra: .cfa -4 + ^ r11: .cfa -8 + ^
STACK CFI 2c05c .cfa: r11 4 +
STACK CFI INIT 2c094 3c .cfa: sp 0 + .ra: lr
STACK CFI 2c098 .cfa: sp 8 + .ra: .cfa -4 + ^ r11: .cfa -8 + ^
STACK CFI 2c09c .cfa: r11 4 +
STACK CFI INIT 2c0d0 54 .cfa: sp 0 + .ra: lr
STACK CFI 2c0d4 .cfa: sp 8 + .ra: .cfa -4 + ^ r11: .cfa -8 + ^
STACK CFI 2c0d8 .cfa: r11 4 +
STACK CFI INIT 14c14 88 .cfa: sp 0 + .ra: lr
STACK CFI 14c18 .cfa: sp 8 + .ra: .cfa -4 + ^ r11: .cfa -8 + ^
STACK CFI 14c1c .cfa: r11 4 +
STACK CFI INIT 2c124 34 .cfa: sp 0 + .ra: lr
STACK CFI 2c128 .cfa: sp 12 + .ra: .cfa -4 + ^ r11: .cfa -8 + ^ r4: .cfa -12 + ^
STACK CFI 2c12c .cfa: r11 4 +
STACK CFI INIT 2c158 38 .cfa: sp 0 + .ra: lr
STACK CFI 2c15c .cfa: sp 4 + r11: .cfa -4 + ^
STACK CFI 2c160 .cfa: r11 4 +
STACK CFI INIT 15220 48 .cfa: sp 0 + .ra: lr
STACK CFI 15224 .cfa: sp 8 + .ra: .cfa -4 + ^ r11: .cfa -8 + ^
STACK CFI 15228 .cfa: r11 4 +
STACK CFI INIT 2bea0 b0 .cfa: sp 0 + .ra: lr
STACK CFI 2bea4 .cfa: sp 8 + .ra: .cfa -4 + ^ r11: .cfa -8 + ^
STACK CFI 2bea8 .cfa: r11 4 +
STACK CFI INIT 2bf50 1c .cfa: sp 0 + .ra: lr
STACK CFI 2bf54 .cfa: sp 8 + .ra: .cfa -4 + ^ r11: .cfa -8 + ^
STACK CFI 2bf58 .cfa: r11 4 +
STACK CFI INIT ffb4 14 .cfa: sp 0 + .ra: lr
STACK CFI ffb8 .cfa: sp 4 + r11: .cfa -4 + ^
STACK CFI ffbc .cfa: r11 4 +
STACK CFI INIT 13bac 40 .cfa: sp 0 + .ra: lr
STACK CFI 13bb0 .cfa: sp 4 + r11: .cfa -4 + ^
STACK CFI 13bb4 .cfa: r11 4 +
STACK CFI INIT 10068 40 .cfa: sp 0 + .ra: lr
STACK CFI 1006c .cfa: sp 4 + r11: .cfa -4 + ^
STACK CFI 10070 .cfa: r11 4 +
STACK CFI INIT 100a8 6c .cfa: sp 0 + .ra: lr
STACK CFI 100ac .cfa: sp 16 + .ra: .cfa -4 + ^ r11: .cfa -8 + ^ r4: .cfa -16 + ^ r5: .cfa -12 + ^
STACK CFI 100b0 .cfa: r11 4 +
STACK CFI INIT 10114 6c .cfa: sp 0 + .ra: lr
STACK CFI 10118 .cfa: sp 16 + .ra: .cfa -4 + ^ r11: .cfa -8 + ^ r4: .cfa -16 + ^ r5: .cfa -12 + ^
STACK CFI 1011c .cfa: r11 4 +
STACK CFI INIT 10180 54 .cfa: sp 0 + .ra: lr
STACK CFI 10184 .cfa: sp 8 + .ra: .cfa -4 + ^ r11: .cfa -8 + ^
STACK CFI 10188 .cfa: r11 4 +
STACK CFI INIT 101d4 30 .cfa: sp 0 + .ra: lr
STACK CFI 101d8 .cfa: sp 8 + .ra: .cfa -4 + ^ r11: .cfa -8 + ^
STACK CFI 101dc .cfa: r11 4 +
STACK CFI INIT 10230 84 .cfa: sp 0 + .ra: lr
STACK CFI 10234 .cfa: sp 8 + .ra: .cfa -4 + ^ r11: .cfa -8 + ^
STACK CFI 10238 .cfa: r11 4 +
STACK CFI INIT 102e4 3c .cfa: sp 0 + .ra: lr
STACK CFI 102e8 .cfa: sp 8 + .ra: .cfa -4 + ^ r11: .cfa -8 + ^
STACK CFI 102ec .cfa: r11 4 +
STACK CFI INIT 103f4 40 .cfa: sp 0 + .ra: lr
STACK CFI 103f8 .cfa: sp 8 + .ra: .cfa -4 + ^ r11: .cfa -8 + ^
STACK CFI 103fc .cfa: r11 4 +
STACK CFI INIT 10434 54 .cfa: sp 0 + .ra: lr
STACK CFI 10438 .cfa: sp 8 + .ra: .cfa -4 + ^ r11: .cfa -8 + ^
STACK CFI 1043c .cfa: r11 4 +
STACK CFI INIT 13cb8 40 .cfa: sp 0 + .ra: lr
STACK CFI 13cbc .cfa: sp 8 + .ra: .cfa -4 + ^ r11: .cfa -8 + ^
STACK CFI 13cc0 .cfa: r11 4 +
STACK CFI INIT 13fb8 24 .cfa: sp 0 + .ra: lr
STACK CFI 13fbc .cfa: sp 4 + r11: .cfa -4 + ^
STACK CFI 13fc0 .cfa: r11 4 +
STACK CFI INIT 104d4 a8 .cfa: sp 0 + .ra: lr
STACK CFI 104d8 .cfa: sp 16 + .ra: .cfa -4 + ^ r11: .cfa -8 + ^ r4: .cfa -16 + ^ r5: .cfa -12 + ^
STACK CFI 104dc .cfa: r11 4 +
STACK CFI INIT 1057c 54 .cfa: sp 0 + .ra: lr
STACK CFI 10580 .cfa: sp 12 + .ra: .cfa -4 + ^ r11: .cfa -8 + ^ r4: .cfa -12 + ^
STACK CFI 10584 .cfa: r11 4 +
STACK CFI INIT 105d0 50 .cfa: sp 0 + .ra: lr
STACK CFI 105d4 .cfa: sp 8 + .ra: .cfa -4 + ^ r11: .cfa -8 + ^
STACK CFI 105d8 .cfa: r11 4 +
STACK CFI INIT 10620 e8 .cfa: sp 0 + .ra: lr
STACK CFI 10624 .cfa: sp 12 + .ra: .cfa -4 + ^ r11: .cfa -8 + ^ r4: .cfa -12 + ^
STACK CFI 10628 .cfa: r11 4 +
STACK CFI INIT 10708 48 .cfa: sp 0 + .ra: lr
STACK CFI 1070c .cfa: sp 8 + .ra: .cfa -4 + ^ r11: .cfa -8 + ^
STACK CFI 10710 .cfa: r11 4 +
STACK CFI INIT 10750 40 .cfa: sp 0 + .ra: lr
STACK CFI 10754 .cfa: sp 8 + .ra: .cfa -4 + ^ r11: .cfa -8 + ^
STACK CFI 10758 .cfa: r11 4 +
STACK CFI INIT 10790 7c .cfa: sp 0 + .ra: lr
STACK CFI 10794 .cfa: sp 12 + .ra: .cfa -4 + ^ r11: .cfa -8 + ^ r4: .cfa -12 + ^
STACK CFI 10798 .cfa: r11 4 +
STACK CFI INIT 1080c 60 .cfa: sp 0 + .ra: lr
STACK CFI 10810 .cfa: sp 8 + .ra: .cfa -4 + ^ r11: .cfa -8 + ^
STACK CFI 10814 .cfa: r11 4 +
STACK CFI INIT 1086c 28 .cfa: sp 0 + .ra: lr
STACK CFI 10870 .cfa: sp 8 + .ra: .cfa -4 + ^ r11: .cfa -8 + ^
STACK CFI 10874 .cfa: r11 4 +
STACK CFI INIT 15ca0 34 .cfa: sp 0 + .ra: lr
STACK CFI 15ca4 .cfa: sp 4 + r11: .cfa -4 + ^
STACK CFI 15ca8 .cfa: r11 4 +
STACK CFI INIT 15cd4 44 .cfa: sp 0 + .ra: lr
STACK CFI 15cd8 .cfa: sp 8 + .ra: .cfa -4 + ^ r11: .cfa -8 + ^
STACK CFI 15cdc .cfa: r11 4 +
STACK CFI INIT 15d18 30 .cfa: sp 0 + .ra: lr
STACK CFI 15d1c .cfa: sp 8 + .ra: .cfa -4 + ^ r11: .cfa -8 + ^
STACK CFI 15d20 .cfa: r11 4 +
STACK CFI INIT 15d48 b4 .cfa: sp 0 + .ra: lr
STACK CFI 15d4c .cfa: sp 24 + .ra: .cfa -4 + ^ r11: .cfa -8 + ^ r3: .cfa -24 + ^ r4: .cfa -20 + ^ r5: .cfa -16 + ^ r6: .cfa -12 + ^
STACK CFI 15d50 .cfa: r11 4 +
STACK CFI INIT 13ff4 34 .cfa: sp 0 + .ra: lr
STACK CFI 13ff8 .cfa: sp 4 + r11: .cfa -4 + ^
STACK CFI 13ffc .cfa: r11 4 +
STACK CFI INIT 14028 44 .cfa: sp 0 + .ra: lr
STACK CFI 1402c .cfa: sp 8 + .ra: .cfa -4 + ^ r11: .cfa -8 + ^
STACK CFI 14030 .cfa: r11 4 +
STACK CFI INIT 1406c 30 .cfa: sp 0 + .ra: lr
STACK CFI 14070 .cfa: sp 8 + .ra: .cfa -4 + ^ r11: .cfa -8 + ^
STACK CFI 14074 .cfa: r11 4 +
STACK CFI INIT 1409c b4 .cfa: sp 0 + .ra: lr
STACK CFI 140a0 .cfa: sp 24 + .ra: .cfa -4 + ^ r11: .cfa -8 + ^ r3: .cfa -24 + ^ r4: .cfa -20 + ^ r5: .cfa -16 + ^ r6: .cfa -12 + ^
STACK CFI 140a4 .cfa: r11 4 +
STACK CFI INIT 2c190 118 .cfa: sp 0 + .ra: lr
STACK CFI 2c194 .cfa: sp 16 + .ra: .cfa -4 + ^ r11: .cfa -8 + ^ r4: .cfa -16 + ^ r5: .cfa -12 + ^
STACK CFI 2c198 .cfa: r11 4 +
STACK CFI INIT 2c2a8 e4 .cfa: sp 0 + .ra: lr
STACK CFI 2c2ac .cfa: sp 8 + .ra: .cfa -4 + ^ r11: .cfa -8 + ^
STACK CFI 2c2b0 .cfa: r11 4 +
STACK CFI INIT 2c38c 8 .cfa: sp 0 + .ra: lr
STACK CFI INIT 2c394 8 .cfa: sp 0 + .ra: lr
STACK CFI INIT 2c39c 8 .cfa: sp 0 + .ra: lr
STACK CFI INIT 2c3a4 30 .cfa: sp 0 + .ra: lr
STACK CFI 2c3a8 .cfa: sp 8 + .ra: .cfa -4 + ^ r11: .cfa -8 + ^
STACK CFI 2c3ac .cfa: r11 4 +
STACK CFI INIT 2c3d4 8 .cfa: sp 0 + .ra: lr
STACK CFI INIT 2c3dc 8 .cfa: sp 0 + .ra: lr
STACK CFI INIT 2c3e4 8 .cfa: sp 0 + .ra: lr
STACK CFI INIT 2c3ec 48 .cfa: sp 0 + .ra: lr
STACK CFI 2c3f0 .cfa: sp 8 + .ra: .cfa -4 + ^ r11: .cfa -8 + ^
STACK CFI 2c3f4 .cfa: r11 4 +
STACK CFI INIT 2c434 648 .cfa: sp 0 + .ra: lr
STACK CFI 2c438 .cfa: sp 12 + .ra: .cfa -4 + ^ r11: .cfa -8 + ^ r4: .cfa -12 + ^
STACK CFI 2c43c .cfa: r11 4 +
STACK CFI INIT 2ca7c 2c .cfa: sp 0 + .ra: lr
STACK CFI 2ca80 .cfa: sp 8 + .ra: .cfa -4 + ^ r11: .cfa -8 + ^
STACK CFI 2ca84 .cfa: r11 4 +
STACK CFI INIT 2caa8 52c .cfa: sp 0 + .ra: lr
STACK CFI 2caac .cfa: sp 8 + .ra: .cfa -4 + ^ r11: .cfa -8 + ^
STACK CFI 2cab0 .cfa: r11 4 +
STACK CFI INIT 2cfd4 8 .cfa: sp 0 + .ra: lr
STACK CFI INIT 2cfdc 3d8 .cfa: sp 0 + .ra: lr
STACK CFI 2cfe0 .cfa: sp 8 + .ra: .cfa -4 + ^ r11: .cfa -8 + ^
STACK CFI 2cfe4 .cfa: r11 4 +
STACK CFI INIT 2d3b4 8 .cfa: sp 0 + .ra: lr
STACK CFI INIT 2d3bc 398 .cfa: sp 0 + .ra: lr
STACK CFI 2d3c0 .cfa: sp 12 + .ra: .cfa -4 + ^ r11: .cfa -8 + ^ r4: .cfa -12 + ^
STACK CFI 2d3c4 .cfa: r11 4 +
STACK CFI INIT 2d754 124 .cfa: sp 0 + .ra: lr
STACK CFI 2d758 .cfa: sp 8 + .ra: .cfa -4 + ^ r11: .cfa -8 + ^
STACK CFI 2d75c .cfa: r11 4 +
STACK CFI INIT 2d878 24 .cfa: sp 0 + .ra: lr
STACK CFI 2d87c .cfa: sp 4 + r11: .cfa -4 + ^
STACK CFI 2d880 .cfa: r11 4 +
STACK CFI INIT 2d89c dd8 .cfa: sp 0 + .ra: lr
STACK CFI 2d8a0 .cfa: sp 12 + .ra: .cfa -4 + ^ r11: .cfa -8 + ^ r4: .cfa -12 + ^
STACK CFI 2d8a4 .cfa: r11 4 +
STACK CFI INIT 2e674 34c .cfa: sp 0 + .ra: lr
STACK CFI 2e678 .cfa: sp 20 + .ra: .cfa -4 + ^ r11: .cfa -8 + ^ r4: .cfa -20 + ^ r5: .cfa -16 + ^ r6: .cfa -12 + ^
STACK CFI 2e67c .cfa: r11 4 +
STACK CFI INIT 1094c 34 .cfa: sp 0 + .ra: lr
STACK CFI 10950 .cfa: sp 4 + r11: .cfa -4 + ^
STACK CFI 10954 .cfa: r11 4 +
STACK CFI INIT 145d0 40 .cfa: sp 0 + .ra: lr
STACK CFI 145d4 .cfa: sp 8 + .ra: .cfa -4 + ^ r11: .cfa -8 + ^
STACK CFI 145d8 .cfa: r11 4 +
STACK CFI INIT 14610 7c .cfa: sp 0 + .ra: lr
STACK CFI 14614 .cfa: sp 8 + .ra: .cfa -4 + ^ r11: .cfa -8 + ^
STACK CFI 14618 .cfa: r11 4 +
STACK CFI INIT 146b4 34 .cfa: sp 0 + .ra: lr
STACK CFI 146b8 .cfa: sp 4 + r11: .cfa -4 + ^
STACK CFI 146bc .cfa: r11 4 +
STACK CFI INIT 2ec18 34 .cfa: sp 0 + .ra: lr
STACK CFI 2ec1c .cfa: sp 4 + r11: .cfa -4 + ^
STACK CFI 2ec20 .cfa: r11 4 +
STACK CFI INIT 2ec4c 40 .cfa: sp 0 + .ra: lr
STACK CFI 2ec50 .cfa: sp 8 + .ra: .cfa -4 + ^ r11: .cfa -8 + ^
STACK CFI 2ec54 .cfa: r11 4 +
STACK CFI INIT 2ec8c 54 .cfa: sp 0 + .ra: lr
STACK CFI 2ec90 .cfa: sp 8 + .ra: .cfa -4 + ^ r11: .cfa -8 + ^
STACK CFI 2ec94 .cfa: r11 4 +
STACK CFI INIT 14c14 88 .cfa: sp 0 + .ra: lr
STACK CFI 14c18 .cfa: sp 8 + .ra: .cfa -4 + ^ r11: .cfa -8 + ^
STACK CFI 14c1c .cfa: r11 4 +
STACK CFI INIT 2ece0 34 .cfa: sp 0 + .ra: lr
STACK CFI 2ece4 .cfa: sp 12 + .ra: .cfa -4 + ^ r11: .cfa -8 + ^ r4: .cfa -12 + ^
STACK CFI 2ece8 .cfa: r11 4 +
STACK CFI INIT 15220 48 .cfa: sp 0 + .ra: lr
STACK CFI 15224 .cfa: sp 8 + .ra: .cfa -4 + ^ r11: .cfa -8 + ^
STACK CFI 15228 .cfa: r11 4 +
STACK CFI INIT 2e9c0 23c .cfa: sp 0 + .ra: lr
STACK CFI 2e9c4 .cfa: sp 8 + .ra: .cfa -4 + ^ r11: .cfa -8 + ^
STACK CFI 2e9c8 .cfa: r11 4 +
STACK CFI INIT 2ebfc 1c .cfa: sp 0 + .ra: lr
STACK CFI 2ec00 .cfa: sp 8 + .ra: .cfa -4 + ^ r11: .cfa -8 + ^
STACK CFI 2ec04 .cfa: r11 4 +
STACK CFI INIT ffb4 14 .cfa: sp 0 + .ra: lr
STACK CFI ffb8 .cfa: sp 4 + r11: .cfa -4 + ^
STACK CFI ffbc .cfa: r11 4 +
STACK CFI INIT 13b60 4c .cfa: sp 0 + .ra: lr
STACK CFI 13b64 .cfa: sp 8 + .ra: .cfa -4 + ^ r11: .cfa -8 + ^
STACK CFI 13b68 .cfa: r11 4 +
STACK CFI INIT 13bac 40 .cfa: sp 0 + .ra: lr
STACK CFI 13bb0 .cfa: sp 4 + r11: .cfa -4 + ^
STACK CFI 13bb4 .cfa: r11 4 +
STACK CFI INIT 10068 40 .cfa: sp 0 + .ra: lr
STACK CFI 1006c .cfa: sp 4 + r11: .cfa -4 + ^
STACK CFI 10070 .cfa: r11 4 +
STACK CFI INIT 100a8 6c .cfa: sp 0 + .ra: lr
STACK CFI 100ac .cfa: sp 16 + .ra: .cfa -4 + ^ r11: .cfa -8 + ^ r4: .cfa -16 + ^ r5: .cfa -12 + ^
STACK CFI 100b0 .cfa: r11 4 +
STACK CFI INIT 10114 6c .cfa: sp 0 + .ra: lr
STACK CFI 10118 .cfa: sp 16 + .ra: .cfa -4 + ^ r11: .cfa -8 + ^ r4: .cfa -16 + ^ r5: .cfa -12 + ^
STACK CFI 1011c .cfa: r11 4 +
STACK CFI INIT 10180 54 .cfa: sp 0 + .ra: lr
STACK CFI 10184 .cfa: sp 8 + .ra: .cfa -4 + ^ r11: .cfa -8 + ^
STACK CFI 10188 .cfa: r11 4 +
STACK CFI INIT 101d4 30 .cfa: sp 0 + .ra: lr
STACK CFI 101d8 .cfa: sp 8 + .ra: .cfa -4 + ^ r11: .cfa -8 + ^
STACK CFI 101dc .cfa: r11 4 +
STACK CFI INIT 10230 84 .cfa: sp 0 + .ra: lr
STACK CFI 10234 .cfa: sp 8 + .ra: .cfa -4 + ^ r11: .cfa -8 + ^
STACK CFI 10238 .cfa: r11 4 +
STACK CFI INIT 102e4 3c .cfa: sp 0 + .ra: lr
STACK CFI 102e8 .cfa: sp 8 + .ra: .cfa -4 + ^ r11: .cfa -8 + ^
STACK CFI 102ec .cfa: r11 4 +
STACK CFI INIT 103f4 40 .cfa: sp 0 + .ra: lr
STACK CFI 103f8 .cfa: sp 8 + .ra: .cfa -4 + ^ r11: .cfa -8 + ^
STACK CFI 103fc .cfa: r11 4 +
STACK CFI INIT 10434 54 .cfa: sp 0 + .ra: lr
STACK CFI 10438 .cfa: sp 8 + .ra: .cfa -4 + ^ r11: .cfa -8 + ^
STACK CFI 1043c .cfa: r11 4 +
STACK CFI INIT 13cb8 40 .cfa: sp 0 + .ra: lr
STACK CFI 13cbc .cfa: sp 8 + .ra: .cfa -4 + ^ r11: .cfa -8 + ^
STACK CFI 13cc0 .cfa: r11 4 +
STACK CFI INIT 13fb8 24 .cfa: sp 0 + .ra: lr
STACK CFI 13fbc .cfa: sp 4 + r11: .cfa -4 + ^
STACK CFI 13fc0 .cfa: r11 4 +
STACK CFI INIT 13ff4 34 .cfa: sp 0 + .ra: lr
STACK CFI 13ff8 .cfa: sp 4 + r11: .cfa -4 + ^
STACK CFI 13ffc .cfa: r11 4 +
STACK CFI INIT 14028 44 .cfa: sp 0 + .ra: lr
STACK CFI 1402c .cfa: sp 8 + .ra: .cfa -4 + ^ r11: .cfa -8 + ^
STACK CFI 14030 .cfa: r11 4 +
STACK CFI INIT 1406c 30 .cfa: sp 0 + .ra: lr
STACK CFI 14070 .cfa: sp 8 + .ra: .cfa -4 + ^ r11: .cfa -8 + ^
STACK CFI 14074 .cfa: r11 4 +
STACK CFI INIT 1409c b4 .cfa: sp 0 + .ra: lr
STACK CFI 140a0 .cfa: sp 24 + .ra: .cfa -4 + ^ r11: .cfa -8 + ^ r3: .cfa -24 + ^ r4: .cfa -20 + ^ r5: .cfa -16 + ^ r6: .cfa -12 + ^
STACK CFI 140a4 .cfa: r11 4 +
STACK CFI INIT 14150 2c .cfa: sp 0 + .ra: lr
STACK CFI 14154 .cfa: sp 8 + .ra: .cfa -4 + ^ r11: .cfa -8 + ^
STACK CFI 14158 .cfa: r11 4 +
STACK CFI INIT 1417c 70 .cfa: sp 0 + .ra: lr
STACK CFI 14180 .cfa: sp 8 + .ra: .cfa -4 + ^ r11: .cfa -8 + ^
STACK CFI 14184 .cfa: r11 4 +
STACK CFI INIT 104d4 a8 .cfa: sp 0 + .ra: lr
STACK CFI 104d8 .cfa: sp 16 + .ra: .cfa -4 + ^ r11: .cfa -8 + ^ r4: .cfa -16 + ^ r5: .cfa -12 + ^
STACK CFI 104dc .cfa: r11 4 +
STACK CFI INIT 1057c 54 .cfa: sp 0 + .ra: lr
STACK CFI 10580 .cfa: sp 12 + .ra: .cfa -4 + ^ r11: .cfa -8 + ^ r4: .cfa -12 + ^
STACK CFI 10584 .cfa: r11 4 +
STACK CFI INIT 105d0 50 .cfa: sp 0 + .ra: lr
STACK CFI 105d4 .cfa: sp 8 + .ra: .cfa -4 + ^ r11: .cfa -8 + ^
STACK CFI 105d8 .cfa: r11 4 +
STACK CFI INIT 10620 e8 .cfa: sp 0 + .ra: lr
STACK CFI 10624 .cfa: sp 12 + .ra: .cfa -4 + ^ r11: .cfa -8 + ^ r4: .cfa -12 + ^
STACK CFI 10628 .cfa: r11 4 +
STACK CFI INIT 10708 48 .cfa: sp 0 + .ra: lr
STACK CFI 1070c .cfa: sp 8 + .ra: .cfa -4 + ^ r11: .cfa -8 + ^
STACK CFI 10710 .cfa: r11 4 +
STACK CFI INIT 10750 40 .cfa: sp 0 + .ra: lr
STACK CFI 10754 .cfa: sp 8 + .ra: .cfa -4 + ^ r11: .cfa -8 + ^
STACK CFI 10758 .cfa: r11 4 +
STACK CFI INIT 10790 7c .cfa: sp 0 + .ra: lr
STACK CFI 10794 .cfa: sp 12 + .ra: .cfa -4 + ^ r11: .cfa -8 + ^ r4: .cfa -12 + ^
STACK CFI 10798 .cfa: r11 4 +
STACK CFI INIT 1080c 60 .cfa: sp 0 + .ra: lr
STACK CFI 10810 .cfa: sp 8 + .ra: .cfa -4 + ^ r11: .cfa -8 + ^
STACK CFI 10814 .cfa: r11 4 +
STACK CFI INIT 1086c 28 .cfa: sp 0 + .ra: lr
STACK CFI 10870 .cfa: sp 8 + .ra: .cfa -4 + ^ r11: .cfa -8 + ^
STACK CFI 10874 .cfa: r11 4 +
STACK CFI INIT 2ed14 134 .cfa: sp 0 + .ra: lr
STACK CFI 2ed18 .cfa: sp 16 + .ra: .cfa -4 + ^ r11: .cfa -8 + ^ r4: .cfa -16 + ^ r5: .cfa -12 + ^
STACK CFI 2ed1c .cfa: r11 4 +
STACK CFI INIT 2ee48 b4 .cfa: sp 0 + .ra: lr
STACK CFI 2ee4c .cfa: sp 8 + .ra: .cfa -4 + ^ r11: .cfa -8 + ^
STACK CFI 2ee50 .cfa: r11 4 +
STACK CFI INIT 2eefc 8 .cfa: sp 0 + .ra: lr
STACK CFI INIT 2ef04 8 .cfa: sp 0 + .ra: lr
STACK CFI INIT 2ef0c 30 .cfa: sp 0 + .ra: lr
STACK CFI 2ef10 .cfa: sp 8 + .ra: .cfa -4 + ^ r11: .cfa -8 + ^
STACK CFI 2ef14 .cfa: r11 4 +
STACK CFI INIT 2ef3c 8 .cfa: sp 0 + .ra: lr
STACK CFI INIT 2ef44 8 .cfa: sp 0 + .ra: lr
STACK CFI INIT 2ef4c 74 .cfa: sp 0 + .ra: lr
STACK CFI 2ef50 .cfa: sp 16 + .ra: .cfa -4 + ^ r11: .cfa -8 + ^ r4: .cfa -16 + ^ r5: .cfa -12 + ^
STACK CFI 2ef54 .cfa: r11 4 +
STACK CFI INIT 2efc0 a4 .cfa: sp 0 + .ra: lr
STACK CFI 2efc4 .cfa: sp 8 + .ra: .cfa -4 + ^ r11: .cfa -8 + ^
STACK CFI 2efc8 .cfa: r11 4 +
STACK CFI INIT 2f064 514 .cfa: sp 0 + .ra: lr
STACK CFI 2f068 .cfa: sp 8 + .ra: .cfa -4 + ^ r11: .cfa -8 + ^
STACK CFI 2f06c .cfa: r11 4 +
STACK CFI INIT 2f578 8 .cfa: sp 0 + .ra: lr
STACK CFI INIT 2f580 160 .cfa: sp 0 + .ra: lr
STACK CFI 2f584 .cfa: sp 8 + .ra: .cfa -4 + ^ r11: .cfa -8 + ^
STACK CFI 2f588 .cfa: r11 4 +
STACK CFI INIT 2f6e0 ac .cfa: sp 0 + .ra: lr
STACK CFI 2f6e4 .cfa: sp 8 + .ra: .cfa -4 + ^ r11: .cfa -8 + ^
STACK CFI 2f6e8 .cfa: r11 4 +
STACK CFI INIT 2f78c 24 .cfa: sp 0 + .ra: lr
STACK CFI 2f790 .cfa: sp 4 + r11: .cfa -4 + ^
STACK CFI 2f794 .cfa: r11 4 +
STACK CFI INIT 2f7b0 830 .cfa: sp 0 + .ra: lr
STACK CFI 2f7b4 .cfa: sp 12 + .ra: .cfa -4 + ^ r11: .cfa -8 + ^ r4: .cfa -12 + ^
STACK CFI 2f7b8 .cfa: r11 4 +
STACK CFI INIT 2ffe0 d8 .cfa: sp 0 + .ra: lr
STACK CFI 2ffe4 .cfa: sp 12 + .ra: .cfa -4 + ^ r11: .cfa -8 + ^ r4: .cfa -12 + ^
STACK CFI 2ffe8 .cfa: r11 4 +
STACK CFI INIT 300b8 d8 .cfa: sp 0 + .ra: lr
STACK CFI 300bc .cfa: sp 12 + .ra: .cfa -4 + ^ r11: .cfa -8 + ^ r4: .cfa -12 + ^
STACK CFI 300c0 .cfa: r11 4 +
STACK CFI INIT 30190 60 .cfa: sp 0 + .ra: lr
STACK CFI 30194 .cfa: sp 12 + .ra: .cfa -4 + ^ r11: .cfa -8 + ^ r4: .cfa -12 + ^
STACK CFI 30198 .cfa: r11 4 +
STACK CFI INIT 301f0 1f4 .cfa: sp 0 + .ra: lr
STACK CFI 301f4 .cfa: sp 20 + .ra: .cfa -4 + ^ r11: .cfa -8 + ^ r4: .cfa -20 + ^ r5: .cfa -16 + ^ r6: .cfa -12 + ^
STACK CFI 301f8 .cfa: r11 4 +
STACK CFI INIT 1451c 34 .cfa: sp 0 + .ra: lr
STACK CFI 14520 .cfa: sp 4 + r11: .cfa -4 + ^
STACK CFI 14524 .cfa: r11 4 +
STACK CFI INIT 14550 4c .cfa: sp 0 + .ra: lr
STACK CFI 14554 .cfa: sp 8 + .ra: .cfa -4 + ^ r11: .cfa -8 + ^
STACK CFI 14558 .cfa: r11 4 +
STACK CFI INIT 1094c 34 .cfa: sp 0 + .ra: lr
STACK CFI 10950 .cfa: sp 4 + r11: .cfa -4 + ^
STACK CFI 10954 .cfa: r11 4 +
STACK CFI INIT 145d0 40 .cfa: sp 0 + .ra: lr
STACK CFI 145d4 .cfa: sp 8 + .ra: .cfa -4 + ^ r11: .cfa -8 + ^
STACK CFI 145d8 .cfa: r11 4 +
STACK CFI INIT 14610 7c .cfa: sp 0 + .ra: lr
STACK CFI 14614 .cfa: sp 8 + .ra: .cfa -4 + ^ r11: .cfa -8 + ^
STACK CFI 14618 .cfa: r11 4 +
STACK CFI INIT 146b4 34 .cfa: sp 0 + .ra: lr
STACK CFI 146b8 .cfa: sp 4 + r11: .cfa -4 + ^
STACK CFI 146bc .cfa: r11 4 +
STACK CFI INIT 30534 34 .cfa: sp 0 + .ra: lr
STACK CFI 30538 .cfa: sp 4 + r11: .cfa -4 + ^
STACK CFI 3053c .cfa: r11 4 +
STACK CFI INIT 30568 40 .cfa: sp 0 + .ra: lr
STACK CFI 3056c .cfa: sp 8 + .ra: .cfa -4 + ^ r11: .cfa -8 + ^
STACK CFI 30570 .cfa: r11 4 +
STACK CFI INIT 305a8 3c .cfa: sp 0 + .ra: lr
STACK CFI 305ac .cfa: sp 8 + .ra: .cfa -4 + ^ r11: .cfa -8 + ^
STACK CFI 305b0 .cfa: r11 4 +
STACK CFI INIT 305e4 54 .cfa: sp 0 + .ra: lr
STACK CFI 305e8 .cfa: sp 8 + .ra: .cfa -4 + ^ r11: .cfa -8 + ^
STACK CFI 305ec .cfa: r11 4 +
STACK CFI INIT 30638 3c .cfa: sp 0 + .ra: lr
STACK CFI 3063c .cfa: sp 8 + .ra: .cfa -4 + ^ r11: .cfa -8 + ^
STACK CFI 30640 .cfa: r11 4 +
STACK CFI INIT 1468c 28 .cfa: sp 0 + .ra: lr
STACK CFI 14690 .cfa: sp 4 + r11: .cfa -4 + ^
STACK CFI 14694 .cfa: r11 4 +
STACK CFI INIT 14be0 34 .cfa: sp 0 + .ra: lr
STACK CFI 14be4 .cfa: sp 4 + r11: .cfa -4 + ^
STACK CFI 14be8 .cfa: r11 4 +
STACK CFI INIT 14c14 88 .cfa: sp 0 + .ra: lr
STACK CFI 14c18 .cfa: sp 8 + .ra: .cfa -4 + ^ r11: .cfa -8 + ^
STACK CFI 14c1c .cfa: r11 4 +
STACK CFI INIT 30674 34 .cfa: sp 0 + .ra: lr
STACK CFI 30678 .cfa: sp 12 + .ra: .cfa -4 + ^ r11: .cfa -8 + ^ r4: .cfa -12 + ^
STACK CFI 3067c .cfa: r11 4 +
STACK CFI INIT 306a8 38 .cfa: sp 0 + .ra: lr
STACK CFI 306ac .cfa: sp 4 + r11: .cfa -4 + ^
STACK CFI 306b0 .cfa: r11 4 +
STACK CFI INIT 306e0 2c .cfa: sp 0 + .ra: lr
STACK CFI 306e4 .cfa: sp 8 + .ra: .cfa -4 + ^ r11: .cfa -8 + ^
STACK CFI 306e8 .cfa: r11 4 +
STACK CFI INIT 15220 48 .cfa: sp 0 + .ra: lr
STACK CFI 15224 .cfa: sp 8 + .ra: .cfa -4 + ^ r11: .cfa -8 + ^
STACK CFI 15228 .cfa: r11 4 +
STACK CFI INIT 3070c 28 .cfa: sp 0 + .ra: lr
STACK CFI 30710 .cfa: sp 4 + r11: .cfa -4 + ^
STACK CFI 30714 .cfa: r11 4 +
STACK CFI INIT 303e4 134 .cfa: sp 0 + .ra: lr
STACK CFI 303e8 .cfa: sp 8 + .ra: .cfa -4 + ^ r11: .cfa -8 + ^
STACK CFI 303ec .cfa: r11 4 +
STACK CFI INIT 30518 1c .cfa: sp 0 + .ra: lr
STACK CFI 3051c .cfa: sp 8 + .ra: .cfa -4 + ^ r11: .cfa -8 + ^
STACK CFI 30520 .cfa: r11 4 +
STACK CFI INIT ffb4 14 .cfa: sp 0 + .ra: lr
STACK CFI ffb8 .cfa: sp 4 + r11: .cfa -4 + ^
STACK CFI ffbc .cfa: r11 4 +
STACK CFI INIT 13bac 40 .cfa: sp 0 + .ra: lr
STACK CFI 13bb0 .cfa: sp 4 + r11: .cfa -4 + ^
STACK CFI 13bb4 .cfa: r11 4 +
STACK CFI INIT 10068 40 .cfa: sp 0 + .ra: lr
STACK CFI 1006c .cfa: sp 4 + r11: .cfa -4 + ^
STACK CFI 10070 .cfa: r11 4 +
STACK CFI INIT 100a8 6c .cfa: sp 0 + .ra: lr
STACK CFI 100ac .cfa: sp 16 + .ra: .cfa -4 + ^ r11: .cfa -8 + ^ r4: .cfa -16 + ^ r5: .cfa -12 + ^
STACK CFI 100b0 .cfa: r11 4 +
STACK CFI INIT 10114 6c .cfa: sp 0 + .ra: lr
STACK CFI 10118 .cfa: sp 16 + .ra: .cfa -4 + ^ r11: .cfa -8 + ^ r4: .cfa -16 + ^ r5: .cfa -12 + ^
STACK CFI 1011c .cfa: r11 4 +
STACK CFI INIT 13bec 40 .cfa: sp 0 + .ra: lr
STACK CFI 13bf0 .cfa: sp 8 + .ra: .cfa -4 + ^ r11: .cfa -8 + ^
STACK CFI 13bf4 .cfa: r11 4 +
STACK CFI INIT 10180 54 .cfa: sp 0 + .ra: lr
STACK CFI 10184 .cfa: sp 8 + .ra: .cfa -4 + ^ r11: .cfa -8 + ^
STACK CFI 10188 .cfa: r11 4 +
STACK CFI INIT 101d4 30 .cfa: sp 0 + .ra: lr
STACK CFI 101d8 .cfa: sp 8 + .ra: .cfa -4 + ^ r11: .cfa -8 + ^
STACK CFI 101dc .cfa: r11 4 +
STACK CFI INIT 10230 84 .cfa: sp 0 + .ra: lr
STACK CFI 10234 .cfa: sp 8 + .ra: .cfa -4 + ^ r11: .cfa -8 + ^
STACK CFI 10238 .cfa: r11 4 +
STACK CFI INIT 102e4 3c .cfa: sp 0 + .ra: lr
STACK CFI 102e8 .cfa: sp 8 + .ra: .cfa -4 + ^ r11: .cfa -8 + ^
STACK CFI 102ec .cfa: r11 4 +
STACK CFI INIT 103f4 40 .cfa: sp 0 + .ra: lr
STACK CFI 103f8 .cfa: sp 8 + .ra: .cfa -4 + ^ r11: .cfa -8 + ^
STACK CFI 103fc .cfa: r11 4 +
STACK CFI INIT 10434 54 .cfa: sp 0 + .ra: lr
STACK CFI 10438 .cfa: sp 8 + .ra: .cfa -4 + ^ r11: .cfa -8 + ^
STACK CFI 1043c .cfa: r11 4 +
STACK CFI INIT 13cb8 40 .cfa: sp 0 + .ra: lr
STACK CFI 13cbc .cfa: sp 8 + .ra: .cfa -4 + ^ r11: .cfa -8 + ^
STACK CFI 13cc0 .cfa: r11 4 +
STACK CFI INIT 13cf8 28 .cfa: sp 0 + .ra: lr
STACK CFI 13cfc .cfa: sp 4 + r11: .cfa -4 + ^
STACK CFI 13d00 .cfa: r11 4 +
STACK CFI INIT 13df4 28 .cfa: sp 0 + .ra: lr
STACK CFI 13df8 .cfa: sp 4 + r11: .cfa -4 + ^
STACK CFI 13dfc .cfa: r11 4 +
STACK CFI INIT 13e1c 28 .cfa: sp 0 + .ra: lr
STACK CFI 13e20 .cfa: sp 4 + r11: .cfa -4 + ^
STACK CFI 13e24 .cfa: r11 4 +
STACK CFI INIT 13e44 38 .cfa: sp 0 + .ra: lr
STACK CFI 13e48 .cfa: sp 4 + r11: .cfa -4 + ^
STACK CFI 13e4c .cfa: r11 4 +
STACK CFI INIT 13e7c 38 .cfa: sp 0 + .ra: lr
STACK CFI 13e80 .cfa: sp 4 + r11: .cfa -4 + ^
STACK CFI 13e84 .cfa: r11 4 +
STACK CFI INIT 13eb4 60 .cfa: sp 0 + .ra: lr
STACK CFI 13eb8 .cfa: sp 4 + r11: .cfa -4 + ^
STACK CFI 13ebc .cfa: r11 4 +
STACK CFI INIT 13f14 a4 .cfa: sp 0 + .ra: lr
STACK CFI 13f18 .cfa: sp 8 + .ra: .cfa -4 + ^ r11: .cfa -8 + ^
STACK CFI 13f1c .cfa: r11 4 +
STACK CFI INIT 13fb8 24 .cfa: sp 0 + .ra: lr
STACK CFI 13fbc .cfa: sp 4 + r11: .cfa -4 + ^
STACK CFI 13fc0 .cfa: r11 4 +
STACK CFI INIT 13ff4 34 .cfa: sp 0 + .ra: lr
STACK CFI 13ff8 .cfa: sp 4 + r11: .cfa -4 + ^
STACK CFI 13ffc .cfa: r11 4 +
STACK CFI INIT 14028 44 .cfa: sp 0 + .ra: lr
STACK CFI 1402c .cfa: sp 8 + .ra: .cfa -4 + ^ r11: .cfa -8 + ^
STACK CFI 14030 .cfa: r11 4 +
STACK CFI INIT 1406c 30 .cfa: sp 0 + .ra: lr
STACK CFI 14070 .cfa: sp 8 + .ra: .cfa -4 + ^ r11: .cfa -8 + ^
STACK CFI 14074 .cfa: r11 4 +
STACK CFI INIT 1409c b4 .cfa: sp 0 + .ra: lr
STACK CFI 140a0 .cfa: sp 24 + .ra: .cfa -4 + ^ r11: .cfa -8 + ^ r3: .cfa -24 + ^ r4: .cfa -20 + ^ r5: .cfa -16 + ^ r6: .cfa -12 + ^
STACK CFI 140a4 .cfa: r11 4 +
STACK CFI INIT 104d4 a8 .cfa: sp 0 + .ra: lr
STACK CFI 104d8 .cfa: sp 16 + .ra: .cfa -4 + ^ r11: .cfa -8 + ^ r4: .cfa -16 + ^ r5: .cfa -12 + ^
STACK CFI 104dc .cfa: r11 4 +
STACK CFI INIT 1057c 54 .cfa: sp 0 + .ra: lr
STACK CFI 10580 .cfa: sp 12 + .ra: .cfa -4 + ^ r11: .cfa -8 + ^ r4: .cfa -12 + ^
STACK CFI 10584 .cfa: r11 4 +
STACK CFI INIT 105d0 50 .cfa: sp 0 + .ra: lr
STACK CFI 105d4 .cfa: sp 8 + .ra: .cfa -4 + ^ r11: .cfa -8 + ^
STACK CFI 105d8 .cfa: r11 4 +
STACK CFI INIT 10620 e8 .cfa: sp 0 + .ra: lr
STACK CFI 10624 .cfa: sp 12 + .ra: .cfa -4 + ^ r11: .cfa -8 + ^ r4: .cfa -12 + ^
STACK CFI 10628 .cfa: r11 4 +
STACK CFI INIT 10708 48 .cfa: sp 0 + .ra: lr
STACK CFI 1070c .cfa: sp 8 + .ra: .cfa -4 + ^ r11: .cfa -8 + ^
STACK CFI 10710 .cfa: r11 4 +
STACK CFI INIT 10790 7c .cfa: sp 0 + .ra: lr
STACK CFI 10794 .cfa: sp 12 + .ra: .cfa -4 + ^ r11: .cfa -8 + ^ r4: .cfa -12 + ^
STACK CFI 10798 .cfa: r11 4 +
STACK CFI INIT 1421c 40 .cfa: sp 0 + .ra: lr
STACK CFI 14220 .cfa: sp 8 + .ra: .cfa -4 + ^ r11: .cfa -8 + ^
STACK CFI 14224 .cfa: r11 4 +
STACK CFI INIT 1425c 28 .cfa: sp 0 + .ra: lr
STACK CFI 14260 .cfa: sp 8 + .ra: .cfa -4 + ^ r11: .cfa -8 + ^
STACK CFI 14264 .cfa: r11 4 +
STACK CFI INIT 14284 98 .cfa: sp 0 + .ra: lr
STACK CFI 14288 .cfa: sp 16 + .ra: .cfa -4 + ^ r11: .cfa -8 + ^ r3: .cfa -16 + ^ r4: .cfa -12 + ^
STACK CFI 1428c .cfa: r11 4 +
STACK CFI INIT 19158 1c .cfa: sp 0 + .ra: lr
STACK CFI 1915c .cfa: sp 4 + r11: .cfa -4 + ^
STACK CFI 19160 .cfa: r11 4 +
STACK CFI INIT 1431c ac .cfa: sp 0 + .ra: lr
STACK CFI 14320 .cfa: sp 12 + .ra: .cfa -4 + ^ r11: .cfa -8 + ^ r4: .cfa -12 + ^
STACK CFI 14324 .cfa: r11 4 +
STACK CFI INIT 191f8 50 .cfa: sp 0 + .ra: lr
STACK CFI 191fc .cfa: sp 8 + .ra: .cfa -4 + ^ r11: .cfa -8 + ^
STACK CFI 19200 .cfa: r11 4 +
STACK CFI INIT 30734 10c .cfa: sp 0 + .ra: lr
STACK CFI 30738 .cfa: sp 16 + .ra: .cfa -4 + ^ r11: .cfa -8 + ^ r4: .cfa -16 + ^ r5: .cfa -12 + ^
STACK CFI 3073c .cfa: r11 4 +
STACK CFI INIT 30840 b4 .cfa: sp 0 + .ra: lr
STACK CFI 30844 .cfa: sp 8 + .ra: .cfa -4 + ^ r11: .cfa -8 + ^
STACK CFI 30848 .cfa: r11 4 +
STACK CFI INIT 308f4 8 .cfa: sp 0 + .ra: lr
STACK CFI INIT 308fc 8 .cfa: sp 0 + .ra: lr
STACK CFI INIT 30904 30 .cfa: sp 0 + .ra: lr
STACK CFI 30908 .cfa: sp 8 + .ra: .cfa -4 + ^ r11: .cfa -8 + ^
STACK CFI 3090c .cfa: r11 4 +
STACK CFI INIT 30934 8 .cfa: sp 0 + .ra: lr
STACK CFI INIT 3093c 8 .cfa: sp 0 + .ra: lr
STACK CFI INIT 30944 74 .cfa: sp 0 + .ra: lr
STACK CFI 30948 .cfa: sp 16 + .ra: .cfa -4 + ^ r11: .cfa -8 + ^ r4: .cfa -16 + ^ r5: .cfa -12 + ^
STACK CFI 3094c .cfa: r11 4 +
STACK CFI INIT 309b8 160 .cfa: sp 0 + .ra: lr
STACK CFI 309bc .cfa: sp 8 + .ra: .cfa -4 + ^ r11: .cfa -8 + ^
STACK CFI 309c0 .cfa: r11 4 +
STACK CFI INIT 30b18 180 .cfa: sp 0 + .ra: lr
STACK CFI 30b1c .cfa: sp 16 + .ra: .cfa -4 + ^ r11: .cfa -8 + ^ r4: .cfa -16 + ^ r5: .cfa -12 + ^
STACK CFI 30b20 .cfa: r11 4 +
STACK CFI INIT 30c98 78c .cfa: sp 0 + .ra: lr
STACK CFI 30c9c .cfa: sp 8 + .ra: .cfa -4 + ^ r11: .cfa -8 + ^
STACK CFI 30ca0 .cfa: r11 4 +
STACK CFI INIT 31424 8 .cfa: sp 0 + .ra: lr
STACK CFI INIT 3142c 80 .cfa: sp 0 + .ra: lr
STACK CFI 31430 .cfa: sp 8 + .ra: .cfa -4 + ^ r11: .cfa -8 + ^
STACK CFI 31434 .cfa: r11 4 +
STACK CFI INIT 314ac 30 .cfa: sp 0 + .ra: lr
STACK CFI 314b0 .cfa: sp 8 + .ra: .cfa -4 + ^ r11: .cfa -8 + ^
STACK CFI 314b4 .cfa: r11 4 +
STACK CFI INIT 314dc 1d0 .cfa: sp 0 + .ra: lr
STACK CFI 314e0 .cfa: sp 16 + .ra: .cfa -4 + ^ r11: .cfa -8 + ^ r4: .cfa -16 + ^ r5: .cfa -12 + ^
STACK CFI 314e4 .cfa: r11 4 +
STACK CFI INIT 316ac 1e0 .cfa: sp 0 + .ra: lr
STACK CFI 316b0 .cfa: sp 16 + .ra: .cfa -4 + ^ r11: .cfa -8 + ^ r4: .cfa -16 + ^ r5: .cfa -12 + ^
STACK CFI 316b4 .cfa: r11 4 +
STACK CFI INIT 3188c 38 .cfa: sp 0 + .ra: lr
STACK CFI 31890 .cfa: sp 8 + .ra: .cfa -4 + ^ r11: .cfa -8 + ^
STACK CFI 31894 .cfa: r11 4 +
STACK CFI INIT 318c4 6c .cfa: sp 0 + .ra: lr
STACK CFI 318c8 .cfa: sp 16 + .ra: .cfa -4 + ^ r11: .cfa -8 + ^ r4: .cfa -16 + ^ r5: .cfa -12 + ^
STACK CFI 318cc .cfa: r11 4 +
STACK CFI INIT 1459c 34 .cfa: sp 0 + .ra: lr
STACK CFI 145a0 .cfa: sp 4 + r11: .cfa -4 + ^
STACK CFI 145a4 .cfa: r11 4 +
STACK CFI INIT 1094c 34 .cfa: sp 0 + .ra: lr
STACK CFI 10950 .cfa: sp 4 + r11: .cfa -4 + ^
STACK CFI 10954 .cfa: r11 4 +
STACK CFI INIT 145d0 40 .cfa: sp 0 + .ra: lr
STACK CFI 145d4 .cfa: sp 8 + .ra: .cfa -4 + ^ r11: .cfa -8 + ^
STACK CFI 145d8 .cfa: r11 4 +
STACK CFI INIT 14610 7c .cfa: sp 0 + .ra: lr
STACK CFI 14614 .cfa: sp 8 + .ra: .cfa -4 + ^ r11: .cfa -8 + ^
STACK CFI 14618 .cfa: r11 4 +
STACK CFI INIT 146b4 34 .cfa: sp 0 + .ra: lr
STACK CFI 146b8 .cfa: sp 4 + r11: .cfa -4 + ^
STACK CFI 146bc .cfa: r11 4 +
STACK CFI INIT 31c0c 34 .cfa: sp 0 + .ra: lr
STACK CFI 31c10 .cfa: sp 4 + r11: .cfa -4 + ^
STACK CFI 31c14 .cfa: r11 4 +
STACK CFI INIT 31c40 40 .cfa: sp 0 + .ra: lr
STACK CFI 31c44 .cfa: sp 8 + .ra: .cfa -4 + ^ r11: .cfa -8 + ^
STACK CFI 31c48 .cfa: r11 4 +
STACK CFI INIT 31c80 54 .cfa: sp 0 + .ra: lr
STACK CFI 31c84 .cfa: sp 8 + .ra: .cfa -4 + ^ r11: .cfa -8 + ^
STACK CFI 31c88 .cfa: r11 4 +
STACK CFI INIT 196d4 28 .cfa: sp 0 + .ra: lr
STACK CFI 196d8 .cfa: sp 8 + .ra: .cfa -4 + ^ r11: .cfa -8 + ^
STACK CFI 196dc .cfa: r11 4 +
STACK CFI INIT 196fc 28 .cfa: sp 0 + .ra: lr
STACK CFI 19700 .cfa: sp 8 + .ra: .cfa -4 + ^ r11: .cfa -8 + ^
STACK CFI 19704 .cfa: r11 4 +
STACK CFI INIT 31cd4 3c .cfa: sp 0 + .ra: lr
STACK CFI 31cd8 .cfa: sp 8 + .ra: .cfa -4 + ^ r11: .cfa -8 + ^
STACK CFI 31cdc .cfa: r11 4 +
STACK CFI INIT 14c14 88 .cfa: sp 0 + .ra: lr
STACK CFI 14c18 .cfa: sp 8 + .ra: .cfa -4 + ^ r11: .cfa -8 + ^
STACK CFI 14c1c .cfa: r11 4 +
STACK CFI INIT 31d10 34 .cfa: sp 0 + .ra: lr
STACK CFI 31d14 .cfa: sp 12 + .ra: .cfa -4 + ^ r11: .cfa -8 + ^ r4: .cfa -12 + ^
STACK CFI 31d18 .cfa: r11 4 +
STACK CFI INIT 1a07c 38 .cfa: sp 0 + .ra: lr
STACK CFI 1a080 .cfa: sp 8 + .ra: .cfa -4 + ^ r11: .cfa -8 + ^
STACK CFI 1a084 .cfa: r11 4 +
STACK CFI INIT 1a0b4 28 .cfa: sp 0 + .ra: lr
STACK CFI 1a0b8 .cfa: sp 8 + .ra: .cfa -4 + ^ r11: .cfa -8 + ^
STACK CFI 1a0bc .cfa: r11 4 +
STACK CFI INIT 31d44 38 .cfa: sp 0 + .ra: lr
STACK CFI 31d48 .cfa: sp 4 + r11: .cfa -4 + ^
STACK CFI 31d4c .cfa: r11 4 +
STACK CFI INIT 15220 48 .cfa: sp 0 + .ra: lr
STACK CFI 15224 .cfa: sp 8 + .ra: .cfa -4 + ^ r11: .cfa -8 + ^
STACK CFI 15228 .cfa: r11 4 +
STACK CFI INIT 1a528 24 .cfa: sp 0 + .ra: lr
STACK CFI 1a52c .cfa: sp 8 + .ra: .cfa -4 + ^ r11: .cfa -8 + ^
STACK CFI 1a530 .cfa: r11 4 +
STACK CFI INIT 1a54c a0 .cfa: sp 0 + .ra: lr
STACK CFI 1a550 .cfa: sp 8 + .ra: .cfa -4 + ^ r11: .cfa -8 + ^
STACK CFI 1a554 .cfa: r11 4 +
STACK CFI INIT 31930 2c0 .cfa: sp 0 + .ra: lr
STACK CFI 31934 .cfa: sp 8 + .ra: .cfa -4 + ^ r11: .cfa -8 + ^
STACK CFI 31938 .cfa: r11 4 +
STACK CFI INIT 31bf0 1c .cfa: sp 0 + .ra: lr
STACK CFI 31bf4 .cfa: sp 8 + .ra: .cfa -4 + ^ r11: .cfa -8 + ^
STACK CFI 31bf8 .cfa: r11 4 +
STACK CFI INIT ffb4 14 .cfa: sp 0 + .ra: lr
STACK CFI ffb8 .cfa: sp 4 + r11: .cfa -4 + ^
STACK CFI ffbc .cfa: r11 4 +
STACK CFI INIT 13bac 40 .cfa: sp 0 + .ra: lr
STACK CFI 13bb0 .cfa: sp 4 + r11: .cfa -4 + ^
STACK CFI 13bb4 .cfa: r11 4 +
STACK CFI INIT 10068 40 .cfa: sp 0 + .ra: lr
STACK CFI 1006c .cfa: sp 4 + r11: .cfa -4 + ^
STACK CFI 10070 .cfa: r11 4 +
STACK CFI INIT 100a8 6c .cfa: sp 0 + .ra: lr
STACK CFI 100ac .cfa: sp 16 + .ra: .cfa -4 + ^ r11: .cfa -8 + ^ r4: .cfa -16 + ^ r5: .cfa -12 + ^
STACK CFI 100b0 .cfa: r11 4 +
STACK CFI INIT 10114 6c .cfa: sp 0 + .ra: lr
STACK CFI 10118 .cfa: sp 16 + .ra: .cfa -4 + ^ r11: .cfa -8 + ^ r4: .cfa -16 + ^ r5: .cfa -12 + ^
STACK CFI 1011c .cfa: r11 4 +
STACK CFI INIT 13bec 40 .cfa: sp 0 + .ra: lr
STACK CFI 13bf0 .cfa: sp 8 + .ra: .cfa -4 + ^ r11: .cfa -8 + ^
STACK CFI 13bf4 .cfa: r11 4 +
STACK CFI INIT 10180 54 .cfa: sp 0 + .ra: lr
STACK CFI 10184 .cfa: sp 8 + .ra: .cfa -4 + ^ r11: .cfa -8 + ^
STACK CFI 10188 .cfa: r11 4 +
STACK CFI INIT 101d4 30 .cfa: sp 0 + .ra: lr
STACK CFI 101d8 .cfa: sp 8 + .ra: .cfa -4 + ^ r11: .cfa -8 + ^
STACK CFI 101dc .cfa: r11 4 +
STACK CFI INIT 10230 84 .cfa: sp 0 + .ra: lr
STACK CFI 10234 .cfa: sp 8 + .ra: .cfa -4 + ^ r11: .cfa -8 + ^
STACK CFI 10238 .cfa: r11 4 +
STACK CFI INIT 102e4 3c .cfa: sp 0 + .ra: lr
STACK CFI 102e8 .cfa: sp 8 + .ra: .cfa -4 + ^ r11: .cfa -8 + ^
STACK CFI 102ec .cfa: r11 4 +
STACK CFI INIT 10320 78 .cfa: sp 0 + .ra: lr
STACK CFI 10324 .cfa: sp 8 + .ra: .cfa -4 + ^ r11: .cfa -8 + ^
STACK CFI 10328 .cfa: r11 4 +
STACK CFI INIT 103f4 40 .cfa: sp 0 + .ra: lr
STACK CFI 103f8 .cfa: sp 8 + .ra: .cfa -4 + ^ r11: .cfa -8 + ^
STACK CFI 103fc .cfa: r11 4 +
STACK CFI INIT 10434 54 .cfa: sp 0 + .ra: lr
STACK CFI 10438 .cfa: sp 8 + .ra: .cfa -4 + ^ r11: .cfa -8 + ^
STACK CFI 1043c .cfa: r11 4 +
STACK CFI INIT 13cf8 28 .cfa: sp 0 + .ra: lr
STACK CFI 13cfc .cfa: sp 4 + r11: .cfa -4 + ^
STACK CFI 13d00 .cfa: r11 4 +
STACK CFI INIT 13df4 28 .cfa: sp 0 + .ra: lr
STACK CFI 13df8 .cfa: sp 4 + r11: .cfa -4 + ^
STACK CFI 13dfc .cfa: r11 4 +
STACK CFI INIT 13e1c 28 .cfa: sp 0 + .ra: lr
STACK CFI 13e20 .cfa: sp 4 + r11: .cfa -4 + ^
STACK CFI 13e24 .cfa: r11 4 +
STACK CFI INIT 13e44 38 .cfa: sp 0 + .ra: lr
STACK CFI 13e48 .cfa: sp 4 + r11: .cfa -4 + ^
STACK CFI 13e4c .cfa: r11 4 +
STACK CFI INIT 13e7c 38 .cfa: sp 0 + .ra: lr
STACK CFI 13e80 .cfa: sp 4 + r11: .cfa -4 + ^
STACK CFI 13e84 .cfa: r11 4 +
STACK CFI INIT 13eb4 60 .cfa: sp 0 + .ra: lr
STACK CFI 13eb8 .cfa: sp 4 + r11: .cfa -4 + ^
STACK CFI 13ebc .cfa: r11 4 +
STACK CFI INIT 13f14 a4 .cfa: sp 0 + .ra: lr
STACK CFI 13f18 .cfa: sp 8 + .ra: .cfa -4 + ^ r11: .cfa -8 + ^
STACK CFI 13f1c .cfa: r11 4 +
STACK CFI INIT 13fb8 24 .cfa: sp 0 + .ra: lr
STACK CFI 13fbc .cfa: sp 4 + r11: .cfa -4 + ^
STACK CFI 13fc0 .cfa: r11 4 +
STACK CFI INIT 13ff4 34 .cfa: sp 0 + .ra: lr
STACK CFI 13ff8 .cfa: sp 4 + r11: .cfa -4 + ^
STACK CFI 13ffc .cfa: r11 4 +
STACK CFI INIT 14028 44 .cfa: sp 0 + .ra: lr
STACK CFI 1402c .cfa: sp 8 + .ra: .cfa -4 + ^ r11: .cfa -8 + ^
STACK CFI 14030 .cfa: r11 4 +
STACK CFI INIT 1406c 30 .cfa: sp 0 + .ra: lr
STACK CFI 14070 .cfa: sp 8 + .ra: .cfa -4 + ^ r11: .cfa -8 + ^
STACK CFI 14074 .cfa: r11 4 +
STACK CFI INIT 1409c b4 .cfa: sp 0 + .ra: lr
STACK CFI 140a0 .cfa: sp 24 + .ra: .cfa -4 + ^ r11: .cfa -8 + ^ r3: .cfa -24 + ^ r4: .cfa -20 + ^ r5: .cfa -16 + ^ r6: .cfa -12 + ^
STACK CFI 140a4 .cfa: r11 4 +
STACK CFI INIT 104d4 a8 .cfa: sp 0 + .ra: lr
STACK CFI 104d8 .cfa: sp 16 + .ra: .cfa -4 + ^ r11: .cfa -8 + ^ r4: .cfa -16 + ^ r5: .cfa -12 + ^
STACK CFI 104dc .cfa: r11 4 +
STACK CFI INIT 1057c 54 .cfa: sp 0 + .ra: lr
STACK CFI 10580 .cfa: sp 12 + .ra: .cfa -4 + ^ r11: .cfa -8 + ^ r4: .cfa -12 + ^
STACK CFI 10584 .cfa: r11 4 +
STACK CFI INIT 105d0 50 .cfa: sp 0 + .ra: lr
STACK CFI 105d4 .cfa: sp 8 + .ra: .cfa -4 + ^ r11: .cfa -8 + ^
STACK CFI 105d8 .cfa: r11 4 +
STACK CFI INIT 10620 e8 .cfa: sp 0 + .ra: lr
STACK CFI 10624 .cfa: sp 12 + .ra: .cfa -4 + ^ r11: .cfa -8 + ^ r4: .cfa -12 + ^
STACK CFI 10628 .cfa: r11 4 +
STACK CFI INIT 10708 48 .cfa: sp 0 + .ra: lr
STACK CFI 1070c .cfa: sp 8 + .ra: .cfa -4 + ^ r11: .cfa -8 + ^
STACK CFI 10710 .cfa: r11 4 +
STACK CFI INIT 10750 40 .cfa: sp 0 + .ra: lr
STACK CFI 10754 .cfa: sp 8 + .ra: .cfa -4 + ^ r11: .cfa -8 + ^
STACK CFI 10758 .cfa: r11 4 +
STACK CFI INIT 10790 7c .cfa: sp 0 + .ra: lr
STACK CFI 10794 .cfa: sp 12 + .ra: .cfa -4 + ^ r11: .cfa -8 + ^ r4: .cfa -12 + ^
STACK CFI 10798 .cfa: r11 4 +
STACK CFI INIT 1086c 28 .cfa: sp 0 + .ra: lr
STACK CFI 10870 .cfa: sp 8 + .ra: .cfa -4 + ^ r11: .cfa -8 + ^
STACK CFI 10874 .cfa: r11 4 +
STACK CFI INIT 14284 98 .cfa: sp 0 + .ra: lr
STACK CFI 14288 .cfa: sp 16 + .ra: .cfa -4 + ^ r11: .cfa -8 + ^ r3: .cfa -16 + ^ r4: .cfa -12 + ^
STACK CFI 1428c .cfa: r11 4 +
STACK CFI INIT 19158 1c .cfa: sp 0 + .ra: lr
STACK CFI 1915c .cfa: sp 4 + r11: .cfa -4 + ^
STACK CFI 19160 .cfa: r11 4 +
STACK CFI INIT 1431c ac .cfa: sp 0 + .ra: lr
STACK CFI 14320 .cfa: sp 12 + .ra: .cfa -4 + ^ r11: .cfa -8 + ^ r4: .cfa -12 + ^
STACK CFI 14324 .cfa: r11 4 +
STACK CFI INIT 191f8 50 .cfa: sp 0 + .ra: lr
STACK CFI 191fc .cfa: sp 8 + .ra: .cfa -4 + ^ r11: .cfa -8 + ^
STACK CFI 19200 .cfa: r11 4 +
STACK CFI INIT 31d7c 10c .cfa: sp 0 + .ra: lr
STACK CFI 31d80 .cfa: sp 16 + .ra: .cfa -4 + ^ r11: .cfa -8 + ^ r4: .cfa -16 + ^ r5: .cfa -12 + ^
STACK CFI 31d84 .cfa: r11 4 +
STACK CFI INIT 31e88 b4 .cfa: sp 0 + .ra: lr
STACK CFI 31e8c .cfa: sp 8 + .ra: .cfa -4 + ^ r11: .cfa -8 + ^
STACK CFI 31e90 .cfa: r11 4 +
STACK CFI INIT 31f3c 8 .cfa: sp 0 + .ra: lr
STACK CFI INIT 31f44 8 .cfa: sp 0 + .ra: lr
STACK CFI INIT 31f4c 30 .cfa: sp 0 + .ra: lr
STACK CFI 31f50 .cfa: sp 8 + .ra: .cfa -4 + ^ r11: .cfa -8 + ^
STACK CFI 31f54 .cfa: r11 4 +
STACK CFI INIT 31f7c 8 .cfa: sp 0 + .ra: lr
STACK CFI INIT 31f84 8 .cfa: sp 0 + .ra: lr
STACK CFI INIT 31f8c 98 .cfa: sp 0 + .ra: lr
STACK CFI 31f90 .cfa: sp 16 + .ra: .cfa -4 + ^ r11: .cfa -8 + ^ r4: .cfa -16 + ^ r5: .cfa -12 + ^
STACK CFI 31f94 .cfa: r11 4 +
STACK CFI INIT 32024 1f4 .cfa: sp 0 + .ra: lr
STACK CFI 32028 .cfa: sp 12 + .ra: .cfa -4 + ^ r11: .cfa -8 + ^ r4: .cfa -12 + ^
STACK CFI 3202c .cfa: r11 4 +
STACK CFI INIT 32218 180 .cfa: sp 0 + .ra: lr
STACK CFI 3221c .cfa: sp 16 + .ra: .cfa -4 + ^ r11: .cfa -8 + ^ r4: .cfa -16 + ^ r5: .cfa -12 + ^
STACK CFI 32220 .cfa: r11 4 +
STACK CFI INIT 32398 4c4 .cfa: sp 0 + .ra: lr
STACK CFI 3239c .cfa: sp 8 + .ra: .cfa -4 + ^ r11: .cfa -8 + ^
STACK CFI 323a0 .cfa: r11 4 +
STACK CFI INIT 3285c 8 .cfa: sp 0 + .ra: lr
STACK CFI INIT 32864 3ac .cfa: sp 0 + .ra: lr
STACK CFI 32868 .cfa: sp 12 + .ra: .cfa -4 + ^ r11: .cfa -8 + ^ r4: .cfa -12 + ^
STACK CFI 3286c .cfa: r11 4 +
STACK CFI INIT 32c10 bc .cfa: sp 0 + .ra: lr
STACK CFI 32c14 .cfa: sp 8 + .ra: .cfa -4 + ^ r11: .cfa -8 + ^
STACK CFI 32c18 .cfa: r11 4 +
STACK CFI INIT 32ccc 30 .cfa: sp 0 + .ra: lr
STACK CFI 32cd0 .cfa: sp 8 + .ra: .cfa -4 + ^ r11: .cfa -8 + ^
STACK CFI 32cd4 .cfa: r11 4 +
STACK CFI INIT 32cfc 758 .cfa: sp 0 + .ra: lr
STACK CFI 32d00 .cfa: sp 16 + .ra: .cfa -4 + ^ r11: .cfa -8 + ^ r4: .cfa -16 + ^ r5: .cfa -12 + ^
STACK CFI 32d04 .cfa: r11 4 +
STACK CFI INIT 33454 328 .cfa: sp 0 + .ra: lr
STACK CFI 33458 .cfa: sp 12 + .ra: .cfa -4 + ^ r11: .cfa -8 + ^ r4: .cfa -12 + ^
STACK CFI 3345c .cfa: r11 4 +
STACK CFI INIT 3377c 38 .cfa: sp 0 + .ra: lr
STACK CFI 33780 .cfa: sp 8 + .ra: .cfa -4 + ^ r11: .cfa -8 + ^
STACK CFI 33784 .cfa: r11 4 +
STACK CFI INIT 337b4 284 .cfa: sp 0 + .ra: lr
STACK CFI 337b8 .cfa: sp 20 + .ra: .cfa -4 + ^ r11: .cfa -8 + ^ r4: .cfa -20 + ^ r5: .cfa -16 + ^ r6: .cfa -12 + ^
STACK CFI 337bc .cfa: r11 4 +
STACK CFI INIT 1459c 34 .cfa: sp 0 + .ra: lr
STACK CFI 145a0 .cfa: sp 4 + r11: .cfa -4 + ^
STACK CFI 145a4 .cfa: r11 4 +
STACK CFI INIT 1094c 34 .cfa: sp 0 + .ra: lr
STACK CFI 10950 .cfa: sp 4 + r11: .cfa -4 + ^
STACK CFI 10954 .cfa: r11 4 +
STACK CFI INIT 145d0 40 .cfa: sp 0 + .ra: lr
STACK CFI 145d4 .cfa: sp 8 + .ra: .cfa -4 + ^ r11: .cfa -8 + ^
STACK CFI 145d8 .cfa: r11 4 +
STACK CFI INIT 14610 7c .cfa: sp 0 + .ra: lr
STACK CFI 14614 .cfa: sp 8 + .ra: .cfa -4 + ^ r11: .cfa -8 + ^
STACK CFI 14618 .cfa: r11 4 +
STACK CFI INIT 146b4 34 .cfa: sp 0 + .ra: lr
STACK CFI 146b8 .cfa: sp 4 + r11: .cfa -4 + ^
STACK CFI 146bc .cfa: r11 4 +
STACK CFI INIT 33b04 34 .cfa: sp 0 + .ra: lr
STACK CFI 33b08 .cfa: sp 4 + r11: .cfa -4 + ^
STACK CFI 33b0c .cfa: r11 4 +
STACK CFI INIT 33b38 40 .cfa: sp 0 + .ra: lr
STACK CFI 33b3c .cfa: sp 8 + .ra: .cfa -4 + ^ r11: .cfa -8 + ^
STACK CFI 33b40 .cfa: r11 4 +
STACK CFI INIT 33b78 54 .cfa: sp 0 + .ra: lr
STACK CFI 33b7c .cfa: sp 8 + .ra: .cfa -4 + ^ r11: .cfa -8 + ^
STACK CFI 33b80 .cfa: r11 4 +
STACK CFI INIT 196d4 28 .cfa: sp 0 + .ra: lr
STACK CFI 196d8 .cfa: sp 8 + .ra: .cfa -4 + ^ r11: .cfa -8 + ^
STACK CFI 196dc .cfa: r11 4 +
STACK CFI INIT 196fc 28 .cfa: sp 0 + .ra: lr
STACK CFI 19700 .cfa: sp 8 + .ra: .cfa -4 + ^ r11: .cfa -8 + ^
STACK CFI 19704 .cfa: r11 4 +
STACK CFI INIT 33bcc 3c .cfa: sp 0 + .ra: lr
STACK CFI 33bd0 .cfa: sp 8 + .ra: .cfa -4 + ^ r11: .cfa -8 + ^
STACK CFI 33bd4 .cfa: r11 4 +
STACK CFI INIT 19870 54 .cfa: sp 0 + .ra: lr
STACK CFI 19874 .cfa: sp 8 + .ra: .cfa -4 + ^ r11: .cfa -8 + ^
STACK CFI 19878 .cfa: r11 4 +
STACK CFI INIT 198c4 a0 .cfa: sp 0 + .ra: lr
STACK CFI 198c8 .cfa: sp 12 + .ra: .cfa -4 + ^ r11: .cfa -8 + ^ r4: .cfa -12 + ^
STACK CFI 198cc .cfa: r11 4 +
STACK CFI INIT 19964 30 .cfa: sp 0 + .ra: lr
STACK CFI 19968 .cfa: sp 8 + .ra: .cfa -4 + ^ r11: .cfa -8 + ^
STACK CFI 1996c .cfa: r11 4 +
STACK CFI INIT 14c14 88 .cfa: sp 0 + .ra: lr
STACK CFI 14c18 .cfa: sp 8 + .ra: .cfa -4 + ^ r11: .cfa -8 + ^
STACK CFI 14c1c .cfa: r11 4 +
STACK CFI INIT 33c08 34 .cfa: sp 0 + .ra: lr
STACK CFI 33c0c .cfa: sp 12 + .ra: .cfa -4 + ^ r11: .cfa -8 + ^ r4: .cfa -12 + ^
STACK CFI 33c10 .cfa: r11 4 +
STACK CFI INIT 1a07c 38 .cfa: sp 0 + .ra: lr
STACK CFI 1a080 .cfa: sp 8 + .ra: .cfa -4 + ^ r11: .cfa -8 + ^
STACK CFI 1a084 .cfa: r11 4 +
STACK CFI INIT 1a0b4 28 .cfa: sp 0 + .ra: lr
STACK CFI 1a0b8 .cfa: sp 8 + .ra: .cfa -4 + ^ r11: .cfa -8 + ^
STACK CFI 1a0bc .cfa: r11 4 +
STACK CFI INIT 33c3c 38 .cfa: sp 0 + .ra: lr
STACK CFI 33c40 .cfa: sp 4 + r11: .cfa -4 + ^
STACK CFI 33c44 .cfa: r11 4 +
STACK CFI INIT 15220 48 .cfa: sp 0 + .ra: lr
STACK CFI 15224 .cfa: sp 8 + .ra: .cfa -4 + ^ r11: .cfa -8 + ^
STACK CFI 15228 .cfa: r11 4 +
STACK CFI INIT 1a528 24 .cfa: sp 0 + .ra: lr
STACK CFI 1a52c .cfa: sp 8 + .ra: .cfa -4 + ^ r11: .cfa -8 + ^
STACK CFI 1a530 .cfa: r11 4 +
STACK CFI INIT 1a54c a0 .cfa: sp 0 + .ra: lr
STACK CFI 1a550 .cfa: sp 8 + .ra: .cfa -4 + ^ r11: .cfa -8 + ^
STACK CFI 1a554 .cfa: r11 4 +
STACK CFI INIT 33a38 b0 .cfa: sp 0 + .ra: lr
STACK CFI 33a3c .cfa: sp 8 + .ra: .cfa -4 + ^ r11: .cfa -8 + ^
STACK CFI 33a40 .cfa: r11 4 +
STACK CFI INIT 33ae8 1c .cfa: sp 0 + .ra: lr
STACK CFI 33aec .cfa: sp 8 + .ra: .cfa -4 + ^ r11: .cfa -8 + ^
STACK CFI 33af0 .cfa: r11 4 +
STACK CFI INIT ffb4 14 .cfa: sp 0 + .ra: lr
STACK CFI ffb8 .cfa: sp 4 + r11: .cfa -4 + ^
STACK CFI ffbc .cfa: r11 4 +
STACK CFI INIT 35808 3c .cfa: sp 0 + .ra: lr
STACK CFI 3580c .cfa: sp 4 + r11: .cfa -4 + ^
STACK CFI 35810 .cfa: r11 4 +
STACK CFI INIT 13bac 40 .cfa: sp 0 + .ra: lr
STACK CFI 13bb0 .cfa: sp 4 + r11: .cfa -4 + ^
STACK CFI 13bb4 .cfa: r11 4 +
STACK CFI INIT 10068 40 .cfa: sp 0 + .ra: lr
STACK CFI 1006c .cfa: sp 4 + r11: .cfa -4 + ^
STACK CFI 10070 .cfa: r11 4 +
STACK CFI INIT 100a8 6c .cfa: sp 0 + .ra: lr
STACK CFI 100ac .cfa: sp 16 + .ra: .cfa -4 + ^ r11: .cfa -8 + ^ r4: .cfa -16 + ^ r5: .cfa -12 + ^
STACK CFI 100b0 .cfa: r11 4 +
STACK CFI INIT 10114 6c .cfa: sp 0 + .ra: lr
STACK CFI 10118 .cfa: sp 16 + .ra: .cfa -4 + ^ r11: .cfa -8 + ^ r4: .cfa -16 + ^ r5: .cfa -12 + ^
STACK CFI 1011c .cfa: r11 4 +
STACK CFI INIT 10180 54 .cfa: sp 0 + .ra: lr
STACK CFI 10184 .cfa: sp 8 + .ra: .cfa -4 + ^ r11: .cfa -8 + ^
STACK CFI 10188 .cfa: r11 4 +
STACK CFI INIT 101d4 30 .cfa: sp 0 + .ra: lr
STACK CFI 101d8 .cfa: sp 8 + .ra: .cfa -4 + ^ r11: .cfa -8 + ^
STACK CFI 101dc .cfa: r11 4 +
STACK CFI INIT 10230 84 .cfa: sp 0 + .ra: lr
STACK CFI 10234 .cfa: sp 8 + .ra: .cfa -4 + ^ r11: .cfa -8 + ^
STACK CFI 10238 .cfa: r11 4 +
STACK CFI INIT 13c70 28 .cfa: sp 0 + .ra: lr
STACK CFI 13c74 .cfa: sp 4 + r11: .cfa -4 + ^
STACK CFI 13c78 .cfa: r11 4 +
STACK CFI INIT 13c98 20 .cfa: sp 0 + .ra: lr
STACK CFI 13c9c .cfa: sp 4 + r11: .cfa -4 + ^
STACK CFI 13ca0 .cfa: r11 4 +
STACK CFI INIT 102e4 3c .cfa: sp 0 + .ra: lr
STACK CFI 102e8 .cfa: sp 8 + .ra: .cfa -4 + ^ r11: .cfa -8 + ^
STACK CFI 102ec .cfa: r11 4 +
STACK CFI INIT 18ae8 3c .cfa: sp 0 + .ra: lr
STACK CFI 18aec .cfa: sp 4 + r11: .cfa -4 + ^
STACK CFI 18af0 .cfa: r11 4 +
STACK CFI INIT 10320 78 .cfa: sp 0 + .ra: lr
STACK CFI 10324 .cfa: sp 8 + .ra: .cfa -4 + ^ r11: .cfa -8 + ^
STACK CFI 10328 .cfa: r11 4 +
STACK CFI INIT 103f4 40 .cfa: sp 0 + .ra: lr
STACK CFI 103f8 .cfa: sp 8 + .ra: .cfa -4 + ^ r11: .cfa -8 + ^
STACK CFI 103fc .cfa: r11 4 +
STACK CFI INIT 10434 54 .cfa: sp 0 + .ra: lr
STACK CFI 10438 .cfa: sp 8 + .ra: .cfa -4 + ^ r11: .cfa -8 + ^
STACK CFI 1043c .cfa: r11 4 +
STACK CFI INIT 18c24 44 .cfa: sp 0 + .ra: lr
STACK CFI 18c28 .cfa: sp 4 + r11: .cfa -4 + ^
STACK CFI 18c2c .cfa: r11 4 +
STACK CFI INIT 18c68 44 .cfa: sp 0 + .ra: lr
STACK CFI 18c6c .cfa: sp 4 + r11: .cfa -4 + ^
STACK CFI 18c70 .cfa: r11 4 +
STACK CFI INIT 13cf8 28 .cfa: sp 0 + .ra: lr
STACK CFI 13cfc .cfa: sp 4 + r11: .cfa -4 + ^
STACK CFI 13d00 .cfa: r11 4 +
STACK CFI INIT 18cac 28 .cfa: sp 0 + .ra: lr
STACK CFI 18cb0 .cfa: sp 4 + r11: .cfa -4 + ^
STACK CFI 18cb4 .cfa: r11 4 +
STACK CFI INIT 13d7c 78 .cfa: sp 0 + .ra: lr
STACK CFI 13d80 .cfa: sp 4 + r11: .cfa -4 + ^
STACK CFI 13d84 .cfa: r11 4 +
STACK CFI INIT 13e44 38 .cfa: sp 0 + .ra: lr
STACK CFI 13e48 .cfa: sp 4 + r11: .cfa -4 + ^
STACK CFI 13e4c .cfa: r11 4 +
STACK CFI INIT 13e7c 38 .cfa: sp 0 + .ra: lr
STACK CFI 13e80 .cfa: sp 4 + r11: .cfa -4 + ^
STACK CFI 13e84 .cfa: r11 4 +
STACK CFI INIT 13fb8 24 .cfa: sp 0 + .ra: lr
STACK CFI 13fbc .cfa: sp 4 + r11: .cfa -4 + ^
STACK CFI 13fc0 .cfa: r11 4 +
STACK CFI INIT 13fdc 18 .cfa: sp 0 + .ra: lr
STACK CFI 13fe0 .cfa: sp 8 + .ra: .cfa -4 + ^ r11: .cfa -8 + ^
STACK CFI 13fe4 .cfa: r11 4 +
STACK CFI INIT 13ff4 34 .cfa: sp 0 + .ra: lr
STACK CFI 13ff8 .cfa: sp 4 + r11: .cfa -4 + ^
STACK CFI 13ffc .cfa: r11 4 +
STACK CFI INIT 14028 44 .cfa: sp 0 + .ra: lr
STACK CFI 1402c .cfa: sp 8 + .ra: .cfa -4 + ^ r11: .cfa -8 + ^
STACK CFI 14030 .cfa: r11 4 +
STACK CFI INIT 1406c 30 .cfa: sp 0 + .ra: lr
STACK CFI 14070 .cfa: sp 8 + .ra: .cfa -4 + ^ r11: .cfa -8 + ^
STACK CFI 14074 .cfa: r11 4 +
STACK CFI INIT 1409c b4 .cfa: sp 0 + .ra: lr
STACK CFI 140a0 .cfa: sp 24 + .ra: .cfa -4 + ^ r11: .cfa -8 + ^ r3: .cfa -24 + ^ r4: .cfa -20 + ^ r5: .cfa -16 + ^ r6: .cfa -12 + ^
STACK CFI 140a4 .cfa: r11 4 +
STACK CFI INIT 35844 2c .cfa: sp 0 + .ra: lr
STACK CFI 35848 .cfa: sp 8 + .ra: .cfa -4 + ^ r11: .cfa -8 + ^
STACK CFI 3584c .cfa: r11 4 +
STACK CFI INIT 35870 2c .cfa: sp 0 + .ra: lr
STACK CFI 35874 .cfa: sp 8 + .ra: .cfa -4 + ^ r11: .cfa -8 + ^
STACK CFI 35878 .cfa: r11 4 +
STACK CFI INIT 3589c 34 .cfa: sp 0 + .ra: lr
STACK CFI 358a0 .cfa: sp 8 + .ra: .cfa -4 + ^ r11: .cfa -8 + ^
STACK CFI 358a4 .cfa: r11 4 +
STACK CFI INIT 358d0 38 .cfa: sp 0 + .ra: lr
STACK CFI 358d4 .cfa: sp 8 + .ra: .cfa -4 + ^ r11: .cfa -8 + ^
STACK CFI 358d8 .cfa: r11 4 +
STACK CFI INIT 15dfc 68 .cfa: sp 0 + .ra: lr
STACK CFI 15e00 .cfa: sp 12 + .ra: .cfa -4 + ^ r11: .cfa -8 + ^ r4: .cfa -12 + ^
STACK CFI 15e04 .cfa: r11 4 +
STACK CFI INIT 104d4 a8 .cfa: sp 0 + .ra: lr
STACK CFI 104d8 .cfa: sp 16 + .ra: .cfa -4 + ^ r11: .cfa -8 + ^ r4: .cfa -16 + ^ r5: .cfa -12 + ^
STACK CFI 104dc .cfa: r11 4 +
STACK CFI INIT 1057c 54 .cfa: sp 0 + .ra: lr
STACK CFI 10580 .cfa: sp 12 + .ra: .cfa -4 + ^ r11: .cfa -8 + ^ r4: .cfa -12 + ^
STACK CFI 10584 .cfa: r11 4 +
STACK CFI INIT 18fe0 4c .cfa: sp 0 + .ra: lr
STACK CFI 18fe4 .cfa: sp 4 + r11: .cfa -4 + ^
STACK CFI 18fe8 .cfa: r11 4 +
STACK CFI INIT 105d0 50 .cfa: sp 0 + .ra: lr
STACK CFI 105d4 .cfa: sp 8 + .ra: .cfa -4 + ^ r11: .cfa -8 + ^
STACK CFI 105d8 .cfa: r11 4 +
STACK CFI INIT 10620 e8 .cfa: sp 0 + .ra: lr
STACK CFI 10624 .cfa: sp 12 + .ra: .cfa -4 + ^ r11: .cfa -8 + ^ r4: .cfa -12 + ^
STACK CFI 10628 .cfa: r11 4 +
STACK CFI INIT 10708 48 .cfa: sp 0 + .ra: lr
STACK CFI 1070c .cfa: sp 8 + .ra: .cfa -4 + ^ r11: .cfa -8 + ^
STACK CFI 10710 .cfa: r11 4 +
STACK CFI INIT 190a4 68 .cfa: sp 0 + .ra: lr
STACK CFI 190a8 .cfa: sp 8 + .ra: .cfa -4 + ^ r11: .cfa -8 + ^
STACK CFI 190ac .cfa: r11 4 +
STACK CFI INIT 10750 40 .cfa: sp 0 + .ra: lr
STACK CFI 10754 .cfa: sp 8 + .ra: .cfa -4 + ^ r11: .cfa -8 + ^
STACK CFI 10758 .cfa: r11 4 +
STACK CFI INIT 10790 7c .cfa: sp 0 + .ra: lr
STACK CFI 10794 .cfa: sp 12 + .ra: .cfa -4 + ^ r11: .cfa -8 + ^ r4: .cfa -12 + ^
STACK CFI 10798 .cfa: r11 4 +
STACK CFI INIT 1080c 60 .cfa: sp 0 + .ra: lr
STACK CFI 10810 .cfa: sp 8 + .ra: .cfa -4 + ^ r11: .cfa -8 + ^
STACK CFI 10814 .cfa: r11 4 +
STACK CFI INIT 1421c 40 .cfa: sp 0 + .ra: lr
STACK CFI 14220 .cfa: sp 8 + .ra: .cfa -4 + ^ r11: .cfa -8 + ^
STACK CFI 14224 .cfa: r11 4 +
STACK CFI INIT 1086c 28 .cfa: sp 0 + .ra: lr
STACK CFI 10870 .cfa: sp 8 + .ra: .cfa -4 + ^ r11: .cfa -8 + ^
STACK CFI 10874 .cfa: r11 4 +
STACK CFI INIT 14284 98 .cfa: sp 0 + .ra: lr
STACK CFI 14288 .cfa: sp 16 + .ra: .cfa -4 + ^ r11: .cfa -8 + ^ r3: .cfa -16 + ^ r4: .cfa -12 + ^
STACK CFI 1428c .cfa: r11 4 +
STACK CFI INIT 35908 b4 .cfa: sp 0 + .ra: lr
STACK CFI 3590c .cfa: sp 24 + .ra: .cfa -4 + ^ r11: .cfa -8 + ^ r3: .cfa -24 + ^ r4: .cfa -20 + ^ r5: .cfa -16 + ^ r6: .cfa -12 + ^
STACK CFI 35910 .cfa: r11 4 +
STACK CFI INIT 143c8 28 .cfa: sp 0 + .ra: lr
STACK CFI 143cc .cfa: sp 4 + r11: .cfa -4 + ^
STACK CFI 143d0 .cfa: r11 4 +
STACK CFI INIT 33c74 140 .cfa: sp 0 + .ra: lr
STACK CFI 33c78 .cfa: sp 16 + .ra: .cfa -4 + ^ r11: .cfa -8 + ^ r4: .cfa -16 + ^ r5: .cfa -12 + ^
STACK CFI 33c7c .cfa: r11 4 +
STACK CFI INIT 33db4 13c .cfa: sp 0 + .ra: lr
STACK CFI 33db8 .cfa: sp 8 + .ra: .cfa -4 + ^ r11: .cfa -8 + ^
STACK CFI 33dbc .cfa: r11 4 +
STACK CFI INIT 33ef0 8 .cfa: sp 0 + .ra: lr
STACK CFI INIT 33ef8 8 .cfa: sp 0 + .ra: lr
STACK CFI INIT 33f00 30 .cfa: sp 0 + .ra: lr
STACK CFI 33f04 .cfa: sp 8 + .ra: .cfa -4 + ^ r11: .cfa -8 + ^
STACK CFI 33f08 .cfa: r11 4 +
STACK CFI INIT 33f30 8 .cfa: sp 0 + .ra: lr
STACK CFI INIT 33f38 8 .cfa: sp 0 + .ra: lr
STACK CFI INIT 33f40 a8 .cfa: sp 0 + .ra: lr
STACK CFI 33f44 .cfa: sp 12 + .ra: .cfa -4 + ^ r11: .cfa -8 + ^ r4: .cfa -12 + ^
STACK CFI 33f48 .cfa: r11 4 +
STACK CFI INIT 33fe8 3d8 .cfa: sp 0 + .ra: lr
STACK CFI 33fec .cfa: sp 12 + .ra: .cfa -4 + ^ r11: .cfa -8 + ^ r4: .cfa -12 + ^
STACK CFI 33ff0 .cfa: r11 4 +
STACK CFI INIT 343c0 3f8 .cfa: sp 0 + .ra: lr
STACK CFI 343c4 .cfa: sp 12 + .ra: .cfa -4 + ^ r11: .cfa -8 + ^ r4: .cfa -12 + ^
STACK CFI 343c8 .cfa: r11 4 +
STACK CFI INIT 347b8 74 .cfa: sp 0 + .ra: lr
STACK CFI 347bc .cfa: sp 16 + .ra: .cfa -4 + ^ r11: .cfa -8 + ^ r4: .cfa -16 + ^ r5: .cfa -12 + ^
STACK CFI 347c0 .cfa: r11 4 +
STACK CFI INIT 3482c 244 .cfa: sp 0 + .ra: lr
STACK CFI 34830 .cfa: sp 12 + .ra: .cfa -4 + ^ r11: .cfa -8 + ^ r4: .cfa -12 + ^
STACK CFI 34834 .cfa: r11 4 +
STACK CFI INIT 34a70 114 .cfa: sp 0 + .ra: lr
STACK CFI 34a74 .cfa: sp 8 + .ra: .cfa -4 + ^ r11: .cfa -8 + ^
STACK CFI 34a78 .cfa: r11 4 +
STACK CFI INIT 34b84 144 .cfa: sp 0 + .ra: lr
STACK CFI 34b88 .cfa: sp 8 + .ra: .cfa -4 + ^ r11: .cfa -8 + ^
STACK CFI 34b8c .cfa: r11 4 +
STACK CFI INIT 34cc8 e4 .cfa: sp 0 + .ra: lr
STACK CFI 34ccc .cfa: sp 8 + .ra: .cfa -4 + ^ r11: .cfa -8 + ^
STACK CFI 34cd0 .cfa: r11 4 +
STACK CFI INIT 34dac 8 .cfa: sp 0 + .ra: lr
STACK CFI INIT 34db4 b0 .cfa: sp 0 + .ra: lr
STACK CFI 34db8 .cfa: sp 8 + .ra: .cfa -4 + ^ r11: .cfa -8 + ^
STACK CFI 34dbc .cfa: r11 4 +
STACK CFI INIT 34e64 c8 .cfa: sp 0 + .ra: lr
STACK CFI 34e68 .cfa: sp 8 + .ra: .cfa -4 + ^ r11: .cfa -8 + ^
STACK CFI 34e6c .cfa: r11 4 +
STACK CFI INIT 34f2c 150 .cfa: sp 0 + .ra: lr
STACK CFI 34f30 .cfa: sp 8 + .ra: .cfa -4 + ^ r11: .cfa -8 + ^
STACK CFI 34f34 .cfa: r11 4 +
STACK CFI INIT 3507c 24 .cfa: sp 0 + .ra: lr
STACK CFI 35080 .cfa: sp 4 + r11: .cfa -4 + ^
STACK CFI 35084 .cfa: r11 4 +
STACK CFI INIT 350a0 1ac .cfa: sp 0 + .ra: lr
STACK CFI 350a4 .cfa: sp 12 + .ra: .cfa -4 + ^ r11: .cfa -8 + ^ r4: .cfa -12 + ^
STACK CFI 350a8 .cfa: r11 4 +
STACK CFI INIT 3524c 60 .cfa: sp 0 + .ra: lr
STACK CFI 35250 .cfa: sp 12 + .ra: .cfa -4 + ^ r11: .cfa -8 + ^ r4: .cfa -12 + ^
STACK CFI 35254 .cfa: r11 4 +
STACK CFI INIT 352ac 60 .cfa: sp 0 + .ra: lr
STACK CFI 352b0 .cfa: sp 12 + .ra: .cfa -4 + ^ r11: .cfa -8 + ^ r4: .cfa -12 + ^
STACK CFI 352b4 .cfa: r11 4 +
STACK CFI INIT 3530c 60 .cfa: sp 0 + .ra: lr
STACK CFI 35310 .cfa: sp 12 + .ra: .cfa -4 + ^ r11: .cfa -8 + ^ r4: .cfa -12 + ^
STACK CFI 35314 .cfa: r11 4 +
STACK CFI INIT 3536c 60 .cfa: sp 0 + .ra: lr
STACK CFI 35370 .cfa: sp 12 + .ra: .cfa -4 + ^ r11: .cfa -8 + ^ r4: .cfa -12 + ^
STACK CFI 35374 .cfa: r11 4 +
STACK CFI INIT 353cc 60 .cfa: sp 0 + .ra: lr
STACK CFI 353d0 .cfa: sp 12 + .ra: .cfa -4 + ^ r11: .cfa -8 + ^ r4: .cfa -12 + ^
STACK CFI 353d4 .cfa: r11 4 +
STACK CFI INIT 3542c d8 .cfa: sp 0 + .ra: lr
STACK CFI 35430 .cfa: sp 12 + .ra: .cfa -4 + ^ r11: .cfa -8 + ^ r4: .cfa -12 + ^
STACK CFI 35434 .cfa: r11 4 +
STACK CFI INIT 35504 d4 .cfa: sp 0 + .ra: lr
STACK CFI 35508 .cfa: sp 12 + .ra: .cfa -4 + ^ r11: .cfa -8 + ^ r4: .cfa -12 + ^
STACK CFI 3550c .cfa: r11 4 +
STACK CFI INIT 355d8 60 .cfa: sp 0 + .ra: lr
STACK CFI 355dc .cfa: sp 12 + .ra: .cfa -4 + ^ r11: .cfa -8 + ^ r4: .cfa -12 + ^
STACK CFI 355e0 .cfa: r11 4 +
STACK CFI INIT 35638 60 .cfa: sp 0 + .ra: lr
STACK CFI 3563c .cfa: sp 12 + .ra: .cfa -4 + ^ r11: .cfa -8 + ^ r4: .cfa -12 + ^
STACK CFI 35640 .cfa: r11 4 +
STACK CFI INIT 35698 38 .cfa: sp 0 + .ra: lr
STACK CFI 3569c .cfa: sp 8 + .ra: .cfa -4 + ^ r11: .cfa -8 + ^
STACK CFI 356a0 .cfa: r11 4 +
STACK CFI INIT 356d0 6c .cfa: sp 0 + .ra: lr
STACK CFI 356d4 .cfa: sp 16 + .ra: .cfa -4 + ^ r11: .cfa -8 + ^ r4: .cfa -16 + ^ r5: .cfa -12 + ^
STACK CFI 356d8 .cfa: r11 4 +
STACK CFI INIT 359bc 34 .cfa: sp 0 + .ra: lr
STACK CFI 359c0 .cfa: sp 4 + r11: .cfa -4 + ^
STACK CFI 359c4 .cfa: r11 4 +
STACK CFI INIT 359f0 34 .cfa: sp 0 + .ra: lr
STACK CFI 359f4 .cfa: sp 4 + r11: .cfa -4 + ^
STACK CFI 359f8 .cfa: r11 4 +
STACK CFI INIT 1094c 34 .cfa: sp 0 + .ra: lr
STACK CFI 10950 .cfa: sp 4 + r11: .cfa -4 + ^
STACK CFI 10954 .cfa: r11 4 +
STACK CFI INIT 145d0 40 .cfa: sp 0 + .ra: lr
STACK CFI 145d4 .cfa: sp 8 + .ra: .cfa -4 + ^ r11: .cfa -8 + ^
STACK CFI 145d8 .cfa: r11 4 +
STACK CFI INIT 14610 7c .cfa: sp 0 + .ra: lr
STACK CFI 14614 .cfa: sp 8 + .ra: .cfa -4 + ^ r11: .cfa -8 + ^
STACK CFI 14618 .cfa: r11 4 +
STACK CFI INIT 35a24 9c .cfa: sp 0 + .ra: lr
STACK CFI 35a28 .cfa: sp 8 + .ra: .cfa -4 + ^ r11: .cfa -8 + ^
STACK CFI 35a2c .cfa: r11 4 +
STACK CFI INIT 146b4 34 .cfa: sp 0 + .ra: lr
STACK CFI 146b8 .cfa: sp 4 + r11: .cfa -4 + ^
STACK CFI 146bc .cfa: r11 4 +
STACK CFI INIT 35ac0 34 .cfa: sp 0 + .ra: lr
STACK CFI 35ac4 .cfa: sp 4 + r11: .cfa -4 + ^
STACK CFI 35ac8 .cfa: r11 4 +
STACK CFI INIT 35af4 40 .cfa: sp 0 + .ra: lr
STACK CFI 35af8 .cfa: sp 8 + .ra: .cfa -4 + ^ r11: .cfa -8 + ^
STACK CFI 35afc .cfa: r11 4 +
STACK CFI INIT 35b34 54 .cfa: sp 0 + .ra: lr
STACK CFI 35b38 .cfa: sp 8 + .ra: .cfa -4 + ^ r11: .cfa -8 + ^
STACK CFI 35b3c .cfa: r11 4 +
STACK CFI INIT 35b88 54 .cfa: sp 0 + .ra: lr
STACK CFI 35b8c .cfa: sp 8 + .ra: .cfa -4 + ^ r11: .cfa -8 + ^
STACK CFI 35b90 .cfa: r11 4 +
STACK CFI INIT 35bdc 7c .cfa: sp 0 + .ra: lr
STACK CFI 35be0 .cfa: sp 8 + .ra: .cfa -4 + ^ r11: .cfa -8 + ^
STACK CFI 35be4 .cfa: r11 4 +
STACK CFI INIT 35c58 30 .cfa: sp 0 + .ra: lr
STACK CFI 35c5c .cfa: sp 8 + .ra: .cfa -4 + ^ r11: .cfa -8 + ^
STACK CFI 35c60 .cfa: r11 4 +
STACK CFI INIT 35c88 3c .cfa: sp 0 + .ra: lr
STACK CFI 35c8c .cfa: sp 8 + .ra: .cfa -4 + ^ r11: .cfa -8 + ^
STACK CFI 35c90 .cfa: r11 4 +
STACK CFI INIT 19870 54 .cfa: sp 0 + .ra: lr
STACK CFI 19874 .cfa: sp 8 + .ra: .cfa -4 + ^ r11: .cfa -8 + ^
STACK CFI 19878 .cfa: r11 4 +
STACK CFI INIT 198c4 a0 .cfa: sp 0 + .ra: lr
STACK CFI 198c8 .cfa: sp 12 + .ra: .cfa -4 + ^ r11: .cfa -8 + ^ r4: .cfa -12 + ^
STACK CFI 198cc .cfa: r11 4 +
STACK CFI INIT 19964 30 .cfa: sp 0 + .ra: lr
STACK CFI 19968 .cfa: sp 8 + .ra: .cfa -4 + ^ r11: .cfa -8 + ^
STACK CFI 1996c .cfa: r11 4 +
STACK CFI INIT 14c14 88 .cfa: sp 0 + .ra: lr
STACK CFI 14c18 .cfa: sp 8 + .ra: .cfa -4 + ^ r11: .cfa -8 + ^
STACK CFI 14c1c .cfa: r11 4 +
STACK CFI INIT 35cc4 130 .cfa: sp 0 + .ra: lr
STACK CFI 35cc8 .cfa: sp 12 + .ra: .cfa -4 + ^ r11: .cfa -8 + ^ r4: .cfa -12 + ^
STACK CFI 35ccc .cfa: r11 4 +
STACK CFI INIT 35df4 60 .cfa: sp 0 + .ra: lr
STACK CFI 35df8 .cfa: sp 16 + .ra: .cfa -4 + ^ r11: .cfa -8 + ^ r4: .cfa -16 + ^ r5: .cfa -12 + ^
STACK CFI 35dfc .cfa: r11 4 +
STACK CFI INIT 35e54 94 .cfa: sp 0 + .ra: lr
STACK CFI 35e58 .cfa: sp 16 + .ra: .cfa -4 + ^ r11: .cfa -8 + ^ r4: .cfa -16 + ^ r5: .cfa -12 + ^
STACK CFI 35e5c .cfa: r11 4 +
STACK CFI INIT 35ee8 34 .cfa: sp 0 + .ra: lr
STACK CFI 35eec .cfa: sp 12 + .ra: .cfa -4 + ^ r11: .cfa -8 + ^ r4: .cfa -12 + ^
STACK CFI 35ef0 .cfa: r11 4 +
STACK CFI INIT 35f1c 38 .cfa: sp 0 + .ra: lr
STACK CFI 35f20 .cfa: sp 4 + r11: .cfa -4 + ^
STACK CFI 35f24 .cfa: r11 4 +
STACK CFI INIT 15220 48 .cfa: sp 0 + .ra: lr
STACK CFI 15224 .cfa: sp 8 + .ra: .cfa -4 + ^ r11: .cfa -8 + ^
STACK CFI 15228 .cfa: r11 4 +
STACK CFI INIT 3573c b0 .cfa: sp 0 + .ra: lr
STACK CFI 35740 .cfa: sp 8 + .ra: .cfa -4 + ^ r11: .cfa -8 + ^
STACK CFI 35744 .cfa: r11 4 +
STACK CFI INIT 357ec 1c .cfa: sp 0 + .ra: lr
STACK CFI 357f0 .cfa: sp 8 + .ra: .cfa -4 + ^ r11: .cfa -8 + ^
STACK CFI 357f4 .cfa: r11 4 +
STACK CFI INIT ffb4 14 .cfa: sp 0 + .ra: lr
STACK CFI ffb8 .cfa: sp 4 + r11: .cfa -4 + ^
STACK CFI ffbc .cfa: r11 4 +
STACK CFI INIT 13bac 40 .cfa: sp 0 + .ra: lr
STACK CFI 13bb0 .cfa: sp 4 + r11: .cfa -4 + ^
STACK CFI 13bb4 .cfa: r11 4 +
STACK CFI INIT 10068 40 .cfa: sp 0 + .ra: lr
STACK CFI 1006c .cfa: sp 4 + r11: .cfa -4 + ^
STACK CFI 10070 .cfa: r11 4 +
STACK CFI INIT 100a8 6c .cfa: sp 0 + .ra: lr
STACK CFI 100ac .cfa: sp 16 + .ra: .cfa -4 + ^ r11: .cfa -8 + ^ r4: .cfa -16 + ^ r5: .cfa -12 + ^
STACK CFI 100b0 .cfa: r11 4 +
STACK CFI INIT 10114 6c .cfa: sp 0 + .ra: lr
STACK CFI 10118 .cfa: sp 16 + .ra: .cfa -4 + ^ r11: .cfa -8 + ^ r4: .cfa -16 + ^ r5: .cfa -12 + ^
STACK CFI 1011c .cfa: r11 4 +
STACK CFI INIT 10180 54 .cfa: sp 0 + .ra: lr
STACK CFI 10184 .cfa: sp 8 + .ra: .cfa -4 + ^ r11: .cfa -8 + ^
STACK CFI 10188 .cfa: r11 4 +
STACK CFI INIT 101d4 30 .cfa: sp 0 + .ra: lr
STACK CFI 101d8 .cfa: sp 8 + .ra: .cfa -4 + ^ r11: .cfa -8 + ^
STACK CFI 101dc .cfa: r11 4 +
STACK CFI INIT 10230 84 .cfa: sp 0 + .ra: lr
STACK CFI 10234 .cfa: sp 8 + .ra: .cfa -4 + ^ r11: .cfa -8 + ^
STACK CFI 10238 .cfa: r11 4 +
STACK CFI INIT 13c70 28 .cfa: sp 0 + .ra: lr
STACK CFI 13c74 .cfa: sp 4 + r11: .cfa -4 + ^
STACK CFI 13c78 .cfa: r11 4 +
STACK CFI INIT 102e4 3c .cfa: sp 0 + .ra: lr
STACK CFI 102e8 .cfa: sp 8 + .ra: .cfa -4 + ^ r11: .cfa -8 + ^
STACK CFI 102ec .cfa: r11 4 +
STACK CFI INIT 103f4 40 .cfa: sp 0 + .ra: lr
STACK CFI 103f8 .cfa: sp 8 + .ra: .cfa -4 + ^ r11: .cfa -8 + ^
STACK CFI 103fc .cfa: r11 4 +
STACK CFI INIT 10434 54 .cfa: sp 0 + .ra: lr
STACK CFI 10438 .cfa: sp 8 + .ra: .cfa -4 + ^ r11: .cfa -8 + ^
STACK CFI 1043c .cfa: r11 4 +
STACK CFI INIT 13cb8 40 .cfa: sp 0 + .ra: lr
STACK CFI 13cbc .cfa: sp 8 + .ra: .cfa -4 + ^ r11: .cfa -8 + ^
STACK CFI 13cc0 .cfa: r11 4 +
STACK CFI INIT 13fb8 24 .cfa: sp 0 + .ra: lr
STACK CFI 13fbc .cfa: sp 4 + r11: .cfa -4 + ^
STACK CFI 13fc0 .cfa: r11 4 +
STACK CFI INIT 13ff4 34 .cfa: sp 0 + .ra: lr
STACK CFI 13ff8 .cfa: sp 4 + r11: .cfa -4 + ^
STACK CFI 13ffc .cfa: r11 4 +
STACK CFI INIT 14028 44 .cfa: sp 0 + .ra: lr
STACK CFI 1402c .cfa: sp 8 + .ra: .cfa -4 + ^ r11: .cfa -8 + ^
STACK CFI 14030 .cfa: r11 4 +
STACK CFI INIT 1406c 30 .cfa: sp 0 + .ra: lr
STACK CFI 14070 .cfa: sp 8 + .ra: .cfa -4 + ^ r11: .cfa -8 + ^
STACK CFI 14074 .cfa: r11 4 +
STACK CFI INIT 1409c b4 .cfa: sp 0 + .ra: lr
STACK CFI 140a0 .cfa: sp 24 + .ra: .cfa -4 + ^ r11: .cfa -8 + ^ r3: .cfa -24 + ^ r4: .cfa -20 + ^ r5: .cfa -16 + ^ r6: .cfa -12 + ^
STACK CFI 140a4 .cfa: r11 4 +
STACK CFI INIT 19158 1c .cfa: sp 0 + .ra: lr
STACK CFI 1915c .cfa: sp 4 + r11: .cfa -4 + ^
STACK CFI 19160 .cfa: r11 4 +
STACK CFI INIT 19174 60 .cfa: sp 0 + .ra: lr
STACK CFI 19178 .cfa: sp 4 + r11: .cfa -4 + ^
STACK CFI 1917c .cfa: r11 4 +
STACK CFI INIT 191d4 24 .cfa: sp 0 + .ra: lr
STACK CFI 191d8 .cfa: sp 4 + r11: .cfa -4 + ^
STACK CFI 191dc .cfa: r11 4 +
STACK CFI INIT 19248 2c .cfa: sp 0 + .ra: lr
STACK CFI 1924c .cfa: sp 8 + .ra: .cfa -4 + ^ r11: .cfa -8 + ^
STACK CFI 19250 .cfa: r11 4 +
STACK CFI INIT 19274 68 .cfa: sp 0 + .ra: lr
STACK CFI 19278 .cfa: sp 8 + .ra: .cfa -4 + ^ r11: .cfa -8 + ^
STACK CFI 1927c .cfa: r11 4 +
STACK CFI INIT 104d4 a8 .cfa: sp 0 + .ra: lr
STACK CFI 104d8 .cfa: sp 16 + .ra: .cfa -4 + ^ r11: .cfa -8 + ^ r4: .cfa -16 + ^ r5: .cfa -12 + ^
STACK CFI 104dc .cfa: r11 4 +
STACK CFI INIT 1057c 54 .cfa: sp 0 + .ra: lr
STACK CFI 10580 .cfa: sp 12 + .ra: .cfa -4 + ^ r11: .cfa -8 + ^ r4: .cfa -12 + ^
STACK CFI 10584 .cfa: r11 4 +
STACK CFI INIT 105d0 50 .cfa: sp 0 + .ra: lr
STACK CFI 105d4 .cfa: sp 8 + .ra: .cfa -4 + ^ r11: .cfa -8 + ^
STACK CFI 105d8 .cfa: r11 4 +
STACK CFI INIT 10620 e8 .cfa: sp 0 + .ra: lr
STACK CFI 10624 .cfa: sp 12 + .ra: .cfa -4 + ^ r11: .cfa -8 + ^ r4: .cfa -12 + ^
STACK CFI 10628 .cfa: r11 4 +
STACK CFI INIT 10708 48 .cfa: sp 0 + .ra: lr
STACK CFI 1070c .cfa: sp 8 + .ra: .cfa -4 + ^ r11: .cfa -8 + ^
STACK CFI 10710 .cfa: r11 4 +
STACK CFI INIT 190a4 68 .cfa: sp 0 + .ra: lr
STACK CFI 190a8 .cfa: sp 8 + .ra: .cfa -4 + ^ r11: .cfa -8 + ^
STACK CFI 190ac .cfa: r11 4 +
STACK CFI INIT 10750 40 .cfa: sp 0 + .ra: lr
STACK CFI 10754 .cfa: sp 8 + .ra: .cfa -4 + ^ r11: .cfa -8 + ^
STACK CFI 10758 .cfa: r11 4 +
STACK CFI INIT 10790 7c .cfa: sp 0 + .ra: lr
STACK CFI 10794 .cfa: sp 12 + .ra: .cfa -4 + ^ r11: .cfa -8 + ^ r4: .cfa -12 + ^
STACK CFI 10798 .cfa: r11 4 +
STACK CFI INIT 1080c 60 .cfa: sp 0 + .ra: lr
STACK CFI 10810 .cfa: sp 8 + .ra: .cfa -4 + ^ r11: .cfa -8 + ^
STACK CFI 10814 .cfa: r11 4 +
STACK CFI INIT 1086c 28 .cfa: sp 0 + .ra: lr
STACK CFI 10870 .cfa: sp 8 + .ra: .cfa -4 + ^ r11: .cfa -8 + ^
STACK CFI 10874 .cfa: r11 4 +
STACK CFI INIT 21540 34 .cfa: sp 0 + .ra: lr
STACK CFI 21544 .cfa: sp 4 + r11: .cfa -4 + ^
STACK CFI 21548 .cfa: r11 4 +
STACK CFI INIT 21574 44 .cfa: sp 0 + .ra: lr
STACK CFI 21578 .cfa: sp 8 + .ra: .cfa -4 + ^ r11: .cfa -8 + ^
STACK CFI 2157c .cfa: r11 4 +
STACK CFI INIT 215b8 30 .cfa: sp 0 + .ra: lr
STACK CFI 215bc .cfa: sp 8 + .ra: .cfa -4 + ^ r11: .cfa -8 + ^
STACK CFI 215c0 .cfa: r11 4 +
STACK CFI INIT 215e8 b4 .cfa: sp 0 + .ra: lr
STACK CFI 215ec .cfa: sp 24 + .ra: .cfa -4 + ^ r11: .cfa -8 + ^ r3: .cfa -24 + ^ r4: .cfa -20 + ^ r5: .cfa -16 + ^ r6: .cfa -12 + ^
STACK CFI 215f0 .cfa: r11 4 +
STACK CFI INIT 14150 2c .cfa: sp 0 + .ra: lr
STACK CFI 14154 .cfa: sp 8 + .ra: .cfa -4 + ^ r11: .cfa -8 + ^
STACK CFI 14158 .cfa: r11 4 +
STACK CFI INIT 1417c 70 .cfa: sp 0 + .ra: lr
STACK CFI 14180 .cfa: sp 8 + .ra: .cfa -4 + ^ r11: .cfa -8 + ^
STACK CFI 14184 .cfa: r11 4 +
STACK CFI INIT 14284 98 .cfa: sp 0 + .ra: lr
STACK CFI 14288 .cfa: sp 16 + .ra: .cfa -4 + ^ r11: .cfa -8 + ^ r3: .cfa -16 + ^ r4: .cfa -12 + ^
STACK CFI 1428c .cfa: r11 4 +
STACK CFI INIT 35f54 118 .cfa: sp 0 + .ra: lr
STACK CFI 35f58 .cfa: sp 16 + .ra: .cfa -4 + ^ r11: .cfa -8 + ^ r4: .cfa -16 + ^ r5: .cfa -12 + ^
STACK CFI 35f5c .cfa: r11 4 +
STACK CFI INIT 3606c e4 .cfa: sp 0 + .ra: lr
STACK CFI 36070 .cfa: sp 8 + .ra: .cfa -4 + ^ r11: .cfa -8 + ^
STACK CFI 36074 .cfa: r11 4 +
STACK CFI INIT 36150 8 .cfa: sp 0 + .ra: lr
STACK CFI INIT 36158 8 .cfa: sp 0 + .ra: lr
STACK CFI INIT 36160 8 .cfa: sp 0 + .ra: lr
STACK CFI INIT 36168 30 .cfa: sp 0 + .ra: lr
STACK CFI 3616c .cfa: sp 8 + .ra: .cfa -4 + ^ r11: .cfa -8 + ^
STACK CFI 36170 .cfa: r11 4 +
STACK CFI INIT 36198 8 .cfa: sp 0 + .ra: lr
STACK CFI INIT 361a0 8 .cfa: sp 0 + .ra: lr
STACK CFI INIT 361a8 8 .cfa: sp 0 + .ra: lr
STACK CFI INIT 361b0 e0 .cfa: sp 0 + .ra: lr
STACK CFI 361b4 .cfa: sp 20 + .ra: .cfa -4 + ^ r11: .cfa -8 + ^ r4: .cfa -20 + ^ r5: .cfa -16 + ^ r6: .cfa -12 + ^
STACK CFI 361b8 .cfa: r11 4 +
STACK CFI INIT 36290 3ac .cfa: sp 0 + .ra: lr
STACK CFI 36294 .cfa: sp 8 + .ra: .cfa -4 + ^ r11: .cfa -8 + ^
STACK CFI 36298 .cfa: r11 4 +
STACK CFI INIT 3663c 8 .cfa: sp 0 + .ra: lr
STACK CFI INIT 36644 7d8 .cfa: sp 0 + .ra: lr
STACK CFI 36648 .cfa: sp 12 + .ra: .cfa -4 + ^ r11: .cfa -8 + ^ r4: .cfa -12 + ^
STACK CFI 3664c .cfa: r11 4 +
STACK CFI INIT 36e1c 8 .cfa: sp 0 + .ra: lr
STACK CFI INIT 36e24 88 .cfa: sp 0 + .ra: lr
STACK CFI 36e28 .cfa: sp 8 + .ra: .cfa -4 + ^ r11: .cfa -8 + ^
STACK CFI 36e2c .cfa: r11 4 +
STACK CFI INIT 36eac 24 .cfa: sp 0 + .ra: lr
STACK CFI 36eb0 .cfa: sp 4 + r11: .cfa -4 + ^
STACK CFI 36eb4 .cfa: r11 4 +
STACK CFI INIT 36ed0 154 .cfa: sp 0 + .ra: lr
STACK CFI 36ed4 .cfa: sp 12 + .ra: .cfa -4 + ^ r11: .cfa -8 + ^ r4: .cfa -12 + ^
STACK CFI 36ed8 .cfa: r11 4 +
STACK CFI INIT 37024 14c .cfa: sp 0 + .ra: lr
STACK CFI 37028 .cfa: sp 12 + .ra: .cfa -4 + ^ r11: .cfa -8 + ^ r4: .cfa -12 + ^
STACK CFI 3702c .cfa: r11 4 +
STACK CFI INIT 37170 bc .cfa: sp 0 + .ra: lr
STACK CFI 37174 .cfa: sp 16 + .ra: .cfa -4 + ^ r11: .cfa -8 + ^ r4: .cfa -16 + ^ r5: .cfa -12 + ^
STACK CFI 37178 .cfa: r11 4 +
STACK CFI INIT 1094c 34 .cfa: sp 0 + .ra: lr
STACK CFI 10950 .cfa: sp 4 + r11: .cfa -4 + ^
STACK CFI 10954 .cfa: r11 4 +
STACK CFI INIT 145d0 40 .cfa: sp 0 + .ra: lr
STACK CFI 145d4 .cfa: sp 8 + .ra: .cfa -4 + ^ r11: .cfa -8 + ^
STACK CFI 145d8 .cfa: r11 4 +
STACK CFI INIT 14610 7c .cfa: sp 0 + .ra: lr
STACK CFI 14614 .cfa: sp 8 + .ra: .cfa -4 + ^ r11: .cfa -8 + ^
STACK CFI 14618 .cfa: r11 4 +
STACK CFI INIT 146b4 34 .cfa: sp 0 + .ra: lr
STACK CFI 146b8 .cfa: sp 4 + r11: .cfa -4 + ^
STACK CFI 146bc .cfa: r11 4 +
STACK CFI INIT 373a8 34 .cfa: sp 0 + .ra: lr
STACK CFI 373ac .cfa: sp 4 + r11: .cfa -4 + ^
STACK CFI 373b0 .cfa: r11 4 +
STACK CFI INIT 373dc 40 .cfa: sp 0 + .ra: lr
STACK CFI 373e0 .cfa: sp 8 + .ra: .cfa -4 + ^ r11: .cfa -8 + ^
STACK CFI 373e4 .cfa: r11 4 +
STACK CFI INIT 3741c 54 .cfa: sp 0 + .ra: lr
STACK CFI 37420 .cfa: sp 8 + .ra: .cfa -4 + ^ r11: .cfa -8 + ^
STACK CFI 37424 .cfa: r11 4 +
STACK CFI INIT 35b88 54 .cfa: sp 0 + .ra: lr
STACK CFI 35b8c .cfa: sp 8 + .ra: .cfa -4 + ^ r11: .cfa -8 + ^
STACK CFI 35b90 .cfa: r11 4 +
STACK CFI INIT 35bdc 7c .cfa: sp 0 + .ra: lr
STACK CFI 35be0 .cfa: sp 8 + .ra: .cfa -4 + ^ r11: .cfa -8 + ^
STACK CFI 35be4 .cfa: r11 4 +
STACK CFI INIT 35c58 30 .cfa: sp 0 + .ra: lr
STACK CFI 35c5c .cfa: sp 8 + .ra: .cfa -4 + ^ r11: .cfa -8 + ^
STACK CFI 35c60 .cfa: r11 4 +
STACK CFI INIT 19724 28 .cfa: sp 0 + .ra: lr
STACK CFI 19728 .cfa: sp 8 + .ra: .cfa -4 + ^ r11: .cfa -8 + ^
STACK CFI 1972c .cfa: r11 4 +
STACK CFI INIT 1974c 54 .cfa: sp 0 + .ra: lr
STACK CFI 19750 .cfa: sp 8 + .ra: .cfa -4 + ^ r11: .cfa -8 + ^
STACK CFI 19754 .cfa: r11 4 +
STACK CFI INIT 197a0 a0 .cfa: sp 0 + .ra: lr
STACK CFI 197a4 .cfa: sp 12 + .ra: .cfa -4 + ^ r11: .cfa -8 + ^ r4: .cfa -12 + ^
STACK CFI 197a8 .cfa: r11 4 +
STACK CFI INIT 19840 30 .cfa: sp 0 + .ra: lr
STACK CFI 19844 .cfa: sp 8 + .ra: .cfa -4 + ^ r11: .cfa -8 + ^
STACK CFI 19848 .cfa: r11 4 +
STACK CFI INIT 14c14 88 .cfa: sp 0 + .ra: lr
STACK CFI 14c18 .cfa: sp 8 + .ra: .cfa -4 + ^ r11: .cfa -8 + ^
STACK CFI 14c1c .cfa: r11 4 +
STACK CFI INIT 37470 34 .cfa: sp 0 + .ra: lr
STACK CFI 37474 .cfa: sp 12 + .ra: .cfa -4 + ^ r11: .cfa -8 + ^ r4: .cfa -12 + ^
STACK CFI 37478 .cfa: r11 4 +
STACK CFI INIT 1a0dc 17c .cfa: sp 0 + .ra: lr
STACK CFI 1a0e0 .cfa: sp 8 + .ra: .cfa -4 + ^ r11: .cfa -8 + ^
STACK CFI 1a0e4 .cfa: r11 4 +
STACK CFI INIT 15220 48 .cfa: sp 0 + .ra: lr
STACK CFI 15224 .cfa: sp 8 + .ra: .cfa -4 + ^ r11: .cfa -8 + ^
STACK CFI 15228 .cfa: r11 4 +
STACK CFI INIT 1a528 24 .cfa: sp 0 + .ra: lr
STACK CFI 1a52c .cfa: sp 8 + .ra: .cfa -4 + ^ r11: .cfa -8 + ^
STACK CFI 1a530 .cfa: r11 4 +
STACK CFI INIT 3722c 160 .cfa: sp 0 + .ra: lr
STACK CFI 37230 .cfa: sp 8 + .ra: .cfa -4 + ^ r11: .cfa -8 + ^
STACK CFI 37234 .cfa: r11 4 +
STACK CFI INIT 3738c 1c .cfa: sp 0 + .ra: lr
STACK CFI 37390 .cfa: sp 8 + .ra: .cfa -4 + ^ r11: .cfa -8 + ^
STACK CFI 37394 .cfa: r11 4 +
STACK CFI INIT ffb4 14 .cfa: sp 0 + .ra: lr
STACK CFI ffb8 .cfa: sp 4 + r11: .cfa -4 + ^
STACK CFI ffbc .cfa: r11 4 +
STACK CFI INIT 13bac 40 .cfa: sp 0 + .ra: lr
STACK CFI 13bb0 .cfa: sp 4 + r11: .cfa -4 + ^
STACK CFI 13bb4 .cfa: r11 4 +
STACK CFI INIT 10068 40 .cfa: sp 0 + .ra: lr
STACK CFI 1006c .cfa: sp 4 + r11: .cfa -4 + ^
STACK CFI 10070 .cfa: r11 4 +
STACK CFI INIT 100a8 6c .cfa: sp 0 + .ra: lr
STACK CFI 100ac .cfa: sp 16 + .ra: .cfa -4 + ^ r11: .cfa -8 + ^ r4: .cfa -16 + ^ r5: .cfa -12 + ^
STACK CFI 100b0 .cfa: r11 4 +
STACK CFI INIT 10114 6c .cfa: sp 0 + .ra: lr
STACK CFI 10118 .cfa: sp 16 + .ra: .cfa -4 + ^ r11: .cfa -8 + ^ r4: .cfa -16 + ^ r5: .cfa -12 + ^
STACK CFI 1011c .cfa: r11 4 +
STACK CFI INIT 10180 54 .cfa: sp 0 + .ra: lr
STACK CFI 10184 .cfa: sp 8 + .ra: .cfa -4 + ^ r11: .cfa -8 + ^
STACK CFI 10188 .cfa: r11 4 +
STACK CFI INIT 101d4 30 .cfa: sp 0 + .ra: lr
STACK CFI 101d8 .cfa: sp 8 + .ra: .cfa -4 + ^ r11: .cfa -8 + ^
STACK CFI 101dc .cfa: r11 4 +
STACK CFI INIT 10230 84 .cfa: sp 0 + .ra: lr
STACK CFI 10234 .cfa: sp 8 + .ra: .cfa -4 + ^ r11: .cfa -8 + ^
STACK CFI 10238 .cfa: r11 4 +
STACK CFI INIT 13c70 28 .cfa: sp 0 + .ra: lr
STACK CFI 13c74 .cfa: sp 4 + r11: .cfa -4 + ^
STACK CFI 13c78 .cfa: r11 4 +
STACK CFI INIT 102e4 3c .cfa: sp 0 + .ra: lr
STACK CFI 102e8 .cfa: sp 8 + .ra: .cfa -4 + ^ r11: .cfa -8 + ^
STACK CFI 102ec .cfa: r11 4 +
STACK CFI INIT 18ae8 3c .cfa: sp 0 + .ra: lr
STACK CFI 18aec .cfa: sp 4 + r11: .cfa -4 + ^
STACK CFI 18af0 .cfa: r11 4 +
STACK CFI INIT 103f4 40 .cfa: sp 0 + .ra: lr
STACK CFI 103f8 .cfa: sp 8 + .ra: .cfa -4 + ^ r11: .cfa -8 + ^
STACK CFI 103fc .cfa: r11 4 +
STACK CFI INIT 10434 54 .cfa: sp 0 + .ra: lr
STACK CFI 10438 .cfa: sp 8 + .ra: .cfa -4 + ^ r11: .cfa -8 + ^
STACK CFI 1043c .cfa: r11 4 +
STACK CFI INIT 18b94 3c .cfa: sp 0 + .ra: lr
STACK CFI 18b98 .cfa: sp 4 + r11: .cfa -4 + ^
STACK CFI 18b9c .cfa: r11 4 +
STACK CFI INIT 18bd0 54 .cfa: sp 0 + .ra: lr
STACK CFI 18bd4 .cfa: sp 4 + r11: .cfa -4 + ^
STACK CFI 18bd8 .cfa: r11 4 +
STACK CFI INIT 13cb8 40 .cfa: sp 0 + .ra: lr
STACK CFI 13cbc .cfa: sp 8 + .ra: .cfa -4 + ^ r11: .cfa -8 + ^
STACK CFI 13cc0 .cfa: r11 4 +
STACK CFI INIT 13cf8 28 .cfa: sp 0 + .ra: lr
STACK CFI 13cfc .cfa: sp 4 + r11: .cfa -4 + ^
STACK CFI 13d00 .cfa: r11 4 +
STACK CFI INIT 13fb8 24 .cfa: sp 0 + .ra: lr
STACK CFI 13fbc .cfa: sp 4 + r11: .cfa -4 + ^
STACK CFI 13fc0 .cfa: r11 4 +
STACK CFI INIT 13ff4 34 .cfa: sp 0 + .ra: lr
STACK CFI 13ff8 .cfa: sp 4 + r11: .cfa -4 + ^
STACK CFI 13ffc .cfa: r11 4 +
STACK CFI INIT 14028 44 .cfa: sp 0 + .ra: lr
STACK CFI 1402c .cfa: sp 8 + .ra: .cfa -4 + ^ r11: .cfa -8 + ^
STACK CFI 14030 .cfa: r11 4 +
STACK CFI INIT 1406c 30 .cfa: sp 0 + .ra: lr
STACK CFI 14070 .cfa: sp 8 + .ra: .cfa -4 + ^ r11: .cfa -8 + ^
STACK CFI 14074 .cfa: r11 4 +
STACK CFI INIT 1409c b4 .cfa: sp 0 + .ra: lr
STACK CFI 140a0 .cfa: sp 24 + .ra: .cfa -4 + ^ r11: .cfa -8 + ^ r3: .cfa -24 + ^ r4: .cfa -20 + ^ r5: .cfa -16 + ^ r6: .cfa -12 + ^
STACK CFI 140a4 .cfa: r11 4 +
STACK CFI INIT 35870 2c .cfa: sp 0 + .ra: lr
STACK CFI 35874 .cfa: sp 8 + .ra: .cfa -4 + ^ r11: .cfa -8 + ^
STACK CFI 35878 .cfa: r11 4 +
STACK CFI INIT 19158 1c .cfa: sp 0 + .ra: lr
STACK CFI 1915c .cfa: sp 4 + r11: .cfa -4 + ^
STACK CFI 19160 .cfa: r11 4 +
STACK CFI INIT 19174 60 .cfa: sp 0 + .ra: lr
STACK CFI 19178 .cfa: sp 4 + r11: .cfa -4 + ^
STACK CFI 1917c .cfa: r11 4 +
STACK CFI INIT 191d4 24 .cfa: sp 0 + .ra: lr
STACK CFI 191d8 .cfa: sp 4 + r11: .cfa -4 + ^
STACK CFI 191dc .cfa: r11 4 +
STACK CFI INIT 191f8 50 .cfa: sp 0 + .ra: lr
STACK CFI 191fc .cfa: sp 8 + .ra: .cfa -4 + ^ r11: .cfa -8 + ^
STACK CFI 19200 .cfa: r11 4 +
STACK CFI INIT 19248 2c .cfa: sp 0 + .ra: lr
STACK CFI 1924c .cfa: sp 8 + .ra: .cfa -4 + ^ r11: .cfa -8 + ^
STACK CFI 19250 .cfa: r11 4 +
STACK CFI INIT 19274 68 .cfa: sp 0 + .ra: lr
STACK CFI 19278 .cfa: sp 8 + .ra: .cfa -4 + ^ r11: .cfa -8 + ^
STACK CFI 1927c .cfa: r11 4 +
STACK CFI INIT 39dd8 54 .cfa: sp 0 + .ra: lr
STACK CFI 39ddc .cfa: sp 4 + r11: .cfa -4 + ^
STACK CFI 39de0 .cfa: r11 4 +
STACK CFI INIT 39e2c 3c .cfa: sp 0 + .ra: lr
STACK CFI 39e30 .cfa: sp 4 + r11: .cfa -4 + ^
STACK CFI 39e34 .cfa: r11 4 +
STACK CFI INIT 104d4 a8 .cfa: sp 0 + .ra: lr
STACK CFI 104d8 .cfa: sp 16 + .ra: .cfa -4 + ^ r11: .cfa -8 + ^ r4: .cfa -16 + ^ r5: .cfa -12 + ^
STACK CFI 104dc .cfa: r11 4 +
STACK CFI INIT 1057c 54 .cfa: sp 0 + .ra: lr
STACK CFI 10580 .cfa: sp 12 + .ra: .cfa -4 + ^ r11: .cfa -8 + ^ r4: .cfa -12 + ^
STACK CFI 10584 .cfa: r11 4 +
STACK CFI INIT 18fe0 4c .cfa: sp 0 + .ra: lr
STACK CFI 18fe4 .cfa: sp 4 + r11: .cfa -4 + ^
STACK CFI 18fe8 .cfa: r11 4 +
STACK CFI INIT 105d0 50 .cfa: sp 0 + .ra: lr
STACK CFI 105d4 .cfa: sp 8 + .ra: .cfa -4 + ^ r11: .cfa -8 + ^
STACK CFI 105d8 .cfa: r11 4 +
STACK CFI INIT 10620 e8 .cfa: sp 0 + .ra: lr
STACK CFI 10624 .cfa: sp 12 + .ra: .cfa -4 + ^ r11: .cfa -8 + ^ r4: .cfa -12 + ^
STACK CFI 10628 .cfa: r11 4 +
STACK CFI INIT 10708 48 .cfa: sp 0 + .ra: lr
STACK CFI 1070c .cfa: sp 8 + .ra: .cfa -4 + ^ r11: .cfa -8 + ^
STACK CFI 10710 .cfa: r11 4 +
STACK CFI INIT 190a4 68 .cfa: sp 0 + .ra: lr
STACK CFI 190a8 .cfa: sp 8 + .ra: .cfa -4 + ^ r11: .cfa -8 + ^
STACK CFI 190ac .cfa: r11 4 +
STACK CFI INIT 10750 40 .cfa: sp 0 + .ra: lr
STACK CFI 10754 .cfa: sp 8 + .ra: .cfa -4 + ^ r11: .cfa -8 + ^
STACK CFI 10758 .cfa: r11 4 +
STACK CFI INIT 10790 7c .cfa: sp 0 + .ra: lr
STACK CFI 10794 .cfa: sp 12 + .ra: .cfa -4 + ^ r11: .cfa -8 + ^ r4: .cfa -12 + ^
STACK CFI 10798 .cfa: r11 4 +
STACK CFI INIT 1080c 60 .cfa: sp 0 + .ra: lr
STACK CFI 10810 .cfa: sp 8 + .ra: .cfa -4 + ^ r11: .cfa -8 + ^
STACK CFI 10814 .cfa: r11 4 +
STACK CFI INIT 1086c 28 .cfa: sp 0 + .ra: lr
STACK CFI 10870 .cfa: sp 8 + .ra: .cfa -4 + ^ r11: .cfa -8 + ^
STACK CFI 10874 .cfa: r11 4 +
STACK CFI INIT 1425c 28 .cfa: sp 0 + .ra: lr
STACK CFI 14260 .cfa: sp 8 + .ra: .cfa -4 + ^ r11: .cfa -8 + ^
STACK CFI 14264 .cfa: r11 4 +
STACK CFI INIT 21540 34 .cfa: sp 0 + .ra: lr
STACK CFI 21544 .cfa: sp 4 + r11: .cfa -4 + ^
STACK CFI 21548 .cfa: r11 4 +
STACK CFI INIT 21574 44 .cfa: sp 0 + .ra: lr
STACK CFI 21578 .cfa: sp 8 + .ra: .cfa -4 + ^ r11: .cfa -8 + ^
STACK CFI 2157c .cfa: r11 4 +
STACK CFI INIT 215b8 30 .cfa: sp 0 + .ra: lr
STACK CFI 215bc .cfa: sp 8 + .ra: .cfa -4 + ^ r11: .cfa -8 + ^
STACK CFI 215c0 .cfa: r11 4 +
STACK CFI INIT 215e8 b4 .cfa: sp 0 + .ra: lr
STACK CFI 215ec .cfa: sp 24 + .ra: .cfa -4 + ^ r11: .cfa -8 + ^ r3: .cfa -24 + ^ r4: .cfa -20 + ^ r5: .cfa -16 + ^ r6: .cfa -12 + ^
STACK CFI 215f0 .cfa: r11 4 +
STACK CFI INIT 18fac 34 .cfa: sp 0 + .ra: lr
STACK CFI 18fb0 .cfa: sp 8 + .ra: .cfa -4 + ^ r11: .cfa -8 + ^
STACK CFI 18fb4 .cfa: r11 4 +
STACK CFI INIT 14150 2c .cfa: sp 0 + .ra: lr
STACK CFI 14154 .cfa: sp 8 + .ra: .cfa -4 + ^ r11: .cfa -8 + ^
STACK CFI 14158 .cfa: r11 4 +
STACK CFI INIT 39e68 2c .cfa: sp 0 + .ra: lr
STACK CFI 39e6c .cfa: sp 8 + .ra: .cfa -4 + ^ r11: .cfa -8 + ^
STACK CFI 39e70 .cfa: r11 4 +
STACK CFI INIT 1417c 70 .cfa: sp 0 + .ra: lr
STACK CFI 14180 .cfa: sp 8 + .ra: .cfa -4 + ^ r11: .cfa -8 + ^
STACK CFI 14184 .cfa: r11 4 +
STACK CFI INIT 14284 98 .cfa: sp 0 + .ra: lr
STACK CFI 14288 .cfa: sp 16 + .ra: .cfa -4 + ^ r11: .cfa -8 + ^ r3: .cfa -16 + ^ r4: .cfa -12 + ^
STACK CFI 1428c .cfa: r11 4 +
STACK CFI INIT 39e94 38 .cfa: sp 0 + .ra: lr
STACK CFI 39e98 .cfa: sp 8 + .ra: .cfa -4 + ^ r11: .cfa -8 + ^
STACK CFI 39e9c .cfa: r11 4 +
STACK CFI INIT 39ecc 28 .cfa: sp 0 + .ra: lr
STACK CFI 39ed0 .cfa: sp 8 + .ra: .cfa -4 + ^ r11: .cfa -8 + ^
STACK CFI 39ed4 .cfa: r11 4 +
STACK CFI INIT 374a4 13c .cfa: sp 0 + .ra: lr
STACK CFI 374a8 .cfa: sp 16 + .ra: .cfa -4 + ^ r11: .cfa -8 + ^ r4: .cfa -16 + ^ r5: .cfa -12 + ^
STACK CFI 374ac .cfa: r11 4 +
STACK CFI INIT 375e0 e4 .cfa: sp 0 + .ra: lr
STACK CFI 375e4 .cfa: sp 8 + .ra: .cfa -4 + ^ r11: .cfa -8 + ^
STACK CFI 375e8 .cfa: r11 4 +
STACK CFI INIT 376c4 8 .cfa: sp 0 + .ra: lr
STACK CFI INIT 376cc 8 .cfa: sp 0 + .ra: lr
STACK CFI INIT 376d4 8 .cfa: sp 0 + .ra: lr
STACK CFI INIT 376dc 30 .cfa: sp 0 + .ra: lr
STACK CFI 376e0 .cfa: sp 8 + .ra: .cfa -4 + ^ r11: .cfa -8 + ^
STACK CFI 376e4 .cfa: r11 4 +
STACK CFI INIT 3770c 8 .cfa: sp 0 + .ra: lr
STACK CFI INIT 37714 8 .cfa: sp 0 + .ra: lr
STACK CFI INIT 3771c 8 .cfa: sp 0 + .ra: lr
STACK CFI INIT 37724 ac .cfa: sp 0 + .ra: lr
STACK CFI 37728 .cfa: sp 8 + .ra: .cfa -4 + ^ r11: .cfa -8 + ^
STACK CFI 3772c .cfa: r11 4 +
STACK CFI INIT 377d0 154 .cfa: sp 0 + .ra: lr
STACK CFI 377d4 .cfa: sp 20 + .ra: .cfa -4 + ^ r11: .cfa -8 + ^ r4: .cfa -20 + ^ r5: .cfa -16 + ^ r6: .cfa -12 + ^
STACK CFI 377d8 .cfa: r11 4 +
STACK CFI INIT 37924 20 .cfa: sp 0 + .ra: lr
STACK CFI 37928 .cfa: sp 4 + r11: .cfa -4 + ^
STACK CFI 3792c .cfa: r11 4 +
STACK CFI INIT 37944 1c8 .cfa: sp 0 + .ra: lr
STACK CFI 37948 .cfa: sp 12 + .ra: .cfa -4 + ^ r11: .cfa -8 + ^ r4: .cfa -12 + ^
STACK CFI 3794c .cfa: r11 4 +
STACK CFI INIT 37b0c 460 .cfa: sp 0 + .ra: lr
STACK CFI 37b10 .cfa: sp 12 + .ra: .cfa -4 + ^ r11: .cfa -8 + ^ r4: .cfa -12 + ^
STACK CFI 37b14 .cfa: r11 4 +
STACK CFI INIT 37f6c 8 .cfa: sp 0 + .ra: lr
STACK CFI INIT 37f74 350 .cfa: sp 0 + .ra: lr
STACK CFI 37f78 .cfa: sp 8 + .ra: .cfa -4 + ^ r11: .cfa -8 + ^
STACK CFI 37f7c .cfa: r11 4 +
STACK CFI INIT 382c4 8 .cfa: sp 0 + .ra: lr
STACK CFI INIT 19338 2c .cfa: sp 0 + .ra: lr
STACK CFI 1933c .cfa: sp 8 + .ra: .cfa -4 + ^ r11: .cfa -8 + ^
STACK CFI 19340 .cfa: r11 4 +
STACK CFI INIT 382cc ef4 .cfa: sp 0 + .ra: lr
STACK CFI 382d0 .cfa: sp 24 + .ra: .cfa -4 + ^ r11: .cfa -8 + ^ r4: .cfa -24 + ^ r5: .cfa -20 + ^ r6: .cfa -16 + ^ r7: .cfa -12 + ^
STACK CFI 382d4 .cfa: r11 4 +
STACK CFI INIT 391c0 8 .cfa: sp 0 + .ra: lr
STACK CFI INIT 391c8 228 .cfa: sp 0 + .ra: lr
STACK CFI 391cc .cfa: sp 12 + .ra: .cfa -4 + ^ r11: .cfa -8 + ^ r4: .cfa -12 + ^
STACK CFI 391d0 .cfa: r11 4 +
STACK CFI INIT 393f0 8 .cfa: sp 0 + .ra: lr
STACK CFI INIT 393f8 194 .cfa: sp 0 + .ra: lr
STACK CFI 393fc .cfa: sp 20 + .ra: .cfa -4 + ^ r11: .cfa -8 + ^ r4: .cfa -20 + ^ r5: .cfa -16 + ^ r6: .cfa -12 + ^
STACK CFI 39400 .cfa: r11 4 +
STACK CFI INIT 3958c 8 .cfa: sp 0 + .ra: lr
STACK CFI INIT 39594 3c .cfa: sp 0 + .ra: lr
STACK CFI 39598 .cfa: sp 8 + .ra: .cfa -4 + ^ r11: .cfa -8 + ^
STACK CFI 3959c .cfa: r11 4 +
STACK CFI INIT 395d0 8 .cfa: sp 0 + .ra: lr
STACK CFI INIT 395d8 2ac .cfa: sp 0 + .ra: lr
STACK CFI 395dc .cfa: sp 12 + .ra: .cfa -4 + ^ r11: .cfa -8 + ^ r4: .cfa -12 + ^
STACK CFI 395e0 .cfa: r11 4 +
STACK CFI INIT 39884 34 .cfa: sp 0 + .ra: lr
STACK CFI 39888 .cfa: sp 8 + .ra: .cfa -4 + ^ r11: .cfa -8 + ^
STACK CFI 3988c .cfa: r11 4 +
STACK CFI INIT 398b8 a8 .cfa: sp 0 + .ra: lr
STACK CFI 398bc .cfa: sp 8 + .ra: .cfa -4 + ^ r11: .cfa -8 + ^
STACK CFI 398c0 .cfa: r11 4 +
STACK CFI INIT 39960 24 .cfa: sp 0 + .ra: lr
STACK CFI 39964 .cfa: sp 4 + r11: .cfa -4 + ^
STACK CFI 39968 .cfa: r11 4 +
STACK CFI INIT 39984 188 .cfa: sp 0 + .ra: lr
STACK CFI 39988 .cfa: sp 12 + .ra: .cfa -4 + ^ r11: .cfa -8 + ^ r4: .cfa -12 + ^
STACK CFI 3998c .cfa: r11 4 +
STACK CFI INIT 39b0c 38 .cfa: sp 0 + .ra: lr
STACK CFI 39b10 .cfa: sp 8 + .ra: .cfa -4 + ^ r11: .cfa -8 + ^
STACK CFI 39b14 .cfa: r11 4 +
STACK CFI INIT 39b44 19c .cfa: sp 0 + .ra: lr
STACK CFI 39b48 .cfa: sp 20 + .ra: .cfa -4 + ^ r11: .cfa -8 + ^ r4: .cfa -20 + ^ r5: .cfa -16 + ^ r6: .cfa -12 + ^
STACK CFI 39b4c .cfa: r11 4 +
STACK CFI INIT 1094c 34 .cfa: sp 0 + .ra: lr
STACK CFI 10950 .cfa: sp 4 + r11: .cfa -4 + ^
STACK CFI 10954 .cfa: r11 4 +
STACK CFI INIT 145d0 40 .cfa: sp 0 + .ra: lr
STACK CFI 145d4 .cfa: sp 8 + .ra: .cfa -4 + ^ r11: .cfa -8 + ^
STACK CFI 145d8 .cfa: r11 4 +
STACK CFI INIT 14610 7c .cfa: sp 0 + .ra: lr
STACK CFI 14614 .cfa: sp 8 + .ra: .cfa -4 + ^ r11: .cfa -8 + ^
STACK CFI 14618 .cfa: r11 4 +
STACK CFI INIT 146b4 34 .cfa: sp 0 + .ra: lr
STACK CFI 146b8 .cfa: sp 4 + r11: .cfa -4 + ^
STACK CFI 146bc .cfa: r11 4 +
STACK CFI INIT 39ef4 34 .cfa: sp 0 + .ra: lr
STACK CFI 39ef8 .cfa: sp 4 + r11: .cfa -4 + ^
STACK CFI 39efc .cfa: r11 4 +
STACK CFI INIT 39f28 40 .cfa: sp 0 + .ra: lr
STACK CFI 39f2c .cfa: sp 8 + .ra: .cfa -4 + ^ r11: .cfa -8 + ^
STACK CFI 39f30 .cfa: r11 4 +
STACK CFI INIT 39f68 54 .cfa: sp 0 + .ra: lr
STACK CFI 39f6c .cfa: sp 8 + .ra: .cfa -4 + ^ r11: .cfa -8 + ^
STACK CFI 39f70 .cfa: r11 4 +
STACK CFI INIT 196d4 28 .cfa: sp 0 + .ra: lr
STACK CFI 196d8 .cfa: sp 8 + .ra: .cfa -4 + ^ r11: .cfa -8 + ^
STACK CFI 196dc .cfa: r11 4 +
STACK CFI INIT 196fc 28 .cfa: sp 0 + .ra: lr
STACK CFI 19700 .cfa: sp 8 + .ra: .cfa -4 + ^ r11: .cfa -8 + ^
STACK CFI 19704 .cfa: r11 4 +
STACK CFI INIT 39fbc 90 .cfa: sp 0 + .ra: lr
STACK CFI 39fc0 .cfa: sp 8 + .ra: .cfa -4 + ^ r11: .cfa -8 + ^
STACK CFI 39fc4 .cfa: r11 4 +
STACK CFI INIT 19724 28 .cfa: sp 0 + .ra: lr
STACK CFI 19728 .cfa: sp 8 + .ra: .cfa -4 + ^ r11: .cfa -8 + ^
STACK CFI 1972c .cfa: r11 4 +
STACK CFI INIT 1974c 54 .cfa: sp 0 + .ra: lr
STACK CFI 19750 .cfa: sp 8 + .ra: .cfa -4 + ^ r11: .cfa -8 + ^
STACK CFI 19754 .cfa: r11 4 +
STACK CFI INIT 197a0 a0 .cfa: sp 0 + .ra: lr
STACK CFI 197a4 .cfa: sp 12 + .ra: .cfa -4 + ^ r11: .cfa -8 + ^ r4: .cfa -12 + ^
STACK CFI 197a8 .cfa: r11 4 +
STACK CFI INIT 19840 30 .cfa: sp 0 + .ra: lr
STACK CFI 19844 .cfa: sp 8 + .ra: .cfa -4 + ^ r11: .cfa -8 + ^
STACK CFI 19848 .cfa: r11 4 +
STACK CFI INIT 14c14 88 .cfa: sp 0 + .ra: lr
STACK CFI 14c18 .cfa: sp 8 + .ra: .cfa -4 + ^ r11: .cfa -8 + ^
STACK CFI 14c1c .cfa: r11 4 +
STACK CFI INIT 3a04c 34 .cfa: sp 0 + .ra: lr
STACK CFI 3a050 .cfa: sp 12 + .ra: .cfa -4 + ^ r11: .cfa -8 + ^ r4: .cfa -12 + ^
STACK CFI 3a054 .cfa: r11 4 +
STACK CFI INIT 1a07c 38 .cfa: sp 0 + .ra: lr
STACK CFI 1a080 .cfa: sp 8 + .ra: .cfa -4 + ^ r11: .cfa -8 + ^
STACK CFI 1a084 .cfa: r11 4 +
STACK CFI INIT 1a0b4 28 .cfa: sp 0 + .ra: lr
STACK CFI 1a0b8 .cfa: sp 8 + .ra: .cfa -4 + ^ r11: .cfa -8 + ^
STACK CFI 1a0bc .cfa: r11 4 +
STACK CFI INIT 3a080 24 .cfa: sp 0 + .ra: lr
STACK CFI 3a084 .cfa: sp 4 + r11: .cfa -4 + ^
STACK CFI 3a088 .cfa: r11 4 +
STACK CFI INIT 1a0dc 17c .cfa: sp 0 + .ra: lr
STACK CFI 1a0e0 .cfa: sp 8 + .ra: .cfa -4 + ^ r11: .cfa -8 + ^
STACK CFI 1a0e4 .cfa: r11 4 +
STACK CFI INIT 15220 48 .cfa: sp 0 + .ra: lr
STACK CFI 15224 .cfa: sp 8 + .ra: .cfa -4 + ^ r11: .cfa -8 + ^
STACK CFI 15228 .cfa: r11 4 +
STACK CFI INIT 1a528 24 .cfa: sp 0 + .ra: lr
STACK CFI 1a52c .cfa: sp 8 + .ra: .cfa -4 + ^ r11: .cfa -8 + ^
STACK CFI 1a530 .cfa: r11 4 +
STACK CFI INIT 1a54c a0 .cfa: sp 0 + .ra: lr
STACK CFI 1a550 .cfa: sp 8 + .ra: .cfa -4 + ^ r11: .cfa -8 + ^
STACK CFI 1a554 .cfa: r11 4 +
STACK CFI INIT 39ce0 dc .cfa: sp 0 + .ra: lr
STACK CFI 39ce4 .cfa: sp 8 + .ra: .cfa -4 + ^ r11: .cfa -8 + ^
STACK CFI 39ce8 .cfa: r11 4 +
STACK CFI INIT 39dbc 1c .cfa: sp 0 + .ra: lr
STACK CFI 39dc0 .cfa: sp 8 + .ra: .cfa -4 + ^ r11: .cfa -8 + ^
STACK CFI 39dc4 .cfa: r11 4 +
STACK CFI INIT ffb4 14 .cfa: sp 0 + .ra: lr
STACK CFI ffb8 .cfa: sp 4 + r11: .cfa -4 + ^
STACK CFI ffbc .cfa: r11 4 +
STACK CFI INIT 13bac 40 .cfa: sp 0 + .ra: lr
STACK CFI 13bb0 .cfa: sp 4 + r11: .cfa -4 + ^
STACK CFI 13bb4 .cfa: r11 4 +
STACK CFI INIT 10068 40 .cfa: sp 0 + .ra: lr
STACK CFI 1006c .cfa: sp 4 + r11: .cfa -4 + ^
STACK CFI 10070 .cfa: r11 4 +
STACK CFI INIT 100a8 6c .cfa: sp 0 + .ra: lr
STACK CFI 100ac .cfa: sp 16 + .ra: .cfa -4 + ^ r11: .cfa -8 + ^ r4: .cfa -16 + ^ r5: .cfa -12 + ^
STACK CFI 100b0 .cfa: r11 4 +
STACK CFI INIT 10114 6c .cfa: sp 0 + .ra: lr
STACK CFI 10118 .cfa: sp 16 + .ra: .cfa -4 + ^ r11: .cfa -8 + ^ r4: .cfa -16 + ^ r5: .cfa -12 + ^
STACK CFI 1011c .cfa: r11 4 +
STACK CFI INIT 10180 54 .cfa: sp 0 + .ra: lr
STACK CFI 10184 .cfa: sp 8 + .ra: .cfa -4 + ^ r11: .cfa -8 + ^
STACK CFI 10188 .cfa: r11 4 +
STACK CFI INIT 101d4 30 .cfa: sp 0 + .ra: lr
STACK CFI 101d8 .cfa: sp 8 + .ra: .cfa -4 + ^ r11: .cfa -8 + ^
STACK CFI 101dc .cfa: r11 4 +
STACK CFI INIT 10230 84 .cfa: sp 0 + .ra: lr
STACK CFI 10234 .cfa: sp 8 + .ra: .cfa -4 + ^ r11: .cfa -8 + ^
STACK CFI 10238 .cfa: r11 4 +
STACK CFI INIT 13c70 28 .cfa: sp 0 + .ra: lr
STACK CFI 13c74 .cfa: sp 4 + r11: .cfa -4 + ^
STACK CFI 13c78 .cfa: r11 4 +
STACK CFI INIT 102e4 3c .cfa: sp 0 + .ra: lr
STACK CFI 102e8 .cfa: sp 8 + .ra: .cfa -4 + ^ r11: .cfa -8 + ^
STACK CFI 102ec .cfa: r11 4 +
STACK CFI INIT 18ae8 3c .cfa: sp 0 + .ra: lr
STACK CFI 18aec .cfa: sp 4 + r11: .cfa -4 + ^
STACK CFI 18af0 .cfa: r11 4 +
STACK CFI INIT 103f4 40 .cfa: sp 0 + .ra: lr
STACK CFI 103f8 .cfa: sp 8 + .ra: .cfa -4 + ^ r11: .cfa -8 + ^
STACK CFI 103fc .cfa: r11 4 +
STACK CFI INIT 10434 54 .cfa: sp 0 + .ra: lr
STACK CFI 10438 .cfa: sp 8 + .ra: .cfa -4 + ^ r11: .cfa -8 + ^
STACK CFI 1043c .cfa: r11 4 +
STACK CFI INIT 13cb8 40 .cfa: sp 0 + .ra: lr
STACK CFI 13cbc .cfa: sp 8 + .ra: .cfa -4 + ^ r11: .cfa -8 + ^
STACK CFI 13cc0 .cfa: r11 4 +
STACK CFI INIT 13cf8 28 .cfa: sp 0 + .ra: lr
STACK CFI 13cfc .cfa: sp 4 + r11: .cfa -4 + ^
STACK CFI 13d00 .cfa: r11 4 +
STACK CFI INIT 13fb8 24 .cfa: sp 0 + .ra: lr
STACK CFI 13fbc .cfa: sp 4 + r11: .cfa -4 + ^
STACK CFI 13fc0 .cfa: r11 4 +
STACK CFI INIT 13ff4 34 .cfa: sp 0 + .ra: lr
STACK CFI 13ff8 .cfa: sp 4 + r11: .cfa -4 + ^
STACK CFI 13ffc .cfa: r11 4 +
STACK CFI INIT 14028 44 .cfa: sp 0 + .ra: lr
STACK CFI 1402c .cfa: sp 8 + .ra: .cfa -4 + ^ r11: .cfa -8 + ^
STACK CFI 14030 .cfa: r11 4 +
STACK CFI INIT 1406c 30 .cfa: sp 0 + .ra: lr
STACK CFI 14070 .cfa: sp 8 + .ra: .cfa -4 + ^ r11: .cfa -8 + ^
STACK CFI 14074 .cfa: r11 4 +
STACK CFI INIT 1409c b4 .cfa: sp 0 + .ra: lr
STACK CFI 140a0 .cfa: sp 24 + .ra: .cfa -4 + ^ r11: .cfa -8 + ^ r3: .cfa -24 + ^ r4: .cfa -20 + ^ r5: .cfa -16 + ^ r6: .cfa -12 + ^
STACK CFI 140a4 .cfa: r11 4 +
STACK CFI INIT 19158 1c .cfa: sp 0 + .ra: lr
STACK CFI 1915c .cfa: sp 4 + r11: .cfa -4 + ^
STACK CFI 19160 .cfa: r11 4 +
STACK CFI INIT 19174 60 .cfa: sp 0 + .ra: lr
STACK CFI 19178 .cfa: sp 4 + r11: .cfa -4 + ^
STACK CFI 1917c .cfa: r11 4 +
STACK CFI INIT 191d4 24 .cfa: sp 0 + .ra: lr
STACK CFI 191d8 .cfa: sp 4 + r11: .cfa -4 + ^
STACK CFI 191dc .cfa: r11 4 +
STACK CFI INIT 191f8 50 .cfa: sp 0 + .ra: lr
STACK CFI 191fc .cfa: sp 8 + .ra: .cfa -4 + ^ r11: .cfa -8 + ^
STACK CFI 19200 .cfa: r11 4 +
STACK CFI INIT 19248 2c .cfa: sp 0 + .ra: lr
STACK CFI 1924c .cfa: sp 8 + .ra: .cfa -4 + ^ r11: .cfa -8 + ^
STACK CFI 19250 .cfa: r11 4 +
STACK CFI INIT 19274 68 .cfa: sp 0 + .ra: lr
STACK CFI 19278 .cfa: sp 8 + .ra: .cfa -4 + ^ r11: .cfa -8 + ^
STACK CFI 1927c .cfa: r11 4 +
STACK CFI INIT 39dd8 54 .cfa: sp 0 + .ra: lr
STACK CFI 39ddc .cfa: sp 4 + r11: .cfa -4 + ^
STACK CFI 39de0 .cfa: r11 4 +
STACK CFI INIT 39e2c 3c .cfa: sp 0 + .ra: lr
STACK CFI 39e30 .cfa: sp 4 + r11: .cfa -4 + ^
STACK CFI 39e34 .cfa: r11 4 +
STACK CFI INIT 104d4 a8 .cfa: sp 0 + .ra: lr
STACK CFI 104d8 .cfa: sp 16 + .ra: .cfa -4 + ^ r11: .cfa -8 + ^ r4: .cfa -16 + ^ r5: .cfa -12 + ^
STACK CFI 104dc .cfa: r11 4 +
STACK CFI INIT 1057c 54 .cfa: sp 0 + .ra: lr
STACK CFI 10580 .cfa: sp 12 + .ra: .cfa -4 + ^ r11: .cfa -8 + ^ r4: .cfa -12 + ^
STACK CFI 10584 .cfa: r11 4 +
STACK CFI INIT 18fe0 4c .cfa: sp 0 + .ra: lr
STACK CFI 18fe4 .cfa: sp 4 + r11: .cfa -4 + ^
STACK CFI 18fe8 .cfa: r11 4 +
STACK CFI INIT 105d0 50 .cfa: sp 0 + .ra: lr
STACK CFI 105d4 .cfa: sp 8 + .ra: .cfa -4 + ^ r11: .cfa -8 + ^
STACK CFI 105d8 .cfa: r11 4 +
STACK CFI INIT 10620 e8 .cfa: sp 0 + .ra: lr
STACK CFI 10624 .cfa: sp 12 + .ra: .cfa -4 + ^ r11: .cfa -8 + ^ r4: .cfa -12 + ^
STACK CFI 10628 .cfa: r11 4 +
STACK CFI INIT 10708 48 .cfa: sp 0 + .ra: lr
STACK CFI 1070c .cfa: sp 8 + .ra: .cfa -4 + ^ r11: .cfa -8 + ^
STACK CFI 10710 .cfa: r11 4 +
STACK CFI INIT 190a4 68 .cfa: sp 0 + .ra: lr
STACK CFI 190a8 .cfa: sp 8 + .ra: .cfa -4 + ^ r11: .cfa -8 + ^
STACK CFI 190ac .cfa: r11 4 +
STACK CFI INIT 10750 40 .cfa: sp 0 + .ra: lr
STACK CFI 10754 .cfa: sp 8 + .ra: .cfa -4 + ^ r11: .cfa -8 + ^
STACK CFI 10758 .cfa: r11 4 +
STACK CFI INIT 10790 7c .cfa: sp 0 + .ra: lr
STACK CFI 10794 .cfa: sp 12 + .ra: .cfa -4 + ^ r11: .cfa -8 + ^ r4: .cfa -12 + ^
STACK CFI 10798 .cfa: r11 4 +
STACK CFI INIT 1080c 60 .cfa: sp 0 + .ra: lr
STACK CFI 10810 .cfa: sp 8 + .ra: .cfa -4 + ^ r11: .cfa -8 + ^
STACK CFI 10814 .cfa: r11 4 +
STACK CFI INIT 1086c 28 .cfa: sp 0 + .ra: lr
STACK CFI 10870 .cfa: sp 8 + .ra: .cfa -4 + ^ r11: .cfa -8 + ^
STACK CFI 10874 .cfa: r11 4 +
STACK CFI INIT 21540 34 .cfa: sp 0 + .ra: lr
STACK CFI 21544 .cfa: sp 4 + r11: .cfa -4 + ^
STACK CFI 21548 .cfa: r11 4 +
STACK CFI INIT 21574 44 .cfa: sp 0 + .ra: lr
STACK CFI 21578 .cfa: sp 8 + .ra: .cfa -4 + ^ r11: .cfa -8 + ^
STACK CFI 2157c .cfa: r11 4 +
STACK CFI INIT 215b8 30 .cfa: sp 0 + .ra: lr
STACK CFI 215bc .cfa: sp 8 + .ra: .cfa -4 + ^ r11: .cfa -8 + ^
STACK CFI 215c0 .cfa: r11 4 +
STACK CFI INIT 215e8 b4 .cfa: sp 0 + .ra: lr
STACK CFI 215ec .cfa: sp 24 + .ra: .cfa -4 + ^ r11: .cfa -8 + ^ r3: .cfa -24 + ^ r4: .cfa -20 + ^ r5: .cfa -16 + ^ r6: .cfa -12 + ^
STACK CFI 215f0 .cfa: r11 4 +
STACK CFI INIT 18fac 34 .cfa: sp 0 + .ra: lr
STACK CFI 18fb0 .cfa: sp 8 + .ra: .cfa -4 + ^ r11: .cfa -8 + ^
STACK CFI 18fb4 .cfa: r11 4 +
STACK CFI INIT 14150 2c .cfa: sp 0 + .ra: lr
STACK CFI 14154 .cfa: sp 8 + .ra: .cfa -4 + ^ r11: .cfa -8 + ^
STACK CFI 14158 .cfa: r11 4 +
STACK CFI INIT 39e68 2c .cfa: sp 0 + .ra: lr
STACK CFI 39e6c .cfa: sp 8 + .ra: .cfa -4 + ^ r11: .cfa -8 + ^
STACK CFI 39e70 .cfa: r11 4 +
STACK CFI INIT 1417c 70 .cfa: sp 0 + .ra: lr
STACK CFI 14180 .cfa: sp 8 + .ra: .cfa -4 + ^ r11: .cfa -8 + ^
STACK CFI 14184 .cfa: r11 4 +
STACK CFI INIT 14284 98 .cfa: sp 0 + .ra: lr
STACK CFI 14288 .cfa: sp 16 + .ra: .cfa -4 + ^ r11: .cfa -8 + ^ r3: .cfa -16 + ^ r4: .cfa -12 + ^
STACK CFI 1428c .cfa: r11 4 +
STACK CFI INIT 39e94 38 .cfa: sp 0 + .ra: lr
STACK CFI 39e98 .cfa: sp 8 + .ra: .cfa -4 + ^ r11: .cfa -8 + ^
STACK CFI 39e9c .cfa: r11 4 +
STACK CFI INIT 39ecc 28 .cfa: sp 0 + .ra: lr
STACK CFI 39ed0 .cfa: sp 8 + .ra: .cfa -4 + ^ r11: .cfa -8 + ^
STACK CFI 39ed4 .cfa: r11 4 +
STACK CFI INIT 3a0a4 13c .cfa: sp 0 + .ra: lr
STACK CFI 3a0a8 .cfa: sp 16 + .ra: .cfa -4 + ^ r11: .cfa -8 + ^ r4: .cfa -16 + ^ r5: .cfa -12 + ^
STACK CFI 3a0ac .cfa: r11 4 +
STACK CFI INIT 3a1e0 e4 .cfa: sp 0 + .ra: lr
STACK CFI 3a1e4 .cfa: sp 8 + .ra: .cfa -4 + ^ r11: .cfa -8 + ^
STACK CFI 3a1e8 .cfa: r11 4 +
STACK CFI INIT 3a2c4 8 .cfa: sp 0 + .ra: lr
STACK CFI INIT 3a2cc 8 .cfa: sp 0 + .ra: lr
STACK CFI INIT 3a2d4 8 .cfa: sp 0 + .ra: lr
STACK CFI INIT 3a2dc 30 .cfa: sp 0 + .ra: lr
STACK CFI 3a2e0 .cfa: sp 8 + .ra: .cfa -4 + ^ r11: .cfa -8 + ^
STACK CFI 3a2e4 .cfa: r11 4 +
STACK CFI INIT 3a30c 8 .cfa: sp 0 + .ra: lr
STACK CFI INIT 3a314 8 .cfa: sp 0 + .ra: lr
STACK CFI INIT 3a31c 8 .cfa: sp 0 + .ra: lr
STACK CFI INIT 3a324 174 .cfa: sp 0 + .ra: lr
STACK CFI 3a328 .cfa: sp 12 + .ra: .cfa -4 + ^ r11: .cfa -8 + ^ r4: .cfa -12 + ^
STACK CFI 3a32c .cfa: r11 4 +
STACK CFI INIT 3a498 154 .cfa: sp 0 + .ra: lr
STACK CFI 3a49c .cfa: sp 20 + .ra: .cfa -4 + ^ r11: .cfa -8 + ^ r4: .cfa -20 + ^ r5: .cfa -16 + ^ r6: .cfa -12 + ^
STACK CFI 3a4a0 .cfa: r11 4 +
STACK CFI INIT 3a5ec 2c .cfa: sp 0 + .ra: lr
STACK CFI 3a5f0 .cfa: sp 8 + .ra: .cfa -4 + ^ r11: .cfa -8 + ^
STACK CFI 3a5f4 .cfa: r11 4 +
STACK CFI INIT 3a618 1d0 .cfa: sp 0 + .ra: lr
STACK CFI 3a61c .cfa: sp 12 + .ra: .cfa -4 + ^ r11: .cfa -8 + ^ r4: .cfa -12 + ^
STACK CFI 3a620 .cfa: r11 4 +
STACK CFI INIT 3a7e8 3b4 .cfa: sp 0 + .ra: lr
STACK CFI 3a7ec .cfa: sp 8 + .ra: .cfa -4 + ^ r11: .cfa -8 + ^
STACK CFI 3a7f0 .cfa: r11 4 +
STACK CFI INIT 3ab9c 8 .cfa: sp 0 + .ra: lr
STACK CFI INIT 3aba4 31c .cfa: sp 0 + .ra: lr
STACK CFI 3aba8 .cfa: sp 8 + .ra: .cfa -4 + ^ r11: .cfa -8 + ^
STACK CFI 3abac .cfa: r11 4 +
STACK CFI INIT 3aec0 8 .cfa: sp 0 + .ra: lr
STACK CFI INIT 19338 2c .cfa: sp 0 + .ra: lr
STACK CFI 1933c .cfa: sp 8 + .ra: .cfa -4 + ^ r11: .cfa -8 + ^
STACK CFI 19340 .cfa: r11 4 +
STACK CFI INIT 3aec8 c58 .cfa: sp 0 + .ra: lr
STACK CFI 3aecc .cfa: sp 24 + .ra: .cfa -4 + ^ r11: .cfa -8 + ^ r4: .cfa -24 + ^ r5: .cfa -20 + ^ r6: .cfa -16 + ^ r7: .cfa -12 + ^
STACK CFI 3aed0 .cfa: r11 4 +
STACK CFI INIT 3bb20 8 .cfa: sp 0 + .ra: lr
STACK CFI INIT 3bb28 250 .cfa: sp 0 + .ra: lr
STACK CFI 3bb2c .cfa: sp 12 + .ra: .cfa -4 + ^ r11: .cfa -8 + ^ r4: .cfa -12 + ^
STACK CFI 3bb30 .cfa: r11 4 +
STACK CFI INIT 3bd78 8 .cfa: sp 0 + .ra: lr
STACK CFI INIT 3bd80 190 .cfa: sp 0 + .ra: lr
STACK CFI 3bd84 .cfa: sp 20 + .ra: .cfa -4 + ^ r11: .cfa -8 + ^ r4: .cfa -20 + ^ r5: .cfa -16 + ^ r6: .cfa -12 + ^
STACK CFI 3bd88 .cfa: r11 4 +
STACK CFI INIT 3bf10 8 .cfa: sp 0 + .ra: lr
STACK CFI INIT 3bf18 1c8 .cfa: sp 0 + .ra: lr
STACK CFI 3bf1c .cfa: sp 8 + .ra: .cfa -4 + ^ r11: .cfa -8 + ^
STACK CFI 3bf20 .cfa: r11 4 +
STACK CFI INIT 3c0e0 c4 .cfa: sp 0 + .ra: lr
STACK CFI 3c0e4 .cfa: sp 8 + .ra: .cfa -4 + ^ r11: .cfa -8 + ^
STACK CFI 3c0e8 .cfa: r11 4 +
STACK CFI INIT 3c1a4 9c .cfa: sp 0 + .ra: lr
STACK CFI 3c1a8 .cfa: sp 8 + .ra: .cfa -4 + ^ r11: .cfa -8 + ^
STACK CFI 3c1ac .cfa: r11 4 +
STACK CFI INIT 3c240 24 .cfa: sp 0 + .ra: lr
STACK CFI 3c244 .cfa: sp 4 + r11: .cfa -4 + ^
STACK CFI 3c248 .cfa: r11 4 +
STACK CFI INIT 3c264 188 .cfa: sp 0 + .ra: lr
STACK CFI 3c268 .cfa: sp 12 + .ra: .cfa -4 + ^ r11: .cfa -8 + ^ r4: .cfa -12 + ^
STACK CFI 3c26c .cfa: r11 4 +
STACK CFI INIT 3c3ec 38 .cfa: sp 0 + .ra: lr
STACK CFI 3c3f0 .cfa: sp 8 + .ra: .cfa -4 + ^ r11: .cfa -8 + ^
STACK CFI 3c3f4 .cfa: r11 4 +
STACK CFI INIT 3c424 154 .cfa: sp 0 + .ra: lr
STACK CFI 3c428 .cfa: sp 20 + .ra: .cfa -4 + ^ r11: .cfa -8 + ^ r4: .cfa -20 + ^ r5: .cfa -16 + ^ r6: .cfa -12 + ^
STACK CFI 3c42c .cfa: r11 4 +
STACK CFI INIT 1094c 34 .cfa: sp 0 + .ra: lr
STACK CFI 10950 .cfa: sp 4 + r11: .cfa -4 + ^
STACK CFI 10954 .cfa: r11 4 +
STACK CFI INIT 145d0 40 .cfa: sp 0 + .ra: lr
STACK CFI 145d4 .cfa: sp 8 + .ra: .cfa -4 + ^ r11: .cfa -8 + ^
STACK CFI 145d8 .cfa: r11 4 +
STACK CFI INIT 14610 7c .cfa: sp 0 + .ra: lr
STACK CFI 14614 .cfa: sp 8 + .ra: .cfa -4 + ^ r11: .cfa -8 + ^
STACK CFI 14618 .cfa: r11 4 +
STACK CFI INIT 146b4 34 .cfa: sp 0 + .ra: lr
STACK CFI 146b8 .cfa: sp 4 + r11: .cfa -4 + ^
STACK CFI 146bc .cfa: r11 4 +
STACK CFI INIT 3c670 34 .cfa: sp 0 + .ra: lr
STACK CFI 3c674 .cfa: sp 4 + r11: .cfa -4 + ^
STACK CFI 3c678 .cfa: r11 4 +
STACK CFI INIT 3c6a4 40 .cfa: sp 0 + .ra: lr
STACK CFI 3c6a8 .cfa: sp 8 + .ra: .cfa -4 + ^ r11: .cfa -8 + ^
STACK CFI 3c6ac .cfa: r11 4 +
STACK CFI INIT 3c6e4 54 .cfa: sp 0 + .ra: lr
STACK CFI 3c6e8 .cfa: sp 8 + .ra: .cfa -4 + ^ r11: .cfa -8 + ^
STACK CFI 3c6ec .cfa: r11 4 +
STACK CFI INIT 196d4 28 .cfa: sp 0 + .ra: lr
STACK CFI 196d8 .cfa: sp 8 + .ra: .cfa -4 + ^ r11: .cfa -8 + ^
STACK CFI 196dc .cfa: r11 4 +
STACK CFI INIT 196fc 28 .cfa: sp 0 + .ra: lr
STACK CFI 19700 .cfa: sp 8 + .ra: .cfa -4 + ^ r11: .cfa -8 + ^
STACK CFI 19704 .cfa: r11 4 +
STACK CFI INIT 19724 28 .cfa: sp 0 + .ra: lr
STACK CFI 19728 .cfa: sp 8 + .ra: .cfa -4 + ^ r11: .cfa -8 + ^
STACK CFI 1972c .cfa: r11 4 +
STACK CFI INIT 1974c 54 .cfa: sp 0 + .ra: lr
STACK CFI 19750 .cfa: sp 8 + .ra: .cfa -4 + ^ r11: .cfa -8 + ^
STACK CFI 19754 .cfa: r11 4 +
STACK CFI INIT 197a0 a0 .cfa: sp 0 + .ra: lr
STACK CFI 197a4 .cfa: sp 12 + .ra: .cfa -4 + ^ r11: .cfa -8 + ^ r4: .cfa -12 + ^
STACK CFI 197a8 .cfa: r11 4 +
STACK CFI INIT 19840 30 .cfa: sp 0 + .ra: lr
STACK CFI 19844 .cfa: sp 8 + .ra: .cfa -4 + ^ r11: .cfa -8 + ^
STACK CFI 19848 .cfa: r11 4 +
STACK CFI INIT 14c14 88 .cfa: sp 0 + .ra: lr
STACK CFI 14c18 .cfa: sp 8 + .ra: .cfa -4 + ^ r11: .cfa -8 + ^
STACK CFI 14c1c .cfa: r11 4 +
STACK CFI INIT 3c738 34 .cfa: sp 0 + .ra: lr
STACK CFI 3c73c .cfa: sp 12 + .ra: .cfa -4 + ^ r11: .cfa -8 + ^ r4: .cfa -12 + ^
STACK CFI 3c740 .cfa: r11 4 +
STACK CFI INIT 1a07c 38 .cfa: sp 0 + .ra: lr
STACK CFI 1a080 .cfa: sp 8 + .ra: .cfa -4 + ^ r11: .cfa -8 + ^
STACK CFI 1a084 .cfa: r11 4 +
STACK CFI INIT 1a0b4 28 .cfa: sp 0 + .ra: lr
STACK CFI 1a0b8 .cfa: sp 8 + .ra: .cfa -4 + ^ r11: .cfa -8 + ^
STACK CFI 1a0bc .cfa: r11 4 +
STACK CFI INIT 1a0dc 17c .cfa: sp 0 + .ra: lr
STACK CFI 1a0e0 .cfa: sp 8 + .ra: .cfa -4 + ^ r11: .cfa -8 + ^
STACK CFI 1a0e4 .cfa: r11 4 +
STACK CFI INIT 15220 48 .cfa: sp 0 + .ra: lr
STACK CFI 15224 .cfa: sp 8 + .ra: .cfa -4 + ^ r11: .cfa -8 + ^
STACK CFI 15228 .cfa: r11 4 +
STACK CFI INIT 1a528 24 .cfa: sp 0 + .ra: lr
STACK CFI 1a52c .cfa: sp 8 + .ra: .cfa -4 + ^ r11: .cfa -8 + ^
STACK CFI 1a530 .cfa: r11 4 +
STACK CFI INIT 1a54c a0 .cfa: sp 0 + .ra: lr
STACK CFI 1a550 .cfa: sp 8 + .ra: .cfa -4 + ^ r11: .cfa -8 + ^
STACK CFI 1a554 .cfa: r11 4 +
STACK CFI INIT 3c578 dc .cfa: sp 0 + .ra: lr
STACK CFI 3c57c .cfa: sp 8 + .ra: .cfa -4 + ^ r11: .cfa -8 + ^
STACK CFI 3c580 .cfa: r11 4 +
STACK CFI INIT 3c654 1c .cfa: sp 0 + .ra: lr
STACK CFI 3c658 .cfa: sp 8 + .ra: .cfa -4 + ^ r11: .cfa -8 + ^
STACK CFI 3c65c .cfa: r11 4 +
STACK CFI INIT ffb4 14 .cfa: sp 0 + .ra: lr
STACK CFI ffb8 .cfa: sp 4 + r11: .cfa -4 + ^
STACK CFI ffbc .cfa: r11 4 +
STACK CFI INIT 13bac 40 .cfa: sp 0 + .ra: lr
STACK CFI 13bb0 .cfa: sp 4 + r11: .cfa -4 + ^
STACK CFI 13bb4 .cfa: r11 4 +
STACK CFI INIT 10068 40 .cfa: sp 0 + .ra: lr
STACK CFI 1006c .cfa: sp 4 + r11: .cfa -4 + ^
STACK CFI 10070 .cfa: r11 4 +
STACK CFI INIT 100a8 6c .cfa: sp 0 + .ra: lr
STACK CFI 100ac .cfa: sp 16 + .ra: .cfa -4 + ^ r11: .cfa -8 + ^ r4: .cfa -16 + ^ r5: .cfa -12 + ^
STACK CFI 100b0 .cfa: r11 4 +
STACK CFI INIT 10114 6c .cfa: sp 0 + .ra: lr
STACK CFI 10118 .cfa: sp 16 + .ra: .cfa -4 + ^ r11: .cfa -8 + ^ r4: .cfa -16 + ^ r5: .cfa -12 + ^
STACK CFI 1011c .cfa: r11 4 +
STACK CFI INIT 10180 54 .cfa: sp 0 + .ra: lr
STACK CFI 10184 .cfa: sp 8 + .ra: .cfa -4 + ^ r11: .cfa -8 + ^
STACK CFI 10188 .cfa: r11 4 +
STACK CFI INIT 101d4 30 .cfa: sp 0 + .ra: lr
STACK CFI 101d8 .cfa: sp 8 + .ra: .cfa -4 + ^ r11: .cfa -8 + ^
STACK CFI 101dc .cfa: r11 4 +
STACK CFI INIT 10230 84 .cfa: sp 0 + .ra: lr
STACK CFI 10234 .cfa: sp 8 + .ra: .cfa -4 + ^ r11: .cfa -8 + ^
STACK CFI 10238 .cfa: r11 4 +
STACK CFI INIT 13c70 28 .cfa: sp 0 + .ra: lr
STACK CFI 13c74 .cfa: sp 4 + r11: .cfa -4 + ^
STACK CFI 13c78 .cfa: r11 4 +
STACK CFI INIT 102e4 3c .cfa: sp 0 + .ra: lr
STACK CFI 102e8 .cfa: sp 8 + .ra: .cfa -4 + ^ r11: .cfa -8 + ^
STACK CFI 102ec .cfa: r11 4 +
STACK CFI INIT 18ae8 3c .cfa: sp 0 + .ra: lr
STACK CFI 18aec .cfa: sp 4 + r11: .cfa -4 + ^
STACK CFI 18af0 .cfa: r11 4 +
STACK CFI INIT 103f4 40 .cfa: sp 0 + .ra: lr
STACK CFI 103f8 .cfa: sp 8 + .ra: .cfa -4 + ^ r11: .cfa -8 + ^
STACK CFI 103fc .cfa: r11 4 +
STACK CFI INIT 10434 54 .cfa: sp 0 + .ra: lr
STACK CFI 10438 .cfa: sp 8 + .ra: .cfa -4 + ^ r11: .cfa -8 + ^
STACK CFI 1043c .cfa: r11 4 +
STACK CFI INIT 18b94 3c .cfa: sp 0 + .ra: lr
STACK CFI 18b98 .cfa: sp 4 + r11: .cfa -4 + ^
STACK CFI 18b9c .cfa: r11 4 +
STACK CFI INIT 18bd0 54 .cfa: sp 0 + .ra: lr
STACK CFI 18bd4 .cfa: sp 4 + r11: .cfa -4 + ^
STACK CFI 18bd8 .cfa: r11 4 +
STACK CFI INIT 13cb8 40 .cfa: sp 0 + .ra: lr
STACK CFI 13cbc .cfa: sp 8 + .ra: .cfa -4 + ^ r11: .cfa -8 + ^
STACK CFI 13cc0 .cfa: r11 4 +
STACK CFI INIT 13cf8 28 .cfa: sp 0 + .ra: lr
STACK CFI 13cfc .cfa: sp 4 + r11: .cfa -4 + ^
STACK CFI 13d00 .cfa: r11 4 +
STACK CFI INIT 13fb8 24 .cfa: sp 0 + .ra: lr
STACK CFI 13fbc .cfa: sp 4 + r11: .cfa -4 + ^
STACK CFI 13fc0 .cfa: r11 4 +
STACK CFI INIT 13ff4 34 .cfa: sp 0 + .ra: lr
STACK CFI 13ff8 .cfa: sp 4 + r11: .cfa -4 + ^
STACK CFI 13ffc .cfa: r11 4 +
STACK CFI INIT 14028 44 .cfa: sp 0 + .ra: lr
STACK CFI 1402c .cfa: sp 8 + .ra: .cfa -4 + ^ r11: .cfa -8 + ^
STACK CFI 14030 .cfa: r11 4 +
STACK CFI INIT 1406c 30 .cfa: sp 0 + .ra: lr
STACK CFI 14070 .cfa: sp 8 + .ra: .cfa -4 + ^ r11: .cfa -8 + ^
STACK CFI 14074 .cfa: r11 4 +
STACK CFI INIT 1409c b4 .cfa: sp 0 + .ra: lr
STACK CFI 140a0 .cfa: sp 24 + .ra: .cfa -4 + ^ r11: .cfa -8 + ^ r3: .cfa -24 + ^ r4: .cfa -20 + ^ r5: .cfa -16 + ^ r6: .cfa -12 + ^
STACK CFI 140a4 .cfa: r11 4 +
STACK CFI INIT 35870 2c .cfa: sp 0 + .ra: lr
STACK CFI 35874 .cfa: sp 8 + .ra: .cfa -4 + ^ r11: .cfa -8 + ^
STACK CFI 35878 .cfa: r11 4 +
STACK CFI INIT 19158 1c .cfa: sp 0 + .ra: lr
STACK CFI 1915c .cfa: sp 4 + r11: .cfa -4 + ^
STACK CFI 19160 .cfa: r11 4 +
STACK CFI INIT 19174 60 .cfa: sp 0 + .ra: lr
STACK CFI 19178 .cfa: sp 4 + r11: .cfa -4 + ^
STACK CFI 1917c .cfa: r11 4 +
STACK CFI INIT 191d4 24 .cfa: sp 0 + .ra: lr
STACK CFI 191d8 .cfa: sp 4 + r11: .cfa -4 + ^
STACK CFI 191dc .cfa: r11 4 +
STACK CFI INIT 191f8 50 .cfa: sp 0 + .ra: lr
STACK CFI 191fc .cfa: sp 8 + .ra: .cfa -4 + ^ r11: .cfa -8 + ^
STACK CFI 19200 .cfa: r11 4 +
STACK CFI INIT 19248 2c .cfa: sp 0 + .ra: lr
STACK CFI 1924c .cfa: sp 8 + .ra: .cfa -4 + ^ r11: .cfa -8 + ^
STACK CFI 19250 .cfa: r11 4 +
STACK CFI INIT 19274 68 .cfa: sp 0 + .ra: lr
STACK CFI 19278 .cfa: sp 8 + .ra: .cfa -4 + ^ r11: .cfa -8 + ^
STACK CFI 1927c .cfa: r11 4 +
STACK CFI INIT 39dd8 54 .cfa: sp 0 + .ra: lr
STACK CFI 39ddc .cfa: sp 4 + r11: .cfa -4 + ^
STACK CFI 39de0 .cfa: r11 4 +
STACK CFI INIT 39e2c 3c .cfa: sp 0 + .ra: lr
STACK CFI 39e30 .cfa: sp 4 + r11: .cfa -4 + ^
STACK CFI 39e34 .cfa: r11 4 +
STACK CFI INIT 104d4 a8 .cfa: sp 0 + .ra: lr
STACK CFI 104d8 .cfa: sp 16 + .ra: .cfa -4 + ^ r11: .cfa -8 + ^ r4: .cfa -16 + ^ r5: .cfa -12 + ^
STACK CFI 104dc .cfa: r11 4 +
STACK CFI INIT 1057c 54 .cfa: sp 0 + .ra: lr
STACK CFI 10580 .cfa: sp 12 + .ra: .cfa -4 + ^ r11: .cfa -8 + ^ r4: .cfa -12 + ^
STACK CFI 10584 .cfa: r11 4 +
STACK CFI INIT 105d0 50 .cfa: sp 0 + .ra: lr
STACK CFI 105d4 .cfa: sp 8 + .ra: .cfa -4 + ^ r11: .cfa -8 + ^
STACK CFI 105d8 .cfa: r11 4 +
STACK CFI INIT 10620 e8 .cfa: sp 0 + .ra: lr
STACK CFI 10624 .cfa: sp 12 + .ra: .cfa -4 + ^ r11: .cfa -8 + ^ r4: .cfa -12 + ^
STACK CFI 10628 .cfa: r11 4 +
STACK CFI INIT 10708 48 .cfa: sp 0 + .ra: lr
STACK CFI 1070c .cfa: sp 8 + .ra: .cfa -4 + ^ r11: .cfa -8 + ^
STACK CFI 10710 .cfa: r11 4 +
STACK CFI INIT 10750 40 .cfa: sp 0 + .ra: lr
STACK CFI 10754 .cfa: sp 8 + .ra: .cfa -4 + ^ r11: .cfa -8 + ^
STACK CFI 10758 .cfa: r11 4 +
STACK CFI INIT 10790 7c .cfa: sp 0 + .ra: lr
STACK CFI 10794 .cfa: sp 12 + .ra: .cfa -4 + ^ r11: .cfa -8 + ^ r4: .cfa -12 + ^
STACK CFI 10798 .cfa: r11 4 +
STACK CFI INIT 1086c 28 .cfa: sp 0 + .ra: lr
STACK CFI 10870 .cfa: sp 8 + .ra: .cfa -4 + ^ r11: .cfa -8 + ^
STACK CFI 10874 .cfa: r11 4 +
STACK CFI INIT 21540 34 .cfa: sp 0 + .ra: lr
STACK CFI 21544 .cfa: sp 4 + r11: .cfa -4 + ^
STACK CFI 21548 .cfa: r11 4 +
STACK CFI INIT 21574 44 .cfa: sp 0 + .ra: lr
STACK CFI 21578 .cfa: sp 8 + .ra: .cfa -4 + ^ r11: .cfa -8 + ^
STACK CFI 2157c .cfa: r11 4 +
STACK CFI INIT 215b8 30 .cfa: sp 0 + .ra: lr
STACK CFI 215bc .cfa: sp 8 + .ra: .cfa -4 + ^ r11: .cfa -8 + ^
STACK CFI 215c0 .cfa: r11 4 +
STACK CFI INIT 215e8 b4 .cfa: sp 0 + .ra: lr
STACK CFI 215ec .cfa: sp 24 + .ra: .cfa -4 + ^ r11: .cfa -8 + ^ r3: .cfa -24 + ^ r4: .cfa -20 + ^ r5: .cfa -16 + ^ r6: .cfa -12 + ^
STACK CFI 215f0 .cfa: r11 4 +
STACK CFI INIT 18fac 34 .cfa: sp 0 + .ra: lr
STACK CFI 18fb0 .cfa: sp 8 + .ra: .cfa -4 + ^ r11: .cfa -8 + ^
STACK CFI 18fb4 .cfa: r11 4 +
STACK CFI INIT 14150 2c .cfa: sp 0 + .ra: lr
STACK CFI 14154 .cfa: sp 8 + .ra: .cfa -4 + ^ r11: .cfa -8 + ^
STACK CFI 14158 .cfa: r11 4 +
STACK CFI INIT 39e68 2c .cfa: sp 0 + .ra: lr
STACK CFI 39e6c .cfa: sp 8 + .ra: .cfa -4 + ^ r11: .cfa -8 + ^
STACK CFI 39e70 .cfa: r11 4 +
STACK CFI INIT 1417c 70 .cfa: sp 0 + .ra: lr
STACK CFI 14180 .cfa: sp 8 + .ra: .cfa -4 + ^ r11: .cfa -8 + ^
STACK CFI 14184 .cfa: r11 4 +
STACK CFI INIT 14284 98 .cfa: sp 0 + .ra: lr
STACK CFI 14288 .cfa: sp 16 + .ra: .cfa -4 + ^ r11: .cfa -8 + ^ r3: .cfa -16 + ^ r4: .cfa -12 + ^
STACK CFI 1428c .cfa: r11 4 +
STACK CFI INIT 39e94 38 .cfa: sp 0 + .ra: lr
STACK CFI 39e98 .cfa: sp 8 + .ra: .cfa -4 + ^ r11: .cfa -8 + ^
STACK CFI 39e9c .cfa: r11 4 +
STACK CFI INIT 39ecc 28 .cfa: sp 0 + .ra: lr
STACK CFI 39ed0 .cfa: sp 8 + .ra: .cfa -4 + ^ r11: .cfa -8 + ^
STACK CFI 39ed4 .cfa: r11 4 +
STACK CFI INIT 3c76c 13c .cfa: sp 0 + .ra: lr
STACK CFI 3c770 .cfa: sp 16 + .ra: .cfa -4 + ^ r11: .cfa -8 + ^ r4: .cfa -16 + ^ r5: .cfa -12 + ^
STACK CFI 3c774 .cfa: r11 4 +
STACK CFI INIT 3c8a8 e4 .cfa: sp 0 + .ra: lr
STACK CFI 3c8ac .cfa: sp 8 + .ra: .cfa -4 + ^ r11: .cfa -8 + ^
STACK CFI 3c8b0 .cfa: r11 4 +
STACK CFI INIT 3c98c 8 .cfa: sp 0 + .ra: lr
STACK CFI INIT 3c994 8 .cfa: sp 0 + .ra: lr
STACK CFI INIT 3c99c 8 .cfa: sp 0 + .ra: lr
STACK CFI INIT 3c9a4 30 .cfa: sp 0 + .ra: lr
STACK CFI 3c9a8 .cfa: sp 8 + .ra: .cfa -4 + ^ r11: .cfa -8 + ^
STACK CFI 3c9ac .cfa: r11 4 +
STACK CFI INIT 3c9d4 8 .cfa: sp 0 + .ra: lr
STACK CFI INIT 3c9dc 8 .cfa: sp 0 + .ra: lr
STACK CFI INIT 3c9e4 8 .cfa: sp 0 + .ra: lr
STACK CFI INIT 3c9ec ac .cfa: sp 0 + .ra: lr
STACK CFI 3c9f0 .cfa: sp 8 + .ra: .cfa -4 + ^ r11: .cfa -8 + ^
STACK CFI 3c9f4 .cfa: r11 4 +
STACK CFI INIT 3ca98 164 .cfa: sp 0 + .ra: lr
STACK CFI 3ca9c .cfa: sp 20 + .ra: .cfa -4 + ^ r11: .cfa -8 + ^ r4: .cfa -20 + ^ r5: .cfa -16 + ^ r6: .cfa -12 + ^
STACK CFI 3caa0 .cfa: r11 4 +
STACK CFI INIT 3cbfc 2c .cfa: sp 0 + .ra: lr
STACK CFI 3cc00 .cfa: sp 8 + .ra: .cfa -4 + ^ r11: .cfa -8 + ^
STACK CFI 3cc04 .cfa: r11 4 +
STACK CFI INIT 3cc28 1d0 .cfa: sp 0 + .ra: lr
STACK CFI 3cc2c .cfa: sp 12 + .ra: .cfa -4 + ^ r11: .cfa -8 + ^ r4: .cfa -12 + ^
STACK CFI 3cc30 .cfa: r11 4 +
STACK CFI INIT 3cdf8 320 .cfa: sp 0 + .ra: lr
STACK CFI 3cdfc .cfa: sp 8 + .ra: .cfa -4 + ^ r11: .cfa -8 + ^
STACK CFI 3ce00 .cfa: r11 4 +
STACK CFI INIT 3d118 8 .cfa: sp 0 + .ra: lr
STACK CFI INIT 3d120 31c .cfa: sp 0 + .ra: lr
STACK CFI 3d124 .cfa: sp 8 + .ra: .cfa -4 + ^ r11: .cfa -8 + ^
STACK CFI 3d128 .cfa: r11 4 +
STACK CFI INIT 3d43c 8 .cfa: sp 0 + .ra: lr
STACK CFI INIT 19338 2c .cfa: sp 0 + .ra: lr
STACK CFI 1933c .cfa: sp 8 + .ra: .cfa -4 + ^ r11: .cfa -8 + ^
STACK CFI 19340 .cfa: r11 4 +
STACK CFI INIT 3d444 db0 .cfa: sp 0 + .ra: lr
STACK CFI 3d448 .cfa: sp 24 + .ra: .cfa -4 + ^ r11: .cfa -8 + ^ r4: .cfa -24 + ^ r5: .cfa -20 + ^ r6: .cfa -16 + ^ r7: .cfa -12 + ^
STACK CFI 3d44c .cfa: r11 4 +
STACK CFI INIT 3e1f4 8 .cfa: sp 0 + .ra: lr
STACK CFI INIT 3e1fc 1b0 .cfa: sp 0 + .ra: lr
STACK CFI 3e200 .cfa: sp 12 + .ra: .cfa -4 + ^ r11: .cfa -8 + ^ r4: .cfa -12 + ^
STACK CFI 3e204 .cfa: r11 4 +
STACK CFI INIT 3e3ac 8 .cfa: sp 0 + .ra: lr
STACK CFI INIT 3e3b4 194 .cfa: sp 0 + .ra: lr
STACK CFI 3e3b8 .cfa: sp 20 + .ra: .cfa -4 + ^ r11: .cfa -8 + ^ r4: .cfa -20 + ^ r5: .cfa -16 + ^ r6: .cfa -12 + ^
STACK CFI 3e3bc .cfa: r11 4 +
STACK CFI INIT 3e548 8 .cfa: sp 0 + .ra: lr
STACK CFI INIT 3e550 3c .cfa: sp 0 + .ra: lr
STACK CFI 3e554 .cfa: sp 8 + .ra: .cfa -4 + ^ r11: .cfa -8 + ^
STACK CFI 3e558 .cfa: r11 4 +
STACK CFI INIT 3e58c 8 .cfa: sp 0 + .ra: lr
STACK CFI INIT 3e594 27c .cfa: sp 0 + .ra: lr
STACK CFI 3e598 .cfa: sp 20 + .ra: .cfa -4 + ^ r11: .cfa -8 + ^ r4: .cfa -20 + ^ r5: .cfa -16 + ^ r6: .cfa -12 + ^
STACK CFI 3e59c .cfa: r11 4 +
STACK CFI INIT 3e810 48 .cfa: sp 0 + .ra: lr
STACK CFI 3e814 .cfa: sp 8 + .ra: .cfa -4 + ^ r11: .cfa -8 + ^
STACK CFI 3e818 .cfa: r11 4 +
STACK CFI INIT 3e858 a8 .cfa: sp 0 + .ra: lr
STACK CFI 3e85c .cfa: sp 8 + .ra: .cfa -4 + ^ r11: .cfa -8 + ^
STACK CFI 3e860 .cfa: r11 4 +
STACK CFI INIT 3e900 24 .cfa: sp 0 + .ra: lr
STACK CFI 3e904 .cfa: sp 4 + r11: .cfa -4 + ^
STACK CFI 3e908 .cfa: r11 4 +
STACK CFI INIT 3e924 188 .cfa: sp 0 + .ra: lr
STACK CFI 3e928 .cfa: sp 12 + .ra: .cfa -4 + ^ r11: .cfa -8 + ^ r4: .cfa -12 + ^
STACK CFI 3e92c .cfa: r11 4 +
STACK CFI INIT 3eaac 38 .cfa: sp 0 + .ra: lr
STACK CFI 3eab0 .cfa: sp 8 + .ra: .cfa -4 + ^ r11: .cfa -8 + ^
STACK CFI 3eab4 .cfa: r11 4 +
STACK CFI INIT 3eae4 154 .cfa: sp 0 + .ra: lr
STACK CFI 3eae8 .cfa: sp 20 + .ra: .cfa -4 + ^ r11: .cfa -8 + ^ r4: .cfa -20 + ^ r5: .cfa -16 + ^ r6: .cfa -12 + ^
STACK CFI 3eaec .cfa: r11 4 +
STACK CFI INIT 1094c 34 .cfa: sp 0 + .ra: lr
STACK CFI 10950 .cfa: sp 4 + r11: .cfa -4 + ^
STACK CFI 10954 .cfa: r11 4 +
STACK CFI INIT 145d0 40 .cfa: sp 0 + .ra: lr
STACK CFI 145d4 .cfa: sp 8 + .ra: .cfa -4 + ^ r11: .cfa -8 + ^
STACK CFI 145d8 .cfa: r11 4 +
STACK CFI INIT 14610 7c .cfa: sp 0 + .ra: lr
STACK CFI 14614 .cfa: sp 8 + .ra: .cfa -4 + ^ r11: .cfa -8 + ^
STACK CFI 14618 .cfa: r11 4 +
STACK CFI INIT 146b4 34 .cfa: sp 0 + .ra: lr
STACK CFI 146b8 .cfa: sp 4 + r11: .cfa -4 + ^
STACK CFI 146bc .cfa: r11 4 +
STACK CFI INIT 3ed30 34 .cfa: sp 0 + .ra: lr
STACK CFI 3ed34 .cfa: sp 4 + r11: .cfa -4 + ^
STACK CFI 3ed38 .cfa: r11 4 +
STACK CFI INIT 3ed64 40 .cfa: sp 0 + .ra: lr
STACK CFI 3ed68 .cfa: sp 8 + .ra: .cfa -4 + ^ r11: .cfa -8 + ^
STACK CFI 3ed6c .cfa: r11 4 +
STACK CFI INIT 3eda4 54 .cfa: sp 0 + .ra: lr
STACK CFI 3eda8 .cfa: sp 8 + .ra: .cfa -4 + ^ r11: .cfa -8 + ^
STACK CFI 3edac .cfa: r11 4 +
STACK CFI INIT 196d4 28 .cfa: sp 0 + .ra: lr
STACK CFI 196d8 .cfa: sp 8 + .ra: .cfa -4 + ^ r11: .cfa -8 + ^
STACK CFI 196dc .cfa: r11 4 +
STACK CFI INIT 196fc 28 .cfa: sp 0 + .ra: lr
STACK CFI 19700 .cfa: sp 8 + .ra: .cfa -4 + ^ r11: .cfa -8 + ^
STACK CFI 19704 .cfa: r11 4 +
STACK CFI INIT 39fbc 90 .cfa: sp 0 + .ra: lr
STACK CFI 39fc0 .cfa: sp 8 + .ra: .cfa -4 + ^ r11: .cfa -8 + ^
STACK CFI 39fc4 .cfa: r11 4 +
STACK CFI INIT 19724 28 .cfa: sp 0 + .ra: lr
STACK CFI 19728 .cfa: sp 8 + .ra: .cfa -4 + ^ r11: .cfa -8 + ^
STACK CFI 1972c .cfa: r11 4 +
STACK CFI INIT 1974c 54 .cfa: sp 0 + .ra: lr
STACK CFI 19750 .cfa: sp 8 + .ra: .cfa -4 + ^ r11: .cfa -8 + ^
STACK CFI 19754 .cfa: r11 4 +
STACK CFI INIT 197a0 a0 .cfa: sp 0 + .ra: lr
STACK CFI 197a4 .cfa: sp 12 + .ra: .cfa -4 + ^ r11: .cfa -8 + ^ r4: .cfa -12 + ^
STACK CFI 197a8 .cfa: r11 4 +
STACK CFI INIT 19840 30 .cfa: sp 0 + .ra: lr
STACK CFI 19844 .cfa: sp 8 + .ra: .cfa -4 + ^ r11: .cfa -8 + ^
STACK CFI 19848 .cfa: r11 4 +
STACK CFI INIT 14c14 88 .cfa: sp 0 + .ra: lr
STACK CFI 14c18 .cfa: sp 8 + .ra: .cfa -4 + ^ r11: .cfa -8 + ^
STACK CFI 14c1c .cfa: r11 4 +
STACK CFI INIT 3edf8 34 .cfa: sp 0 + .ra: lr
STACK CFI 3edfc .cfa: sp 12 + .ra: .cfa -4 + ^ r11: .cfa -8 + ^ r4: .cfa -12 + ^
STACK CFI 3ee00 .cfa: r11 4 +
STACK CFI INIT 1a07c 38 .cfa: sp 0 + .ra: lr
STACK CFI 1a080 .cfa: sp 8 + .ra: .cfa -4 + ^ r11: .cfa -8 + ^
STACK CFI 1a084 .cfa: r11 4 +
STACK CFI INIT 1a0b4 28 .cfa: sp 0 + .ra: lr
STACK CFI 1a0b8 .cfa: sp 8 + .ra: .cfa -4 + ^ r11: .cfa -8 + ^
STACK CFI 1a0bc .cfa: r11 4 +
STACK CFI INIT 3a080 24 .cfa: sp 0 + .ra: lr
STACK CFI 3a084 .cfa: sp 4 + r11: .cfa -4 + ^
STACK CFI 3a088 .cfa: r11 4 +
STACK CFI INIT 1a0dc 17c .cfa: sp 0 + .ra: lr
STACK CFI 1a0e0 .cfa: sp 8 + .ra: .cfa -4 + ^ r11: .cfa -8 + ^
STACK CFI 1a0e4 .cfa: r11 4 +
STACK CFI INIT 15220 48 .cfa: sp 0 + .ra: lr
STACK CFI 15224 .cfa: sp 8 + .ra: .cfa -4 + ^ r11: .cfa -8 + ^
STACK CFI 15228 .cfa: r11 4 +
STACK CFI INIT 1a528 24 .cfa: sp 0 + .ra: lr
STACK CFI 1a52c .cfa: sp 8 + .ra: .cfa -4 + ^ r11: .cfa -8 + ^
STACK CFI 1a530 .cfa: r11 4 +
STACK CFI INIT 1a54c a0 .cfa: sp 0 + .ra: lr
STACK CFI 1a550 .cfa: sp 8 + .ra: .cfa -4 + ^ r11: .cfa -8 + ^
STACK CFI 1a554 .cfa: r11 4 +
STACK CFI INIT 3ec38 dc .cfa: sp 0 + .ra: lr
STACK CFI 3ec3c .cfa: sp 8 + .ra: .cfa -4 + ^ r11: .cfa -8 + ^
STACK CFI 3ec40 .cfa: r11 4 +
STACK CFI INIT 3ed14 1c .cfa: sp 0 + .ra: lr
STACK CFI 3ed18 .cfa: sp 8 + .ra: .cfa -4 + ^ r11: .cfa -8 + ^
STACK CFI 3ed1c .cfa: r11 4 +
STACK CFI INIT 13bac 40 .cfa: sp 0 + .ra: lr
STACK CFI 13bb0 .cfa: sp 4 + r11: .cfa -4 + ^
STACK CFI 13bb4 .cfa: r11 4 +
STACK CFI INIT 100a8 6c .cfa: sp 0 + .ra: lr
STACK CFI 100ac .cfa: sp 16 + .ra: .cfa -4 + ^ r11: .cfa -8 + ^ r4: .cfa -16 + ^ r5: .cfa -12 + ^
STACK CFI 100b0 .cfa: r11 4 +
STACK CFI INIT 10114 6c .cfa: sp 0 + .ra: lr
STACK CFI 10118 .cfa: sp 16 + .ra: .cfa -4 + ^ r11: .cfa -8 + ^ r4: .cfa -16 + ^ r5: .cfa -12 + ^
STACK CFI 1011c .cfa: r11 4 +
STACK CFI INIT 102e4 3c .cfa: sp 0 + .ra: lr
STACK CFI 102e8 .cfa: sp 8 + .ra: .cfa -4 + ^ r11: .cfa -8 + ^
STACK CFI 102ec .cfa: r11 4 +
STACK CFI INIT 10434 54 .cfa: sp 0 + .ra: lr
STACK CFI 10438 .cfa: sp 8 + .ra: .cfa -4 + ^ r11: .cfa -8 + ^
STACK CFI 1043c .cfa: r11 4 +
STACK CFI INIT 13fb8 24 .cfa: sp 0 + .ra: lr
STACK CFI 13fbc .cfa: sp 4 + r11: .cfa -4 + ^
STACK CFI 13fc0 .cfa: r11 4 +
STACK CFI INIT 21540 34 .cfa: sp 0 + .ra: lr
STACK CFI 21544 .cfa: sp 4 + r11: .cfa -4 + ^
STACK CFI 21548 .cfa: r11 4 +
STACK CFI INIT 21574 44 .cfa: sp 0 + .ra: lr
STACK CFI 21578 .cfa: sp 8 + .ra: .cfa -4 + ^ r11: .cfa -8 + ^
STACK CFI 2157c .cfa: r11 4 +
STACK CFI INIT 215b8 30 .cfa: sp 0 + .ra: lr
STACK CFI 215bc .cfa: sp 8 + .ra: .cfa -4 + ^ r11: .cfa -8 + ^
STACK CFI 215c0 .cfa: r11 4 +
STACK CFI INIT 215e8 b4 .cfa: sp 0 + .ra: lr
STACK CFI 215ec .cfa: sp 24 + .ra: .cfa -4 + ^ r11: .cfa -8 + ^ r3: .cfa -24 + ^ r4: .cfa -20 + ^ r5: .cfa -16 + ^ r6: .cfa -12 + ^
STACK CFI 215f0 .cfa: r11 4 +
STACK CFI INIT 13ff4 34 .cfa: sp 0 + .ra: lr
STACK CFI 13ff8 .cfa: sp 4 + r11: .cfa -4 + ^
STACK CFI 13ffc .cfa: r11 4 +
STACK CFI INIT 14028 44 .cfa: sp 0 + .ra: lr
STACK CFI 1402c .cfa: sp 8 + .ra: .cfa -4 + ^ r11: .cfa -8 + ^
STACK CFI 14030 .cfa: r11 4 +
STACK CFI INIT 1406c 30 .cfa: sp 0 + .ra: lr
STACK CFI 14070 .cfa: sp 8 + .ra: .cfa -4 + ^ r11: .cfa -8 + ^
STACK CFI 14074 .cfa: r11 4 +
STACK CFI INIT 1409c b4 .cfa: sp 0 + .ra: lr
STACK CFI 140a0 .cfa: sp 24 + .ra: .cfa -4 + ^ r11: .cfa -8 + ^ r3: .cfa -24 + ^ r4: .cfa -20 + ^ r5: .cfa -16 + ^ r6: .cfa -12 + ^
STACK CFI 140a4 .cfa: r11 4 +
STACK CFI INIT 3ee2c 13c .cfa: sp 0 + .ra: lr
STACK CFI 3ee30 .cfa: sp 16 + .ra: .cfa -4 + ^ r11: .cfa -8 + ^ r4: .cfa -16 + ^ r5: .cfa -12 + ^
STACK CFI 3ee34 .cfa: r11 4 +
STACK CFI INIT 3ef68 e4 .cfa: sp 0 + .ra: lr
STACK CFI 3ef6c .cfa: sp 8 + .ra: .cfa -4 + ^ r11: .cfa -8 + ^
STACK CFI 3ef70 .cfa: r11 4 +
STACK CFI INIT 3f04c 8 .cfa: sp 0 + .ra: lr
STACK CFI INIT 3f054 8 .cfa: sp 0 + .ra: lr
STACK CFI INIT 3f05c 8 .cfa: sp 0 + .ra: lr
STACK CFI INIT 3f064 30 .cfa: sp 0 + .ra: lr
STACK CFI 3f068 .cfa: sp 8 + .ra: .cfa -4 + ^ r11: .cfa -8 + ^
STACK CFI 3f06c .cfa: r11 4 +
STACK CFI INIT 3f094 8 .cfa: sp 0 + .ra: lr
STACK CFI INIT 3f09c 8 .cfa: sp 0 + .ra: lr
STACK CFI INIT 3f0a4 8 .cfa: sp 0 + .ra: lr
STACK CFI INIT 3f0ac 80 .cfa: sp 0 + .ra: lr
STACK CFI 3f0b0 .cfa: sp 16 + .ra: .cfa -4 + ^ r11: .cfa -8 + ^ r4: .cfa -16 + ^ r5: .cfa -12 + ^
STACK CFI 3f0b4 .cfa: r11 4 +
STACK CFI INIT 3f12c 20 .cfa: sp 0 + .ra: lr
STACK CFI 3f130 .cfa: sp 4 + r11: .cfa -4 + ^
STACK CFI 3f134 .cfa: r11 4 +
STACK CFI INIT 3f14c b8 .cfa: sp 0 + .ra: lr
STACK CFI 3f150 .cfa: sp 8 + .ra: .cfa -4 + ^ r11: .cfa -8 + ^
STACK CFI 3f154 .cfa: r11 4 +
STACK CFI INIT 3f204 8 .cfa: sp 0 + .ra: lr
STACK CFI INIT 3f20c 88 .cfa: sp 0 + .ra: lr
STACK CFI 3f210 .cfa: sp 8 + .ra: .cfa -4 + ^ r11: .cfa -8 + ^
STACK CFI 3f214 .cfa: r11 4 +
STACK CFI INIT 3f294 24 .cfa: sp 0 + .ra: lr
STACK CFI 3f298 .cfa: sp 4 + r11: .cfa -4 + ^
STACK CFI 3f29c .cfa: r11 4 +
STACK CFI INIT 3f2b8 b8 .cfa: sp 0 + .ra: lr
STACK CFI 3f2bc .cfa: sp 12 + .ra: .cfa -4 + ^ r11: .cfa -8 + ^ r4: .cfa -12 + ^
STACK CFI 3f2c0 .cfa: r11 4 +
STACK CFI INIT 3f370 bc .cfa: sp 0 + .ra: lr
STACK CFI 3f374 .cfa: sp 16 + .ra: .cfa -4 + ^ r11: .cfa -8 + ^ r4: .cfa -16 + ^ r5: .cfa -12 + ^
STACK CFI 3f378 .cfa: r11 4 +
STACK CFI INIT 145d0 40 .cfa: sp 0 + .ra: lr
STACK CFI 145d4 .cfa: sp 8 + .ra: .cfa -4 + ^ r11: .cfa -8 + ^
STACK CFI 145d8 .cfa: r11 4 +
STACK CFI INIT 14610 7c .cfa: sp 0 + .ra: lr
STACK CFI 14614 .cfa: sp 8 + .ra: .cfa -4 + ^ r11: .cfa -8 + ^
STACK CFI 14618 .cfa: r11 4 +
STACK CFI INIT 146b4 34 .cfa: sp 0 + .ra: lr
STACK CFI 146b8 .cfa: sp 4 + r11: .cfa -4 + ^
STACK CFI 146bc .cfa: r11 4 +
STACK CFI INIT 3f4f8 34 .cfa: sp 0 + .ra: lr
STACK CFI 3f4fc .cfa: sp 4 + r11: .cfa -4 + ^
STACK CFI 3f500 .cfa: r11 4 +
STACK CFI INIT 3f52c 40 .cfa: sp 0 + .ra: lr
STACK CFI 3f530 .cfa: sp 8 + .ra: .cfa -4 + ^ r11: .cfa -8 + ^
STACK CFI 3f534 .cfa: r11 4 +
STACK CFI INIT 14c14 88 .cfa: sp 0 + .ra: lr
STACK CFI 14c18 .cfa: sp 8 + .ra: .cfa -4 + ^ r11: .cfa -8 + ^
STACK CFI 14c1c .cfa: r11 4 +
STACK CFI INIT 3f56c 34 .cfa: sp 0 + .ra: lr
STACK CFI 3f570 .cfa: sp 12 + .ra: .cfa -4 + ^ r11: .cfa -8 + ^ r4: .cfa -12 + ^
STACK CFI 3f574 .cfa: r11 4 +
STACK CFI INIT 15220 48 .cfa: sp 0 + .ra: lr
STACK CFI 15224 .cfa: sp 8 + .ra: .cfa -4 + ^ r11: .cfa -8 + ^
STACK CFI 15228 .cfa: r11 4 +
STACK CFI INIT 3f42c b0 .cfa: sp 0 + .ra: lr
STACK CFI 3f430 .cfa: sp 8 + .ra: .cfa -4 + ^ r11: .cfa -8 + ^
STACK CFI 3f434 .cfa: r11 4 +
STACK CFI INIT 3f4dc 1c .cfa: sp 0 + .ra: lr
STACK CFI 3f4e0 .cfa: sp 8 + .ra: .cfa -4 + ^ r11: .cfa -8 + ^
STACK CFI 3f4e4 .cfa: r11 4 +
STACK CFI INIT ffb4 14 .cfa: sp 0 + .ra: lr
STACK CFI ffb8 .cfa: sp 4 + r11: .cfa -4 + ^
STACK CFI ffbc .cfa: r11 4 +
STACK CFI INIT 13bac 40 .cfa: sp 0 + .ra: lr
STACK CFI 13bb0 .cfa: sp 4 + r11: .cfa -4 + ^
STACK CFI 13bb4 .cfa: r11 4 +
STACK CFI INIT 10068 40 .cfa: sp 0 + .ra: lr
STACK CFI 1006c .cfa: sp 4 + r11: .cfa -4 + ^
STACK CFI 10070 .cfa: r11 4 +
STACK CFI INIT 100a8 6c .cfa: sp 0 + .ra: lr
STACK CFI 100ac .cfa: sp 16 + .ra: .cfa -4 + ^ r11: .cfa -8 + ^ r4: .cfa -16 + ^ r5: .cfa -12 + ^
STACK CFI 100b0 .cfa: r11 4 +
STACK CFI INIT 10114 6c .cfa: sp 0 + .ra: lr
STACK CFI 10118 .cfa: sp 16 + .ra: .cfa -4 + ^ r11: .cfa -8 + ^ r4: .cfa -16 + ^ r5: .cfa -12 + ^
STACK CFI 1011c .cfa: r11 4 +
STACK CFI INIT 10180 54 .cfa: sp 0 + .ra: lr
STACK CFI 10184 .cfa: sp 8 + .ra: .cfa -4 + ^ r11: .cfa -8 + ^
STACK CFI 10188 .cfa: r11 4 +
STACK CFI INIT 101d4 30 .cfa: sp 0 + .ra: lr
STACK CFI 101d8 .cfa: sp 8 + .ra: .cfa -4 + ^ r11: .cfa -8 + ^
STACK CFI 101dc .cfa: r11 4 +
STACK CFI INIT 10230 84 .cfa: sp 0 + .ra: lr
STACK CFI 10234 .cfa: sp 8 + .ra: .cfa -4 + ^ r11: .cfa -8 + ^
STACK CFI 10238 .cfa: r11 4 +
STACK CFI INIT 102e4 3c .cfa: sp 0 + .ra: lr
STACK CFI 102e8 .cfa: sp 8 + .ra: .cfa -4 + ^ r11: .cfa -8 + ^
STACK CFI 102ec .cfa: r11 4 +
STACK CFI INIT 103f4 40 .cfa: sp 0 + .ra: lr
STACK CFI 103f8 .cfa: sp 8 + .ra: .cfa -4 + ^ r11: .cfa -8 + ^
STACK CFI 103fc .cfa: r11 4 +
STACK CFI INIT 10434 54 .cfa: sp 0 + .ra: lr
STACK CFI 10438 .cfa: sp 8 + .ra: .cfa -4 + ^ r11: .cfa -8 + ^
STACK CFI 1043c .cfa: r11 4 +
STACK CFI INIT 13cb8 40 .cfa: sp 0 + .ra: lr
STACK CFI 13cbc .cfa: sp 8 + .ra: .cfa -4 + ^ r11: .cfa -8 + ^
STACK CFI 13cc0 .cfa: r11 4 +
STACK CFI INIT 13fb8 24 .cfa: sp 0 + .ra: lr
STACK CFI 13fbc .cfa: sp 4 + r11: .cfa -4 + ^
STACK CFI 13fc0 .cfa: r11 4 +
STACK CFI INIT 13ff4 34 .cfa: sp 0 + .ra: lr
STACK CFI 13ff8 .cfa: sp 4 + r11: .cfa -4 + ^
STACK CFI 13ffc .cfa: r11 4 +
STACK CFI INIT 14028 44 .cfa: sp 0 + .ra: lr
STACK CFI 1402c .cfa: sp 8 + .ra: .cfa -4 + ^ r11: .cfa -8 + ^
STACK CFI 14030 .cfa: r11 4 +
STACK CFI INIT 1406c 30 .cfa: sp 0 + .ra: lr
STACK CFI 14070 .cfa: sp 8 + .ra: .cfa -4 + ^ r11: .cfa -8 + ^
STACK CFI 14074 .cfa: r11 4 +
STACK CFI INIT 1409c b4 .cfa: sp 0 + .ra: lr
STACK CFI 140a0 .cfa: sp 24 + .ra: .cfa -4 + ^ r11: .cfa -8 + ^ r3: .cfa -24 + ^ r4: .cfa -20 + ^ r5: .cfa -16 + ^ r6: .cfa -12 + ^
STACK CFI 140a4 .cfa: r11 4 +
STACK CFI INIT 104d4 a8 .cfa: sp 0 + .ra: lr
STACK CFI 104d8 .cfa: sp 16 + .ra: .cfa -4 + ^ r11: .cfa -8 + ^ r4: .cfa -16 + ^ r5: .cfa -12 + ^
STACK CFI 104dc .cfa: r11 4 +
STACK CFI INIT 1057c 54 .cfa: sp 0 + .ra: lr
STACK CFI 10580 .cfa: sp 12 + .ra: .cfa -4 + ^ r11: .cfa -8 + ^ r4: .cfa -12 + ^
STACK CFI 10584 .cfa: r11 4 +
STACK CFI INIT 105d0 50 .cfa: sp 0 + .ra: lr
STACK CFI 105d4 .cfa: sp 8 + .ra: .cfa -4 + ^ r11: .cfa -8 + ^
STACK CFI 105d8 .cfa: r11 4 +
STACK CFI INIT 10620 e8 .cfa: sp 0 + .ra: lr
STACK CFI 10624 .cfa: sp 12 + .ra: .cfa -4 + ^ r11: .cfa -8 + ^ r4: .cfa -12 + ^
STACK CFI 10628 .cfa: r11 4 +
STACK CFI INIT 10708 48 .cfa: sp 0 + .ra: lr
STACK CFI 1070c .cfa: sp 8 + .ra: .cfa -4 + ^ r11: .cfa -8 + ^
STACK CFI 10710 .cfa: r11 4 +
STACK CFI INIT 10750 40 .cfa: sp 0 + .ra: lr
STACK CFI 10754 .cfa: sp 8 + .ra: .cfa -4 + ^ r11: .cfa -8 + ^
STACK CFI 10758 .cfa: r11 4 +
STACK CFI INIT 10790 7c .cfa: sp 0 + .ra: lr
STACK CFI 10794 .cfa: sp 12 + .ra: .cfa -4 + ^ r11: .cfa -8 + ^ r4: .cfa -12 + ^
STACK CFI 10798 .cfa: r11 4 +
STACK CFI INIT 1080c 60 .cfa: sp 0 + .ra: lr
STACK CFI 10810 .cfa: sp 8 + .ra: .cfa -4 + ^ r11: .cfa -8 + ^
STACK CFI 10814 .cfa: r11 4 +
STACK CFI INIT 1086c 28 .cfa: sp 0 + .ra: lr
STACK CFI 10870 .cfa: sp 8 + .ra: .cfa -4 + ^ r11: .cfa -8 + ^
STACK CFI 10874 .cfa: r11 4 +
STACK CFI INIT 21540 34 .cfa: sp 0 + .ra: lr
STACK CFI 21544 .cfa: sp 4 + r11: .cfa -4 + ^
STACK CFI 21548 .cfa: r11 4 +
STACK CFI INIT 21574 44 .cfa: sp 0 + .ra: lr
STACK CFI 21578 .cfa: sp 8 + .ra: .cfa -4 + ^ r11: .cfa -8 + ^
STACK CFI 2157c .cfa: r11 4 +
STACK CFI INIT 215b8 30 .cfa: sp 0 + .ra: lr
STACK CFI 215bc .cfa: sp 8 + .ra: .cfa -4 + ^ r11: .cfa -8 + ^
STACK CFI 215c0 .cfa: r11 4 +
STACK CFI INIT 215e8 b4 .cfa: sp 0 + .ra: lr
STACK CFI 215ec .cfa: sp 24 + .ra: .cfa -4 + ^ r11: .cfa -8 + ^ r3: .cfa -24 + ^ r4: .cfa -20 + ^ r5: .cfa -16 + ^ r6: .cfa -12 + ^
STACK CFI 215f0 .cfa: r11 4 +
STACK CFI INIT 18fac 34 .cfa: sp 0 + .ra: lr
STACK CFI 18fb0 .cfa: sp 8 + .ra: .cfa -4 + ^ r11: .cfa -8 + ^
STACK CFI 18fb4 .cfa: r11 4 +
STACK CFI INIT 3f5a0 13c .cfa: sp 0 + .ra: lr
STACK CFI 3f5a4 .cfa: sp 16 + .ra: .cfa -4 + ^ r11: .cfa -8 + ^ r4: .cfa -16 + ^ r5: .cfa -12 + ^
STACK CFI 3f5a8 .cfa: r11 4 +
STACK CFI INIT 3f6dc e4 .cfa: sp 0 + .ra: lr
STACK CFI 3f6e0 .cfa: sp 8 + .ra: .cfa -4 + ^ r11: .cfa -8 + ^
STACK CFI 3f6e4 .cfa: r11 4 +
STACK CFI INIT 3f7c0 8 .cfa: sp 0 + .ra: lr
STACK CFI INIT 3f7c8 8 .cfa: sp 0 + .ra: lr
STACK CFI INIT 3f7d0 8 .cfa: sp 0 + .ra: lr
STACK CFI INIT 3f7d8 30 .cfa: sp 0 + .ra: lr
STACK CFI 3f7dc .cfa: sp 8 + .ra: .cfa -4 + ^ r11: .cfa -8 + ^
STACK CFI 3f7e0 .cfa: r11 4 +
STACK CFI INIT 3f808 8 .cfa: sp 0 + .ra: lr
STACK CFI INIT 3f810 8 .cfa: sp 0 + .ra: lr
STACK CFI INIT 3f818 8 .cfa: sp 0 + .ra: lr
STACK CFI INIT 3f820 36c .cfa: sp 0 + .ra: lr
STACK CFI 3f824 .cfa: sp 16 + .ra: .cfa -4 + ^ r11: .cfa -8 + ^ r4: .cfa -16 + ^ r5: .cfa -12 + ^
STACK CFI 3f828 .cfa: r11 4 +
STACK CFI INIT 3fb8c 2c .cfa: sp 0 + .ra: lr
STACK CFI 3fb90 .cfa: sp 8 + .ra: .cfa -4 + ^ r11: .cfa -8 + ^
STACK CFI 3fb94 .cfa: r11 4 +
STACK CFI INIT 3fbb8 70c .cfa: sp 0 + .ra: lr
STACK CFI 3fbbc .cfa: sp 8 + .ra: .cfa -4 + ^ r11: .cfa -8 + ^
STACK CFI 3fbc0 .cfa: r11 4 +
STACK CFI INIT 402c4 8 .cfa: sp 0 + .ra: lr
STACK CFI INIT 402cc 4b8 .cfa: sp 0 + .ra: lr
STACK CFI 402d0 .cfa: sp 8 + .ra: .cfa -4 + ^ r11: .cfa -8 + ^
STACK CFI 402d4 .cfa: r11 4 +
STACK CFI INIT 40784 8 .cfa: sp 0 + .ra: lr
STACK CFI INIT 4078c 12c .cfa: sp 0 + .ra: lr
STACK CFI 40790 .cfa: sp 12 + .ra: .cfa -4 + ^ r11: .cfa -8 + ^ r4: .cfa -12 + ^
STACK CFI 40794 .cfa: r11 4 +
STACK CFI INIT 408b8 88 .cfa: sp 0 + .ra: lr
STACK CFI 408bc .cfa: sp 8 + .ra: .cfa -4 + ^ r11: .cfa -8 + ^
STACK CFI 408c0 .cfa: r11 4 +
STACK CFI INIT 40940 24 .cfa: sp 0 + .ra: lr
STACK CFI 40944 .cfa: sp 4 + r11: .cfa -4 + ^
STACK CFI 40948 .cfa: r11 4 +
STACK CFI INIT 40964 4ec .cfa: sp 0 + .ra: lr
STACK CFI 40968 .cfa: sp 12 + .ra: .cfa -4 + ^ r11: .cfa -8 + ^ r4: .cfa -12 + ^
STACK CFI 4096c .cfa: r11 4 +
STACK CFI INIT 40e50 19c .cfa: sp 0 + .ra: lr
STACK CFI 40e54 .cfa: sp 20 + .ra: .cfa -4 + ^ r11: .cfa -8 + ^ r4: .cfa -20 + ^ r5: .cfa -16 + ^ r6: .cfa -12 + ^
STACK CFI 40e58 .cfa: r11 4 +
STACK CFI INIT 1094c 34 .cfa: sp 0 + .ra: lr
STACK CFI 10950 .cfa: sp 4 + r11: .cfa -4 + ^
STACK CFI 10954 .cfa: r11 4 +
STACK CFI INIT 145d0 40 .cfa: sp 0 + .ra: lr
STACK CFI 145d4 .cfa: sp 8 + .ra: .cfa -4 + ^ r11: .cfa -8 + ^
STACK CFI 145d8 .cfa: r11 4 +
STACK CFI INIT 14610 7c .cfa: sp 0 + .ra: lr
STACK CFI 14614 .cfa: sp 8 + .ra: .cfa -4 + ^ r11: .cfa -8 + ^
STACK CFI 14618 .cfa: r11 4 +
STACK CFI INIT 146b4 34 .cfa: sp 0 + .ra: lr
STACK CFI 146b8 .cfa: sp 4 + r11: .cfa -4 + ^
STACK CFI 146bc .cfa: r11 4 +
STACK CFI INIT 4113c 34 .cfa: sp 0 + .ra: lr
STACK CFI 41140 .cfa: sp 4 + r11: .cfa -4 + ^
STACK CFI 41144 .cfa: r11 4 +
STACK CFI INIT 41170 40 .cfa: sp 0 + .ra: lr
STACK CFI 41174 .cfa: sp 8 + .ra: .cfa -4 + ^ r11: .cfa -8 + ^
STACK CFI 41178 .cfa: r11 4 +
STACK CFI INIT 411b0 54 .cfa: sp 0 + .ra: lr
STACK CFI 411b4 .cfa: sp 8 + .ra: .cfa -4 + ^ r11: .cfa -8 + ^
STACK CFI 411b8 .cfa: r11 4 +
STACK CFI INIT 14c14 88 .cfa: sp 0 + .ra: lr
STACK CFI 14c18 .cfa: sp 8 + .ra: .cfa -4 + ^ r11: .cfa -8 + ^
STACK CFI 14c1c .cfa: r11 4 +
STACK CFI INIT 41204 34 .cfa: sp 0 + .ra: lr
STACK CFI 41208 .cfa: sp 12 + .ra: .cfa -4 + ^ r11: .cfa -8 + ^ r4: .cfa -12 + ^
STACK CFI 4120c .cfa: r11 4 +
STACK CFI INIT 15220 48 .cfa: sp 0 + .ra: lr
STACK CFI 15224 .cfa: sp 8 + .ra: .cfa -4 + ^ r11: .cfa -8 + ^
STACK CFI 15228 .cfa: r11 4 +
STACK CFI INIT 40fec 134 .cfa: sp 0 + .ra: lr
STACK CFI 40ff0 .cfa: sp 8 + .ra: .cfa -4 + ^ r11: .cfa -8 + ^
STACK CFI 40ff4 .cfa: r11 4 +
STACK CFI INIT 41120 1c .cfa: sp 0 + .ra: lr
STACK CFI 41124 .cfa: sp 8 + .ra: .cfa -4 + ^ r11: .cfa -8 + ^
STACK CFI 41128 .cfa: r11 4 +
STACK CFI INIT ffb4 14 .cfa: sp 0 + .ra: lr
STACK CFI ffb8 .cfa: sp 4 + r11: .cfa -4 + ^
STACK CFI ffbc .cfa: r11 4 +
STACK CFI INIT 13bac 40 .cfa: sp 0 + .ra: lr
STACK CFI 13bb0 .cfa: sp 4 + r11: .cfa -4 + ^
STACK CFI 13bb4 .cfa: r11 4 +
STACK CFI INIT 10068 40 .cfa: sp 0 + .ra: lr
STACK CFI 1006c .cfa: sp 4 + r11: .cfa -4 + ^
STACK CFI 10070 .cfa: r11 4 +
STACK CFI INIT 100a8 6c .cfa: sp 0 + .ra: lr
STACK CFI 100ac .cfa: sp 16 + .ra: .cfa -4 + ^ r11: .cfa -8 + ^ r4: .cfa -16 + ^ r5: .cfa -12 + ^
STACK CFI 100b0 .cfa: r11 4 +
STACK CFI INIT 10114 6c .cfa: sp 0 + .ra: lr
STACK CFI 10118 .cfa: sp 16 + .ra: .cfa -4 + ^ r11: .cfa -8 + ^ r4: .cfa -16 + ^ r5: .cfa -12 + ^
STACK CFI 1011c .cfa: r11 4 +
STACK CFI INIT 10180 54 .cfa: sp 0 + .ra: lr
STACK CFI 10184 .cfa: sp 8 + .ra: .cfa -4 + ^ r11: .cfa -8 + ^
STACK CFI 10188 .cfa: r11 4 +
STACK CFI INIT 101d4 30 .cfa: sp 0 + .ra: lr
STACK CFI 101d8 .cfa: sp 8 + .ra: .cfa -4 + ^ r11: .cfa -8 + ^
STACK CFI 101dc .cfa: r11 4 +
STACK CFI INIT 10230 84 .cfa: sp 0 + .ra: lr
STACK CFI 10234 .cfa: sp 8 + .ra: .cfa -4 + ^ r11: .cfa -8 + ^
STACK CFI 10238 .cfa: r11 4 +
STACK CFI INIT 13c70 28 .cfa: sp 0 + .ra: lr
STACK CFI 13c74 .cfa: sp 4 + r11: .cfa -4 + ^
STACK CFI 13c78 .cfa: r11 4 +
STACK CFI INIT 102e4 3c .cfa: sp 0 + .ra: lr
STACK CFI 102e8 .cfa: sp 8 + .ra: .cfa -4 + ^ r11: .cfa -8 + ^
STACK CFI 102ec .cfa: r11 4 +
STACK CFI INIT 103f4 40 .cfa: sp 0 + .ra: lr
STACK CFI 103f8 .cfa: sp 8 + .ra: .cfa -4 + ^ r11: .cfa -8 + ^
STACK CFI 103fc .cfa: r11 4 +
STACK CFI INIT 10434 54 .cfa: sp 0 + .ra: lr
STACK CFI 10438 .cfa: sp 8 + .ra: .cfa -4 + ^ r11: .cfa -8 + ^
STACK CFI 1043c .cfa: r11 4 +
STACK CFI INIT 13cb8 40 .cfa: sp 0 + .ra: lr
STACK CFI 13cbc .cfa: sp 8 + .ra: .cfa -4 + ^ r11: .cfa -8 + ^
STACK CFI 13cc0 .cfa: r11 4 +
STACK CFI INIT 13d7c 78 .cfa: sp 0 + .ra: lr
STACK CFI 13d80 .cfa: sp 4 + r11: .cfa -4 + ^
STACK CFI 13d84 .cfa: r11 4 +
STACK CFI INIT 13e44 38 .cfa: sp 0 + .ra: lr
STACK CFI 13e48 .cfa: sp 4 + r11: .cfa -4 + ^
STACK CFI 13e4c .cfa: r11 4 +
STACK CFI INIT 13e7c 38 .cfa: sp 0 + .ra: lr
STACK CFI 13e80 .cfa: sp 4 + r11: .cfa -4 + ^
STACK CFI 13e84 .cfa: r11 4 +
STACK CFI INIT 24ab4 90 .cfa: sp 0 + .ra: lr
STACK CFI 24ab8 .cfa: sp 4 + r11: .cfa -4 + ^
STACK CFI 24abc .cfa: r11 4 +
STACK CFI INIT 13fb8 24 .cfa: sp 0 + .ra: lr
STACK CFI 13fbc .cfa: sp 4 + r11: .cfa -4 + ^
STACK CFI 13fc0 .cfa: r11 4 +
STACK CFI INIT 13ff4 34 .cfa: sp 0 + .ra: lr
STACK CFI 13ff8 .cfa: sp 4 + r11: .cfa -4 + ^
STACK CFI 13ffc .cfa: r11 4 +
STACK CFI INIT 14028 44 .cfa: sp 0 + .ra: lr
STACK CFI 1402c .cfa: sp 8 + .ra: .cfa -4 + ^ r11: .cfa -8 + ^
STACK CFI 14030 .cfa: r11 4 +
STACK CFI INIT 1406c 30 .cfa: sp 0 + .ra: lr
STACK CFI 14070 .cfa: sp 8 + .ra: .cfa -4 + ^ r11: .cfa -8 + ^
STACK CFI 14074 .cfa: r11 4 +
STACK CFI INIT 1409c b4 .cfa: sp 0 + .ra: lr
STACK CFI 140a0 .cfa: sp 24 + .ra: .cfa -4 + ^ r11: .cfa -8 + ^ r3: .cfa -24 + ^ r4: .cfa -20 + ^ r5: .cfa -16 + ^ r6: .cfa -12 + ^
STACK CFI 140a4 .cfa: r11 4 +
STACK CFI INIT 19158 1c .cfa: sp 0 + .ra: lr
STACK CFI 1915c .cfa: sp 4 + r11: .cfa -4 + ^
STACK CFI 19160 .cfa: r11 4 +
STACK CFI INIT 19174 60 .cfa: sp 0 + .ra: lr
STACK CFI 19178 .cfa: sp 4 + r11: .cfa -4 + ^
STACK CFI 1917c .cfa: r11 4 +
STACK CFI INIT 191d4 24 .cfa: sp 0 + .ra: lr
STACK CFI 191d8 .cfa: sp 4 + r11: .cfa -4 + ^
STACK CFI 191dc .cfa: r11 4 +
