MODULE Linux arm B9238B41BD6963BCB5376BA65080EC870 libstdc++.so.6.0.19
PUBLIC 465c4 0 _ZNSt11char_traitsIcE2eqERKcS2_
PUBLIC 465dc 0 _ZNSt11char_traitsIwE2eqERKwS2_
PUBLIC 465f4 0 _ZN10__gnu_norm15_List_node_base4swapERS0_S1_
PUBLIC 46690 0 _ZN10__gnu_norm15_List_node_base8transferEPS0_S1_
PUBLIC 466cc 0 _ZN10__gnu_norm15_List_node_base7reverseEv
PUBLIC 466ec 0 _ZN10__gnu_norm15_List_node_base4hookEPS0_
PUBLIC 46708 0 _ZN10__gnu_norm15_List_node_base6unhookEv
PUBLIC 4671c 0 acosl
PUBLIC 46720 0 asinl
PUBLIC 46724 0 atan2l
PUBLIC 46728 0 atanl
PUBLIC 4672c 0 ceill
PUBLIC 46730 0 coshl
PUBLIC 46734 0 cosl
PUBLIC 46738 0 expl
PUBLIC 4673c 0 floorl
PUBLIC 46740 0 fmodl
PUBLIC 46744 0 frexpl
PUBLIC 46748 0 hypotl
PUBLIC 4674c 0 ldexpl
PUBLIC 46750 0 log10l
PUBLIC 46754 0 logl
PUBLIC 46758 0 modfl
PUBLIC 4675c 0 powl
PUBLIC 46760 0 sinhl
PUBLIC 46764 0 sinl
PUBLIC 46768 0 sqrtl
PUBLIC 4676c 0 tanhl
PUBLIC 46770 0 tanl
PUBLIC 46774 0 _ZNSt19istreambuf_iteratorIcSt11char_traitsIcEEppEv
PUBLIC 467b8 0 _ZNSt19istreambuf_iteratorIwSt11char_traitsIwEEppEv
PUBLIC 467fc 0 _ZNSs7_M_copyEPcPKcj
PUBLIC 46814 0 _ZNSs7_M_moveEPcPKcj
PUBLIC 4682c 0 _ZNSs9_M_assignEPcjc
PUBLIC 46848 0 _ZNKSs11_M_disjunctEPKc
PUBLIC 46874 0 _ZNKSs15_M_check_lengthEjjPKc
PUBLIC 4689c 0 _ZNSs4_Rep26_M_set_length_and_sharableEj
PUBLIC 468d0 0 _ZNSi6ignoreEv
PUBLIC 469ec 0 _ZNSi6ignoreEi
PUBLIC 46c04 0 _ZNKSt13basic_fstreamIcSt11char_traitsIcEE7is_openEv
PUBLIC 46c0c 0 _ZNKSt14basic_ifstreamIcSt11char_traitsIcEE7is_openEv
PUBLIC 46c14 0 _ZNKSt14basic_ofstreamIcSt11char_traitsIcEE7is_openEv
PUBLIC 46c1c 0 _ZNSbIwSt11char_traitsIwESaIwEE7_M_copyEPwPKwj
PUBLIC 46c34 0 _ZNSbIwSt11char_traitsIwESaIwEE7_M_moveEPwPKwj
PUBLIC 46c4c 0 _ZNSbIwSt11char_traitsIwESaIwEE9_M_assignEPwjw
PUBLIC 46c68 0 _ZNKSbIwSt11char_traitsIwESaIwEE11_M_disjunctEPKw
PUBLIC 46c94 0 _ZNKSbIwSt11char_traitsIwESaIwEE15_M_check_lengthEjjPKc
PUBLIC 46cbc 0 _ZNSbIwSt11char_traitsIwESaIwEE4_Rep26_M_set_length_and_sharableEj
PUBLIC 46cf0 0 _ZNSt13basic_istreamIwSt11char_traitsIwEE6ignoreEv
PUBLIC 46e1c 0 _ZNSt13basic_istreamIwSt11char_traitsIwEE6ignoreEi
PUBLIC 47038 0 _ZNKSt13basic_fstreamIwSt11char_traitsIwEE7is_openEv
PUBLIC 47040 0 _ZNKSt14basic_ifstreamIwSt11char_traitsIwEE7is_openEv
PUBLIC 47048 0 _ZNKSt14basic_ofstreamIwSt11char_traitsIwEE7is_openEv
PUBLIC 47050 0 _ZNSt6__norm15_List_node_base4swapERS0_S1_
PUBLIC 470ec 0 _ZNSt6__norm15_List_node_base8transferEPS0_S1_
PUBLIC 47128 0 _ZNSt6__norm15_List_node_base7reverseEv
PUBLIC 47148 0 _ZNSt6__norm15_List_node_base4hookEPS0_
PUBLIC 47164 0 _ZNSt6__norm15_List_node_base6unhookEv
PUBLIC 47178 0 _ZNSt6__norm15_List_node_base11_M_transferEPS0_S1_
PUBLIC 471b4 0 _ZNSt6__norm15_List_node_base10_M_reverseEv
PUBLIC 471d4 0 _ZNSt6__norm15_List_node_base7_M_hookEPS0_
PUBLIC 471f0 0 _ZNSt6__norm15_List_node_base9_M_unhookEv
PUBLIC 47204 0 _ZNKSt10lock_error4whatEv
PUBLIC 47284 0 _ZNKSt4hashISsEclESs
PUBLIC 47298 0 _ZNKSt4hashIRKSsEclES1_
PUBLIC 472ac 0 _ZNKSt4hashISbIwSt11char_traitsIwESaIwEEEclES3_
PUBLIC 472c4 0 _ZNKSt4hashIRKSbIwSt11char_traitsIwESaIwEEEclES5_
PUBLIC 472dc 0 _ZNKSt4hashISt10error_codeEclES0_
PUBLIC 47314 0 _ZNSt9__atomic011atomic_flag12test_and_setESt12memory_order
PUBLIC 47388 0 _ZNSt9__atomic011atomic_flag5clearESt12memory_order
PUBLIC 473e8 0 atomic_flag_test_and_set_explicit
PUBLIC 47424 0 atomic_flag_clear_explicit
PUBLIC 47440 0 __atomic_flag_wait_explicit
PUBLIC 47464 0 __atomic_flag_for_address
PUBLIC 47498 0 _ZNSt6chrono12system_clock3nowEv
PUBLIC 474d4 0 _ZN10__cxxabiv117__array_type_infoD1Ev
PUBLIC 47508 0 _ZN10__cxxabiv117__array_type_infoD0Ev
PUBLIC 47524 0 __aeabi_atexit
PUBLIC 47688 0 __cxa_thread_atexit
PUBLIC 47790 0 _ZNKSt9bad_alloc4whatEv
PUBLIC 477a0 0 _ZNSt9bad_allocD2Ev
PUBLIC 477d4 0 _ZNSt9bad_allocD0Ev
PUBLIC 477f0 0 _ZNKSt8bad_cast4whatEv
PUBLIC 47800 0 _ZNSt8bad_castD2Ev
PUBLIC 47834 0 _ZNSt8bad_castD0Ev
PUBLIC 47850 0 _ZNKSt10bad_typeid4whatEv
PUBLIC 47860 0 _ZNSt10bad_typeidD2Ev
PUBLIC 47894 0 _ZNSt10bad_typeidD0Ev
PUBLIC 478b0 0 _ZNK10__cxxabiv117__class_type_info11__do_upcastEPKS0_PPv
PUBLIC 4790c 0 _ZNK10__cxxabiv117__class_type_info20__do_find_public_srcEiPKvPKS0_S2_
PUBLIC 47920 0 _ZN10__cxxabiv117__class_type_infoD1Ev
PUBLIC 47954 0 _ZN10__cxxabiv117__class_type_infoD0Ev
PUBLIC 47970 0 _ZNK10__cxxabiv117__class_type_info11__do_upcastEPKS0_PKvRNS0_15__upcast_resultE
PUBLIC 4799c 0 _ZNK10__cxxabiv117__class_type_info10__do_catchEPKSt9type_infoPPvj
PUBLIC 479e0 0 _ZNK10__cxxabiv117__class_type_info12__do_dyncastEiNS0_10__sub_kindEPKS0_PKvS3_S5_RNS0_16__dyncast_resultE
PUBLIC 47a50 0 _ZdlPv
PUBLIC 47a5c 0 _ZdlPvRKSt9nothrow_t
PUBLIC 47a60 0 _ZdaPv
PUBLIC 47a64 0 _ZdaPvRKSt9nothrow_t
PUBLIC 47a68 0 __dynamic_cast
PUBLIC 47d0c 0 __cxa_allocate_exception
PUBLIC 47e14 0 __cxa_free_exception
PUBLIC 47ef0 0 __cxa_allocate_dependent_exception
PUBLIC 47ff4 0 __cxa_free_dependent_exception
PUBLIC 480d8 0 __cxa_end_cleanup
PUBLIC 480e8 0 __cxa_type_match
PUBLIC 48238 0 __cxa_begin_cleanup
PUBLIC 483a0 0 __cxa_bad_cast
PUBLIC 483e8 0 __cxa_bad_typeid
PUBLIC 484ac 0 __cxa_call_unexpected
PUBLIC 48660 0 __cxa_get_exception_ptr
PUBLIC 48668 0 __cxa_begin_catch
PUBLIC 48748 0 __cxa_end_catch
PUBLIC 48820 0 _ZSt18uncaught_exceptionv
PUBLIC 48838 0 _ZNSt9exceptionD1Ev
PUBLIC 4885c 0 _ZNSt13bad_exceptionD2Ev
PUBLIC 48890 0 _ZNKSt9exception4whatEv
PUBLIC 488a0 0 _ZNKSt13bad_exception4whatEv
PUBLIC 488b0 0 _ZNSt9exceptionD0Ev
PUBLIC 488cc 0 _ZNSt13bad_exceptionD0Ev
PUBLIC 488e8 0 __cxa_get_globals_fast
PUBLIC 4890c 0 __cxa_get_globals
PUBLIC 48c44 0 __gxx_personality_v0
PUBLIC 492c8 0 _ZSt9terminatev
PUBLIC 492f8 0 _ZSt10unexpectedv
PUBLIC 4931c 0 _ZSt13set_terminatePFvvE
PUBLIC 49344 0 _ZSt14set_unexpectedPFvvE
PUBLIC 4936c 0 __cxa_tm_cleanup
PUBLIC 49548 0 __cxa_throw
PUBLIC 4960c 0 __cxa_rethrow
PUBLIC 496bc 0 __cxa_current_exception_type
PUBLIC 496e8 0 _ZN10__cxxabiv116__enum_type_infoD1Ev
PUBLIC 4971c 0 _ZN10__cxxabiv116__enum_type_infoD0Ev
PUBLIC 49738 0 _ZNK10__cxxabiv120__function_type_info15__is_function_pEv
PUBLIC 49740 0 _ZN10__cxxabiv120__function_type_infoD1Ev
PUBLIC 49774 0 _ZN10__cxxabiv120__function_type_infoD0Ev
PUBLIC 49790 0 _ZN10__cxxabiv123__fundamental_type_infoD1Ev
PUBLIC 497c4 0 _ZN10__cxxabiv123__fundamental_type_infoD0Ev
PUBLIC 499e8 0 __cxa_guard_acquire
PUBLIC 49bf8 0 __cxa_guard_abort
PUBLIC 49cf0 0 __cxa_guard_release
PUBLIC 49e48 0 _ZSt11_Hash_bytesPKvjj
PUBLIC 49f1c 0 _ZSt15_Fnv_hash_bytesPKvjj
PUBLIC 49f50 0 _ZSt15set_new_handlerPFvvE
PUBLIC 49f78 0 _Znwj
PUBLIC 4a01c 0 _ZnwjRKSt9nothrow_t
PUBLIC 4a0a8 0 _Znaj
PUBLIC 4a0c4 0 _ZnajRKSt9nothrow_t
PUBLIC 4a0c8 0 _ZNK10__cxxabiv117__pbase_type_info15__pointer_catchEPKS0_PPvj
PUBLIC 4a0e8 0 _ZN10__cxxabiv117__pbase_type_infoD2Ev
PUBLIC 4a11c 0 _ZN10__cxxabiv117__pbase_type_infoD0Ev
PUBLIC 4a138 0 _ZNK10__cxxabiv117__pbase_type_info10__do_catchEPKSt9type_infoPPvj
PUBLIC 4a1c8 0 _ZN10__cxxabiv129__pointer_to_member_type_infoD2Ev
PUBLIC 4a1fc 0 _ZN10__cxxabiv129__pointer_to_member_type_infoD0Ev
PUBLIC 4a218 0 _ZNK10__cxxabiv129__pointer_to_member_type_info15__pointer_catchEPKNS_17__pbase_type_infoEPPvj
PUBLIC 4a260 0 _ZNK10__cxxabiv119__pointer_type_info14__is_pointer_pEv
PUBLIC 4a268 0 _ZN10__cxxabiv119__pointer_type_infoD1Ev
PUBLIC 4a29c 0 _ZN10__cxxabiv119__pointer_type_infoD0Ev
PUBLIC 4a2b8 0 _ZNK10__cxxabiv119__pointer_type_info15__pointer_catchEPKNS_17__pbase_type_infoEPPvj
PUBLIC 4a344 0 _ZN10__cxxabiv120__si_class_type_infoD2Ev
PUBLIC 4a378 0 _ZN10__cxxabiv120__si_class_type_infoD0Ev
PUBLIC 4a394 0 _ZNK10__cxxabiv120__si_class_type_info20__do_find_public_srcEiPKvPKNS_17__class_type_infoES2_
PUBLIC 4a3f8 0 _ZNK10__cxxabiv120__si_class_type_info12__do_dyncastEiNS_17__class_type_info10__sub_kindEPKS1_PKvS4_S6_RNS1_16__dyncast_resultE
PUBLIC 4a4d8 0 _ZNK10__cxxabiv120__si_class_type_info11__do_upcastEPKNS_17__class_type_infoEPKvRNS1_15__upcast_resultE
PUBLIC 4a518 0 _ZNSt9type_infoD2Ev
PUBLIC 4a53c 0 _ZNKSt9type_info14__is_pointer_pEv
PUBLIC 4a544 0 _ZNKSt9type_info15__is_function_pEv
PUBLIC 4a54c 0 _ZNKSt9type_info11__do_upcastEPKN10__cxxabiv117__class_type_infoEPPv
PUBLIC 4a554 0 _ZNSt9type_infoD0Ev
PUBLIC 4a570 0 _ZNKSt9type_infoeqERKS_
PUBLIC 4a5bc 0 _ZNKSt9type_info10__do_catchEPKS_PPvj
PUBLIC 4a5c0 0 _ZNKSt9type_info6beforeERKS_
PUBLIC 4a6e0 0 __cxa_vec_cleanup
PUBLIC 4a720 0 __cxa_vec_ctor
PUBLIC 4a7a8 0 __cxa_vec_new2
PUBLIC 4a854 0 __cxa_vec_new
PUBLIC 4a89c 0 __cxa_vec_new3
PUBLIC 4a950 0 __cxa_vec_cctor
PUBLIC 4a9e8 0 __cxa_vec_dtor
PUBLIC 4aa64 0 __cxa_vec_delete2
PUBLIC 4aaec 0 __cxa_vec_delete
PUBLIC 4ab1c 0 __cxa_vec_delete3
PUBLIC 4abb4 0 __aeabi_vec_ctor_nocookie_nodtor
PUBLIC 4abdc 0 __aeabi_vec_ctor_cookie_nodtor
PUBLIC 4ac18 0 __aeabi_vec_cctor_nocookie_nodtor
PUBLIC 4ac48 0 __aeabi_vec_new_cookie_noctor
PUBLIC 4ac74 0 __aeabi_vec_new_nocookie
PUBLIC 4aca0 0 __aeabi_vec_new_cookie_nodtor
PUBLIC 4acd0 0 __aeabi_vec_new_cookie
PUBLIC 4acfc 0 __aeabi_vec_dtor
PUBLIC 4ad1c 0 __aeabi_vec_dtor_cookie
PUBLIC 4ad40 0 __aeabi_vec_delete
PUBLIC 4ad58 0 __aeabi_vec_delete3
PUBLIC 4ad84 0 __aeabi_vec_delete3_nodtor
PUBLIC 4adb4 0 _ZN10__cxxabiv121__vmi_class_type_infoD1Ev
PUBLIC 4ade8 0 _ZN10__cxxabiv121__vmi_class_type_infoD0Ev
PUBLIC 4ae04 0 _ZNK10__cxxabiv121__vmi_class_type_info20__do_find_public_srcEiPKvPKNS_17__class_type_infoES2_
PUBLIC 4aed8 0 _ZNK10__cxxabiv121__vmi_class_type_info12__do_dyncastEiNS_17__class_type_info10__sub_kindEPKS1_PKvS4_S6_RNS1_16__dyncast_resultE
PUBLIC 4b434 0 _ZNK10__cxxabiv121__vmi_class_type_info11__do_upcastEPKNS_17__class_type_infoEPKvRNS1_15__upcast_resultE
PUBLIC 4b650 0 _ZN9__gnu_cxx27__verbose_terminate_handlerEv
PUBLIC 4b7fc 0 __cxa_pure_virtual
PUBLIC 4b81c 0 __cxa_deleted_virtual
PUBLIC 53d2c 0 __cxa_demangle
PUBLIC 53ef8 0 _ZN9__gnu_cxx9free_list8_M_clearEv
PUBLIC 540f0 0 _ZN9__gnu_cxx9free_list6_M_getEj
PUBLIC 54338 0 _ZN9__gnu_cxx17__pool_alloc_base16_M_get_free_listEj
PUBLIC 54364 0 _ZN9__gnu_cxx17__pool_alloc_base12_M_get_mutexEv
PUBLIC 5457c 0 _ZN9__gnu_cxx17__pool_alloc_base9_M_refillEj
PUBLIC 547c0 0 _ZN9__gnu_cxx6__poolILb0EE10_M_destroyEv
PUBLIC 54848 0 _ZN9__gnu_cxx6__poolILb0EE16_M_reclaim_blockEPcj
PUBLIC 54874 0 _ZN9__gnu_cxx6__poolILb0EE16_M_reserve_blockEjj
PUBLIC 54924 0 _ZN9__gnu_cxx6__poolILb0EE13_M_initializeEv
PUBLIC 54a20 0 _ZN9__gnu_cxx6__poolILb1EE10_M_destroyEv
PUBLIC 54b44 0 _ZN9__gnu_cxx6__poolILb1EE16_M_reserve_blockEjj
PUBLIC 54d74 0 _ZN9__gnu_cxx6__poolILb1EE13_M_initializeEv
PUBLIC 550b4 0 _ZN9__gnu_cxx6__poolILb1EE16_M_get_thread_idEv
PUBLIC 5516c 0 _ZN9__gnu_cxx6__poolILb1EE16_M_reclaim_blockEPcj
PUBLIC 55370 0 _ZN9__gnu_cxx6__poolILb1EE21_M_destroy_thread_keyEPv
PUBLIC 55374 0 _ZN9__gnu_cxx6__poolILb1EE13_M_initializeEPFvPvE
PUBLIC 556b4 0 _ZNKSt7codecvtIcc11__mbstate_tE6do_outERS0_PKcS4_RS4_PcS6_RS6_
PUBLIC 556d0 0 _ZNKSt7codecvtIcc11__mbstate_tE10do_unshiftERS0_PcS3_RS3_
PUBLIC 556e0 0 _ZNKSt7codecvtIcc11__mbstate_tE5do_inERS0_PKcS4_RS4_PcS6_RS6_
PUBLIC 556fc 0 _ZNKSt7codecvtIcc11__mbstate_tE11do_encodingEv
PUBLIC 55704 0 _ZNKSt7codecvtIcc11__mbstate_tE16do_always_noconvEv
PUBLIC 5570c 0 _ZNKSt7codecvtIcc11__mbstate_tE9do_lengthERS0_PKcS4_j
PUBLIC 55720 0 _ZNKSt7codecvtIcc11__mbstate_tE13do_max_lengthEv
PUBLIC 55728 0 _ZNKSt7codecvtIwc11__mbstate_tE10do_unshiftERS0_PcS3_RS3_
PUBLIC 55738 0 _ZNKSt7codecvtIwc11__mbstate_tE16do_always_noconvEv
PUBLIC 55740 0 _ZNSt7codecvtIcc11__mbstate_tED2Ev
PUBLIC 557ac 0 _ZNSt7codecvtIcc11__mbstate_tED0Ev
PUBLIC 557c8 0 _ZNSt7codecvtIwc11__mbstate_tED1Ev
PUBLIC 55834 0 _ZNSt7codecvtIwc11__mbstate_tED0Ev
PUBLIC 55850 0 _ZNSt7codecvtIcc11__mbstate_tEC1Ej
PUBLIC 558c4 0 _ZNSt7codecvtIcc11__mbstate_tEC2EPij
PUBLIC 55918 0 _ZNSt7codecvtIwc11__mbstate_tEC1Ej
PUBLIC 5598c 0 _ZNSt7codecvtIwc11__mbstate_tEC1EPij
PUBLIC 559e0 0 _ZNSt15basic_stringbufIcSt11char_traitsIcESaIcEED1Ev
PUBLIC 55a98 0 _ZNSt15basic_stringbufIwSt11char_traitsIwESaIwEED1Ev
PUBLIC 55b50 0 _ZNSt15basic_stringbufIwSt11char_traitsIwESaIwEED0Ev
PUBLIC 55c10 0 _ZNSt15basic_stringbufIcSt11char_traitsIcESaIcEED0Ev
PUBLIC 55cd0 0 _ZStrsIfcSt11char_traitsIcEERSt13basic_istreamIT0_T1_ES6_RSt7complexIT_E
PUBLIC 55da4 0 _ZStlsIfcSt11char_traitsIcEERSt13basic_ostreamIT0_T1_ES6_RKSt7complexIT_E
PUBLIC 56270 0 _ZStrsIdcSt11char_traitsIcEERSt13basic_istreamIT0_T1_ES6_RSt7complexIT_E
PUBLIC 56348 0 _ZStlsIdcSt11char_traitsIcEERSt13basic_ostreamIT0_T1_ES6_RKSt7complexIT_E
PUBLIC 567dc 0 _ZStrsIecSt11char_traitsIcEERSt13basic_istreamIT0_T1_ES6_RSt7complexIT_E
PUBLIC 568b4 0 _ZStlsIecSt11char_traitsIcEERSt13basic_ostreamIT0_T1_ES6_RKSt7complexIT_E
PUBLIC 56d48 0 _ZStrsIfwSt11char_traitsIwEERSt13basic_istreamIT0_T1_ES6_RSt7complexIT_E
PUBLIC 56e1c 0 _ZStlsIfwSt11char_traitsIwEERSt13basic_ostreamIT0_T1_ES6_RKSt7complexIT_E
PUBLIC 5736c 0 _ZStrsIdwSt11char_traitsIwEERSt13basic_istreamIT0_T1_ES6_RSt7complexIT_E
PUBLIC 57444 0 _ZStlsIdwSt11char_traitsIwEERSt13basic_ostreamIT0_T1_ES6_RKSt7complexIT_E
PUBLIC 5796c 0 _ZStrsIewSt11char_traitsIwEERSt13basic_istreamIT0_T1_ES6_RSt7complexIT_E
PUBLIC 57a44 0 _ZStlsIewSt11char_traitsIwEERSt13basic_ostreamIT0_T1_ES6_RKSt7complexIT_E
PUBLIC 57f6c 0 _ZNKSt5ctypeIcE8do_widenEc
PUBLIC 57f74 0 _ZNKSt5ctypeIcE9do_narrowEcc
PUBLIC 57f7c 0 _ZNKSt5ctypeIcE8do_widenEPKcS2_Pc
PUBLIC 57f98 0 _ZNKSt5ctypeIcE9do_narrowEPKcS2_cPc
PUBLIC 57fb4 0 _ZNSt5ctypeIwED1Ev
PUBLIC 58020 0 _ZNSt12ctype_bynameIwED2Ev
PUBLIC 58054 0 _ZNSt5ctypeIcED1Ev
PUBLIC 580b8 0 _ZNSt5ctypeIwED0Ev
PUBLIC 580d4 0 _ZNSt12ctype_bynameIwED0Ev
PUBLIC 580f0 0 _ZNSt5ctypeIcED0Ev
PUBLIC 5810c 0 _ZNKSt5ctypeIcE14_M_narrow_initEv
PUBLIC 581c0 0 _ZNKSt5ctypeIcE13_M_widen_initEv
PUBLIC 58230 0 _ZNSt5ctypeIwEC2Ej
PUBLIC 582b4 0 _ZNSt5ctypeIwEC2EP15__locale_structj
PUBLIC 58318 0 _ZNSt12ctype_bynameIwEC2EPKcj
PUBLIC 583c4 0 _ZNKSt3tr14hashIeEclEe
PUBLIC 584b4 0 _ZNKSt3tr14hashISsEclESs
PUBLIC 584f4 0 _ZNKSt3tr14hashIRKSsEclES2_
PUBLIC 58534 0 _ZNKSt3tr14hashISbIwSt11char_traitsIwESaIwEEEclES4_
PUBLIC 58574 0 _ZNKSt3tr14hashIRKSbIwSt11char_traitsIwESaIwEEEclES6_
PUBLIC 585b4 0 _ZNSt8ios_baseC2Ev
PUBLIC 58640 0 _ZNSt8ios_base6xallocEv
PUBLIC 5869c 0 _ZNSt8ios_base17register_callbackEPFvNS_5eventERS_iEi
PUBLIC 586cc 0 _ZNSt8ios_base13_M_grow_wordsEib
PUBLIC 58848 0 _ZNSt8ios_base17_M_call_callbacksENS_5eventE
PUBLIC 588a0 0 _ZNSt8ios_base20_M_dispose_callbacksEv
PUBLIC 5891c 0 _ZNSt8ios_baseD1Ev
PUBLIC 58988 0 _ZNSt8ios_baseD0Ev
PUBLIC 589a4 0 _ZNKSt8ios_base7failure4whatEv
PUBLIC 589ac 0 _ZNSt8ios_base7failureD1Ev
PUBLIC 58a50 0 _ZNSt8ios_base7failureD0Ev
PUBLIC 58a6c 0 _ZNSt8ios_base7failureC1ERKSs
PUBLIC 58ac4 0 _ZNSt8ios_base4InitC1Ev
PUBLIC 591e8 0 _ZNSt8ios_base4InitD1Ev
PUBLIC 592bc 0 _ZNSt8ios_base15sync_with_stdioEb
PUBLIC 59590 0 _ZNSt8ios_base7_M_initEv
PUBLIC 595d8 0 _ZNSt8ios_base5imbueERKSt6locale
PUBLIC 59614 0 _ZNSt8__detail15_List_node_base4swapERS0_S1_
PUBLIC 596b0 0 _ZNSt8__detail15_List_node_base11_M_transferEPS0_S1_
PUBLIC 596ec 0 _ZNSt8__detail15_List_node_base10_M_reverseEv
PUBLIC 5970c 0 _ZNSt8__detail15_List_node_base7_M_hookEPS0_
PUBLIC 59728 0 _ZNSt8__detail15_List_node_base9_M_unhookEv
PUBLIC 5973c 0 _ZNSt15_List_node_base4swapERS_S0_
PUBLIC 597d8 0 _ZNSt15_List_node_base8transferEPS_S0_
PUBLIC 59814 0 _ZNSt15_List_node_base7reverseEv
PUBLIC 59834 0 _ZNSt15_List_node_base4hookEPS_
PUBLIC 59850 0 _ZNSt15_List_node_base6unhookEv
PUBLIC 59864 0 _ZNSt15_List_node_base11_M_transferEPS_S0_
PUBLIC 598a0 0 _ZNSt15_List_node_base10_M_reverseEv
PUBLIC 598c0 0 _ZNSt15_List_node_base7_M_hookEPS_
PUBLIC 598dc 0 _ZNSt15_List_node_base9_M_unhookEv
PUBLIC 598f0 0 _ZNSt9__cxx199815_List_node_base4swapERS0_S1_
PUBLIC 5998c 0 _ZNSt9__cxx199815_List_node_base8transferEPS0_S1_
PUBLIC 599c8 0 _ZNSt9__cxx199815_List_node_base7reverseEv
PUBLIC 599e8 0 _ZNSt9__cxx199815_List_node_base4hookEPS0_
PUBLIC 59a04 0 _ZNSt9__cxx199815_List_node_base6unhookEv
PUBLIC 59a18 0 _ZNSt9__cxx199815_List_node_base11_M_transferEPS0_S1_
PUBLIC 59a54 0 _ZNSt9__cxx199815_List_node_base10_M_reverseEv
PUBLIC 59a74 0 _ZNSt9__cxx199815_List_node_base7_M_hookEPS0_
PUBLIC 59a90 0 _ZNSt9__cxx199815_List_node_base9_M_unhookEv
PUBLIC 59aa4 0 _ZNSt6locale5facetD1Ev
PUBLIC 59ac8 0 _ZNSt6locale5facetD0Ev
PUBLIC 59b10 0 _ZNSt6localeC1ERKS_
PUBLIC 59b60 0 _ZNSt6localeC1EPNS_5_ImplE
PUBLIC 59b68 0 _ZNKSt6locale4nameEv
PUBLIC 59e14 0 _ZNKSt6localeeqERKS_
PUBLIC 59ffc 0 _ZNSt6locale21_S_normalize_categoryEi
PUBLIC 5a080 0 _ZNSt6locale5facet15_S_get_c_localeEv
PUBLIC 5a0f0 0 _ZNSt6locale5facet13_S_get_c_nameEv
PUBLIC 5a10c 0 _ZNSt6locale5_ImplD1Ev
PUBLIC 5a2c0 0 _ZNSt6localeaSERKS_
PUBLIC 5a364 0 _ZNSt6localeD1Ev
PUBLIC 5a3dc 0 _ZNSt6locale5_ImplC2ERKS0_j
PUBLIC 5a5c8 0 _ZNSt6locale5_Impl16_M_install_cacheEPKNS_5facetEj
PUBLIC 5a754 0 _ZNKSt6locale2id5_M_idEv
PUBLIC 5a7c0 0 _ZNSt6locale5_Impl16_M_install_facetEPKNS_2idEPKNS_5facetE
PUBLIC 5aa70 0 _ZNSt6locale5_Impl16_M_replace_facetEPKS0_PKNS_2idE
PUBLIC 5aac8 0 _ZNSt6locale5_Impl19_M_replace_categoryEPKS0_PKPKNS_2idE
PUBLIC 5ab6c 0 _ZNSt6locale5_ImplC1Ej
PUBLIC 5bab8 0 _ZNSt6localeC2Ev
PUBLIC 5bbbc 0 _ZNSt6locale7classicEv
PUBLIC 5bbfc 0 _ZNSt6locale6globalERKS_
PUBLIC 5bd94 0 _ZNSt10__num_base15_S_format_floatERKSt8ios_basePcc
PUBLIC 5be3c 0 _ZSt17__verify_groupingPKcjRKSs
PUBLIC 5bf08 0 _ZNSt6locale5_ImplC2EPKcj
PUBLIC 5c9bc 0 _ZNSt6localeC1EPKc
PUBLIC 5d2e8 0 _ZNSt6locale5_Impl21_M_replace_categoriesEPKS0_i
PUBLIC 5d490 0 _ZNSt6locale11_M_coalesceERKS_S1_i
PUBLIC 5d55c 0 _ZNSt6localeC2ERKS_S1_i
PUBLIC 5d578 0 _ZNSt6localeC1ERKS_PKci
PUBLIC 5d5d8 0 _ZNKSt11logic_error4whatEv
PUBLIC 5d5e0 0 _ZNKSt13runtime_error4whatEv
PUBLIC 5d5e8 0 _ZNSt11logic_errorD1Ev
PUBLIC 5d68c 0 _ZNSt11logic_errorD0Ev
PUBLIC 5d6a8 0 _ZNSt12domain_errorD2Ev
PUBLIC 5d6dc 0 _ZNSt12domain_errorD0Ev
PUBLIC 5d6f8 0 _ZNSt16invalid_argumentD1Ev
PUBLIC 5d72c 0 _ZNSt16invalid_argumentD0Ev
PUBLIC 5d748 0 _ZNSt12length_errorD2Ev
PUBLIC 5d77c 0 _ZNSt12length_errorD0Ev
PUBLIC 5d798 0 _ZNSt12out_of_rangeD1Ev
PUBLIC 5d7cc 0 _ZNSt12out_of_rangeD0Ev
PUBLIC 5d7e8 0 _ZNSt13runtime_errorD2Ev
PUBLIC 5d88c 0 _ZNSt13runtime_errorD0Ev
PUBLIC 5d8a8 0 _ZNSt11range_errorD1Ev
PUBLIC 5d8dc 0 _ZNSt11range_errorD0Ev
PUBLIC 5d8f8 0 _ZNSt14overflow_errorD1Ev
PUBLIC 5d92c 0 _ZNSt14overflow_errorD0Ev
PUBLIC 5d948 0 _ZNSt15underflow_errorD2Ev
PUBLIC 5d97c 0 _ZNSt15underflow_errorD0Ev
PUBLIC 5d998 0 _ZNSt11logic_errorC2ERKSs
PUBLIC 5d9d8 0 _ZNSt12domain_errorC2ERKSs
PUBLIC 5da10 0 _ZNSt16invalid_argumentC2ERKSs
PUBLIC 5da48 0 _ZNSt12length_errorC2ERKSs
PUBLIC 5da80 0 _ZNSt12out_of_rangeC1ERKSs
PUBLIC 5dab8 0 _ZNSt13runtime_errorC1ERKSs
PUBLIC 5daf8 0 _ZNSt11range_errorC1ERKSs
PUBLIC 5db30 0 _ZNSt14overflow_errorC2ERKSs
PUBLIC 5db68 0 _ZNSt15underflow_errorC1ERKSs
PUBLIC 5dba0 0 _ZNSt12strstreambuf9pbackfailEi
PUBLIC 5dc08 0 _ZNSt12strstreambuf9underflowEv
PUBLIC 5dc40 0 _ZNSt12strstreambuf6setbufEPci
PUBLIC 5dc44 0 _ZNSt12strstreambuf7seekoffExSt12_Ios_SeekdirSt13_Ios_Openmode
PUBLIC 5dddc 0 _ZNSt12strstreambuf7seekposESt4fposI11__mbstate_tESt13_Ios_Openmode
PUBLIC 5de28 0 _ZNSt12strstreambuf6freezeEb
PUBLIC 5de44 0 _ZNSt12strstreambuf3strEv
PUBLIC 5de5c 0 _ZNKSt12strstreambuf6pcountEv
PUBLIC 5de74 0 _ZNSt12strstreambuf8_M_allocEj
PUBLIC 5de98 0 _ZNSt12strstreambufC2EPFPvjEPFvS0_E
PUBLIC 5df68 0 _ZNSt12strstreambufC1Ei
PUBLIC 5e03c 0 _ZNSt12strstreambuf7_M_freeEPc
PUBLIC 5e068 0 _ZNSt12strstreambufD1Ev
PUBLIC 5e0f0 0 _ZNSt12strstreambufD0Ev
PUBLIC 5e10c 0 _ZNSt10istrstreamD1Ev
PUBLIC 5e1b4 0 _ZNSt10istrstreamD0Ev
PUBLIC 5e1d0 0 _ZNSt10ostrstreamD1Ev
PUBLIC 5e270 0 _ZNSt10ostrstreamD0Ev
PUBLIC 5e28c 0 _ZNSt9strstreamD1Ev
PUBLIC 5e350 0 _ZThn8_NSt9strstreamD1Ev
PUBLIC 5e358 0 _ZNSt9strstreamD0Ev
PUBLIC 5e374 0 _ZThn8_NSt9strstreamD0Ev
PUBLIC 5e37c 0 _ZNSt12strstreambuf8overflowEi
PUBLIC 5e48c 0 _ZNSt12strstreambuf8_M_setupEPcS0_i
PUBLIC 5e510 0 _ZNSt12strstreambufC1EPciS0_
PUBLIC 5e5a8 0 _ZNSt12strstreambufC2EPaiS0_
PUBLIC 5e640 0 _ZNSt12strstreambufC1EPhiS0_
PUBLIC 5e6d8 0 _ZNSt12strstreambufC1EPKci
PUBLIC 5e770 0 _ZNSt12strstreambufC1EPKai
PUBLIC 5e808 0 _ZNSt12strstreambufC2EPKhi
PUBLIC 5e8a0 0 _ZNSt10istrstreamC2EPc
PUBLIC 5e94c 0 _ZNSt10istrstreamC1EPc
PUBLIC 5ea48 0 _ZNSt10istrstreamC2EPKc
PUBLIC 5eaf0 0 _ZNSt10istrstreamC1EPKc
PUBLIC 5ebe8 0 _ZNSt10istrstreamC2EPci
PUBLIC 5ec98 0 _ZNSt10istrstreamC1EPci
PUBLIC 5ed98 0 _ZNSt10istrstreamC2EPKci
PUBLIC 5ee40 0 _ZNSt10istrstreamC1EPKci
PUBLIC 5ef3c 0 _ZNSt10istrstreamD2Ev
PUBLIC 5efa8 0 _ZNKSt10istrstream5rdbufEv
PUBLIC 5efb0 0 _ZNSt10istrstream3strEv
PUBLIC 5efb8 0 _ZNSt10ostrstreamC2Ev
PUBLIC 5f048 0 _ZNSt10ostrstreamC1Ev
PUBLIC 5f130 0 _ZNSt10ostrstreamC2EPciSt13_Ios_Openmode
PUBLIC 5f1e4 0 _ZNSt10ostrstreamC1EPciSt13_Ios_Openmode
PUBLIC 5f2f0 0 _ZNSt10ostrstreamD2Ev
PUBLIC 5f34c 0 _ZNKSt10ostrstream5rdbufEv
PUBLIC 5f354 0 _ZNSt10ostrstream6freezeEb
PUBLIC 5f35c 0 _ZNSt10ostrstream3strEv
PUBLIC 5f364 0 _ZNKSt10ostrstream6pcountEv
PUBLIC 5f36c 0 _ZNSt9strstreamC2Ev
PUBLIC 5f468 0 _ZNSt9strstreamC1Ev
PUBLIC 5f5a4 0 _ZNSt9strstreamC2EPciSt13_Ios_Openmode
PUBLIC 5f6c4 0 _ZNSt9strstreamC1EPciSt13_Ios_Openmode
PUBLIC 5f824 0 _ZNSt9strstreamD2Ev
PUBLIC 5f8bc 0 _ZNKSt9strstream5rdbufEv
PUBLIC 5f8c4 0 _ZNSt9strstream6freezeEb
PUBLIC 5f8cc 0 _ZNKSt9strstream6pcountEv
PUBLIC 5f8d4 0 _ZNSt9strstream3strEv
PUBLIC 5f8dc 0 _ZTv0_n12_NSt10istrstreamD1Ev
PUBLIC 5f8ec 0 _ZTv0_n12_NSt10istrstreamD0Ev
PUBLIC 5f8fc 0 _ZTv0_n12_NSt10ostrstreamD1Ev
PUBLIC 5f90c 0 _ZTv0_n12_NSt10ostrstreamD0Ev
PUBLIC 5f91c 0 _ZTv0_n12_NSt9strstreamD1Ev
PUBLIC 5f92c 0 _ZTv0_n12_NSt9strstreamD0Ev
PUBLIC 5fa50 0 _ZSt18_Rb_tree_incrementPSt18_Rb_tree_node_base
PUBLIC 5fabc 0 _ZSt18_Rb_tree_incrementPKSt18_Rb_tree_node_base
PUBLIC 5fb28 0 _ZSt18_Rb_tree_decrementPSt18_Rb_tree_node_base
PUBLIC 5fb2c 0 _ZSt18_Rb_tree_decrementPKSt18_Rb_tree_node_base
PUBLIC 5fb30 0 _ZSt20_Rb_tree_rotate_leftPSt18_Rb_tree_node_baseRS0_
PUBLIC 5fb34 0 _ZSt21_Rb_tree_rotate_rightPSt18_Rb_tree_node_baseRS0_
PUBLIC 5fb38 0 _ZSt29_Rb_tree_insert_and_rebalancebPSt18_Rb_tree_node_baseS0_RS_
PUBLIC 5fc9c 0 _ZSt28_Rb_tree_rebalance_for_erasePSt18_Rb_tree_node_baseRS_
PUBLIC 60078 0 _ZSt20_Rb_tree_black_countPKSt18_Rb_tree_node_baseS1_
PUBLIC 600a8 0 _ZNSi7getlineEPcic
PUBLIC 6034c 0 _ZNSi6ignoreEii
PUBLIC 605ec 0 _ZStrsIcSt11char_traitsIcEERSt13basic_istreamIT_T0_ES6_PS3_
PUBLIC 608e4 0 _ZStrsIcSt11char_traitsIcESaIcEERSt13basic_istreamIT_T0_ES7_RSbIS4_S5_T1_E
PUBLIC 60c84 0 _ZSt7getlineIcSt11char_traitsIcESaIcEERSt13basic_istreamIT_T0_ES7_RSbIS4_S5_T1_ES4_
PUBLIC 60fa4 0 _ZNSt13basic_istreamIwSt11char_traitsIwEE7getlineEPwiw
PUBLIC 61248 0 _ZNSt13basic_istreamIwSt11char_traitsIwEE6ignoreEij
PUBLIC 614e8 0 _ZSt7getlineIwSt11char_traitsIwESaIwEERSt13basic_istreamIT_T0_ES7_RSbIS4_S5_T1_ES4_
PUBLIC 61810 0 _ZSt21__copy_streambufs_eofIcSt11char_traitsIcEEiPSt15basic_streambufIT_T0_ES6_Rb
PUBLIC 6196c 0 _ZSt21__copy_streambufs_eofIwSt11char_traitsIwEEiPSt15basic_streambufIT_T0_ES6_Rb
PUBLIC 61bd8 0 _ZNSt6gslice8_IndexerC1EjRKSt8valarrayIjES4_
PUBLIC 61ce8 0 _ZNSt8valarrayIjED1Ev
PUBLIC 61d00 0 _ZNSt8valarrayIjEC1ERKS0_
PUBLIC 61d3c 0 _ZNSt8valarrayIjEC1Ej
PUBLIC 61d6c 0 _ZNKSt8valarrayIjE4sizeEv
PUBLIC 61d74 0 _ZNSt8valarrayIjEixEj
PUBLIC 61d80 0 _ZN9__gnu_cxx18__exchange_and_addEPVii
PUBLIC 61d8c 0 _ZN9__gnu_cxx12__atomic_addEPVii
PUBLIC 61d98 0 _ZNKSt7codecvtIwc11__mbstate_tE6do_outERS0_PKwS4_RS4_PcS6_RS6_
PUBLIC 61f7c 0 _ZNKSt7codecvtIwc11__mbstate_tE5do_inERS0_PKcS4_RS4_PwS6_RS6_
PUBLIC 6212c 0 _ZNKSt7codecvtIwc11__mbstate_tE11do_encodingEv
PUBLIC 6215c 0 _ZNKSt7codecvtIwc11__mbstate_tE13do_max_lengthEv
PUBLIC 62184 0 _ZNKSt7codecvtIwc11__mbstate_tE9do_lengthERS0_PKcS4_j
PUBLIC 62314 0 _ZNKSt7collateIcE10_M_compareEPKcS2_
PUBLIC 62340 0 _ZNKSt7collateIcE12_M_transformEPcPKcj
PUBLIC 62358 0 _ZNKSt7collateIwE10_M_compareEPKwS2_
PUBLIC 62384 0 _ZNKSt7collateIwE12_M_transformEPwPKwj
PUBLIC 6239c 0 _ZNKSt5ctypeIcE10do_toupperEc
PUBLIC 623a8 0 _ZNKSt5ctypeIcE10do_toupperEPcPKc
PUBLIC 623d0 0 _ZNKSt5ctypeIcE10do_tolowerEc
PUBLIC 623dc 0 _ZNKSt5ctypeIcE10do_tolowerEPcPKc
PUBLIC 62404 0 _ZNSt5ctypeIcE13classic_tableEv
PUBLIC 62424 0 _ZNSt5ctypeIcEC1EP15__locale_structPKtbj
PUBLIC 624e4 0 _ZNSt5ctypeIcEC2EPKtbj
PUBLIC 6259c 0 _ZNSt12ctype_bynameIcED1Ev
PUBLIC 625d0 0 _ZNSt12ctype_bynameIcED0Ev
PUBLIC 625ec 0 _ZNSt12ctype_bynameIcEC2EPKcj
PUBLIC 626b4 0 _ZNKSt5ctypeIwE19_M_convert_to_wmaskEt
PUBLIC 62804 0 _ZNKSt5ctypeIwE10do_toupperEw
PUBLIC 62814 0 _ZNKSt5ctypeIwE10do_toupperEPwPKw
PUBLIC 6284c 0 _ZNKSt5ctypeIwE10do_tolowerEw
PUBLIC 6285c 0 _ZNKSt5ctypeIwE10do_tolowerEPwPKw
PUBLIC 62894 0 _ZNKSt5ctypeIwE5do_isEtw
PUBLIC 62930 0 _ZNKSt5ctypeIwE5do_isEPKwS2_Pt
PUBLIC 629c8 0 _ZNKSt5ctypeIwE10do_scan_isEtPKwS2_
PUBLIC 62a2c 0 _ZNKSt5ctypeIwE11do_scan_notEtPKwS2_
PUBLIC 62a90 0 _ZNKSt5ctypeIwE8do_widenEc
PUBLIC 62a9c 0 _ZNKSt5ctypeIwE8do_widenEPKcS2_Pw
PUBLIC 62ad4 0 _ZNKSt5ctypeIwE9do_narrowEwc
PUBLIC 62b48 0 _ZNKSt5ctypeIwE9do_narrowEPKwS2_cPc
PUBLIC 62c38 0 _ZNSt5ctypeIwE19_M_initialize_ctypeEv
PUBLIC 62d14 0 _ZNKSt8messagesIcE6do_getEiiiRKSs
PUBLIC 62d60 0 _ZNKSt8messagesIwE6do_getEiiiRKSbIwSt11char_traitsIwESaIwEE
PUBLIC 62db0 0 _ZNSt10moneypunctIcLb1EED2Ev
PUBLIC 62eb4 0 _ZNSt10moneypunctIcLb1EED0Ev
PUBLIC 62ed0 0 _ZNSt10moneypunctIcLb0EED1Ev
PUBLIC 62fd4 0 _ZNSt10moneypunctIcLb0EED0Ev
PUBLIC 62ff0 0 _ZNSt10moneypunctIwLb1EED1Ev
PUBLIC 630f4 0 _ZNSt10moneypunctIwLb1EED0Ev
PUBLIC 63110 0 _ZNSt10moneypunctIwLb0EED2Ev
PUBLIC 63214 0 _ZNSt10moneypunctIwLb0EED0Ev
PUBLIC 63230 0 _ZNSt10money_base20_S_construct_patternEccc
PUBLIC 63398 0 _ZNSt10moneypunctIcLb1EE24_M_initialize_moneypunctEPiPKc
PUBLIC 638b8 0 _ZNSt10moneypunctIcLb0EE24_M_initialize_moneypunctEP15__locale_structPKc
PUBLIC 63ddc 0 _ZNSt10moneypunctIwLb1EE24_M_initialize_moneypunctEPiPKc
PUBLIC 64354 0 _ZNSt10moneypunctIwLb0EE24_M_initialize_moneypunctEPiPKc
PUBLIC 648d0 0 _ZNSt8numpunctIcED2Ev
PUBLIC 64950 0 _ZNSt8numpunctIcED0Ev
PUBLIC 6496c 0 _ZNSt8numpunctIwED1Ev
PUBLIC 649ec 0 _ZNSt8numpunctIwED0Ev
PUBLIC 64a08 0 _ZNSt8numpunctIcE22_M_initialize_numpunctEP15__locale_struct
PUBLIC 64c44 0 _ZNSt8numpunctIwE22_M_initialize_numpunctEP15__locale_struct
PUBLIC 64e68 0 _ZNKSt11__timepunctIcE6_M_putEPcjPKcPK2tm
PUBLIC 64ea0 0 _ZNSt11__timepunctIcE23_M_initialize_timepunctEP15__locale_struct
PUBLIC 656fc 0 _ZNKSt11__timepunctIwE6_M_putEPwjPKwPK2tm
PUBLIC 65734 0 _ZNSt11__timepunctIwE23_M_initialize_timepunctEP15__locale_struct
PUBLIC 661f4 0 _ZNSt12__basic_fileIcEC2EP15pthread_mutex_t
PUBLIC 66204 0 _ZNKSt12__basic_fileIcE7is_openEv
PUBLIC 66214 0 _ZNSt12__basic_fileIcE8sys_openEiSt13_Ios_Openmode
PUBLIC 66290 0 _ZNSt12__basic_fileIcE4openEPKcSt13_Ios_Openmodei
PUBLIC 662ec 0 _ZNSt12__basic_fileIcE2fdEv
PUBLIC 662f4 0 _ZNSt12__basic_fileIcE4fileEv
PUBLIC 662fc 0 _ZNSt12__basic_fileIcE5closeEv
PUBLIC 6636c 0 _ZNSt12__basic_fileIcED1Ev
PUBLIC 66380 0 _ZNSt12__basic_fileIcE6xsgetnEPci
PUBLIC 663cc 0 _ZNSt12__basic_fileIcE6xsputnEPKci
PUBLIC 663ec 0 _ZNSt12__basic_fileIcE8xsputn_2EPKciS2_i
PUBLIC 66494 0 _ZNSt12__basic_fileIcE7seekoffExSt12_Ios_Seekdir
PUBLIC 664bc 0 _ZNSt12__basic_fileIcE4syncEv
PUBLIC 664c4 0 _ZNSt12__basic_fileIcE8sys_openEP8_IO_FILESt13_Ios_Openmode
PUBLIC 66528 0 _ZNSt12__basic_fileIcE9showmanycEv
PUBLIC 66614 0 _ZSt14__convert_to_vIfEvPKcRT_RSt12_Ios_IostateRKP15__locale_struct
PUBLIC 666b0 0 _ZSt14__convert_to_vIdEvPKcRT_RSt12_Ios_IostateRKP15__locale_struct
PUBLIC 66768 0 _ZSt14__convert_to_vIeEvPKcRT_RSt12_Ios_IostateRKP15__locale_struct
PUBLIC 66820 0 _ZNSt6locale5facet18_S_create_c_localeERPiPKcS1_
PUBLIC 6684c 0 _ZNSt6locale5facet19_S_destroy_c_localeERPi
PUBLIC 6687c 0 _ZNSt6locale5facet17_S_clone_c_localeERP15__locale_struct
PUBLIC 668d8 0 _ZNSaIcEC1Ev
PUBLIC 668dc 0 _ZNSaIcEC2ERKS_
PUBLIC 668e0 0 _ZNSaIcED2Ev
PUBLIC 668e4 0 _ZNSaIwEC2Ev
PUBLIC 668e8 0 _ZNSaIwEC1ERKS_
PUBLIC 668ec 0 _ZNSaIwED2Ev
PUBLIC 66b90 0 _ZNSt9basic_iosIcSt11char_traitsIcEED1Ev
PUBLIC 66bc4 0 _ZNSt9basic_iosIwSt11char_traitsIwEED2Ev
PUBLIC 66bf8 0 _ZNSt9basic_iosIcSt11char_traitsIcEED0Ev
PUBLIC 66c34 0 _ZNSt9basic_iosIwSt11char_traitsIwEED0Ev
PUBLIC 66c70 0 _ZNKSt9basic_iosIcSt11char_traitsIcEEcvPvEv
PUBLIC 66c80 0 _ZNKSt9basic_iosIcSt11char_traitsIcEEntEv
PUBLIC 66c94 0 _ZNKSt9basic_iosIcSt11char_traitsIcEE7rdstateEv
PUBLIC 66c9c 0 _ZNSt9basic_iosIcSt11char_traitsIcEE5clearESt12_Ios_Iostate
PUBLIC 66cd4 0 _ZNSt9basic_iosIcSt11char_traitsIcEE8setstateESt12_Ios_Iostate
PUBLIC 66ce0 0 _ZNSt9basic_iosIcSt11char_traitsIcEE11_M_setstateESt12_Ios_Iostate
PUBLIC 66d00 0 _ZNKSt9basic_iosIcSt11char_traitsIcEE4goodEv
PUBLIC 66d10 0 _ZNKSt9basic_iosIcSt11char_traitsIcEE3eofEv
PUBLIC 66d24 0 _ZNKSt9basic_iosIcSt11char_traitsIcEE4failEv
PUBLIC 66d38 0 _ZNKSt9basic_iosIcSt11char_traitsIcEE3badEv
PUBLIC 66d44 0 _ZNKSt9basic_iosIcSt11char_traitsIcEE10exceptionsEv
PUBLIC 66d4c 0 _ZNSt9basic_iosIcSt11char_traitsIcEE10exceptionsESt12_Ios_Iostate
PUBLIC 66d58 0 _ZNKSt9basic_iosIcSt11char_traitsIcEE3tieEv
PUBLIC 66d60 0 _ZNSt9basic_iosIcSt11char_traitsIcEE3tieEPSo
PUBLIC 66d70 0 _ZNKSt9basic_iosIcSt11char_traitsIcEE5rdbufEv
PUBLIC 66d78 0 _ZNSt9basic_iosIcSt11char_traitsIcEE5rdbufEPSt15basic_streambufIcS1_E
PUBLIC 66d94 0 _ZNKSt9basic_iosIcSt11char_traitsIcEE4fillEv
PUBLIC 66e08 0 _ZNSt9basic_iosIcSt11char_traitsIcEE4fillEc
PUBLIC 66e88 0 _ZNKSt9basic_iosIcSt11char_traitsIcEE6narrowEcc
PUBLIC 66ed0 0 _ZNKSt9basic_iosIcSt11char_traitsIcEE5widenEc
PUBLIC 66f20 0 _ZNSt9basic_iosIcSt11char_traitsIcEEC1Ev
PUBLIC 66f78 0 _ZNSt9basic_iosIcSt11char_traitsIcEE15_M_cache_localeERKSt6locale
PUBLIC 66ff4 0 _ZNSt9basic_iosIcSt11char_traitsIcEE5imbueERKSt6locale
PUBLIC 670a0 0 _ZNSt9basic_iosIcSt11char_traitsIcEE4initEPSt15basic_streambufIcS1_E
PUBLIC 670e4 0 _ZNSt9basic_iosIcSt11char_traitsIcEEC2EPSt15basic_streambufIcS1_E
PUBLIC 67158 0 _ZNSt9basic_iosIcSt11char_traitsIcEE7copyfmtERKS2_
PUBLIC 673cc 0 _ZNKSt9basic_iosIwSt11char_traitsIwEEcvPvEv
PUBLIC 673dc 0 _ZNKSt9basic_iosIwSt11char_traitsIwEEntEv
PUBLIC 673f0 0 _ZNKSt9basic_iosIwSt11char_traitsIwEE7rdstateEv
PUBLIC 673f8 0 _ZNSt9basic_iosIwSt11char_traitsIwEE5clearESt12_Ios_Iostate
PUBLIC 67430 0 _ZNSt9basic_iosIwSt11char_traitsIwEE8setstateESt12_Ios_Iostate
PUBLIC 6743c 0 _ZNSt9basic_iosIwSt11char_traitsIwEE11_M_setstateESt12_Ios_Iostate
PUBLIC 6745c 0 _ZNKSt9basic_iosIwSt11char_traitsIwEE4goodEv
PUBLIC 6746c 0 _ZNKSt9basic_iosIwSt11char_traitsIwEE3eofEv
PUBLIC 67480 0 _ZNKSt9basic_iosIwSt11char_traitsIwEE4failEv
PUBLIC 67494 0 _ZNKSt9basic_iosIwSt11char_traitsIwEE3badEv
PUBLIC 674a0 0 _ZNKSt9basic_iosIwSt11char_traitsIwEE10exceptionsEv
PUBLIC 674a8 0 _ZNSt9basic_iosIwSt11char_traitsIwEE10exceptionsESt12_Ios_Iostate
PUBLIC 674b4 0 _ZNKSt9basic_iosIwSt11char_traitsIwEE3tieEv
PUBLIC 674bc 0 _ZNSt9basic_iosIwSt11char_traitsIwEE3tieEPSt13basic_ostreamIwS1_E
PUBLIC 674cc 0 _ZNKSt9basic_iosIwSt11char_traitsIwEE5rdbufEv
PUBLIC 674d4 0 _ZNSt9basic_iosIwSt11char_traitsIwEE5rdbufEPSt15basic_streambufIwS1_E
PUBLIC 674f0 0 _ZNKSt9basic_iosIwSt11char_traitsIwEE4fillEv
PUBLIC 67540 0 _ZNSt9basic_iosIwSt11char_traitsIwEE4fillEw
PUBLIC 6759c 0 _ZNKSt9basic_iosIwSt11char_traitsIwEE6narrowEwc
PUBLIC 675c0 0 _ZNKSt9basic_iosIwSt11char_traitsIwEE5widenEc
PUBLIC 675e4 0 _ZNSt9basic_iosIwSt11char_traitsIwEEC2Ev
PUBLIC 6763c 0 _ZNSt9basic_iosIwSt11char_traitsIwEE15_M_cache_localeERKSt6locale
PUBLIC 676b8 0 _ZNSt9basic_iosIwSt11char_traitsIwEE5imbueERKSt6locale
PUBLIC 67764 0 _ZNSt9basic_iosIwSt11char_traitsIwEE4initEPSt15basic_streambufIwS1_E
PUBLIC 677a8 0 _ZNSt9basic_iosIwSt11char_traitsIwEEC2EPSt15basic_streambufIwS1_E
PUBLIC 6781c 0 _ZNSt9basic_iosIwSt11char_traitsIwEE7copyfmtERKS2_
PUBLIC 67a50 0 _ZNSdD1Ev
PUBLIC 67ab8 0 _ZThn8_NSdD1Ev
PUBLIC 67ac0 0 _ZTv0_n12_NSdD1Ev
PUBLIC 67ad0 0 _ZNSdD0Ev
PUBLIC 67b40 0 _ZThn8_NSdD0Ev
PUBLIC 67b48 0 _ZTv0_n12_NSdD0Ev
PUBLIC 67b58 0 _ZNSt14basic_iostreamIwSt11char_traitsIwEED1Ev
PUBLIC 67bc0 0 _ZThn8_NSt14basic_iostreamIwSt11char_traitsIwEED1Ev
PUBLIC 67bc8 0 _ZTv0_n12_NSt14basic_iostreamIwSt11char_traitsIwEED1Ev
PUBLIC 67bd8 0 _ZNSt14basic_iostreamIwSt11char_traitsIwEED0Ev
PUBLIC 67c48 0 _ZThn8_NSt14basic_iostreamIwSt11char_traitsIwEED0Ev
PUBLIC 67c50 0 _ZTv0_n12_NSt14basic_iostreamIwSt11char_traitsIwEED0Ev
PUBLIC 67c60 0 _ZNSdC2EPSt15basic_streambufIcSt11char_traitsIcEE
PUBLIC 67d04 0 _ZNSdC1EPSt15basic_streambufIcSt11char_traitsIcEE
PUBLIC 67e04 0 _ZNSdD2Ev
PUBLIC 67e58 0 _ZNSdC2Ev
PUBLIC 67ef8 0 _ZNSdC1Ev
PUBLIC 67ff0 0 _ZNSt14basic_iostreamIwSt11char_traitsIwEEC2EPSt15basic_streambufIwS1_E
PUBLIC 68094 0 _ZNSt14basic_iostreamIwSt11char_traitsIwEEC1EPSt15basic_streambufIwS1_E
PUBLIC 68194 0 _ZNSt14basic_iostreamIwSt11char_traitsIwEED2Ev
PUBLIC 681e8 0 _ZNSt14basic_iostreamIwSt11char_traitsIwEEC2Ev
PUBLIC 68288 0 _ZNSt14basic_iostreamIwSt11char_traitsIwEEC1Ev
PUBLIC 68380 0 _ZNSiD1Ev
PUBLIC 683d4 0 _ZTv0_n12_NSiD1Ev
PUBLIC 683e4 0 _ZNSt13basic_istreamIwSt11char_traitsIwEED1Ev
PUBLIC 68438 0 _ZTv0_n12_NSt13basic_istreamIwSt11char_traitsIwEED1Ev
PUBLIC 68448 0 _ZNSiD0Ev
PUBLIC 684a4 0 _ZTv0_n12_NSiD0Ev
PUBLIC 684b4 0 _ZNSt13basic_istreamIwSt11char_traitsIwEED0Ev
PUBLIC 68510 0 _ZTv0_n12_NSt13basic_istreamIwSt11char_traitsIwEED0Ev
PUBLIC 68520 0 _ZNSiC2EPSt15basic_streambufIcSt11char_traitsIcEE
PUBLIC 6855c 0 _ZNSiC1EPSt15basic_streambufIcSt11char_traitsIcEE
PUBLIC 685f0 0 _ZNSiD2Ev
PUBLIC 68610 0 _ZNSirsEPFRSiS_E
PUBLIC 6861c 0 _ZNSirsEPFRSt9basic_iosIcSt11char_traitsIcEES3_E
PUBLIC 6863c 0 _ZNSirsEPFRSt8ios_baseS0_E
PUBLIC 6865c 0 _ZNKSi6gcountEv
PUBLIC 68664 0 _ZNSi7getlineEPci
PUBLIC 686e0 0 _ZNSiC2Ev
PUBLIC 6871c 0 _ZNSiC1Ev
PUBLIC 687ac 0 _ZNSi6sentryC2ERSib
PUBLIC 68934 0 _ZNSirsERs
PUBLIC 68adc 0 _ZNSirsERi
PUBLIC 68c40 0 _ZNSirsEPSt15basic_streambufIcSt11char_traitsIcEE
PUBLIC 68d6c 0 _ZNSi3getEv
PUBLIC 68eac 0 _ZNSi3getERc
PUBLIC 68fec 0 _ZNSi3getEPcic
PUBLIC 691b4 0 _ZNSi3getEPci
PUBLIC 69230 0 _ZNSi3getERSt15basic_streambufIcSt11char_traitsIcEEc
PUBLIC 69400 0 _ZNSi3getERSt15basic_streambufIcSt11char_traitsIcEE
PUBLIC 69478 0 _ZNSi4peekEv
PUBLIC 6958c 0 _ZNSi4readEPci
PUBLIC 696a0 0 _ZNSi8readsomeEPci
PUBLIC 69808 0 _ZNSi7putbackEc
PUBLIC 69950 0 _ZNSi5ungetEv
PUBLIC 69a8c 0 _ZNSi4syncEv
PUBLIC 69ba0 0 _ZNSi5tellgEv
PUBLIC 69cc0 0 _ZNSi5seekgESt4fposI11__mbstate_tE
PUBLIC 69e24 0 _ZNSi5seekgExSt12_Ios_Seekdir
PUBLIC 69f6c 0 _ZNKSi6sentrycvbEv
PUBLIC 69f74 0 _ZSt2wsIcSt11char_traitsIcEERSt13basic_istreamIT_T0_ES6_
PUBLIC 6a0a8 0 _ZStrsIcSt11char_traitsIcEERSt13basic_istreamIT_T0_ES6_RS3_
PUBLIC 6a1c0 0 _ZStrsISt11char_traitsIcEERSt13basic_istreamIcT_ES5_Rh
PUBLIC 6a1c4 0 _ZStrsISt11char_traitsIcEERSt13basic_istreamIcT_ES5_Ra
PUBLIC 6a1c8 0 _ZStrsISt11char_traitsIcEERSt13basic_istreamIcT_ES5_Ph
PUBLIC 6a1cc 0 _ZStrsISt11char_traitsIcEERSt13basic_istreamIcT_ES5_Pa
PUBLIC 6a1d0 0 _ZStrsIcSt11char_traitsIcEERSt13basic_istreamIT_T0_ES6_St8_SetfillIS3_E
PUBLIC 6a24c 0 _ZStrsIcSt11char_traitsIcEERSt13basic_istreamIT_T0_ES6_St12_Setiosflags
PUBLIC 6a268 0 _ZStrsIcSt11char_traitsIcEERSt13basic_istreamIT_T0_ES6_St14_Resetiosflags
PUBLIC 6a284 0 _ZStrsIcSt11char_traitsIcEERSt13basic_istreamIT_T0_ES6_St8_Setbase
PUBLIC 6a2c8 0 _ZStrsIcSt11char_traitsIcEERSt13basic_istreamIT_T0_ES6_St13_Setprecision
PUBLIC 6a2dc 0 _ZStrsIcSt11char_traitsIcEERSt13basic_istreamIT_T0_ES6_St5_Setw
PUBLIC 6a2f0 0 _ZNSi10_M_extractItEERSiRT_
PUBLIC 6a448 0 _ZNSirsERt
PUBLIC 6a44c 0 _ZNSi10_M_extractIjEERSiRT_
PUBLIC 6a5a4 0 _ZNSirsERj
PUBLIC 6a5a8 0 _ZNSi10_M_extractIlEERSiRT_
PUBLIC 6a700 0 _ZNSirsERl
PUBLIC 6a704 0 _ZNSi10_M_extractImEERSiRT_
PUBLIC 6a85c 0 _ZNSirsERm
PUBLIC 6a860 0 _ZNSi10_M_extractIbEERSiRT_
PUBLIC 6a9b8 0 _ZNSirsERb
PUBLIC 6a9bc 0 _ZNSi10_M_extractIxEERSiRT_
PUBLIC 6ab14 0 _ZNSirsERx
PUBLIC 6ab18 0 _ZNSi10_M_extractIyEERSiRT_
PUBLIC 6ac70 0 _ZNSirsERy
PUBLIC 6ac74 0 _ZNSi10_M_extractIfEERSiRT_
PUBLIC 6adcc 0 _ZNSirsERf
PUBLIC 6add0 0 _ZNSi10_M_extractIdEERSiRT_
PUBLIC 6af28 0 _ZNSirsERd
PUBLIC 6af2c 0 _ZNSi10_M_extractIeEERSiRT_
PUBLIC 6b084 0 _ZNSirsERe
PUBLIC 6b088 0 _ZNSi10_M_extractIPvEERSiRT_
PUBLIC 6b1e0 0 _ZNSirsERPv
PUBLIC 6b1e4 0 _ZNSt13basic_istreamIwSt11char_traitsIwEEC2EPSt15basic_streambufIwS1_E
PUBLIC 6b220 0 _ZNSt13basic_istreamIwSt11char_traitsIwEEC1EPSt15basic_streambufIwS1_E
PUBLIC 6b2b4 0 _ZNSt13basic_istreamIwSt11char_traitsIwEED2Ev
PUBLIC 6b2d4 0 _ZNSt13basic_istreamIwSt11char_traitsIwEErsEPFRS2_S3_E
PUBLIC 6b2e0 0 _ZNSt13basic_istreamIwSt11char_traitsIwEErsEPFRSt9basic_iosIwS1_ES5_E
PUBLIC 6b300 0 _ZNSt13basic_istreamIwSt11char_traitsIwEErsEPFRSt8ios_baseS4_E
PUBLIC 6b320 0 _ZNKSt13basic_istreamIwSt11char_traitsIwEE6gcountEv
PUBLIC 6b328 0 _ZNSt13basic_istreamIwSt11char_traitsIwEE7getlineEPwi
PUBLIC 6b37c 0 _ZNSt13basic_istreamIwSt11char_traitsIwEEC2Ev
PUBLIC 6b3b8 0 _ZNSt13basic_istreamIwSt11char_traitsIwEEC1Ev
PUBLIC 6b448 0 _ZNSt13basic_istreamIwSt11char_traitsIwEE6sentryC1ERS2_b
PUBLIC 6b5d0 0 _ZNSt13basic_istreamIwSt11char_traitsIwEErsERs
PUBLIC 6b778 0 _ZNSt13basic_istreamIwSt11char_traitsIwEErsERi
PUBLIC 6b8dc 0 _ZNSt13basic_istreamIwSt11char_traitsIwEErsEPSt15basic_streambufIwS1_E
PUBLIC 6ba08 0 _ZNSt13basic_istreamIwSt11char_traitsIwEE3getEv
PUBLIC 6bb54 0 _ZNSt13basic_istreamIwSt11char_traitsIwEE3getERw
PUBLIC 6bc98 0 _ZNSt13basic_istreamIwSt11char_traitsIwEE3getEPwiw
PUBLIC 6be60 0 _ZNSt13basic_istreamIwSt11char_traitsIwEE3getEPwi
PUBLIC 6beb4 0 _ZNSt13basic_istreamIwSt11char_traitsIwEE3getERSt15basic_streambufIwS1_Ew
PUBLIC 6c090 0 _ZNSt13basic_istreamIwSt11char_traitsIwEE3getERSt15basic_streambufIwS1_E
PUBLIC 6c0dc 0 _ZNSt13basic_istreamIwSt11char_traitsIwEE4peekEv
PUBLIC 6c1ec 0 _ZNSt13basic_istreamIwSt11char_traitsIwEE4readEPwi
PUBLIC 6c300 0 _ZNSt13basic_istreamIwSt11char_traitsIwEE8readsomeEPwi
PUBLIC 6c46c 0 _ZNSt13basic_istreamIwSt11char_traitsIwEE7putbackEw
PUBLIC 6c5c0 0 _ZNSt13basic_istreamIwSt11char_traitsIwEE5ungetEv
PUBLIC 6c704 0 _ZNSt13basic_istreamIwSt11char_traitsIwEE4syncEv
PUBLIC 6c818 0 _ZNSt13basic_istreamIwSt11char_traitsIwEE5tellgEv
PUBLIC 6c938 0 _ZNSt13basic_istreamIwSt11char_traitsIwEE5seekgESt4fposI11__mbstate_tE
PUBLIC 6ca9c 0 _ZNSt13basic_istreamIwSt11char_traitsIwEE5seekgExSt12_Ios_Seekdir
PUBLIC 6cbe4 0 _ZNKSt13basic_istreamIwSt11char_traitsIwEE6sentrycvbEv
PUBLIC 6cbec 0 _ZSt2wsIwSt11char_traitsIwEERSt13basic_istreamIT_T0_ES6_
PUBLIC 6cd04 0 _ZStrsIwSt11char_traitsIwEERSt13basic_istreamIT_T0_ES6_RS3_
PUBLIC 6ce1c 0 _ZStrsIwSt11char_traitsIwEERSt13basic_istreamIT_T0_ES6_PS3_
PUBLIC 6d074 0 _ZStrsIwSt11char_traitsIwEERSt13basic_istreamIT_T0_ES6_St8_SetfillIS3_E
PUBLIC 6d0d4 0 _ZStrsIwSt11char_traitsIwEERSt13basic_istreamIT_T0_ES6_St12_Setiosflags
PUBLIC 6d0f0 0 _ZStrsIwSt11char_traitsIwEERSt13basic_istreamIT_T0_ES6_St14_Resetiosflags
PUBLIC 6d10c 0 _ZStrsIwSt11char_traitsIwEERSt13basic_istreamIT_T0_ES6_St8_Setbase
PUBLIC 6d150 0 _ZStrsIwSt11char_traitsIwEERSt13basic_istreamIT_T0_ES6_St13_Setprecision
PUBLIC 6d164 0 _ZStrsIwSt11char_traitsIwEERSt13basic_istreamIT_T0_ES6_St5_Setw
PUBLIC 6d178 0 _ZNSt13basic_istreamIwSt11char_traitsIwEE10_M_extractItEERS2_RT_
PUBLIC 6d2d0 0 _ZNSt13basic_istreamIwSt11char_traitsIwEErsERt
PUBLIC 6d2d4 0 _ZNSt13basic_istreamIwSt11char_traitsIwEE10_M_extractIjEERS2_RT_
PUBLIC 6d42c 0 _ZNSt13basic_istreamIwSt11char_traitsIwEErsERj
PUBLIC 6d430 0 _ZNSt13basic_istreamIwSt11char_traitsIwEE10_M_extractIlEERS2_RT_
PUBLIC 6d588 0 _ZNSt13basic_istreamIwSt11char_traitsIwEErsERl
PUBLIC 6d58c 0 _ZNSt13basic_istreamIwSt11char_traitsIwEE10_M_extractImEERS2_RT_
PUBLIC 6d6e4 0 _ZNSt13basic_istreamIwSt11char_traitsIwEErsERm
PUBLIC 6d6e8 0 _ZNSt13basic_istreamIwSt11char_traitsIwEE10_M_extractIbEERS2_RT_
PUBLIC 6d840 0 _ZNSt13basic_istreamIwSt11char_traitsIwEErsERb
PUBLIC 6d844 0 _ZNSt13basic_istreamIwSt11char_traitsIwEE10_M_extractIxEERS2_RT_
PUBLIC 6d99c 0 _ZNSt13basic_istreamIwSt11char_traitsIwEErsERx
PUBLIC 6d9a0 0 _ZNSt13basic_istreamIwSt11char_traitsIwEE10_M_extractIyEERS2_RT_
PUBLIC 6daf8 0 _ZNSt13basic_istreamIwSt11char_traitsIwEErsERy
PUBLIC 6dafc 0 _ZNSt13basic_istreamIwSt11char_traitsIwEE10_M_extractIfEERS2_RT_
PUBLIC 6dc54 0 _ZNSt13basic_istreamIwSt11char_traitsIwEErsERf
PUBLIC 6dc58 0 _ZNSt13basic_istreamIwSt11char_traitsIwEE10_M_extractIdEERS2_RT_
PUBLIC 6ddb0 0 _ZNSt13basic_istreamIwSt11char_traitsIwEErsERd
PUBLIC 6ddb4 0 _ZNSt13basic_istreamIwSt11char_traitsIwEE10_M_extractIeEERS2_RT_
PUBLIC 6df0c 0 _ZNSt13basic_istreamIwSt11char_traitsIwEErsERe
PUBLIC 6df10 0 _ZNSt13basic_istreamIwSt11char_traitsIwEE10_M_extractIPvEERS2_RT_
PUBLIC 6e068 0 _ZNSt13basic_istreamIwSt11char_traitsIwEErsERPv
PUBLIC 6e06c 0 _ZNKSt10moneypunctIcLb0EE16do_decimal_pointEv
PUBLIC 6e078 0 _ZNKSt10moneypunctIcLb0EE16do_thousands_sepEv
PUBLIC 6e084 0 _ZNKSt10moneypunctIcLb0EE14do_frac_digitsEv
PUBLIC 6e090 0 _ZNKSt10moneypunctIcLb0EE13do_pos_formatEv
PUBLIC 6e0a4 0 _ZNKSt10moneypunctIcLb0EE13do_neg_formatEv
PUBLIC 6e0b8 0 _ZNKSt10moneypunctIcLb1EE16do_decimal_pointEv
PUBLIC 6e0c4 0 _ZNKSt10moneypunctIcLb1EE16do_thousands_sepEv
PUBLIC 6e0d0 0 _ZNKSt10moneypunctIcLb1EE14do_frac_digitsEv
PUBLIC 6e0dc 0 _ZNKSt10moneypunctIcLb1EE13do_pos_formatEv
PUBLIC 6e0f0 0 _ZNKSt10moneypunctIcLb1EE13do_neg_formatEv
PUBLIC 6e104 0 _ZNKSt8numpunctIcE16do_decimal_pointEv
PUBLIC 6e110 0 _ZNKSt8numpunctIcE16do_thousands_sepEv
PUBLIC 6e11c 0 _ZNKSt8time_getIcSt19istreambuf_iteratorIcSt11char_traitsIcEEE13do_date_orderEv
PUBLIC 6e124 0 _ZNKSt8messagesIcE8do_closeEi
PUBLIC 6e128 0 _ZNKSt7collateIcE7do_hashEPKcS2_
PUBLIC 6e14c 0 _ZNSt9money_getIcSt19istreambuf_iteratorIcSt11char_traitsIcEEED1Ev
PUBLIC 6e180 0 _ZNSt9money_putIcSt19ostreambuf_iteratorIcSt11char_traitsIcEEED2Ev
PUBLIC 6e1b4 0 _ZNSt7num_getIcSt19istreambuf_iteratorIcSt11char_traitsIcEEED2Ev
PUBLIC 6e1e8 0 _ZNSt7num_putIcSt19ostreambuf_iteratorIcSt11char_traitsIcEEED1Ev
PUBLIC 6e21c 0 _ZNSt17__timepunct_cacheIcED1Ev
PUBLIC 6e250 0 _ZNSt8time_putIcSt19ostreambuf_iteratorIcSt11char_traitsIcEEED1Ev
PUBLIC 6e284 0 _ZNSt15time_put_bynameIcSt19ostreambuf_iteratorIcSt11char_traitsIcEEED2Ev
PUBLIC 6e2b8 0 _ZNSt8time_getIcSt19istreambuf_iteratorIcSt11char_traitsIcEEED2Ev
PUBLIC 6e2ec 0 _ZNSt15time_get_bynameIcSt19istreambuf_iteratorIcSt11char_traitsIcEEED1Ev
PUBLIC 6e388 0 _ZNKSt10moneypunctIcLb0EE11do_groupingEv
PUBLIC 6e3b0 0 _ZNKSt10moneypunctIcLb0EE14do_curr_symbolEv
PUBLIC 6e3d8 0 _ZNKSt10moneypunctIcLb0EE16do_positive_signEv
PUBLIC 6e400 0 _ZNKSt10moneypunctIcLb0EE16do_negative_signEv
PUBLIC 6e428 0 _ZNKSt10moneypunctIcLb1EE11do_groupingEv
PUBLIC 6e450 0 _ZNKSt10moneypunctIcLb1EE14do_curr_symbolEv
PUBLIC 6e478 0 _ZNKSt10moneypunctIcLb1EE16do_positive_signEv
PUBLIC 6e4a0 0 _ZNKSt10moneypunctIcLb1EE16do_negative_signEv
PUBLIC 6e4c8 0 _ZNKSt8numpunctIcE11do_groupingEv
PUBLIC 6e4f0 0 _ZNKSt8numpunctIcE11do_truenameEv
PUBLIC 6e518 0 _ZNKSt8numpunctIcE12do_falsenameEv
PUBLIC 6e540 0 _ZNSt18__moneypunct_cacheIcLb0EED1Ev
PUBLIC 6e5c4 0 _ZNSt18__moneypunct_cacheIcLb1EED1Ev
PUBLIC 6e648 0 _ZNSt16__numpunct_cacheIcED2Ev
PUBLIC 6e6bc 0 _ZNSt18__moneypunct_cacheIcLb0EED0Ev
PUBLIC 6e6d8 0 _ZNSt18__moneypunct_cacheIcLb1EED0Ev
PUBLIC 6e6f4 0 _ZNSt9money_getIcSt19istreambuf_iteratorIcSt11char_traitsIcEEED0Ev
PUBLIC 6e730 0 _ZNSt9money_putIcSt19ostreambuf_iteratorIcSt11char_traitsIcEEED0Ev
PUBLIC 6e76c 0 _ZNSt16__numpunct_cacheIcED0Ev
PUBLIC 6e788 0 _ZNSt7num_getIcSt19istreambuf_iteratorIcSt11char_traitsIcEEED0Ev
PUBLIC 6e7c4 0 _ZNSt7num_putIcSt19ostreambuf_iteratorIcSt11char_traitsIcEEED0Ev
PUBLIC 6e800 0 _ZNSt17__timepunct_cacheIcED0Ev
PUBLIC 6e81c 0 _ZNSt8time_putIcSt19ostreambuf_iteratorIcSt11char_traitsIcEEED0Ev
PUBLIC 6e858 0 _ZNSt15time_put_bynameIcSt19ostreambuf_iteratorIcSt11char_traitsIcEEED0Ev
PUBLIC 6e894 0 _ZNSt8time_getIcSt19istreambuf_iteratorIcSt11char_traitsIcEEED0Ev
PUBLIC 6e8d0 0 _ZNSt15time_get_bynameIcSt19istreambuf_iteratorIcSt11char_traitsIcEEED0Ev
PUBLIC 6e984 0 _ZNSt7collateIcED1Ev
PUBLIC 6e9cc 0 _ZNSt17moneypunct_bynameIcLb0EED1Ev
PUBLIC 6ea00 0 _ZNSt17moneypunct_bynameIcLb0EED0Ev
PUBLIC 6ea3c 0 _ZNSt17moneypunct_bynameIcLb1EED1Ev
PUBLIC 6ea70 0 _ZNSt17moneypunct_bynameIcLb1EED0Ev
PUBLIC 6eaac 0 _ZNSt15numpunct_bynameIcED1Ev
PUBLIC 6eae0 0 _ZNSt15numpunct_bynameIcED0Ev
PUBLIC 6eb1c 0 _ZNSt11__timepunctIcED2Ev
PUBLIC 6eba0 0 _ZNSt11__timepunctIcED0Ev
PUBLIC 6ebbc 0 _ZNSt8messagesIcED2Ev
PUBLIC 6ec28 0 _ZNSt8messagesIcED0Ev
PUBLIC 6ec44 0 _ZNSt15messages_bynameIcED2Ev
PUBLIC 6ec78 0 _ZNSt15messages_bynameIcED0Ev
PUBLIC 6ecb4 0 _ZNKSt8messagesIcE7do_openERKSsRKSt6locale
PUBLIC 6ecc8 0 _ZNSt14codecvt_bynameIcc11__mbstate_tED2Ev
PUBLIC 6ecfc 0 _ZNSt14codecvt_bynameIcc11__mbstate_tED0Ev
PUBLIC 6ed38 0 _ZNKSt7collateIcE10do_compareEPKcS2_S2_S2_
PUBLIC 6ee74 0 _ZNSt14collate_bynameIcED1Ev
PUBLIC 6eebc 0 _ZNSt7collateIcED0Ev
PUBLIC 6ef0c 0 _ZNSt14collate_bynameIcED0Ev
PUBLIC 6ef5c 0 _ZNKSt7collateIcE12do_transformEPKcS2_
PUBLIC 6f1f8 0 _ZNSt10moneypunctIcLb0EEC2Ej
PUBLIC 6f250 0 _ZNSt10moneypunctIcLb0EEC1EPSt18__moneypunct_cacheIcLb0EEj
PUBLIC 6f2a8 0 _ZNSt10moneypunctIcLb0EEC2EP15__locale_structPKcj
PUBLIC 6f300 0 _ZNKSt10moneypunctIcLb0EE13decimal_pointEv
PUBLIC 6f314 0 _ZNKSt10moneypunctIcLb0EE13thousands_sepEv
PUBLIC 6f328 0 _ZNKSt10moneypunctIcLb0EE8groupingEv
PUBLIC 6f344 0 _ZNKSt10moneypunctIcLb0EE11curr_symbolEv
PUBLIC 6f360 0 _ZNKSt10moneypunctIcLb0EE13positive_signEv
PUBLIC 6f37c 0 _ZNKSt10moneypunctIcLb0EE13negative_signEv
PUBLIC 6f398 0 _ZNKSt10moneypunctIcLb0EE11frac_digitsEv
PUBLIC 6f3ac 0 _ZNKSt10moneypunctIcLb0EE10pos_formatEv
PUBLIC 6f3c8 0 _ZNKSt10moneypunctIcLb0EE10neg_formatEv
PUBLIC 6f3e4 0 _ZNSt10moneypunctIcLb1EEC2Ej
PUBLIC 6f43c 0 _ZNSt10moneypunctIcLb1EEC2EPSt18__moneypunct_cacheIcLb1EEj
PUBLIC 6f494 0 _ZNSt10moneypunctIcLb1EEC2EPiPKcj
PUBLIC 6f4ec 0 _ZNKSt10moneypunctIcLb1EE13decimal_pointEv
PUBLIC 6f500 0 _ZNKSt10moneypunctIcLb1EE13thousands_sepEv
PUBLIC 6f514 0 _ZNKSt10moneypunctIcLb1EE8groupingEv
PUBLIC 6f530 0 _ZNKSt10moneypunctIcLb1EE11curr_symbolEv
PUBLIC 6f54c 0 _ZNKSt10moneypunctIcLb1EE13positive_signEv
PUBLIC 6f568 0 _ZNKSt10moneypunctIcLb1EE13negative_signEv
PUBLIC 6f584 0 _ZNKSt10moneypunctIcLb1EE11frac_digitsEv
PUBLIC 6f598 0 _ZNKSt10moneypunctIcLb1EE10pos_formatEv
PUBLIC 6f5b4 0 _ZNKSt10moneypunctIcLb1EE10neg_formatEv
PUBLIC 6f5d0 0 _ZNSt18__moneypunct_cacheIcLb0EEC1Ej
PUBLIC 6f65c 0 _ZNSt18__moneypunct_cacheIcLb1EEC2Ej
PUBLIC 6f6e8 0 _ZNSt17moneypunct_bynameIcLb0EEC2EPKcj
PUBLIC 6f7e0 0 _ZNSt17moneypunct_bynameIcLb1EEC2EPKcj
PUBLIC 6f8d8 0 _ZNSt9money_getIcSt19istreambuf_iteratorIcSt11char_traitsIcEEEC2Ej
PUBLIC 6f908 0 _ZNKSt9money_getIcSt19istreambuf_iteratorIcSt11char_traitsIcEEE3getES3_S3_bRSt8ios_baseRSt12_Ios_IostateRe
PUBLIC 6f970 0 _ZNKSt9money_getIcSt19istreambuf_iteratorIcSt11char_traitsIcEEE3getES3_S3_bRSt8ios_baseRSt12_Ios_IostateRSs
PUBLIC 6f9d8 0 _ZNSt9money_putIcSt19ostreambuf_iteratorIcSt11char_traitsIcEEEC2Ej
PUBLIC 6fa08 0 _ZNKSt9money_putIcSt19ostreambuf_iteratorIcSt11char_traitsIcEEE3putES3_bRSt8ios_basece
PUBLIC 6fa54 0 _ZNKSt9money_putIcSt19ostreambuf_iteratorIcSt11char_traitsIcEEE3putES3_bRSt8ios_basecRKSs
PUBLIC 6faa4 0 _ZNSt8numpunctIcEC1Ej
PUBLIC 6faf8 0 _ZNSt8numpunctIcEC1EPSt16__numpunct_cacheIcEj
PUBLIC 6fb4c 0 _ZNSt8numpunctIcEC1EPij
PUBLIC 6fba0 0 _ZNKSt8numpunctIcE13decimal_pointEv
PUBLIC 6fbb4 0 _ZNKSt8numpunctIcE13thousands_sepEv
PUBLIC 6fbc8 0 _ZNKSt8numpunctIcE8groupingEv
PUBLIC 6fbe4 0 _ZNKSt8numpunctIcE8truenameEv
PUBLIC 6fc00 0 _ZNKSt8numpunctIcE9falsenameEv
PUBLIC 6fc1c 0 _ZNSt16__numpunct_cacheIcEC2Ej
PUBLIC 6fc7c 0 _ZNSt15numpunct_bynameIcEC2EPKcj
PUBLIC 6fd6c 0 _ZNSt7num_getIcSt19istreambuf_iteratorIcSt11char_traitsIcEEEC1Ej
PUBLIC 6fd9c 0 _ZNKSt7num_getIcSt19istreambuf_iteratorIcSt11char_traitsIcEEE3getES3_S3_RSt8ios_baseRSt12_Ios_IostateRb
PUBLIC 6fdfc 0 _ZNKSt7num_getIcSt19istreambuf_iteratorIcSt11char_traitsIcEEE3getES3_S3_RSt8ios_baseRSt12_Ios_IostateRl
PUBLIC 6fe5c 0 _ZNKSt7num_getIcSt19istreambuf_iteratorIcSt11char_traitsIcEEE3getES3_S3_RSt8ios_baseRSt12_Ios_IostateRt
PUBLIC 6febc 0 _ZNKSt7num_getIcSt19istreambuf_iteratorIcSt11char_traitsIcEEE3getES3_S3_RSt8ios_baseRSt12_Ios_IostateRj
PUBLIC 6ff1c 0 _ZNKSt7num_getIcSt19istreambuf_iteratorIcSt11char_traitsIcEEE3getES3_S3_RSt8ios_baseRSt12_Ios_IostateRm
PUBLIC 6ff7c 0 _ZNKSt7num_getIcSt19istreambuf_iteratorIcSt11char_traitsIcEEE3getES3_S3_RSt8ios_baseRSt12_Ios_IostateRx
PUBLIC 6ffdc 0 _ZNKSt7num_getIcSt19istreambuf_iteratorIcSt11char_traitsIcEEE3getES3_S3_RSt8ios_baseRSt12_Ios_IostateRy
PUBLIC 7003c 0 _ZNKSt7num_getIcSt19istreambuf_iteratorIcSt11char_traitsIcEEE3getES3_S3_RSt8ios_baseRSt12_Ios_IostateRf
PUBLIC 7009c 0 _ZNKSt7num_getIcSt19istreambuf_iteratorIcSt11char_traitsIcEEE3getES3_S3_RSt8ios_baseRSt12_Ios_IostateRd
PUBLIC 700fc 0 _ZNKSt7num_getIcSt19istreambuf_iteratorIcSt11char_traitsIcEEE3getES3_S3_RSt8ios_baseRSt12_Ios_IostateRe
PUBLIC 7015c 0 _ZNKSt7num_getIcSt19istreambuf_iteratorIcSt11char_traitsIcEEE3getES3_S3_RSt8ios_baseRSt12_Ios_IostateRPv
PUBLIC 701bc 0 _ZNSt7num_putIcSt19ostreambuf_iteratorIcSt11char_traitsIcEEEC1Ej
PUBLIC 701ec 0 _ZNKSt7num_putIcSt19ostreambuf_iteratorIcSt11char_traitsIcEEE3putES3_RSt8ios_basecb
PUBLIC 70234 0 _ZNKSt7num_putIcSt19ostreambuf_iteratorIcSt11char_traitsIcEEE3putES3_RSt8ios_basecl
PUBLIC 7027c 0 _ZNKSt7num_putIcSt19ostreambuf_iteratorIcSt11char_traitsIcEEE3putES3_RSt8ios_basecm
PUBLIC 702c4 0 _ZNKSt7num_putIcSt19ostreambuf_iteratorIcSt11char_traitsIcEEE3putES3_RSt8ios_basecx
PUBLIC 70308 0 _ZNKSt7num_putIcSt19ostreambuf_iteratorIcSt11char_traitsIcEEE3putES3_RSt8ios_basecy
PUBLIC 7034c 0 _ZNKSt7num_putIcSt19ostreambuf_iteratorIcSt11char_traitsIcEEE3putES3_RSt8ios_basecd
PUBLIC 70390 0 _ZNKSt7num_putIcSt19ostreambuf_iteratorIcSt11char_traitsIcEEE3putES3_RSt8ios_basece
PUBLIC 703d4 0 _ZNKSt7num_putIcSt19ostreambuf_iteratorIcSt11char_traitsIcEEE3putES3_RSt8ios_basecPKv
PUBLIC 7041c 0 _ZNSt11__timepunctIcEC2Ej
PUBLIC 70484 0 _ZNSt11__timepunctIcEC1EPSt17__timepunct_cacheIcEj
PUBLIC 704ec 0 _ZNSt11__timepunctIcEC1EP15__locale_structPKcj
PUBLIC 705c8 0 _ZNKSt11__timepunctIcE15_M_date_formatsEPPKc
PUBLIC 705e4 0 _ZNKSt11__timepunctIcE15_M_time_formatsEPPKc
PUBLIC 70600 0 _ZNKSt11__timepunctIcE20_M_date_time_formatsEPPKc
PUBLIC 7061c 0 _ZNKSt11__timepunctIcE15_M_am_pm_formatEPKc
PUBLIC 70620 0 _ZNKSt11__timepunctIcE8_M_am_pmEPPKc
PUBLIC 7063c 0 _ZNKSt11__timepunctIcE7_M_daysEPPKc
PUBLIC 70694 0 _ZNKSt11__timepunctIcE19_M_days_abbreviatedEPPKc
PUBLIC 706ec 0 _ZNKSt11__timepunctIcE9_M_monthsEPPKc
PUBLIC 70780 0 _ZNKSt11__timepunctIcE21_M_months_abbreviatedEPPKc
PUBLIC 70814 0 _ZNSt17__timepunct_cacheIcEC2Ej
PUBLIC 7090c 0 _ZNSt8time_putIcSt19ostreambuf_iteratorIcSt11char_traitsIcEEEC2Ej
PUBLIC 7093c 0 _ZNKSt8time_putIcSt19ostreambuf_iteratorIcSt11char_traitsIcEEE3putES3_RSt8ios_basecPK2tmcc
PUBLIC 70994 0 _ZNSt15time_put_bynameIcSt19ostreambuf_iteratorIcSt11char_traitsIcEEEC2EPKcj
PUBLIC 709c8 0 _ZNSt8time_getIcSt19istreambuf_iteratorIcSt11char_traitsIcEEEC2Ej
PUBLIC 709f8 0 _ZNKSt8time_getIcSt19istreambuf_iteratorIcSt11char_traitsIcEEE10date_orderEv
PUBLIC 70a0c 0 _ZNKSt8time_getIcSt19istreambuf_iteratorIcSt11char_traitsIcEEE8get_timeES3_S3_RSt8ios_baseRSt12_Ios_IostateP2tm
PUBLIC 70a6c 0 _ZNKSt8time_getIcSt19istreambuf_iteratorIcSt11char_traitsIcEEE8get_dateES3_S3_RSt8ios_baseRSt12_Ios_IostateP2tm
PUBLIC 70acc 0 _ZNKSt8time_getIcSt19istreambuf_iteratorIcSt11char_traitsIcEEE11get_weekdayES3_S3_RSt8ios_baseRSt12_Ios_IostateP2tm
PUBLIC 70b2c 0 _ZNKSt8time_getIcSt19istreambuf_iteratorIcSt11char_traitsIcEEE13get_monthnameES3_S3_RSt8ios_baseRSt12_Ios_IostateP2tm
PUBLIC 70b8c 0 _ZNKSt8time_getIcSt19istreambuf_iteratorIcSt11char_traitsIcEEE8get_yearES3_S3_RSt8ios_baseRSt12_Ios_IostateP2tm
PUBLIC 70bec 0 _ZNSt15time_get_bynameIcSt19istreambuf_iteratorIcSt11char_traitsIcEEEC2EPKcj
PUBLIC 70c20 0 _ZNSt8messagesIcEC1Ej
PUBLIC 70c78 0 _ZNSt8messagesIcEC1EP15__locale_structPKcj
PUBLIC 70d34 0 _ZNKSt8messagesIcE4openERKSsRKSt6locale
PUBLIC 70d48 0 _ZNKSt8messagesIcE4openERKSsRKSt6localePKc
PUBLIC 70d80 0 _ZNKSt8messagesIcE3getEiiiRKSs
PUBLIC 70db0 0 _ZNKSt8messagesIcE5closeEi
PUBLIC 70dc4 0 _ZNKSt8messagesIcE18_M_convert_to_charERKSs
PUBLIC 70dcc 0 _ZNKSt8messagesIcE20_M_convert_from_charEPc
PUBLIC 70df0 0 _ZNSt15messages_bynameIcEC2EPKcj
PUBLIC 70efc 0 _ZNSt14codecvt_bynameIcc11__mbstate_tEC1EPKcj
PUBLIC 70fa0 0 _ZNSt7collateIcEC2Ej
PUBLIC 70ff0 0 _ZNSt7collateIcEC2EP15__locale_structj
PUBLIC 71044 0 _ZNKSt7collateIcE7compareEPKcS2_S2_S2_
PUBLIC 71068 0 _ZNKSt7collateIcE9transformEPKcS2_
PUBLIC 71084 0 _ZNKSt7collateIcE4hashEPKcS2_
PUBLIC 71098 0 _ZNSt14collate_bynameIcEC2EPKcj
PUBLIC 71168 0 _ZSt9use_facetISt5ctypeIcEERKT_RKSt6locale
PUBLIC 711dc 0 _ZNKSt8time_putIcSt19ostreambuf_iteratorIcSt11char_traitsIcEEE3putES3_RSt8ios_basecPK2tmPKcSB_
PUBLIC 71424 0 _ZNKSt8time_getIcSt19istreambuf_iteratorIcSt11char_traitsIcEEE14_M_extract_numES3_S3_RiiijRSt8ios_baseRSt12_Ios_Iostate
PUBLIC 716e4 0 _ZNKSt8time_getIcSt19istreambuf_iteratorIcSt11char_traitsIcEEE11do_get_yearES3_S3_RSt8ios_baseRSt12_Ios_IostateP2tm
PUBLIC 7186c 0 _ZSt9use_facetISt7codecvtIcc11__mbstate_tEERKT_RKSt6locale
PUBLIC 718e0 0 _ZSt9use_facetISt7collateIcEERKT_RKSt6locale
PUBLIC 71954 0 _ZSt9use_facetISt8numpunctIcEERKT_RKSt6locale
PUBLIC 719c8 0 _ZNSt16__numpunct_cacheIcE8_M_cacheERKSt6locale
PUBLIC 71f18 0 _ZSt9use_facetISt7num_putIcSt19ostreambuf_iteratorIcSt11char_traitsIcEEEERKT_RKSt6locale
PUBLIC 71f8c 0 _ZSt9use_facetISt7num_getIcSt19istreambuf_iteratorIcSt11char_traitsIcEEEERKT_RKSt6locale
PUBLIC 72000 0 _ZSt9use_facetISt10moneypunctIcLb1EEERKT_RKSt6locale
PUBLIC 72074 0 _ZNSt18__moneypunct_cacheIcLb1EE8_M_cacheERKSt6locale
PUBLIC 724ac 0 _ZSt9use_facetISt10moneypunctIcLb0EEERKT_RKSt6locale
PUBLIC 72520 0 _ZNSt18__moneypunct_cacheIcLb0EE8_M_cacheERKSt6locale
PUBLIC 72958 0 _ZSt9use_facetISt9money_putIcSt19ostreambuf_iteratorIcSt11char_traitsIcEEEERKT_RKSt6locale
PUBLIC 729cc 0 _ZSt9use_facetISt9money_getIcSt19istreambuf_iteratorIcSt11char_traitsIcEEEERKT_RKSt6locale
PUBLIC 72a40 0 _ZSt9use_facetISt11__timepunctIcEERKT_RKSt6locale
PUBLIC 72ab4 0 _ZNKSt8time_putIcSt19ostreambuf_iteratorIcSt11char_traitsIcEEE6do_putES3_RSt8ios_basecPK2tmcc
PUBLIC 72bb0 0 _ZSt9use_facetISt8time_putIcSt19ostreambuf_iteratorIcSt11char_traitsIcEEEERKT_RKSt6locale
PUBLIC 72c24 0 _ZSt9use_facetISt8time_getIcSt19istreambuf_iteratorIcSt11char_traitsIcEEEERKT_RKSt6locale
PUBLIC 72c98 0 _ZSt9use_facetISt8messagesIcEERKT_RKSt6locale
PUBLIC 72d0c 0 _ZSt9has_facetISt5ctypeIcEEbRKSt6locale
PUBLIC 72d84 0 _ZSt9has_facetISt7codecvtIcc11__mbstate_tEEbRKSt6locale
PUBLIC 72dfc 0 _ZSt9has_facetISt7collateIcEEbRKSt6locale
PUBLIC 72e74 0 _ZSt9has_facetISt8numpunctIcEEbRKSt6locale
PUBLIC 72eec 0 _ZSt9has_facetISt7num_putIcSt19ostreambuf_iteratorIcSt11char_traitsIcEEEEbRKSt6locale
PUBLIC 72f64 0 _ZSt9has_facetISt7num_getIcSt19istreambuf_iteratorIcSt11char_traitsIcEEEEbRKSt6locale
PUBLIC 72fdc 0 _ZSt9has_facetISt10moneypunctIcLb0EEEbRKSt6locale
PUBLIC 73054 0 _ZSt9has_facetISt9money_putIcSt19ostreambuf_iteratorIcSt11char_traitsIcEEEEbRKSt6locale
PUBLIC 730cc 0 _ZSt9has_facetISt9money_getIcSt19istreambuf_iteratorIcSt11char_traitsIcEEEEbRKSt6locale
PUBLIC 73144 0 _ZSt9has_facetISt11__timepunctIcEEbRKSt6locale
PUBLIC 731bc 0 _ZSt9has_facetISt8time_putIcSt19ostreambuf_iteratorIcSt11char_traitsIcEEEEbRKSt6locale
PUBLIC 73234 0 _ZSt9has_facetISt8time_getIcSt19istreambuf_iteratorIcSt11char_traitsIcEEEEbRKSt6locale
PUBLIC 732ac 0 _ZSt9has_facetISt8messagesIcEEbRKSt6locale
PUBLIC 73460 0 _ZNKSt7num_putIcSt19ostreambuf_iteratorIcSt11char_traitsIcEEE14_M_group_floatEPKcjcS6_PcS7_Ri
PUBLIC 73508 0 _ZNKSt7num_putIcSt19ostreambuf_iteratorIcSt11char_traitsIcEEE12_M_group_intEPKcjcRSt8ios_basePcS9_Ri
PUBLIC 73554 0 _ZNKSt9money_putIcSt19ostreambuf_iteratorIcSt11char_traitsIcEEE9_M_insertILb1EEES3_S3_RSt8ios_basecRKSs
PUBLIC 73b54 0 _ZNKSt9money_putIcSt19ostreambuf_iteratorIcSt11char_traitsIcEEE9_M_insertILb0EEES3_S3_RSt8ios_basecRKSs
PUBLIC 74154 0 _ZNKSt9money_putIcSt19ostreambuf_iteratorIcSt11char_traitsIcEEE6do_putES3_bRSt8ios_basece
PUBLIC 743d4 0 _ZNKSt9money_putIcSt19ostreambuf_iteratorIcSt11char_traitsIcEEE6do_putES3_bRSt8ios_basecRKSs
PUBLIC 745e4 0 _ZNKSt7num_putIcSt19ostreambuf_iteratorIcSt11char_traitsIcEEE6_M_padEciRSt8ios_basePcPKcRi
PUBLIC 746cc 0 _ZNKSt7num_putIcSt19ostreambuf_iteratorIcSt11char_traitsIcEEE13_M_insert_intIlEES3_S3_RSt8ios_basecT_
PUBLIC 749bc 0 _ZNKSt7num_putIcSt19ostreambuf_iteratorIcSt11char_traitsIcEEE6do_putES3_RSt8ios_basecb
PUBLIC 74c68 0 _ZNKSt7num_putIcSt19ostreambuf_iteratorIcSt11char_traitsIcEEE6do_putES3_RSt8ios_basecl
PUBLIC 74ca4 0 _ZNKSt7num_putIcSt19ostreambuf_iteratorIcSt11char_traitsIcEEE13_M_insert_intImEES3_S3_RSt8ios_basecT_
PUBLIC 74f68 0 _ZNKSt7num_putIcSt19ostreambuf_iteratorIcSt11char_traitsIcEEE6do_putES3_RSt8ios_basecm
PUBLIC 74fa4 0 _ZNKSt7num_putIcSt19ostreambuf_iteratorIcSt11char_traitsIcEEE6do_putES3_RSt8ios_basecPKv
PUBLIC 7511c 0 _ZNKSt7num_putIcSt19ostreambuf_iteratorIcSt11char_traitsIcEEE13_M_insert_intIxEES3_S3_RSt8ios_basecT_
PUBLIC 7543c 0 _ZNKSt7num_putIcSt19ostreambuf_iteratorIcSt11char_traitsIcEEE6do_putES3_RSt8ios_basecx
PUBLIC 75478 0 _ZNKSt7num_putIcSt19ostreambuf_iteratorIcSt11char_traitsIcEEE13_M_insert_intIyEES3_S3_RSt8ios_basecT_
PUBLIC 75748 0 _ZNKSt7num_putIcSt19ostreambuf_iteratorIcSt11char_traitsIcEEE6do_putES3_RSt8ios_basecy
PUBLIC 75a58 0 _ZNKSt7num_putIcSt19ostreambuf_iteratorIcSt11char_traitsIcEEE15_M_insert_floatIdEES3_S3_RSt8ios_baseccT_
PUBLIC 75d70 0 _ZNKSt7num_putIcSt19ostreambuf_iteratorIcSt11char_traitsIcEEE6do_putES3_RSt8ios_basecd
PUBLIC 75db4 0 _ZNKSt7num_putIcSt19ostreambuf_iteratorIcSt11char_traitsIcEEE15_M_insert_floatIeEES3_S3_RSt8ios_baseccT_
PUBLIC 760cc 0 _ZNKSt7num_putIcSt19ostreambuf_iteratorIcSt11char_traitsIcEEE6do_putES3_RSt8ios_basece
PUBLIC 76284 0 _ZNKSt8time_getIcSt19istreambuf_iteratorIcSt11char_traitsIcEEE15_M_extract_nameES3_S3_RiPPKcjRSt8ios_baseRSt12_Ios_Iostate
PUBLIC 7656c 0 _ZNKSt8time_getIcSt19istreambuf_iteratorIcSt11char_traitsIcEEE24_M_extract_wday_or_monthES3_S3_RiPPKcjRSt8ios_baseRSt12_Ios_Iostate
PUBLIC 76914 0 _ZNKSt8time_getIcSt19istreambuf_iteratorIcSt11char_traitsIcEEE14do_get_weekdayES3_S3_RSt8ios_baseRSt12_Ios_IostateP2tm
PUBLIC 76b2c 0 _ZNKSt8time_getIcSt19istreambuf_iteratorIcSt11char_traitsIcEEE16do_get_monthnameES3_S3_RSt8ios_baseRSt12_Ios_IostateP2tm
PUBLIC 76dbc 0 _ZNKSt8time_getIcSt19istreambuf_iteratorIcSt11char_traitsIcEEE21_M_extract_via_formatES3_S3_RSt8ios_baseRSt12_Ios_IostateP2tmPKc
PUBLIC 77b20 0 _ZNKSt8time_getIcSt19istreambuf_iteratorIcSt11char_traitsIcEEE11do_get_timeES3_S3_RSt8ios_baseRSt12_Ios_IostateP2tm
PUBLIC 77c5c 0 _ZNKSt8time_getIcSt19istreambuf_iteratorIcSt11char_traitsIcEEE11do_get_dateES3_S3_RSt8ios_baseRSt12_Ios_IostateP2tm
PUBLIC 77d98 0 _ZNKSt9money_getIcSt19istreambuf_iteratorIcSt11char_traitsIcEEE10_M_extractILb1EEES3_S3_S3_RSt8ios_baseRSt12_Ios_IostateRSs
PUBLIC 7896c 0 _ZNKSt9money_getIcSt19istreambuf_iteratorIcSt11char_traitsIcEEE10_M_extractILb0EEES3_S3_S3_RSt8ios_baseRSt12_Ios_IostateRSs
PUBLIC 79540 0 _ZNKSt9money_getIcSt19istreambuf_iteratorIcSt11char_traitsIcEEE6do_getES3_S3_bRSt8ios_baseRSt12_Ios_IostateRe
PUBLIC 79670 0 _ZNKSt9money_getIcSt19istreambuf_iteratorIcSt11char_traitsIcEEE6do_getES3_S3_bRSt8ios_baseRSt12_Ios_IostateRSs
PUBLIC 7982c 0 _ZNKSt7num_getIcSt19istreambuf_iteratorIcSt11char_traitsIcEEE16_M_extract_floatES3_S3_RSt8ios_baseRSt12_Ios_IostateRSs
PUBLIC 7a178 0 _ZNKSt7num_getIcSt19istreambuf_iteratorIcSt11char_traitsIcEEE6do_getES3_S3_RSt8ios_baseRSt12_Ios_IostateRf
PUBLIC 7a374 0 _ZNKSt7num_getIcSt19istreambuf_iteratorIcSt11char_traitsIcEEE6do_getES3_S3_RSt8ios_baseRSt12_Ios_IostateRd
PUBLIC 7a570 0 _ZNKSt7num_getIcSt19istreambuf_iteratorIcSt11char_traitsIcEEE6do_getES3_S3_RSt8ios_baseRSt12_Ios_IostateRe
PUBLIC 7a76c 0 _ZNKSt7num_getIcSt19istreambuf_iteratorIcSt11char_traitsIcEEE14_M_extract_intIlEES3_S3_S3_RSt8ios_baseRSt12_Ios_IostateRT_
PUBLIC 7b00c 0 _ZNKSt7num_getIcSt19istreambuf_iteratorIcSt11char_traitsIcEEE6do_getES3_S3_RSt8ios_baseRSt12_Ios_IostateRl
PUBLIC 7b064 0 _ZNKSt7num_getIcSt19istreambuf_iteratorIcSt11char_traitsIcEEE6do_getES3_S3_RSt8ios_baseRSt12_Ios_IostateRb
PUBLIC 7b4c0 0 _ZNKSt7num_getIcSt19istreambuf_iteratorIcSt11char_traitsIcEEE14_M_extract_intItEES3_S3_S3_RSt8ios_baseRSt12_Ios_IostateRT_
PUBLIC 7bd58 0 _ZNKSt7num_getIcSt19istreambuf_iteratorIcSt11char_traitsIcEEE6do_getES3_S3_RSt8ios_baseRSt12_Ios_IostateRt
PUBLIC 7bdb0 0 _ZNKSt7num_getIcSt19istreambuf_iteratorIcSt11char_traitsIcEEE14_M_extract_intIjEES3_S3_S3_RSt8ios_baseRSt12_Ios_IostateRT_
PUBLIC 7c620 0 _ZNKSt7num_getIcSt19istreambuf_iteratorIcSt11char_traitsIcEEE6do_getES3_S3_RSt8ios_baseRSt12_Ios_IostateRj
PUBLIC 7c678 0 _ZNKSt7num_getIcSt19istreambuf_iteratorIcSt11char_traitsIcEEE14_M_extract_intImEES3_S3_S3_RSt8ios_baseRSt12_Ios_IostateRT_
PUBLIC 7cee8 0 _ZNKSt7num_getIcSt19istreambuf_iteratorIcSt11char_traitsIcEEE6do_getES3_S3_RSt8ios_baseRSt12_Ios_IostateRm
PUBLIC 7cf40 0 _ZNKSt7num_getIcSt19istreambuf_iteratorIcSt11char_traitsIcEEE6do_getES3_S3_RSt8ios_baseRSt12_Ios_IostateRPv
PUBLIC 7cfc8 0 _ZNKSt7num_getIcSt19istreambuf_iteratorIcSt11char_traitsIcEEE14_M_extract_intIxEES3_S3_S3_RSt8ios_baseRSt12_Ios_IostateRT_
PUBLIC 7d910 0 _ZNKSt7num_getIcSt19istreambuf_iteratorIcSt11char_traitsIcEEE6do_getES3_S3_RSt8ios_baseRSt12_Ios_IostateRx
PUBLIC 7d968 0 _ZNKSt7num_getIcSt19istreambuf_iteratorIcSt11char_traitsIcEEE14_M_extract_intIyEES3_S3_S3_RSt8ios_baseRSt12_Ios_IostateRT_
PUBLIC 7e210 0 _ZNKSt7num_getIcSt19istreambuf_iteratorIcSt11char_traitsIcEEE6do_getES3_S3_RSt8ios_baseRSt12_Ios_IostateRy
PUBLIC 7e268 0 _ZN9__gnu_cxx18stdio_sync_filebufIcSt11char_traitsIcEE7seekposESt4fposI11__mbstate_tESt13_Ios_Openmode
PUBLIC 7e2b4 0 _ZN9__gnu_cxx18stdio_sync_filebufIwSt11char_traitsIwEE7seekposESt4fposI11__mbstate_tESt13_Ios_Openmode
PUBLIC 7e300 0 _ZN9__gnu_cxx18stdio_sync_filebufIcSt11char_traitsIcEE6xsgetnEPci
PUBLIC 7e334 0 _ZN9__gnu_cxx18stdio_sync_filebufIcSt11char_traitsIcEE6xsputnEPKci
PUBLIC 7e344 0 _ZN9__gnu_cxx18stdio_sync_filebufIwSt11char_traitsIwEE6xsgetnEPwi
PUBLIC 7e3b4 0 _ZN9__gnu_cxx18stdio_sync_filebufIwSt11char_traitsIwEE5uflowEv
PUBLIC 7e3cc 0 _ZN9__gnu_cxx18stdio_sync_filebufIwSt11char_traitsIwEE6xsputnEPKwi
PUBLIC 7e418 0 _ZN9__gnu_cxx18stdio_sync_filebufIwSt11char_traitsIwEED1Ev
PUBLIC 7e44c 0 _ZN9__gnu_cxx18stdio_sync_filebufIcSt11char_traitsIcEED1Ev
PUBLIC 7e480 0 _ZN9__gnu_cxx18stdio_sync_filebufIwSt11char_traitsIwEED0Ev
PUBLIC 7e4bc 0 _ZN9__gnu_cxx18stdio_sync_filebufIcSt11char_traitsIcEED0Ev
PUBLIC 7e4f8 0 _ZN9__gnu_cxx18stdio_sync_filebufIcSt11char_traitsIcEE5uflowEv
PUBLIC 7e510 0 _ZN9__gnu_cxx18stdio_sync_filebufIcSt11char_traitsIcEE9underflowEv
PUBLIC 7e52c 0 _ZN9__gnu_cxx18stdio_sync_filebufIcSt11char_traitsIcEE9pbackfailEi
PUBLIC 7e564 0 _ZN9__gnu_cxx18stdio_sync_filebufIcSt11char_traitsIcEE4syncEv
PUBLIC 7e56c 0 _ZN9__gnu_cxx18stdio_sync_filebufIwSt11char_traitsIwEE4syncEv
PUBLIC 7e574 0 _ZN9__gnu_cxx18stdio_sync_filebufIcSt11char_traitsIcEE7seekoffExSt12_Ios_SeekdirSt13_Ios_Openmode
PUBLIC 7e5e0 0 _ZN9__gnu_cxx18stdio_sync_filebufIwSt11char_traitsIwEE7seekoffExSt12_Ios_SeekdirSt13_Ios_Openmode
PUBLIC 7e64c 0 _ZN9__gnu_cxx18stdio_sync_filebufIwSt11char_traitsIwEE9underflowEv
PUBLIC 7e668 0 _ZN9__gnu_cxx18stdio_sync_filebufIwSt11char_traitsIwEE9pbackfailEj
PUBLIC 7e6a0 0 _ZN9__gnu_cxx18stdio_sync_filebufIcSt11char_traitsIcEE8overflowEi
PUBLIC 7e6d4 0 _ZN9__gnu_cxx18stdio_sync_filebufIwSt11char_traitsIwEE8overflowEj
PUBLIC 7e708 0 _ZStlsIcSt11char_traitsIcESaIcEERSt13basic_ostreamIT_T0_ES7_RKSbIS4_S5_T1_E
PUBLIC 7e714 0 _ZSt7getlineIcSt11char_traitsIcESaIcEERSt13basic_istreamIT_T0_ES7_RSbIS4_S5_T1_E
PUBLIC 7e78c 0 _ZStrsIwSt11char_traitsIwESaIwEERSt13basic_istreamIT_T0_ES7_RSbIS4_S5_T1_E
PUBLIC 7ea70 0 _ZStlsIwSt11char_traitsIwESaIwEERSt13basic_ostreamIT_T0_ES7_RKSbIS4_S5_T1_E
PUBLIC 7ea7c 0 _ZSt7getlineIwSt11char_traitsIwESaIwEERSt13basic_istreamIT_T0_ES7_RSbIS4_S5_T1_E
PUBLIC 7eac8 0 _ZN9__gnu_cxx18stdio_sync_filebufIcSt11char_traitsIcEEC2EP8_IO_FILE
PUBLIC 7eb3c 0 _ZN9__gnu_cxx18stdio_sync_filebufIcSt11char_traitsIcEE4fileEv
PUBLIC 7eb44 0 _ZN9__gnu_cxx18stdio_sync_filebufIwSt11char_traitsIwEEC2EP8_IO_FILE
PUBLIC 7ebb8 0 _ZN9__gnu_cxx18stdio_sync_filebufIwSt11char_traitsIwEE4fileEv
PUBLIC 7ebc0 0 _ZNSoD1Ev
PUBLIC 7ec08 0 _ZTv0_n12_NSoD1Ev
PUBLIC 7ec18 0 _ZNSt13basic_ostreamIwSt11char_traitsIwEED1Ev
PUBLIC 7ec60 0 _ZTv0_n12_NSt13basic_ostreamIwSt11char_traitsIwEED1Ev
PUBLIC 7ec70 0 _ZNSoD0Ev
PUBLIC 7ecc0 0 _ZTv0_n12_NSoD0Ev
PUBLIC 7ecd0 0 _ZNSt13basic_ostreamIwSt11char_traitsIwEED0Ev
PUBLIC 7ed20 0 _ZTv0_n12_NSt13basic_ostreamIwSt11char_traitsIwEED0Ev
PUBLIC 7ed30 0 _ZNSoC2EPSt15basic_streambufIcSt11char_traitsIcEE
PUBLIC 7ed60 0 _ZNSoC1EPSt15basic_streambufIcSt11char_traitsIcEE
PUBLIC 7edf0 0 _ZNSoD2Ev
PUBLIC 7ee08 0 _ZNSolsEPFRSoS_E
PUBLIC 7ee14 0 _ZNSolsEPFRSt9basic_iosIcSt11char_traitsIcEES3_E
PUBLIC 7ee34 0 _ZNSolsEPFRSt8ios_baseS0_E
PUBLIC 7ee54 0 _ZNSo8_M_writeEPKci
PUBLIC 7eea0 0 _ZNSo5flushEv
PUBLIC 7ef70 0 _ZNSo5tellpEv
PUBLIC 7f078 0 _ZNSo5seekpESt4fposI11__mbstate_tE
PUBLIC 7f1a8 0 _ZNSo5seekpExSt12_Ios_Seekdir
PUBLIC 7f2ac 0 _ZNSoC2Ev
PUBLIC 7f2dc 0 _ZNSoC1Ev
PUBLIC 7f364 0 _ZNSo6sentryC2ERSo
PUBLIC 7f3e0 0 _ZNSo6sentryD1Ev
PUBLIC 7f45c 0 _ZNSolsEPSt15basic_streambufIcSt11char_traitsIcEE
PUBLIC 7f5e4 0 _ZNSo3putEc
PUBLIC 7f76c 0 _ZNSo5writeEPKci
PUBLIC 7f8e0 0 _ZNKSo6sentrycvbEv
PUBLIC 7f8e8 0 _ZSt4endlIcSt11char_traitsIcEERSt13basic_ostreamIT_T0_ES6_
PUBLIC 7f95c 0 _ZSt4endsIcSt11char_traitsIcEERSt13basic_ostreamIT_T0_ES6_
PUBLIC 7f964 0 _ZSt5flushIcSt11char_traitsIcEERSt13basic_ostreamIT_T0_ES6_
PUBLIC 7f968 0 _ZStlsIcSt11char_traitsIcEERSt13basic_ostreamIT_T0_ES6_St8_SetfillIS3_E
PUBLIC 7f9e4 0 _ZStlsIcSt11char_traitsIcEERSt13basic_ostreamIT_T0_ES6_St12_Setiosflags
PUBLIC 7fa00 0 _ZStlsIcSt11char_traitsIcEERSt13basic_ostreamIT_T0_ES6_St14_Resetiosflags
PUBLIC 7fa1c 0 _ZStlsIcSt11char_traitsIcEERSt13basic_ostreamIT_T0_ES6_St8_Setbase
PUBLIC 7fa60 0 _ZStlsIcSt11char_traitsIcEERSt13basic_ostreamIT_T0_ES6_St13_Setprecision
PUBLIC 7fa74 0 _ZStlsIcSt11char_traitsIcEERSt13basic_ostreamIT_T0_ES6_St5_Setw
PUBLIC 7fa88 0 _ZSt16__ostream_insertIcSt11char_traitsIcEERSt13basic_ostreamIT_T0_ES6_PKS3_i
PUBLIC 7fe7c 0 _ZStlsISt11char_traitsIcEERSt13basic_ostreamIcT_ES5_c
PUBLIC 7fea0 0 _ZStlsISt11char_traitsIcEERSt13basic_ostreamIcT_ES5_h
PUBLIC 7fec4 0 _ZStlsISt11char_traitsIcEERSt13basic_ostreamIcT_ES5_a
PUBLIC 7fee8 0 _ZStlsISt11char_traitsIcEERSt13basic_ostreamIcT_ES5_PKc
PUBLIC 7ff38 0 _ZStlsISt11char_traitsIcEERSt13basic_ostreamIcT_ES5_PKa
PUBLIC 7ff88 0 _ZStlsISt11char_traitsIcEERSt13basic_ostreamIcT_ES5_PKh
PUBLIC 7ffd8 0 _ZNSo9_M_insertIlEERSoT_
PUBLIC 801e4 0 _ZNSolsEl
PUBLIC 801e8 0 _ZNSolsEs
PUBLIC 80218 0 _ZNSolsEi
PUBLIC 8021c 0 _ZNSo9_M_insertImEERSoT_
PUBLIC 80428 0 _ZNSolsEm
PUBLIC 8042c 0 _ZNSolsEt
PUBLIC 80430 0 _ZNSolsEj
PUBLIC 80434 0 _ZNSo9_M_insertIbEERSoT_
PUBLIC 80640 0 _ZNSolsEb
PUBLIC 80644 0 _ZNSo9_M_insertIxEERSoT_
PUBLIC 80860 0 _ZNSolsEx
PUBLIC 80864 0 _ZNSo9_M_insertIyEERSoT_
PUBLIC 80a80 0 _ZNSolsEy
PUBLIC 80a84 0 _ZNSo9_M_insertIdEERSoT_
PUBLIC 80ca0 0 _ZNSolsEd
PUBLIC 80ca4 0 _ZNSolsEf
PUBLIC 80cc8 0 _ZNSo9_M_insertIeEERSoT_
PUBLIC 80ee4 0 _ZNSolsEe
PUBLIC 80ee8 0 _ZNSo9_M_insertIPKvEERSoT_
PUBLIC 810f4 0 _ZNSolsEPKv
PUBLIC 810f8 0 _ZNSt13basic_ostreamIwSt11char_traitsIwEEC2EPSt15basic_streambufIwS1_E
PUBLIC 81128 0 _ZNSt13basic_ostreamIwSt11char_traitsIwEEC1EPSt15basic_streambufIwS1_E
PUBLIC 811b8 0 _ZNSt13basic_ostreamIwSt11char_traitsIwEED2Ev
PUBLIC 811d0 0 _ZNSt13basic_ostreamIwSt11char_traitsIwEElsEPFRS2_S3_E
PUBLIC 811dc 0 _ZNSt13basic_ostreamIwSt11char_traitsIwEElsEPFRSt9basic_iosIwS1_ES5_E
PUBLIC 811fc 0 _ZNSt13basic_ostreamIwSt11char_traitsIwEElsEPFRSt8ios_baseS4_E
PUBLIC 8121c 0 _ZNSt13basic_ostreamIwSt11char_traitsIwEE8_M_writeEPKwi
PUBLIC 81268 0 _ZNSt13basic_ostreamIwSt11char_traitsIwEE5flushEv
PUBLIC 81338 0 _ZNSt13basic_ostreamIwSt11char_traitsIwEE5tellpEv
PUBLIC 81440 0 _ZNSt13basic_ostreamIwSt11char_traitsIwEE5seekpESt4fposI11__mbstate_tE
PUBLIC 81570 0 _ZNSt13basic_ostreamIwSt11char_traitsIwEE5seekpExSt12_Ios_Seekdir
PUBLIC 81674 0 _ZNSt13basic_ostreamIwSt11char_traitsIwEEC2Ev
PUBLIC 816a4 0 _ZNSt13basic_ostreamIwSt11char_traitsIwEEC1Ev
PUBLIC 8172c 0 _ZNSt13basic_ostreamIwSt11char_traitsIwEE6sentryC1ERS2_
PUBLIC 817a8 0 _ZNSt13basic_ostreamIwSt11char_traitsIwEE6sentryD2Ev
PUBLIC 81824 0 _ZNSt13basic_ostreamIwSt11char_traitsIwEElsEPSt15basic_streambufIwS1_E
PUBLIC 819ac 0 _ZNSt13basic_ostreamIwSt11char_traitsIwEE3putEw
PUBLIC 81b34 0 _ZNSt13basic_ostreamIwSt11char_traitsIwEE5writeEPKwi
PUBLIC 81ca8 0 _ZNKSt13basic_ostreamIwSt11char_traitsIwEE6sentrycvbEv
PUBLIC 81cb0 0 _ZSt4endlIwSt11char_traitsIwEERSt13basic_ostreamIT_T0_ES6_
PUBLIC 81cf8 0 _ZSt4endsIwSt11char_traitsIwEERSt13basic_ostreamIT_T0_ES6_
PUBLIC 81d00 0 _ZSt5flushIwSt11char_traitsIwEERSt13basic_ostreamIT_T0_ES6_
PUBLIC 81d04 0 _ZStlsIwSt11char_traitsIwEERSt13basic_ostreamIT_T0_ES6_St8_SetfillIS3_E
PUBLIC 81d64 0 _ZStlsIwSt11char_traitsIwEERSt13basic_ostreamIT_T0_ES6_St12_Setiosflags
PUBLIC 81d80 0 _ZStlsIwSt11char_traitsIwEERSt13basic_ostreamIT_T0_ES6_St14_Resetiosflags
PUBLIC 81d9c 0 _ZStlsIwSt11char_traitsIwEERSt13basic_ostreamIT_T0_ES6_St8_Setbase
PUBLIC 81de0 0 _ZStlsIwSt11char_traitsIwEERSt13basic_ostreamIT_T0_ES6_St13_Setprecision
PUBLIC 81df4 0 _ZStlsIwSt11char_traitsIwEERSt13basic_ostreamIT_T0_ES6_St5_Setw
PUBLIC 81e08 0 _ZSt16__ostream_insertIwSt11char_traitsIwEERSt13basic_ostreamIT_T0_ES6_PKS3_i
PUBLIC 821bc 0 _ZStlsIwSt11char_traitsIwEERSt13basic_ostreamIT_T0_ES6_S3_
PUBLIC 821e0 0 _ZStlsIwSt11char_traitsIwEERSt13basic_ostreamIT_T0_ES6_c
PUBLIC 82230 0 _ZStlsIwSt11char_traitsIwEERSt13basic_ostreamIT_T0_ES6_PKS3_
PUBLIC 82280 0 _ZStlsIwSt11char_traitsIwEERSt13basic_ostreamIT_T0_ES6_PKc
PUBLIC 8240c 0 _ZNSt13basic_ostreamIwSt11char_traitsIwEE9_M_insertIlEERS2_T_
PUBLIC 825f8 0 _ZNSt13basic_ostreamIwSt11char_traitsIwEElsEl
PUBLIC 825fc 0 _ZNSt13basic_ostreamIwSt11char_traitsIwEElsEs
PUBLIC 8262c 0 _ZNSt13basic_ostreamIwSt11char_traitsIwEElsEi
PUBLIC 82630 0 _ZNSt13basic_ostreamIwSt11char_traitsIwEE9_M_insertImEERS2_T_
PUBLIC 8281c 0 _ZNSt13basic_ostreamIwSt11char_traitsIwEElsEm
PUBLIC 82820 0 _ZNSt13basic_ostreamIwSt11char_traitsIwEElsEt
PUBLIC 82824 0 _ZNSt13basic_ostreamIwSt11char_traitsIwEElsEj
PUBLIC 82828 0 _ZNSt13basic_ostreamIwSt11char_traitsIwEE9_M_insertIbEERS2_T_
PUBLIC 82a14 0 _ZNSt13basic_ostreamIwSt11char_traitsIwEElsEb
PUBLIC 82a18 0 _ZNSt13basic_ostreamIwSt11char_traitsIwEE9_M_insertIxEERS2_T_
PUBLIC 82c0c 0 _ZNSt13basic_ostreamIwSt11char_traitsIwEElsEx
PUBLIC 82c10 0 _ZNSt13basic_ostreamIwSt11char_traitsIwEE9_M_insertIyEERS2_T_
PUBLIC 82e04 0 _ZNSt13basic_ostreamIwSt11char_traitsIwEElsEy
PUBLIC 82e08 0 _ZNSt13basic_ostreamIwSt11char_traitsIwEE9_M_insertIdEERS2_T_
PUBLIC 82ffc 0 _ZNSt13basic_ostreamIwSt11char_traitsIwEElsEd
PUBLIC 83000 0 _ZNSt13basic_ostreamIwSt11char_traitsIwEElsEf
PUBLIC 83024 0 _ZNSt13basic_ostreamIwSt11char_traitsIwEE9_M_insertIeEERS2_T_
PUBLIC 83218 0 _ZNSt13basic_ostreamIwSt11char_traitsIwEElsEe
PUBLIC 8321c 0 _ZNSt13basic_ostreamIwSt11char_traitsIwEE9_M_insertIPKvEERS2_T_
PUBLIC 83408 0 _ZNSt13basic_ostreamIwSt11char_traitsIwEElsEPKv
PUBLIC 8340c 0 _ZNSt15basic_stringbufIcSt11char_traitsIcESaIcEE9showmanycEv
PUBLIC 8344c 0 _ZNSt15basic_stringbufIcSt11char_traitsIcESaIcEE9underflowEv
PUBLIC 83494 0 _ZNSt15basic_stringbufIcSt11char_traitsIcESaIcEE9pbackfailEi
PUBLIC 83518 0 _ZNSt15basic_stringbufIwSt11char_traitsIwESaIwEE9showmanycEv
PUBLIC 8355c 0 _ZNSt15basic_stringbufIwSt11char_traitsIwESaIwEE9pbackfailEj
PUBLIC 835c8 0 _ZNSt15basic_stringbufIwSt11char_traitsIwESaIwEE9underflowEv
PUBLIC 83610 0 _ZNSt19basic_ostringstreamIwSt11char_traitsIwESaIwEED1Ev
PUBLIC 83714 0 _ZTv0_n12_NSt19basic_ostringstreamIwSt11char_traitsIwESaIwEED1Ev
PUBLIC 83724 0 _ZNSt19basic_ostringstreamIcSt11char_traitsIcESaIcEED1Ev
PUBLIC 83828 0 _ZTv0_n12_NSt19basic_ostringstreamIcSt11char_traitsIcESaIcEED1Ev
PUBLIC 83838 0 _ZNSt19basic_istringstreamIwSt11char_traitsIwESaIwEED1Ev
PUBLIC 83940 0 _ZTv0_n12_NSt19basic_istringstreamIwSt11char_traitsIwESaIwEED1Ev
PUBLIC 83950 0 _ZNSt19basic_istringstreamIcSt11char_traitsIcESaIcEED1Ev
PUBLIC 83a58 0 _ZTv0_n12_NSt19basic_istringstreamIcSt11char_traitsIcESaIcEED1Ev
PUBLIC 83a68 0 _ZNSt19basic_ostringstreamIwSt11char_traitsIwESaIwEED0Ev
PUBLIC 83b74 0 _ZTv0_n12_NSt19basic_ostringstreamIwSt11char_traitsIwESaIwEED0Ev
PUBLIC 83b84 0 _ZNSt19basic_ostringstreamIcSt11char_traitsIcESaIcEED0Ev
PUBLIC 83c90 0 _ZTv0_n12_NSt19basic_ostringstreamIcSt11char_traitsIcESaIcEED0Ev
PUBLIC 83ca0 0 _ZNSt19basic_istringstreamIcSt11char_traitsIcESaIcEED0Ev
PUBLIC 83db0 0 _ZTv0_n12_NSt19basic_istringstreamIcSt11char_traitsIcESaIcEED0Ev
PUBLIC 83dc0 0 _ZNSt19basic_istringstreamIwSt11char_traitsIwESaIwEED0Ev
PUBLIC 83ed0 0 _ZTv0_n12_NSt19basic_istringstreamIwSt11char_traitsIwESaIwEED0Ev
PUBLIC 83ee0 0 _ZNSt18basic_stringstreamIwSt11char_traitsIwESaIwEED1Ev
PUBLIC 84004 0 _ZThn8_NSt18basic_stringstreamIwSt11char_traitsIwESaIwEED1Ev
PUBLIC 8400c 0 _ZTv0_n12_NSt18basic_stringstreamIwSt11char_traitsIwESaIwEED1Ev
PUBLIC 8401c 0 _ZNSt18basic_stringstreamIcSt11char_traitsIcESaIcEED1Ev
PUBLIC 84140 0 _ZThn8_NSt18basic_stringstreamIcSt11char_traitsIcESaIcEED1Ev
PUBLIC 84148 0 _ZTv0_n12_NSt18basic_stringstreamIcSt11char_traitsIcESaIcEED1Ev
PUBLIC 84158 0 _ZNSt18basic_stringstreamIcSt11char_traitsIcESaIcEED0Ev
PUBLIC 84284 0 _ZThn8_NSt18basic_stringstreamIcSt11char_traitsIcESaIcEED0Ev
PUBLIC 8428c 0 _ZTv0_n12_NSt18basic_stringstreamIcSt11char_traitsIcESaIcEED0Ev
PUBLIC 8429c 0 _ZNSt18basic_stringstreamIwSt11char_traitsIwESaIwEED0Ev
PUBLIC 843c8 0 _ZThn8_NSt18basic_stringstreamIwSt11char_traitsIwESaIwEED0Ev
PUBLIC 843d0 0 _ZTv0_n12_NSt18basic_stringstreamIwSt11char_traitsIwESaIwEED0Ev
PUBLIC 843e0 0 _ZNSt15basic_stringbufIcSt11char_traitsIcESaIcEEC1ESt13_Ios_Openmode
PUBLIC 84460 0 _ZNKSt15basic_stringbufIcSt11char_traitsIcESaIcEE3strEv
PUBLIC 84594 0 _ZNSt15basic_stringbufIcSt11char_traitsIcESaIcEE15_M_update_egptrEv
PUBLIC 845c4 0 _ZNSt15basic_stringbufIcSt11char_traitsIcESaIcEE8_M_pbumpEPcS4_x
PUBLIC 8461c 0 _ZNSt15basic_stringbufIcSt11char_traitsIcESaIcEE7_M_syncEPcjj
PUBLIC 846a4 0 _ZNSt15basic_stringbufIcSt11char_traitsIcESaIcEE17_M_stringbuf_initESt13_Ios_Openmode
PUBLIC 846bc 0 _ZNSt15basic_stringbufIcSt11char_traitsIcESaIcEE6setbufEPci
PUBLIC 84718 0 _ZNSt15basic_stringbufIcSt11char_traitsIcESaIcEE8overflowEi
PUBLIC 848f0 0 _ZNSt15basic_stringbufIcSt11char_traitsIcESaIcEE3strERKSs
PUBLIC 84928 0 _ZNSt15basic_stringbufIcSt11char_traitsIcESaIcEEC2ERKSsSt13_Ios_Openmode
PUBLIC 84a04 0 _ZNSt15basic_stringbufIcSt11char_traitsIcESaIcEE7seekoffExSt12_Ios_SeekdirSt13_Ios_Openmode
PUBLIC 84bd4 0 _ZNSt15basic_stringbufIcSt11char_traitsIcESaIcEE7seekposESt4fposI11__mbstate_tESt13_Ios_Openmode
PUBLIC 84d08 0 _ZNSt19basic_istringstreamIcSt11char_traitsIcESaIcEEC2ESt13_Ios_Openmode
PUBLIC 84e10 0 _ZNSt19basic_istringstreamIcSt11char_traitsIcESaIcEEC1ESt13_Ios_Openmode
PUBLIC 84f60 0 _ZNSt19basic_istringstreamIcSt11char_traitsIcESaIcEEC2ERKSsSt13_Ios_Openmode
PUBLIC 850c0 0 _ZNSt19basic_istringstreamIcSt11char_traitsIcESaIcEEC1ERKSsSt13_Ios_Openmode
PUBLIC 85270 0 _ZNSt19basic_istringstreamIcSt11char_traitsIcESaIcEED2Ev
PUBLIC 8535c 0 _ZNKSt19basic_istringstreamIcSt11char_traitsIcESaIcEE5rdbufEv
PUBLIC 85364 0 _ZNKSt19basic_istringstreamIcSt11char_traitsIcESaIcEE3strEv
PUBLIC 85498 0 _ZNSt19basic_istringstreamIcSt11char_traitsIcESaIcEE3strERKSs
PUBLIC 854d0 0 _ZNSt19basic_ostringstreamIcSt11char_traitsIcESaIcEEC2ESt13_Ios_Openmode
PUBLIC 855c4 0 _ZNSt19basic_ostringstreamIcSt11char_traitsIcESaIcEEC1ESt13_Ios_Openmode
PUBLIC 85708 0 _ZNSt19basic_ostringstreamIcSt11char_traitsIcESaIcEEC2ERKSsSt13_Ios_Openmode
PUBLIC 85858 0 _ZNSt19basic_ostringstreamIcSt11char_traitsIcESaIcEEC1ERKSsSt13_Ios_Openmode
PUBLIC 859fc 0 _ZNSt19basic_ostringstreamIcSt11char_traitsIcESaIcEED2Ev
PUBLIC 85ae0 0 _ZNKSt19basic_ostringstreamIcSt11char_traitsIcESaIcEE5rdbufEv
PUBLIC 85ae8 0 _ZNKSt19basic_ostringstreamIcSt11char_traitsIcESaIcEE3strEv
PUBLIC 85c1c 0 _ZNSt19basic_ostringstreamIcSt11char_traitsIcESaIcEE3strERKSs
PUBLIC 85c54 0 _ZNSt18basic_stringstreamIcSt11char_traitsIcESaIcEEC2ESt13_Ios_Openmode
PUBLIC 85db4 0 _ZNSt18basic_stringstreamIcSt11char_traitsIcESaIcEEC1ESt13_Ios_Openmode
PUBLIC 85f4c 0 _ZNSt18basic_stringstreamIcSt11char_traitsIcESaIcEEC2ERKSsSt13_Ios_Openmode
PUBLIC 86100 0 _ZNSt18basic_stringstreamIcSt11char_traitsIcESaIcEEC1ERKSsSt13_Ios_Openmode
PUBLIC 862f0 0 _ZNSt18basic_stringstreamIcSt11char_traitsIcESaIcEED2Ev
PUBLIC 86418 0 _ZNKSt18basic_stringstreamIcSt11char_traitsIcESaIcEE5rdbufEv
PUBLIC 86420 0 _ZNKSt18basic_stringstreamIcSt11char_traitsIcESaIcEE3strEv
PUBLIC 86554 0 _ZNSt18basic_stringstreamIcSt11char_traitsIcESaIcEE3strERKSs
PUBLIC 8658c 0 _ZNSt15basic_stringbufIwSt11char_traitsIwESaIwEEC1ESt13_Ios_Openmode
PUBLIC 8660c 0 _ZNKSt15basic_stringbufIwSt11char_traitsIwESaIwEE3strEv
PUBLIC 86740 0 _ZNSt15basic_stringbufIwSt11char_traitsIwESaIwEE15_M_update_egptrEv
PUBLIC 86770 0 _ZNSt15basic_stringbufIwSt11char_traitsIwESaIwEE8_M_pbumpEPwS4_x
PUBLIC 867d8 0 _ZNSt15basic_stringbufIwSt11char_traitsIwESaIwEE7_M_syncEPwjj
PUBLIC 86860 0 _ZNSt15basic_stringbufIwSt11char_traitsIwESaIwEE17_M_stringbuf_initESt13_Ios_Openmode
PUBLIC 86878 0 _ZNSt15basic_stringbufIwSt11char_traitsIwESaIwEE6setbufEPwi
PUBLIC 868d4 0 _ZNSt15basic_stringbufIwSt11char_traitsIwESaIwEE8overflowEj
PUBLIC 86ab8 0 _ZNSt15basic_stringbufIwSt11char_traitsIwESaIwEE3strERKSbIwS1_S2_E
PUBLIC 86af0 0 _ZNSt15basic_stringbufIwSt11char_traitsIwESaIwEEC2ERKSbIwS1_S2_ESt13_Ios_Openmode
PUBLIC 86bcc 0 _ZNSt15basic_stringbufIwSt11char_traitsIwESaIwEE7seekoffExSt12_Ios_SeekdirSt13_Ios_Openmode
PUBLIC 86dac 0 _ZNSt15basic_stringbufIwSt11char_traitsIwESaIwEE7seekposESt4fposI11__mbstate_tESt13_Ios_Openmode
PUBLIC 86ee4 0 _ZNSt19basic_istringstreamIwSt11char_traitsIwESaIwEEC2ESt13_Ios_Openmode
PUBLIC 86fec 0 _ZNSt19basic_istringstreamIwSt11char_traitsIwESaIwEEC1ESt13_Ios_Openmode
PUBLIC 8713c 0 _ZNSt19basic_istringstreamIwSt11char_traitsIwESaIwEEC2ERKSbIwS1_S2_ESt13_Ios_Openmode
PUBLIC 8729c 0 _ZNSt19basic_istringstreamIwSt11char_traitsIwESaIwEEC1ERKSbIwS1_S2_ESt13_Ios_Openmode
PUBLIC 8744c 0 _ZNSt19basic_istringstreamIwSt11char_traitsIwESaIwEED2Ev
PUBLIC 87538 0 _ZNKSt19basic_istringstreamIwSt11char_traitsIwESaIwEE5rdbufEv
PUBLIC 87540 0 _ZNKSt19basic_istringstreamIwSt11char_traitsIwESaIwEE3strEv
PUBLIC 87674 0 _ZNSt19basic_istringstreamIwSt11char_traitsIwESaIwEE3strERKSbIwS1_S2_E
PUBLIC 876ac 0 _ZNSt19basic_ostringstreamIwSt11char_traitsIwESaIwEEC2ESt13_Ios_Openmode
PUBLIC 877a0 0 _ZNSt19basic_ostringstreamIwSt11char_traitsIwESaIwEEC1ESt13_Ios_Openmode
PUBLIC 878e4 0 _ZNSt19basic_ostringstreamIwSt11char_traitsIwESaIwEEC2ERKSbIwS1_S2_ESt13_Ios_Openmode
PUBLIC 87a34 0 _ZNSt19basic_ostringstreamIwSt11char_traitsIwESaIwEEC1ERKSbIwS1_S2_ESt13_Ios_Openmode
PUBLIC 87bd8 0 _ZNSt19basic_ostringstreamIwSt11char_traitsIwESaIwEED2Ev
PUBLIC 87cbc 0 _ZNKSt19basic_ostringstreamIwSt11char_traitsIwESaIwEE5rdbufEv
PUBLIC 87cc4 0 _ZNKSt19basic_ostringstreamIwSt11char_traitsIwESaIwEE3strEv
PUBLIC 87df8 0 _ZNSt19basic_ostringstreamIwSt11char_traitsIwESaIwEE3strERKSbIwS1_S2_E
PUBLIC 87e30 0 _ZNSt18basic_stringstreamIwSt11char_traitsIwESaIwEEC2ESt13_Ios_Openmode
PUBLIC 87f90 0 _ZNSt18basic_stringstreamIwSt11char_traitsIwESaIwEEC1ESt13_Ios_Openmode
PUBLIC 88128 0 _ZNSt18basic_stringstreamIwSt11char_traitsIwESaIwEEC2ERKSbIwS1_S2_ESt13_Ios_Openmode
PUBLIC 882dc 0 _ZNSt18basic_stringstreamIwSt11char_traitsIwESaIwEEC1ERKSbIwS1_S2_ESt13_Ios_Openmode
PUBLIC 884cc 0 _ZNSt18basic_stringstreamIwSt11char_traitsIwESaIwEED2Ev
PUBLIC 885f4 0 _ZNKSt18basic_stringstreamIwSt11char_traitsIwESaIwEE5rdbufEv
PUBLIC 885fc 0 _ZNKSt18basic_stringstreamIwSt11char_traitsIwESaIwEE3strEv
PUBLIC 88730 0 _ZNSt18basic_stringstreamIwSt11char_traitsIwESaIwEE3strERKSbIwS1_S2_E
PUBLIC 88768 0 _ZNSt15basic_streambufIcSt11char_traitsIcEE5imbueERKSt6locale
PUBLIC 8876c 0 _ZNSt15basic_streambufIcSt11char_traitsIcEE6setbufEPci
PUBLIC 88770 0 _ZNSt15basic_streambufIcSt11char_traitsIcEE7seekoffExSt12_Ios_SeekdirSt13_Ios_Openmode
PUBLIC 8878c 0 _ZNSt15basic_streambufIcSt11char_traitsIcEE7seekposESt4fposI11__mbstate_tESt13_Ios_Openmode
PUBLIC 887c0 0 _ZNSt15basic_streambufIcSt11char_traitsIcEE4syncEv
PUBLIC 887c8 0 _ZNSt15basic_streambufIcSt11char_traitsIcEE9showmanycEv
PUBLIC 887d0 0 _ZNSt15basic_streambufIcSt11char_traitsIcEE9underflowEv
PUBLIC 887d8 0 _ZNSt15basic_streambufIcSt11char_traitsIcEE5uflowEv
PUBLIC 88800 0 _ZNSt15basic_streambufIcSt11char_traitsIcEE9pbackfailEi
PUBLIC 88808 0 _ZNSt15basic_streambufIcSt11char_traitsIcEE8overflowEi
PUBLIC 88810 0 _ZNSt15basic_streambufIwSt11char_traitsIwEE5imbueERKSt6locale
PUBLIC 88814 0 _ZNSt15basic_streambufIwSt11char_traitsIwEE6setbufEPwi
PUBLIC 88818 0 _ZNSt15basic_streambufIwSt11char_traitsIwEE7seekoffExSt12_Ios_SeekdirSt13_Ios_Openmode
PUBLIC 88834 0 _ZNSt15basic_streambufIwSt11char_traitsIwEE7seekposESt4fposI11__mbstate_tESt13_Ios_Openmode
PUBLIC 88868 0 _ZNSt15basic_streambufIwSt11char_traitsIwEE4syncEv
PUBLIC 88870 0 _ZNSt15basic_streambufIwSt11char_traitsIwEE9showmanycEv
PUBLIC 88878 0 _ZNSt15basic_streambufIwSt11char_traitsIwEE9underflowEv
PUBLIC 88880 0 _ZNSt15basic_streambufIwSt11char_traitsIwEE9pbackfailEj
PUBLIC 88888 0 _ZNSt15basic_streambufIwSt11char_traitsIwEE8overflowEj
PUBLIC 88890 0 _ZNSt15basic_streambufIcSt11char_traitsIcEE6xsgetnEPci
PUBLIC 8892c 0 _ZNSt15basic_streambufIcSt11char_traitsIcEE6xsputnEPKci
PUBLIC 889c8 0 _ZNSt15basic_streambufIcSt11char_traitsIcEED1Ev
PUBLIC 889fc 0 _ZNSt15basic_streambufIwSt11char_traitsIwEED2Ev
PUBLIC 88a30 0 _ZNSt15basic_streambufIcSt11char_traitsIcEED0Ev
PUBLIC 88a6c 0 _ZNSt15basic_streambufIwSt11char_traitsIwEED0Ev
PUBLIC 88aa8 0 _ZNSt15basic_streambufIwSt11char_traitsIwEE6xsgetnEPwi
PUBLIC 88b4c 0 _ZNSt15basic_streambufIwSt11char_traitsIwEE6xsputnEPKwi
PUBLIC 88bf0 0 _ZNSt15basic_streambufIwSt11char_traitsIwEE5uflowEv
PUBLIC 88c18 0 _ZNSt15basic_streambufIcSt11char_traitsIcEE8pubimbueERKSt6locale
PUBLIC 88c68 0 _ZNKSt15basic_streambufIcSt11char_traitsIcEE6getlocEv
PUBLIC 88c80 0 _ZNSt15basic_streambufIcSt11char_traitsIcEE9pubsetbufEPci
PUBLIC 88c94 0 _ZNSt15basic_streambufIcSt11char_traitsIcEE10pubseekoffExSt12_Ios_SeekdirSt13_Ios_Openmode
PUBLIC 88cc4 0 _ZNSt15basic_streambufIcSt11char_traitsIcEE10pubseekposESt4fposI11__mbstate_tESt13_Ios_Openmode
PUBLIC 88d20 0 _ZNSt15basic_streambufIcSt11char_traitsIcEE7pubsyncEv
PUBLIC 88d34 0 _ZNSt15basic_streambufIcSt11char_traitsIcEE8in_availEv
PUBLIC 88d60 0 _ZNSt15basic_streambufIcSt11char_traitsIcEE6snextcEv
PUBLIC 88dc4 0 _ZNSt15basic_streambufIcSt11char_traitsIcEE6sbumpcEv
PUBLIC 88df8 0 _ZNSt15basic_streambufIcSt11char_traitsIcEE5sgetcEv
PUBLIC 88e24 0 _ZNSt15basic_streambufIcSt11char_traitsIcEE5sgetnEPci
PUBLIC 88e38 0 _ZNSt15basic_streambufIcSt11char_traitsIcEE9sputbackcEc
PUBLIC 88e74 0 _ZNSt15basic_streambufIcSt11char_traitsIcEE7sungetcEv
PUBLIC 88ea8 0 _ZNSt15basic_streambufIcSt11char_traitsIcEE5sputcEc
PUBLIC 88ee8 0 _ZNSt15basic_streambufIcSt11char_traitsIcEE5sputnEPKci
PUBLIC 88efc 0 _ZNSt15basic_streambufIcSt11char_traitsIcEEC2Ev
PUBLIC 88f4c 0 _ZNKSt15basic_streambufIcSt11char_traitsIcEE5ebackEv
PUBLIC 88f54 0 _ZNKSt15basic_streambufIcSt11char_traitsIcEE4gptrEv
PUBLIC 88f5c 0 _ZNKSt15basic_streambufIcSt11char_traitsIcEE5egptrEv
PUBLIC 88f64 0 _ZNSt15basic_streambufIcSt11char_traitsIcEE5gbumpEi
PUBLIC 88f74 0 _ZNSt15basic_streambufIcSt11char_traitsIcEE4setgEPcS3_S3_
PUBLIC 88f7c 0 _ZNKSt15basic_streambufIcSt11char_traitsIcEE5pbaseEv
PUBLIC 88f84 0 _ZNKSt15basic_streambufIcSt11char_traitsIcEE4pptrEv
PUBLIC 88f8c 0 _ZNKSt15basic_streambufIcSt11char_traitsIcEE5epptrEv
PUBLIC 88f94 0 _ZNSt15basic_streambufIcSt11char_traitsIcEE5pbumpEi
PUBLIC 88fa4 0 _ZNSt15basic_streambufIcSt11char_traitsIcEE4setpEPcS3_
PUBLIC 88fb4 0 _ZNSt15basic_streambufIcSt11char_traitsIcEE6stosscEv
PUBLIC 88fe0 0 _ZNSt15basic_streambufIcSt11char_traitsIcEE12__safe_gbumpEi
PUBLIC 88ff0 0 _ZNSt15basic_streambufIcSt11char_traitsIcEE12__safe_pbumpEi
PUBLIC 89000 0 _ZNSt15basic_streambufIcSt11char_traitsIcEEC2ERKS2_
PUBLIC 89068 0 _ZNSt15basic_streambufIcSt11char_traitsIcEEaSERKS2_
PUBLIC 8906c 0 _ZSt17__copy_streambufsIcSt11char_traitsIcEEiPSt15basic_streambufIT_T0_ES6_
PUBLIC 89084 0 _ZNSt15basic_streambufIwSt11char_traitsIwEE8pubimbueERKSt6locale
PUBLIC 890d4 0 _ZNKSt15basic_streambufIwSt11char_traitsIwEE6getlocEv
PUBLIC 890ec 0 _ZNSt15basic_streambufIwSt11char_traitsIwEE9pubsetbufEPwi
PUBLIC 89100 0 _ZNSt15basic_streambufIwSt11char_traitsIwEE10pubseekoffExSt12_Ios_SeekdirSt13_Ios_Openmode
PUBLIC 89130 0 _ZNSt15basic_streambufIwSt11char_traitsIwEE10pubseekposESt4fposI11__mbstate_tESt13_Ios_Openmode
PUBLIC 8918c 0 _ZNSt15basic_streambufIwSt11char_traitsIwEE7pubsyncEv
PUBLIC 891a0 0 _ZNSt15basic_streambufIwSt11char_traitsIwEE8in_availEv
PUBLIC 891d0 0 _ZNSt15basic_streambufIwSt11char_traitsIwEE6snextcEv
PUBLIC 89234 0 _ZNSt15basic_streambufIwSt11char_traitsIwEE6sbumpcEv
PUBLIC 89268 0 _ZNSt15basic_streambufIwSt11char_traitsIwEE5sgetcEv
PUBLIC 89294 0 _ZNSt15basic_streambufIwSt11char_traitsIwEE5sgetnEPwi
PUBLIC 892a8 0 _ZNSt15basic_streambufIwSt11char_traitsIwEE9sputbackcEw
PUBLIC 892e8 0 _ZNSt15basic_streambufIwSt11char_traitsIwEE7sungetcEv
PUBLIC 8931c 0 _ZNSt15basic_streambufIwSt11char_traitsIwEE5sputcEw
PUBLIC 89358 0 _ZNSt15basic_streambufIwSt11char_traitsIwEE5sputnEPKwi
PUBLIC 8936c 0 _ZNSt15basic_streambufIwSt11char_traitsIwEEC1Ev
PUBLIC 893bc 0 _ZNKSt15basic_streambufIwSt11char_traitsIwEE5ebackEv
PUBLIC 893c4 0 _ZNKSt15basic_streambufIwSt11char_traitsIwEE4gptrEv
PUBLIC 893cc 0 _ZNKSt15basic_streambufIwSt11char_traitsIwEE5egptrEv
PUBLIC 893d4 0 _ZNSt15basic_streambufIwSt11char_traitsIwEE5gbumpEi
PUBLIC 893e4 0 _ZNSt15basic_streambufIwSt11char_traitsIwEE4setgEPwS3_S3_
PUBLIC 893ec 0 _ZNKSt15basic_streambufIwSt11char_traitsIwEE5pbaseEv
PUBLIC 893f4 0 _ZNKSt15basic_streambufIwSt11char_traitsIwEE4pptrEv
PUBLIC 893fc 0 _ZNKSt15basic_streambufIwSt11char_traitsIwEE5epptrEv
PUBLIC 89404 0 _ZNSt15basic_streambufIwSt11char_traitsIwEE5pbumpEi
PUBLIC 89414 0 _ZNSt15basic_streambufIwSt11char_traitsIwEE4setpEPwS3_
PUBLIC 89424 0 _ZNSt15basic_streambufIwSt11char_traitsIwEE6stosscEv
PUBLIC 89450 0 _ZNSt15basic_streambufIwSt11char_traitsIwEE12__safe_gbumpEi
PUBLIC 89460 0 _ZNSt15basic_streambufIwSt11char_traitsIwEE12__safe_pbumpEi
PUBLIC 89470 0 _ZNSt15basic_streambufIwSt11char_traitsIwEEC2ERKS2_
PUBLIC 894d8 0 _ZNSt15basic_streambufIwSt11char_traitsIwEEaSERKS2_
PUBLIC 894dc 0 _ZSt17__copy_streambufsIwSt11char_traitsIwEEiPSt15basic_streambufIT_T0_ES6_
PUBLIC 894f4 0 _ZNKSt10moneypunctIwLb0EE16do_decimal_pointEv
PUBLIC 89500 0 _ZNKSt10moneypunctIwLb0EE16do_thousands_sepEv
PUBLIC 8950c 0 _ZNKSt10moneypunctIwLb0EE14do_frac_digitsEv
PUBLIC 89518 0 _ZNKSt10moneypunctIwLb0EE13do_pos_formatEv
PUBLIC 8952c 0 _ZNKSt10moneypunctIwLb0EE13do_neg_formatEv
PUBLIC 89540 0 _ZNKSt10moneypunctIwLb1EE16do_decimal_pointEv
PUBLIC 8954c 0 _ZNKSt10moneypunctIwLb1EE16do_thousands_sepEv
PUBLIC 89558 0 _ZNKSt10moneypunctIwLb1EE14do_frac_digitsEv
PUBLIC 89564 0 _ZNKSt10moneypunctIwLb1EE13do_pos_formatEv
PUBLIC 89578 0 _ZNKSt10moneypunctIwLb1EE13do_neg_formatEv
PUBLIC 8958c 0 _ZNKSt8numpunctIwE16do_decimal_pointEv
PUBLIC 89598 0 _ZNKSt8numpunctIwE16do_thousands_sepEv
PUBLIC 895a4 0 _ZNKSt8time_getIwSt19istreambuf_iteratorIwSt11char_traitsIwEEE13do_date_orderEv
PUBLIC 895ac 0 _ZNKSt8messagesIwE8do_closeEi
PUBLIC 895b0 0 _ZNKSt7collateIwE7do_hashEPKwS2_
PUBLIC 895d4 0 _ZNSt9money_getIwSt19istreambuf_iteratorIwSt11char_traitsIwEEED2Ev
PUBLIC 89608 0 _ZNSt9money_putIwSt19ostreambuf_iteratorIwSt11char_traitsIwEEED2Ev
PUBLIC 8963c 0 _ZNSt7num_getIwSt19istreambuf_iteratorIwSt11char_traitsIwEEED2Ev
PUBLIC 89670 0 _ZNSt7num_putIwSt19ostreambuf_iteratorIwSt11char_traitsIwEEED1Ev
PUBLIC 896a4 0 _ZNSt17__timepunct_cacheIwED2Ev
PUBLIC 896d8 0 _ZNSt8time_putIwSt19ostreambuf_iteratorIwSt11char_traitsIwEEED2Ev
PUBLIC 8970c 0 _ZNSt15time_put_bynameIwSt19ostreambuf_iteratorIwSt11char_traitsIwEEED2Ev
PUBLIC 89740 0 _ZNSt8time_getIwSt19istreambuf_iteratorIwSt11char_traitsIwEEED2Ev
PUBLIC 89774 0 _ZNSt15time_get_bynameIwSt19istreambuf_iteratorIwSt11char_traitsIwEEED2Ev
PUBLIC 89810 0 _ZNKSt10moneypunctIwLb0EE11do_groupingEv
PUBLIC 89838 0 _ZNKSt10moneypunctIwLb1EE11do_groupingEv
PUBLIC 89860 0 _ZNKSt8numpunctIwE11do_groupingEv
PUBLIC 89888 0 _ZNKSt10moneypunctIwLb0EE14do_curr_symbolEv
PUBLIC 898b0 0 _ZNKSt10moneypunctIwLb0EE16do_positive_signEv
PUBLIC 898d8 0 _ZNKSt10moneypunctIwLb0EE16do_negative_signEv
PUBLIC 89900 0 _ZNKSt10moneypunctIwLb1EE14do_curr_symbolEv
PUBLIC 89928 0 _ZNKSt10moneypunctIwLb1EE16do_positive_signEv
PUBLIC 89950 0 _ZNKSt10moneypunctIwLb1EE16do_negative_signEv
PUBLIC 89978 0 _ZNKSt8numpunctIwE11do_truenameEv
PUBLIC 899a0 0 _ZNKSt8numpunctIwE12do_falsenameEv
PUBLIC 899c8 0 _ZNSt18__moneypunct_cacheIwLb0EED2Ev
PUBLIC 89a4c 0 _ZNSt18__moneypunct_cacheIwLb1EED2Ev
PUBLIC 89ad0 0 _ZNSt16__numpunct_cacheIwED1Ev
PUBLIC 89b44 0 _ZNSt18__moneypunct_cacheIwLb0EED0Ev
PUBLIC 89b60 0 _ZNSt18__moneypunct_cacheIwLb1EED0Ev
PUBLIC 89b7c 0 _ZNSt9money_getIwSt19istreambuf_iteratorIwSt11char_traitsIwEEED0Ev
PUBLIC 89bb8 0 _ZNSt9money_putIwSt19ostreambuf_iteratorIwSt11char_traitsIwEEED0Ev
PUBLIC 89bf4 0 _ZNSt16__numpunct_cacheIwED0Ev
PUBLIC 89c10 0 _ZNSt7num_getIwSt19istreambuf_iteratorIwSt11char_traitsIwEEED0Ev
PUBLIC 89c4c 0 _ZNSt7num_putIwSt19ostreambuf_iteratorIwSt11char_traitsIwEEED0Ev
PUBLIC 89c88 0 _ZNSt17__timepunct_cacheIwED0Ev
PUBLIC 89ca4 0 _ZNSt8time_putIwSt19ostreambuf_iteratorIwSt11char_traitsIwEEED0Ev
PUBLIC 89ce0 0 _ZNSt15time_put_bynameIwSt19ostreambuf_iteratorIwSt11char_traitsIwEEED0Ev
PUBLIC 89d1c 0 _ZNSt8time_getIwSt19istreambuf_iteratorIwSt11char_traitsIwEEED0Ev
PUBLIC 89d58 0 _ZNSt15time_get_bynameIwSt19istreambuf_iteratorIwSt11char_traitsIwEEED0Ev
PUBLIC 89e0c 0 _ZNSt7collateIwED1Ev
PUBLIC 89e54 0 _ZNSt17moneypunct_bynameIwLb0EED1Ev
PUBLIC 89e88 0 _ZNSt17moneypunct_bynameIwLb0EED0Ev
PUBLIC 89ec4 0 _ZNSt17moneypunct_bynameIwLb1EED2Ev
PUBLIC 89ef8 0 _ZNSt17moneypunct_bynameIwLb1EED0Ev
PUBLIC 89f34 0 _ZNSt15numpunct_bynameIwED2Ev
PUBLIC 89f68 0 _ZNSt15numpunct_bynameIwED0Ev
PUBLIC 89fa4 0 _ZNSt11__timepunctIwED1Ev
PUBLIC 8a028 0 _ZNSt11__timepunctIwED0Ev
PUBLIC 8a044 0 _ZNSt8messagesIwED2Ev
PUBLIC 8a0b0 0 _ZNSt8messagesIwED0Ev
PUBLIC 8a0cc 0 _ZNSt15messages_bynameIwED2Ev
PUBLIC 8a100 0 _ZNSt15messages_bynameIwED0Ev
PUBLIC 8a13c 0 _ZNKSt8messagesIwE7do_openERKSsRKSt6locale
PUBLIC 8a150 0 _ZNSt14codecvt_bynameIwc11__mbstate_tED2Ev
PUBLIC 8a184 0 _ZNSt14codecvt_bynameIwc11__mbstate_tED0Ev
PUBLIC 8a1c0 0 _ZNSt14collate_bynameIwED2Ev
PUBLIC 8a208 0 _ZNSt7collateIwED0Ev
PUBLIC 8a258 0 _ZNSt14collate_bynameIwED0Ev
PUBLIC 8a2a8 0 _ZNKSt7collateIwE10do_compareEPKwS2_S2_S2_
PUBLIC 8a46c 0 _ZNKSt7collateIwE12do_transformEPKwS2_
PUBLIC 8a648 0 _ZNSt10moneypunctIwLb0EEC1Ej
PUBLIC 8a6a0 0 _ZNSt10moneypunctIwLb0EEC1EPSt18__moneypunct_cacheIwLb0EEj
PUBLIC 8a6f8 0 _ZNSt10moneypunctIwLb0EEC2EPiPKcj
PUBLIC 8a750 0 _ZNKSt10moneypunctIwLb0EE13decimal_pointEv
PUBLIC 8a764 0 _ZNKSt10moneypunctIwLb0EE13thousands_sepEv
PUBLIC 8a778 0 _ZNKSt10moneypunctIwLb0EE8groupingEv
PUBLIC 8a794 0 _ZNKSt10moneypunctIwLb0EE11curr_symbolEv
PUBLIC 8a7b0 0 _ZNKSt10moneypunctIwLb0EE13positive_signEv
PUBLIC 8a7cc 0 _ZNKSt10moneypunctIwLb0EE13negative_signEv
PUBLIC 8a7e8 0 _ZNKSt10moneypunctIwLb0EE11frac_digitsEv
PUBLIC 8a7fc 0 _ZNKSt10moneypunctIwLb0EE10pos_formatEv
PUBLIC 8a818 0 _ZNKSt10moneypunctIwLb0EE10neg_formatEv
PUBLIC 8a834 0 _ZNSt10moneypunctIwLb1EEC1Ej
PUBLIC 8a88c 0 _ZNSt10moneypunctIwLb1EEC1EPSt18__moneypunct_cacheIwLb1EEj
PUBLIC 8a8e4 0 _ZNSt10moneypunctIwLb1EEC1EPiPKcj
PUBLIC 8a93c 0 _ZNKSt10moneypunctIwLb1EE13decimal_pointEv
PUBLIC 8a950 0 _ZNKSt10moneypunctIwLb1EE13thousands_sepEv
PUBLIC 8a964 0 _ZNKSt10moneypunctIwLb1EE8groupingEv
PUBLIC 8a980 0 _ZNKSt10moneypunctIwLb1EE11curr_symbolEv
PUBLIC 8a99c 0 _ZNKSt10moneypunctIwLb1EE13positive_signEv
PUBLIC 8a9b8 0 _ZNKSt10moneypunctIwLb1EE13negative_signEv
PUBLIC 8a9d4 0 _ZNKSt10moneypunctIwLb1EE11frac_digitsEv
PUBLIC 8a9e8 0 _ZNKSt10moneypunctIwLb1EE10pos_formatEv
PUBLIC 8aa04 0 _ZNKSt10moneypunctIwLb1EE10neg_formatEv
PUBLIC 8aa20 0 _ZNSt18__moneypunct_cacheIwLb0EEC2Ej
PUBLIC 8aaac 0 _ZNSt18__moneypunct_cacheIwLb1EEC2Ej
PUBLIC 8ab38 0 _ZNSt17moneypunct_bynameIwLb0EEC1EPKcj
PUBLIC 8ac30 0 _ZNSt17moneypunct_bynameIwLb1EEC2EPKcj
PUBLIC 8ad28 0 _ZNSt9money_getIwSt19istreambuf_iteratorIwSt11char_traitsIwEEEC1Ej
PUBLIC 8ad58 0 _ZNKSt9money_getIwSt19istreambuf_iteratorIwSt11char_traitsIwEEE3getES3_S3_bRSt8ios_baseRSt12_Ios_IostateRe
PUBLIC 8adc0 0 _ZNKSt9money_getIwSt19istreambuf_iteratorIwSt11char_traitsIwEEE3getES3_S3_bRSt8ios_baseRSt12_Ios_IostateRSbIwS2_SaIwEE
PUBLIC 8ae28 0 _ZNSt9money_putIwSt19ostreambuf_iteratorIwSt11char_traitsIwEEEC1Ej
PUBLIC 8ae58 0 _ZNKSt9money_putIwSt19ostreambuf_iteratorIwSt11char_traitsIwEEE3putES3_bRSt8ios_basewe
PUBLIC 8aea4 0 _ZNKSt9money_putIwSt19ostreambuf_iteratorIwSt11char_traitsIwEEE3putES3_bRSt8ios_basewRKSbIwS2_SaIwEE
PUBLIC 8aef4 0 _ZNSt8numpunctIwEC2Ej
PUBLIC 8af48 0 _ZNSt8numpunctIwEC1EPSt16__numpunct_cacheIwEj
PUBLIC 8af9c 0 _ZNSt8numpunctIwEC2EPij
PUBLIC 8aff0 0 _ZNKSt8numpunctIwE13decimal_pointEv
PUBLIC 8b004 0 _ZNKSt8numpunctIwE13thousands_sepEv
PUBLIC 8b018 0 _ZNKSt8numpunctIwE8groupingEv
PUBLIC 8b034 0 _ZNKSt8numpunctIwE8truenameEv
PUBLIC 8b050 0 _ZNKSt8numpunctIwE9falsenameEv
PUBLIC 8b06c 0 _ZNSt16__numpunct_cacheIwEC1Ej
PUBLIC 8b0cc 0 _ZNSt15numpunct_bynameIwEC2EPKcj
PUBLIC 8b1bc 0 _ZNSt7num_getIwSt19istreambuf_iteratorIwSt11char_traitsIwEEEC1Ej
PUBLIC 8b1ec 0 _ZNKSt7num_getIwSt19istreambuf_iteratorIwSt11char_traitsIwEEE3getES3_S3_RSt8ios_baseRSt12_Ios_IostateRb
PUBLIC 8b24c 0 _ZNKSt7num_getIwSt19istreambuf_iteratorIwSt11char_traitsIwEEE3getES3_S3_RSt8ios_baseRSt12_Ios_IostateRl
PUBLIC 8b2ac 0 _ZNKSt7num_getIwSt19istreambuf_iteratorIwSt11char_traitsIwEEE3getES3_S3_RSt8ios_baseRSt12_Ios_IostateRt
PUBLIC 8b30c 0 _ZNKSt7num_getIwSt19istreambuf_iteratorIwSt11char_traitsIwEEE3getES3_S3_RSt8ios_baseRSt12_Ios_IostateRj
PUBLIC 8b36c 0 _ZNKSt7num_getIwSt19istreambuf_iteratorIwSt11char_traitsIwEEE3getES3_S3_RSt8ios_baseRSt12_Ios_IostateRm
PUBLIC 8b3cc 0 _ZNKSt7num_getIwSt19istreambuf_iteratorIwSt11char_traitsIwEEE3getES3_S3_RSt8ios_baseRSt12_Ios_IostateRx
PUBLIC 8b42c 0 _ZNKSt7num_getIwSt19istreambuf_iteratorIwSt11char_traitsIwEEE3getES3_S3_RSt8ios_baseRSt12_Ios_IostateRy
PUBLIC 8b48c 0 _ZNKSt7num_getIwSt19istreambuf_iteratorIwSt11char_traitsIwEEE3getES3_S3_RSt8ios_baseRSt12_Ios_IostateRf
PUBLIC 8b4ec 0 _ZNKSt7num_getIwSt19istreambuf_iteratorIwSt11char_traitsIwEEE3getES3_S3_RSt8ios_baseRSt12_Ios_IostateRd
PUBLIC 8b54c 0 _ZNKSt7num_getIwSt19istreambuf_iteratorIwSt11char_traitsIwEEE3getES3_S3_RSt8ios_baseRSt12_Ios_IostateRe
PUBLIC 8b5ac 0 _ZNKSt7num_getIwSt19istreambuf_iteratorIwSt11char_traitsIwEEE3getES3_S3_RSt8ios_baseRSt12_Ios_IostateRPv
PUBLIC 8b60c 0 _ZNSt7num_putIwSt19ostreambuf_iteratorIwSt11char_traitsIwEEEC2Ej
PUBLIC 8b63c 0 _ZNKSt7num_putIwSt19ostreambuf_iteratorIwSt11char_traitsIwEEE3putES3_RSt8ios_basewb
PUBLIC 8b684 0 _ZNKSt7num_putIwSt19ostreambuf_iteratorIwSt11char_traitsIwEEE3putES3_RSt8ios_basewl
PUBLIC 8b6cc 0 _ZNKSt7num_putIwSt19ostreambuf_iteratorIwSt11char_traitsIwEEE3putES3_RSt8ios_basewm
PUBLIC 8b714 0 _ZNKSt7num_putIwSt19ostreambuf_iteratorIwSt11char_traitsIwEEE3putES3_RSt8ios_basewx
PUBLIC 8b758 0 _ZNKSt7num_putIwSt19ostreambuf_iteratorIwSt11char_traitsIwEEE3putES3_RSt8ios_basewy
PUBLIC 8b79c 0 _ZNKSt7num_putIwSt19ostreambuf_iteratorIwSt11char_traitsIwEEE3putES3_RSt8ios_basewd
PUBLIC 8b7e0 0 _ZNKSt7num_putIwSt19ostreambuf_iteratorIwSt11char_traitsIwEEE3putES3_RSt8ios_basewe
PUBLIC 8b824 0 _ZNKSt7num_putIwSt19ostreambuf_iteratorIwSt11char_traitsIwEEE3putES3_RSt8ios_basewPKv
PUBLIC 8b86c 0 _ZNSt11__timepunctIwEC2Ej
PUBLIC 8b8d4 0 _ZNSt11__timepunctIwEC2EPSt17__timepunct_cacheIwEj
PUBLIC 8b93c 0 _ZNSt11__timepunctIwEC2EP15__locale_structPKcj
PUBLIC 8ba18 0 _ZNKSt11__timepunctIwE15_M_date_formatsEPPKw
PUBLIC 8ba34 0 _ZNKSt11__timepunctIwE15_M_time_formatsEPPKw
PUBLIC 8ba50 0 _ZNKSt11__timepunctIwE20_M_date_time_formatsEPPKw
PUBLIC 8ba6c 0 _ZNKSt11__timepunctIwE15_M_am_pm_formatEPKw
PUBLIC 8ba70 0 _ZNKSt11__timepunctIwE8_M_am_pmEPPKw
PUBLIC 8ba8c 0 _ZNKSt11__timepunctIwE7_M_daysEPPKw
PUBLIC 8bae4 0 _ZNKSt11__timepunctIwE19_M_days_abbreviatedEPPKw
PUBLIC 8bb3c 0 _ZNKSt11__timepunctIwE9_M_monthsEPPKw
PUBLIC 8bbd0 0 _ZNKSt11__timepunctIwE21_M_months_abbreviatedEPPKw
PUBLIC 8bc64 0 _ZNSt17__timepunct_cacheIwEC1Ej
PUBLIC 8bd5c 0 _ZNSt8time_putIwSt19ostreambuf_iteratorIwSt11char_traitsIwEEEC1Ej
PUBLIC 8bd8c 0 _ZNKSt8time_putIwSt19ostreambuf_iteratorIwSt11char_traitsIwEEE3putES3_RSt8ios_basewPK2tmcc
PUBLIC 8bde4 0 _ZNSt15time_put_bynameIwSt19ostreambuf_iteratorIwSt11char_traitsIwEEEC1EPKcj
PUBLIC 8be18 0 _ZNSt8time_getIwSt19istreambuf_iteratorIwSt11char_traitsIwEEEC2Ej
PUBLIC 8be48 0 _ZNKSt8time_getIwSt19istreambuf_iteratorIwSt11char_traitsIwEEE10date_orderEv
PUBLIC 8be5c 0 _ZNKSt8time_getIwSt19istreambuf_iteratorIwSt11char_traitsIwEEE8get_timeES3_S3_RSt8ios_baseRSt12_Ios_IostateP2tm
PUBLIC 8bebc 0 _ZNKSt8time_getIwSt19istreambuf_iteratorIwSt11char_traitsIwEEE8get_dateES3_S3_RSt8ios_baseRSt12_Ios_IostateP2tm
PUBLIC 8bf1c 0 _ZNKSt8time_getIwSt19istreambuf_iteratorIwSt11char_traitsIwEEE11get_weekdayES3_S3_RSt8ios_baseRSt12_Ios_IostateP2tm
PUBLIC 8bf7c 0 _ZNKSt8time_getIwSt19istreambuf_iteratorIwSt11char_traitsIwEEE13get_monthnameES3_S3_RSt8ios_baseRSt12_Ios_IostateP2tm
PUBLIC 8bfdc 0 _ZNKSt8time_getIwSt19istreambuf_iteratorIwSt11char_traitsIwEEE8get_yearES3_S3_RSt8ios_baseRSt12_Ios_IostateP2tm
PUBLIC 8c03c 0 _ZNSt15time_get_bynameIwSt19istreambuf_iteratorIwSt11char_traitsIwEEEC1EPKcj
PUBLIC 8c070 0 _ZNSt8messagesIwEC2Ej
PUBLIC 8c0c8 0 _ZNSt8messagesIwEC2EP15__locale_structPKcj
PUBLIC 8c184 0 _ZNKSt8messagesIwE4openERKSsRKSt6locale
PUBLIC 8c198 0 _ZNKSt8messagesIwE4openERKSsRKSt6localePKc
PUBLIC 8c1d0 0 _ZNKSt8messagesIwE3getEiiiRKSbIwSt11char_traitsIwESaIwEE
PUBLIC 8c200 0 _ZNKSt8messagesIwE5closeEi
PUBLIC 8c214 0 _ZNKSt8messagesIwE18_M_convert_to_charERKSbIwSt11char_traitsIwESaIwEE
PUBLIC 8c21c 0 _ZNKSt8messagesIwE20_M_convert_from_charEPc
PUBLIC 8c240 0 _ZNSt15messages_bynameIwEC1EPKcj
PUBLIC 8c34c 0 _ZNSt14codecvt_bynameIwc11__mbstate_tEC1EPKcj
PUBLIC 8c3f0 0 _ZNSt7collateIwEC1Ej
PUBLIC 8c440 0 _ZNSt7collateIwEC2EPij
PUBLIC 8c494 0 _ZNKSt7collateIwE7compareEPKwS2_S2_S2_
PUBLIC 8c4b8 0 _ZNKSt7collateIwE9transformEPKwS2_
PUBLIC 8c4d4 0 _ZNKSt7collateIwE4hashEPKwS2_
PUBLIC 8c4e8 0 _ZNSt14collate_bynameIwEC1EPKcj
PUBLIC 8c5b8 0 _ZSt9use_facetISt5ctypeIwEERKT_RKSt6locale
PUBLIC 8c62c 0 _ZNKSt8time_putIwSt19ostreambuf_iteratorIwSt11char_traitsIwEEE3putES3_RSt8ios_basewPK2tmPKwSB_
PUBLIC 8c7e4 0 _ZNKSt8time_getIwSt19istreambuf_iteratorIwSt11char_traitsIwEEE14_M_extract_numES3_S3_RiiijRSt8ios_baseRSt12_Ios_Iostate
PUBLIC 8ca50 0 _ZNKSt8time_getIwSt19istreambuf_iteratorIwSt11char_traitsIwEEE11do_get_yearES3_S3_RSt8ios_baseRSt12_Ios_IostateP2tm
PUBLIC 8cbe0 0 _ZSt9use_facetISt7codecvtIwc11__mbstate_tEERKT_RKSt6locale
PUBLIC 8cc54 0 _ZSt9use_facetISt7collateIwEERKT_RKSt6locale
PUBLIC 8ccc8 0 _ZSt9use_facetISt8numpunctIwEERKT_RKSt6locale
PUBLIC 8cd3c 0 _ZNSt16__numpunct_cacheIwE8_M_cacheERKSt6locale
PUBLIC 8d238 0 _ZSt9use_facetISt7num_putIwSt19ostreambuf_iteratorIwSt11char_traitsIwEEEERKT_RKSt6locale
PUBLIC 8d2ac 0 _ZSt9use_facetISt7num_getIwSt19istreambuf_iteratorIwSt11char_traitsIwEEEERKT_RKSt6locale
PUBLIC 8d320 0 _ZSt9use_facetISt10moneypunctIwLb1EEERKT_RKSt6locale
PUBLIC 8d394 0 _ZNSt18__moneypunct_cacheIwLb1EE8_M_cacheERKSt6locale
PUBLIC 8da00 0 _ZSt9use_facetISt10moneypunctIwLb0EEERKT_RKSt6locale
PUBLIC 8da74 0 _ZNSt18__moneypunct_cacheIwLb0EE8_M_cacheERKSt6locale
PUBLIC 8e0e0 0 _ZSt9use_facetISt9money_putIwSt19ostreambuf_iteratorIwSt11char_traitsIwEEEERKT_RKSt6locale
PUBLIC 8e154 0 _ZSt9use_facetISt9money_getIwSt19istreambuf_iteratorIwSt11char_traitsIwEEEERKT_RKSt6locale
PUBLIC 8e1c8 0 _ZSt9use_facetISt11__timepunctIwEERKT_RKSt6locale
PUBLIC 8e23c 0 _ZNKSt8time_putIwSt19ostreambuf_iteratorIwSt11char_traitsIwEEE6do_putES3_RSt8ios_basewPK2tmcc
PUBLIC 8e31c 0 _ZSt9use_facetISt8time_putIwSt19ostreambuf_iteratorIwSt11char_traitsIwEEEERKT_RKSt6locale
PUBLIC 8e390 0 _ZSt9use_facetISt8time_getIwSt19istreambuf_iteratorIwSt11char_traitsIwEEEERKT_RKSt6locale
PUBLIC 8e404 0 _ZSt9use_facetISt8messagesIwEERKT_RKSt6locale
PUBLIC 8e478 0 _ZSt9has_facetISt5ctypeIwEEbRKSt6locale
PUBLIC 8e4f0 0 _ZSt9has_facetISt7codecvtIwc11__mbstate_tEEbRKSt6locale
PUBLIC 8e568 0 _ZSt9has_facetISt7collateIwEEbRKSt6locale
PUBLIC 8e5e0 0 _ZSt9has_facetISt8numpunctIwEEbRKSt6locale
PUBLIC 8e658 0 _ZSt9has_facetISt7num_putIwSt19ostreambuf_iteratorIwSt11char_traitsIwEEEEbRKSt6locale
PUBLIC 8e6d0 0 _ZSt9has_facetISt7num_getIwSt19istreambuf_iteratorIwSt11char_traitsIwEEEEbRKSt6locale
PUBLIC 8e748 0 _ZSt9has_facetISt10moneypunctIwLb0EEEbRKSt6locale
PUBLIC 8e7c0 0 _ZSt9has_facetISt9money_putIwSt19ostreambuf_iteratorIwSt11char_traitsIwEEEEbRKSt6locale
PUBLIC 8e838 0 _ZSt9has_facetISt9money_getIwSt19istreambuf_iteratorIwSt11char_traitsIwEEEEbRKSt6locale
PUBLIC 8e8b0 0 _ZSt9has_facetISt11__timepunctIwEEbRKSt6locale
PUBLIC 8e928 0 _ZSt9has_facetISt8time_putIwSt19ostreambuf_iteratorIwSt11char_traitsIwEEEEbRKSt6locale
PUBLIC 8e9a0 0 _ZSt9has_facetISt8time_getIwSt19istreambuf_iteratorIwSt11char_traitsIwEEEEbRKSt6locale
PUBLIC 8ea18 0 _ZSt9has_facetISt8messagesIwEEbRKSt6locale
PUBLIC 8ebe0 0 _ZNKSt7num_putIwSt19ostreambuf_iteratorIwSt11char_traitsIwEEE14_M_group_floatEPKcjwPKwPwS9_Ri
PUBLIC 8ec98 0 _ZNKSt7num_putIwSt19ostreambuf_iteratorIwSt11char_traitsIwEEE12_M_group_intEPKcjwRSt8ios_basePwS9_Ri
PUBLIC 8ece8 0 _ZNKSt9money_putIwSt19ostreambuf_iteratorIwSt11char_traitsIwEEE9_M_insertILb1EEES3_S3_RSt8ios_basewRKSbIwS2_SaIwEE
PUBLIC 8f3bc 0 _ZNKSt9money_putIwSt19ostreambuf_iteratorIwSt11char_traitsIwEEE9_M_insertILb0EEES3_S3_RSt8ios_basewRKSbIwS2_SaIwEE
PUBLIC 8fa90 0 _ZNKSt9money_putIwSt19ostreambuf_iteratorIwSt11char_traitsIwEEE6do_putES3_bRSt8ios_basewe
PUBLIC 8fcc4 0 _ZNKSt9money_putIwSt19ostreambuf_iteratorIwSt11char_traitsIwEEE6do_putES3_bRSt8ios_basewRKSbIwS2_SaIwEE
PUBLIC 8fe80 0 _ZNKSt7num_putIwSt19ostreambuf_iteratorIwSt11char_traitsIwEEE6_M_padEwiRSt8ios_basePwPKwRi
PUBLIC 8ff6c 0 _ZNKSt7num_putIwSt19ostreambuf_iteratorIwSt11char_traitsIwEEE13_M_insert_intImEES3_S3_RSt8ios_basewT_
PUBLIC 9022c 0 _ZNKSt7num_putIwSt19ostreambuf_iteratorIwSt11char_traitsIwEEE6do_putES3_RSt8ios_basewm
PUBLIC 90268 0 _ZNKSt7num_putIwSt19ostreambuf_iteratorIwSt11char_traitsIwEEE6do_putES3_RSt8ios_basewPKv
PUBLIC 903e4 0 _ZNKSt7num_putIwSt19ostreambuf_iteratorIwSt11char_traitsIwEEE13_M_insert_intIyEES3_S3_RSt8ios_basewT_
PUBLIC 906b0 0 _ZNKSt7num_putIwSt19ostreambuf_iteratorIwSt11char_traitsIwEEE6do_putES3_RSt8ios_basewy
PUBLIC 909c0 0 _ZNKSt7num_putIwSt19ostreambuf_iteratorIwSt11char_traitsIwEEE13_M_insert_intIlEES3_S3_RSt8ios_basewT_
PUBLIC 90be4 0 _ZNKSt7num_putIwSt19ostreambuf_iteratorIwSt11char_traitsIwEEE6do_putES3_RSt8ios_basewl
PUBLIC 90c20 0 _ZNKSt7num_putIwSt19ostreambuf_iteratorIwSt11char_traitsIwEEE6do_putES3_RSt8ios_basewb
PUBLIC 90dfc 0 _ZNKSt7num_putIwSt19ostreambuf_iteratorIwSt11char_traitsIwEEE13_M_insert_intIxEES3_S3_RSt8ios_basewT_
PUBLIC 91054 0 _ZNKSt7num_putIwSt19ostreambuf_iteratorIwSt11char_traitsIwEEE6do_putES3_RSt8ios_basewx
PUBLIC 91090 0 _ZNKSt7num_putIwSt19ostreambuf_iteratorIwSt11char_traitsIwEEE15_M_insert_floatIdEES3_S3_RSt8ios_basewcT_
PUBLIC 91348 0 _ZNKSt7num_putIwSt19ostreambuf_iteratorIwSt11char_traitsIwEEE6do_putES3_RSt8ios_basewd
PUBLIC 9138c 0 _ZNKSt7num_putIwSt19ostreambuf_iteratorIwSt11char_traitsIwEEE15_M_insert_floatIeEES3_S3_RSt8ios_basewcT_
PUBLIC 91644 0 _ZNKSt7num_putIwSt19ostreambuf_iteratorIwSt11char_traitsIwEEE6do_putES3_RSt8ios_basewe
PUBLIC 917e4 0 _ZNKSt8time_getIwSt19istreambuf_iteratorIwSt11char_traitsIwEEE15_M_extract_nameES3_S3_RiPPKwjRSt8ios_baseRSt12_Ios_Iostate
PUBLIC 91ac0 0 _ZNKSt8time_getIwSt19istreambuf_iteratorIwSt11char_traitsIwEEE24_M_extract_wday_or_monthES3_S3_RiPPKwjRSt8ios_baseRSt12_Ios_Iostate
PUBLIC 91e50 0 _ZNKSt8time_getIwSt19istreambuf_iteratorIwSt11char_traitsIwEEE14do_get_weekdayES3_S3_RSt8ios_baseRSt12_Ios_IostateP2tm
PUBLIC 92070 0 _ZNKSt8time_getIwSt19istreambuf_iteratorIwSt11char_traitsIwEEE16do_get_monthnameES3_S3_RSt8ios_baseRSt12_Ios_IostateP2tm
PUBLIC 92308 0 _ZNKSt8time_getIwSt19istreambuf_iteratorIwSt11char_traitsIwEEE21_M_extract_via_formatES3_S3_RSt8ios_baseRSt12_Ios_IostateP2tmPKw
PUBLIC 92f50 0 _ZNKSt8time_getIwSt19istreambuf_iteratorIwSt11char_traitsIwEEE11do_get_timeES3_S3_RSt8ios_baseRSt12_Ios_IostateP2tm
PUBLIC 93094 0 _ZNKSt8time_getIwSt19istreambuf_iteratorIwSt11char_traitsIwEEE11do_get_dateES3_S3_RSt8ios_baseRSt12_Ios_IostateP2tm
PUBLIC 931d8 0 _ZNKSt9money_getIwSt19istreambuf_iteratorIwSt11char_traitsIwEEE10_M_extractILb0EEES3_S3_S3_RSt8ios_baseRSt12_Ios_IostateRSs
PUBLIC 93d64 0 _ZNKSt9money_getIwSt19istreambuf_iteratorIwSt11char_traitsIwEEE10_M_extractILb1EEES3_S3_S3_RSt8ios_baseRSt12_Ios_IostateRSs
PUBLIC 948f0 0 _ZNKSt9money_getIwSt19istreambuf_iteratorIwSt11char_traitsIwEEE6do_getES3_S3_bRSt8ios_baseRSt12_Ios_IostateRe
PUBLIC 94a20 0 _ZNKSt9money_getIwSt19istreambuf_iteratorIwSt11char_traitsIwEEE6do_getES3_S3_bRSt8ios_baseRSt12_Ios_IostateRSbIwS2_SaIwEE
PUBLIC 94ba0 0 _ZNKSt7num_getIwSt19istreambuf_iteratorIwSt11char_traitsIwEEE16_M_extract_floatES3_S3_RSt8ios_baseRSt12_Ios_IostateRSs
PUBLIC 954c4 0 _ZNKSt7num_getIwSt19istreambuf_iteratorIwSt11char_traitsIwEEE6do_getES3_S3_RSt8ios_baseRSt12_Ios_IostateRf
PUBLIC 956d4 0 _ZNKSt7num_getIwSt19istreambuf_iteratorIwSt11char_traitsIwEEE6do_getES3_S3_RSt8ios_baseRSt12_Ios_IostateRd
PUBLIC 958e4 0 _ZNKSt7num_getIwSt19istreambuf_iteratorIwSt11char_traitsIwEEE6do_getES3_S3_RSt8ios_baseRSt12_Ios_IostateRe
PUBLIC 95af4 0 _ZNKSt7num_getIwSt19istreambuf_iteratorIwSt11char_traitsIwEEE14_M_extract_intIlEES3_S3_S3_RSt8ios_baseRSt12_Ios_IostateRT_
PUBLIC 96390 0 _ZNKSt7num_getIwSt19istreambuf_iteratorIwSt11char_traitsIwEEE6do_getES3_S3_RSt8ios_baseRSt12_Ios_IostateRl
PUBLIC 963e8 0 _ZNKSt7num_getIwSt19istreambuf_iteratorIwSt11char_traitsIwEEE6do_getES3_S3_RSt8ios_baseRSt12_Ios_IostateRb
PUBLIC 96848 0 _ZNKSt7num_getIwSt19istreambuf_iteratorIwSt11char_traitsIwEEE14_M_extract_intItEES3_S3_S3_RSt8ios_baseRSt12_Ios_IostateRT_
PUBLIC 970f0 0 _ZNKSt7num_getIwSt19istreambuf_iteratorIwSt11char_traitsIwEEE6do_getES3_S3_RSt8ios_baseRSt12_Ios_IostateRt
PUBLIC 97148 0 _ZNKSt7num_getIwSt19istreambuf_iteratorIwSt11char_traitsIwEEE14_M_extract_intIjEES3_S3_S3_RSt8ios_baseRSt12_Ios_IostateRT_
PUBLIC 9799c 0 _ZNKSt7num_getIwSt19istreambuf_iteratorIwSt11char_traitsIwEEE6do_getES3_S3_RSt8ios_baseRSt12_Ios_IostateRj
PUBLIC 979f4 0 _ZNKSt7num_getIwSt19istreambuf_iteratorIwSt11char_traitsIwEEE14_M_extract_intImEES3_S3_S3_RSt8ios_baseRSt12_Ios_IostateRT_
PUBLIC 98248 0 _ZNKSt7num_getIwSt19istreambuf_iteratorIwSt11char_traitsIwEEE6do_getES3_S3_RSt8ios_baseRSt12_Ios_IostateRm
PUBLIC 982a0 0 _ZNKSt7num_getIwSt19istreambuf_iteratorIwSt11char_traitsIwEEE6do_getES3_S3_RSt8ios_baseRSt12_Ios_IostateRPv
PUBLIC 98328 0 _ZNKSt7num_getIwSt19istreambuf_iteratorIwSt11char_traitsIwEEE14_M_extract_intIxEES3_S3_S3_RSt8ios_baseRSt12_Ios_IostateRT_
PUBLIC 98c24 0 _ZNKSt7num_getIwSt19istreambuf_iteratorIwSt11char_traitsIwEEE6do_getES3_S3_RSt8ios_baseRSt12_Ios_IostateRx
PUBLIC 98c7c 0 _ZNKSt7num_getIwSt19istreambuf_iteratorIwSt11char_traitsIwEEE14_M_extract_intIyEES3_S3_S3_RSt8ios_baseRSt12_Ios_IostateRT_
PUBLIC 99560 0 _ZNKSt7num_getIwSt19istreambuf_iteratorIwSt11char_traitsIwEEE6do_getES3_S3_RSt8ios_baseRSt12_Ios_IostateRy
PUBLIC 995b8 0 _ZN14__gnu_parallel9_Settings3getEv
PUBLIC 995c8 0 _ZN14__gnu_parallel9_Settings3setERS0_
PUBLIC 995e8 0 _ZNSt6chrono3_V212system_clock3nowEv
PUBLIC 9962c 0 _ZNSt6chrono3_V212steady_clock3nowEv
PUBLIC 99670 0 _ZNSt18condition_variableC2Ev
PUBLIC 996a0 0 _ZNSt18condition_variableD1Ev
PUBLIC 996b4 0 _ZNSt18condition_variable4waitERSt11unique_lockISt5mutexE
PUBLIC 996cc 0 _ZNSt18condition_variable10notify_oneEv
PUBLIC 996e0 0 _ZNSt18condition_variable10notify_allEv
PUBLIC 996f4 0 _ZNSt22condition_variable_anyC2Ev
PUBLIC 99724 0 _ZNSt22condition_variable_anyD1Ev
PUBLIC 99930 0 _ZN11__gnu_debug19_Safe_sequence_base12_M_get_mutexEv
PUBLIC 9994c 0 _ZN11__gnu_debug19_Safe_sequence_base22_M_revalidate_singularEv
PUBLIC 999fc 0 _ZN11__gnu_debug19_Safe_sequence_base7_M_swapERS0_
PUBLIC 99cc0 0 _ZN11__gnu_debug19_Safe_iterator_base16_M_detach_singleEv
PUBLIC 99ce8 0 _ZN11__gnu_debug19_Safe_iterator_base16_M_attach_singleEPNS_19_Safe_sequence_baseEb
PUBLIC 99d24 0 _ZN11__gnu_debug19_Safe_sequence_base13_M_detach_allEv
PUBLIC 99dec 0 _ZN11__gnu_debug19_Safe_iterator_base9_M_detachEv
PUBLIC 99e14 0 _ZN11__gnu_debug19_Safe_iterator_base9_M_attachEPNS_19_Safe_sequence_baseEb
PUBLIC 99e50 0 _ZNK11__gnu_debug19_Safe_iterator_base11_M_singularEv
PUBLIC 99e78 0 _ZN11__gnu_debug19_Safe_sequence_base18_M_detach_singularEv
PUBLIC 99f68 0 _ZNK11__gnu_debug19_Safe_iterator_base14_M_can_compareERKS0_
PUBLIC 99fb8 0 _ZN11__gnu_debug19_Safe_iterator_base12_M_get_mutexEv
PUBLIC 99fe0 0 _ZN11__gnu_debug30_Safe_unordered_container_base13_M_detach_allEv
PUBLIC 9a100 0 _ZN11__gnu_debug30_Safe_unordered_container_base7_M_swapERS0_
PUBLIC 9a3b0 0 _ZN11__gnu_debug25_Safe_local_iterator_base9_M_detachEv
PUBLIC 9a3dc 0 _ZN11__gnu_debug25_Safe_local_iterator_base9_M_attachEPNS_19_Safe_sequence_baseEb
PUBLIC 9a41c 0 _ZNK11__gnu_debug16_Error_formatter10_M_messageENS_13_Debug_msg_idE
PUBLIC 9a440 0 _ZNK11__gnu_debug16_Error_formatter13_M_print_wordEPKc
PUBLIC 9a57c 0 _ZNK11__gnu_debug16_Error_formatter17_M_get_max_lengthEv
PUBLIC 9a5e4 0 _ZNK11__gnu_debug16_Error_formatter10_Parameter14_M_print_fieldEPKS0_PKc
PUBLIC 9ab50 0 _ZNK11__gnu_debug16_Error_formatter10_Parameter20_M_print_descriptionEPKS0_
PUBLIC 9ae98 0 _ZNK11__gnu_debug16_Error_formatter15_M_print_stringEPKc
PUBLIC 9b218 0 _ZNK11__gnu_debug16_Error_formatter8_M_errorEv
PUBLIC 9b3e4 0 _ZSt21__throw_bad_exceptionv
PUBLIC 9b42c 0 _ZSt17__throw_bad_allocv
PUBLIC 9b474 0 _ZSt16__throw_bad_castv
PUBLIC 9b4bc 0 _ZSt18__throw_bad_typeidv
PUBLIC 9b504 0 _ZSt19__throw_logic_errorPKc
PUBLIC 9b598 0 _ZSt20__throw_domain_errorPKc
PUBLIC 9b62c 0 _ZSt24__throw_invalid_argumentPKc
PUBLIC 9b6c0 0 _ZSt20__throw_length_errorPKc
PUBLIC 9b754 0 _ZSt20__throw_out_of_rangePKc
PUBLIC 9b7e8 0 _ZSt21__throw_runtime_errorPKc
PUBLIC 9b87c 0 _ZSt19__throw_range_errorPKc
PUBLIC 9b910 0 _ZSt22__throw_overflow_errorPKc
PUBLIC 9b9a4 0 _ZSt23__throw_underflow_errorPKc
PUBLIC 9ba38 0 _ZSt19__throw_ios_failurePKc
PUBLIC 9bab8 0 _ZSt20__throw_system_errori
PUBLIC 9bb78 0 _ZSt20__throw_future_errori
PUBLIC 9bc38 0 _ZSt25__throw_bad_function_callv
PUBLIC 9bc80 0 _ZSt19__throw_regex_errorNSt15regex_constants10error_typeE
PUBLIC 9bcd4 0 _ZNKSt17bad_function_call4whatEv
PUBLIC 9bce4 0 _ZNSt17bad_function_callD1Ev
PUBLIC 9bd18 0 _ZNSt17bad_function_callD0Ev
PUBLIC 9bd9c 0 _ZNSt12future_errorD2Ev
PUBLIC 9bdd0 0 _ZNSt12future_errorD0Ev
PUBLIC 9bdec 0 _ZNKSt12future_error4whatEv
PUBLIC 9bf88 0 _ZSt15future_categoryv
PUBLIC 9c01c 0 _ZNKSt4hashIeEclEe
PUBLIC 9c10c 0 _ZNKSt8__detail20_Prime_rehash_policy11_M_next_bktEj
PUBLIC 9c1f4 0 _ZNKSt8__detail20_Prime_rehash_policy14_M_need_rehashEjjj
PUBLIC 9c308 0 __once_proxy
PUBLIC 9c328 0 _ZNSt13random_device7_M_initERKSs
PUBLIC 9c3d0 0 _ZNSt13random_device7_M_finiEv
PUBLIC 9c3e0 0 _ZNSt13random_device9_M_getvalEv
PUBLIC 9c470 0 _ZNSt13random_device14_M_init_pretr1ERKSs
PUBLIC 9c634 0 _ZNSt13random_device16_M_getval_pretr1Ev
PUBLIC 9c638 0 _ZNSt11regex_errorD1Ev
PUBLIC 9c66c 0 _ZNSt11regex_errorD0Ev
PUBLIC 9c768 0 _ZNKSt12bad_weak_ptr4whatEv
PUBLIC 9c778 0 _ZNSt12bad_weak_ptrD2Ev
PUBLIC 9c7ac 0 _ZNSt12bad_weak_ptrD0Ev
PUBLIC 9c7e8 0 _ZNSt14error_categoryD2Ev
PUBLIC 9c80c 0 _ZNKSt14error_category23default_error_conditionEi
PUBLIC 9c818 0 _ZNKSt14error_category10equivalentEiRKSt15error_condition
PUBLIC 9c874 0 _ZNKSt14error_category10equivalentERKSt10error_codei
PUBLIC 9c8ec 0 _ZNSt14error_categoryD0Ev
PUBLIC 9c968 0 _ZNSt12system_errorD2Ev
PUBLIC 9c99c 0 _ZNSt12system_errorD0Ev
PUBLIC 9ca18 0 _ZNSt14error_categoryC1Ev
PUBLIC 9ca3c 0 _ZSt15system_categoryv
PUBLIC 9ca4c 0 _ZSt16generic_categoryv
PUBLIC 9ca5c 0 _ZNKSt10error_code23default_error_conditionEv
PUBLIC 9ca80 0 _ZNSt6thread4joinEv
PUBLIC 9cab4 0 _ZNSt6thread6detachEv
PUBLIC 9cae4 0 _ZNSt6thread20hardware_concurrencyEv
PUBLIC 9caf4 0 _ZNSt11this_thread11__sleep_forENSt6chrono8durationIxSt5ratioILx1ELx1EEEENS1_IxS2_ILx1ELx1000000000EEEE
PUBLIC 9cdbc 0 _ZNSt6thread15_M_start_threadESt10shared_ptrINS_10_Impl_baseEE
PUBLIC 9d0b8 0 _ZNSt13basic_filebufIcSt11char_traitsIcEE6setbufEPci
PUBLIC 9d104 0 _ZNSt13basic_filebufIwSt11char_traitsIwEE6setbufEPwi
PUBLIC 9d150 0 _ZNSt13basic_filebufIcSt11char_traitsIcEE9showmanycEv
PUBLIC 9d1e8 0 _ZNSt13basic_filebufIwSt11char_traitsIwEE9showmanycEv
PUBLIC 9d284 0 _ZNSt13basic_filebufIcSt11char_traitsIcEE4syncEv
PUBLIC 9d2c4 0 _ZNSt13basic_filebufIwSt11char_traitsIwEE4syncEv
PUBLIC 9d304 0 _ZNSt13basic_filebufIcSt11char_traitsIcEE9pbackfailEi
PUBLIC 9d460 0 _ZNSt13basic_filebufIwSt11char_traitsIwEE9pbackfailEj
PUBLIC 9d5c0 0 _ZNSt13basic_filebufIcSt11char_traitsIcEE6xsputnEPKci
PUBLIC 9d6f4 0 _ZNSt13basic_filebufIwSt11char_traitsIwEE6xsputnEPKwi
PUBLIC 9d830 0 _ZNSt13basic_filebufIcSt11char_traitsIcEE9underflowEv
PUBLIC 9dcd0 0 _ZNSt13basic_filebufIcSt11char_traitsIcEE6xsgetnEPci
PUBLIC 9df2c 0 _ZNSt13basic_filebufIwSt11char_traitsIwEE9underflowEv
PUBLIC 9e3dc 0 _ZNSt13basic_filebufIwSt11char_traitsIwEE6xsgetnEPwi
PUBLIC 9e634 0 _ZNSt13basic_filebufIcSt11char_traitsIcEE15_M_create_pbackEv
PUBLIC 9e678 0 _ZNSt13basic_filebufIcSt11char_traitsIcEE16_M_destroy_pbackEv
PUBLIC 9e6b8 0 _ZNSt13basic_filebufIcSt11char_traitsIcEEC2Ev
PUBLIC 9e7e4 0 _ZNKSt13basic_filebufIcSt11char_traitsIcEE7is_openEv
PUBLIC 9e7ec 0 _ZNSt13basic_filebufIcSt11char_traitsIcEE27_M_allocate_internal_bufferEv
PUBLIC 9e824 0 _ZNSt13basic_filebufIcSt11char_traitsIcEE26_M_destroy_internal_bufferEv
PUBLIC 9e8ec 0 _ZNSt13basic_filebufIcSt11char_traitsIcEE22_M_convert_to_externalEPci
PUBLIC 9ea5c 0 _ZNSt13basic_filebufIcSt11char_traitsIcEE14_M_get_ext_posER11__mbstate_t
PUBLIC 9ead8 0 _ZNSt13basic_filebufIcSt11char_traitsIcEE19_M_terminate_outputEv
PUBLIC 9ec14 0 _ZNSt13basic_filebufIcSt11char_traitsIcEE5closeEv
PUBLIC 9ed08 0 _ZNSt13basic_filebufIcSt11char_traitsIcEED2Ev
PUBLIC 9ed64 0 _ZNSt13basic_filebufIcSt11char_traitsIcEE4openEPKcSt13_Ios_Openmode
PUBLIC 9ee64 0 _ZNSt13basic_filebufIcSt11char_traitsIcEE4openERKSsSt13_Ios_Openmode
PUBLIC 9ee6c 0 _ZNSt13basic_filebufIcSt11char_traitsIcEED0Ev
PUBLIC 9eed0 0 _ZNSt14basic_ofstreamIcSt11char_traitsIcEED1Ev
PUBLIC 9ef74 0 _ZTv0_n12_NSt14basic_ofstreamIcSt11char_traitsIcEED1Ev
PUBLIC 9ef84 0 _ZNSt14basic_ifstreamIcSt11char_traitsIcEED1Ev
PUBLIC 9f02c 0 _ZTv0_n12_NSt14basic_ifstreamIcSt11char_traitsIcEED1Ev
PUBLIC 9f03c 0 _ZNSt14basic_ifstreamIcSt11char_traitsIcEED0Ev
PUBLIC 9f0ec 0 _ZTv0_n12_NSt14basic_ifstreamIcSt11char_traitsIcEED0Ev
PUBLIC 9f0fc 0 _ZNSt14basic_ofstreamIcSt11char_traitsIcEED0Ev
PUBLIC 9f1a8 0 _ZTv0_n12_NSt14basic_ofstreamIcSt11char_traitsIcEED0Ev
PUBLIC 9f1b8 0 _ZNSt13basic_fstreamIcSt11char_traitsIcEED1Ev
PUBLIC 9f280 0 _ZThn8_NSt13basic_fstreamIcSt11char_traitsIcEED1Ev
PUBLIC 9f288 0 _ZTv0_n12_NSt13basic_fstreamIcSt11char_traitsIcEED1Ev
PUBLIC 9f298 0 _ZNSt13basic_fstreamIcSt11char_traitsIcEED0Ev
PUBLIC 9f368 0 _ZThn8_NSt13basic_fstreamIcSt11char_traitsIcEED0Ev
PUBLIC 9f370 0 _ZTv0_n12_NSt13basic_fstreamIcSt11char_traitsIcEED0Ev
PUBLIC 9f380 0 _ZNSt13basic_filebufIcSt11char_traitsIcEE7_M_seekExSt12_Ios_Seekdir11__mbstate_t
PUBLIC 9f458 0 _ZNSt13basic_filebufIcSt11char_traitsIcEE8overflowEi
PUBLIC 9f688 0 _ZNSt13basic_filebufIcSt11char_traitsIcEE7seekoffExSt12_Ios_SeekdirSt13_Ios_Openmode
PUBLIC 9f8c8 0 _ZNSt13basic_filebufIcSt11char_traitsIcEE7seekposESt4fposI11__mbstate_tESt13_Ios_Openmode
PUBLIC 9f994 0 _ZNSt13basic_filebufIcSt11char_traitsIcEE5imbueERKSt6locale
PUBLIC 9fb94 0 _ZNSt13basic_filebufIcSt11char_traitsIcEE13_M_set_bufferEi
PUBLIC 9fc28 0 _ZNSt14basic_ifstreamIcSt11char_traitsIcEEC2Ev
PUBLIC 9fcc4 0 _ZNSt14basic_ifstreamIcSt11char_traitsIcEEC1Ev
PUBLIC 9fdb0 0 _ZNSt14basic_ifstreamIcSt11char_traitsIcEEC2EPKcSt13_Ios_Openmode
PUBLIC 9fe9c 0 _ZNSt14basic_ifstreamIcSt11char_traitsIcEEC1EPKcSt13_Ios_Openmode
PUBLIC 9ffdc 0 _ZNSt14basic_ifstreamIcSt11char_traitsIcEEC2ERKSsSt13_Ios_Openmode
PUBLIC a00c8 0 _ZNSt14basic_ifstreamIcSt11char_traitsIcEEC1ERKSsSt13_Ios_Openmode
PUBLIC a0208 0 _ZNSt14basic_ifstreamIcSt11char_traitsIcEED2Ev
PUBLIC a0294 0 _ZNKSt14basic_ifstreamIcSt11char_traitsIcEE5rdbufEv
PUBLIC a029c 0 _ZNSt14basic_ifstreamIcSt11char_traitsIcEE7is_openEv
PUBLIC a02a4 0 _ZNSt14basic_ifstreamIcSt11char_traitsIcEE4openEPKcSt13_Ios_Openmode
PUBLIC a02f0 0 _ZNSt14basic_ifstreamIcSt11char_traitsIcEE4openERKSsSt13_Ios_Openmode
PUBLIC a0340 0 _ZNSt14basic_ifstreamIcSt11char_traitsIcEE5closeEv
PUBLIC a0374 0 _ZNSt14basic_ofstreamIcSt11char_traitsIcEEC2Ev
PUBLIC a0400 0 _ZNSt14basic_ofstreamIcSt11char_traitsIcEEC1Ev
PUBLIC a04e4 0 _ZNSt14basic_ofstreamIcSt11char_traitsIcEEC2EPKcSt13_Ios_Openmode
PUBLIC a05c0 0 _ZNSt14basic_ofstreamIcSt11char_traitsIcEEC1EPKcSt13_Ios_Openmode
PUBLIC a06f8 0 _ZNSt14basic_ofstreamIcSt11char_traitsIcEEC2ERKSsSt13_Ios_Openmode
PUBLIC a07d4 0 _ZNSt14basic_ofstreamIcSt11char_traitsIcEEC1ERKSsSt13_Ios_Openmode
PUBLIC a090c 0 _ZNSt14basic_ofstreamIcSt11char_traitsIcEED2Ev
PUBLIC a0990 0 _ZNKSt14basic_ofstreamIcSt11char_traitsIcEE5rdbufEv
PUBLIC a0998 0 _ZNSt14basic_ofstreamIcSt11char_traitsIcEE7is_openEv
PUBLIC a09a0 0 _ZNSt14basic_ofstreamIcSt11char_traitsIcEE4openEPKcSt13_Ios_Openmode
PUBLIC a09ec 0 _ZNSt14basic_ofstreamIcSt11char_traitsIcEE4openERKSsSt13_Ios_Openmode
PUBLIC a0a3c 0 _ZNSt14basic_ofstreamIcSt11char_traitsIcEE5closeEv
PUBLIC a0a70 0 _ZNSt13basic_fstreamIcSt11char_traitsIcEEC2Ev
PUBLIC a0b68 0 _ZNSt13basic_fstreamIcSt11char_traitsIcEEC1Ev
PUBLIC a0ca0 0 _ZNSt13basic_fstreamIcSt11char_traitsIcEEC2EPKcSt13_Ios_Openmode
PUBLIC a0de8 0 _ZNSt13basic_fstreamIcSt11char_traitsIcEEC1EPKcSt13_Ios_Openmode
PUBLIC a0f74 0 _ZNSt13basic_fstreamIcSt11char_traitsIcEEC2ERKSsSt13_Ios_Openmode
PUBLIC a10bc 0 _ZNSt13basic_fstreamIcSt11char_traitsIcEEC1ERKSsSt13_Ios_Openmode
PUBLIC a1248 0 _ZNSt13basic_fstreamIcSt11char_traitsIcEED2Ev
PUBLIC a1310 0 _ZNKSt13basic_fstreamIcSt11char_traitsIcEE5rdbufEv
PUBLIC a1318 0 _ZNSt13basic_fstreamIcSt11char_traitsIcEE7is_openEv
PUBLIC a1320 0 _ZNSt13basic_fstreamIcSt11char_traitsIcEE4openEPKcSt13_Ios_Openmode
PUBLIC a1368 0 _ZNSt13basic_fstreamIcSt11char_traitsIcEE4openERKSsSt13_Ios_Openmode
PUBLIC a13b4 0 _ZNSt13basic_fstreamIcSt11char_traitsIcEE5closeEv
PUBLIC a13e8 0 _ZNSt13basic_filebufIwSt11char_traitsIwEE15_M_create_pbackEv
PUBLIC a142c 0 _ZNSt13basic_filebufIwSt11char_traitsIwEE16_M_destroy_pbackEv
PUBLIC a146c 0 _ZNSt13basic_filebufIwSt11char_traitsIwEEC1Ev
PUBLIC a1598 0 _ZNKSt13basic_filebufIwSt11char_traitsIwEE7is_openEv
PUBLIC a15a0 0 _ZNSt13basic_filebufIwSt11char_traitsIwEE27_M_allocate_internal_bufferEv
PUBLIC a15e4 0 _ZNSt13basic_filebufIwSt11char_traitsIwEE26_M_destroy_internal_bufferEv
PUBLIC a16ac 0 _ZNSt13basic_filebufIwSt11char_traitsIwEE22_M_convert_to_externalEPwi
PUBLIC a1828 0 _ZNSt13basic_filebufIwSt11char_traitsIwEE14_M_get_ext_posER11__mbstate_t
PUBLIC a18ac 0 _ZNSt13basic_filebufIwSt11char_traitsIwEE19_M_terminate_outputEv
PUBLIC a19e8 0 _ZNSt13basic_filebufIwSt11char_traitsIwEE5closeEv
PUBLIC a1adc 0 _ZNSt13basic_filebufIwSt11char_traitsIwEED2Ev
PUBLIC a1b38 0 _ZNSt13basic_filebufIwSt11char_traitsIwEE4openEPKcSt13_Ios_Openmode
PUBLIC a1c38 0 _ZNSt13basic_filebufIwSt11char_traitsIwEE4openERKSsSt13_Ios_Openmode
PUBLIC a1c40 0 _ZNSt13basic_filebufIwSt11char_traitsIwEED0Ev
PUBLIC a1ca4 0 _ZNSt14basic_ofstreamIwSt11char_traitsIwEED1Ev
PUBLIC a1d48 0 _ZTv0_n12_NSt14basic_ofstreamIwSt11char_traitsIwEED1Ev
PUBLIC a1d58 0 _ZNSt14basic_ifstreamIwSt11char_traitsIwEED1Ev
PUBLIC a1e00 0 _ZTv0_n12_NSt14basic_ifstreamIwSt11char_traitsIwEED1Ev
PUBLIC a1e10 0 _ZNSt14basic_ifstreamIwSt11char_traitsIwEED0Ev
PUBLIC a1ec0 0 _ZTv0_n12_NSt14basic_ifstreamIwSt11char_traitsIwEED0Ev
PUBLIC a1ed0 0 _ZNSt14basic_ofstreamIwSt11char_traitsIwEED0Ev
PUBLIC a1f7c 0 _ZTv0_n12_NSt14basic_ofstreamIwSt11char_traitsIwEED0Ev
PUBLIC a1f8c 0 _ZNSt13basic_fstreamIwSt11char_traitsIwEED1Ev
PUBLIC a2054 0 _ZThn8_NSt13basic_fstreamIwSt11char_traitsIwEED1Ev
PUBLIC a205c 0 _ZTv0_n12_NSt13basic_fstreamIwSt11char_traitsIwEED1Ev
PUBLIC a206c 0 _ZNSt13basic_fstreamIwSt11char_traitsIwEED0Ev
PUBLIC a213c 0 _ZThn8_NSt13basic_fstreamIwSt11char_traitsIwEED0Ev
PUBLIC a2144 0 _ZTv0_n12_NSt13basic_fstreamIwSt11char_traitsIwEED0Ev
PUBLIC a2154 0 _ZNSt13basic_filebufIwSt11char_traitsIwEE7_M_seekExSt12_Ios_Seekdir11__mbstate_t
PUBLIC a222c 0 _ZNSt13basic_filebufIwSt11char_traitsIwEE8overflowEj
PUBLIC a2434 0 _ZNSt13basic_filebufIwSt11char_traitsIwEE7seekoffExSt12_Ios_SeekdirSt13_Ios_Openmode
PUBLIC a2678 0 _ZNSt13basic_filebufIwSt11char_traitsIwEE7seekposESt4fposI11__mbstate_tESt13_Ios_Openmode
PUBLIC a2744 0 _ZNSt13basic_filebufIwSt11char_traitsIwEE5imbueERKSt6locale
PUBLIC a294c 0 _ZNSt13basic_filebufIwSt11char_traitsIwEE13_M_set_bufferEi
PUBLIC a29e0 0 _ZNSt14basic_ifstreamIwSt11char_traitsIwEEC2Ev
PUBLIC a2a7c 0 _ZNSt14basic_ifstreamIwSt11char_traitsIwEEC1Ev
PUBLIC a2b68 0 _ZNSt14basic_ifstreamIwSt11char_traitsIwEEC2EPKcSt13_Ios_Openmode
PUBLIC a2c54 0 _ZNSt14basic_ifstreamIwSt11char_traitsIwEEC1EPKcSt13_Ios_Openmode
PUBLIC a2d94 0 _ZNSt14basic_ifstreamIwSt11char_traitsIwEEC2ERKSsSt13_Ios_Openmode
PUBLIC a2e80 0 _ZNSt14basic_ifstreamIwSt11char_traitsIwEEC1ERKSsSt13_Ios_Openmode
PUBLIC a2fc0 0 _ZNSt14basic_ifstreamIwSt11char_traitsIwEED2Ev
PUBLIC a304c 0 _ZNKSt14basic_ifstreamIwSt11char_traitsIwEE5rdbufEv
PUBLIC a3054 0 _ZNSt14basic_ifstreamIwSt11char_traitsIwEE7is_openEv
PUBLIC a305c 0 _ZNSt14basic_ifstreamIwSt11char_traitsIwEE4openEPKcSt13_Ios_Openmode
PUBLIC a30a8 0 _ZNSt14basic_ifstreamIwSt11char_traitsIwEE4openERKSsSt13_Ios_Openmode
PUBLIC a30f8 0 _ZNSt14basic_ifstreamIwSt11char_traitsIwEE5closeEv
PUBLIC a312c 0 _ZNSt14basic_ofstreamIwSt11char_traitsIwEEC2Ev
PUBLIC a31b8 0 _ZNSt14basic_ofstreamIwSt11char_traitsIwEEC1Ev
PUBLIC a329c 0 _ZNSt14basic_ofstreamIwSt11char_traitsIwEEC2EPKcSt13_Ios_Openmode
PUBLIC a3378 0 _ZNSt14basic_ofstreamIwSt11char_traitsIwEEC1EPKcSt13_Ios_Openmode
PUBLIC a34b0 0 _ZNSt14basic_ofstreamIwSt11char_traitsIwEEC2ERKSsSt13_Ios_Openmode
PUBLIC a358c 0 _ZNSt14basic_ofstreamIwSt11char_traitsIwEEC1ERKSsSt13_Ios_Openmode
PUBLIC a36c4 0 _ZNSt14basic_ofstreamIwSt11char_traitsIwEED2Ev
PUBLIC a3748 0 _ZNKSt14basic_ofstreamIwSt11char_traitsIwEE5rdbufEv
PUBLIC a3750 0 _ZNSt14basic_ofstreamIwSt11char_traitsIwEE7is_openEv
PUBLIC a3758 0 _ZNSt14basic_ofstreamIwSt11char_traitsIwEE4openEPKcSt13_Ios_Openmode
PUBLIC a37a4 0 _ZNSt14basic_ofstreamIwSt11char_traitsIwEE4openERKSsSt13_Ios_Openmode
PUBLIC a37f4 0 _ZNSt14basic_ofstreamIwSt11char_traitsIwEE5closeEv
PUBLIC a3828 0 _ZNSt13basic_fstreamIwSt11char_traitsIwEEC2Ev
PUBLIC a3920 0 _ZNSt13basic_fstreamIwSt11char_traitsIwEEC1Ev
PUBLIC a3a58 0 _ZNSt13basic_fstreamIwSt11char_traitsIwEEC2EPKcSt13_Ios_Openmode
PUBLIC a3ba0 0 _ZNSt13basic_fstreamIwSt11char_traitsIwEEC1EPKcSt13_Ios_Openmode
PUBLIC a3d2c 0 _ZNSt13basic_fstreamIwSt11char_traitsIwEEC2ERKSsSt13_Ios_Openmode
PUBLIC a3e74 0 _ZNSt13basic_fstreamIwSt11char_traitsIwEEC1ERKSsSt13_Ios_Openmode
PUBLIC a4000 0 _ZNSt13basic_fstreamIwSt11char_traitsIwEED2Ev
PUBLIC a40c8 0 _ZNKSt13basic_fstreamIwSt11char_traitsIwEE5rdbufEv
PUBLIC a40d0 0 _ZNSt13basic_fstreamIwSt11char_traitsIwEE7is_openEv
PUBLIC a40d8 0 _ZNSt13basic_fstreamIwSt11char_traitsIwEE4openEPKcSt13_Ios_Openmode
PUBLIC a4120 0 _ZNSt13basic_fstreamIwSt11char_traitsIwEE4openERKSsSt13_Ios_Openmode
PUBLIC a416c 0 _ZNSt13basic_fstreamIwSt11char_traitsIwEE5closeEv
PUBLIC a41a0 0 _ZNKSs5c_strEv
PUBLIC a41a8 0 _ZNSsC2EOSs
PUBLIC a41d4 0 _ZNKSs4dataEv
PUBLIC a41dc 0 _ZNKSs6lengthEv
PUBLIC a41e8 0 _ZNKSs7_M_dataEv
PUBLIC a41f0 0 _ZNSs7_M_dataEPc
PUBLIC a41fc 0 _ZNKSs6_M_repEv
PUBLIC a4208 0 _ZNKSs9_M_ibeginEv
PUBLIC a4210 0 _ZNKSs7_M_iendEv
PUBLIC a4220 0 _ZNKSs8_M_checkEjPKc
PUBLIC a4244 0 _ZNKSs8_M_limitEjj
PUBLIC a425c 0 _ZNSs13_S_copy_charsEPcN9__gnu_cxx17__normal_iteratorIS_SsEES2_
PUBLIC a4278 0 _ZNSs13_S_copy_charsEPcN9__gnu_cxx17__normal_iteratorIPKcSsEES4_
PUBLIC a4294 0 _ZNSs13_S_copy_charsEPcS_S_
PUBLIC a42b0 0 _ZNSs13_S_copy_charsEPcPKcS1_
PUBLIC a42cc 0 _ZNSs10_S_compareEjj
PUBLIC a42d4 0 _ZNSs12_S_empty_repEv
PUBLIC a42f0 0 _ZNSsC2Ev
PUBLIC a4314 0 _ZNKSs5beginEv
PUBLIC a431c 0 _ZNKSs3endEv
PUBLIC a432c 0 _ZNKSs6rbeginEv
PUBLIC a4340 0 _ZNKSs4rendEv
PUBLIC a434c 0 _ZNKSs6cbeginEv
PUBLIC a4354 0 _ZNKSs4cendEv
PUBLIC a4364 0 _ZNKSs7crbeginEv
PUBLIC a4378 0 _ZNKSs5crendEv
PUBLIC a4384 0 _ZNKSs4sizeEv
PUBLIC a4390 0 _ZNKSs8max_sizeEv
PUBLIC a4398 0 _ZNKSs8capacityEv
PUBLIC a43a4 0 _ZNKSs5emptyEv
PUBLIC a43b8 0 _ZNKSsixEj
PUBLIC a43c4 0 _ZNKSs2atEj
PUBLIC a43f0 0 _ZNKSs5frontEv
PUBLIC a43f8 0 _ZNKSs4backEv
PUBLIC a440c 0 _ZNKSs4copyEPcjj
PUBLIC a4478 0 _ZNSs4swapERSs
PUBLIC a44ac 0 _ZNSsaSEOSs
PUBLIC a44c0 0 _ZNSs6assignEOSs
PUBLIC a44d4 0 _ZNKSs13get_allocatorEv
PUBLIC a44d8 0 _ZNKSs4findEPKcjj
PUBLIC a4574 0 _ZNKSs4findERKSsj
PUBLIC a4580 0 _ZNKSs4findEPKcj
PUBLIC a45b0 0 _ZNKSs4findEcj
PUBLIC a45ec 0 _ZNKSs5rfindEPKcjj
PUBLIC a4650 0 _ZNKSs5rfindERKSsj
PUBLIC a465c 0 _ZNKSs5rfindEPKcj
PUBLIC a468c 0 _ZNKSs5rfindEcj
PUBLIC a46d0 0 _ZNKSs13find_first_ofEPKcjj
PUBLIC a4728 0 _ZNKSs13find_first_ofERKSsj
PUBLIC a4734 0 _ZNKSs13find_first_ofEPKcj
PUBLIC a4764 0 _ZNKSs13find_first_ofEcj
PUBLIC a4768 0 _ZNKSs12find_last_ofEPKcjj
PUBLIC a47d0 0 _ZNKSs12find_last_ofERKSsj
PUBLIC a47dc 0 _ZNKSs12find_last_ofEPKcj
PUBLIC a480c 0 _ZNKSs12find_last_ofEcj
PUBLIC a4810 0 _ZNKSs17find_first_not_ofEPKcjj
PUBLIC a4868 0 _ZNKSs17find_first_not_ofERKSsj
PUBLIC a4874 0 _ZNKSs17find_first_not_ofEPKcj
PUBLIC a48a4 0 _ZNKSs17find_first_not_ofEcj
PUBLIC a48f0 0 _ZNKSs16find_last_not_ofEPKcjj
PUBLIC a4954 0 _ZNKSs16find_last_not_ofERKSsj
PUBLIC a4960 0 _ZNKSs16find_last_not_ofEPKcj
PUBLIC a4990 0 _ZNKSs16find_last_not_ofEcj
PUBLIC a49d4 0 _ZNKSs7compareERKSs
PUBLIC a4a04 0 _ZNKSs7compareEjjRKSs
PUBLIC a4a64 0 _ZNKSs7compareEjjRKSsjj
PUBLIC a4ae0 0 _ZNKSs7compareEPKc
PUBLIC a4b20 0 _ZNKSs7compareEjjPKc
PUBLIC a4b8c 0 _ZNKSs7compareEjjPKcj
PUBLIC a4be8 0 _ZNSs12_Alloc_hiderC1EPcRKSaIcE
PUBLIC a4bf0 0 _ZNSs4_Rep12_S_empty_repEv
PUBLIC a4c0c 0 _ZNKSs4_Rep12_M_is_leakedEv
PUBLIC a4c18 0 _ZNKSs4_Rep12_M_is_sharedEv
PUBLIC a4c2c 0 _ZNSs4_Rep13_M_set_leakedEv
PUBLIC a4c38 0 _ZNSs4_Rep15_M_set_sharableEv
PUBLIC a4c44 0 _ZNSs4_Rep10_M_refdataEv
PUBLIC a4c4c 0 _ZNSs4_Rep9_S_createEjjRKSaIcE
PUBLIC a4cd0 0 _ZNSs12_S_constructEjcRKSaIcE
PUBLIC a4d5c 0 _ZNSsC1ERKSaIcE
PUBLIC a4d80 0 _ZNSsC1EjcRKSaIcE
PUBLIC a4da4 0 _ZNSs18_S_construct_aux_2EjcRKSaIcE
PUBLIC a4da8 0 _ZNSs4_Rep10_M_destroyERKSaIcE
PUBLIC a4dac 0 _ZNSs4_Rep10_M_disposeERKSaIcE
PUBLIC a4dd0 0 _ZNSsD1Ev
PUBLIC a4e1c 0 _ZNSs9_M_mutateEjjj
PUBLIC a4fb0 0 _ZNSs12_M_leak_hardEv
PUBLIC a500c 0 _ZNSs7_M_leakEv
PUBLIC a5020 0 _ZNSs5beginEv
PUBLIC a5048 0 _ZNSs4rendEv
PUBLIC a507c 0 _ZNSs3endEv
PUBLIC a50a8 0 _ZNSsixEj
PUBLIC a50d4 0 _ZNSs5frontEv
PUBLIC a50fc 0 _ZNSs4backEv
PUBLIC a512c 0 _ZNSs2atEj
PUBLIC a5174 0 _ZNSs6rbeginEv
PUBLIC a51b0 0 _ZNSs5clearEv
PUBLIC a51c4 0 _ZNSs5eraseEjj
PUBLIC a5208 0 _ZNSs5eraseEN9__gnu_cxx17__normal_iteratorIPcSsEE
PUBLIC a523c 0 _ZNSs5eraseEN9__gnu_cxx17__normal_iteratorIPcSsEES2_
PUBLIC a527c 0 _ZNSs14_M_replace_auxEjjjc
PUBLIC a52f0 0 _ZNSs6assignEjc
PUBLIC a531c 0 _ZNSsaSEc
PUBLIC a534c 0 _ZNSs6insertEjjc
PUBLIC a538c 0 _ZNSs6insertEN9__gnu_cxx17__normal_iteratorIPcSsEEc
PUBLIC a53cc 0 _ZNSs7replaceEjjjc
PUBLIC a540c 0 _ZNSs7replaceEN9__gnu_cxx17__normal_iteratorIPcSsEES2_jc
PUBLIC a542c 0 _ZNSs6insertEN9__gnu_cxx17__normal_iteratorIPcSsEEjc
PUBLIC a5458 0 _ZNSs15_M_replace_safeEjjPKcj
PUBLIC a54b0 0 _ZNSs6assignEPKcj
PUBLIC a55b0 0 _ZNSsaSESt16initializer_listIcE
PUBLIC a55d8 0 _ZNSs6assignERKSsjj
PUBLIC a5618 0 _ZNSs6assignEPKc
PUBLIC a5640 0 _ZNSs6assignESt16initializer_listIcE
PUBLIC a5658 0 _ZNSsaSEPKc
PUBLIC a5680 0 _ZNSs6insertEjPKcj
PUBLIC a5800 0 _ZNSs6insertEN9__gnu_cxx17__normal_iteratorIPcSsEESt16initializer_listIcE
PUBLIC a5828 0 _ZNSs6insertEjRKSsjj
PUBLIC a586c 0 _ZNSs6insertEjPKc
PUBLIC a589c 0 _ZNSs6insertEjRKSs
PUBLIC a58a8 0 _ZNSs8pop_backEv
PUBLIC a58e0 0 _ZNSs4_Rep10_M_refcopyEv
PUBLIC a5944 0 _ZNSs4_Rep8_M_cloneERKSaIcEj
PUBLIC a59d8 0 _ZNSs7reserveEj
PUBLIC a5a68 0 _ZNSs13shrink_to_fitEv
PUBLIC a5a98 0 _ZNSs6appendERKSs
PUBLIC a5b50 0 _ZNSspLERKSs
PUBLIC a5b54 0 _ZNSs6appendERKSsjj
PUBLIC a5c38 0 _ZNSs6appendEPKcj
PUBLIC a5d44 0 _ZNSspLESt16initializer_listIcE
PUBLIC a5d5c 0 _ZNSs6appendEPKc
PUBLIC a5d84 0 _ZNSs6appendESt16initializer_listIcE
PUBLIC a5d9c 0 _ZNSspLEPKc
PUBLIC a5dc4 0 _ZNSs6appendEjc
PUBLIC a5e8c 0 _ZNSs6resizeEjc
PUBLIC a5ed8 0 _ZNSs6resizeEj
PUBLIC a5ee0 0 _ZNSs9push_backEc
PUBLIC a5f60 0 _ZNSspLEc
PUBLIC a5fe4 0 _ZNSs4_Rep7_M_grabERKSaIcES2_
PUBLIC a605c 0 _ZNSsC2ERKSs
PUBLIC a60fc 0 _ZNSs6assignERKSs
PUBLIC a61d0 0 _ZNSsaSERKSs
PUBLIC a61d4 0 _ZStplIcSt11char_traitsIcESaIcEESbIT_T0_T1_EPKS3_RKS6_
PUBLIC a6270 0 _ZStplIcSt11char_traitsIcESaIcEESbIT_T0_T1_ES3_RKS6_
PUBLIC a62f8 0 _ZStplIcSt11char_traitsIcESaIcEESbIT_T0_T1_ERKS6_S8_
PUBLIC a6358 0 _ZNSs12_S_constructIN9__gnu_cxx17__normal_iteratorIPcSsEEEES2_T_S4_RKSaIcESt20forward_iterator_tag
PUBLIC a63f0 0 _ZNSsC1IN9__gnu_cxx17__normal_iteratorIPcSsEEEET_S4_RKSaIcE
PUBLIC a6418 0 _ZNSs12_S_constructIPcEES0_T_S1_RKSaIcESt20forward_iterator_tag
PUBLIC a64e4 0 _ZNSsC2ERKSsjj
PUBLIC a6544 0 _ZNKSs6substrEjj
PUBLIC a6578 0 _ZNSsC1ERKSsjjRKSaIcE
PUBLIC a65d0 0 _ZNSsC2IPcEET_S1_RKSaIcE
PUBLIC a65f8 0 _ZNSs12_S_constructIPKcEEPcT_S3_RKSaIcESt20forward_iterator_tag
PUBLIC a66c4 0 _ZNSsC1EPKcjRKSaIcE
PUBLIC a66ec 0 _ZNSs7replaceEjjPKcj
PUBLIC a68a4 0 _ZNSs7replaceEjjRKSs
PUBLIC a68c4 0 _ZNSs7replaceEjjRKSsjj
PUBLIC a690c 0 _ZNSs7replaceEjjPKc
PUBLIC a694c 0 _ZNSs7replaceEN9__gnu_cxx17__normal_iteratorIPcSsEES2_PKcj
PUBLIC a695c 0 _ZNSs7replaceEN9__gnu_cxx17__normal_iteratorIPcSsEES2_RKSs
PUBLIC a6988 0 _ZNSs7replaceEN9__gnu_cxx17__normal_iteratorIPcSsEES2_PKc
PUBLIC a69cc 0 _ZNSs7replaceEN9__gnu_cxx17__normal_iteratorIPcSsEES2_S1_S1_
PUBLIC a69f0 0 _ZNSs7replaceEN9__gnu_cxx17__normal_iteratorIPcSsEES2_PKcS4_
PUBLIC a6a14 0 _ZNSs7replaceEN9__gnu_cxx17__normal_iteratorIPcSsEES2_St16initializer_listIcE
PUBLIC a6a30 0 _ZNSs7replaceEN9__gnu_cxx17__normal_iteratorIPcSsEES2_S2_S2_
PUBLIC a6a54 0 _ZNSs7replaceEN9__gnu_cxx17__normal_iteratorIPcSsEES2_NS0_IPKcSsEES5_
PUBLIC a6a78 0 _ZNSsC1EPKcRKSaIcE
PUBLIC a6ab8 0 _ZNSsC2ESt16initializer_listIcERKSaIcE
PUBLIC a6af8 0 _ZNSsC1IPKcEET_S2_RKSaIcE
PUBLIC a6b20 0 _ZNKSbIwSt11char_traitsIwESaIwEE5c_strEv
PUBLIC a6b28 0 _ZNSbIwSt11char_traitsIwESaIwEEC1EOS2_
PUBLIC a6b54 0 _ZNKSbIwSt11char_traitsIwESaIwEE4dataEv
PUBLIC a6b5c 0 _ZNKSbIwSt11char_traitsIwESaIwEE6lengthEv
PUBLIC a6b68 0 _ZNKSbIwSt11char_traitsIwESaIwEE7_M_dataEv
PUBLIC a6b70 0 _ZNSbIwSt11char_traitsIwESaIwEE7_M_dataEPw
PUBLIC a6b7c 0 _ZNKSbIwSt11char_traitsIwESaIwEE6_M_repEv
PUBLIC a6b88 0 _ZNKSbIwSt11char_traitsIwESaIwEE9_M_ibeginEv
PUBLIC a6b90 0 _ZNKSbIwSt11char_traitsIwESaIwEE7_M_iendEv
PUBLIC a6ba0 0 _ZNKSbIwSt11char_traitsIwESaIwEE8_M_checkEjPKc
PUBLIC a6bc4 0 _ZNKSbIwSt11char_traitsIwESaIwEE8_M_limitEjj
PUBLIC a6bdc 0 _ZNSbIwSt11char_traitsIwESaIwEE13_S_copy_charsEPwN9__gnu_cxx17__normal_iteratorIS3_S2_EES6_
PUBLIC a6bfc 0 _ZNSbIwSt11char_traitsIwESaIwEE13_S_copy_charsEPwN9__gnu_cxx17__normal_iteratorIPKwS2_EES8_
PUBLIC a6c1c 0 _ZNSbIwSt11char_traitsIwESaIwEE13_S_copy_charsEPwS3_S3_
PUBLIC a6c3c 0 _ZNSbIwSt11char_traitsIwESaIwEE13_S_copy_charsEPwPKwS5_
PUBLIC a6c5c 0 _ZNSbIwSt11char_traitsIwESaIwEE10_S_compareEjj
PUBLIC a6c64 0 _ZNSbIwSt11char_traitsIwESaIwEE12_S_empty_repEv
PUBLIC a6c80 0 _ZNSbIwSt11char_traitsIwESaIwEEC1Ev
PUBLIC a6ca4 0 _ZNKSbIwSt11char_traitsIwESaIwEE5beginEv
PUBLIC a6cac 0 _ZNKSbIwSt11char_traitsIwESaIwEE3endEv
PUBLIC a6cbc 0 _ZNKSbIwSt11char_traitsIwESaIwEE6rbeginEv
PUBLIC a6cd0 0 _ZNKSbIwSt11char_traitsIwESaIwEE4rendEv
PUBLIC a6cdc 0 _ZNKSbIwSt11char_traitsIwESaIwEE6cbeginEv
PUBLIC a6ce4 0 _ZNKSbIwSt11char_traitsIwESaIwEE4cendEv
PUBLIC a6cf4 0 _ZNKSbIwSt11char_traitsIwESaIwEE7crbeginEv
PUBLIC a6d08 0 _ZNKSbIwSt11char_traitsIwESaIwEE5crendEv
PUBLIC a6d14 0 _ZNKSbIwSt11char_traitsIwESaIwEE4sizeEv
PUBLIC a6d20 0 _ZNKSbIwSt11char_traitsIwESaIwEE8max_sizeEv
PUBLIC a6d28 0 _ZNKSbIwSt11char_traitsIwESaIwEE8capacityEv
PUBLIC a6d34 0 _ZNKSbIwSt11char_traitsIwESaIwEE5emptyEv
PUBLIC a6d48 0 _ZNKSbIwSt11char_traitsIwESaIwEEixEj
PUBLIC a6d54 0 _ZNKSbIwSt11char_traitsIwESaIwEE2atEj
PUBLIC a6d80 0 _ZNKSbIwSt11char_traitsIwESaIwEE5frontEv
PUBLIC a6d88 0 _ZNKSbIwSt11char_traitsIwESaIwEE4backEv
PUBLIC a6d9c 0 _ZNKSbIwSt11char_traitsIwESaIwEE4copyEPwjj
PUBLIC a6e08 0 _ZNSbIwSt11char_traitsIwESaIwEE4swapERS2_
PUBLIC a6e3c 0 _ZNSbIwSt11char_traitsIwESaIwEEaSEOS2_
PUBLIC a6e50 0 _ZNSbIwSt11char_traitsIwESaIwEE6assignEOS2_
PUBLIC a6e64 0 _ZNKSbIwSt11char_traitsIwESaIwEE13get_allocatorEv
PUBLIC a6e68 0 _ZNKSbIwSt11char_traitsIwESaIwEE4findEPKwjj
PUBLIC a6f04 0 _ZNKSbIwSt11char_traitsIwESaIwEE4findERKS2_j
PUBLIC a6f10 0 _ZNKSbIwSt11char_traitsIwESaIwEE4findEPKwj
PUBLIC a6f40 0 _ZNKSbIwSt11char_traitsIwESaIwEE4findEwj
PUBLIC a6f80 0 _ZNKSbIwSt11char_traitsIwESaIwEE5rfindEPKwjj
PUBLIC a6fec 0 _ZNKSbIwSt11char_traitsIwESaIwEE5rfindERKS2_j
PUBLIC a6ff8 0 _ZNKSbIwSt11char_traitsIwESaIwEE5rfindEPKwj
PUBLIC a7028 0 _ZNKSbIwSt11char_traitsIwESaIwEE5rfindEwj
PUBLIC a7078 0 _ZNKSbIwSt11char_traitsIwESaIwEE13find_first_ofEPKwjj
PUBLIC a70d8 0 _ZNKSbIwSt11char_traitsIwESaIwEE13find_first_ofERKS2_j
PUBLIC a70e4 0 _ZNKSbIwSt11char_traitsIwESaIwEE13find_first_ofEPKwj
PUBLIC a7114 0 _ZNKSbIwSt11char_traitsIwESaIwEE13find_first_ofEwj
PUBLIC a7118 0 _ZNKSbIwSt11char_traitsIwESaIwEE12find_last_ofEPKwjj
PUBLIC a7188 0 _ZNKSbIwSt11char_traitsIwESaIwEE12find_last_ofERKS2_j
PUBLIC a7194 0 _ZNKSbIwSt11char_traitsIwESaIwEE12find_last_ofEPKwj
PUBLIC a71c4 0 _ZNKSbIwSt11char_traitsIwESaIwEE12find_last_ofEwj
PUBLIC a71c8 0 _ZNKSbIwSt11char_traitsIwESaIwEE17find_first_not_ofEPKwjj
PUBLIC a7228 0 _ZNKSbIwSt11char_traitsIwESaIwEE17find_first_not_ofERKS2_j
PUBLIC a7234 0 _ZNKSbIwSt11char_traitsIwESaIwEE17find_first_not_ofEPKwj
PUBLIC a7264 0 _ZNKSbIwSt11char_traitsIwESaIwEE17find_first_not_ofEwj
PUBLIC a72b0 0 _ZNKSbIwSt11char_traitsIwESaIwEE16find_last_not_ofEPKwjj
PUBLIC a731c 0 _ZNKSbIwSt11char_traitsIwESaIwEE16find_last_not_ofERKS2_j
PUBLIC a7328 0 _ZNKSbIwSt11char_traitsIwESaIwEE16find_last_not_ofEPKwj
PUBLIC a7358 0 _ZNKSbIwSt11char_traitsIwESaIwEE16find_last_not_ofEwj
PUBLIC a73a4 0 _ZNKSbIwSt11char_traitsIwESaIwEE7compareERKS2_
PUBLIC a73d4 0 _ZNKSbIwSt11char_traitsIwESaIwEE7compareEjjRKS2_
PUBLIC a7434 0 _ZNKSbIwSt11char_traitsIwESaIwEE7compareEjjRKS2_jj
PUBLIC a74b0 0 _ZNKSbIwSt11char_traitsIwESaIwEE7compareEPKw
PUBLIC a74f0 0 _ZNKSbIwSt11char_traitsIwESaIwEE7compareEjjPKw
PUBLIC a755c 0 _ZNKSbIwSt11char_traitsIwESaIwEE7compareEjjPKwj
PUBLIC a75b8 0 _ZNSbIwSt11char_traitsIwESaIwEE12_Alloc_hiderC2EPwRKS1_
PUBLIC a75c0 0 _ZNSbIwSt11char_traitsIwESaIwEE4_Rep12_S_empty_repEv
PUBLIC a75dc 0 _ZNKSbIwSt11char_traitsIwESaIwEE4_Rep12_M_is_leakedEv
PUBLIC a75e8 0 _ZNKSbIwSt11char_traitsIwESaIwEE4_Rep12_M_is_sharedEv
PUBLIC a75fc 0 _ZNSbIwSt11char_traitsIwESaIwEE4_Rep13_M_set_leakedEv
PUBLIC a7608 0 _ZNSbIwSt11char_traitsIwESaIwEE4_Rep15_M_set_sharableEv
PUBLIC a7614 0 _ZNSbIwSt11char_traitsIwESaIwEE4_Rep10_M_refdataEv
PUBLIC a761c 0 _ZNSbIwSt11char_traitsIwESaIwEE4_Rep9_S_createEjjRKS1_
PUBLIC a76b0 0 _ZNSbIwSt11char_traitsIwESaIwEE12_S_constructEjwRKS1_
PUBLIC a7734 0 _ZNSbIwSt11char_traitsIwESaIwEEC1ERKS1_
PUBLIC a7758 0 _ZNSbIwSt11char_traitsIwESaIwEEC1EjwRKS1_
PUBLIC a777c 0 _ZNSbIwSt11char_traitsIwESaIwEE18_S_construct_aux_2EjwRKS1_
PUBLIC a7780 0 _ZNSbIwSt11char_traitsIwESaIwEE4_Rep10_M_destroyERKS1_
PUBLIC a7784 0 _ZNSbIwSt11char_traitsIwESaIwEE4_Rep10_M_disposeERKS1_
PUBLIC a77a8 0 _ZNSbIwSt11char_traitsIwESaIwEED2Ev
PUBLIC a77f4 0 _ZNSbIwSt11char_traitsIwESaIwEE9_M_mutateEjjj
PUBLIC a7994 0 _ZNSbIwSt11char_traitsIwESaIwEE12_M_leak_hardEv
PUBLIC a79f0 0 _ZNSbIwSt11char_traitsIwESaIwEE7_M_leakEv
PUBLIC a7a04 0 _ZNSbIwSt11char_traitsIwESaIwEE5beginEv
PUBLIC a7a2c 0 _ZNSbIwSt11char_traitsIwESaIwEE4rendEv
PUBLIC a7a60 0 _ZNSbIwSt11char_traitsIwESaIwEE3endEv
PUBLIC a7a8c 0 _ZNSbIwSt11char_traitsIwESaIwEEixEj
PUBLIC a7ab8 0 _ZNSbIwSt11char_traitsIwESaIwEE5frontEv
PUBLIC a7ae0 0 _ZNSbIwSt11char_traitsIwESaIwEE4backEv
PUBLIC a7b10 0 _ZNSbIwSt11char_traitsIwESaIwEE2atEj
PUBLIC a7b58 0 _ZNSbIwSt11char_traitsIwESaIwEE6rbeginEv
PUBLIC a7b94 0 _ZNSbIwSt11char_traitsIwESaIwEE5clearEv
PUBLIC a7ba8 0 _ZNSbIwSt11char_traitsIwESaIwEE5eraseEjj
PUBLIC a7bec 0 _ZNSbIwSt11char_traitsIwESaIwEE5eraseEN9__gnu_cxx17__normal_iteratorIPwS2_EE
PUBLIC a7c24 0 _ZNSbIwSt11char_traitsIwESaIwEE5eraseEN9__gnu_cxx17__normal_iteratorIPwS2_EES6_
PUBLIC a7c6c 0 _ZNSbIwSt11char_traitsIwESaIwEE14_M_replace_auxEjjjw
PUBLIC a7ce8 0 _ZNSbIwSt11char_traitsIwESaIwEE6assignEjw
PUBLIC a7d14 0 _ZNSbIwSt11char_traitsIwESaIwEEaSEw
PUBLIC a7d44 0 _ZNSbIwSt11char_traitsIwESaIwEE6insertEjjw
PUBLIC a7d84 0 _ZNSbIwSt11char_traitsIwESaIwEE6insertEN9__gnu_cxx17__normal_iteratorIPwS2_EEw
PUBLIC a7dc8 0 _ZNSbIwSt11char_traitsIwESaIwEE7replaceEjjjw
PUBLIC a7e08 0 _ZNSbIwSt11char_traitsIwESaIwEE7replaceEN9__gnu_cxx17__normal_iteratorIPwS2_EES6_jw
PUBLIC a7e20 0 _ZNSbIwSt11char_traitsIwESaIwEE6insertEN9__gnu_cxx17__normal_iteratorIPwS2_EEjw
PUBLIC a7e50 0 _ZNSbIwSt11char_traitsIwESaIwEE15_M_replace_safeEjjPKwj
PUBLIC a7ea8 0 _ZNSbIwSt11char_traitsIwESaIwEE6assignEPKwj
PUBLIC a7fa0 0 _ZNSbIwSt11char_traitsIwESaIwEEaSESt16initializer_listIwE
PUBLIC a7fc8 0 _ZNSbIwSt11char_traitsIwESaIwEE6assignERKS2_jj
PUBLIC a8008 0 _ZNSbIwSt11char_traitsIwESaIwEE6assignEPKw
PUBLIC a8030 0 _ZNSbIwSt11char_traitsIwESaIwEE6assignESt16initializer_listIwE
PUBLIC a8048 0 _ZNSbIwSt11char_traitsIwESaIwEEaSEPKw
PUBLIC a8070 0 _ZNSbIwSt11char_traitsIwESaIwEE6insertEjPKwj
PUBLIC a81f8 0 _ZNSbIwSt11char_traitsIwESaIwEE6insertEN9__gnu_cxx17__normal_iteratorIPwS2_EESt16initializer_listIwE
PUBLIC a8224 0 _ZNSbIwSt11char_traitsIwESaIwEE6insertEjRKS2_jj
PUBLIC a8268 0 _ZNSbIwSt11char_traitsIwESaIwEE6insertEjPKw
PUBLIC a8298 0 _ZNSbIwSt11char_traitsIwESaIwEE6insertEjRKS2_
PUBLIC a82a4 0 _ZNSbIwSt11char_traitsIwESaIwEE8pop_backEv
PUBLIC a82dc 0 _ZNSbIwSt11char_traitsIwESaIwEE4_Rep10_M_refcopyEv
PUBLIC a8340 0 _ZNSbIwSt11char_traitsIwESaIwEE4_Rep8_M_cloneERKS1_j
PUBLIC a83d8 0 _ZNSbIwSt11char_traitsIwESaIwEE7reserveEj
PUBLIC a8468 0 _ZNSbIwSt11char_traitsIwESaIwEE13shrink_to_fitEv
PUBLIC a8498 0 _ZNSbIwSt11char_traitsIwESaIwEE6appendERKS2_
PUBLIC a8550 0 _ZNSbIwSt11char_traitsIwESaIwEEpLERKS2_
PUBLIC a8554 0 _ZNSbIwSt11char_traitsIwESaIwEE6appendERKS2_jj
PUBLIC a8638 0 _ZNSbIwSt11char_traitsIwESaIwEE6appendEPKwj
PUBLIC a8748 0 _ZNSbIwSt11char_traitsIwESaIwEEpLESt16initializer_listIwE
PUBLIC a8760 0 _ZNSbIwSt11char_traitsIwESaIwEE6appendEPKw
PUBLIC a8788 0 _ZNSbIwSt11char_traitsIwESaIwEE6appendESt16initializer_listIwE
PUBLIC a87a0 0 _ZNSbIwSt11char_traitsIwESaIwEEpLEPKw
PUBLIC a87c8 0 _ZNSbIwSt11char_traitsIwESaIwEE6appendEjw
PUBLIC a8890 0 _ZNSbIwSt11char_traitsIwESaIwEE6resizeEjw
PUBLIC a88dc 0 _ZNSbIwSt11char_traitsIwESaIwEE6resizeEj
PUBLIC a88e4 0 _ZNSbIwSt11char_traitsIwESaIwEE9push_backEw
PUBLIC a895c 0 _ZNSbIwSt11char_traitsIwESaIwEEpLEw
PUBLIC a89dc 0 _ZNSbIwSt11char_traitsIwESaIwEE4_Rep7_M_grabERKS1_S5_
PUBLIC a8a54 0 _ZNSbIwSt11char_traitsIwESaIwEEC2ERKS2_
PUBLIC a8af4 0 _ZNSbIwSt11char_traitsIwESaIwEE6assignERKS2_
PUBLIC a8bc8 0 _ZNSbIwSt11char_traitsIwESaIwEEaSERKS2_
PUBLIC a8bcc 0 _ZStplIwSt11char_traitsIwESaIwEESbIT_T0_T1_EPKS3_RKS6_
PUBLIC a8c68 0 _ZStplIwSt11char_traitsIwESaIwEESbIT_T0_T1_ES3_RKS6_
PUBLIC a8cf0 0 _ZStplIwSt11char_traitsIwESaIwEESbIT_T0_T1_ERKS6_S8_
PUBLIC a8d50 0 _ZNSbIwSt11char_traitsIwESaIwEE12_S_constructIN9__gnu_cxx17__normal_iteratorIPwS2_EEEES6_T_S8_RKS1_St20forward_iterator_tag
PUBLIC a8dec 0 _ZNSbIwSt11char_traitsIwESaIwEEC1IN9__gnu_cxx17__normal_iteratorIPwS2_EEEET_S8_RKS1_
PUBLIC a8e14 0 _ZNSbIwSt11char_traitsIwESaIwEE12_S_constructIPwEES4_T_S5_RKS1_St20forward_iterator_tag
PUBLIC a8ee4 0 _ZNSbIwSt11char_traitsIwESaIwEEC1ERKS2_jj
PUBLIC a8f44 0 _ZNKSbIwSt11char_traitsIwESaIwEE6substrEjj
PUBLIC a8f78 0 _ZNSbIwSt11char_traitsIwESaIwEEC2ERKS2_jjRKS1_
PUBLIC a8fd0 0 _ZNSbIwSt11char_traitsIwESaIwEEC1IPwEET_S5_RKS1_
PUBLIC a8ff8 0 _ZNSbIwSt11char_traitsIwESaIwEE12_S_constructIPKwEEPwT_S7_RKS1_St20forward_iterator_tag
PUBLIC a90c8 0 _ZNSbIwSt11char_traitsIwESaIwEEC1EPKwjRKS1_
PUBLIC a90f0 0 _ZNSbIwSt11char_traitsIwESaIwEE7replaceEjjPKwj
PUBLIC a92b0 0 _ZNSbIwSt11char_traitsIwESaIwEE7replaceEjjRKS2_
PUBLIC a92d0 0 _ZNSbIwSt11char_traitsIwESaIwEE7replaceEjjRKS2_jj
PUBLIC a9318 0 _ZNSbIwSt11char_traitsIwESaIwEE7replaceEjjPKw
PUBLIC a9358 0 _ZNSbIwSt11char_traitsIwESaIwEE7replaceEN9__gnu_cxx17__normal_iteratorIPwS2_EES6_PKwj
PUBLIC a9370 0 _ZNSbIwSt11char_traitsIwESaIwEE7replaceEN9__gnu_cxx17__normal_iteratorIPwS2_EES6_RKS2_
PUBLIC a93a4 0 _ZNSbIwSt11char_traitsIwESaIwEE7replaceEN9__gnu_cxx17__normal_iteratorIPwS2_EES6_PKw
PUBLIC a93f0 0 _ZNSbIwSt11char_traitsIwESaIwEE7replaceEN9__gnu_cxx17__normal_iteratorIPwS2_EES6_S5_S5_
PUBLIC a9420 0 _ZNSbIwSt11char_traitsIwESaIwEE7replaceEN9__gnu_cxx17__normal_iteratorIPwS2_EES6_PKwS8_
PUBLIC a9450 0 _ZNSbIwSt11char_traitsIwESaIwEE7replaceEN9__gnu_cxx17__normal_iteratorIPwS2_EES6_S6_S6_
PUBLIC a9480 0 _ZNSbIwSt11char_traitsIwESaIwEE7replaceEN9__gnu_cxx17__normal_iteratorIPwS2_EES6_NS4_IPKwS2_EES9_
PUBLIC a94b0 0 _ZNSbIwSt11char_traitsIwESaIwEE7replaceEN9__gnu_cxx17__normal_iteratorIPwS2_EES6_St16initializer_listIwE
PUBLIC a94ec 0 _ZNSbIwSt11char_traitsIwESaIwEEC1EPKwRKS1_
PUBLIC a952c 0 _ZNSbIwSt11char_traitsIwESaIwEEC2ESt16initializer_listIwERKS1_
PUBLIC a956c 0 _ZNSbIwSt11char_traitsIwESaIwEEC2IPKwEET_S6_RKS1_
STACK CFI INIT 465c4 18 .cfa: sp 0 + .ra: lr
STACK CFI INIT 465dc 18 .cfa: sp 0 + .ra: lr
STACK CFI INIT 45b98 14 .cfa: sp 0 + .ra: lr
STACK CFI 45b9c .cfa: sp 8 + .ra: .cfa -4 + ^ r3: .cfa -8 + ^
STACK CFI INIT 45bac 14 .cfa: sp 0 + .ra: lr
STACK CFI 45bb0 .cfa: sp 8 + .ra: .cfa -4 + ^ r3: .cfa -8 + ^
STACK CFI INIT 465f4 9c .cfa: sp 0 + .ra: lr
STACK CFI INIT 46690 3c .cfa: sp 0 + .ra: lr
STACK CFI 46698 .cfa: sp 4 + r4: .cfa -4 + ^
STACK CFI INIT 466cc 20 .cfa: sp 0 + .ra: lr
STACK CFI INIT 466ec 1c .cfa: sp 0 + .ra: lr
STACK CFI INIT 46708 14 .cfa: sp 0 + .ra: lr
STACK CFI INIT 4671c 4 .cfa: sp 0 + .ra: lr
STACK CFI INIT 46720 4 .cfa: sp 0 + .ra: lr
STACK CFI INIT 46724 4 .cfa: sp 0 + .ra: lr
STACK CFI INIT 46728 4 .cfa: sp 0 + .ra: lr
STACK CFI INIT 4672c 4 .cfa: sp 0 + .ra: lr
STACK CFI INIT 46730 4 .cfa: sp 0 + .ra: lr
STACK CFI INIT 46734 4 .cfa: sp 0 + .ra: lr
STACK CFI INIT 46738 4 .cfa: sp 0 + .ra: lr
STACK CFI INIT 4673c 4 .cfa: sp 0 + .ra: lr
STACK CFI INIT 46740 4 .cfa: sp 0 + .ra: lr
STACK CFI INIT 46744 4 .cfa: sp 0 + .ra: lr
STACK CFI INIT 46748 4 .cfa: sp 0 + .ra: lr
STACK CFI INIT 4674c 4 .cfa: sp 0 + .ra: lr
STACK CFI INIT 46750 4 .cfa: sp 0 + .ra: lr
STACK CFI INIT 46754 4 .cfa: sp 0 + .ra: lr
STACK CFI INIT 46758 4 .cfa: sp 0 + .ra: lr
STACK CFI INIT 4675c 4 .cfa: sp 0 + .ra: lr
STACK CFI INIT 46760 4 .cfa: sp 0 + .ra: lr
STACK CFI INIT 46764 4 .cfa: sp 0 + .ra: lr
STACK CFI INIT 46768 4 .cfa: sp 0 + .ra: lr
STACK CFI INIT 4676c 4 .cfa: sp 0 + .ra: lr
STACK CFI INIT 46770 4 .cfa: sp 0 + .ra: lr
STACK CFI INIT 46774 44 .cfa: sp 0 + .ra: lr
STACK CFI 46778 .cfa: sp 8 + .ra: .cfa -4 + ^ r4: .cfa -8 + ^
STACK CFI INIT 467b8 44 .cfa: sp 0 + .ra: lr
STACK CFI 467bc .cfa: sp 8 + .ra: .cfa -4 + ^ r4: .cfa -8 + ^
STACK CFI INIT 467fc 18 .cfa: sp 0 + .ra: lr
STACK CFI INIT 46814 18 .cfa: sp 0 + .ra: lr
STACK CFI INIT 4682c 1c .cfa: sp 0 + .ra: lr
STACK CFI INIT 46848 2c .cfa: sp 0 + .ra: lr
STACK CFI INIT 46874 28 .cfa: sp 0 + .ra: lr
STACK CFI 4687c .cfa: sp 8 + .ra: .cfa -4 + ^ r4: .cfa -8 + ^
STACK CFI INIT 4689c 34 .cfa: sp 0 + .ra: lr
STACK CFI INIT 468d0 11c .cfa: sp 0 + .ra: lr
STACK CFI 468d4 .cfa: sp 8 + .ra: .cfa -4 + ^ r4: .cfa -8 + ^
STACK CFI 468dc .cfa: sp 16 +
STACK CFI INIT 469ec 218 .cfa: sp 0 + .ra: lr
STACK CFI 469f4 .cfa: sp 24 + .ra: .cfa -4 + ^ r4: .cfa -24 + ^ r5: .cfa -20 + ^ r6: .cfa -16 + ^ r7: .cfa -12 + ^ r8: .cfa -8 + ^
STACK CFI 469fc .cfa: sp 32 +
STACK CFI INIT 46c04 8 .cfa: sp 0 + .ra: lr
STACK CFI INIT 46c0c 8 .cfa: sp 0 + .ra: lr
STACK CFI INIT 46c14 8 .cfa: sp 0 + .ra: lr
STACK CFI INIT 46c1c 18 .cfa: sp 0 + .ra: lr
STACK CFI INIT 46c34 18 .cfa: sp 0 + .ra: lr
STACK CFI INIT 46c4c 1c .cfa: sp 0 + .ra: lr
STACK CFI INIT 46c68 2c .cfa: sp 0 + .ra: lr
STACK CFI INIT 46c94 28 .cfa: sp 0 + .ra: lr
STACK CFI 46c9c .cfa: sp 8 + .ra: .cfa -4 + ^ r4: .cfa -8 + ^
STACK CFI INIT 46cbc 34 .cfa: sp 0 + .ra: lr
STACK CFI INIT 46cf0 12c .cfa: sp 0 + .ra: lr
STACK CFI 46cf4 .cfa: sp 8 + .ra: .cfa -4 + ^ r4: .cfa -8 + ^
STACK CFI 46cfc .cfa: sp 16 +
STACK CFI INIT 46e1c 21c .cfa: sp 0 + .ra: lr
STACK CFI 46e24 .cfa: sp 24 + .ra: .cfa -4 + ^ r4: .cfa -24 + ^ r5: .cfa -20 + ^ r6: .cfa -16 + ^ r7: .cfa -12 + ^ r8: .cfa -8 + ^
STACK CFI 46e2c .cfa: sp 32 +
STACK CFI INIT 47038 8 .cfa: sp 0 + .ra: lr
STACK CFI INIT 47040 8 .cfa: sp 0 + .ra: lr
STACK CFI INIT 47048 8 .cfa: sp 0 + .ra: lr
STACK CFI INIT 47050 9c .cfa: sp 0 + .ra: lr
STACK CFI INIT 470ec 3c .cfa: sp 0 + .ra: lr
STACK CFI 470f4 .cfa: sp 4 + r4: .cfa -4 + ^
STACK CFI INIT 47128 20 .cfa: sp 0 + .ra: lr
STACK CFI INIT 47148 1c .cfa: sp 0 + .ra: lr
STACK CFI INIT 47164 14 .cfa: sp 0 + .ra: lr
STACK CFI INIT 47178 3c .cfa: sp 0 + .ra: lr
STACK CFI 47180 .cfa: sp 4 + r4: .cfa -4 + ^
STACK CFI INIT 471b4 20 .cfa: sp 0 + .ra: lr
STACK CFI INIT 471d4 1c .cfa: sp 0 + .ra: lr
STACK CFI INIT 471f0 14 .cfa: sp 0 + .ra: lr
STACK CFI INIT 47204 10 .cfa: sp 0 + .ra: lr
STACK CFI INIT 47214 34 .cfa: sp 0 + .ra: lr
STACK CFI 47224 .cfa: sp 8 + .ra: .cfa -4 + ^ r4: .cfa -8 + ^
STACK CFI INIT 47248 3c .cfa: sp 0 + .ra: lr
STACK CFI 47258 .cfa: sp 8 + .ra: .cfa -4 + ^ r4: .cfa -8 + ^
STACK CFI INIT 47284 14 .cfa: sp 0 + .ra: lr
STACK CFI INIT 47298 14 .cfa: sp 0 + .ra: lr
STACK CFI INIT 472ac 18 .cfa: sp 0 + .ra: lr
STACK CFI INIT 472c4 18 .cfa: sp 0 + .ra: lr
STACK CFI INIT 472dc 38 .cfa: sp 0 + .ra: lr
STACK CFI 472e0 .cfa: sp 4 + .ra: .cfa -4 + ^
STACK CFI 472e4 .cfa: sp 16 +
STACK CFI INIT 47314 74 .cfa: sp 0 + .ra: lr
STACK CFI 47318 .cfa: sp 16 + .ra: .cfa -4 + ^ r3: .cfa -16 + ^ r4: .cfa -12 + ^ r5: .cfa -8 + ^
STACK CFI INIT 47388 60 .cfa: sp 0 + .ra: lr
STACK CFI 4738c .cfa: sp 16 + .ra: .cfa -4 + ^ r3: .cfa -16 + ^ r4: .cfa -12 + ^ r5: .cfa -8 + ^
STACK CFI INIT 473e8 3c .cfa: sp 0 + .ra: lr
STACK CFI 473ec .cfa: sp 16 + .ra: .cfa -4 + ^ r3: .cfa -16 + ^ r4: .cfa -12 + ^ r5: .cfa -8 + ^
STACK CFI INIT 47424 1c .cfa: sp 0 + .ra: lr
STACK CFI 47428 .cfa: sp 8 + .ra: .cfa -4 + ^ r4: .cfa -8 + ^
STACK CFI INIT 47440 24 .cfa: sp 0 + .ra: lr
STACK CFI 47444 .cfa: sp 16 + .ra: .cfa -4 + ^ r3: .cfa -16 + ^ r4: .cfa -12 + ^ r5: .cfa -8 + ^
STACK CFI INIT 47464 34 .cfa: sp 0 + .ra: lr
STACK CFI INIT 45d60 28 .cfa: sp 0 + .ra: lr
STACK CFI 45d64 .cfa: sp 8 + .ra: .cfa -4 + ^ r3: .cfa -8 + ^
STACK CFI INIT 47498 3c .cfa: sp 0 + .ra: lr
STACK CFI 4749c .cfa: sp 8 + .ra: .cfa -4 + ^ r4: .cfa -8 + ^
STACK CFI 474a0 .cfa: sp 16 +
STACK CFI INIT 474d4 34 .cfa: sp 0 + .ra: lr
STACK CFI 474e4 .cfa: sp 8 + .ra: .cfa -4 + ^ r4: .cfa -8 + ^
STACK CFI INIT 47508 1c .cfa: sp 0 + .ra: lr
STACK CFI 4750c .cfa: sp 8 + .ra: .cfa -4 + ^ r4: .cfa -8 + ^
STACK CFI INIT 47524 10 .cfa: sp 0 + .ra: lr
STACK CFI INIT 47534 24 .cfa: sp 0 + .ra: lr
STACK CFI 4753c .cfa: sp 8 + .ra: .cfa -4 + ^ r4: .cfa -8 + ^
STACK CFI INIT 47558 34 .cfa: sp 0 + .ra: lr
STACK CFI 4755c .cfa: sp 16 + .ra: .cfa -4 + ^ r3: .cfa -16 + ^ r4: .cfa -12 + ^ r5: .cfa -8 + ^
STACK CFI INIT 4758c 6c .cfa: sp 0 + .ra: lr
STACK CFI 47590 .cfa: sp 16 + .ra: .cfa -4 + ^ r3: .cfa -16 + ^ r4: .cfa -12 + ^ r5: .cfa -8 + ^
STACK CFI INIT 475f8 90 .cfa: sp 0 + .ra: lr
STACK CFI 475fc .cfa: sp 8 + .ra: .cfa -4 + ^ r4: .cfa -8 + ^
STACK CFI INIT 47688 108 .cfa: sp 0 + .ra: lr
STACK CFI 4768c .cfa: sp 24 + .ra: .cfa -4 + ^ r4: .cfa -24 + ^ r5: .cfa -20 + ^ r6: .cfa -16 + ^ r7: .cfa -12 + ^ r8: .cfa -8 + ^
STACK CFI INIT 47790 10 .cfa: sp 0 + .ra: lr
STACK CFI INIT 477a0 34 .cfa: sp 0 + .ra: lr
STACK CFI 477b0 .cfa: sp 8 + .ra: .cfa -4 + ^ r4: .cfa -8 + ^
STACK CFI INIT 477d4 1c .cfa: sp 0 + .ra: lr
STACK CFI 477d8 .cfa: sp 8 + .ra: .cfa -4 + ^ r4: .cfa -8 + ^
STACK CFI INIT 477f0 10 .cfa: sp 0 + .ra: lr
STACK CFI INIT 47800 34 .cfa: sp 0 + .ra: lr
STACK CFI 47810 .cfa: sp 8 + .ra: .cfa -4 + ^ r4: .cfa -8 + ^
STACK CFI INIT 47834 1c .cfa: sp 0 + .ra: lr
STACK CFI 47838 .cfa: sp 8 + .ra: .cfa -4 + ^ r4: .cfa -8 + ^
STACK CFI INIT 47850 10 .cfa: sp 0 + .ra: lr
STACK CFI INIT 47860 34 .cfa: sp 0 + .ra: lr
STACK CFI 47870 .cfa: sp 8 + .ra: .cfa -4 + ^ r4: .cfa -8 + ^
STACK CFI INIT 47894 1c .cfa: sp 0 + .ra: lr
STACK CFI 47898 .cfa: sp 8 + .ra: .cfa -4 + ^ r4: .cfa -8 + ^
STACK CFI INIT 478b0 5c .cfa: sp 0 + .ra: lr
STACK CFI 478b8 .cfa: sp 12 + .ra: .cfa -4 + ^ r4: .cfa -12 + ^ r5: .cfa -8 + ^
STACK CFI 478c0 .cfa: sp 32 +
STACK CFI INIT 4790c 14 .cfa: sp 0 + .ra: lr
STACK CFI INIT 47920 34 .cfa: sp 0 + .ra: lr
STACK CFI 47930 .cfa: sp 8 + .ra: .cfa -4 + ^ r4: .cfa -8 + ^
STACK CFI INIT 47954 1c .cfa: sp 0 + .ra: lr
STACK CFI 47958 .cfa: sp 8 + .ra: .cfa -4 + ^ r4: .cfa -8 + ^
STACK CFI INIT 47970 2c .cfa: sp 0 + .ra: lr
STACK CFI 47974 .cfa: sp 16 + .ra: .cfa -4 + ^ r3: .cfa -16 + ^ r4: .cfa -12 + ^ r5: .cfa -8 + ^
STACK CFI INIT 4799c 44 .cfa: sp 0 + .ra: lr
STACK CFI 479a0 .cfa: sp 24 + .ra: .cfa -4 + ^ r3: .cfa -24 + ^ r4: .cfa -20 + ^ r5: .cfa -16 + ^ r6: .cfa -12 + ^ r7: .cfa -8 + ^
STACK CFI INIT 479e0 70 .cfa: sp 0 + .ra: lr
STACK CFI 479e4 .cfa: sp 16 + .ra: .cfa -4 + ^ r4: .cfa -16 + ^ r5: .cfa -12 + ^ r6: .cfa -8 + ^
STACK CFI 479e8 .cfa: sp 24 +
STACK CFI INIT 47a50 c .cfa: sp 0 + .ra: lr
STACK CFI INIT 47a5c 4 .cfa: sp 0 + .ra: lr
STACK CFI INIT 47a60 4 .cfa: sp 0 + .ra: lr
STACK CFI INIT 47a64 4 .cfa: sp 0 + .ra: lr
STACK CFI INIT 47a68 114 .cfa: sp 0 + .ra: lr
STACK CFI 47a70 .cfa: sp 24 + .ra: .cfa -4 + ^ r4: .cfa -24 + ^ r5: .cfa -20 + ^ r6: .cfa -16 + ^ r7: .cfa -12 + ^ r8: .cfa -8 + ^
STACK CFI 47a84 .cfa: sp 64 +
STACK CFI INIT 47b7c 10 .cfa: sp 0 + .ra: lr
STACK CFI INIT 47b8c 10 .cfa: sp 0 + .ra: lr
STACK CFI INIT 47b9c 34 .cfa: sp 0 + .ra: lr
STACK CFI 47bac .cfa: sp 8 + .ra: .cfa -4 + ^ r4: .cfa -8 + ^
STACK CFI INIT 47bd0 34 .cfa: sp 0 + .ra: lr
STACK CFI 47be0 .cfa: sp 8 + .ra: .cfa -4 + ^ r4: .cfa -8 + ^
STACK CFI INIT 47c04 3c .cfa: sp 0 + .ra: lr
STACK CFI 47c14 .cfa: sp 8 + .ra: .cfa -4 + ^ r4: .cfa -8 + ^
STACK CFI INIT 47c40 3c .cfa: sp 0 + .ra: lr
STACK CFI 47c50 .cfa: sp 8 + .ra: .cfa -4 + ^ r4: .cfa -8 + ^
STACK CFI INIT 47c7c 48 .cfa: sp 0 + .ra: lr
STACK CFI 47c80 .cfa: sp 8 + .ra: .cfa -4 + ^ r3: .cfa -8 + ^
STACK CFI INIT 47cc4 48 .cfa: sp 0 + .ra: lr
STACK CFI 47cc8 .cfa: sp 8 + .ra: .cfa -4 + ^ r3: .cfa -8 + ^
STACK CFI INIT 47d0c 108 .cfa: sp 0 + .ra: lr
STACK CFI 47d10 .cfa: sp 16 + .ra: .cfa -4 + ^ r4: .cfa -16 + ^ r5: .cfa -12 + ^ r6: .cfa -8 + ^
STACK CFI INIT 47e14 dc .cfa: sp 0 + .ra: lr
STACK CFI 47e18 .cfa: sp 16 + .ra: .cfa -4 + ^ r3: .cfa -16 + ^ r4: .cfa -12 + ^ r5: .cfa -8 + ^
STACK CFI INIT 47ef0 104 .cfa: sp 0 + .ra: lr
STACK CFI 47ef4 .cfa: sp 16 + .ra: .cfa -4 + ^ r3: .cfa -16 + ^ r4: .cfa -12 + ^ r5: .cfa -8 + ^
STACK CFI INIT 47ff4 e4 .cfa: sp 0 + .ra: lr
STACK CFI 47ff8 .cfa: sp 16 + .ra: .cfa -4 + ^ r3: .cfa -16 + ^ r4: .cfa -12 + ^ r5: .cfa -8 + ^
STACK CFI INIT 45d88 2c .cfa: sp 0 + .ra: lr
STACK CFI INIT 480e8 150 .cfa: sp 0 + .ra: lr
STACK CFI 480ec .cfa: sp 20 + .ra: .cfa -4 + ^ r4: .cfa -20 + ^ r5: .cfa -16 + ^ r6: .cfa -12 + ^ r7: .cfa -8 + ^
STACK CFI 480f4 .cfa: sp 32 +
STACK CFI INIT 48238 b4 .cfa: sp 0 + .ra: lr
STACK CFI 4823c .cfa: sp 8 + .ra: .cfa -4 + ^ r4: .cfa -8 + ^
STACK CFI INIT 482ec b4 .cfa: sp 0 + .ra: lr
STACK CFI 482f0 .cfa: sp 8 + .ra: .cfa -4 + ^ r3: .cfa -8 + ^
STACK CFI INIT 483a0 48 .cfa: sp 0 + .ra: lr
STACK CFI 483a4 .cfa: sp 8 + .ra: .cfa -4 + ^ r3: .cfa -8 + ^
STACK CFI INIT 483e8 48 .cfa: sp 0 + .ra: lr
STACK CFI 483ec .cfa: sp 8 + .ra: .cfa -4 + ^ r3: .cfa -8 + ^
STACK CFI INIT 48430 7c .cfa: sp 0 + .ra: lr
STACK CFI 48434 .cfa: sp 8 + .ra: .cfa -4 + ^ r4: .cfa -8 + ^
STACK CFI INIT 484ac 1b4 .cfa: sp 0 + .ra: lr
STACK CFI 484b0 .cfa: sp 36 + .ra: .cfa -4 + ^ r10: .cfa -12 + ^ r11: .cfa -8 + ^ r4: .cfa -36 + ^ r5: .cfa -32 + ^ r6: .cfa -28 + ^ r7: .cfa -24 + ^ r8: .cfa -20 + ^ r9: .cfa -16 + ^
STACK CFI 484c0 .cfa: sp 64 +
STACK CFI INIT 48660 8 .cfa: sp 0 + .ra: lr
STACK CFI INIT 48668 e0 .cfa: sp 0 + .ra: lr
STACK CFI 4866c .cfa: sp 8 + .ra: .cfa -4 + ^ r4: .cfa -8 + ^
STACK CFI INIT 48748 d8 .cfa: sp 0 + .ra: lr
STACK CFI 4874c .cfa: sp 8 + .ra: .cfa -4 + ^ r3: .cfa -8 + ^
STACK CFI INIT 48820 18 .cfa: sp 0 + .ra: lr
STACK CFI 48824 .cfa: sp 8 + .ra: .cfa -4 + ^ r3: .cfa -8 + ^
STACK CFI INIT 48838 24 .cfa: sp 0 + .ra: lr
STACK CFI INIT 4885c 34 .cfa: sp 0 + .ra: lr
STACK CFI 4886c .cfa: sp 8 + .ra: .cfa -4 + ^ r4: .cfa -8 + ^
STACK CFI INIT 0 24 .cfa: sp 0 + .ra: lr
STACK CFI INIT 0 24 .cfa: sp 0 + .ra: lr
STACK CFI INIT 48890 10 .cfa: sp 0 + .ra: lr
STACK CFI INIT 488a0 10 .cfa: sp 0 + .ra: lr
STACK CFI INIT 488b0 1c .cfa: sp 0 + .ra: lr
STACK CFI 488b4 .cfa: sp 8 + .ra: .cfa -4 + ^ r4: .cfa -8 + ^
STACK CFI INIT 488cc 1c .cfa: sp 0 + .ra: lr
STACK CFI 488d0 .cfa: sp 8 + .ra: .cfa -4 + ^ r4: .cfa -8 + ^
STACK CFI INIT 0 1c .cfa: sp 0 + .ra: lr
STACK CFI 4 .cfa: sp 8 + .ra: .cfa -4 + ^ r4: .cfa -8 + ^
STACK CFI INIT 0 1c .cfa: sp 0 + .ra: lr
STACK CFI 4 .cfa: sp 8 + .ra: .cfa -4 + ^ r4: .cfa -8 + ^
STACK CFI INIT 488e8 24 .cfa: sp 0 + .ra: lr
STACK CFI 488f0 .cfa: sp 8 + .ra: .cfa -4 + ^ r3: .cfa -8 + ^
STACK CFI INIT 4890c 24 .cfa: sp 0 + .ra: lr
STACK CFI 48914 .cfa: sp 8 + .ra: .cfa -4 + ^ r3: .cfa -8 + ^
STACK CFI INIT 48930 44 .cfa: sp 0 + .ra: lr
STACK CFI 4893c .cfa: sp 4 + r4: .cfa -4 + ^
STACK CFI INIT 48974 17c .cfa: sp 0 + .ra: lr
STACK CFI 4897c .cfa: sp 20 + .ra: .cfa -4 + ^ r4: .cfa -20 + ^ r5: .cfa -16 + ^ r6: .cfa -12 + ^ r7: .cfa -8 + ^
STACK CFI 48984 .cfa: sp 40 +
STACK CFI INIT 48af0 74 .cfa: sp 0 + .ra: lr
STACK CFI 48af8 .cfa: sp 8 + .ra: .cfa -4 + ^ r3: .cfa -8 + ^
STACK CFI INIT 48b64 e0 .cfa: sp 0 + .ra: lr
STACK CFI 48b68 .cfa: sp 24 + .ra: .cfa -4 + ^ r3: .cfa -24 + ^ r4: .cfa -20 + ^ r5: .cfa -16 + ^ r6: .cfa -12 + ^ r7: .cfa -8 + ^
STACK CFI INIT 48c44 670 .cfa: sp 0 + .ra: lr
STACK CFI 48c4c .cfa: sp 36 + .ra: .cfa -4 + ^ r10: .cfa -12 + ^ r11: .cfa -8 + ^ r4: .cfa -36 + ^ r5: .cfa -32 + ^ r6: .cfa -28 + ^ r7: .cfa -24 + ^ r8: .cfa -20 + ^ r9: .cfa -16 + ^
STACK CFI 48c54 .cfa: sp 128 +
STACK CFI INIT 492b4 14 .cfa: sp 0 + .ra: lr
STACK CFI 492b8 .cfa: sp 8 + .ra: .cfa -4 + ^ r3: .cfa -8 + ^
STACK CFI INIT 492c8 24 .cfa: sp 0 + .ra: lr
STACK CFI 492cc .cfa: sp 8 + .ra: .cfa -4 + ^ r3: .cfa -8 + ^
STACK CFI INIT 492ec c .cfa: sp 0 + .ra: lr
STACK CFI 492f0 .cfa: sp 8 + .ra: .cfa -4 + ^ r3: .cfa -8 + ^
STACK CFI INIT 492f8 24 .cfa: sp 0 + .ra: lr
STACK CFI 492fc .cfa: sp 8 + .ra: .cfa -4 + ^ r3: .cfa -8 + ^
STACK CFI INIT 4931c 28 .cfa: sp 0 + .ra: lr
STACK CFI INIT 49344 28 .cfa: sp 0 + .ra: lr
STACK CFI INIT 4936c 1a4 .cfa: sp 0 + .ra: lr
STACK CFI 49370 .cfa: sp 24 + .ra: .cfa -4 + ^ r3: .cfa -24 + ^ r4: .cfa -20 + ^ r5: .cfa -16 + ^ r6: .cfa -12 + ^ r7: .cfa -8 + ^
STACK CFI INIT 49510 38 .cfa: sp 0 + .ra: lr
STACK CFI 49518 .cfa: sp 8 + .ra: .cfa -4 + ^ r4: .cfa -8 + ^
STACK CFI INIT 49548 c4 .cfa: sp 0 + .ra: lr
STACK CFI 4954c .cfa: sp 24 + .ra: .cfa -4 + ^ r4: .cfa -24 + ^ r5: .cfa -20 + ^ r6: .cfa -16 + ^ r7: .cfa -12 + ^ r8: .cfa -8 + ^
STACK CFI INIT 4960c b0 .cfa: sp 0 + .ra: lr
STACK CFI 49610 .cfa: sp 8 + .ra: .cfa -4 + ^ r4: .cfa -8 + ^
STACK CFI INIT 496bc 2c .cfa: sp 0 + .ra: lr
STACK CFI 496c0 .cfa: sp 8 + .ra: .cfa -4 + ^ r3: .cfa -8 + ^
STACK CFI INIT 496e8 34 .cfa: sp 0 + .ra: lr
STACK CFI 496f8 .cfa: sp 8 + .ra: .cfa -4 + ^ r4: .cfa -8 + ^
STACK CFI INIT 4971c 1c .cfa: sp 0 + .ra: lr
STACK CFI 49720 .cfa: sp 8 + .ra: .cfa -4 + ^ r4: .cfa -8 + ^
STACK CFI INIT 49738 8 .cfa: sp 0 + .ra: lr
STACK CFI INIT 49740 34 .cfa: sp 0 + .ra: lr
STACK CFI 49750 .cfa: sp 8 + .ra: .cfa -4 + ^ r4: .cfa -8 + ^
STACK CFI INIT 49774 1c .cfa: sp 0 + .ra: lr
STACK CFI 49778 .cfa: sp 8 + .ra: .cfa -4 + ^ r4: .cfa -8 + ^
STACK CFI INIT 49790 34 .cfa: sp 0 + .ra: lr
STACK CFI 497a0 .cfa: sp 8 + .ra: .cfa -4 + ^ r4: .cfa -8 + ^
STACK CFI INIT 497c4 1c .cfa: sp 0 + .ra: lr
STACK CFI 497c8 .cfa: sp 8 + .ra: .cfa -4 + ^ r4: .cfa -8 + ^
STACK CFI INIT 47b7c 10 .cfa: sp 0 + .ra: lr
STACK CFI INIT 47b8c 10 .cfa: sp 0 + .ra: lr
STACK CFI INIT 497e0 10 .cfa: sp 0 + .ra: lr
STACK CFI INIT 497f0 10 .cfa: sp 0 + .ra: lr
STACK CFI INIT 49800 40 .cfa: sp 0 + .ra: lr
STACK CFI INIT 49840 4c .cfa: sp 0 + .ra: lr
STACK CFI INIT 4988c 34 .cfa: sp 0 + .ra: lr
STACK CFI 4989c .cfa: sp 8 + .ra: .cfa -4 + ^ r4: .cfa -8 + ^
STACK CFI INIT 498c0 34 .cfa: sp 0 + .ra: lr
STACK CFI 498d0 .cfa: sp 8 + .ra: .cfa -4 + ^ r4: .cfa -8 + ^
STACK CFI INIT 47b9c 34 .cfa: sp 0 + .ra: lr
STACK CFI 47bac .cfa: sp 8 + .ra: .cfa -4 + ^ r4: .cfa -8 + ^
STACK CFI INIT 47bd0 34 .cfa: sp 0 + .ra: lr
STACK CFI 47be0 .cfa: sp 8 + .ra: .cfa -4 + ^ r4: .cfa -8 + ^
STACK CFI INIT 498f4 3c .cfa: sp 0 + .ra: lr
STACK CFI 49904 .cfa: sp 8 + .ra: .cfa -4 + ^ r4: .cfa -8 + ^
STACK CFI INIT 49930 3c .cfa: sp 0 + .ra: lr
STACK CFI 49940 .cfa: sp 8 + .ra: .cfa -4 + ^ r4: .cfa -8 + ^
STACK CFI INIT 47c04 3c .cfa: sp 0 + .ra: lr
STACK CFI 47c14 .cfa: sp 8 + .ra: .cfa -4 + ^ r4: .cfa -8 + ^
STACK CFI INIT 47c40 3c .cfa: sp 0 + .ra: lr
STACK CFI 47c50 .cfa: sp 8 + .ra: .cfa -4 + ^ r4: .cfa -8 + ^
STACK CFI INIT 47c7c 48 .cfa: sp 0 + .ra: lr
STACK CFI 47c80 .cfa: sp 8 + .ra: .cfa -4 + ^ r3: .cfa -8 + ^
STACK CFI INIT 47cc4 48 .cfa: sp 0 + .ra: lr
STACK CFI 47cc8 .cfa: sp 8 + .ra: .cfa -4 + ^ r3: .cfa -8 + ^
STACK CFI INIT 4996c 48 .cfa: sp 0 + .ra: lr
STACK CFI 49970 .cfa: sp 8 + .ra: .cfa -4 + ^ r3: .cfa -8 + ^
STACK CFI INIT 499b4 34 .cfa: sp 0 + .ra: lr
STACK CFI 499b8 .cfa: sp 8 + .ra: .cfa -4 + ^ r3: .cfa -8 + ^
STACK CFI INIT 499e8 210 .cfa: sp 0 + .ra: lr
STACK CFI 499f4 .cfa: sp 36 + .ra: .cfa -4 + ^ r10: .cfa -12 + ^ r11: .cfa -8 + ^ r4: .cfa -36 + ^ r5: .cfa -32 + ^ r6: .cfa -28 + ^ r7: .cfa -24 + ^ r8: .cfa -20 + ^ r9: .cfa -16 + ^
STACK CFI 499fc .cfa: sp 48 +
STACK CFI INIT 49bf8 f8 .cfa: sp 0 + .ra: lr
STACK CFI 49bfc .cfa: sp 16 + .ra: .cfa -4 + ^ r3: .cfa -16 + ^ r4: .cfa -12 + ^ r5: .cfa -8 + ^
STACK CFI INIT 49cf0 108 .cfa: sp 0 + .ra: lr
STACK CFI 49cf4 .cfa: sp 16 + .ra: .cfa -4 + ^ r3: .cfa -16 + ^ r4: .cfa -12 + ^ r5: .cfa -8 + ^
STACK CFI INIT 49df8 34 .cfa: sp 0 + .ra: lr
STACK CFI 49e08 .cfa: sp 8 + .ra: .cfa -4 + ^ r4: .cfa -8 + ^
STACK CFI INIT 49e2c 1c .cfa: sp 0 + .ra: lr
STACK CFI 49e30 .cfa: sp 8 + .ra: .cfa -4 + ^ r4: .cfa -8 + ^
STACK CFI INIT 49e48 d4 .cfa: sp 0 + .ra: lr
STACK CFI 49e50 .cfa: sp 28 + .ra: .cfa -4 + ^ r4: .cfa -28 + ^ r5: .cfa -24 + ^ r6: .cfa -20 + ^ r7: .cfa -16 + ^ r8: .cfa -12 + ^ r9: .cfa -8 + ^
STACK CFI 49e58 .cfa: sp 40 +
STACK CFI INIT 49f1c 34 .cfa: sp 0 + .ra: lr
STACK CFI INIT 49f50 28 .cfa: sp 0 + .ra: lr
STACK CFI INIT 49f78 a4 .cfa: sp 0 + .ra: lr
STACK CFI 49f80 .cfa: sp 16 + .ra: .cfa -4 + ^ r4: .cfa -16 + ^ r5: .cfa -12 + ^ r6: .cfa -8 + ^
STACK CFI INIT 4a01c 8c .cfa: sp 0 + .ra: lr
STACK CFI 4a024 .cfa: sp 16 + .ra: .cfa -4 + ^ r3: .cfa -16 + ^ r4: .cfa -12 + ^ r5: .cfa -8 + ^
STACK CFI INIT 4a0a8 1c .cfa: sp 0 + .ra: lr
STACK CFI 4a0ac .cfa: sp 8 + .ra: .cfa -4 + ^ r3: .cfa -8 + ^
STACK CFI INIT 4a0c4 4 .cfa: sp 0 + .ra: lr
STACK CFI INIT 4a0c8 20 .cfa: sp 0 + .ra: lr
STACK CFI 4a0d0 .cfa: sp 8 + .ra: .cfa -4 + ^ r3: .cfa -8 + ^
STACK CFI INIT 4a0e8 34 .cfa: sp 0 + .ra: lr
STACK CFI 4a0f8 .cfa: sp 8 + .ra: .cfa -4 + ^ r4: .cfa -8 + ^
STACK CFI INIT 4a11c 1c .cfa: sp 0 + .ra: lr
STACK CFI 4a120 .cfa: sp 8 + .ra: .cfa -4 + ^ r4: .cfa -8 + ^
STACK CFI INIT 4a138 90 .cfa: sp 0 + .ra: lr
STACK CFI 4a13c .cfa: sp 24 + .ra: .cfa -4 + ^ r4: .cfa -24 + ^ r5: .cfa -20 + ^ r6: .cfa -16 + ^ r7: .cfa -12 + ^ r8: .cfa -8 + ^
STACK CFI INIT 4a1c8 34 .cfa: sp 0 + .ra: lr
STACK CFI 4a1d8 .cfa: sp 8 + .ra: .cfa -4 + ^ r4: .cfa -8 + ^
STACK CFI INIT 4a1fc 1c .cfa: sp 0 + .ra: lr
STACK CFI 4a200 .cfa: sp 8 + .ra: .cfa -4 + ^ r4: .cfa -8 + ^
STACK CFI INIT 4a218 48 .cfa: sp 0 + .ra: lr
STACK CFI 4a21c .cfa: sp 24 + .ra: .cfa -4 + ^ r3: .cfa -24 + ^ r4: .cfa -20 + ^ r5: .cfa -16 + ^ r6: .cfa -12 + ^ r7: .cfa -8 + ^
STACK CFI INIT 4a260 8 .cfa: sp 0 + .ra: lr
STACK CFI INIT 4a268 34 .cfa: sp 0 + .ra: lr
STACK CFI 4a278 .cfa: sp 8 + .ra: .cfa -4 + ^ r4: .cfa -8 + ^
STACK CFI INIT 4a29c 1c .cfa: sp 0 + .ra: lr
STACK CFI 4a2a0 .cfa: sp 8 + .ra: .cfa -4 + ^ r4: .cfa -8 + ^
STACK CFI INIT 4a2b8 8c .cfa: sp 0 + .ra: lr
STACK CFI 4a2c4 .cfa: sp 12 + .ra: .cfa -4 + ^ r4: .cfa -12 + ^ r5: .cfa -8 + ^
STACK CFI 4a2cc .cfa: sp 24 +
STACK CFI INIT 4a344 34 .cfa: sp 0 + .ra: lr
STACK CFI 4a354 .cfa: sp 8 + .ra: .cfa -4 + ^ r4: .cfa -8 + ^
STACK CFI INIT 4a378 1c .cfa: sp 0 + .ra: lr
STACK CFI 4a37c .cfa: sp 8 + .ra: .cfa -4 + ^ r4: .cfa -8 + ^
STACK CFI INIT 4a394 64 .cfa: sp 0 + .ra: lr
STACK CFI 4a398 .cfa: sp 16 + .ra: .cfa -4 + ^ r4: .cfa -16 + ^ r5: .cfa -12 + ^ r6: .cfa -8 + ^
STACK CFI 4a39c .cfa: sp 32 +
STACK CFI INIT 4a3f8 e0 .cfa: sp 0 + .ra: lr
STACK CFI 4a3fc .cfa: sp 36 + .ra: .cfa -4 + ^ r10: .cfa -12 + ^ r11: .cfa -8 + ^ r4: .cfa -36 + ^ r5: .cfa -32 + ^ r6: .cfa -28 + ^ r7: .cfa -24 + ^ r8: .cfa -20 + ^ r9: .cfa -16 + ^
STACK CFI 4a404 .cfa: sp 56 +
STACK CFI INIT 4a4d8 40 .cfa: sp 0 + .ra: lr
STACK CFI 4a4dc .cfa: sp 24 + .ra: .cfa -4 + ^ r3: .cfa -24 + ^ r4: .cfa -20 + ^ r5: .cfa -16 + ^ r6: .cfa -12 + ^ r7: .cfa -8 + ^
STACK CFI INIT 4a518 24 .cfa: sp 0 + .ra: lr
STACK CFI INIT 4a53c 8 .cfa: sp 0 + .ra: lr
STACK CFI INIT 4a544 8 .cfa: sp 0 + .ra: lr
STACK CFI INIT 4a54c 8 .cfa: sp 0 + .ra: lr
STACK CFI INIT 4a554 1c .cfa: sp 0 + .ra: lr
STACK CFI 4a558 .cfa: sp 8 + .ra: .cfa -4 + ^ r4: .cfa -8 + ^
STACK CFI INIT 4a570 4c .cfa: sp 0 + .ra: lr
STACK CFI 4a578 .cfa: sp 8 + .ra: .cfa -4 + ^ r3: .cfa -8 + ^
STACK CFI INIT 4a5bc 4 .cfa: sp 0 + .ra: lr
STACK CFI INIT 4a5c0 64 .cfa: sp 0 + .ra: lr
STACK CFI 4a5c8 .cfa: sp 8 + .ra: .cfa -4 + ^ r3: .cfa -8 + ^
STACK CFI INIT 4a624 40 .cfa: sp 0 + .ra: lr
STACK CFI 4a628 .cfa: sp 16 + .ra: .cfa -4 + ^ r3: .cfa -16 + ^ r4: .cfa -12 + ^ r5: .cfa -8 + ^
STACK CFI INIT 4a664 7c .cfa: sp 0 + .ra: lr
STACK CFI 4a668 .cfa: sp 24 + .ra: .cfa -4 + ^ r3: .cfa -24 + ^ r4: .cfa -20 + ^ r5: .cfa -16 + ^ r6: .cfa -12 + ^ r7: .cfa -8 + ^
STACK CFI INIT 4a6e0 40 .cfa: sp 0 + .ra: lr
STACK CFI 4a6e4 .cfa: sp 24 + .ra: .cfa -4 + ^ r3: .cfa -24 + ^ r4: .cfa -20 + ^ r5: .cfa -16 + ^ r6: .cfa -12 + ^ r7: .cfa -8 + ^
STACK CFI INIT 4a720 88 .cfa: sp 0 + .ra: lr
STACK CFI 4a724 .cfa: sp 28 + .ra: .cfa -4 + ^ r4: .cfa -28 + ^ r5: .cfa -24 + ^ r6: .cfa -20 + ^ r7: .cfa -16 + ^ r8: .cfa -12 + ^ r9: .cfa -8 + ^
STACK CFI 4a72c .cfa: sp 40 +
STACK CFI INIT 4a7a8 ac .cfa: sp 0 + .ra: lr
STACK CFI 4a7ac .cfa: sp 24 + .ra: .cfa -4 + ^ r4: .cfa -24 + ^ r5: .cfa -20 + ^ r6: .cfa -16 + ^ r7: .cfa -12 + ^ r8: .cfa -8 + ^
STACK CFI 4a7b0 .cfa: sp 40 +
STACK CFI INIT 4a854 48 .cfa: sp 0 + .ra: lr
STACK CFI 4a85c .cfa: sp 12 + .ra: .cfa -4 + ^ r4: .cfa -12 + ^ r5: .cfa -8 + ^
STACK CFI 4a864 .cfa: sp 32 +
STACK CFI INIT 4a89c b4 .cfa: sp 0 + .ra: lr
STACK CFI 4a8a0 .cfa: sp 28 + .ra: .cfa -4 + ^ r4: .cfa -28 + ^ r5: .cfa -24 + ^ r6: .cfa -20 + ^ r7: .cfa -16 + ^ r8: .cfa -12 + ^ r9: .cfa -8 + ^
STACK CFI 4a8a4 .cfa: sp 48 +
STACK CFI INIT 4a950 98 .cfa: sp 0 + .ra: lr
STACK CFI 4a954 .cfa: sp 32 + .ra: .cfa -4 + ^ r10: .cfa -8 + ^ r4: .cfa -32 + ^ r5: .cfa -28 + ^ r6: .cfa -24 + ^ r7: .cfa -20 + ^ r8: .cfa -16 + ^ r9: .cfa -12 + ^
STACK CFI 4a958 .cfa: sp 40 +
STACK CFI INIT 4a9e8 7c .cfa: sp 0 + .ra: lr
STACK CFI 4a9ec .cfa: sp 24 + .ra: .cfa -4 + ^ r4: .cfa -24 + ^ r5: .cfa -20 + ^ r6: .cfa -16 + ^ r7: .cfa -12 + ^ r8: .cfa -8 + ^
STACK CFI 4a9f4 .cfa: sp 32 +
STACK CFI INIT 4aa64 88 .cfa: sp 0 + .ra: lr
STACK CFI 4aa6c .cfa: sp 8 + .ra: .cfa -4 + ^ r4: .cfa -8 + ^
STACK CFI 4aa74 .cfa: sp 16 +
STACK CFI INIT 4aaec 30 .cfa: sp 0 + .ra: lr
STACK CFI 4aaf4 .cfa: sp 4 + .ra: .cfa -4 + ^
STACK CFI 4ab00 .cfa: sp 16 +
STACK CFI INIT 4ab1c 98 .cfa: sp 0 + .ra: lr
STACK CFI 4ab24 .cfa: sp 16 + .ra: .cfa -4 + ^ r4: .cfa -16 + ^ r5: .cfa -12 + ^ r6: .cfa -8 + ^
STACK CFI 4ab2c .cfa: sp 24 +
STACK CFI INIT 4abb4 28 .cfa: sp 0 + .ra: lr
STACK CFI 4abb8 .cfa: sp 4 + .ra: .cfa -4 + ^
STACK CFI 4abc0 .cfa: sp 16 +
STACK CFI INIT 4abdc 3c .cfa: sp 0 + .ra: lr
STACK CFI 4abe4 .cfa: sp 4 + .ra: .cfa -4 + ^
STACK CFI 4abec .cfa: sp 16 +
STACK CFI INIT 4ac18 30 .cfa: sp 0 + .ra: lr
STACK CFI 4ac1c .cfa: sp 8 + .ra: .cfa -4 + ^ r4: .cfa -8 + ^
STACK CFI 4ac20 .cfa: sp 16 +
STACK CFI INIT 4ac48 2c .cfa: sp 0 + .ra: lr
STACK CFI 4ac4c .cfa: sp 4 + .ra: .cfa -4 + ^
STACK CFI 4ac54 .cfa: sp 16 +
STACK CFI INIT 4ac74 2c .cfa: sp 0 + .ra: lr
STACK CFI 4ac78 .cfa: sp 4 + .ra: .cfa -4 + ^
STACK CFI 4ac80 .cfa: sp 16 +
STACK CFI INIT 4aca0 30 .cfa: sp 0 + .ra: lr
STACK CFI 4aca4 .cfa: sp 4 + .ra: .cfa -4 + ^
STACK CFI 4acac .cfa: sp 16 +
STACK CFI INIT 4acd0 2c .cfa: sp 0 + .ra: lr
STACK CFI 4acd4 .cfa: sp 4 + .ra: .cfa -4 + ^
STACK CFI 4acdc .cfa: sp 16 +
STACK CFI INIT 4acfc 20 .cfa: sp 0 + .ra: lr
STACK CFI 4ad04 .cfa: sp 8 + .ra: .cfa -4 + ^ r4: .cfa -8 + ^
STACK CFI INIT 4ad1c 24 .cfa: sp 0 + .ra: lr
STACK CFI 4ad20 .cfa: sp 8 + .ra: .cfa -4 + ^ r4: .cfa -8 + ^
STACK CFI INIT 4ad40 18 .cfa: sp 0 + .ra: lr
STACK CFI INIT 4ad58 2c .cfa: sp 0 + .ra: lr
STACK CFI 4ad60 .cfa: sp 4 + .ra: .cfa -4 + ^
STACK CFI 4ad68 .cfa: sp 16 +
STACK CFI INIT 4ad84 30 .cfa: sp 0 + .ra: lr
STACK CFI 4ad8c .cfa: sp 4 + .ra: .cfa -4 + ^
STACK CFI 4ad94 .cfa: sp 16 +
STACK CFI INIT 4adb4 34 .cfa: sp 0 + .ra: lr
STACK CFI 4adc4 .cfa: sp 8 + .ra: .cfa -4 + ^ r4: .cfa -8 + ^
STACK CFI INIT 4ade8 1c .cfa: sp 0 + .ra: lr
STACK CFI 4adec .cfa: sp 8 + .ra: .cfa -4 + ^ r4: .cfa -8 + ^
STACK CFI INIT 4ae04 d4 .cfa: sp 0 + .ra: lr
STACK CFI 4ae08 .cfa: sp 36 + .ra: .cfa -4 + ^ r10: .cfa -12 + ^ r11: .cfa -8 + ^ r4: .cfa -36 + ^ r5: .cfa -32 + ^ r6: .cfa -28 + ^ r7: .cfa -24 + ^ r8: .cfa -20 + ^ r9: .cfa -16 + ^
STACK CFI 4ae0c .cfa: sp 48 +
STACK CFI INIT 4aed8 55c .cfa: sp 0 + .ra: lr
STACK CFI 4aedc .cfa: sp 36 + .ra: .cfa -4 + ^ r10: .cfa -12 + ^ r11: .cfa -8 + ^ r4: .cfa -36 + ^ r5: .cfa -32 + ^ r6: .cfa -28 + ^ r7: .cfa -24 + ^ r8: .cfa -20 + ^ r9: .cfa -16 + ^
STACK CFI 4aee0 .cfa: sp 128 +
STACK CFI INIT 4b434 21c .cfa: sp 0 + .ra: lr
STACK CFI 4b438 .cfa: sp 36 + .ra: .cfa -4 + ^ r10: .cfa -12 + ^ r11: .cfa -8 + ^ r4: .cfa -36 + ^ r5: .cfa -32 + ^ r6: .cfa -28 + ^ r7: .cfa -24 + ^ r8: .cfa -20 + ^ r9: .cfa -16 + ^
STACK CFI 4b43c .cfa: sp 80 +
STACK CFI INIT 4b650 1ac .cfa: sp 0 + .ra: lr
STACK CFI 4b658 .cfa: sp 16 + .ra: .cfa -4 + ^ r4: .cfa -16 + ^ r5: .cfa -12 + ^ r6: .cfa -8 + ^
STACK CFI 4b670 .cfa: sp 24 +
STACK CFI INIT 4b7fc 20 .cfa: sp 0 + .ra: lr
STACK CFI 4b804 .cfa: sp 8 + .ra: .cfa -4 + ^ r3: .cfa -8 + ^
STACK CFI INIT 4b81c 20 .cfa: sp 0 + .ra: lr
STACK CFI 4b824 .cfa: sp 8 + .ra: .cfa -4 + ^ r3: .cfa -8 + ^
STACK CFI INIT 4b83c 1d0 .cfa: sp 0 + .ra: lr
STACK CFI 4b844 .cfa: sp 12 + r4: .cfa -12 + ^ r5: .cfa -8 + ^ r6: .cfa -4 + ^
STACK CFI INIT 4ba0c 6c .cfa: sp 0 + .ra: lr
STACK CFI 4ba18 .cfa: sp 12 + r4: .cfa -12 + ^ r5: .cfa -8 + ^ r6: .cfa -4 + ^
STACK CFI INIT 4ba78 13c .cfa: sp 0 + .ra: lr
STACK CFI 4ba7c .cfa: sp 32 + .ra: .cfa -4 + ^ r3: .cfa -32 + ^ r4: .cfa -28 + ^ r5: .cfa -24 + ^ r6: .cfa -20 + ^ r7: .cfa -16 + ^ r8: .cfa -12 + ^ r9: .cfa -8 + ^
STACK CFI INIT 4bbb4 58 .cfa: sp 0 + .ra: lr
STACK CFI INIT 4bc0c f4 .cfa: sp 0 + .ra: lr
STACK CFI 4bc10 .cfa: sp 24 + .ra: .cfa -4 + ^ r4: .cfa -24 + ^ r5: .cfa -20 + ^ r6: .cfa -16 + ^ r7: .cfa -12 + ^ r8: .cfa -8 + ^
STACK CFI INIT 4bd00 244 .cfa: sp 0 + .ra: lr
STACK CFI 4bd08 .cfa: sp 24 + r4: .cfa -24 + ^ r5: .cfa -20 + ^ r6: .cfa -16 + ^ r7: .cfa -12 + ^ r8: .cfa -8 + ^ r9: .cfa -4 + ^
STACK CFI INIT 4bf44 5c .cfa: sp 0 + .ra: lr
STACK CFI 4bf4c .cfa: sp 16 + .ra: .cfa -4 + ^ r4: .cfa -16 + ^ r5: .cfa -12 + ^ r6: .cfa -8 + ^
STACK CFI INIT 4bfa0 7c .cfa: sp 0 + .ra: lr
STACK CFI 4bfa8 .cfa: sp 8 + r4: .cfa -8 + ^ r5: .cfa -4 + ^
STACK CFI INIT 4c01c 60 .cfa: sp 0 + .ra: lr
STACK CFI 4c028 .cfa: sp 8 + .ra: .cfa -4 + ^ r4: .cfa -8 + ^
STACK CFI INIT 4c07c 54 .cfa: sp 0 + .ra: lr
STACK CFI 4c084 .cfa: sp 8 + .ra: .cfa -4 + ^ r4: .cfa -8 + ^
STACK CFI INIT 4c0d0 80 .cfa: sp 0 + .ra: lr
STACK CFI 4c0d4 .cfa: sp 16 + .ra: .cfa -4 + ^ r3: .cfa -16 + ^ r4: .cfa -12 + ^ r5: .cfa -8 + ^
STACK CFI INIT 4c150 34 .cfa: sp 0 + .ra: lr
STACK CFI 4c154 .cfa: sp 8 + .ra: .cfa -4 + ^ r3: .cfa -8 + ^
STACK CFI INIT 4c184 f8 .cfa: sp 0 + .ra: lr
STACK CFI 4c188 .cfa: sp 16 + .ra: .cfa -4 + ^ r4: .cfa -16 + ^ r5: .cfa -12 + ^ r6: .cfa -8 + ^
STACK CFI INIT 4c27c 9c .cfa: sp 0 + .ra: lr
STACK CFI 4c284 .cfa: sp 16 + .ra: .cfa -4 + ^ r3: .cfa -16 + ^ r4: .cfa -12 + ^ r5: .cfa -8 + ^
STACK CFI INIT 4c318 88 .cfa: sp 0 + .ra: lr
STACK CFI INIT 4c3a0 19c .cfa: sp 0 + .ra: lr
STACK CFI 4c3a4 .cfa: sp 16 + .ra: .cfa -4 + ^ r3: .cfa -16 + ^ r4: .cfa -12 + ^ r5: .cfa -8 + ^
STACK CFI INIT 4c53c cc .cfa: sp 0 + .ra: lr
STACK CFI 4c544 .cfa: sp 24 + .ra: .cfa -4 + ^ r4: .cfa -24 + ^ r5: .cfa -20 + ^ r6: .cfa -16 + ^ r7: .cfa -12 + ^ r8: .cfa -8 + ^
STACK CFI INIT 4c608 158 .cfa: sp 0 + .ra: lr
STACK CFI 4c60c .cfa: sp 24 + .ra: .cfa -4 + ^ r3: .cfa -24 + ^ r4: .cfa -20 + ^ r5: .cfa -16 + ^ r6: .cfa -12 + ^ r7: .cfa -8 + ^
STACK CFI INIT 4c760 170 .cfa: sp 0 + .ra: lr
STACK CFI 4c768 .cfa: sp 16 + .ra: .cfa -4 + ^ r4: .cfa -16 + ^ r5: .cfa -12 + ^ r6: .cfa -8 + ^
STACK CFI 4c770 .cfa: sp 24 +
STACK CFI INIT 4c8d0 4b0 .cfa: sp 0 + .ra: lr
STACK CFI 4c8d8 .cfa: sp 24 + .ra: .cfa -4 + ^ r4: .cfa -24 + ^ r5: .cfa -20 + ^ r6: .cfa -16 + ^ r7: .cfa -12 + ^ r8: .cfa -8 + ^
STACK CFI 4c8e0 .cfa: sp 32 +
STACK CFI INIT 4cd80 b78 .cfa: sp 0 + .ra: lr
STACK CFI 4cd88 .cfa: sp 20 + .ra: .cfa -4 + ^ r4: .cfa -20 + ^ r5: .cfa -16 + ^ r6: .cfa -12 + ^ r7: .cfa -8 + ^
STACK CFI 4cd90 .cfa: sp 32 +
STACK CFI INIT 4d8f8 108 .cfa: sp 0 + .ra: lr
STACK CFI 4d900 .cfa: sp 12 + .ra: .cfa -4 + ^ r4: .cfa -12 + ^ r5: .cfa -8 + ^
STACK CFI 4d908 .cfa: sp 24 +
STACK CFI INIT 4da00 68 .cfa: sp 0 + .ra: lr
STACK CFI 4da08 .cfa: sp 16 + .ra: .cfa -4 + ^ r4: .cfa -16 + ^ r5: .cfa -12 + ^ r6: .cfa -8 + ^
STACK CFI INIT 4da68 874 .cfa: sp 0 + .ra: lr
STACK CFI 4da70 .cfa: sp 32 + .ra: .cfa -4 + ^ r10: .cfa -8 + ^ r4: .cfa -32 + ^ r5: .cfa -28 + ^ r6: .cfa -24 + ^ r7: .cfa -20 + ^ r8: .cfa -16 + ^ r9: .cfa -12 + ^
STACK CFI INIT 4e2dc 198 .cfa: sp 0 + .ra: lr
STACK CFI 4e2e4 .cfa: sp 24 + .ra: .cfa -4 + ^ r4: .cfa -24 + ^ r5: .cfa -20 + ^ r6: .cfa -16 + ^ r7: .cfa -12 + ^ r8: .cfa -8 + ^
STACK CFI INIT 4e474 474 .cfa: sp 0 + .ra: lr
STACK CFI 4e47c .cfa: sp 24 + .ra: .cfa -4 + ^ r4: .cfa -24 + ^ r5: .cfa -20 + ^ r6: .cfa -16 + ^ r7: .cfa -12 + ^ r8: .cfa -8 + ^
STACK CFI INIT 4e8e8 620 .cfa: sp 0 + .ra: lr
STACK CFI 4e8f0 .cfa: sp 24 + .ra: .cfa -4 + ^ r4: .cfa -24 + ^ r5: .cfa -20 + ^ r6: .cfa -16 + ^ r7: .cfa -12 + ^ r8: .cfa -8 + ^
STACK CFI INIT 4ef08 ac .cfa: sp 0 + .ra: lr
STACK CFI 4ef10 .cfa: sp 16 + .ra: .cfa -4 + ^ r4: .cfa -16 + ^ r5: .cfa -12 + ^ r6: .cfa -8 + ^
STACK CFI 4ef1c .cfa: sp 24 +
STACK CFI INIT 4efb4 84 .cfa: sp 0 + .ra: lr
STACK CFI 4efb8 .cfa: sp 24 + .ra: .cfa -4 + ^ r4: .cfa -24 + ^ r5: .cfa -20 + ^ r6: .cfa -16 + ^ r7: .cfa -12 + ^ r8: .cfa -8 + ^
STACK CFI INIT 4f038 3580 .cfa: sp 0 + .ra: lr
STACK CFI 4f040 .cfa: sp 36 + .ra: .cfa -4 + ^ r10: .cfa -12 + ^ r11: .cfa -8 + ^ r4: .cfa -36 + ^ r5: .cfa -32 + ^ r6: .cfa -28 + ^ r7: .cfa -24 + ^ r8: .cfa -20 + ^ r9: .cfa -16 + ^
STACK CFI 4f048 .cfa: sp 128 +
STACK CFI INIT 525b8 20 .cfa: sp 0 + .ra: lr
STACK CFI INIT 525d8 778 .cfa: sp 0 + .ra: lr
STACK CFI 525e0 .cfa: sp 32 + .ra: .cfa -4 + ^ r10: .cfa -8 + ^ r4: .cfa -32 + ^ r5: .cfa -28 + ^ r6: .cfa -24 + ^ r7: .cfa -20 + ^ r8: .cfa -16 + ^ r9: .cfa -12 + ^
STACK CFI INIT 52d50 398 .cfa: sp 0 + .ra: lr
STACK CFI 52d54 .cfa: sp 36 + .ra: .cfa -4 + ^ r10: .cfa -12 + ^ r11: .cfa -8 + ^ r4: .cfa -36 + ^ r5: .cfa -32 + ^ r6: .cfa -28 + ^ r7: .cfa -24 + ^ r8: .cfa -20 + ^ r9: .cfa -16 + ^
STACK CFI 52d5c .cfa: sp 72 +
STACK CFI INIT 530e8 264 .cfa: sp 0 + .ra: lr
STACK CFI 530ec .cfa: sp 40 + .ra: .cfa -4 + ^ r10: .cfa -12 + ^ r11: .cfa -8 + ^ r3: .cfa -40 + ^ r4: .cfa -36 + ^ r5: .cfa -32 + ^ r6: .cfa -28 + ^ r7: .cfa -24 + ^ r8: .cfa -20 + ^ r9: .cfa -16 + ^
STACK CFI INIT 5334c 2d8 .cfa: sp 0 + .ra: lr
STACK CFI 53350 .cfa: sp 32 + .ra: .cfa -4 + ^ r3: .cfa -32 + ^ r4: .cfa -28 + ^ r5: .cfa -24 + ^ r6: .cfa -20 + ^ r7: .cfa -16 + ^ r8: .cfa -12 + ^ r9: .cfa -8 + ^
STACK CFI INIT 53624 238 .cfa: sp 0 + .ra: lr
STACK CFI 53628 .cfa: sp 24 + .ra: .cfa -4 + ^ r4: .cfa -24 + ^ r5: .cfa -20 + ^ r6: .cfa -16 + ^ r7: .cfa -12 + ^ r8: .cfa -8 + ^
STACK CFI 53634 .cfa: sp 32 +
STACK CFI INIT 5385c a4 .cfa: sp 0 + .ra: lr
STACK CFI 53864 .cfa: sp 32 + .ra: .cfa -4 + ^ r3: .cfa -32 + ^ r4: .cfa -28 + ^ r5: .cfa -24 + ^ r6: .cfa -20 + ^ r7: .cfa -16 + ^ r8: .cfa -12 + ^ r9: .cfa -8 + ^
STACK CFI INIT 53900 110 .cfa: sp 0 + .ra: lr
STACK CFI 53904 .cfa: sp 24 + .ra: .cfa -4 + ^ r3: .cfa -24 + ^ r4: .cfa -20 + ^ r5: .cfa -16 + ^ r6: .cfa -12 + ^ r7: .cfa -8 + ^
STACK CFI INIT 53a10 31c .cfa: sp 0 + .ra: lr
STACK CFI 53a14 .cfa: sp 32 + .ra: .cfa -4 + ^ r11: .cfa -8 + ^ r4: .cfa -32 + ^ r5: .cfa -28 + ^ r6: .cfa -24 + ^ r7: .cfa -20 + ^ r8: .cfa -16 + ^ r9: .cfa -12 + ^
STACK CFI 53a18 .cfa: r11 4 +
STACK CFI INIT 53d2c 14c .cfa: sp 0 + .ra: lr
STACK CFI 53d34 .cfa: sp 24 + .ra: .cfa -4 + ^ r4: .cfa -24 + ^ r5: .cfa -20 + ^ r6: .cfa -16 + ^ r7: .cfa -12 + ^ r8: .cfa -8 + ^
STACK CFI 53d3c .cfa: sp 40 +
STACK CFI INIT 53e78 2c .cfa: sp 0 + .ra: lr
STACK CFI 53e84 .cfa: sp 8 + .ra: .cfa -4 + ^ r3: .cfa -8 + ^
STACK CFI INIT 47b7c 10 .cfa: sp 0 + .ra: lr
STACK CFI INIT 47b8c 10 .cfa: sp 0 + .ra: lr
STACK CFI INIT 47b9c 34 .cfa: sp 0 + .ra: lr
STACK CFI 47bac .cfa: sp 8 + .ra: .cfa -4 + ^ r4: .cfa -8 + ^
STACK CFI INIT 47c04 3c .cfa: sp 0 + .ra: lr
STACK CFI 47c14 .cfa: sp 8 + .ra: .cfa -4 + ^ r4: .cfa -8 + ^
STACK CFI INIT 47bd0 34 .cfa: sp 0 + .ra: lr
STACK CFI 47be0 .cfa: sp 8 + .ra: .cfa -4 + ^ r4: .cfa -8 + ^
STACK CFI INIT 47c40 3c .cfa: sp 0 + .ra: lr
STACK CFI 47c50 .cfa: sp 8 + .ra: .cfa -4 + ^ r4: .cfa -8 + ^
STACK CFI INIT 47c7c 48 .cfa: sp 0 + .ra: lr
STACK CFI 47c80 .cfa: sp 8 + .ra: .cfa -4 + ^ r3: .cfa -8 + ^
STACK CFI INIT 47cc4 48 .cfa: sp 0 + .ra: lr
STACK CFI 47cc8 .cfa: sp 8 + .ra: .cfa -4 + ^ r3: .cfa -8 + ^
STACK CFI INIT 53ea4 54 .cfa: sp 0 + .ra: lr
STACK CFI 53eb4 .cfa: sp 8 + .ra: .cfa -4 + ^ r4: .cfa -8 + ^
STACK CFI INIT 53ef8 148 .cfa: sp 0 + .ra: lr
STACK CFI 53efc .cfa: sp 24 + .ra: .cfa -4 + ^ r4: .cfa -24 + ^ r5: .cfa -20 + ^ r6: .cfa -16 + ^ r7: .cfa -12 + ^ r8: .cfa -8 + ^
STACK CFI INIT 0 14 .cfa: sp 0 + .ra: lr
STACK CFI INIT 0 14 .cfa: sp 0 + .ra: lr
STACK CFI INIT 0 c .cfa: sp 0 + .ra: lr
STACK CFI INIT 0 10 .cfa: sp 0 + .ra: lr
STACK CFI INIT 0 8 .cfa: sp 0 + .ra: lr
STACK CFI INIT 0 8 .cfa: sp 0 + .ra: lr
STACK CFI INIT 54040 74 .cfa: sp 0 + .ra: lr
STACK CFI 54048 .cfa: sp 8 + r4: .cfa -8 + ^ r5: .cfa -4 + ^
STACK CFI INIT 0 108 .cfa: sp 0 + .ra: lr
STACK CFI 4 .cfa: sp 32 + .ra: .cfa -4 + ^ r3: .cfa -32 + ^ r4: .cfa -28 + ^ r5: .cfa -24 + ^ r6: .cfa -20 + ^ r7: .cfa -16 + ^ r8: .cfa -12 + ^ r9: .cfa -8 + ^
STACK CFI INIT 0 1a0 .cfa: sp 0 + .ra: lr
STACK CFI 4 .cfa: sp 20 + .ra: .cfa -4 + ^ r4: .cfa -20 + ^ r5: .cfa -16 + ^ r6: .cfa -12 + ^ r7: .cfa -8 + ^
STACK CFI 18 .cfa: sp 32 +
STACK CFI INIT 0 14 .cfa: sp 0 + .ra: lr
STACK CFI INIT 0 8 .cfa: sp 0 + .ra: lr
STACK CFI INIT 0 8 .cfa: sp 0 + .ra: lr
STACK CFI INIT 0 14 .cfa: sp 0 + .ra: lr
STACK CFI INIT 0 14 .cfa: sp 0 + .ra: lr
STACK CFI INIT 0 8 .cfa: sp 0 + .ra: lr
STACK CFI INIT 0 8 .cfa: sp 0 + .ra: lr
STACK CFI INIT 0 c .cfa: sp 0 + .ra: lr
STACK CFI INIT 0 c .cfa: sp 0 + .ra: lr
STACK CFI INIT 0 144 .cfa: sp 0 + .ra: lr
STACK CFI 4 .cfa: sp 32 + .ra: .cfa -4 + ^ r10: .cfa -8 + ^ r4: .cfa -32 + ^ r5: .cfa -28 + ^ r6: .cfa -24 + ^ r7: .cfa -20 + ^ r8: .cfa -16 + ^ r9: .cfa -12 + ^
STACK CFI INIT 0 40 .cfa: sp 0 + .ra: lr
STACK CFI 4 .cfa: sp 4 + r4: .cfa -4 + ^
STACK CFI INIT 0 10 .cfa: sp 0 + .ra: lr
STACK CFI INIT 0 50 .cfa: sp 0 + .ra: lr
STACK CFI 4 .cfa: sp 12 + r4: .cfa -12 + ^ r5: .cfa -8 + ^ r6: .cfa -4 + ^
STACK CFI INIT 0 c .cfa: sp 0 + .ra: lr
STACK CFI INIT 0 14 .cfa: sp 0 + .ra: lr
STACK CFI INIT 0 8 .cfa: sp 0 + .ra: lr
STACK CFI INIT 0 8 .cfa: sp 0 + .ra: lr
STACK CFI INIT 0 14 .cfa: sp 0 + .ra: lr
STACK CFI INIT 0 14 .cfa: sp 0 + .ra: lr
STACK CFI INIT 0 8 .cfa: sp 0 + .ra: lr
STACK CFI INIT 0 8 .cfa: sp 0 + .ra: lr
STACK CFI INIT 0 c .cfa: sp 0 + .ra: lr
STACK CFI INIT 0 c .cfa: sp 0 + .ra: lr
STACK CFI INIT 0 144 .cfa: sp 0 + .ra: lr
STACK CFI 4 .cfa: sp 32 + .ra: .cfa -4 + ^ r10: .cfa -8 + ^ r4: .cfa -32 + ^ r5: .cfa -28 + ^ r6: .cfa -24 + ^ r7: .cfa -20 + ^ r8: .cfa -16 + ^ r9: .cfa -12 + ^
STACK CFI INIT 0 40 .cfa: sp 0 + .ra: lr
STACK CFI 4 .cfa: sp 4 + r4: .cfa -4 + ^
STACK CFI INIT 0 10 .cfa: sp 0 + .ra: lr
STACK CFI INIT 0 50 .cfa: sp 0 + .ra: lr
STACK CFI 4 .cfa: sp 12 + r4: .cfa -12 + ^ r5: .cfa -8 + ^ r6: .cfa -4 + ^
STACK CFI INIT 0 c .cfa: sp 0 + .ra: lr
STACK CFI INIT 0 14 .cfa: sp 0 + .ra: lr
STACK CFI INIT 0 8 .cfa: sp 0 + .ra: lr
STACK CFI INIT 0 8 .cfa: sp 0 + .ra: lr
STACK CFI INIT 0 c .cfa: sp 0 + .ra: lr
STACK CFI INIT 0 44 .cfa: sp 0 + .ra: lr
STACK CFI 4 .cfa: sp 4 + r4: .cfa -4 + ^
STACK CFI INIT 540b4 3c .cfa: sp 0 + .ra: lr
STACK CFI INIT 540f0 248 .cfa: sp 0 + .ra: lr
STACK CFI 540f4 .cfa: sp 32 + .ra: .cfa -4 + ^ r10: .cfa -8 + ^ r4: .cfa -32 + ^ r5: .cfa -28 + ^ r6: .cfa -24 + ^ r7: .cfa -20 + ^ r8: .cfa -16 + ^ r9: .cfa -12 + ^
STACK CFI 54104 .cfa: sp 40 +
STACK CFI INIT 0 c .cfa: sp 0 + .ra: lr
STACK CFI INIT 0 f0 .cfa: sp 0 + .ra: lr
STACK CFI 4 .cfa: sp 24 + .ra: .cfa -4 + ^ r4: .cfa -24 + ^ r5: .cfa -20 + ^ r6: .cfa -16 + ^ r7: .cfa -12 + ^ r8: .cfa -8 + ^
STACK CFI 18 .cfa: sp 32 +
STACK CFI INIT 0 4 .cfa: sp 0 + .ra: lr
STACK CFI INIT 0 4 .cfa: sp 0 + .ra: lr
STACK CFI INIT 0 4 .cfa: sp 0 + .ra: lr
STACK CFI INIT 0 8 .cfa: sp 0 + .ra: lr
STACK CFI INIT 0 8 .cfa: sp 0 + .ra: lr
STACK CFI INIT 0 8 .cfa: sp 0 + .ra: lr
STACK CFI INIT 0 10 .cfa: sp 0 + .ra: lr
STACK CFI INIT 0 4 .cfa: sp 0 + .ra: lr
STACK CFI INIT 0 f0 .cfa: sp 0 + .ra: lr
STACK CFI 4 .cfa: sp 24 + .ra: .cfa -4 + ^ r4: .cfa -24 + ^ r5: .cfa -20 + ^ r6: .cfa -16 + ^ r7: .cfa -12 + ^ r8: .cfa -8 + ^
STACK CFI 18 .cfa: sp 32 +
STACK CFI INIT 0 4 .cfa: sp 0 + .ra: lr
STACK CFI INIT 0 4 .cfa: sp 0 + .ra: lr
STACK CFI INIT 0 4 .cfa: sp 0 + .ra: lr
STACK CFI INIT 0 8 .cfa: sp 0 + .ra: lr
STACK CFI INIT 0 8 .cfa: sp 0 + .ra: lr
STACK CFI INIT 0 8 .cfa: sp 0 + .ra: lr
STACK CFI INIT 0 10 .cfa: sp 0 + .ra: lr
STACK CFI INIT 0 4 .cfa: sp 0 + .ra: lr
STACK CFI INIT 0 c0 .cfa: sp 0 + .ra: lr
STACK CFI 10 .cfa: sp 16 + r4: .cfa -16 + ^ r5: .cfa -12 + ^ r6: .cfa -8 + ^ r7: .cfa -4 + ^
STACK CFI INIT 0 58 .cfa: sp 0 + .ra: lr
STACK CFI INIT 0 218 .cfa: sp 0 + .ra: lr
STACK CFI 4 .cfa: sp 40 + .ra: .cfa -4 + ^ r10: .cfa -12 + ^ r11: .cfa -8 + ^ r3: .cfa -40 + ^ r4: .cfa -36 + ^ r5: .cfa -32 + ^ r6: .cfa -28 + ^ r7: .cfa -24 + ^ r8: .cfa -20 + ^ r9: .cfa -16 + ^
STACK CFI INIT 0 2a8 .cfa: sp 0 + .ra: lr
STACK CFI 4 .cfa: sp 24 + .ra: .cfa -4 + ^ r4: .cfa -24 + ^ r5: .cfa -20 + ^ r6: .cfa -16 + ^ r7: .cfa -12 + ^ r8: .cfa -8 + ^
STACK CFI 18 .cfa: sp 40 +
STACK CFI INIT 0 240 .cfa: sp 0 + .ra: lr
STACK CFI 4 .cfa: sp 40 + .ra: .cfa -4 + ^ r10: .cfa -12 + ^ r11: .cfa -8 + ^ r3: .cfa -40 + ^ r4: .cfa -36 + ^ r5: .cfa -32 + ^ r6: .cfa -28 + ^ r7: .cfa -24 + ^ r8: .cfa -20 + ^ r9: .cfa -16 + ^
STACK CFI INIT 0 2c0 .cfa: sp 0 + .ra: lr
STACK CFI 4 .cfa: sp 24 + .ra: .cfa -4 + ^ r4: .cfa -24 + ^ r5: .cfa -20 + ^ r6: .cfa -16 + ^ r7: .cfa -12 + ^ r8: .cfa -8 + ^
STACK CFI 10 .cfa: sp 40 +
STACK CFI INIT 0 2bc .cfa: sp 0 + .ra: lr
STACK CFI 4 .cfa: sp 24 + .ra: .cfa -4 + ^ r4: .cfa -24 + ^ r5: .cfa -20 + ^ r6: .cfa -16 + ^ r7: .cfa -12 + ^ r8: .cfa -8 + ^
STACK CFI 10 .cfa: sp 40 +
STACK CFI INIT 0 c0 .cfa: sp 0 + .ra: lr
STACK CFI 10 .cfa: sp 16 + r4: .cfa -16 + ^ r5: .cfa -12 + ^ r6: .cfa -8 + ^ r7: .cfa -4 + ^
STACK CFI INIT 0 58 .cfa: sp 0 + .ra: lr
STACK CFI INIT 0 218 .cfa: sp 0 + .ra: lr
STACK CFI 4 .cfa: sp 40 + .ra: .cfa -4 + ^ r10: .cfa -12 + ^ r11: .cfa -8 + ^ r3: .cfa -40 + ^ r4: .cfa -36 + ^ r5: .cfa -32 + ^ r6: .cfa -28 + ^ r7: .cfa -24 + ^ r8: .cfa -20 + ^ r9: .cfa -16 + ^
STACK CFI INIT 0 2a8 .cfa: sp 0 + .ra: lr
STACK CFI 4 .cfa: sp 24 + .ra: .cfa -4 + ^ r4: .cfa -24 + ^ r5: .cfa -20 + ^ r6: .cfa -16 + ^ r7: .cfa -12 + ^ r8: .cfa -8 + ^
STACK CFI 18 .cfa: sp 40 +
STACK CFI INIT 0 240 .cfa: sp 0 + .ra: lr
STACK CFI 4 .cfa: sp 40 + .ra: .cfa -4 + ^ r10: .cfa -12 + ^ r11: .cfa -8 + ^ r3: .cfa -40 + ^ r4: .cfa -36 + ^ r5: .cfa -32 + ^ r6: .cfa -28 + ^ r7: .cfa -24 + ^ r8: .cfa -20 + ^ r9: .cfa -16 + ^
STACK CFI INIT 0 2c8 .cfa: sp 0 + .ra: lr
STACK CFI 4 .cfa: sp 24 + .ra: .cfa -4 + ^ r4: .cfa -24 + ^ r5: .cfa -20 + ^ r6: .cfa -16 + ^ r7: .cfa -12 + ^ r8: .cfa -8 + ^
STACK CFI 10 .cfa: sp 40 +
STACK CFI INIT 0 2c8 .cfa: sp 0 + .ra: lr
STACK CFI 4 .cfa: sp 24 + .ra: .cfa -4 + ^ r4: .cfa -24 + ^ r5: .cfa -20 + ^ r6: .cfa -16 + ^ r7: .cfa -12 + ^ r8: .cfa -8 + ^
STACK CFI 10 .cfa: sp 40 +
STACK CFI INIT 45db4 1a0 .cfa: sp 0 + .ra: lr
STACK CFI 45dc4 .cfa: sp 4 + r4: .cfa -4 + ^
STACK CFI INIT 47b7c 10 .cfa: sp 0 + .ra: lr
STACK CFI INIT 47b8c 10 .cfa: sp 0 + .ra: lr
STACK CFI INIT 47b9c 34 .cfa: sp 0 + .ra: lr
STACK CFI 47bac .cfa: sp 8 + .ra: .cfa -4 + ^ r4: .cfa -8 + ^
STACK CFI INIT 47c04 3c .cfa: sp 0 + .ra: lr
STACK CFI 47c14 .cfa: sp 8 + .ra: .cfa -4 + ^ r4: .cfa -8 + ^
STACK CFI INIT 47bd0 34 .cfa: sp 0 + .ra: lr
STACK CFI 47be0 .cfa: sp 8 + .ra: .cfa -4 + ^ r4: .cfa -8 + ^
STACK CFI INIT 47c40 3c .cfa: sp 0 + .ra: lr
STACK CFI 47c50 .cfa: sp 8 + .ra: .cfa -4 + ^ r4: .cfa -8 + ^
STACK CFI INIT 47c7c 48 .cfa: sp 0 + .ra: lr
STACK CFI 47c80 .cfa: sp 8 + .ra: .cfa -4 + ^ r3: .cfa -8 + ^
STACK CFI INIT 47cc4 48 .cfa: sp 0 + .ra: lr
STACK CFI 47cc8 .cfa: sp 8 + .ra: .cfa -4 + ^ r3: .cfa -8 + ^
STACK CFI INIT 53ea4 54 .cfa: sp 0 + .ra: lr
STACK CFI 53eb4 .cfa: sp 8 + .ra: .cfa -4 + ^ r4: .cfa -8 + ^
STACK CFI INIT 54338 2c .cfa: sp 0 + .ra: lr
STACK CFI INIT 54364 6c .cfa: sp 0 + .ra: lr
STACK CFI 54368 .cfa: sp 16 + .ra: .cfa -4 + ^ r3: .cfa -16 + ^ r4: .cfa -12 + ^ r5: .cfa -8 + ^
STACK CFI INIT 543d0 1ac .cfa: sp 0 + .ra: lr
STACK CFI 543d8 .cfa: sp 36 + .ra: .cfa -4 + ^ r10: .cfa -12 + ^ r11: .cfa -8 + ^ r4: .cfa -36 + ^ r5: .cfa -32 + ^ r6: .cfa -28 + ^ r7: .cfa -24 + ^ r8: .cfa -20 + ^ r9: .cfa -16 + ^
STACK CFI 54408 .cfa: sp 48 +
STACK CFI INIT 5457c 90 .cfa: sp 0 + .ra: lr
STACK CFI 54580 .cfa: sp 20 + .ra: .cfa -4 + ^ r4: .cfa -20 + ^ r5: .cfa -16 + ^ r6: .cfa -12 + ^ r7: .cfa -8 + ^
STACK CFI 54584 .cfa: sp 32 +
STACK CFI INIT 0 4 .cfa: sp 0 + .ra: lr
STACK CFI INIT 0 4 .cfa: sp 0 + .ra: lr
STACK CFI INIT 0 4 .cfa: sp 0 + .ra: lr
STACK CFI INIT 0 8 .cfa: sp 0 + .ra: lr
STACK CFI INIT 0 8 .cfa: sp 0 + .ra: lr
STACK CFI INIT 0 8 .cfa: sp 0 + .ra: lr
STACK CFI INIT 0 10 .cfa: sp 0 + .ra: lr
STACK CFI INIT 0 4 .cfa: sp 0 + .ra: lr
STACK CFI INIT 0 184 .cfa: sp 0 + .ra: lr
STACK CFI 4 .cfa: sp 24 + .ra: .cfa -4 + ^ r4: .cfa -24 + ^ r5: .cfa -20 + ^ r6: .cfa -16 + ^ r7: .cfa -12 + ^ r8: .cfa -8 + ^
STACK CFI 10 .cfa: sp 32 +
STACK CFI INIT 0 cc .cfa: sp 0 + .ra: lr
STACK CFI 4 .cfa: sp 24 + .ra: .cfa -4 + ^ r3: .cfa -24 + ^ r4: .cfa -20 + ^ r5: .cfa -16 + ^ r6: .cfa -12 + ^ r7: .cfa -8 + ^
STACK CFI INIT 0 4 .cfa: sp 0 + .ra: lr
STACK CFI INIT 0 4 .cfa: sp 0 + .ra: lr
STACK CFI INIT 0 4 .cfa: sp 0 + .ra: lr
STACK CFI INIT 0 8 .cfa: sp 0 + .ra: lr
STACK CFI INIT 0 8 .cfa: sp 0 + .ra: lr
STACK CFI INIT 0 8 .cfa: sp 0 + .ra: lr
STACK CFI INIT 0 10 .cfa: sp 0 + .ra: lr
STACK CFI INIT 0 4 .cfa: sp 0 + .ra: lr
STACK CFI INIT 0 194 .cfa: sp 0 + .ra: lr
STACK CFI 4 .cfa: sp 24 + .ra: .cfa -4 + ^ r4: .cfa -24 + ^ r5: .cfa -20 + ^ r6: .cfa -16 + ^ r7: .cfa -12 + ^ r8: .cfa -8 + ^
STACK CFI 10 .cfa: sp 32 +
STACK CFI INIT 0 cc .cfa: sp 0 + .ra: lr
STACK CFI 4 .cfa: sp 24 + .ra: .cfa -4 + ^ r3: .cfa -24 + ^ r4: .cfa -20 + ^ r5: .cfa -16 + ^ r6: .cfa -12 + ^ r7: .cfa -8 + ^
STACK CFI INIT 47b7c 10 .cfa: sp 0 + .ra: lr
STACK CFI INIT 47b8c 10 .cfa: sp 0 + .ra: lr
STACK CFI INIT 5460c 34 .cfa: sp 0 + .ra: lr
STACK CFI 54614 .cfa: sp 8 + .ra: .cfa -4 + ^ r4: .cfa -8 + ^
STACK CFI INIT 47b9c 34 .cfa: sp 0 + .ra: lr
STACK CFI 47bac .cfa: sp 8 + .ra: .cfa -4 + ^ r4: .cfa -8 + ^
STACK CFI INIT 47c04 3c .cfa: sp 0 + .ra: lr
STACK CFI 47c14 .cfa: sp 8 + .ra: .cfa -4 + ^ r4: .cfa -8 + ^
STACK CFI INIT 47bd0 34 .cfa: sp 0 + .ra: lr
STACK CFI 47be0 .cfa: sp 8 + .ra: .cfa -4 + ^ r4: .cfa -8 + ^
STACK CFI INIT 47c40 3c .cfa: sp 0 + .ra: lr
STACK CFI 47c50 .cfa: sp 8 + .ra: .cfa -4 + ^ r4: .cfa -8 + ^
STACK CFI INIT 54640 70 .cfa: sp 0 + .ra: lr
STACK CFI 54644 .cfa: sp 8 + .ra: .cfa -4 + ^ r4: .cfa -8 + ^
STACK CFI INIT 546b0 6c .cfa: sp 0 + .ra: lr
STACK CFI 546b4 .cfa: sp 16 + .ra: .cfa -4 + ^ r3: .cfa -16 + ^ r4: .cfa -12 + ^ r5: .cfa -8 + ^
STACK CFI INIT 47c7c 48 .cfa: sp 0 + .ra: lr
STACK CFI 47c80 .cfa: sp 8 + .ra: .cfa -4 + ^ r3: .cfa -8 + ^
STACK CFI INIT 47cc4 48 .cfa: sp 0 + .ra: lr
STACK CFI 47cc8 .cfa: sp 8 + .ra: .cfa -4 + ^ r3: .cfa -8 + ^
STACK CFI INIT 5471c a4 .cfa: sp 0 + .ra: lr
STACK CFI 54720 .cfa: sp 24 + .ra: .cfa -4 + ^ r3: .cfa -24 + ^ r4: .cfa -20 + ^ r5: .cfa -16 + ^ r6: .cfa -12 + ^ r7: .cfa -8 + ^
STACK CFI INIT 53ea4 54 .cfa: sp 0 + .ra: lr
STACK CFI 53eb4 .cfa: sp 8 + .ra: .cfa -4 + ^ r4: .cfa -8 + ^
STACK CFI INIT 547c0 88 .cfa: sp 0 + .ra: lr
STACK CFI 547c4 .cfa: sp 32 + .ra: .cfa -4 + ^ r3: .cfa -32 + ^ r4: .cfa -28 + ^ r5: .cfa -24 + ^ r6: .cfa -20 + ^ r7: .cfa -16 + ^ r8: .cfa -12 + ^ r9: .cfa -8 + ^
STACK CFI INIT 54848 2c .cfa: sp 0 + .ra: lr
STACK CFI INIT 54874 b0 .cfa: sp 0 + .ra: lr
STACK CFI 54880 .cfa: sp 32 + .ra: .cfa -4 + ^ r10: .cfa -8 + ^ r4: .cfa -32 + ^ r5: .cfa -28 + ^ r6: .cfa -24 + ^ r7: .cfa -20 + ^ r8: .cfa -16 + ^ r9: .cfa -12 + ^
STACK CFI INIT 54924 fc .cfa: sp 0 + .ra: lr
STACK CFI 54928 .cfa: sp 24 + .ra: .cfa -4 + ^ r3: .cfa -24 + ^ r4: .cfa -20 + ^ r5: .cfa -16 + ^ r6: .cfa -12 + ^ r7: .cfa -8 + ^
STACK CFI INIT 54a20 124 .cfa: sp 0 + .ra: lr
STACK CFI 54a30 .cfa: sp 24 + .ra: .cfa -4 + ^ r4: .cfa -24 + ^ r5: .cfa -20 + ^ r6: .cfa -16 + ^ r7: .cfa -12 + ^ r8: .cfa -8 + ^
STACK CFI INIT 54b44 230 .cfa: sp 0 + .ra: lr
STACK CFI 54b48 .cfa: sp 40 + .ra: .cfa -4 + ^ r10: .cfa -12 + ^ r11: .cfa -8 + ^ r3: .cfa -40 + ^ r4: .cfa -36 + ^ r5: .cfa -32 + ^ r6: .cfa -28 + ^ r7: .cfa -24 + ^ r8: .cfa -20 + ^ r9: .cfa -16 + ^
STACK CFI INIT 54d74 340 .cfa: sp 0 + .ra: lr
STACK CFI 54d7c .cfa: sp 36 + .ra: .cfa -4 + ^ r10: .cfa -12 + ^ r11: .cfa -8 + ^ r4: .cfa -36 + ^ r5: .cfa -32 + ^ r6: .cfa -28 + ^ r7: .cfa -24 + ^ r8: .cfa -20 + ^ r9: .cfa -16 + ^
STACK CFI 54d88 .cfa: sp 56 +
STACK CFI INIT 0 108 .cfa: sp 0 + .ra: lr
STACK CFI 4 .cfa: sp 24 + .ra: .cfa -4 + ^ r3: .cfa -24 + ^ r4: .cfa -20 + ^ r5: .cfa -16 + ^ r6: .cfa -12 + ^ r7: .cfa -8 + ^
STACK CFI INIT 0 d4 .cfa: sp 0 + .ra: lr
STACK CFI 4 .cfa: sp 16 + .ra: .cfa -4 + ^ r4: .cfa -16 + ^ r5: .cfa -12 + ^ r6: .cfa -8 + ^
STACK CFI INIT 550b4 b8 .cfa: sp 0 + .ra: lr
STACK CFI 550b8 .cfa: sp 24 + .ra: .cfa -4 + ^ r3: .cfa -24 + ^ r4: .cfa -20 + ^ r5: .cfa -16 + ^ r6: .cfa -12 + ^ r7: .cfa -8 + ^
STACK CFI INIT 5516c 204 .cfa: sp 0 + .ra: lr
STACK CFI 55178 .cfa: sp 36 + .ra: .cfa -4 + ^ r10: .cfa -12 + ^ r11: .cfa -8 + ^ r4: .cfa -36 + ^ r5: .cfa -32 + ^ r6: .cfa -28 + ^ r7: .cfa -24 + ^ r8: .cfa -20 + ^ r9: .cfa -16 + ^
STACK CFI 551a4 .cfa: sp 64 +
STACK CFI INIT 55370 4 .cfa: sp 0 + .ra: lr
STACK CFI INIT 55374 340 .cfa: sp 0 + .ra: lr
STACK CFI 5537c .cfa: sp 36 + .ra: .cfa -4 + ^ r10: .cfa -12 + ^ r11: .cfa -8 + ^ r4: .cfa -36 + ^ r5: .cfa -32 + ^ r6: .cfa -28 + ^ r7: .cfa -24 + ^ r8: .cfa -20 + ^ r9: .cfa -16 + ^
STACK CFI 55388 .cfa: sp 56 +
STACK CFI INIT 0 4 .cfa: sp 0 + .ra: lr
STACK CFI INIT 0 4 .cfa: sp 0 + .ra: lr
STACK CFI INIT 0 4 .cfa: sp 0 + .ra: lr
STACK CFI INIT 0 198 .cfa: sp 0 + .ra: lr
STACK CFI 4 .cfa: sp 24 + .ra: .cfa -4 + ^ r4: .cfa -24 + ^ r5: .cfa -20 + ^ r6: .cfa -16 + ^ r7: .cfa -12 + ^ r8: .cfa -8 + ^
STACK CFI INIT 0 100 .cfa: sp 0 + .ra: lr
STACK CFI 4 .cfa: sp 24 + .ra: .cfa -4 + ^ r4: .cfa -24 + ^ r5: .cfa -20 + ^ r6: .cfa -16 + ^ r7: .cfa -12 + ^ r8: .cfa -8 + ^
STACK CFI INIT 0 dc .cfa: sp 0 + .ra: lr
STACK CFI 4 .cfa: sp 24 + .ra: .cfa -4 + ^ r3: .cfa -24 + ^ r4: .cfa -20 + ^ r5: .cfa -16 + ^ r6: .cfa -12 + ^ r7: .cfa -8 + ^
STACK CFI INIT 0 120 .cfa: sp 0 + .ra: lr
STACK CFI 4 .cfa: sp 16 +
STACK CFI 8 .cfa: sp 36 + .ra: .cfa -20 + ^ r4: .cfa -36 + ^ r5: .cfa -32 + ^ r6: .cfa -28 + ^ r7: .cfa -24 + ^
STACK CFI 10 .cfa: sp 72 +
STACK CFI INIT 0 4 .cfa: sp 0 + .ra: lr
STACK CFI INIT 0 4 .cfa: sp 0 + .ra: lr
STACK CFI INIT 0 4 .cfa: sp 0 + .ra: lr
STACK CFI INIT 0 1a8 .cfa: sp 0 + .ra: lr
STACK CFI 4 .cfa: sp 24 + .ra: .cfa -4 + ^ r4: .cfa -24 + ^ r5: .cfa -20 + ^ r6: .cfa -16 + ^ r7: .cfa -12 + ^ r8: .cfa -8 + ^
STACK CFI INIT 0 100 .cfa: sp 0 + .ra: lr
STACK CFI 4 .cfa: sp 24 + .ra: .cfa -4 + ^ r4: .cfa -24 + ^ r5: .cfa -20 + ^ r6: .cfa -16 + ^ r7: .cfa -12 + ^ r8: .cfa -8 + ^
STACK CFI INIT 0 dc .cfa: sp 0 + .ra: lr
STACK CFI 4 .cfa: sp 24 + .ra: .cfa -4 + ^ r3: .cfa -24 + ^ r4: .cfa -20 + ^ r5: .cfa -16 + ^ r6: .cfa -12 + ^ r7: .cfa -8 + ^
STACK CFI INIT 0 120 .cfa: sp 0 + .ra: lr
STACK CFI 4 .cfa: sp 16 +
STACK CFI 8 .cfa: sp 36 + .ra: .cfa -20 + ^ r4: .cfa -36 + ^ r5: .cfa -32 + ^ r6: .cfa -28 + ^ r7: .cfa -24 + ^
STACK CFI 10 .cfa: sp 72 +
STACK CFI INIT 556b4 1c .cfa: sp 0 + .ra: lr
STACK CFI INIT 556d0 10 .cfa: sp 0 + .ra: lr
STACK CFI INIT 556e0 1c .cfa: sp 0 + .ra: lr
STACK CFI INIT 556fc 8 .cfa: sp 0 + .ra: lr
STACK CFI INIT 55704 8 .cfa: sp 0 + .ra: lr
STACK CFI INIT 5570c 14 .cfa: sp 0 + .ra: lr
STACK CFI INIT 55720 8 .cfa: sp 0 + .ra: lr
STACK CFI INIT 55728 10 .cfa: sp 0 + .ra: lr
STACK CFI INIT 55738 8 .cfa: sp 0 + .ra: lr
STACK CFI INIT 55740 6c .cfa: sp 0 + .ra: lr
STACK CFI 55744 .cfa: sp 16 + .ra: .cfa -4 + ^ r3: .cfa -16 + ^ r4: .cfa -12 + ^ r5: .cfa -8 + ^
STACK CFI INIT 557ac 1c .cfa: sp 0 + .ra: lr
STACK CFI 557b0 .cfa: sp 8 + .ra: .cfa -4 + ^ r4: .cfa -8 + ^
STACK CFI INIT 557c8 6c .cfa: sp 0 + .ra: lr
STACK CFI 557cc .cfa: sp 16 + .ra: .cfa -4 + ^ r3: .cfa -16 + ^ r4: .cfa -12 + ^ r5: .cfa -8 + ^
STACK CFI INIT 55834 1c .cfa: sp 0 + .ra: lr
STACK CFI 55838 .cfa: sp 8 + .ra: .cfa -4 + ^ r4: .cfa -8 + ^
STACK CFI INIT 55850 74 .cfa: sp 0 + .ra: lr
STACK CFI 55868 .cfa: sp 8 + .ra: .cfa -4 + ^ r4: .cfa -8 + ^
STACK CFI 55880 .cfa: sp 16 +
STACK CFI INIT 558c4 54 .cfa: sp 0 + .ra: lr
STACK CFI 558cc .cfa: sp 8 + .ra: .cfa -4 + ^ r4: .cfa -8 + ^
STACK CFI 558d4 .cfa: sp 16 +
STACK CFI INIT 55918 74 .cfa: sp 0 + .ra: lr
STACK CFI 55930 .cfa: sp 8 + .ra: .cfa -4 + ^ r4: .cfa -8 + ^
STACK CFI 55948 .cfa: sp 16 +
STACK CFI INIT 5598c 54 .cfa: sp 0 + .ra: lr
STACK CFI 55994 .cfa: sp 8 + .ra: .cfa -4 + ^ r4: .cfa -8 + ^
STACK CFI 5599c .cfa: sp 16 +
STACK CFI INIT 559e0 b8 .cfa: sp 0 + .ra: lr
STACK CFI 559e4 .cfa: sp 16 + .ra: .cfa -4 + ^ r4: .cfa -16 + ^ r5: .cfa -12 + ^ r6: .cfa -8 + ^
STACK CFI 55a14 .cfa: sp 24 +
STACK CFI INIT 55a98 b8 .cfa: sp 0 + .ra: lr
STACK CFI 55a9c .cfa: sp 16 + .ra: .cfa -4 + ^ r4: .cfa -16 + ^ r5: .cfa -12 + ^ r6: .cfa -8 + ^
STACK CFI 55acc .cfa: sp 24 +
STACK CFI INIT 55b50 c0 .cfa: sp 0 + .ra: lr
STACK CFI 55b54 .cfa: sp 16 + .ra: .cfa -4 + ^ r4: .cfa -16 + ^ r5: .cfa -12 + ^ r6: .cfa -8 + ^
STACK CFI 55b84 .cfa: sp 24 +
STACK CFI INIT 55c10 c0 .cfa: sp 0 + .ra: lr
STACK CFI 55c14 .cfa: sp 16 + .ra: .cfa -4 + ^ r4: .cfa -16 + ^ r5: .cfa -12 + ^ r6: .cfa -8 + ^
STACK CFI 55c44 .cfa: sp 24 +
STACK CFI INIT 55cd0 d4 .cfa: sp 0 + .ra: lr
STACK CFI 55cd4 .cfa: sp 16 + .ra: .cfa -4 + ^ r4: .cfa -16 + ^ r5: .cfa -12 + ^ r6: .cfa -8 + ^
STACK CFI 55cd8 .cfa: sp 32 +
STACK CFI INIT 55da4 4cc .cfa: sp 0 + .ra: lr
STACK CFI 55da8 .cfa: sp 36 + .ra: .cfa -4 + ^ r10: .cfa -12 + ^ r11: .cfa -8 + ^ r4: .cfa -36 + ^ r5: .cfa -32 + ^ r6: .cfa -28 + ^ r7: .cfa -24 + ^ r8: .cfa -20 + ^ r9: .cfa -16 + ^
STACK CFI 55dac .cfa: sp 272 +
STACK CFI INIT 56270 d8 .cfa: sp 0 + .ra: lr
STACK CFI 56274 .cfa: sp 20 + .ra: .cfa -4 + ^ r4: .cfa -20 + ^ r5: .cfa -16 + ^ r6: .cfa -12 + ^ r7: .cfa -8 + ^
STACK CFI 56278 .cfa: sp 48 +
STACK CFI INIT 56348 494 .cfa: sp 0 + .ra: lr
STACK CFI 5634c .cfa: sp 36 + .ra: .cfa -4 + ^ r10: .cfa -12 + ^ r11: .cfa -8 + ^ r4: .cfa -36 + ^ r5: .cfa -32 + ^ r6: .cfa -28 + ^ r7: .cfa -24 + ^ r8: .cfa -20 + ^ r9: .cfa -16 + ^
STACK CFI 56350 .cfa: sp 264 +
STACK CFI INIT 567dc d8 .cfa: sp 0 + .ra: lr
STACK CFI 567e0 .cfa: sp 20 + .ra: .cfa -4 + ^ r4: .cfa -20 + ^ r5: .cfa -16 + ^ r6: .cfa -12 + ^ r7: .cfa -8 + ^
STACK CFI 567e4 .cfa: sp 48 +
STACK CFI INIT 568b4 494 .cfa: sp 0 + .ra: lr
STACK CFI 568b8 .cfa: sp 36 + .ra: .cfa -4 + ^ r10: .cfa -12 + ^ r11: .cfa -8 + ^ r4: .cfa -36 + ^ r5: .cfa -32 + ^ r6: .cfa -28 + ^ r7: .cfa -24 + ^ r8: .cfa -20 + ^ r9: .cfa -16 + ^
STACK CFI 568bc .cfa: sp 264 +
STACK CFI INIT 56d48 d4 .cfa: sp 0 + .ra: lr
STACK CFI 56d4c .cfa: sp 16 + .ra: .cfa -4 + ^ r4: .cfa -16 + ^ r5: .cfa -12 + ^ r6: .cfa -8 + ^
STACK CFI 56d50 .cfa: sp 32 +
STACK CFI INIT 56e1c 550 .cfa: sp 0 + .ra: lr
STACK CFI 56e20 .cfa: sp 36 + .ra: .cfa -4 + ^ r10: .cfa -12 + ^ r11: .cfa -8 + ^ r4: .cfa -36 + ^ r5: .cfa -32 + ^ r6: .cfa -28 + ^ r7: .cfa -24 + ^ r8: .cfa -20 + ^ r9: .cfa -16 + ^
STACK CFI 56e24 .cfa: sp 288 +
STACK CFI INIT 5736c d8 .cfa: sp 0 + .ra: lr
STACK CFI 57370 .cfa: sp 20 + .ra: .cfa -4 + ^ r4: .cfa -20 + ^ r5: .cfa -16 + ^ r6: .cfa -12 + ^ r7: .cfa -8 + ^
STACK CFI 57374 .cfa: sp 48 +
STACK CFI INIT 57444 528 .cfa: sp 0 + .ra: lr
STACK CFI 57448 .cfa: sp 36 + .ra: .cfa -4 + ^ r10: .cfa -12 + ^ r11: .cfa -8 + ^ r4: .cfa -36 + ^ r5: .cfa -32 + ^ r6: .cfa -28 + ^ r7: .cfa -24 + ^ r8: .cfa -20 + ^ r9: .cfa -16 + ^
STACK CFI 5744c .cfa: sp 288 +
STACK CFI INIT 5796c d8 .cfa: sp 0 + .ra: lr
STACK CFI 57970 .cfa: sp 20 + .ra: .cfa -4 + ^ r4: .cfa -20 + ^ r5: .cfa -16 + ^ r6: .cfa -12 + ^ r7: .cfa -8 + ^
STACK CFI 57974 .cfa: sp 48 +
STACK CFI INIT 57a44 528 .cfa: sp 0 + .ra: lr
STACK CFI 57a48 .cfa: sp 36 + .ra: .cfa -4 + ^ r10: .cfa -12 + ^ r11: .cfa -8 + ^ r4: .cfa -36 + ^ r5: .cfa -32 + ^ r6: .cfa -28 + ^ r7: .cfa -24 + ^ r8: .cfa -20 + ^ r9: .cfa -16 + ^
STACK CFI 57a4c .cfa: sp 288 +
STACK CFI INIT 57f6c 8 .cfa: sp 0 + .ra: lr
STACK CFI INIT 57f74 8 .cfa: sp 0 + .ra: lr
STACK CFI INIT 57f7c 1c .cfa: sp 0 + .ra: lr
STACK CFI 57f80 .cfa: sp 8 + .ra: .cfa -4 + ^ r4: .cfa -8 + ^
STACK CFI INIT 57f98 1c .cfa: sp 0 + .ra: lr
STACK CFI 57f9c .cfa: sp 8 + .ra: .cfa -4 + ^ r4: .cfa -8 + ^
STACK CFI INIT 57fb4 6c .cfa: sp 0 + .ra: lr
STACK CFI 57fb8 .cfa: sp 16 + .ra: .cfa -4 + ^ r3: .cfa -16 + ^ r4: .cfa -12 + ^ r5: .cfa -8 + ^
STACK CFI INIT 58020 34 .cfa: sp 0 + .ra: lr
STACK CFI 58030 .cfa: sp 8 + .ra: .cfa -4 + ^ r4: .cfa -8 + ^
STACK CFI INIT 58054 64 .cfa: sp 0 + .ra: lr
STACK CFI 58064 .cfa: sp 8 + .ra: .cfa -4 + ^ r4: .cfa -8 + ^
STACK CFI INIT 580b8 1c .cfa: sp 0 + .ra: lr
STACK CFI 580bc .cfa: sp 8 + .ra: .cfa -4 + ^ r4: .cfa -8 + ^
STACK CFI INIT 580d4 1c .cfa: sp 0 + .ra: lr
STACK CFI 580d8 .cfa: sp 8 + .ra: .cfa -4 + ^ r4: .cfa -8 + ^
STACK CFI INIT 580f0 1c .cfa: sp 0 + .ra: lr
STACK CFI 580f4 .cfa: sp 8 + .ra: .cfa -4 + ^ r4: .cfa -8 + ^
STACK CFI INIT 5810c b4 .cfa: sp 0 + .ra: lr
STACK CFI 58110 .cfa: sp 24 + .ra: .cfa -4 + ^ r4: .cfa -24 + ^ r5: .cfa -20 + ^ r6: .cfa -16 + ^ r7: .cfa -12 + ^ r8: .cfa -8 + ^
STACK CFI 58114 .cfa: sp 296 +
STACK CFI INIT 581c0 70 .cfa: sp 0 + .ra: lr
STACK CFI 581c4 .cfa: sp 20 + .ra: .cfa -4 + ^ r4: .cfa -20 + ^ r5: .cfa -16 + ^ r6: .cfa -12 + ^ r7: .cfa -8 + ^
STACK CFI 581c8 .cfa: sp 280 +
STACK CFI INIT 58230 84 .cfa: sp 0 + .ra: lr
STACK CFI 58248 .cfa: sp 8 + .ra: .cfa -4 + ^ r4: .cfa -8 + ^
STACK CFI 58260 .cfa: sp 16 +
STACK CFI INIT 582b4 64 .cfa: sp 0 + .ra: lr
STACK CFI 582bc .cfa: sp 8 + .ra: .cfa -4 + ^ r4: .cfa -8 + ^
STACK CFI 582c4 .cfa: sp 16 +
STACK CFI INIT 58318 ac .cfa: sp 0 + .ra: lr
STACK CFI 5831c .cfa: sp 16 + .ra: .cfa -4 + ^ r4: .cfa -16 + ^ r5: .cfa -12 + ^ r6: .cfa -8 + ^
STACK CFI INIT 583c4 f0 .cfa: sp 0 + .ra: lr
STACK CFI 583c8 .cfa: sp 16 + .ra: .cfa -4 + ^ r4: .cfa -16 + ^ r5: .cfa -12 + ^ r6: .cfa -8 + ^
STACK CFI 583d4 .cfa: sp 24 +
STACK CFI INIT 584b4 40 .cfa: sp 0 + .ra: lr
STACK CFI INIT 584f4 40 .cfa: sp 0 + .ra: lr
STACK CFI INIT 58534 40 .cfa: sp 0 + .ra: lr
STACK CFI INIT 58574 40 .cfa: sp 0 + .ra: lr
STACK CFI INIT 585b4 8c .cfa: sp 0 + .ra: lr
STACK CFI 585bc .cfa: sp 16 + .ra: .cfa -4 + ^ r3: .cfa -16 + ^ r4: .cfa -12 + ^ r5: .cfa -8 + ^
STACK CFI INIT 58640 5c .cfa: sp 0 + .ra: lr
STACK CFI 58644 .cfa: sp 8 + .ra: .cfa -4 + ^ r3: .cfa -8 + ^
STACK CFI INIT 5869c 30 .cfa: sp 0 + .ra: lr
STACK CFI 586a0 .cfa: sp 16 + .ra: .cfa -4 + ^ r4: .cfa -16 + ^ r5: .cfa -12 + ^ r6: .cfa -8 + ^
STACK CFI INIT 586cc 17c .cfa: sp 0 + .ra: lr
STACK CFI 586d4 .cfa: sp 28 + .ra: .cfa -4 + ^ r4: .cfa -28 + ^ r5: .cfa -24 + ^ r6: .cfa -20 + ^ r7: .cfa -16 + ^ r8: .cfa -12 + ^ r9: .cfa -8 + ^
STACK CFI 586dc .cfa: sp 40 +
STACK CFI INIT 58848 58 .cfa: sp 0 + .ra: lr
STACK CFI 5884c .cfa: sp 16 + .ra: .cfa -4 + ^ r4: .cfa -16 + ^ r5: .cfa -12 + ^ r6: .cfa -8 + ^
STACK CFI INIT 588a0 7c .cfa: sp 0 + .ra: lr
STACK CFI 588a4 .cfa: sp 16 + .ra: .cfa -4 + ^ r4: .cfa -16 + ^ r5: .cfa -12 + ^ r6: .cfa -8 + ^
STACK CFI INIT 5891c 6c .cfa: sp 0 + .ra: lr
STACK CFI 5892c .cfa: sp 8 + .ra: .cfa -4 + ^ r4: .cfa -8 + ^
STACK CFI INIT 58988 1c .cfa: sp 0 + .ra: lr
STACK CFI 5898c .cfa: sp 8 + .ra: .cfa -4 + ^ r4: .cfa -8 + ^
STACK CFI INIT 589a4 8 .cfa: sp 0 + .ra: lr
STACK CFI INIT 589ac a4 .cfa: sp 0 + .ra: lr
STACK CFI 589bc .cfa: sp 12 + .ra: .cfa -4 + ^ r4: .cfa -12 + ^ r5: .cfa -8 + ^
STACK CFI 589e4 .cfa: sp 24 +
STACK CFI INIT 58a50 1c .cfa: sp 0 + .ra: lr
STACK CFI 58a54 .cfa: sp 8 + .ra: .cfa -4 + ^ r4: .cfa -8 + ^
STACK CFI INIT 58a6c 58 .cfa: sp 0 + .ra: lr
STACK CFI 58a7c .cfa: sp 16 + .ra: .cfa -4 + ^ r4: .cfa -16 + ^ r5: .cfa -12 + ^ r6: .cfa -8 + ^
STACK CFI INIT 58ac4 724 .cfa: sp 0 + .ra: lr
STACK CFI 58ac8 .cfa: sp 36 + .ra: .cfa -4 + ^ r10: .cfa -12 + ^ r11: .cfa -8 + ^ r4: .cfa -36 + ^ r5: .cfa -32 + ^ r6: .cfa -28 + ^ r7: .cfa -24 + ^ r8: .cfa -20 + ^ r9: .cfa -16 + ^
STACK CFI 58adc .cfa: sp 72 +
STACK CFI INIT 591e8 d4 .cfa: sp 0 + .ra: lr
STACK CFI 591ec .cfa: sp 16 + .ra: .cfa -4 + ^ r3: .cfa -16 + ^ r4: .cfa -12 + ^ r5: .cfa -8 + ^
STACK CFI INIT 592bc 2d4 .cfa: sp 0 + .ra: lr
STACK CFI 592c0 .cfa: sp 28 + .ra: .cfa -4 + ^ r4: .cfa -28 + ^ r5: .cfa -24 + ^ r6: .cfa -20 + ^ r7: .cfa -16 + ^ r8: .cfa -12 + ^ r9: .cfa -8 + ^
STACK CFI 592dc .cfa: sp 40 +
STACK CFI INIT 59590 48 .cfa: sp 0 + .ra: lr
STACK CFI 59594 .cfa: sp 12 + .ra: .cfa -4 + ^ r4: .cfa -12 + ^ r5: .cfa -8 + ^
STACK CFI 5959c .cfa: sp 24 +
STACK CFI INIT 595d8 3c .cfa: sp 0 + .ra: lr
STACK CFI 595dc .cfa: sp 24 + .ra: .cfa -4 + ^ r3: .cfa -24 + ^ r4: .cfa -20 + ^ r5: .cfa -16 + ^ r6: .cfa -12 + ^ r7: .cfa -8 + ^
STACK CFI INIT 59614 9c .cfa: sp 0 + .ra: lr
STACK CFI INIT 596b0 3c .cfa: sp 0 + .ra: lr
STACK CFI 596b8 .cfa: sp 4 + r4: .cfa -4 + ^
STACK CFI INIT 596ec 20 .cfa: sp 0 + .ra: lr
STACK CFI INIT 5970c 1c .cfa: sp 0 + .ra: lr
STACK CFI INIT 59728 14 .cfa: sp 0 + .ra: lr
STACK CFI INIT 5973c 9c .cfa: sp 0 + .ra: lr
STACK CFI INIT 597d8 3c .cfa: sp 0 + .ra: lr
STACK CFI 597e0 .cfa: sp 4 + r4: .cfa -4 + ^
STACK CFI INIT 59814 20 .cfa: sp 0 + .ra: lr
STACK CFI INIT 59834 1c .cfa: sp 0 + .ra: lr
STACK CFI INIT 59850 14 .cfa: sp 0 + .ra: lr
STACK CFI INIT 59864 3c .cfa: sp 0 + .ra: lr
STACK CFI 5986c .cfa: sp 4 + r4: .cfa -4 + ^
STACK CFI INIT 598a0 20 .cfa: sp 0 + .ra: lr
STACK CFI INIT 598c0 1c .cfa: sp 0 + .ra: lr
STACK CFI INIT 598dc 14 .cfa: sp 0 + .ra: lr
STACK CFI INIT 598f0 9c .cfa: sp 0 + .ra: lr
STACK CFI INIT 5998c 3c .cfa: sp 0 + .ra: lr
STACK CFI 59994 .cfa: sp 4 + r4: .cfa -4 + ^
STACK CFI INIT 599c8 20 .cfa: sp 0 + .ra: lr
STACK CFI INIT 599e8 1c .cfa: sp 0 + .ra: lr
STACK CFI INIT 59a04 14 .cfa: sp 0 + .ra: lr
STACK CFI INIT 59a18 3c .cfa: sp 0 + .ra: lr
STACK CFI 59a20 .cfa: sp 4 + r4: .cfa -4 + ^
STACK CFI INIT 59a54 20 .cfa: sp 0 + .ra: lr
STACK CFI INIT 59a74 1c .cfa: sp 0 + .ra: lr
STACK CFI INIT 59a90 14 .cfa: sp 0 + .ra: lr
STACK CFI INIT 47b7c 10 .cfa: sp 0 + .ra: lr
STACK CFI INIT 47b8c 10 .cfa: sp 0 + .ra: lr
STACK CFI INIT 59aa4 24 .cfa: sp 0 + .ra: lr
STACK CFI INIT 59ac8 1c .cfa: sp 0 + .ra: lr
STACK CFI 59acc .cfa: sp 8 + .ra: .cfa -4 + ^ r4: .cfa -8 + ^
STACK CFI INIT 59ae4 2c .cfa: sp 0 + .ra: lr
STACK CFI INIT 47b9c 34 .cfa: sp 0 + .ra: lr
STACK CFI 47bac .cfa: sp 8 + .ra: .cfa -4 + ^ r4: .cfa -8 + ^
STACK CFI INIT 47c04 3c .cfa: sp 0 + .ra: lr
STACK CFI 47c14 .cfa: sp 8 + .ra: .cfa -4 + ^ r4: .cfa -8 + ^
STACK CFI INIT 47bd0 34 .cfa: sp 0 + .ra: lr
STACK CFI 47be0 .cfa: sp 8 + .ra: .cfa -4 + ^ r4: .cfa -8 + ^
STACK CFI INIT 47c40 3c .cfa: sp 0 + .ra: lr
STACK CFI 47c50 .cfa: sp 8 + .ra: .cfa -4 + ^ r4: .cfa -8 + ^
STACK CFI INIT 47cc4 48 .cfa: sp 0 + .ra: lr
STACK CFI 47cc8 .cfa: sp 8 + .ra: .cfa -4 + ^ r3: .cfa -8 + ^
STACK CFI INIT 59b10 50 .cfa: sp 0 + .ra: lr
STACK CFI 59b1c .cfa: sp 8 + .ra: .cfa -4 + ^ r4: .cfa -8 + ^
STACK CFI INIT 59b60 8 .cfa: sp 0 + .ra: lr
STACK CFI INIT 59b68 2ac .cfa: sp 0 + .ra: lr
STACK CFI 59b6c .cfa: sp 36 + .ra: .cfa -4 + ^ r10: .cfa -12 + ^ r11: .cfa -8 + ^ r4: .cfa -36 + ^ r5: .cfa -32 + ^ r6: .cfa -28 + ^ r7: .cfa -24 + ^ r8: .cfa -20 + ^ r9: .cfa -16 + ^
STACK CFI 59b94 .cfa: sp 56 +
STACK CFI INIT 59e14 1e8 .cfa: sp 0 + .ra: lr
STACK CFI 59e20 .cfa: sp 32 + .ra: .cfa -4 + ^ r10: .cfa -8 + ^ r4: .cfa -32 + ^ r5: .cfa -28 + ^ r6: .cfa -24 + ^ r7: .cfa -20 + ^ r8: .cfa -16 + ^ r9: .cfa -12 + ^
STACK CFI 59e2c .cfa: sp 48 +
STACK CFI INIT 59ffc 84 .cfa: sp 0 + .ra: lr
STACK CFI 5a004 .cfa: sp 8 + .ra: .cfa -4 + ^ r3: .cfa -8 + ^
STACK CFI INIT 5a080 70 .cfa: sp 0 + .ra: lr
STACK CFI 5a084 .cfa: sp 8 + .ra: .cfa -4 + ^ r4: .cfa -8 + ^
STACK CFI INIT 5a0f0 1c .cfa: sp 0 + .ra: lr
STACK CFI INIT 5a10c 1b4 .cfa: sp 0 + .ra: lr
STACK CFI 5a110 .cfa: sp 24 + .ra: .cfa -4 + ^ r3: .cfa -24 + ^ r4: .cfa -20 + ^ r5: .cfa -16 + ^ r6: .cfa -12 + ^ r7: .cfa -8 + ^
STACK CFI INIT 5a2c0 a4 .cfa: sp 0 + .ra: lr
STACK CFI 5a2d0 .cfa: sp 16 + .ra: .cfa -4 + ^ r4: .cfa -16 + ^ r5: .cfa -12 + ^ r6: .cfa -8 + ^
STACK CFI INIT 5a364 78 .cfa: sp 0 + .ra: lr
STACK CFI 5a368 .cfa: sp 16 + .ra: .cfa -4 + ^ r3: .cfa -16 + ^ r4: .cfa -12 + ^ r5: .cfa -8 + ^
STACK CFI INIT 5a3dc 1ec .cfa: sp 0 + .ra: lr
STACK CFI 5a3e0 .cfa: sp 24 + .ra: .cfa -4 + ^ r4: .cfa -24 + ^ r5: .cfa -20 + ^ r6: .cfa -16 + ^ r7: .cfa -12 + ^ r8: .cfa -8 + ^
STACK CFI INIT 5a5c8 18c .cfa: sp 0 + .ra: lr
STACK CFI 5a5cc .cfa: sp 32 + .ra: .cfa -4 + ^ r3: .cfa -32 + ^ r4: .cfa -28 + ^ r5: .cfa -24 + ^ r6: .cfa -20 + ^ r7: .cfa -16 + ^ r8: .cfa -12 + ^ r9: .cfa -8 + ^
STACK CFI INIT 5a754 6c .cfa: sp 0 + .ra: lr
STACK CFI 5a758 .cfa: sp 8 + .ra: .cfa -4 + ^ r4: .cfa -8 + ^
STACK CFI INIT 5a7c0 2b0 .cfa: sp 0 + .ra: lr
STACK CFI 5a7c4 .cfa: sp 40 + .ra: .cfa -4 + ^ r10: .cfa -12 + ^ r11: .cfa -8 + ^ r3: .cfa -40 + ^ r4: .cfa -36 + ^ r5: .cfa -32 + ^ r6: .cfa -28 + ^ r7: .cfa -24 + ^ r8: .cfa -20 + ^ r9: .cfa -16 + ^
STACK CFI INIT 5aa70 58 .cfa: sp 0 + .ra: lr
STACK CFI 5aa74 .cfa: sp 16 + .ra: .cfa -4 + ^ r4: .cfa -16 + ^ r5: .cfa -12 + ^ r6: .cfa -8 + ^
STACK CFI INIT 5aac8 38 .cfa: sp 0 + .ra: lr
STACK CFI 5aacc .cfa: sp 16 + .ra: .cfa -4 + ^ r4: .cfa -16 + ^ r5: .cfa -12 + ^ r6: .cfa -8 + ^
STACK CFI INIT 47b7c 10 .cfa: sp 0 + .ra: lr
STACK CFI INIT 47b8c 10 .cfa: sp 0 + .ra: lr
STACK CFI INIT 47b9c 34 .cfa: sp 0 + .ra: lr
STACK CFI 47bac .cfa: sp 8 + .ra: .cfa -4 + ^ r4: .cfa -8 + ^
STACK CFI INIT 47bd0 34 .cfa: sp 0 + .ra: lr
STACK CFI 47be0 .cfa: sp 8 + .ra: .cfa -4 + ^ r4: .cfa -8 + ^
STACK CFI INIT 47c04 3c .cfa: sp 0 + .ra: lr
STACK CFI 47c14 .cfa: sp 8 + .ra: .cfa -4 + ^ r4: .cfa -8 + ^
STACK CFI INIT 47c40 3c .cfa: sp 0 + .ra: lr
STACK CFI 47c50 .cfa: sp 8 + .ra: .cfa -4 + ^ r4: .cfa -8 + ^
STACK CFI INIT 5ab00 6c .cfa: sp 0 + .ra: lr
STACK CFI 5ab04 .cfa: sp 16 + .ra: .cfa -4 + ^ r3: .cfa -16 + ^ r4: .cfa -12 + ^ r5: .cfa -8 + ^
STACK CFI INIT 47c7c 48 .cfa: sp 0 + .ra: lr
STACK CFI 47c80 .cfa: sp 8 + .ra: .cfa -4 + ^ r3: .cfa -8 + ^
STACK CFI INIT 47cc4 48 .cfa: sp 0 + .ra: lr
STACK CFI 47cc8 .cfa: sp 8 + .ra: .cfa -4 + ^ r3: .cfa -8 + ^
STACK CFI INIT 5ab6c ea0 .cfa: sp 0 + .ra: lr
STACK CFI 5ab70 .cfa: sp 36 + .ra: .cfa -4 + ^ r10: .cfa -12 + ^ r11: .cfa -8 + ^ r4: .cfa -36 + ^ r5: .cfa -32 + ^ r6: .cfa -28 + ^ r7: .cfa -24 + ^ r8: .cfa -20 + ^ r9: .cfa -16 + ^
STACK CFI 5ab9c .cfa: sp 48 +
STACK CFI INIT 5ba0c 4c .cfa: sp 0 + .ra: lr
STACK CFI 5ba10 .cfa: sp 8 + .ra: .cfa -4 + ^ r4: .cfa -8 + ^
STACK CFI INIT 5ba58 60 .cfa: sp 0 + .ra: lr
STACK CFI 5ba5c .cfa: sp 8 + .ra: .cfa -4 + ^ r4: .cfa -8 + ^
STACK CFI INIT 5bab8 104 .cfa: sp 0 + .ra: lr
STACK CFI 5babc .cfa: sp 24 + .ra: .cfa -4 + ^ r3: .cfa -24 + ^ r4: .cfa -20 + ^ r5: .cfa -16 + ^ r6: .cfa -12 + ^ r7: .cfa -8 + ^
STACK CFI INIT 5bbbc 40 .cfa: sp 0 + .ra: lr
STACK CFI 5bbc0 .cfa: sp 8 + .ra: .cfa -4 + ^ r4: .cfa -8 + ^
STACK CFI INIT 5bbfc 198 .cfa: sp 0 + .ra: lr
STACK CFI 5bc00 .cfa: sp 36 + .ra: .cfa -4 + ^ r10: .cfa -12 + ^ r11: .cfa -8 + ^ r4: .cfa -36 + ^ r5: .cfa -32 + ^ r6: .cfa -28 + ^ r7: .cfa -24 + ^ r8: .cfa -20 + ^ r9: .cfa -16 + ^
STACK CFI 5bc04 .cfa: sp 48 +
STACK CFI INIT 5bd94 a8 .cfa: sp 0 + .ra: lr
STACK CFI INIT 5be3c cc .cfa: sp 0 + .ra: lr
STACK CFI 5be40 .cfa: sp 12 + r4: .cfa -12 + ^ r5: .cfa -8 + ^ r6: .cfa -4 + ^
STACK CFI INIT 5bf08 ab4 .cfa: sp 0 + .ra: lr
STACK CFI 5bf0c .cfa: sp 36 + .ra: .cfa -4 + ^ r10: .cfa -12 + ^ r11: .cfa -8 + ^ r4: .cfa -36 + ^ r5: .cfa -32 + ^ r6: .cfa -28 + ^ r7: .cfa -24 + ^ r8: .cfa -20 + ^ r9: .cfa -16 + ^
STACK CFI 5bf10 .cfa: sp 96 +
STACK CFI INIT 5c9bc 92c .cfa: sp 0 + .ra: lr
STACK CFI 5c9c0 .cfa: sp 36 + .ra: .cfa -4 + ^ r10: .cfa -12 + ^ r11: .cfa -8 + ^ r4: .cfa -36 + ^ r5: .cfa -32 + ^ r6: .cfa -28 + ^ r7: .cfa -24 + ^ r8: .cfa -20 + ^ r9: .cfa -16 + ^
STACK CFI 5c9cc .cfa: sp 80 +
STACK CFI INIT 5d2e8 1a8 .cfa: sp 0 + .ra: lr
STACK CFI 5d2ec .cfa: sp 36 + .ra: .cfa -4 + ^ r10: .cfa -12 + ^ r11: .cfa -8 + ^ r4: .cfa -36 + ^ r5: .cfa -32 + ^ r6: .cfa -28 + ^ r7: .cfa -24 + ^ r8: .cfa -20 + ^ r9: .cfa -16 + ^
STACK CFI 5d304 .cfa: sp 48 +
STACK CFI INIT 5d490 cc .cfa: sp 0 + .ra: lr
STACK CFI 5d494 .cfa: sp 24 + .ra: .cfa -4 + ^ r4: .cfa -24 + ^ r5: .cfa -20 + ^ r6: .cfa -16 + ^ r7: .cfa -12 + ^ r8: .cfa -8 + ^
STACK CFI INIT 5d55c 1c .cfa: sp 0 + .ra: lr
STACK CFI 5d564 .cfa: sp 8 + .ra: .cfa -4 + ^ r4: .cfa -8 + ^
STACK CFI INIT 5d578 60 .cfa: sp 0 + .ra: lr
STACK CFI 5d57c .cfa: sp 20 + .ra: .cfa -4 + ^ r4: .cfa -20 + ^ r5: .cfa -16 + ^ r6: .cfa -12 + ^ r7: .cfa -8 + ^
STACK CFI 5d580 .cfa: sp 32 +
STACK CFI INIT 5d5d8 8 .cfa: sp 0 + .ra: lr
STACK CFI INIT 5d5e0 8 .cfa: sp 0 + .ra: lr
STACK CFI INIT 5d5e8 a4 .cfa: sp 0 + .ra: lr
STACK CFI 5d5f8 .cfa: sp 12 + .ra: .cfa -4 + ^ r4: .cfa -12 + ^ r5: .cfa -8 + ^
STACK CFI 5d620 .cfa: sp 24 +
STACK CFI INIT 5d68c 1c .cfa: sp 0 + .ra: lr
STACK CFI 5d690 .cfa: sp 8 + .ra: .cfa -4 + ^ r4: .cfa -8 + ^
STACK CFI INIT 5d6a8 34 .cfa: sp 0 + .ra: lr
STACK CFI 5d6b8 .cfa: sp 8 + .ra: .cfa -4 + ^ r4: .cfa -8 + ^
STACK CFI INIT 5d6dc 1c .cfa: sp 0 + .ra: lr
STACK CFI 5d6e0 .cfa: sp 8 + .ra: .cfa -4 + ^ r4: .cfa -8 + ^
STACK CFI INIT 5d6f8 34 .cfa: sp 0 + .ra: lr
STACK CFI 5d708 .cfa: sp 8 + .ra: .cfa -4 + ^ r4: .cfa -8 + ^
STACK CFI INIT 5d72c 1c .cfa: sp 0 + .ra: lr
STACK CFI 5d730 .cfa: sp 8 + .ra: .cfa -4 + ^ r4: .cfa -8 + ^
STACK CFI INIT 5d748 34 .cfa: sp 0 + .ra: lr
STACK CFI 5d758 .cfa: sp 8 + .ra: .cfa -4 + ^ r4: .cfa -8 + ^
STACK CFI INIT 5d77c 1c .cfa: sp 0 + .ra: lr
STACK CFI 5d780 .cfa: sp 8 + .ra: .cfa -4 + ^ r4: .cfa -8 + ^
STACK CFI INIT 5d798 34 .cfa: sp 0 + .ra: lr
STACK CFI 5d7a8 .cfa: sp 8 + .ra: .cfa -4 + ^ r4: .cfa -8 + ^
STACK CFI INIT 5d7cc 1c .cfa: sp 0 + .ra: lr
STACK CFI 5d7d0 .cfa: sp 8 + .ra: .cfa -4 + ^ r4: .cfa -8 + ^
STACK CFI INIT 5d7e8 a4 .cfa: sp 0 + .ra: lr
STACK CFI 5d7f8 .cfa: sp 12 + .ra: .cfa -4 + ^ r4: .cfa -12 + ^ r5: .cfa -8 + ^
STACK CFI 5d820 .cfa: sp 24 +
STACK CFI INIT 5d88c 1c .cfa: sp 0 + .ra: lr
STACK CFI 5d890 .cfa: sp 8 + .ra: .cfa -4 + ^ r4: .cfa -8 + ^
STACK CFI INIT 5d8a8 34 .cfa: sp 0 + .ra: lr
STACK CFI 5d8b8 .cfa: sp 8 + .ra: .cfa -4 + ^ r4: .cfa -8 + ^
STACK CFI INIT 5d8dc 1c .cfa: sp 0 + .ra: lr
STACK CFI 5d8e0 .cfa: sp 8 + .ra: .cfa -4 + ^ r4: .cfa -8 + ^
STACK CFI INIT 5d8f8 34 .cfa: sp 0 + .ra: lr
STACK CFI 5d908 .cfa: sp 8 + .ra: .cfa -4 + ^ r4: .cfa -8 + ^
STACK CFI INIT 5d92c 1c .cfa: sp 0 + .ra: lr
STACK CFI 5d930 .cfa: sp 8 + .ra: .cfa -4 + ^ r4: .cfa -8 + ^
STACK CFI INIT 5d948 34 .cfa: sp 0 + .ra: lr
STACK CFI 5d958 .cfa: sp 8 + .ra: .cfa -4 + ^ r4: .cfa -8 + ^
STACK CFI INIT 5d97c 1c .cfa: sp 0 + .ra: lr
STACK CFI 5d980 .cfa: sp 8 + .ra: .cfa -4 + ^ r4: .cfa -8 + ^
STACK CFI INIT 5d998 40 .cfa: sp 0 + .ra: lr
STACK CFI 5d9a8 .cfa: sp 8 + .ra: .cfa -4 + ^ r4: .cfa -8 + ^
STACK CFI INIT 5d9d8 38 .cfa: sp 0 + .ra: lr
STACK CFI 5d9dc .cfa: sp 16 + .ra: .cfa -4 + ^ r3: .cfa -16 + ^ r4: .cfa -12 + ^ r5: .cfa -8 + ^
STACK CFI INIT 5da10 38 .cfa: sp 0 + .ra: lr
STACK CFI 5da14 .cfa: sp 16 + .ra: .cfa -4 + ^ r3: .cfa -16 + ^ r4: .cfa -12 + ^ r5: .cfa -8 + ^
STACK CFI INIT 5da48 38 .cfa: sp 0 + .ra: lr
STACK CFI 5da4c .cfa: sp 16 + .ra: .cfa -4 + ^ r3: .cfa -16 + ^ r4: .cfa -12 + ^ r5: .cfa -8 + ^
STACK CFI INIT 5da80 38 .cfa: sp 0 + .ra: lr
STACK CFI 5da84 .cfa: sp 16 + .ra: .cfa -4 + ^ r3: .cfa -16 + ^ r4: .cfa -12 + ^ r5: .cfa -8 + ^
STACK CFI INIT 5dab8 40 .cfa: sp 0 + .ra: lr
STACK CFI 5dac8 .cfa: sp 8 + .ra: .cfa -4 + ^ r4: .cfa -8 + ^
STACK CFI INIT 5daf8 38 .cfa: sp 0 + .ra: lr
STACK CFI 5dafc .cfa: sp 16 + .ra: .cfa -4 + ^ r3: .cfa -16 + ^ r4: .cfa -12 + ^ r5: .cfa -8 + ^
STACK CFI INIT 5db30 38 .cfa: sp 0 + .ra: lr
STACK CFI 5db34 .cfa: sp 16 + .ra: .cfa -4 + ^ r3: .cfa -16 + ^ r4: .cfa -12 + ^ r5: .cfa -8 + ^
STACK CFI INIT 5db68 38 .cfa: sp 0 + .ra: lr
STACK CFI 5db6c .cfa: sp 16 + .ra: .cfa -4 + ^ r3: .cfa -16 + ^ r4: .cfa -12 + ^ r5: .cfa -8 + ^
STACK CFI INIT 5dba0 68 .cfa: sp 0 + .ra: lr
STACK CFI INIT 5dc08 38 .cfa: sp 0 + .ra: lr
STACK CFI INIT 5dc40 4 .cfa: sp 0 + .ra: lr
STACK CFI INIT 5dc44 198 .cfa: sp 0 + .ra: lr
STACK CFI 5dc48 .cfa: sp 32 + r10: .cfa -8 + ^ r11: .cfa -4 + ^ r4: .cfa -32 + ^ r5: .cfa -28 + ^ r6: .cfa -24 + ^ r7: .cfa -20 + ^ r8: .cfa -16 + ^ r9: .cfa -12 + ^
STACK CFI INIT 5dddc 4c .cfa: sp 0 + .ra: lr
STACK CFI 5dde0 .cfa: sp 8 +
STACK CFI 5dde4 .cfa: sp 16 + .ra: .cfa -12 + ^ r4: .cfa -16 + ^
STACK CFI 5dde8 .cfa: sp 24 +
STACK CFI INIT 5de28 1c .cfa: sp 0 + .ra: lr
STACK CFI INIT 5de44 18 .cfa: sp 0 + .ra: lr
STACK CFI 5de48 .cfa: sp 8 + .ra: .cfa -4 + ^ r4: .cfa -8 + ^
STACK CFI INIT 5de5c 18 .cfa: sp 0 + .ra: lr
STACK CFI INIT 5de74 24 .cfa: sp 0 + .ra: lr
STACK CFI 5de78 .cfa: sp 8 + .ra: .cfa -4 + ^ r3: .cfa -8 + ^
STACK CFI INIT 5de98 d0 .cfa: sp 0 + .ra: lr
STACK CFI 5de9c .cfa: sp 32 + .ra: .cfa -4 + ^ r3: .cfa -32 + ^ r4: .cfa -28 + ^ r5: .cfa -24 + ^ r6: .cfa -20 + ^ r7: .cfa -16 + ^ r8: .cfa -12 + ^ r9: .cfa -8 + ^
STACK CFI INIT 5df68 d4 .cfa: sp 0 + .ra: lr
STACK CFI 5df6c .cfa: sp 32 + .ra: .cfa -4 + ^ r3: .cfa -32 + ^ r4: .cfa -28 + ^ r5: .cfa -24 + ^ r6: .cfa -20 + ^ r7: .cfa -16 + ^ r8: .cfa -12 + ^ r9: .cfa -8 + ^
STACK CFI INIT 5e03c 2c .cfa: sp 0 + .ra: lr
STACK CFI 5e044 .cfa: sp 8 + .ra: .cfa -4 + ^ r3: .cfa -8 + ^
STACK CFI INIT 5e068 88 .cfa: sp 0 + .ra: lr
STACK CFI 5e06c .cfa: sp 16 + .ra: .cfa -4 + ^ r3: .cfa -16 + ^ r4: .cfa -12 + ^ r5: .cfa -8 + ^
STACK CFI INIT 5e0f0 1c .cfa: sp 0 + .ra: lr
STACK CFI 5e0f4 .cfa: sp 8 + .ra: .cfa -4 + ^ r4: .cfa -8 + ^
STACK CFI INIT 5e10c a8 .cfa: sp 0 + .ra: lr
STACK CFI 5e110 .cfa: sp 16 + .ra: .cfa -4 + ^ r3: .cfa -16 + ^ r4: .cfa -12 + ^ r5: .cfa -8 + ^
STACK CFI INIT 5e1b4 1c .cfa: sp 0 + .ra: lr
STACK CFI 5e1b8 .cfa: sp 8 + .ra: .cfa -4 + ^ r4: .cfa -8 + ^
STACK CFI INIT 5e1d0 a0 .cfa: sp 0 + .ra: lr
STACK CFI 5e1d4 .cfa: sp 16 + .ra: .cfa -4 + ^ r3: .cfa -16 + ^ r4: .cfa -12 + ^ r5: .cfa -8 + ^
STACK CFI INIT 5e270 1c .cfa: sp 0 + .ra: lr
STACK CFI 5e274 .cfa: sp 8 + .ra: .cfa -4 + ^ r4: .cfa -8 + ^
STACK CFI INIT 5e28c c4 .cfa: sp 0 + .ra: lr
STACK CFI 5e290 .cfa: sp 16 + .ra: .cfa -4 + ^ r3: .cfa -16 + ^ r4: .cfa -12 + ^ r5: .cfa -8 + ^
STACK CFI INIT 5e350 8 .cfa: sp 0 + .ra: lr
STACK CFI INIT 5e358 1c .cfa: sp 0 + .ra: lr
STACK CFI 5e35c .cfa: sp 8 + .ra: .cfa -4 + ^ r4: .cfa -8 + ^
STACK CFI INIT 5e374 8 .cfa: sp 0 + .ra: lr
STACK CFI INIT 5e37c 110 .cfa: sp 0 + .ra: lr
STACK CFI 5e384 .cfa: sp 24 + .ra: .cfa -4 + ^ r4: .cfa -24 + ^ r5: .cfa -20 + ^ r6: .cfa -16 + ^ r7: .cfa -12 + ^ r8: .cfa -8 + ^
STACK CFI INIT 5e48c 84 .cfa: sp 0 + .ra: lr
STACK CFI 5e490 .cfa: sp 12 + .ra: .cfa -4 + ^ r4: .cfa -12 + ^ r5: .cfa -8 + ^
STACK CFI 5e498 .cfa: sp 24 +
STACK CFI INIT 5e510 98 .cfa: sp 0 + .ra: lr
STACK CFI 5e514 .cfa: sp 32 + .ra: .cfa -4 + ^ r3: .cfa -32 + ^ r4: .cfa -28 + ^ r5: .cfa -24 + ^ r6: .cfa -20 + ^ r7: .cfa -16 + ^ r8: .cfa -12 + ^ r9: .cfa -8 + ^
STACK CFI INIT 5e5a8 98 .cfa: sp 0 + .ra: lr
STACK CFI 5e5ac .cfa: sp 32 + .ra: .cfa -4 + ^ r3: .cfa -32 + ^ r4: .cfa -28 + ^ r5: .cfa -24 + ^ r6: .cfa -20 + ^ r7: .cfa -16 + ^ r8: .cfa -12 + ^ r9: .cfa -8 + ^
STACK CFI INIT 5e640 98 .cfa: sp 0 + .ra: lr
STACK CFI 5e644 .cfa: sp 32 + .ra: .cfa -4 + ^ r3: .cfa -32 + ^ r4: .cfa -28 + ^ r5: .cfa -24 + ^ r6: .cfa -20 + ^ r7: .cfa -16 + ^ r8: .cfa -12 + ^ r9: .cfa -8 + ^
STACK CFI INIT 5e6d8 98 .cfa: sp 0 + .ra: lr
STACK CFI 5e6dc .cfa: sp 24 + .ra: .cfa -4 + ^ r4: .cfa -24 + ^ r5: .cfa -20 + ^ r6: .cfa -16 + ^ r7: .cfa -12 + ^ r8: .cfa -8 + ^
STACK CFI INIT 5e770 98 .cfa: sp 0 + .ra: lr
STACK CFI 5e774 .cfa: sp 24 + .ra: .cfa -4 + ^ r4: .cfa -24 + ^ r5: .cfa -20 + ^ r6: .cfa -16 + ^ r7: .cfa -12 + ^ r8: .cfa -8 + ^
STACK CFI INIT 5e808 98 .cfa: sp 0 + .ra: lr
STACK CFI 5e80c .cfa: sp 24 + .ra: .cfa -4 + ^ r4: .cfa -24 + ^ r5: .cfa -20 + ^ r6: .cfa -16 + ^ r7: .cfa -12 + ^ r8: .cfa -8 + ^
STACK CFI INIT 5e8a0 ac .cfa: sp 0 + .ra: lr
STACK CFI 5e8a4 .cfa: sp 24 + .ra: .cfa -4 + ^ r3: .cfa -24 + ^ r4: .cfa -20 + ^ r5: .cfa -16 + ^ r6: .cfa -12 + ^ r7: .cfa -8 + ^
STACK CFI INIT 5e94c fc .cfa: sp 0 + .ra: lr
STACK CFI 5e950 .cfa: sp 24 + .ra: .cfa -4 + ^ r4: .cfa -24 + ^ r5: .cfa -20 + ^ r6: .cfa -16 + ^ r7: .cfa -12 + ^ r8: .cfa -8 + ^
STACK CFI INIT 5ea48 a8 .cfa: sp 0 + .ra: lr
STACK CFI 5ea50 .cfa: sp 24 + .ra: .cfa -4 + ^ r4: .cfa -24 + ^ r5: .cfa -20 + ^ r6: .cfa -16 + ^ r7: .cfa -12 + ^ r8: .cfa -8 + ^
STACK CFI INIT 5eaf0 f8 .cfa: sp 0 + .ra: lr
STACK CFI 5eaf4 .cfa: sp 24 + .ra: .cfa -4 + ^ r4: .cfa -24 + ^ r5: .cfa -20 + ^ r6: .cfa -16 + ^ r7: .cfa -12 + ^ r8: .cfa -8 + ^
STACK CFI INIT 5ebe8 b0 .cfa: sp 0 + .ra: lr
STACK CFI 5ebec .cfa: sp 32 + .ra: .cfa -4 + ^ r3: .cfa -32 + ^ r4: .cfa -28 + ^ r5: .cfa -24 + ^ r6: .cfa -20 + ^ r7: .cfa -16 + ^ r8: .cfa -12 + ^ r9: .cfa -8 + ^
STACK CFI INIT 5ec98 100 .cfa: sp 0 + .ra: lr
STACK CFI 5ec9c .cfa: sp 32 + .ra: .cfa -4 + ^ r3: .cfa -32 + ^ r4: .cfa -28 + ^ r5: .cfa -24 + ^ r6: .cfa -20 + ^ r7: .cfa -16 + ^ r8: .cfa -12 + ^ r9: .cfa -8 + ^
STACK CFI INIT 5ed98 a8 .cfa: sp 0 + .ra: lr
STACK CFI 5eda0 .cfa: sp 24 + .ra: .cfa -4 + ^ r4: .cfa -24 + ^ r5: .cfa -20 + ^ r6: .cfa -16 + ^ r7: .cfa -12 + ^ r8: .cfa -8 + ^
STACK CFI INIT 5ee40 fc .cfa: sp 0 + .ra: lr
STACK CFI 5ee44 .cfa: sp 32 + .ra: .cfa -4 + ^ r3: .cfa -32 + ^ r4: .cfa -28 + ^ r5: .cfa -24 + ^ r6: .cfa -20 + ^ r7: .cfa -16 + ^ r8: .cfa -12 + ^ r9: .cfa -8 + ^
STACK CFI INIT 5ef3c 6c .cfa: sp 0 + .ra: lr
STACK CFI 5ef40 .cfa: sp 16 + .ra: .cfa -4 + ^ r3: .cfa -16 + ^ r4: .cfa -12 + ^ r5: .cfa -8 + ^
STACK CFI INIT 5efa8 8 .cfa: sp 0 + .ra: lr
STACK CFI INIT 5efb0 8 .cfa: sp 0 + .ra: lr
STACK CFI INIT 5efb8 90 .cfa: sp 0 + .ra: lr
STACK CFI 5efc0 .cfa: sp 16 + .ra: .cfa -4 + ^ r4: .cfa -16 + ^ r5: .cfa -12 + ^ r6: .cfa -8 + ^
STACK CFI INIT 5f048 e8 .cfa: sp 0 + .ra: lr
STACK CFI 5f04c .cfa: sp 24 + .ra: .cfa -4 + ^ r3: .cfa -24 + ^ r4: .cfa -20 + ^ r5: .cfa -16 + ^ r6: .cfa -12 + ^ r7: .cfa -8 + ^
STACK CFI INIT 5f130 b4 .cfa: sp 0 + .ra: lr
STACK CFI 5f134 .cfa: sp 24 + .ra: .cfa -4 + ^ r4: .cfa -24 + ^ r5: .cfa -20 + ^ r6: .cfa -16 + ^ r7: .cfa -12 + ^ r8: .cfa -8 + ^
STACK CFI INIT 5f1e4 10c .cfa: sp 0 + .ra: lr
STACK CFI 5f1e8 .cfa: sp 32 + .ra: .cfa -4 + ^ r3: .cfa -32 + ^ r4: .cfa -28 + ^ r5: .cfa -24 + ^ r6: .cfa -20 + ^ r7: .cfa -16 + ^ r8: .cfa -12 + ^ r9: .cfa -8 + ^
STACK CFI INIT 5f2f0 5c .cfa: sp 0 + .ra: lr
STACK CFI 5f2f4 .cfa: sp 16 + .ra: .cfa -4 + ^ r3: .cfa -16 + ^ r4: .cfa -12 + ^ r5: .cfa -8 + ^
STACK CFI INIT 5f34c 8 .cfa: sp 0 + .ra: lr
STACK CFI INIT 5f354 8 .cfa: sp 0 + .ra: lr
STACK CFI INIT 5f35c 8 .cfa: sp 0 + .ra: lr
STACK CFI INIT 5f364 8 .cfa: sp 0 + .ra: lr
STACK CFI INIT 5f36c fc .cfa: sp 0 + .ra: lr
STACK CFI 5f374 .cfa: sp 16 + .ra: .cfa -4 + ^ r4: .cfa -16 + ^ r5: .cfa -12 + ^ r6: .cfa -8 + ^
STACK CFI INIT 5f468 13c .cfa: sp 0 + .ra: lr
STACK CFI 5f46c .cfa: sp 24 + .ra: .cfa -4 + ^ r3: .cfa -24 + ^ r4: .cfa -20 + ^ r5: .cfa -16 + ^ r6: .cfa -12 + ^ r7: .cfa -8 + ^
STACK CFI INIT 5f5a4 120 .cfa: sp 0 + .ra: lr
STACK CFI 5f5a8 .cfa: sp 32 + .ra: .cfa -4 + ^ r3: .cfa -32 + ^ r4: .cfa -28 + ^ r5: .cfa -24 + ^ r6: .cfa -20 + ^ r7: .cfa -16 + ^ r8: .cfa -12 + ^ r9: .cfa -8 + ^
STACK CFI INIT 5f6c4 160 .cfa: sp 0 + .ra: lr
STACK CFI 5f6c8 .cfa: sp 32 + .ra: .cfa -4 + ^ r3: .cfa -32 + ^ r4: .cfa -28 + ^ r5: .cfa -24 + ^ r6: .cfa -20 + ^ r7: .cfa -16 + ^ r8: .cfa -12 + ^ r9: .cfa -8 + ^
STACK CFI INIT 5f824 98 .cfa: sp 0 + .ra: lr
STACK CFI 5f828 .cfa: sp 16 + .ra: .cfa -4 + ^ r3: .cfa -16 + ^ r4: .cfa -12 + ^ r5: .cfa -8 + ^
STACK CFI INIT 5f8bc 8 .cfa: sp 0 + .ra: lr
STACK CFI INIT 5f8c4 8 .cfa: sp 0 + .ra: lr
STACK CFI INIT 5f8cc 8 .cfa: sp 0 + .ra: lr
STACK CFI INIT 5f8d4 8 .cfa: sp 0 + .ra: lr
STACK CFI INIT 5f8dc 10 .cfa: sp 0 + .ra: lr
STACK CFI INIT 5f8ec 10 .cfa: sp 0 + .ra: lr
STACK CFI INIT 5f8fc 10 .cfa: sp 0 + .ra: lr
STACK CFI INIT 5f90c 10 .cfa: sp 0 + .ra: lr
STACK CFI INIT 5f91c 10 .cfa: sp 0 + .ra: lr
STACK CFI INIT 5f92c 10 .cfa: sp 0 + .ra: lr
STACK CFI INIT 5f93c 4c .cfa: sp 0 + .ra: lr
STACK CFI INIT 5f988 4c .cfa: sp 0 + .ra: lr
STACK CFI INIT 5f9d4 7c .cfa: sp 0 + .ra: lr
STACK CFI INIT 5fa50 6c .cfa: sp 0 + .ra: lr
STACK CFI INIT 5fabc 6c .cfa: sp 0 + .ra: lr
STACK CFI INIT 5fb28 4 .cfa: sp 0 + .ra: lr
STACK CFI INIT 5fb2c 4 .cfa: sp 0 + .ra: lr
STACK CFI INIT 5fb30 4 .cfa: sp 0 + .ra: lr
STACK CFI INIT 5fb34 4 .cfa: sp 0 + .ra: lr
STACK CFI INIT 5fb38 164 .cfa: sp 0 + .ra: lr
STACK CFI 5fb3c .cfa: sp 32 + .ra: .cfa -4 + ^ r10: .cfa -8 + ^ r4: .cfa -32 + ^ r5: .cfa -28 + ^ r6: .cfa -24 + ^ r7: .cfa -20 + ^ r8: .cfa -16 + ^ r9: .cfa -12 + ^
STACK CFI INIT 5fc9c 3dc .cfa: sp 0 + .ra: lr
STACK CFI 5fca4 .cfa: sp 40 + .ra: .cfa -4 + ^ r10: .cfa -12 + ^ r11: .cfa -8 + ^ r3: .cfa -40 + ^ r4: .cfa -36 + ^ r5: .cfa -32 + ^ r6: .cfa -28 + ^ r7: .cfa -24 + ^ r8: .cfa -20 + ^ r9: .cfa -16 + ^
STACK CFI INIT 60078 30 .cfa: sp 0 + .ra: lr
STACK CFI INIT 45bc0 14 .cfa: sp 0 + .ra: lr
STACK CFI 45bc4 .cfa: sp 8 + .ra: .cfa -4 + ^ r3: .cfa -8 + ^
STACK CFI INIT 45bd4 14 .cfa: sp 0 + .ra: lr
STACK CFI 45bd8 .cfa: sp 8 + .ra: .cfa -4 + ^ r3: .cfa -8 + ^
STACK CFI INIT 45be8 14 .cfa: sp 0 + .ra: lr
STACK CFI 45bec .cfa: sp 8 + .ra: .cfa -4 + ^ r3: .cfa -8 + ^
STACK CFI INIT 45bfc 14 .cfa: sp 0 + .ra: lr
STACK CFI 45c00 .cfa: sp 8 + .ra: .cfa -4 + ^ r3: .cfa -8 + ^
STACK CFI INIT 600a8 2a4 .cfa: sp 0 + .ra: lr
STACK CFI 600ac .cfa: sp 32 + .ra: .cfa -4 + ^ r10: .cfa -8 + ^ r4: .cfa -32 + ^ r5: .cfa -28 + ^ r6: .cfa -24 + ^ r7: .cfa -20 + ^ r8: .cfa -16 + ^ r9: .cfa -12 + ^
STACK CFI 600b4 .cfa: sp 40 +
STACK CFI INIT 6034c 2a0 .cfa: sp 0 + .ra: lr
STACK CFI 60354 .cfa: sp 36 + .ra: .cfa -4 + ^ r10: .cfa -12 + ^ r11: .cfa -8 + ^ r4: .cfa -36 + ^ r5: .cfa -32 + ^ r6: .cfa -28 + ^ r7: .cfa -24 + ^ r8: .cfa -20 + ^ r9: .cfa -16 + ^
STACK CFI 6035c .cfa: sp 56 +
STACK CFI INIT 605ec 2f8 .cfa: sp 0 + .ra: lr
STACK CFI 605f0 .cfa: sp 36 + .ra: .cfa -4 + ^ r10: .cfa -12 + ^ r11: .cfa -8 + ^ r4: .cfa -36 + ^ r5: .cfa -32 + ^ r6: .cfa -28 + ^ r7: .cfa -24 + ^ r8: .cfa -20 + ^ r9: .cfa -16 + ^
STACK CFI 605f8 .cfa: sp 48 +
STACK CFI INIT 608e4 3a0 .cfa: sp 0 + .ra: lr
STACK CFI 608e8 .cfa: sp 36 + .ra: .cfa -4 + ^ r10: .cfa -12 + ^ r11: .cfa -8 + ^ r4: .cfa -36 + ^ r5: .cfa -32 + ^ r6: .cfa -28 + ^ r7: .cfa -24 + ^ r8: .cfa -20 + ^ r9: .cfa -16 + ^
STACK CFI 608f0 .cfa: sp 56 +
STACK CFI INIT 60c84 320 .cfa: sp 0 + .ra: lr
STACK CFI 60c88 .cfa: sp 36 + .ra: .cfa -4 + ^ r10: .cfa -12 + ^ r11: .cfa -8 + ^ r4: .cfa -36 + ^ r5: .cfa -32 + ^ r6: .cfa -28 + ^ r7: .cfa -24 + ^ r8: .cfa -20 + ^ r9: .cfa -16 + ^
STACK CFI 60c8c .cfa: sp 48 +
STACK CFI INIT 60fa4 2a4 .cfa: sp 0 + .ra: lr
STACK CFI 60fa8 .cfa: sp 32 + .ra: .cfa -4 + ^ r10: .cfa -8 + ^ r4: .cfa -32 + ^ r5: .cfa -28 + ^ r6: .cfa -24 + ^ r7: .cfa -20 + ^ r8: .cfa -16 + ^ r9: .cfa -12 + ^
STACK CFI 60fb0 .cfa: sp 40 +
STACK CFI INIT 61248 2a0 .cfa: sp 0 + .ra: lr
STACK CFI 61250 .cfa: sp 36 + .ra: .cfa -4 + ^ r10: .cfa -12 + ^ r11: .cfa -8 + ^ r4: .cfa -36 + ^ r5: .cfa -32 + ^ r6: .cfa -28 + ^ r7: .cfa -24 + ^ r8: .cfa -20 + ^ r9: .cfa -16 + ^
STACK CFI 61258 .cfa: sp 56 +
STACK CFI INIT 614e8 328 .cfa: sp 0 + .ra: lr
STACK CFI 614ec .cfa: sp 36 + .ra: .cfa -4 + ^ r10: .cfa -12 + ^ r11: .cfa -8 + ^ r4: .cfa -36 + ^ r5: .cfa -32 + ^ r6: .cfa -28 + ^ r7: .cfa -24 + ^ r8: .cfa -20 + ^ r9: .cfa -16 + ^
STACK CFI 614f0 .cfa: sp 56 +
STACK CFI INIT 61810 15c .cfa: sp 0 + .ra: lr
STACK CFI 6181c .cfa: sp 24 + .ra: .cfa -4 + ^ r4: .cfa -24 + ^ r5: .cfa -20 + ^ r6: .cfa -16 + ^ r7: .cfa -12 + ^ r8: .cfa -8 + ^
STACK CFI INIT 6196c 148 .cfa: sp 0 + .ra: lr
STACK CFI 61978 .cfa: sp 24 + .ra: .cfa -4 + ^ r4: .cfa -24 + ^ r5: .cfa -20 + ^ r6: .cfa -16 + ^ r7: .cfa -12 + ^ r8: .cfa -8 + ^
STACK CFI INIT 61ab4 124 .cfa: sp 0 + .ra: lr
STACK CFI 61ab8 .cfa: sp 36 + .ra: .cfa -4 + ^ r10: .cfa -12 + ^ r11: .cfa -8 + ^ r4: .cfa -36 + ^ r5: .cfa -32 + ^ r6: .cfa -28 + ^ r7: .cfa -24 + ^ r8: .cfa -20 + ^ r9: .cfa -16 + ^
STACK CFI 61ac0 .cfa: sp 64 +
STACK CFI INIT 61bd8 110 .cfa: sp 0 + .ra: lr
STACK CFI 61bdc .cfa: sp 32 + .ra: .cfa -4 + ^ r3: .cfa -32 + ^ r4: .cfa -28 + ^ r5: .cfa -24 + ^ r6: .cfa -20 + ^ r7: .cfa -16 + ^ r8: .cfa -12 + ^ r9: .cfa -8 + ^
STACK CFI INIT 61ce8 18 .cfa: sp 0 + .ra: lr
STACK CFI 61cec .cfa: sp 8 + .ra: .cfa -4 + ^ r4: .cfa -8 + ^
STACK CFI INIT 61d00 3c .cfa: sp 0 + .ra: lr
STACK CFI 61d04 .cfa: sp 16 + .ra: .cfa -4 + ^ r3: .cfa -16 + ^ r4: .cfa -12 + ^ r5: .cfa -8 + ^
STACK CFI INIT 0 24 .cfa: sp 0 + .ra: lr
STACK CFI INIT 0 18 .cfa: sp 0 + .ra: lr
STACK CFI INIT 61d3c 30 .cfa: sp 0 + .ra: lr
STACK CFI 61d40 .cfa: sp 16 + .ra: .cfa -4 + ^ r3: .cfa -16 + ^ r4: .cfa -12 + ^ r5: .cfa -8 + ^
STACK CFI INIT 61d6c 8 .cfa: sp 0 + .ra: lr
STACK CFI INIT 61d74 c .cfa: sp 0 + .ra: lr
STACK CFI INIT 61d80 c .cfa: sp 0 + .ra: lr
STACK CFI 61d84 .cfa: sp 8 + .ra: .cfa -4 + ^ r3: .cfa -8 + ^
STACK CFI INIT 61d8c c .cfa: sp 0 + .ra: lr
STACK CFI 61d90 .cfa: sp 8 + .ra: .cfa -4 + ^ r3: .cfa -8 + ^
STACK CFI INIT 61d98 1e4 .cfa: sp 0 + .ra: lr
STACK CFI 61d9c .cfa: sp 36 + .ra: .cfa -4 + ^ r10: .cfa -12 + ^ r11: .cfa -8 + ^ r4: .cfa -36 + ^ r5: .cfa -32 + ^ r6: .cfa -28 + ^ r7: .cfa -24 + ^ r8: .cfa -20 + ^ r9: .cfa -16 + ^
STACK CFI 61da0 .cfa: sp 88 +
STACK CFI INIT 61f7c 1b0 .cfa: sp 0 + .ra: lr
STACK CFI 61f80 .cfa: sp 36 + .ra: .cfa -4 + ^ r10: .cfa -12 + ^ r11: .cfa -8 + ^ r4: .cfa -36 + ^ r5: .cfa -32 + ^ r6: .cfa -28 + ^ r7: .cfa -24 + ^ r8: .cfa -20 + ^ r9: .cfa -16 + ^
STACK CFI 61f84 .cfa: sp 72 +
STACK CFI INIT 6212c 30 .cfa: sp 0 + .ra: lr
STACK CFI 62130 .cfa: sp 16 + .ra: .cfa -4 + ^ r3: .cfa -16 + ^ r4: .cfa -12 + ^ r5: .cfa -8 + ^
STACK CFI INIT 6215c 28 .cfa: sp 0 + .ra: lr
STACK CFI 62160 .cfa: sp 16 + .ra: .cfa -4 + ^ r3: .cfa -16 + ^ r4: .cfa -12 + ^ r5: .cfa -8 + ^
STACK CFI INIT 62184 190 .cfa: sp 0 + .ra: lr
STACK CFI 62188 .cfa: sp 36 + .ra: .cfa -4 + ^ r10: .cfa -12 + ^ r11: .cfa -8 + ^ r4: .cfa -36 + ^ r5: .cfa -32 + ^ r6: .cfa -28 + ^ r7: .cfa -24 + ^ r8: .cfa -20 + ^ r9: .cfa -16 + ^
STACK CFI 6218c .cfa: r11 4 +
STACK CFI INIT 62314 2c .cfa: sp 0 + .ra: lr
STACK CFI 62318 .cfa: sp 8 + .ra: .cfa -4 + ^ r3: .cfa -8 + ^
STACK CFI INIT 62340 18 .cfa: sp 0 + .ra: lr
STACK CFI INIT 62358 2c .cfa: sp 0 + .ra: lr
STACK CFI 6235c .cfa: sp 8 + .ra: .cfa -4 + ^ r3: .cfa -8 + ^
STACK CFI INIT 62384 18 .cfa: sp 0 + .ra: lr
STACK CFI INIT 6239c c .cfa: sp 0 + .ra: lr
STACK CFI INIT 623a8 28 .cfa: sp 0 + .ra: lr
STACK CFI INIT 623d0 c .cfa: sp 0 + .ra: lr
STACK CFI INIT 623dc 28 .cfa: sp 0 + .ra: lr
STACK CFI INIT 62404 20 .cfa: sp 0 + .ra: lr
STACK CFI 62408 .cfa: sp 8 + .ra: .cfa -4 + ^ r3: .cfa -8 + ^
STACK CFI INIT 62424 c0 .cfa: sp 0 + .ra: lr
STACK CFI 62428 .cfa: sp 16 + .ra: .cfa -4 + ^ r4: .cfa -16 + ^ r5: .cfa -12 + ^ r6: .cfa -8 + ^
STACK CFI 6242c .cfa: sp 24 +
STACK CFI INIT 624e4 b8 .cfa: sp 0 + .ra: lr
STACK CFI 624e8 .cfa: sp 16 + .ra: .cfa -4 + ^ r4: .cfa -16 + ^ r5: .cfa -12 + ^ r6: .cfa -8 + ^
STACK CFI INIT 57f6c 8 .cfa: sp 0 + .ra: lr
STACK CFI INIT 57f74 8 .cfa: sp 0 + .ra: lr
STACK CFI INIT 57f7c 1c .cfa: sp 0 + .ra: lr
STACK CFI 57f80 .cfa: sp 8 + .ra: .cfa -4 + ^ r4: .cfa -8 + ^
STACK CFI INIT 57f98 1c .cfa: sp 0 + .ra: lr
STACK CFI 57f9c .cfa: sp 8 + .ra: .cfa -4 + ^ r4: .cfa -8 + ^
STACK CFI INIT 6259c 34 .cfa: sp 0 + .ra: lr
STACK CFI 625ac .cfa: sp 8 + .ra: .cfa -4 + ^ r4: .cfa -8 + ^
STACK CFI INIT 625d0 1c .cfa: sp 0 + .ra: lr
STACK CFI 625d4 .cfa: sp 8 + .ra: .cfa -4 + ^ r4: .cfa -8 + ^
STACK CFI INIT 625ec c8 .cfa: sp 0 + .ra: lr
STACK CFI 625f0 .cfa: sp 16 + .ra: .cfa -4 + ^ r4: .cfa -16 + ^ r5: .cfa -12 + ^ r6: .cfa -8 + ^
STACK CFI INIT 626b4 150 .cfa: sp 0 + .ra: lr
STACK CFI INIT 62804 10 .cfa: sp 0 + .ra: lr
STACK CFI INIT 62814 38 .cfa: sp 0 + .ra: lr
STACK CFI 6281c .cfa: sp 16 + .ra: .cfa -4 + ^ r4: .cfa -16 + ^ r5: .cfa -12 + ^ r6: .cfa -8 + ^
STACK CFI INIT 6284c 10 .cfa: sp 0 + .ra: lr
STACK CFI INIT 6285c 38 .cfa: sp 0 + .ra: lr
STACK CFI 62864 .cfa: sp 16 + .ra: .cfa -4 + ^ r4: .cfa -16 + ^ r5: .cfa -12 + ^ r6: .cfa -8 + ^
STACK CFI INIT 62894 9c .cfa: sp 0 + .ra: lr
STACK CFI 62898 .cfa: sp 32 + .ra: .cfa -4 + ^ r3: .cfa -32 + ^ r4: .cfa -28 + ^ r5: .cfa -24 + ^ r6: .cfa -20 + ^ r7: .cfa -16 + ^ r8: .cfa -12 + ^ r9: .cfa -8 + ^
STACK CFI INIT 62930 98 .cfa: sp 0 + .ra: lr
STACK CFI 62934 .cfa: sp 36 + .ra: .cfa -4 + ^ r10: .cfa -12 + ^ r11: .cfa -8 + ^ r4: .cfa -36 + ^ r5: .cfa -32 + ^ r6: .cfa -28 + ^ r7: .cfa -24 + ^ r8: .cfa -20 + ^ r9: .cfa -16 + ^
STACK CFI 6293c .cfa: sp 48 +
STACK CFI INIT 629c8 64 .cfa: sp 0 + .ra: lr
STACK CFI 629d0 .cfa: sp 24 + .ra: .cfa -4 + ^ r4: .cfa -24 + ^ r5: .cfa -20 + ^ r6: .cfa -16 + ^ r7: .cfa -12 + ^ r8: .cfa -8 + ^
STACK CFI INIT 62a2c 64 .cfa: sp 0 + .ra: lr
STACK CFI 62a34 .cfa: sp 24 + .ra: .cfa -4 + ^ r4: .cfa -24 + ^ r5: .cfa -20 + ^ r6: .cfa -16 + ^ r7: .cfa -12 + ^ r8: .cfa -8 + ^
STACK CFI INIT 62a90 c .cfa: sp 0 + .ra: lr
STACK CFI INIT 62a9c 38 .cfa: sp 0 + .ra: lr
STACK CFI 62aa4 .cfa: sp 4 + r5: .cfa -4 + ^
STACK CFI INIT 62ad4 74 .cfa: sp 0 + .ra: lr
STACK CFI 62adc .cfa: sp 16 + .ra: .cfa -4 + ^ r4: .cfa -16 + ^ r5: .cfa -12 + ^ r6: .cfa -8 + ^
STACK CFI INIT 62b48 f0 .cfa: sp 0 + .ra: lr
STACK CFI 62b4c .cfa: sp 32 + .ra: .cfa -4 + ^ r10: .cfa -8 + ^ r4: .cfa -32 + ^ r5: .cfa -28 + ^ r6: .cfa -24 + ^ r7: .cfa -20 + ^ r8: .cfa -16 + ^ r9: .cfa -12 + ^
STACK CFI INIT 62c38 dc .cfa: sp 0 + .ra: lr
STACK CFI 62c3c .cfa: sp 32 + .ra: .cfa -4 + ^ r3: .cfa -32 + ^ r4: .cfa -28 + ^ r5: .cfa -24 + ^ r6: .cfa -20 + ^ r7: .cfa -16 + ^ r8: .cfa -12 + ^ r9: .cfa -8 + ^
STACK CFI INIT 62d14 4c .cfa: sp 0 + .ra: lr
STACK CFI 62d18 .cfa: sp 16 + .ra: .cfa -4 + ^ r4: .cfa -16 + ^ r5: .cfa -12 + ^ r6: .cfa -8 + ^
STACK CFI 62d20 .cfa: sp 24 +
STACK CFI INIT 62d60 50 .cfa: sp 0 + .ra: lr
STACK CFI 62d64 .cfa: sp 16 + .ra: .cfa -4 + ^ r4: .cfa -16 + ^ r5: .cfa -12 + ^ r6: .cfa -8 + ^
STACK CFI INIT 62db0 104 .cfa: sp 0 + .ra: lr
STACK CFI 62db8 .cfa: sp 16 + .ra: .cfa -4 + ^ r4: .cfa -16 + ^ r5: .cfa -12 + ^ r6: .cfa -8 + ^
STACK CFI INIT 62eb4 1c .cfa: sp 0 + .ra: lr
STACK CFI 62eb8 .cfa: sp 8 + .ra: .cfa -4 + ^ r4: .cfa -8 + ^
STACK CFI INIT 62ed0 104 .cfa: sp 0 + .ra: lr
STACK CFI 62ed8 .cfa: sp 16 + .ra: .cfa -4 + ^ r4: .cfa -16 + ^ r5: .cfa -12 + ^ r6: .cfa -8 + ^
STACK CFI INIT 62fd4 1c .cfa: sp 0 + .ra: lr
STACK CFI 62fd8 .cfa: sp 8 + .ra: .cfa -4 + ^ r4: .cfa -8 + ^
STACK CFI INIT 62ff0 104 .cfa: sp 0 + .ra: lr
STACK CFI 62ff8 .cfa: sp 16 + .ra: .cfa -4 + ^ r4: .cfa -16 + ^ r5: .cfa -12 + ^ r6: .cfa -8 + ^
STACK CFI INIT 630f4 1c .cfa: sp 0 + .ra: lr
STACK CFI 630f8 .cfa: sp 8 + .ra: .cfa -4 + ^ r4: .cfa -8 + ^
STACK CFI INIT 63110 104 .cfa: sp 0 + .ra: lr
STACK CFI 63118 .cfa: sp 16 + .ra: .cfa -4 + ^ r4: .cfa -16 + ^ r5: .cfa -12 + ^ r6: .cfa -8 + ^
STACK CFI INIT 63214 1c .cfa: sp 0 + .ra: lr
STACK CFI 63218 .cfa: sp 8 + .ra: .cfa -4 + ^ r4: .cfa -8 + ^
STACK CFI INIT 63230 168 .cfa: sp 0 + .ra: lr
STACK CFI 63234 .cfa: sp 8 +
STACK CFI INIT 63398 520 .cfa: sp 0 + .ra: lr
STACK CFI 6339c .cfa: sp 36 + .ra: .cfa -4 + ^ r10: .cfa -12 + ^ r11: .cfa -8 + ^ r4: .cfa -36 + ^ r5: .cfa -32 + ^ r6: .cfa -28 + ^ r7: .cfa -24 + ^ r8: .cfa -20 + ^ r9: .cfa -16 + ^
STACK CFI 633ac .cfa: sp 56 +
STACK CFI INIT 638b8 524 .cfa: sp 0 + .ra: lr
STACK CFI 638bc .cfa: sp 36 + .ra: .cfa -4 + ^ r10: .cfa -12 + ^ r11: .cfa -8 + ^ r4: .cfa -36 + ^ r5: .cfa -32 + ^ r6: .cfa -28 + ^ r7: .cfa -24 + ^ r8: .cfa -20 + ^ r9: .cfa -16 + ^
STACK CFI 638cc .cfa: sp 56 +
STACK CFI INIT 63ddc 578 .cfa: sp 0 + .ra: lr
STACK CFI 63de0 .cfa: sp 36 + .ra: .cfa -4 + ^ r10: .cfa -12 + ^ r11: .cfa -8 + ^ r4: .cfa -36 + ^ r5: .cfa -32 + ^ r6: .cfa -28 + ^ r7: .cfa -24 + ^ r8: .cfa -20 + ^ r9: .cfa -16 + ^
STACK CFI 63df0 .cfa: sp 72 +
STACK CFI INIT 64354 57c .cfa: sp 0 + .ra: lr
STACK CFI 64358 .cfa: sp 36 + .ra: .cfa -4 + ^ r10: .cfa -12 + ^ r11: .cfa -8 + ^ r4: .cfa -36 + ^ r5: .cfa -32 + ^ r6: .cfa -28 + ^ r7: .cfa -24 + ^ r8: .cfa -20 + ^ r9: .cfa -16 + ^
STACK CFI 64368 .cfa: sp 72 +
STACK CFI INIT 648d0 80 .cfa: sp 0 + .ra: lr
STACK CFI 648d8 .cfa: sp 8 + .ra: .cfa -4 + ^ r4: .cfa -8 + ^
STACK CFI INIT 64950 1c .cfa: sp 0 + .ra: lr
STACK CFI 64954 .cfa: sp 8 + .ra: .cfa -4 + ^ r4: .cfa -8 + ^
STACK CFI INIT 6496c 80 .cfa: sp 0 + .ra: lr
STACK CFI 64974 .cfa: sp 8 + .ra: .cfa -4 + ^ r4: .cfa -8 + ^
STACK CFI INIT 649ec 1c .cfa: sp 0 + .ra: lr
STACK CFI 649f0 .cfa: sp 8 + .ra: .cfa -4 + ^ r4: .cfa -8 + ^
STACK CFI INIT 64a08 23c .cfa: sp 0 + .ra: lr
STACK CFI 64a0c .cfa: sp 24 + .ra: .cfa -4 + ^ r3: .cfa -24 + ^ r4: .cfa -20 + ^ r5: .cfa -16 + ^ r6: .cfa -12 + ^ r7: .cfa -8 + ^
STACK CFI INIT 64c44 224 .cfa: sp 0 + .ra: lr
STACK CFI 64c48 .cfa: sp 24 + .ra: .cfa -4 + ^ r3: .cfa -24 + ^ r4: .cfa -20 + ^ r5: .cfa -16 + ^ r6: .cfa -12 + ^ r7: .cfa -8 + ^
STACK CFI INIT 64e68 38 .cfa: sp 0 + .ra: lr
STACK CFI 64e6c .cfa: sp 8 + .ra: .cfa -4 + ^ r4: .cfa -8 + ^
STACK CFI 64e74 .cfa: sp 16 +
STACK CFI INIT 64ea0 85c .cfa: sp 0 + .ra: lr
STACK CFI 64ea4 .cfa: sp 36 + .ra: .cfa -4 + ^ r10: .cfa -12 + ^ r11: .cfa -8 + ^ r4: .cfa -36 + ^ r5: .cfa -32 + ^ r6: .cfa -28 + ^ r7: .cfa -24 + ^ r8: .cfa -20 + ^ r9: .cfa -16 + ^
STACK CFI 64eb0 .cfa: sp 48 +
STACK CFI INIT 656fc 38 .cfa: sp 0 + .ra: lr
STACK CFI 65700 .cfa: sp 8 + .ra: .cfa -4 + ^ r4: .cfa -8 + ^
STACK CFI 65708 .cfa: sp 16 +
STACK CFI INIT 65734 860 .cfa: sp 0 + .ra: lr
STACK CFI 65738 .cfa: sp 36 + .ra: .cfa -4 + ^ r10: .cfa -12 + ^ r11: .cfa -8 + ^ r4: .cfa -36 + ^ r5: .cfa -32 + ^ r6: .cfa -28 + ^ r7: .cfa -24 + ^ r8: .cfa -20 + ^ r9: .cfa -16 + ^
STACK CFI 65744 .cfa: sp 48 +
STACK CFI INIT 65f94 20c .cfa: sp 0 + .ra: lr
STACK CFI INIT 661a0 54 .cfa: sp 0 + .ra: lr
STACK CFI 661a4 .cfa: sp 24 + .ra: .cfa -4 + ^ r3: .cfa -24 + ^ r4: .cfa -20 + ^ r5: .cfa -16 + ^ r6: .cfa -12 + ^ r7: .cfa -8 + ^
STACK CFI INIT 661f4 10 .cfa: sp 0 + .ra: lr
STACK CFI INIT 66204 10 .cfa: sp 0 + .ra: lr
STACK CFI INIT 66214 7c .cfa: sp 0 + .ra: lr
STACK CFI 66218 .cfa: sp 16 + .ra: .cfa -4 + ^ r4: .cfa -16 + ^ r5: .cfa -12 + ^ r6: .cfa -8 + ^
STACK CFI INIT 66290 5c .cfa: sp 0 + .ra: lr
STACK CFI 66294 .cfa: sp 16 + .ra: .cfa -4 + ^ r4: .cfa -16 + ^ r5: .cfa -12 + ^ r6: .cfa -8 + ^
STACK CFI INIT 662ec 8 .cfa: sp 0 + .ra: lr
STACK CFI INIT 662f4 8 .cfa: sp 0 + .ra: lr
STACK CFI INIT 662fc 70 .cfa: sp 0 + .ra: lr
STACK CFI 66300 .cfa: sp 16 + .ra: .cfa -4 + ^ r3: .cfa -16 + ^ r4: .cfa -12 + ^ r5: .cfa -8 + ^
STACK CFI INIT 6636c 14 .cfa: sp 0 + .ra: lr
STACK CFI 66370 .cfa: sp 8 + .ra: .cfa -4 + ^ r4: .cfa -8 + ^
STACK CFI INIT 66380 4c .cfa: sp 0 + .ra: lr
STACK CFI 66384 .cfa: sp 24 + .ra: .cfa -4 + ^ r3: .cfa -24 + ^ r4: .cfa -20 + ^ r5: .cfa -16 + ^ r6: .cfa -12 + ^ r7: .cfa -8 + ^
STACK CFI INIT 663cc 20 .cfa: sp 0 + .ra: lr
STACK CFI 663d0 .cfa: sp 16 + .ra: .cfa -4 + ^ r3: .cfa -16 + ^ r4: .cfa -12 + ^ r5: .cfa -8 + ^
STACK CFI INIT 663ec a8 .cfa: sp 0 + .ra: lr
STACK CFI 663f0 .cfa: sp 36 + .ra: .cfa -4 + ^ r10: .cfa -12 + ^ r11: .cfa -8 + ^ r4: .cfa -36 + ^ r5: .cfa -32 + ^ r6: .cfa -28 + ^ r7: .cfa -24 + ^ r8: .cfa -20 + ^ r9: .cfa -16 + ^
STACK CFI 663f4 .cfa: sp 56 +
STACK CFI INIT 66494 28 .cfa: sp 0 + .ra: lr
STACK CFI 66498 .cfa: sp 16 + .ra: .cfa -4 + ^ r4: .cfa -16 + ^ r5: .cfa -12 + ^ r6: .cfa -8 + ^
STACK CFI INIT 664bc 8 .cfa: sp 0 + .ra: lr
STACK CFI INIT 664c4 64 .cfa: sp 0 + .ra: lr
STACK CFI 664c8 .cfa: sp 24 + .ra: .cfa -4 + ^ r3: .cfa -24 + ^ r4: .cfa -20 + ^ r5: .cfa -16 + ^ r6: .cfa -12 + ^ r7: .cfa -8 + ^
STACK CFI INIT 66528 ec .cfa: sp 0 + .ra: lr
STACK CFI 6652c .cfa: sp 12 + .ra: .cfa -4 + ^ r4: .cfa -12 + ^ r5: .cfa -8 + ^
STACK CFI 66530 .cfa: sp 144 +
STACK CFI INIT 66614 9c .cfa: sp 0 + .ra: lr
STACK CFI 66618 .cfa: sp 20 + .ra: .cfa -4 + ^ r4: .cfa -20 + ^ r5: .cfa -16 + ^ r6: .cfa -12 + ^ r7: .cfa -8 + ^
STACK CFI 6661c .cfa: sp 32 +
STACK CFI INIT 666b0 b8 .cfa: sp 0 + .ra: lr
STACK CFI 666b4 .cfa: sp 28 + .ra: .cfa -4 + ^ r4: .cfa -28 + ^ r5: .cfa -24 + ^ r6: .cfa -20 + ^ r7: .cfa -16 + ^ r8: .cfa -12 + ^ r9: .cfa -8 + ^
STACK CFI 666b8 .cfa: sp 40 +
STACK CFI INIT 66768 b8 .cfa: sp 0 + .ra: lr
STACK CFI 6676c .cfa: sp 28 + .ra: .cfa -4 + ^ r4: .cfa -28 + ^ r5: .cfa -24 + ^ r6: .cfa -20 + ^ r7: .cfa -16 + ^ r8: .cfa -12 + ^ r9: .cfa -8 + ^
STACK CFI 66770 .cfa: sp 40 +
STACK CFI INIT 66820 2c .cfa: sp 0 + .ra: lr
STACK CFI 66824 .cfa: sp 8 + .ra: .cfa -4 + ^ r4: .cfa -8 + ^
STACK CFI INIT 6684c 30 .cfa: sp 0 + .ra: lr
STACK CFI 66854 .cfa: sp 8 + .ra: .cfa -4 + ^ r4: .cfa -8 + ^
STACK CFI INIT 6687c 8 .cfa: sp 0 + .ra: lr
STACK CFI INIT 66884 54 .cfa: sp 0 + .ra: lr
STACK CFI 66888 .cfa: sp 16 + .ra: .cfa -4 + ^ r3: .cfa -16 + ^ r4: .cfa -12 + ^ r5: .cfa -8 + ^
STACK CFI INIT 668d8 4 .cfa: sp 0 + .ra: lr
STACK CFI INIT 668dc 4 .cfa: sp 0 + .ra: lr
STACK CFI INIT 668e0 4 .cfa: sp 0 + .ra: lr
STACK CFI INIT 668e4 4 .cfa: sp 0 + .ra: lr
STACK CFI INIT 668e8 4 .cfa: sp 0 + .ra: lr
STACK CFI INIT 668ec 4 .cfa: sp 0 + .ra: lr
STACK CFI INIT 668f0 80 .cfa: sp 0 + .ra: lr
STACK CFI 668f4 .cfa: sp 16 + .ra: .cfa -4 + ^ r3: .cfa -16 + ^ r4: .cfa -12 + ^ r5: .cfa -8 + ^
STACK CFI INIT 66970 1c .cfa: sp 0 + .ra: lr
STACK CFI 66974 .cfa: sp 8 + .ra: .cfa -4 + ^ r4: .cfa -8 + ^
STACK CFI INIT 6698c 80 .cfa: sp 0 + .ra: lr
STACK CFI 66990 .cfa: sp 16 + .ra: .cfa -4 + ^ r3: .cfa -16 + ^ r4: .cfa -12 + ^ r5: .cfa -8 + ^
STACK CFI INIT 66a0c 1c .cfa: sp 0 + .ra: lr
STACK CFI 66a10 .cfa: sp 8 + .ra: .cfa -4 + ^ r4: .cfa -8 + ^
STACK CFI INIT 0 84 .cfa: sp 0 + .ra: lr
STACK CFI 8 .cfa: sp 4 + .ra: .cfa -4 + ^
STACK CFI 10 .cfa: sp 16 +
STACK CFI INIT 0 38 .cfa: sp 0 + .ra: lr
STACK CFI 4 .cfa: sp 16 + .ra: .cfa -4 + ^ r3: .cfa -16 + ^ r4: .cfa -12 + ^ r5: .cfa -8 + ^
STACK CFI INIT 0 b0 .cfa: sp 0 + .ra: lr
STACK CFI 4 .cfa: sp 32 + .ra: .cfa -4 + ^ r3: .cfa -32 + ^ r4: .cfa -28 + ^ r5: .cfa -24 + ^ r6: .cfa -20 + ^ r7: .cfa -16 + ^ r8: .cfa -12 + ^ r9: .cfa -8 + ^
STACK CFI INIT 66a28 b4 .cfa: sp 0 + .ra: lr
STACK CFI 66a2c .cfa: sp 32 + .ra: .cfa -4 + ^ r3: .cfa -32 + ^ r4: .cfa -28 + ^ r5: .cfa -24 + ^ r6: .cfa -20 + ^ r7: .cfa -16 + ^ r8: .cfa -12 + ^ r9: .cfa -8 + ^
STACK CFI INIT 0 8 .cfa: sp 0 + .ra: lr
STACK CFI INIT 0 8 .cfa: sp 0 + .ra: lr
STACK CFI INIT 0 84 .cfa: sp 0 + .ra: lr
STACK CFI 8 .cfa: sp 4 + .ra: .cfa -4 + ^
STACK CFI 10 .cfa: sp 16 +
STACK CFI INIT 0 38 .cfa: sp 0 + .ra: lr
STACK CFI 4 .cfa: sp 16 + .ra: .cfa -4 + ^ r3: .cfa -16 + ^ r4: .cfa -12 + ^ r5: .cfa -8 + ^
STACK CFI INIT 0 b0 .cfa: sp 0 + .ra: lr
STACK CFI 4 .cfa: sp 32 + .ra: .cfa -4 + ^ r3: .cfa -32 + ^ r4: .cfa -28 + ^ r5: .cfa -24 + ^ r6: .cfa -20 + ^ r7: .cfa -16 + ^ r8: .cfa -12 + ^ r9: .cfa -8 + ^
STACK CFI INIT 66adc b4 .cfa: sp 0 + .ra: lr
STACK CFI 66ae0 .cfa: sp 32 + .ra: .cfa -4 + ^ r3: .cfa -32 + ^ r4: .cfa -28 + ^ r5: .cfa -24 + ^ r6: .cfa -20 + ^ r7: .cfa -16 + ^ r8: .cfa -12 + ^ r9: .cfa -8 + ^
STACK CFI INIT 0 8 .cfa: sp 0 + .ra: lr
STACK CFI INIT 0 8 .cfa: sp 0 + .ra: lr
STACK CFI INIT 66b90 34 .cfa: sp 0 + .ra: lr
STACK CFI 66ba0 .cfa: sp 8 + .ra: .cfa -4 + ^ r4: .cfa -8 + ^
STACK CFI INIT 66bc4 34 .cfa: sp 0 + .ra: lr
STACK CFI 66bd4 .cfa: sp 8 + .ra: .cfa -4 + ^ r4: .cfa -8 + ^
STACK CFI INIT 66bf8 3c .cfa: sp 0 + .ra: lr
STACK CFI 66c08 .cfa: sp 8 + .ra: .cfa -4 + ^ r4: .cfa -8 + ^
STACK CFI INIT 66c34 3c .cfa: sp 0 + .ra: lr
STACK CFI 66c44 .cfa: sp 8 + .ra: .cfa -4 + ^ r4: .cfa -8 + ^
STACK CFI INIT 66c70 10 .cfa: sp 0 + .ra: lr
STACK CFI INIT 66c80 14 .cfa: sp 0 + .ra: lr
STACK CFI INIT 66c94 8 .cfa: sp 0 + .ra: lr
STACK CFI INIT 66c9c 38 .cfa: sp 0 + .ra: lr
STACK CFI 66ca0 .cfa: sp 8 + .ra: .cfa -4 + ^ r3: .cfa -8 + ^
STACK CFI INIT 66cd4 c .cfa: sp 0 + .ra: lr
STACK CFI INIT 66ce0 20 .cfa: sp 0 + .ra: lr
STACK CFI 66ce4 .cfa: sp 8 + .ra: .cfa -4 + ^ r3: .cfa -8 + ^
STACK CFI INIT 66d00 10 .cfa: sp 0 + .ra: lr
STACK CFI INIT 66d10 14 .cfa: sp 0 + .ra: lr
STACK CFI INIT 66d24 14 .cfa: sp 0 + .ra: lr
STACK CFI INIT 66d38 c .cfa: sp 0 + .ra: lr
STACK CFI INIT 66d44 8 .cfa: sp 0 + .ra: lr
STACK CFI INIT 66d4c c .cfa: sp 0 + .ra: lr
STACK CFI INIT 66d58 8 .cfa: sp 0 + .ra: lr
STACK CFI INIT 66d60 10 .cfa: sp 0 + .ra: lr
STACK CFI INIT 66d70 8 .cfa: sp 0 + .ra: lr
STACK CFI INIT 66d78 1c .cfa: sp 0 + .ra: lr
STACK CFI 66d7c .cfa: sp 8 + .ra: .cfa -4 + ^ r4: .cfa -8 + ^
STACK CFI INIT 66d94 74 .cfa: sp 0 + .ra: lr
STACK CFI 66d98 .cfa: sp 16 + .ra: .cfa -4 + ^ r3: .cfa -16 + ^ r4: .cfa -12 + ^ r5: .cfa -8 + ^
STACK CFI INIT 66e08 80 .cfa: sp 0 + .ra: lr
STACK CFI 66e10 .cfa: sp 16 + .ra: .cfa -4 + ^ r4: .cfa -16 + ^ r5: .cfa -12 + ^ r6: .cfa -8 + ^
STACK CFI INIT 66e88 48 .cfa: sp 0 + .ra: lr
STACK CFI 66e8c .cfa: sp 16 + .ra: .cfa -4 + ^ r3: .cfa -16 + ^ r4: .cfa -12 + ^ r5: .cfa -8 + ^
STACK CFI INIT 66ed0 50 .cfa: sp 0 + .ra: lr
STACK CFI 66ed4 .cfa: sp 16 + .ra: .cfa -4 + ^ r3: .cfa -16 + ^ r4: .cfa -12 + ^ r5: .cfa -8 + ^
STACK CFI INIT 66f20 58 .cfa: sp 0 + .ra: lr
STACK CFI 66f24 .cfa: sp 16 + .ra: .cfa -4 + ^ r3: .cfa -16 + ^ r4: .cfa -12 + ^ r5: .cfa -8 + ^
STACK CFI INIT 66f78 7c .cfa: sp 0 + .ra: lr
STACK CFI 66f7c .cfa: sp 16 + .ra: .cfa -4 + ^ r3: .cfa -16 + ^ r4: .cfa -12 + ^ r5: .cfa -8 + ^
STACK CFI INIT 66ff4 ac .cfa: sp 0 + .ra: lr
STACK CFI 66ff8 .cfa: sp 24 + .ra: .cfa -4 + ^ r4: .cfa -24 + ^ r5: .cfa -20 + ^ r6: .cfa -16 + ^ r7: .cfa -12 + ^ r8: .cfa -8 + ^
STACK CFI 66ffc .cfa: sp 32 +
STACK CFI INIT 670a0 44 .cfa: sp 0 + .ra: lr
STACK CFI 670a4 .cfa: sp 16 + .ra: .cfa -4 + ^ r3: .cfa -16 + ^ r4: .cfa -12 + ^ r5: .cfa -8 + ^
STACK CFI INIT 670e4 74 .cfa: sp 0 + .ra: lr
STACK CFI 670e8 .cfa: sp 16 + .ra: .cfa -4 + ^ r4: .cfa -16 + ^ r5: .cfa -12 + ^ r6: .cfa -8 + ^
STACK CFI INIT 67158 274 .cfa: sp 0 + .ra: lr
STACK CFI 6715c .cfa: sp 28 + .ra: .cfa -4 + ^ r4: .cfa -28 + ^ r5: .cfa -24 + ^ r6: .cfa -20 + ^ r7: .cfa -16 + ^ r8: .cfa -12 + ^ r9: .cfa -8 + ^
STACK CFI 67168 .cfa: sp 40 +
STACK CFI INIT 673cc 10 .cfa: sp 0 + .ra: lr
STACK CFI INIT 673dc 14 .cfa: sp 0 + .ra: lr
STACK CFI INIT 673f0 8 .cfa: sp 0 + .ra: lr
STACK CFI INIT 673f8 38 .cfa: sp 0 + .ra: lr
STACK CFI 673fc .cfa: sp 8 + .ra: .cfa -4 + ^ r3: .cfa -8 + ^
STACK CFI INIT 67430 c .cfa: sp 0 + .ra: lr
STACK CFI INIT 6743c 20 .cfa: sp 0 + .ra: lr
STACK CFI 67440 .cfa: sp 8 + .ra: .cfa -4 + ^ r3: .cfa -8 + ^
STACK CFI INIT 6745c 10 .cfa: sp 0 + .ra: lr
STACK CFI INIT 6746c 14 .cfa: sp 0 + .ra: lr
STACK CFI INIT 67480 14 .cfa: sp 0 + .ra: lr
STACK CFI INIT 67494 c .cfa: sp 0 + .ra: lr
STACK CFI INIT 674a0 8 .cfa: sp 0 + .ra: lr
STACK CFI INIT 674a8 c .cfa: sp 0 + .ra: lr
STACK CFI INIT 674b4 8 .cfa: sp 0 + .ra: lr
STACK CFI INIT 674bc 10 .cfa: sp 0 + .ra: lr
STACK CFI INIT 674cc 8 .cfa: sp 0 + .ra: lr
STACK CFI INIT 674d4 1c .cfa: sp 0 + .ra: lr
STACK CFI 674d8 .cfa: sp 8 + .ra: .cfa -4 + ^ r4: .cfa -8 + ^
STACK CFI INIT 674f0 50 .cfa: sp 0 + .ra: lr
STACK CFI 674f8 .cfa: sp 8 + .ra: .cfa -4 + ^ r4: .cfa -8 + ^
STACK CFI INIT 67540 5c .cfa: sp 0 + .ra: lr
STACK CFI 67544 .cfa: sp 16 + .ra: .cfa -4 + ^ r3: .cfa -16 + ^ r4: .cfa -12 + ^ r5: .cfa -8 + ^
STACK CFI INIT 6759c 24 .cfa: sp 0 + .ra: lr
STACK CFI 675a4 .cfa: sp 8 + .ra: .cfa -4 + ^ r3: .cfa -8 + ^
STACK CFI INIT 675c0 24 .cfa: sp 0 + .ra: lr
STACK CFI 675c8 .cfa: sp 8 + .ra: .cfa -4 + ^ r3: .cfa -8 + ^
STACK CFI INIT 675e4 58 .cfa: sp 0 + .ra: lr
STACK CFI 675e8 .cfa: sp 16 + .ra: .cfa -4 + ^ r3: .cfa -16 + ^ r4: .cfa -12 + ^ r5: .cfa -8 + ^
STACK CFI INIT 6763c 7c .cfa: sp 0 + .ra: lr
STACK CFI 67640 .cfa: sp 16 + .ra: .cfa -4 + ^ r3: .cfa -16 + ^ r4: .cfa -12 + ^ r5: .cfa -8 + ^
STACK CFI INIT 676b8 ac .cfa: sp 0 + .ra: lr
STACK CFI 676bc .cfa: sp 24 + .ra: .cfa -4 + ^ r4: .cfa -24 + ^ r5: .cfa -20 + ^ r6: .cfa -16 + ^ r7: .cfa -12 + ^ r8: .cfa -8 + ^
STACK CFI 676c0 .cfa: sp 32 +
STACK CFI INIT 67764 44 .cfa: sp 0 + .ra: lr
STACK CFI 67768 .cfa: sp 16 + .ra: .cfa -4 + ^ r3: .cfa -16 + ^ r4: .cfa -12 + ^ r5: .cfa -8 + ^
STACK CFI INIT 677a8 74 .cfa: sp 0 + .ra: lr
STACK CFI 677ac .cfa: sp 16 + .ra: .cfa -4 + ^ r4: .cfa -16 + ^ r5: .cfa -12 + ^ r6: .cfa -8 + ^
STACK CFI INIT 6781c 234 .cfa: sp 0 + .ra: lr
STACK CFI 67820 .cfa: sp 28 + .ra: .cfa -4 + ^ r4: .cfa -28 + ^ r5: .cfa -24 + ^ r6: .cfa -20 + ^ r7: .cfa -16 + ^ r8: .cfa -12 + ^ r9: .cfa -8 + ^
STACK CFI 6782c .cfa: sp 40 +
STACK CFI INIT 67a50 68 .cfa: sp 0 + .ra: lr
STACK CFI 67a6c .cfa: sp 8 + .ra: .cfa -4 + ^ r4: .cfa -8 + ^
STACK CFI INIT 67ab8 8 .cfa: sp 0 + .ra: lr
STACK CFI INIT 67ad0 70 .cfa: sp 0 + .ra: lr
STACK CFI 67aec .cfa: sp 8 + .ra: .cfa -4 + ^ r4: .cfa -8 + ^
STACK CFI INIT 67b40 8 .cfa: sp 0 + .ra: lr
STACK CFI INIT 67b58 68 .cfa: sp 0 + .ra: lr
STACK CFI 67b74 .cfa: sp 8 + .ra: .cfa -4 + ^ r4: .cfa -8 + ^
STACK CFI INIT 67bc0 8 .cfa: sp 0 + .ra: lr
STACK CFI INIT 67bd8 70 .cfa: sp 0 + .ra: lr
STACK CFI 67bf4 .cfa: sp 8 + .ra: .cfa -4 + ^ r4: .cfa -8 + ^
STACK CFI INIT 67c48 8 .cfa: sp 0 + .ra: lr
STACK CFI INIT 0 4 .cfa: sp 0 + .ra: lr
STACK CFI INIT 67c60 a4 .cfa: sp 0 + .ra: lr
STACK CFI 67c68 .cfa: sp 16 + .ra: .cfa -4 + ^ r4: .cfa -16 + ^ r5: .cfa -12 + ^ r6: .cfa -8 + ^
STACK CFI INIT 67d04 100 .cfa: sp 0 + .ra: lr
STACK CFI 67d08 .cfa: sp 24 + .ra: .cfa -4 + ^ r3: .cfa -24 + ^ r4: .cfa -20 + ^ r5: .cfa -16 + ^ r6: .cfa -12 + ^ r7: .cfa -8 + ^
STACK CFI INIT 67e04 54 .cfa: sp 0 + .ra: lr
STACK CFI INIT 67e58 a0 .cfa: sp 0 + .ra: lr
STACK CFI 67e60 .cfa: sp 16 + .ra: .cfa -4 + ^ r4: .cfa -16 + ^ r5: .cfa -12 + ^ r6: .cfa -8 + ^
STACK CFI INIT 67ef8 f8 .cfa: sp 0 + .ra: lr
STACK CFI 67efc .cfa: sp 16 + .ra: .cfa -4 + ^ r4: .cfa -16 + ^ r5: .cfa -12 + ^ r6: .cfa -8 + ^
STACK CFI INIT 0 4 .cfa: sp 0 + .ra: lr
STACK CFI INIT 67ff0 a4 .cfa: sp 0 + .ra: lr
STACK CFI 67ff8 .cfa: sp 16 + .ra: .cfa -4 + ^ r4: .cfa -16 + ^ r5: .cfa -12 + ^ r6: .cfa -8 + ^
STACK CFI INIT 68094 100 .cfa: sp 0 + .ra: lr
STACK CFI 68098 .cfa: sp 24 + .ra: .cfa -4 + ^ r3: .cfa -24 + ^ r4: .cfa -20 + ^ r5: .cfa -16 + ^ r6: .cfa -12 + ^ r7: .cfa -8 + ^
STACK CFI INIT 68194 54 .cfa: sp 0 + .ra: lr
STACK CFI INIT 681e8 a0 .cfa: sp 0 + .ra: lr
STACK CFI 681f0 .cfa: sp 16 + .ra: .cfa -4 + ^ r4: .cfa -16 + ^ r5: .cfa -12 + ^ r6: .cfa -8 + ^
STACK CFI INIT 68288 f8 .cfa: sp 0 + .ra: lr
STACK CFI 6828c .cfa: sp 16 + .ra: .cfa -4 + ^ r4: .cfa -16 + ^ r5: .cfa -12 + ^ r6: .cfa -8 + ^
STACK CFI INIT 67ac0 10 .cfa: sp 0 + .ra: lr
STACK CFI INIT 67b48 10 .cfa: sp 0 + .ra: lr
STACK CFI INIT 67bc8 10 .cfa: sp 0 + .ra: lr
STACK CFI INIT 67c50 10 .cfa: sp 0 + .ra: lr
STACK CFI INIT 68380 54 .cfa: sp 0 + .ra: lr
STACK CFI 68390 .cfa: sp 8 + .ra: .cfa -4 + ^ r4: .cfa -8 + ^
STACK CFI INIT 683e4 54 .cfa: sp 0 + .ra: lr
STACK CFI 683f4 .cfa: sp 8 + .ra: .cfa -4 + ^ r4: .cfa -8 + ^
STACK CFI INIT 68448 5c .cfa: sp 0 + .ra: lr
STACK CFI 68458 .cfa: sp 8 + .ra: .cfa -4 + ^ r4: .cfa -8 + ^
STACK CFI INIT 684b4 5c .cfa: sp 0 + .ra: lr
STACK CFI 684c4 .cfa: sp 8 + .ra: .cfa -4 + ^ r4: .cfa -8 + ^
STACK CFI INIT 45c10 14 .cfa: sp 0 + .ra: lr
STACK CFI 45c14 .cfa: sp 8 + .ra: .cfa -4 + ^ r3: .cfa -8 + ^
STACK CFI INIT 45c24 14 .cfa: sp 0 + .ra: lr
STACK CFI 45c28 .cfa: sp 8 + .ra: .cfa -4 + ^ r3: .cfa -8 + ^
STACK CFI INIT 45c38 14 .cfa: sp 0 + .ra: lr
STACK CFI 45c3c .cfa: sp 8 + .ra: .cfa -4 + ^ r3: .cfa -8 + ^
STACK CFI INIT 45c4c 14 .cfa: sp 0 + .ra: lr
STACK CFI 45c50 .cfa: sp 8 + .ra: .cfa -4 + ^ r3: .cfa -8 + ^
STACK CFI INIT 68520 3c .cfa: sp 0 + .ra: lr
STACK CFI 68528 .cfa: sp 8 + .ra: .cfa -4 + ^ r4: .cfa -8 + ^
STACK CFI INIT 6855c 94 .cfa: sp 0 + .ra: lr
STACK CFI 68560 .cfa: sp 24 + .ra: .cfa -4 + ^ r3: .cfa -24 + ^ r4: .cfa -20 + ^ r5: .cfa -16 + ^ r6: .cfa -12 + ^ r7: .cfa -8 + ^
STACK CFI INIT 685f0 20 .cfa: sp 0 + .ra: lr
STACK CFI INIT 68610 c .cfa: sp 0 + .ra: lr
STACK CFI 68614 .cfa: sp 8 + .ra: .cfa -4 + ^ r3: .cfa -8 + ^
STACK CFI INIT 6861c 20 .cfa: sp 0 + .ra: lr
STACK CFI 68624 .cfa: sp 8 + .ra: .cfa -4 + ^ r4: .cfa -8 + ^
STACK CFI INIT 6863c 20 .cfa: sp 0 + .ra: lr
STACK CFI 68644 .cfa: sp 8 + .ra: .cfa -4 + ^ r4: .cfa -8 + ^
STACK CFI INIT 6865c 8 .cfa: sp 0 + .ra: lr
STACK CFI INIT 68664 7c .cfa: sp 0 + .ra: lr
STACK CFI 6866c .cfa: sp 16 + .ra: .cfa -4 + ^ r4: .cfa -16 + ^ r5: .cfa -12 + ^ r6: .cfa -8 + ^
STACK CFI 68674 .cfa: sp 24 +
STACK CFI INIT 686e0 3c .cfa: sp 0 + .ra: lr
STACK CFI 686e8 .cfa: sp 8 + .ra: .cfa -4 + ^ r4: .cfa -8 + ^
STACK CFI INIT 6871c 90 .cfa: sp 0 + .ra: lr
STACK CFI 68720 .cfa: sp 16 + .ra: .cfa -4 + ^ r4: .cfa -16 + ^ r5: .cfa -12 + ^ r6: .cfa -8 + ^
STACK CFI INIT 687ac 188 .cfa: sp 0 + .ra: lr
STACK CFI 687b0 .cfa: sp 24 + .ra: .cfa -4 + ^ r3: .cfa -24 + ^ r4: .cfa -20 + ^ r5: .cfa -16 + ^ r6: .cfa -12 + ^ r7: .cfa -8 + ^
STACK CFI INIT 68934 1a8 .cfa: sp 0 + .ra: lr
STACK CFI 68938 .cfa: sp 16 + .ra: .cfa -4 + ^ r4: .cfa -16 + ^ r5: .cfa -12 + ^ r6: .cfa -8 + ^
STACK CFI 68940 .cfa: sp 80 +
STACK CFI INIT 68adc 164 .cfa: sp 0 + .ra: lr
STACK CFI 68ae0 .cfa: sp 16 + .ra: .cfa -4 + ^ r4: .cfa -16 + ^ r5: .cfa -12 + ^ r6: .cfa -8 + ^
STACK CFI 68ae8 .cfa: sp 80 +
STACK CFI INIT 68c40 12c .cfa: sp 0 + .ra: lr
STACK CFI 68c44 .cfa: sp 12 + .ra: .cfa -4 + ^ r4: .cfa -12 + ^ r5: .cfa -8 + ^
STACK CFI 68c4c .cfa: sp 24 +
STACK CFI INIT 68d6c 140 .cfa: sp 0 + .ra: lr
STACK CFI 68d70 .cfa: sp 12 + .ra: .cfa -4 + ^ r4: .cfa -12 + ^ r5: .cfa -8 + ^
STACK CFI 68d78 .cfa: sp 24 +
STACK CFI INIT 68eac 140 .cfa: sp 0 + .ra: lr
STACK CFI 68eb0 .cfa: sp 12 + .ra: .cfa -4 + ^ r4: .cfa -12 + ^ r5: .cfa -8 + ^
STACK CFI 68eb8 .cfa: sp 24 +
STACK CFI INIT 68fec 1c8 .cfa: sp 0 + .ra: lr
STACK CFI 68ff0 .cfa: sp 24 + .ra: .cfa -4 + ^ r4: .cfa -24 + ^ r5: .cfa -20 + ^ r6: .cfa -16 + ^ r7: .cfa -12 + ^ r8: .cfa -8 + ^
STACK CFI 68ff8 .cfa: sp 32 +
STACK CFI INIT 691b4 7c .cfa: sp 0 + .ra: lr
STACK CFI 691bc .cfa: sp 16 + .ra: .cfa -4 + ^ r4: .cfa -16 + ^ r5: .cfa -12 + ^ r6: .cfa -8 + ^
STACK CFI 691c4 .cfa: sp 24 +
STACK CFI INIT 69230 1d0 .cfa: sp 0 + .ra: lr
STACK CFI 69234 .cfa: sp 24 + .ra: .cfa -4 + ^ r4: .cfa -24 + ^ r5: .cfa -20 + ^ r6: .cfa -16 + ^ r7: .cfa -12 + ^ r8: .cfa -8 + ^
STACK CFI 6923c .cfa: sp 32 +
STACK CFI INIT 69400 78 .cfa: sp 0 + .ra: lr
STACK CFI 69408 .cfa: sp 16 + .ra: .cfa -4 + ^ r4: .cfa -16 + ^ r5: .cfa -12 + ^ r6: .cfa -8 + ^
STACK CFI INIT 0 11c .cfa: sp 0 + .ra: lr
STACK CFI 4 .cfa: sp 8 + .ra: .cfa -4 + ^ r4: .cfa -8 + ^
STACK CFI c .cfa: sp 16 +
STACK CFI INIT 69478 114 .cfa: sp 0 + .ra: lr
STACK CFI 6947c .cfa: sp 12 + .ra: .cfa -4 + ^ r4: .cfa -12 + ^ r5: .cfa -8 + ^
STACK CFI 69484 .cfa: sp 24 +
STACK CFI INIT 6958c 114 .cfa: sp 0 + .ra: lr
STACK CFI 69590 .cfa: sp 16 + .ra: .cfa -4 + ^ r4: .cfa -16 + ^ r5: .cfa -12 + ^ r6: .cfa -8 + ^
STACK CFI 69598 .cfa: sp 24 +
STACK CFI INIT 696a0 168 .cfa: sp 0 + .ra: lr
STACK CFI 696a4 .cfa: sp 16 + .ra: .cfa -4 + ^ r4: .cfa -16 + ^ r5: .cfa -12 + ^ r6: .cfa -8 + ^
STACK CFI 696ac .cfa: sp 24 +
STACK CFI INIT 69808 148 .cfa: sp 0 + .ra: lr
STACK CFI 69814 .cfa: sp 12 + .ra: .cfa -4 + ^ r4: .cfa -12 + ^ r5: .cfa -8 + ^
STACK CFI 69830 .cfa: sp 24 +
STACK CFI INIT 69950 13c .cfa: sp 0 + .ra: lr
STACK CFI 6995c .cfa: sp 8 + .ra: .cfa -4 + ^ r4: .cfa -8 + ^
STACK CFI 6996c .cfa: sp 16 +
STACK CFI INIT 69a8c 114 .cfa: sp 0 + .ra: lr
STACK CFI 69a90 .cfa: sp 12 + .ra: .cfa -4 + ^ r4: .cfa -12 + ^ r5: .cfa -8 + ^
STACK CFI 69a94 .cfa: sp 24 +
STACK CFI INIT 69ba0 120 .cfa: sp 0 + .ra: lr
STACK CFI 69ba4 .cfa: sp 16 + .ra: .cfa -4 + ^ r4: .cfa -16 + ^ r5: .cfa -12 + ^ r6: .cfa -8 + ^
STACK CFI 69bb0 .cfa: sp 48 +
STACK CFI INIT 69cc0 164 .cfa: sp 0 + .ra: lr
STACK CFI 69cc8 .cfa: sp 8 +
STACK CFI 69ccc .cfa: sp 24 + .ra: .cfa -12 + ^ r4: .cfa -24 + ^ r5: .cfa -20 + ^ r6: .cfa -16 + ^
STACK CFI 69cd8 .cfa: sp 80 +
STACK CFI INIT 69e24 148 .cfa: sp 0 + .ra: lr
STACK CFI 69e2c .cfa: sp 16 + .ra: .cfa -4 + ^ r4: .cfa -16 + ^ r5: .cfa -12 + ^ r6: .cfa -8 + ^
STACK CFI 69e38 .cfa: sp 48 +
STACK CFI INIT 69f6c 8 .cfa: sp 0 + .ra: lr
STACK CFI INIT 69f74 134 .cfa: sp 0 + .ra: lr
STACK CFI 69f7c .cfa: sp 16 + .ra: .cfa -4 + ^ r4: .cfa -16 + ^ r5: .cfa -12 + ^ r6: .cfa -8 + ^
STACK CFI 69f84 .cfa: sp 24 +
STACK CFI INIT 6a0a8 118 .cfa: sp 0 + .ra: lr
STACK CFI 6a0ac .cfa: sp 12 + .ra: .cfa -4 + ^ r4: .cfa -12 + ^ r5: .cfa -8 + ^
STACK CFI 6a0b4 .cfa: sp 24 +
STACK CFI INIT 6a1c0 4 .cfa: sp 0 + .ra: lr
STACK CFI INIT 6a1c4 4 .cfa: sp 0 + .ra: lr
STACK CFI INIT 6a1c8 4 .cfa: sp 0 + .ra: lr
STACK CFI INIT 6a1cc 4 .cfa: sp 0 + .ra: lr
STACK CFI INIT 6a1d0 7c .cfa: sp 0 + .ra: lr
STACK CFI 6a1d4 .cfa: sp 24 + .ra: .cfa -4 + ^ r3: .cfa -24 + ^ r4: .cfa -20 + ^ r5: .cfa -16 + ^ r6: .cfa -12 + ^ r7: .cfa -8 + ^
STACK CFI INIT 6a24c 1c .cfa: sp 0 + .ra: lr
STACK CFI INIT 6a268 1c .cfa: sp 0 + .ra: lr
STACK CFI INIT 6a284 44 .cfa: sp 0 + .ra: lr
STACK CFI INIT 6a2c8 14 .cfa: sp 0 + .ra: lr
STACK CFI INIT 6a2dc 14 .cfa: sp 0 + .ra: lr
STACK CFI INIT 6a2f0 158 .cfa: sp 0 + .ra: lr
STACK CFI 6a2f4 .cfa: sp 16 + .ra: .cfa -4 + ^ r4: .cfa -16 + ^ r5: .cfa -12 + ^ r6: .cfa -8 + ^
STACK CFI 6a2fc .cfa: sp 72 +
STACK CFI INIT 6a448 4 .cfa: sp 0 + .ra: lr
STACK CFI INIT 6a44c 158 .cfa: sp 0 + .ra: lr
STACK CFI 6a450 .cfa: sp 16 + .ra: .cfa -4 + ^ r4: .cfa -16 + ^ r5: .cfa -12 + ^ r6: .cfa -8 + ^
STACK CFI 6a458 .cfa: sp 72 +
STACK CFI INIT 6a5a4 4 .cfa: sp 0 + .ra: lr
STACK CFI INIT 6a5a8 158 .cfa: sp 0 + .ra: lr
STACK CFI 6a5ac .cfa: sp 16 + .ra: .cfa -4 + ^ r4: .cfa -16 + ^ r5: .cfa -12 + ^ r6: .cfa -8 + ^
STACK CFI 6a5b4 .cfa: sp 72 +
STACK CFI INIT 6a700 4 .cfa: sp 0 + .ra: lr
STACK CFI INIT 6a704 158 .cfa: sp 0 + .ra: lr
STACK CFI 6a708 .cfa: sp 16 + .ra: .cfa -4 + ^ r4: .cfa -16 + ^ r5: .cfa -12 + ^ r6: .cfa -8 + ^
STACK CFI 6a710 .cfa: sp 72 +
STACK CFI INIT 6a85c 4 .cfa: sp 0 + .ra: lr
STACK CFI INIT 6a860 158 .cfa: sp 0 + .ra: lr
STACK CFI 6a864 .cfa: sp 16 + .ra: .cfa -4 + ^ r4: .cfa -16 + ^ r5: .cfa -12 + ^ r6: .cfa -8 + ^
STACK CFI 6a86c .cfa: sp 72 +
STACK CFI INIT 6a9b8 4 .cfa: sp 0 + .ra: lr
STACK CFI INIT 6a9bc 158 .cfa: sp 0 + .ra: lr
STACK CFI 6a9c0 .cfa: sp 16 + .ra: .cfa -4 + ^ r4: .cfa -16 + ^ r5: .cfa -12 + ^ r6: .cfa -8 + ^
STACK CFI 6a9c8 .cfa: sp 72 +
STACK CFI INIT 6ab14 4 .cfa: sp 0 + .ra: lr
STACK CFI INIT 6ab18 158 .cfa: sp 0 + .ra: lr
STACK CFI 6ab1c .cfa: sp 16 + .ra: .cfa -4 + ^ r4: .cfa -16 + ^ r5: .cfa -12 + ^ r6: .cfa -8 + ^
STACK CFI 6ab24 .cfa: sp 72 +
STACK CFI INIT 6ac70 4 .cfa: sp 0 + .ra: lr
STACK CFI INIT 6ac74 158 .cfa: sp 0 + .ra: lr
STACK CFI 6ac78 .cfa: sp 16 + .ra: .cfa -4 + ^ r4: .cfa -16 + ^ r5: .cfa -12 + ^ r6: .cfa -8 + ^
STACK CFI 6ac80 .cfa: sp 72 +
STACK CFI INIT 6adcc 4 .cfa: sp 0 + .ra: lr
STACK CFI INIT 6add0 158 .cfa: sp 0 + .ra: lr
STACK CFI 6add4 .cfa: sp 16 + .ra: .cfa -4 + ^ r4: .cfa -16 + ^ r5: .cfa -12 + ^ r6: .cfa -8 + ^
STACK CFI 6addc .cfa: sp 72 +
STACK CFI INIT 6af28 4 .cfa: sp 0 + .ra: lr
STACK CFI INIT 6af2c 158 .cfa: sp 0 + .ra: lr
STACK CFI 6af30 .cfa: sp 16 + .ra: .cfa -4 + ^ r4: .cfa -16 + ^ r5: .cfa -12 + ^ r6: .cfa -8 + ^
STACK CFI 6af38 .cfa: sp 72 +
STACK CFI INIT 6b084 4 .cfa: sp 0 + .ra: lr
STACK CFI INIT 6b088 158 .cfa: sp 0 + .ra: lr
STACK CFI 6b08c .cfa: sp 16 + .ra: .cfa -4 + ^ r4: .cfa -16 + ^ r5: .cfa -12 + ^ r6: .cfa -8 + ^
STACK CFI 6b094 .cfa: sp 72 +
STACK CFI INIT 6b1e0 4 .cfa: sp 0 + .ra: lr
STACK CFI INIT 6b1e4 3c .cfa: sp 0 + .ra: lr
STACK CFI 6b1ec .cfa: sp 8 + .ra: .cfa -4 + ^ r4: .cfa -8 + ^
STACK CFI INIT 6b220 94 .cfa: sp 0 + .ra: lr
STACK CFI 6b224 .cfa: sp 24 + .ra: .cfa -4 + ^ r3: .cfa -24 + ^ r4: .cfa -20 + ^ r5: .cfa -16 + ^ r6: .cfa -12 + ^ r7: .cfa -8 + ^
STACK CFI INIT 6b2b4 20 .cfa: sp 0 + .ra: lr
STACK CFI INIT 6b2d4 c .cfa: sp 0 + .ra: lr
STACK CFI 6b2d8 .cfa: sp 8 + .ra: .cfa -4 + ^ r3: .cfa -8 + ^
STACK CFI INIT 6b2e0 20 .cfa: sp 0 + .ra: lr
STACK CFI 6b2e8 .cfa: sp 8 + .ra: .cfa -4 + ^ r4: .cfa -8 + ^
STACK CFI INIT 6b300 20 .cfa: sp 0 + .ra: lr
STACK CFI 6b308 .cfa: sp 8 + .ra: .cfa -4 + ^ r4: .cfa -8 + ^
STACK CFI INIT 6b320 8 .cfa: sp 0 + .ra: lr
STACK CFI INIT 6b328 54 .cfa: sp 0 + .ra: lr
STACK CFI 6b330 .cfa: sp 16 + .ra: .cfa -4 + ^ r4: .cfa -16 + ^ r5: .cfa -12 + ^ r6: .cfa -8 + ^
STACK CFI INIT 6b37c 3c .cfa: sp 0 + .ra: lr
STACK CFI 6b384 .cfa: sp 8 + .ra: .cfa -4 + ^ r4: .cfa -8 + ^
STACK CFI INIT 6b3b8 90 .cfa: sp 0 + .ra: lr
STACK CFI 6b3bc .cfa: sp 16 + .ra: .cfa -4 + ^ r4: .cfa -16 + ^ r5: .cfa -12 + ^ r6: .cfa -8 + ^
STACK CFI INIT 6b448 188 .cfa: sp 0 + .ra: lr
STACK CFI 6b450 .cfa: sp 24 + .ra: .cfa -4 + ^ r4: .cfa -24 + ^ r5: .cfa -20 + ^ r6: .cfa -16 + ^ r7: .cfa -12 + ^ r8: .cfa -8 + ^
STACK CFI INIT 6b5d0 1a8 .cfa: sp 0 + .ra: lr
STACK CFI 6b5d4 .cfa: sp 16 + .ra: .cfa -4 + ^ r4: .cfa -16 + ^ r5: .cfa -12 + ^ r6: .cfa -8 + ^
STACK CFI 6b5dc .cfa: sp 80 +
STACK CFI INIT 6b778 164 .cfa: sp 0 + .ra: lr
STACK CFI 6b77c .cfa: sp 16 + .ra: .cfa -4 + ^ r4: .cfa -16 + ^ r5: .cfa -12 + ^ r6: .cfa -8 + ^
STACK CFI 6b784 .cfa: sp 80 +
STACK CFI INIT 6b8dc 12c .cfa: sp 0 + .ra: lr
STACK CFI 6b8e0 .cfa: sp 12 + .ra: .cfa -4 + ^ r4: .cfa -12 + ^ r5: .cfa -8 + ^
STACK CFI 6b8e8 .cfa: sp 24 +
STACK CFI INIT 6ba08 14c .cfa: sp 0 + .ra: lr
STACK CFI 6ba0c .cfa: sp 12 + .ra: .cfa -4 + ^ r4: .cfa -12 + ^ r5: .cfa -8 + ^
STACK CFI 6ba14 .cfa: sp 24 +
STACK CFI INIT 6bb54 144 .cfa: sp 0 + .ra: lr
STACK CFI 6bb58 .cfa: sp 12 + .ra: .cfa -4 + ^ r4: .cfa -12 + ^ r5: .cfa -8 + ^
STACK CFI 6bb60 .cfa: sp 24 +
STACK CFI INIT 6bc98 1c8 .cfa: sp 0 + .ra: lr
STACK CFI 6bc9c .cfa: sp 24 + .ra: .cfa -4 + ^ r4: .cfa -24 + ^ r5: .cfa -20 + ^ r6: .cfa -16 + ^ r7: .cfa -12 + ^ r8: .cfa -8 + ^
STACK CFI 6bca4 .cfa: sp 32 +
STACK CFI INIT 6be60 54 .cfa: sp 0 + .ra: lr
STACK CFI 6be68 .cfa: sp 16 + .ra: .cfa -4 + ^ r4: .cfa -16 + ^ r5: .cfa -12 + ^ r6: .cfa -8 + ^
STACK CFI INIT 6beb4 1dc .cfa: sp 0 + .ra: lr
STACK CFI 6beb8 .cfa: sp 24 + .ra: .cfa -4 + ^ r4: .cfa -24 + ^ r5: .cfa -20 + ^ r6: .cfa -16 + ^ r7: .cfa -12 + ^ r8: .cfa -8 + ^
STACK CFI 6bec0 .cfa: sp 32 +
STACK CFI INIT 6c090 4c .cfa: sp 0 + .ra: lr
STACK CFI 6c094 .cfa: sp 16 + .ra: .cfa -4 + ^ r3: .cfa -16 + ^ r4: .cfa -12 + ^ r5: .cfa -8 + ^
STACK CFI INIT 0 12c .cfa: sp 0 + .ra: lr
STACK CFI 4 .cfa: sp 8 + .ra: .cfa -4 + ^ r4: .cfa -8 + ^
STACK CFI c .cfa: sp 16 +
STACK CFI INIT 6c0dc 110 .cfa: sp 0 + .ra: lr
STACK CFI 6c0e0 .cfa: sp 12 + .ra: .cfa -4 + ^ r4: .cfa -12 + ^ r5: .cfa -8 + ^
STACK CFI 6c0e8 .cfa: sp 24 +
STACK CFI INIT 6c1ec 114 .cfa: sp 0 + .ra: lr
STACK CFI 6c1f0 .cfa: sp 16 + .ra: .cfa -4 + ^ r4: .cfa -16 + ^ r5: .cfa -12 + ^ r6: .cfa -8 + ^
STACK CFI 6c1f8 .cfa: sp 24 +
STACK CFI INIT 6c300 16c .cfa: sp 0 + .ra: lr
STACK CFI 6c304 .cfa: sp 16 + .ra: .cfa -4 + ^ r4: .cfa -16 + ^ r5: .cfa -12 + ^ r6: .cfa -8 + ^
STACK CFI 6c30c .cfa: sp 24 +
STACK CFI INIT 6c46c 154 .cfa: sp 0 + .ra: lr
STACK CFI 6c478 .cfa: sp 12 + .ra: .cfa -4 + ^ r4: .cfa -12 + ^ r5: .cfa -8 + ^
STACK CFI 6c494 .cfa: sp 24 +
STACK CFI INIT 6c5c0 144 .cfa: sp 0 + .ra: lr
STACK CFI 6c5cc .cfa: sp 8 + .ra: .cfa -4 + ^ r4: .cfa -8 + ^
STACK CFI 6c5dc .cfa: sp 16 +
STACK CFI INIT 6c704 114 .cfa: sp 0 + .ra: lr
STACK CFI 6c708 .cfa: sp 12 + .ra: .cfa -4 + ^ r4: .cfa -12 + ^ r5: .cfa -8 + ^
STACK CFI 6c70c .cfa: sp 24 +
STACK CFI INIT 6c818 120 .cfa: sp 0 + .ra: lr
STACK CFI 6c81c .cfa: sp 16 + .ra: .cfa -4 + ^ r4: .cfa -16 + ^ r5: .cfa -12 + ^ r6: .cfa -8 + ^
STACK CFI 6c828 .cfa: sp 48 +
STACK CFI INIT 6c938 164 .cfa: sp 0 + .ra: lr
STACK CFI 6c940 .cfa: sp 8 +
STACK CFI 6c944 .cfa: sp 24 + .ra: .cfa -12 + ^ r4: .cfa -24 + ^ r5: .cfa -20 + ^ r6: .cfa -16 + ^
STACK CFI 6c950 .cfa: sp 80 +
STACK CFI INIT 6ca9c 148 .cfa: sp 0 + .ra: lr
STACK CFI 6caa4 .cfa: sp 16 + .ra: .cfa -4 + ^ r4: .cfa -16 + ^ r5: .cfa -12 + ^ r6: .cfa -8 + ^
STACK CFI 6cab0 .cfa: sp 48 +
STACK CFI INIT 6cbe4 8 .cfa: sp 0 + .ra: lr
STACK CFI INIT 6cbec 118 .cfa: sp 0 + .ra: lr
STACK CFI 6cbf4 .cfa: sp 20 + .ra: .cfa -4 + ^ r4: .cfa -20 + ^ r5: .cfa -16 + ^ r6: .cfa -12 + ^ r7: .cfa -8 + ^
STACK CFI 6cbfc .cfa: sp 32 +
STACK CFI INIT 6cd04 118 .cfa: sp 0 + .ra: lr
STACK CFI 6cd08 .cfa: sp 12 + .ra: .cfa -4 + ^ r4: .cfa -12 + ^ r5: .cfa -8 + ^
STACK CFI 6cd10 .cfa: sp 24 +
STACK CFI INIT 6ce1c 258 .cfa: sp 0 + .ra: lr
STACK CFI 6ce20 .cfa: sp 32 + .ra: .cfa -4 + ^ r10: .cfa -8 + ^ r4: .cfa -32 + ^ r5: .cfa -28 + ^ r6: .cfa -24 + ^ r7: .cfa -20 + ^ r8: .cfa -16 + ^ r9: .cfa -12 + ^
STACK CFI 6ce28 .cfa: sp 40 +
STACK CFI INIT 6d074 60 .cfa: sp 0 + .ra: lr
STACK CFI 6d07c .cfa: sp 16 + .ra: .cfa -4 + ^ r4: .cfa -16 + ^ r5: .cfa -12 + ^ r6: .cfa -8 + ^
STACK CFI INIT 6d0d4 1c .cfa: sp 0 + .ra: lr
STACK CFI INIT 6d0f0 1c .cfa: sp 0 + .ra: lr
STACK CFI INIT 6d10c 44 .cfa: sp 0 + .ra: lr
STACK CFI INIT 6d150 14 .cfa: sp 0 + .ra: lr
STACK CFI INIT 6d164 14 .cfa: sp 0 + .ra: lr
STACK CFI INIT 6d178 158 .cfa: sp 0 + .ra: lr
STACK CFI 6d17c .cfa: sp 16 + .ra: .cfa -4 + ^ r4: .cfa -16 + ^ r5: .cfa -12 + ^ r6: .cfa -8 + ^
STACK CFI 6d184 .cfa: sp 72 +
STACK CFI INIT 6d2d0 4 .cfa: sp 0 + .ra: lr
STACK CFI INIT 6d2d4 158 .cfa: sp 0 + .ra: lr
STACK CFI 6d2d8 .cfa: sp 16 + .ra: .cfa -4 + ^ r4: .cfa -16 + ^ r5: .cfa -12 + ^ r6: .cfa -8 + ^
STACK CFI 6d2e0 .cfa: sp 72 +
STACK CFI INIT 6d42c 4 .cfa: sp 0 + .ra: lr
STACK CFI INIT 6d430 158 .cfa: sp 0 + .ra: lr
STACK CFI 6d434 .cfa: sp 16 + .ra: .cfa -4 + ^ r4: .cfa -16 + ^ r5: .cfa -12 + ^ r6: .cfa -8 + ^
STACK CFI 6d43c .cfa: sp 72 +
STACK CFI INIT 6d588 4 .cfa: sp 0 + .ra: lr
STACK CFI INIT 6d58c 158 .cfa: sp 0 + .ra: lr
STACK CFI 6d590 .cfa: sp 16 + .ra: .cfa -4 + ^ r4: .cfa -16 + ^ r5: .cfa -12 + ^ r6: .cfa -8 + ^
STACK CFI 6d598 .cfa: sp 72 +
STACK CFI INIT 6d6e4 4 .cfa: sp 0 + .ra: lr
STACK CFI INIT 6d6e8 158 .cfa: sp 0 + .ra: lr
STACK CFI 6d6ec .cfa: sp 16 + .ra: .cfa -4 + ^ r4: .cfa -16 + ^ r5: .cfa -12 + ^ r6: .cfa -8 + ^
STACK CFI 6d6f4 .cfa: sp 72 +
STACK CFI INIT 6d840 4 .cfa: sp 0 + .ra: lr
STACK CFI INIT 6d844 158 .cfa: sp 0 + .ra: lr
STACK CFI 6d848 .cfa: sp 16 + .ra: .cfa -4 + ^ r4: .cfa -16 + ^ r5: .cfa -12 + ^ r6: .cfa -8 + ^
STACK CFI 6d850 .cfa: sp 72 +
STACK CFI INIT 6d99c 4 .cfa: sp 0 + .ra: lr
STACK CFI INIT 6d9a0 158 .cfa: sp 0 + .ra: lr
STACK CFI 6d9a4 .cfa: sp 16 + .ra: .cfa -4 + ^ r4: .cfa -16 + ^ r5: .cfa -12 + ^ r6: .cfa -8 + ^
STACK CFI 6d9ac .cfa: sp 72 +
STACK CFI INIT 6daf8 4 .cfa: sp 0 + .ra: lr
STACK CFI INIT 6dafc 158 .cfa: sp 0 + .ra: lr
STACK CFI 6db00 .cfa: sp 16 + .ra: .cfa -4 + ^ r4: .cfa -16 + ^ r5: .cfa -12 + ^ r6: .cfa -8 + ^
STACK CFI 6db08 .cfa: sp 72 +
STACK CFI INIT 6dc54 4 .cfa: sp 0 + .ra: lr
STACK CFI INIT 6dc58 158 .cfa: sp 0 + .ra: lr
STACK CFI 6dc5c .cfa: sp 16 + .ra: .cfa -4 + ^ r4: .cfa -16 + ^ r5: .cfa -12 + ^ r6: .cfa -8 + ^
STACK CFI 6dc64 .cfa: sp 72 +
STACK CFI INIT 6ddb0 4 .cfa: sp 0 + .ra: lr
STACK CFI INIT 6ddb4 158 .cfa: sp 0 + .ra: lr
STACK CFI 6ddb8 .cfa: sp 16 + .ra: .cfa -4 + ^ r4: .cfa -16 + ^ r5: .cfa -12 + ^ r6: .cfa -8 + ^
STACK CFI 6ddc0 .cfa: sp 72 +
STACK CFI INIT 6df0c 4 .cfa: sp 0 + .ra: lr
STACK CFI INIT 6df10 158 .cfa: sp 0 + .ra: lr
STACK CFI 6df14 .cfa: sp 16 + .ra: .cfa -4 + ^ r4: .cfa -16 + ^ r5: .cfa -12 + ^ r6: .cfa -8 + ^
STACK CFI 6df1c .cfa: sp 72 +
STACK CFI INIT 6e068 4 .cfa: sp 0 + .ra: lr
STACK CFI INIT 683d4 10 .cfa: sp 0 + .ra: lr
STACK CFI INIT 68438 10 .cfa: sp 0 + .ra: lr
STACK CFI INIT 684a4 10 .cfa: sp 0 + .ra: lr
STACK CFI INIT 68510 10 .cfa: sp 0 + .ra: lr
STACK CFI INIT 6e06c c .cfa: sp 0 + .ra: lr
STACK CFI INIT 6e078 c .cfa: sp 0 + .ra: lr
STACK CFI INIT 6e084 c .cfa: sp 0 + .ra: lr
STACK CFI INIT 6e090 14 .cfa: sp 0 + .ra: lr
STACK CFI 6e098 .cfa: sp 8 +
STACK CFI INIT 6e0a4 14 .cfa: sp 0 + .ra: lr
STACK CFI 6e0ac .cfa: sp 8 +
STACK CFI INIT 6e0b8 c .cfa: sp 0 + .ra: lr
STACK CFI INIT 6e0c4 c .cfa: sp 0 + .ra: lr
STACK CFI INIT 6e0d0 c .cfa: sp 0 + .ra: lr
STACK CFI INIT 6e0dc 14 .cfa: sp 0 + .ra: lr
STACK CFI 6e0e4 .cfa: sp 8 +
STACK CFI INIT 6e0f0 14 .cfa: sp 0 + .ra: lr
STACK CFI 6e0f8 .cfa: sp 8 +
STACK CFI INIT 6e104 c .cfa: sp 0 + .ra: lr
STACK CFI INIT 6e110 c .cfa: sp 0 + .ra: lr
STACK CFI INIT 6e11c 8 .cfa: sp 0 + .ra: lr
STACK CFI INIT 6e124 4 .cfa: sp 0 + .ra: lr
STACK CFI INIT 6e128 24 .cfa: sp 0 + .ra: lr
STACK CFI INIT 6e14c 34 .cfa: sp 0 + .ra: lr
STACK CFI 6e15c .cfa: sp 8 + .ra: .cfa -4 + ^ r4: .cfa -8 + ^
STACK CFI INIT 6e180 34 .cfa: sp 0 + .ra: lr
STACK CFI 6e190 .cfa: sp 8 + .ra: .cfa -4 + ^ r4: .cfa -8 + ^
STACK CFI INIT 6e1b4 34 .cfa: sp 0 + .ra: lr
STACK CFI 6e1c4 .cfa: sp 8 + .ra: .cfa -4 + ^ r4: .cfa -8 + ^
STACK CFI INIT 6e1e8 34 .cfa: sp 0 + .ra: lr
STACK CFI 6e1f8 .cfa: sp 8 + .ra: .cfa -4 + ^ r4: .cfa -8 + ^
STACK CFI INIT 6e21c 34 .cfa: sp 0 + .ra: lr
STACK CFI 6e22c .cfa: sp 8 + .ra: .cfa -4 + ^ r4: .cfa -8 + ^
STACK CFI INIT 6e250 34 .cfa: sp 0 + .ra: lr
STACK CFI 6e260 .cfa: sp 8 + .ra: .cfa -4 + ^ r4: .cfa -8 + ^
STACK CFI INIT 6e284 34 .cfa: sp 0 + .ra: lr
STACK CFI 6e294 .cfa: sp 8 + .ra: .cfa -4 + ^ r4: .cfa -8 + ^
STACK CFI INIT 6e2b8 34 .cfa: sp 0 + .ra: lr
STACK CFI 6e2c8 .cfa: sp 8 + .ra: .cfa -4 + ^ r4: .cfa -8 + ^
STACK CFI INIT 6e2ec 34 .cfa: sp 0 + .ra: lr
STACK CFI 6e2fc .cfa: sp 8 + .ra: .cfa -4 + ^ r4: .cfa -8 + ^
STACK CFI INIT 6e320 34 .cfa: sp 0 + .ra: lr
STACK CFI 6e330 .cfa: sp 8 + .ra: .cfa -4 + ^ r4: .cfa -8 + ^
STACK CFI INIT 6e354 34 .cfa: sp 0 + .ra: lr
STACK CFI 6e364 .cfa: sp 8 + .ra: .cfa -4 + ^ r4: .cfa -8 + ^
STACK CFI INIT 6e388 28 .cfa: sp 0 + .ra: lr
STACK CFI 6e390 .cfa: sp 8 + .ra: .cfa -4 + ^ r4: .cfa -8 + ^
STACK CFI 6e394 .cfa: sp 16 +
STACK CFI INIT 6e3b0 28 .cfa: sp 0 + .ra: lr
STACK CFI 6e3b8 .cfa: sp 8 + .ra: .cfa -4 + ^ r4: .cfa -8 + ^
STACK CFI 6e3bc .cfa: sp 16 +
STACK CFI INIT 6e3d8 28 .cfa: sp 0 + .ra: lr
STACK CFI 6e3e0 .cfa: sp 8 + .ra: .cfa -4 + ^ r4: .cfa -8 + ^
STACK CFI 6e3e4 .cfa: sp 16 +
STACK CFI INIT 6e400 28 .cfa: sp 0 + .ra: lr
STACK CFI 6e408 .cfa: sp 8 + .ra: .cfa -4 + ^ r4: .cfa -8 + ^
STACK CFI 6e40c .cfa: sp 16 +
STACK CFI INIT 6e428 28 .cfa: sp 0 + .ra: lr
STACK CFI 6e430 .cfa: sp 8 + .ra: .cfa -4 + ^ r4: .cfa -8 + ^
STACK CFI 6e434 .cfa: sp 16 +
STACK CFI INIT 6e450 28 .cfa: sp 0 + .ra: lr
STACK CFI 6e458 .cfa: sp 8 + .ra: .cfa -4 + ^ r4: .cfa -8 + ^
STACK CFI 6e45c .cfa: sp 16 +
STACK CFI INIT 6e478 28 .cfa: sp 0 + .ra: lr
STACK CFI 6e480 .cfa: sp 8 + .ra: .cfa -4 + ^ r4: .cfa -8 + ^
STACK CFI 6e484 .cfa: sp 16 +
STACK CFI INIT 6e4a0 28 .cfa: sp 0 + .ra: lr
STACK CFI 6e4a8 .cfa: sp 8 + .ra: .cfa -4 + ^ r4: .cfa -8 + ^
STACK CFI 6e4ac .cfa: sp 16 +
STACK CFI INIT 6e4c8 28 .cfa: sp 0 + .ra: lr
STACK CFI 6e4d0 .cfa: sp 8 + .ra: .cfa -4 + ^ r4: .cfa -8 + ^
STACK CFI 6e4d4 .cfa: sp 16 +
STACK CFI INIT 6e4f0 28 .cfa: sp 0 + .ra: lr
STACK CFI 6e4f8 .cfa: sp 8 + .ra: .cfa -4 + ^ r4: .cfa -8 + ^
STACK CFI 6e4fc .cfa: sp 16 +
STACK CFI INIT 6e518 28 .cfa: sp 0 + .ra: lr
STACK CFI 6e520 .cfa: sp 8 + .ra: .cfa -4 + ^ r4: .cfa -8 + ^
STACK CFI 6e524 .cfa: sp 16 +
STACK CFI INIT 6e540 84 .cfa: sp 0 + .ra: lr
STACK CFI 6e550 .cfa: sp 8 + .ra: .cfa -4 + ^ r4: .cfa -8 + ^
STACK CFI INIT 6e5c4 84 .cfa: sp 0 + .ra: lr
STACK CFI 6e5d4 .cfa: sp 8 + .ra: .cfa -4 + ^ r4: .cfa -8 + ^
STACK CFI INIT 6e648 74 .cfa: sp 0 + .ra: lr
STACK CFI 6e658 .cfa: sp 8 + .ra: .cfa -4 + ^ r4: .cfa -8 + ^
STACK CFI INIT 6e6bc 1c .cfa: sp 0 + .ra: lr
STACK CFI 6e6c0 .cfa: sp 8 + .ra: .cfa -4 + ^ r4: .cfa -8 + ^
STACK CFI INIT 6e6d8 1c .cfa: sp 0 + .ra: lr
STACK CFI 6e6dc .cfa: sp 8 + .ra: .cfa -4 + ^ r4: .cfa -8 + ^
STACK CFI INIT 6e6f4 3c .cfa: sp 0 + .ra: lr
STACK CFI 6e704 .cfa: sp 8 + .ra: .cfa -4 + ^ r4: .cfa -8 + ^
STACK CFI INIT 6e730 3c .cfa: sp 0 + .ra: lr
STACK CFI 6e740 .cfa: sp 8 + .ra: .cfa -4 + ^ r4: .cfa -8 + ^
STACK CFI INIT 6e76c 1c .cfa: sp 0 + .ra: lr
STACK CFI 6e770 .cfa: sp 8 + .ra: .cfa -4 + ^ r4: .cfa -8 + ^
STACK CFI INIT 6e788 3c .cfa: sp 0 + .ra: lr
STACK CFI 6e798 .cfa: sp 8 + .ra: .cfa -4 + ^ r4: .cfa -8 + ^
STACK CFI INIT 6e7c4 3c .cfa: sp 0 + .ra: lr
STACK CFI 6e7d4 .cfa: sp 8 + .ra: .cfa -4 + ^ r4: .cfa -8 + ^
STACK CFI INIT 6e800 1c .cfa: sp 0 + .ra: lr
STACK CFI 6e804 .cfa: sp 8 + .ra: .cfa -4 + ^ r4: .cfa -8 + ^
STACK CFI INIT 6e81c 3c .cfa: sp 0 + .ra: lr
STACK CFI 6e82c .cfa: sp 8 + .ra: .cfa -4 + ^ r4: .cfa -8 + ^
STACK CFI INIT 6e858 3c .cfa: sp 0 + .ra: lr
STACK CFI 6e868 .cfa: sp 8 + .ra: .cfa -4 + ^ r4: .cfa -8 + ^
STACK CFI INIT 6e894 3c .cfa: sp 0 + .ra: lr
STACK CFI 6e8a4 .cfa: sp 8 + .ra: .cfa -4 + ^ r4: .cfa -8 + ^
STACK CFI INIT 6e8d0 3c .cfa: sp 0 + .ra: lr
STACK CFI 6e8e0 .cfa: sp 8 + .ra: .cfa -4 + ^ r4: .cfa -8 + ^
STACK CFI INIT 6e90c 3c .cfa: sp 0 + .ra: lr
STACK CFI 6e91c .cfa: sp 8 + .ra: .cfa -4 + ^ r4: .cfa -8 + ^
STACK CFI INIT 6e948 3c .cfa: sp 0 + .ra: lr
STACK CFI 6e958 .cfa: sp 8 + .ra: .cfa -4 + ^ r4: .cfa -8 + ^
STACK CFI INIT 6e984 48 .cfa: sp 0 + .ra: lr
STACK CFI 6e994 .cfa: sp 8 + .ra: .cfa -4 + ^ r4: .cfa -8 + ^
STACK CFI INIT 6e9cc 34 .cfa: sp 0 + .ra: lr
STACK CFI 6e9dc .cfa: sp 8 + .ra: .cfa -4 + ^ r4: .cfa -8 + ^
STACK CFI INIT 6ea00 3c .cfa: sp 0 + .ra: lr
STACK CFI 6ea10 .cfa: sp 8 + .ra: .cfa -4 + ^ r4: .cfa -8 + ^
STACK CFI INIT 6ea3c 34 .cfa: sp 0 + .ra: lr
STACK CFI 6ea4c .cfa: sp 8 + .ra: .cfa -4 + ^ r4: .cfa -8 + ^
STACK CFI INIT 6ea70 3c .cfa: sp 0 + .ra: lr
STACK CFI 6ea80 .cfa: sp 8 + .ra: .cfa -4 + ^ r4: .cfa -8 + ^
STACK CFI INIT 6eaac 34 .cfa: sp 0 + .ra: lr
STACK CFI 6eabc .cfa: sp 8 + .ra: .cfa -4 + ^ r4: .cfa -8 + ^
STACK CFI INIT 6eae0 3c .cfa: sp 0 + .ra: lr
STACK CFI 6eaf0 .cfa: sp 8 + .ra: .cfa -4 + ^ r4: .cfa -8 + ^
STACK CFI INIT 6eb1c 84 .cfa: sp 0 + .ra: lr
STACK CFI 6eb20 .cfa: sp 16 + .ra: .cfa -4 + ^ r3: .cfa -16 + ^ r4: .cfa -12 + ^ r5: .cfa -8 + ^
STACK CFI INIT 6eba0 1c .cfa: sp 0 + .ra: lr
STACK CFI 6eba4 .cfa: sp 8 + .ra: .cfa -4 + ^ r4: .cfa -8 + ^
STACK CFI INIT 6ebbc 6c .cfa: sp 0 + .ra: lr
STACK CFI 6ebc0 .cfa: sp 16 + .ra: .cfa -4 + ^ r3: .cfa -16 + ^ r4: .cfa -12 + ^ r5: .cfa -8 + ^
STACK CFI INIT 6ec28 1c .cfa: sp 0 + .ra: lr
STACK CFI 6ec2c .cfa: sp 8 + .ra: .cfa -4 + ^ r4: .cfa -8 + ^
STACK CFI INIT 6ec44 34 .cfa: sp 0 + .ra: lr
STACK CFI 6ec54 .cfa: sp 8 + .ra: .cfa -4 + ^ r4: .cfa -8 + ^
STACK CFI INIT 6ec78 3c .cfa: sp 0 + .ra: lr
STACK CFI 6ec88 .cfa: sp 8 + .ra: .cfa -4 + ^ r4: .cfa -8 + ^
STACK CFI INIT 6ecb4 14 .cfa: sp 0 + .ra: lr
STACK CFI 6ecb8 .cfa: sp 8 + .ra: .cfa -4 + ^ r3: .cfa -8 + ^
STACK CFI INIT 6ecc8 34 .cfa: sp 0 + .ra: lr
STACK CFI 6ecd8 .cfa: sp 8 + .ra: .cfa -4 + ^ r4: .cfa -8 + ^
STACK CFI INIT 6ecfc 3c .cfa: sp 0 + .ra: lr
STACK CFI 6ed0c .cfa: sp 8 + .ra: .cfa -4 + ^ r4: .cfa -8 + ^
STACK CFI INIT 6ed38 114 .cfa: sp 0 + .ra: lr
STACK CFI 6ed3c .cfa: sp 36 + .ra: .cfa -4 + ^ r10: .cfa -12 + ^ r11: .cfa -8 + ^ r4: .cfa -36 + ^ r5: .cfa -32 + ^ r6: .cfa -28 + ^ r7: .cfa -24 + ^ r8: .cfa -20 + ^ r9: .cfa -16 + ^
STACK CFI 6ed40 .cfa: sp 56 +
STACK CFI INIT 6ee4c 28 .cfa: sp 0 + .ra: lr
STACK CFI 6ee50 .cfa: sp 16 + .ra: .cfa -4 + ^ r3: .cfa -16 + ^ r4: .cfa -12 + ^ r5: .cfa -8 + ^
STACK CFI INIT 6ee74 48 .cfa: sp 0 + .ra: lr
STACK CFI 6ee84 .cfa: sp 8 + .ra: .cfa -4 + ^ r4: .cfa -8 + ^
STACK CFI INIT 6eebc 50 .cfa: sp 0 + .ra: lr
STACK CFI 6eecc .cfa: sp 8 + .ra: .cfa -4 + ^ r4: .cfa -8 + ^
STACK CFI INIT 6ef0c 50 .cfa: sp 0 + .ra: lr
STACK CFI 6ef1c .cfa: sp 8 + .ra: .cfa -4 + ^ r4: .cfa -8 + ^
STACK CFI INIT 6ef5c 1d0 .cfa: sp 0 + .ra: lr
STACK CFI 6ef64 .cfa: sp 36 + .ra: .cfa -4 + ^ r10: .cfa -12 + ^ r11: .cfa -8 + ^ r4: .cfa -36 + ^ r5: .cfa -32 + ^ r6: .cfa -28 + ^ r7: .cfa -24 + ^ r8: .cfa -20 + ^ r9: .cfa -16 + ^
STACK CFI 6ef74 .cfa: sp 64 +
STACK CFI INIT 6f12c 60 .cfa: sp 0 + .ra: lr
STACK CFI 6f130 .cfa: sp 4 + r3: .cfa -4 + ^
STACK CFI 6f138 .cfa: sp 24 + .ra: .cfa -8 + ^ r4: .cfa -24 + ^ r5: .cfa -20 + ^ r6: .cfa -16 + ^ r7: .cfa -12 + ^
STACK CFI 6f13c .cfa: sp 32 +
STACK CFI INIT 6f18c 6c .cfa: sp 0 + .ra: lr
STACK CFI 6f190 .cfa: sp 16 + .ra: .cfa -4 + ^ r4: .cfa -16 + ^ r5: .cfa -12 + ^ r6: .cfa -8 + ^
STACK CFI 6f198 .cfa: sp 24 +
STACK CFI INIT 6f1f8 58 .cfa: sp 0 + .ra: lr
STACK CFI 6f210 .cfa: sp 8 + .ra: .cfa -4 + ^ r4: .cfa -8 + ^
STACK CFI INIT 6f250 58 .cfa: sp 0 + .ra: lr
STACK CFI 6f268 .cfa: sp 8 + .ra: .cfa -4 + ^ r4: .cfa -8 + ^
STACK CFI INIT 6f2a8 58 .cfa: sp 0 + .ra: lr
STACK CFI 6f2ac .cfa: sp 8 + .ra: .cfa -4 + ^ r4: .cfa -8 + ^
STACK CFI INIT 6f300 14 .cfa: sp 0 + .ra: lr
STACK CFI 6f304 .cfa: sp 8 + .ra: .cfa -4 + ^ r3: .cfa -8 + ^
STACK CFI INIT 6f314 14 .cfa: sp 0 + .ra: lr
STACK CFI 6f318 .cfa: sp 8 + .ra: .cfa -4 + ^ r3: .cfa -8 + ^
STACK CFI INIT 6f328 1c .cfa: sp 0 + .ra: lr
STACK CFI 6f330 .cfa: sp 8 + .ra: .cfa -4 + ^ r4: .cfa -8 + ^
STACK CFI INIT 6f344 1c .cfa: sp 0 + .ra: lr
STACK CFI 6f34c .cfa: sp 8 + .ra: .cfa -4 + ^ r4: .cfa -8 + ^
STACK CFI INIT 6f360 1c .cfa: sp 0 + .ra: lr
STACK CFI 6f368 .cfa: sp 8 + .ra: .cfa -4 + ^ r4: .cfa -8 + ^
STACK CFI INIT 6f37c 1c .cfa: sp 0 + .ra: lr
STACK CFI 6f384 .cfa: sp 8 + .ra: .cfa -4 + ^ r4: .cfa -8 + ^
STACK CFI INIT 6f398 14 .cfa: sp 0 + .ra: lr
STACK CFI 6f39c .cfa: sp 8 + .ra: .cfa -4 + ^ r3: .cfa -8 + ^
STACK CFI INIT 6f3ac 1c .cfa: sp 0 + .ra: lr
STACK CFI 6f3b4 .cfa: sp 4 + .ra: .cfa -4 + ^
STACK CFI 6f3bc .cfa: sp 16 +
STACK CFI INIT 6f3c8 1c .cfa: sp 0 + .ra: lr
STACK CFI 6f3d0 .cfa: sp 4 + .ra: .cfa -4 + ^
STACK CFI 6f3d8 .cfa: sp 16 +
STACK CFI INIT 6f3e4 58 .cfa: sp 0 + .ra: lr
STACK CFI 6f3fc .cfa: sp 8 + .ra: .cfa -4 + ^ r4: .cfa -8 + ^
STACK CFI INIT 6f43c 58 .cfa: sp 0 + .ra: lr
STACK CFI 6f454 .cfa: sp 8 + .ra: .cfa -4 + ^ r4: .cfa -8 + ^
STACK CFI INIT 6f494 58 .cfa: sp 0 + .ra: lr
STACK CFI 6f498 .cfa: sp 8 + .ra: .cfa -4 + ^ r4: .cfa -8 + ^
STACK CFI INIT 6f4ec 14 .cfa: sp 0 + .ra: lr
STACK CFI 6f4f0 .cfa: sp 8 + .ra: .cfa -4 + ^ r3: .cfa -8 + ^
STACK CFI INIT 6f500 14 .cfa: sp 0 + .ra: lr
STACK CFI 6f504 .cfa: sp 8 + .ra: .cfa -4 + ^ r3: .cfa -8 + ^
STACK CFI INIT 6f514 1c .cfa: sp 0 + .ra: lr
STACK CFI 6f51c .cfa: sp 8 + .ra: .cfa -4 + ^ r4: .cfa -8 + ^
STACK CFI INIT 6f530 1c .cfa: sp 0 + .ra: lr
STACK CFI 6f538 .cfa: sp 8 + .ra: .cfa -4 + ^ r4: .cfa -8 + ^
STACK CFI INIT 6f54c 1c .cfa: sp 0 + .ra: lr
STACK CFI 6f554 .cfa: sp 8 + .ra: .cfa -4 + ^ r4: .cfa -8 + ^
STACK CFI INIT 6f568 1c .cfa: sp 0 + .ra: lr
STACK CFI 6f570 .cfa: sp 8 + .ra: .cfa -4 + ^ r4: .cfa -8 + ^
STACK CFI INIT 6f584 14 .cfa: sp 0 + .ra: lr
STACK CFI 6f588 .cfa: sp 8 + .ra: .cfa -4 + ^ r3: .cfa -8 + ^
STACK CFI INIT 6f598 1c .cfa: sp 0 + .ra: lr
STACK CFI 6f5a0 .cfa: sp 4 + .ra: .cfa -4 + ^
STACK CFI 6f5a8 .cfa: sp 16 +
STACK CFI INIT 6f5b4 1c .cfa: sp 0 + .ra: lr
STACK CFI 6f5bc .cfa: sp 4 + .ra: .cfa -4 + ^
STACK CFI 6f5c4 .cfa: sp 16 +
STACK CFI INIT 6f5d0 8c .cfa: sp 0 + .ra: lr
STACK CFI INIT 6f65c 8c .cfa: sp 0 + .ra: lr
STACK CFI INIT 6f6e8 f8 .cfa: sp 0 + .ra: lr
STACK CFI 6f6ec .cfa: sp 16 + .ra: .cfa -4 + ^ r4: .cfa -16 + ^ r5: .cfa -12 + ^ r6: .cfa -8 + ^
STACK CFI 6f71c .cfa: sp 24 +
STACK CFI INIT 6f7e0 f8 .cfa: sp 0 + .ra: lr
STACK CFI 6f7e4 .cfa: sp 16 + .ra: .cfa -4 + ^ r4: .cfa -16 + ^ r5: .cfa -12 + ^ r6: .cfa -8 + ^
STACK CFI 6f814 .cfa: sp 24 +
STACK CFI INIT 6f8d8 30 .cfa: sp 0 + .ra: lr
STACK CFI INIT 6f908 68 .cfa: sp 0 + .ra: lr
STACK CFI 6f90c .cfa: sp 24 + .ra: .cfa -4 + ^ r4: .cfa -24 + ^ r5: .cfa -20 + ^ r6: .cfa -16 + ^ r7: .cfa -12 + ^ r8: .cfa -8 + ^
STACK CFI 6f910 .cfa: sp 56 +
STACK CFI INIT 6f970 68 .cfa: sp 0 + .ra: lr
STACK CFI 6f974 .cfa: sp 24 + .ra: .cfa -4 + ^ r4: .cfa -24 + ^ r5: .cfa -20 + ^ r6: .cfa -16 + ^ r7: .cfa -12 + ^ r8: .cfa -8 + ^
STACK CFI 6f978 .cfa: sp 56 +
STACK CFI INIT 6f9d8 30 .cfa: sp 0 + .ra: lr
STACK CFI INIT 6fa08 4c .cfa: sp 0 + .ra: lr
STACK CFI 6fa0c .cfa: sp 20 + .ra: .cfa -4 + ^ r4: .cfa -20 + ^ r5: .cfa -16 + ^ r6: .cfa -12 + ^ r7: .cfa -8 + ^
STACK CFI 6fa10 .cfa: sp 56 +
STACK CFI INIT 6fa54 50 .cfa: sp 0 + .ra: lr
STACK CFI 6fa58 .cfa: sp 20 + .ra: .cfa -4 + ^ r4: .cfa -20 + ^ r5: .cfa -16 + ^ r6: .cfa -12 + ^ r7: .cfa -8 + ^
STACK CFI 6fa60 .cfa: sp 48 +
STACK CFI INIT 6faa4 54 .cfa: sp 0 + .ra: lr
STACK CFI 6fabc .cfa: sp 8 + .ra: .cfa -4 + ^ r4: .cfa -8 + ^
STACK CFI INIT 6faf8 54 .cfa: sp 0 + .ra: lr
STACK CFI 6fb10 .cfa: sp 8 + .ra: .cfa -4 + ^ r4: .cfa -8 + ^
STACK CFI INIT 6fb4c 54 .cfa: sp 0 + .ra: lr
STACK CFI 6fb64 .cfa: sp 8 + .ra: .cfa -4 + ^ r4: .cfa -8 + ^
STACK CFI INIT 6fba0 14 .cfa: sp 0 + .ra: lr
STACK CFI 6fba4 .cfa: sp 8 + .ra: .cfa -4 + ^ r3: .cfa -8 + ^
STACK CFI INIT 6fbb4 14 .cfa: sp 0 + .ra: lr
STACK CFI 6fbb8 .cfa: sp 8 + .ra: .cfa -4 + ^ r3: .cfa -8 + ^
STACK CFI INIT 6fbc8 1c .cfa: sp 0 + .ra: lr
STACK CFI 6fbd0 .cfa: sp 8 + .ra: .cfa -4 + ^ r4: .cfa -8 + ^
STACK CFI INIT 6fbe4 1c .cfa: sp 0 + .ra: lr
STACK CFI 6fbec .cfa: sp 8 + .ra: .cfa -4 + ^ r4: .cfa -8 + ^
STACK CFI INIT 6fc00 1c .cfa: sp 0 + .ra: lr
STACK CFI 6fc08 .cfa: sp 8 + .ra: .cfa -4 + ^ r4: .cfa -8 + ^
STACK CFI INIT 6fc1c 60 .cfa: sp 0 + .ra: lr
STACK CFI INIT 6fc7c f0 .cfa: sp 0 + .ra: lr
STACK CFI 6fc80 .cfa: sp 16 + .ra: .cfa -4 + ^ r4: .cfa -16 + ^ r5: .cfa -12 + ^ r6: .cfa -8 + ^
STACK CFI 6fcac .cfa: sp 24 +
STACK CFI INIT 6fd6c 30 .cfa: sp 0 + .ra: lr
STACK CFI INIT 6fd9c 60 .cfa: sp 0 + .ra: lr
STACK CFI 6fda0 .cfa: sp 20 + .ra: .cfa -4 + ^ r4: .cfa -20 + ^ r5: .cfa -16 + ^ r6: .cfa -12 + ^ r7: .cfa -8 + ^
STACK CFI 6fda4 .cfa: sp 56 +
STACK CFI INIT 6fdfc 60 .cfa: sp 0 + .ra: lr
STACK CFI 6fe00 .cfa: sp 20 + .ra: .cfa -4 + ^ r4: .cfa -20 + ^ r5: .cfa -16 + ^ r6: .cfa -12 + ^ r7: .cfa -8 + ^
STACK CFI 6fe04 .cfa: sp 56 +
STACK CFI INIT 6fe5c 60 .cfa: sp 0 + .ra: lr
STACK CFI 6fe60 .cfa: sp 20 + .ra: .cfa -4 + ^ r4: .cfa -20 + ^ r5: .cfa -16 + ^ r6: .cfa -12 + ^ r7: .cfa -8 + ^
STACK CFI 6fe64 .cfa: sp 56 +
STACK CFI INIT 6febc 60 .cfa: sp 0 + .ra: lr
STACK CFI 6fec0 .cfa: sp 20 + .ra: .cfa -4 + ^ r4: .cfa -20 + ^ r5: .cfa -16 + ^ r6: .cfa -12 + ^ r7: .cfa -8 + ^
STACK CFI 6fec4 .cfa: sp 56 +
STACK CFI INIT 6ff1c 60 .cfa: sp 0 + .ra: lr
STACK CFI 6ff20 .cfa: sp 20 + .ra: .cfa -4 + ^ r4: .cfa -20 + ^ r5: .cfa -16 + ^ r6: .cfa -12 + ^ r7: .cfa -8 + ^
STACK CFI 6ff24 .cfa: sp 56 +
STACK CFI INIT 6ff7c 60 .cfa: sp 0 + .ra: lr
STACK CFI 6ff80 .cfa: sp 20 + .ra: .cfa -4 + ^ r4: .cfa -20 + ^ r5: .cfa -16 + ^ r6: .cfa -12 + ^ r7: .cfa -8 + ^
STACK CFI 6ff84 .cfa: sp 56 +
STACK CFI INIT 6ffdc 60 .cfa: sp 0 + .ra: lr
STACK CFI 6ffe0 .cfa: sp 20 + .ra: .cfa -4 + ^ r4: .cfa -20 + ^ r5: .cfa -16 + ^ r6: .cfa -12 + ^ r7: .cfa -8 + ^
STACK CFI 6ffe4 .cfa: sp 56 +
STACK CFI INIT 7003c 60 .cfa: sp 0 + .ra: lr
STACK CFI 70040 .cfa: sp 20 + .ra: .cfa -4 + ^ r4: .cfa -20 + ^ r5: .cfa -16 + ^ r6: .cfa -12 + ^ r7: .cfa -8 + ^
STACK CFI 70044 .cfa: sp 56 +
STACK CFI INIT 7009c 60 .cfa: sp 0 + .ra: lr
STACK CFI 700a0 .cfa: sp 20 + .ra: .cfa -4 + ^ r4: .cfa -20 + ^ r5: .cfa -16 + ^ r6: .cfa -12 + ^ r7: .cfa -8 + ^
STACK CFI 700a4 .cfa: sp 56 +
STACK CFI INIT 700fc 60 .cfa: sp 0 + .ra: lr
STACK CFI 70100 .cfa: sp 20 + .ra: .cfa -4 + ^ r4: .cfa -20 + ^ r5: .cfa -16 + ^ r6: .cfa -12 + ^ r7: .cfa -8 + ^
STACK CFI 70104 .cfa: sp 56 +
STACK CFI INIT 7015c 60 .cfa: sp 0 + .ra: lr
STACK CFI 70160 .cfa: sp 20 + .ra: .cfa -4 + ^ r4: .cfa -20 + ^ r5: .cfa -16 + ^ r6: .cfa -12 + ^ r7: .cfa -8 + ^
STACK CFI 70164 .cfa: sp 56 +
STACK CFI INIT 701bc 30 .cfa: sp 0 + .ra: lr
STACK CFI INIT 701ec 48 .cfa: sp 0 + .ra: lr
STACK CFI 701f0 .cfa: sp 16 + .ra: .cfa -4 + ^ r4: .cfa -16 + ^ r5: .cfa -12 + ^ r6: .cfa -8 + ^
STACK CFI 701f8 .cfa: sp 40 +
STACK CFI INIT 70234 48 .cfa: sp 0 + .ra: lr
STACK CFI 70238 .cfa: sp 16 + .ra: .cfa -4 + ^ r4: .cfa -16 + ^ r5: .cfa -12 + ^ r6: .cfa -8 + ^
STACK CFI 70240 .cfa: sp 40 +
STACK CFI INIT 7027c 48 .cfa: sp 0 + .ra: lr
STACK CFI 70280 .cfa: sp 16 + .ra: .cfa -4 + ^ r4: .cfa -16 + ^ r5: .cfa -12 + ^ r6: .cfa -8 + ^
STACK CFI 70288 .cfa: sp 40 +
STACK CFI INIT 702c4 44 .cfa: sp 0 + .ra: lr
STACK CFI 702c8 .cfa: sp 16 + .ra: .cfa -4 + ^ r4: .cfa -16 + ^ r5: .cfa -12 + ^ r6: .cfa -8 + ^
STACK CFI 702cc .cfa: sp 40 +
STACK CFI INIT 70308 44 .cfa: sp 0 + .ra: lr
STACK CFI 7030c .cfa: sp 16 + .ra: .cfa -4 + ^ r4: .cfa -16 + ^ r5: .cfa -12 + ^ r6: .cfa -8 + ^
STACK CFI 70310 .cfa: sp 40 +
STACK CFI INIT 7034c 44 .cfa: sp 0 + .ra: lr
STACK CFI 70350 .cfa: sp 16 + .ra: .cfa -4 + ^ r4: .cfa -16 + ^ r5: .cfa -12 + ^ r6: .cfa -8 + ^
STACK CFI 70354 .cfa: sp 40 +
STACK CFI INIT 70390 44 .cfa: sp 0 + .ra: lr
STACK CFI 70394 .cfa: sp 16 + .ra: .cfa -4 + ^ r4: .cfa -16 + ^ r5: .cfa -12 + ^ r6: .cfa -8 + ^
STACK CFI 70398 .cfa: sp 40 +
STACK CFI INIT 703d4 48 .cfa: sp 0 + .ra: lr
STACK CFI 703d8 .cfa: sp 16 + .ra: .cfa -4 + ^ r4: .cfa -16 + ^ r5: .cfa -12 + ^ r6: .cfa -8 + ^
STACK CFI 703e0 .cfa: sp 40 +
STACK CFI INIT 7041c 68 .cfa: sp 0 + .ra: lr
STACK CFI 70420 .cfa: sp 16 + .ra: .cfa -4 + ^ r3: .cfa -16 + ^ r4: .cfa -12 + ^ r5: .cfa -8 + ^
STACK CFI INIT 70484 68 .cfa: sp 0 + .ra: lr
STACK CFI 70488 .cfa: sp 16 + .ra: .cfa -4 + ^ r3: .cfa -16 + ^ r4: .cfa -12 + ^ r5: .cfa -8 + ^
STACK CFI INIT 704ec dc .cfa: sp 0 + .ra: lr
STACK CFI 704f4 .cfa: sp 24 + .ra: .cfa -4 + ^ r4: .cfa -24 + ^ r5: .cfa -20 + ^ r6: .cfa -16 + ^ r7: .cfa -12 + ^ r8: .cfa -8 + ^
STACK CFI INIT 705c8 1c .cfa: sp 0 + .ra: lr
STACK CFI INIT 705e4 1c .cfa: sp 0 + .ra: lr
STACK CFI INIT 70600 1c .cfa: sp 0 + .ra: lr
STACK CFI INIT 7061c 4 .cfa: sp 0 + .ra: lr
STACK CFI INIT 70620 1c .cfa: sp 0 + .ra: lr
STACK CFI INIT 7063c 58 .cfa: sp 0 + .ra: lr
STACK CFI INIT 70694 58 .cfa: sp 0 + .ra: lr
STACK CFI INIT 706ec 94 .cfa: sp 0 + .ra: lr
STACK CFI INIT 70780 94 .cfa: sp 0 + .ra: lr
STACK CFI INIT 70814 f8 .cfa: sp 0 + .ra: lr
STACK CFI INIT 7090c 30 .cfa: sp 0 + .ra: lr
STACK CFI INIT 7093c 58 .cfa: sp 0 + .ra: lr
STACK CFI 70940 .cfa: sp 24 + .ra: .cfa -4 + ^ r4: .cfa -24 + ^ r5: .cfa -20 + ^ r6: .cfa -16 + ^ r7: .cfa -12 + ^ r8: .cfa -8 + ^
STACK CFI 70948 .cfa: sp 56 +
STACK CFI INIT 70994 34 .cfa: sp 0 + .ra: lr
STACK CFI INIT 709c8 30 .cfa: sp 0 + .ra: lr
STACK CFI INIT 709f8 14 .cfa: sp 0 + .ra: lr
STACK CFI 709fc .cfa: sp 8 + .ra: .cfa -4 + ^ r3: .cfa -8 + ^
STACK CFI INIT 70a0c 60 .cfa: sp 0 + .ra: lr
STACK CFI 70a10 .cfa: sp 20 + .ra: .cfa -4 + ^ r4: .cfa -20 + ^ r5: .cfa -16 + ^ r6: .cfa -12 + ^ r7: .cfa -8 + ^
STACK CFI 70a14 .cfa: sp 56 +
STACK CFI INIT 70a6c 60 .cfa: sp 0 + .ra: lr
STACK CFI 70a70 .cfa: sp 20 + .ra: .cfa -4 + ^ r4: .cfa -20 + ^ r5: .cfa -16 + ^ r6: .cfa -12 + ^ r7: .cfa -8 + ^
STACK CFI 70a74 .cfa: sp 56 +
STACK CFI INIT 70acc 60 .cfa: sp 0 + .ra: lr
STACK CFI 70ad0 .cfa: sp 20 + .ra: .cfa -4 + ^ r4: .cfa -20 + ^ r5: .cfa -16 + ^ r6: .cfa -12 + ^ r7: .cfa -8 + ^
STACK CFI 70ad4 .cfa: sp 56 +
STACK CFI INIT 70b2c 60 .cfa: sp 0 + .ra: lr
STACK CFI 70b30 .cfa: sp 20 + .ra: .cfa -4 + ^ r4: .cfa -20 + ^ r5: .cfa -16 + ^ r6: .cfa -12 + ^ r7: .cfa -8 + ^
STACK CFI 70b34 .cfa: sp 56 +
STACK CFI INIT 70b8c 60 .cfa: sp 0 + .ra: lr
STACK CFI 70b90 .cfa: sp 20 + .ra: .cfa -4 + ^ r4: .cfa -20 + ^ r5: .cfa -16 + ^ r6: .cfa -12 + ^ r7: .cfa -8 + ^
STACK CFI 70b94 .cfa: sp 56 +
STACK CFI INIT 70bec 34 .cfa: sp 0 + .ra: lr
STACK CFI INIT 70c20 58 .cfa: sp 0 + .ra: lr
STACK CFI 70c38 .cfa: sp 8 + .ra: .cfa -4 + ^ r4: .cfa -8 + ^
STACK CFI INIT 70c78 bc .cfa: sp 0 + .ra: lr
STACK CFI 70c7c .cfa: sp 16 + .ra: .cfa -4 + ^ r4: .cfa -16 + ^ r5: .cfa -12 + ^ r6: .cfa -8 + ^
STACK CFI 70c94 .cfa: sp 24 +
STACK CFI INIT 70d34 14 .cfa: sp 0 + .ra: lr
STACK CFI 70d38 .cfa: sp 8 + .ra: .cfa -4 + ^ r3: .cfa -8 + ^
STACK CFI INIT 70d48 38 .cfa: sp 0 + .ra: lr
STACK CFI 70d4c .cfa: sp 16 + .ra: .cfa -4 + ^ r4: .cfa -16 + ^ r5: .cfa -12 + ^ r6: .cfa -8 + ^
STACK CFI INIT 70d80 30 .cfa: sp 0 + .ra: lr
STACK CFI 70d84 .cfa: sp 8 + .ra: .cfa -4 + ^ r4: .cfa -8 + ^
STACK CFI 70d88 .cfa: sp 16 +
STACK CFI INIT 70db0 14 .cfa: sp 0 + .ra: lr
STACK CFI 70db4 .cfa: sp 8 + .ra: .cfa -4 + ^ r3: .cfa -8 + ^
STACK CFI INIT 70dc4 8 .cfa: sp 0 + .ra: lr
STACK CFI INIT 70dcc 24 .cfa: sp 0 + .ra: lr
STACK CFI INIT 70df0 10c .cfa: sp 0 + .ra: lr
STACK CFI 70df4 .cfa: sp 24 + .ra: .cfa -4 + ^ r3: .cfa -24 + ^ r4: .cfa -20 + ^ r5: .cfa -16 + ^ r6: .cfa -12 + ^ r7: .cfa -8 + ^
STACK CFI INIT 70efc a4 .cfa: sp 0 + .ra: lr
STACK CFI 70f00 .cfa: sp 16 + .ra: .cfa -4 + ^ r4: .cfa -16 + ^ r5: .cfa -12 + ^ r6: .cfa -8 + ^
STACK CFI INIT 70fa0 50 .cfa: sp 0 + .ra: lr
STACK CFI 70fb8 .cfa: sp 8 + .ra: .cfa -4 + ^ r4: .cfa -8 + ^
STACK CFI INIT 70ff0 54 .cfa: sp 0 + .ra: lr
STACK CFI 70ff8 .cfa: sp 8 + .ra: .cfa -4 + ^ r4: .cfa -8 + ^
STACK CFI 71000 .cfa: sp 16 +
STACK CFI INIT 71044 24 .cfa: sp 0 + .ra: lr
STACK CFI 71048 .cfa: sp 4 + .ra: .cfa -4 + ^
STACK CFI 71050 .cfa: sp 16 +
STACK CFI INIT 71068 1c .cfa: sp 0 + .ra: lr
STACK CFI 71070 .cfa: sp 8 + .ra: .cfa -4 + ^ r4: .cfa -8 + ^
STACK CFI INIT 71084 14 .cfa: sp 0 + .ra: lr
STACK CFI 71088 .cfa: sp 8 + .ra: .cfa -4 + ^ r3: .cfa -8 + ^
STACK CFI INIT 71098 d0 .cfa: sp 0 + .ra: lr
STACK CFI 7109c .cfa: sp 16 + .ra: .cfa -4 + ^ r4: .cfa -16 + ^ r5: .cfa -12 + ^ r6: .cfa -8 + ^
STACK CFI INIT 71168 74 .cfa: sp 0 + .ra: lr
STACK CFI 7116c .cfa: sp 16 + .ra: .cfa -4 + ^ r3: .cfa -16 + ^ r4: .cfa -12 + ^ r5: .cfa -8 + ^
STACK CFI INIT 711dc 248 .cfa: sp 0 + .ra: lr
STACK CFI 711e0 .cfa: sp 36 + .ra: .cfa -4 + ^ r10: .cfa -12 + ^ r11: .cfa -8 + ^ r4: .cfa -36 + ^ r5: .cfa -32 + ^ r6: .cfa -28 + ^ r7: .cfa -24 + ^ r8: .cfa -20 + ^ r9: .cfa -16 + ^
STACK CFI 711e4 .cfa: sp 104 +
STACK CFI INIT 71424 2c0 .cfa: sp 0 + .ra: lr
STACK CFI 71428 .cfa: sp 36 + .ra: .cfa -4 + ^ r10: .cfa -12 + ^ r11: .cfa -8 + ^ r4: .cfa -36 + ^ r5: .cfa -32 + ^ r6: .cfa -28 + ^ r7: .cfa -24 + ^ r8: .cfa -20 + ^ r9: .cfa -16 + ^
STACK CFI 7142c .cfa: sp 56 +
STACK CFI INIT 716e4 188 .cfa: sp 0 + .ra: lr
STACK CFI 716e8 .cfa: sp 28 + .ra: .cfa -4 + ^ r4: .cfa -28 + ^ r5: .cfa -24 + ^ r6: .cfa -20 + ^ r7: .cfa -16 + ^ r8: .cfa -12 + ^ r9: .cfa -8 + ^
STACK CFI 716ec .cfa: sp 88 +
STACK CFI INIT 7186c 74 .cfa: sp 0 + .ra: lr
STACK CFI 71870 .cfa: sp 16 + .ra: .cfa -4 + ^ r3: .cfa -16 + ^ r4: .cfa -12 + ^ r5: .cfa -8 + ^
STACK CFI INIT 718e0 74 .cfa: sp 0 + .ra: lr
STACK CFI 718e4 .cfa: sp 16 + .ra: .cfa -4 + ^ r3: .cfa -16 + ^ r4: .cfa -12 + ^ r5: .cfa -8 + ^
STACK CFI INIT 71954 74 .cfa: sp 0 + .ra: lr
STACK CFI 71958 .cfa: sp 16 + .ra: .cfa -4 + ^ r3: .cfa -16 + ^ r4: .cfa -12 + ^ r5: .cfa -8 + ^
STACK CFI INIT 719c8 550 .cfa: sp 0 + .ra: lr
STACK CFI 719d0 .cfa: sp 36 + .ra: .cfa -4 + ^ r10: .cfa -12 + ^ r11: .cfa -8 + ^ r4: .cfa -36 + ^ r5: .cfa -32 + ^ r6: .cfa -28 + ^ r7: .cfa -24 + ^ r8: .cfa -20 + ^ r9: .cfa -16 + ^
STACK CFI 719d8 .cfa: sp 72 +
STACK CFI INIT 71f18 74 .cfa: sp 0 + .ra: lr
STACK CFI 71f1c .cfa: sp 16 + .ra: .cfa -4 + ^ r3: .cfa -16 + ^ r4: .cfa -12 + ^ r5: .cfa -8 + ^
STACK CFI INIT 71f8c 74 .cfa: sp 0 + .ra: lr
STACK CFI 71f90 .cfa: sp 16 + .ra: .cfa -4 + ^ r3: .cfa -16 + ^ r4: .cfa -12 + ^ r5: .cfa -8 + ^
STACK CFI INIT 72000 74 .cfa: sp 0 + .ra: lr
STACK CFI 72004 .cfa: sp 16 + .ra: .cfa -4 + ^ r3: .cfa -16 + ^ r4: .cfa -12 + ^ r5: .cfa -8 + ^
STACK CFI INIT 72074 438 .cfa: sp 0 + .ra: lr
STACK CFI 7207c .cfa: sp 36 + .ra: .cfa -4 + ^ r10: .cfa -12 + ^ r11: .cfa -8 + ^ r4: .cfa -36 + ^ r5: .cfa -32 + ^ r6: .cfa -28 + ^ r7: .cfa -24 + ^ r8: .cfa -20 + ^ r9: .cfa -16 + ^
STACK CFI 72084 .cfa: sp 96 +
STACK CFI INIT 724ac 74 .cfa: sp 0 + .ra: lr
STACK CFI 724b0 .cfa: sp 16 + .ra: .cfa -4 + ^ r3: .cfa -16 + ^ r4: .cfa -12 + ^ r5: .cfa -8 + ^
STACK CFI INIT 72520 438 .cfa: sp 0 + .ra: lr
STACK CFI 72528 .cfa: sp 36 + .ra: .cfa -4 + ^ r10: .cfa -12 + ^ r11: .cfa -8 + ^ r4: .cfa -36 + ^ r5: .cfa -32 + ^ r6: .cfa -28 + ^ r7: .cfa -24 + ^ r8: .cfa -20 + ^ r9: .cfa -16 + ^
STACK CFI 72530 .cfa: sp 96 +
STACK CFI INIT 72958 74 .cfa: sp 0 + .ra: lr
STACK CFI 7295c .cfa: sp 16 + .ra: .cfa -4 + ^ r3: .cfa -16 + ^ r4: .cfa -12 + ^ r5: .cfa -8 + ^
STACK CFI INIT 729cc 74 .cfa: sp 0 + .ra: lr
STACK CFI 729d0 .cfa: sp 16 + .ra: .cfa -4 + ^ r3: .cfa -16 + ^ r4: .cfa -12 + ^ r5: .cfa -8 + ^
STACK CFI INIT 72a40 74 .cfa: sp 0 + .ra: lr
STACK CFI 72a44 .cfa: sp 16 + .ra: .cfa -4 + ^ r3: .cfa -16 + ^ r4: .cfa -12 + ^ r5: .cfa -8 + ^
STACK CFI INIT 72ab4 fc .cfa: sp 0 + .ra: lr
STACK CFI 72ab8 .cfa: sp 32 + .ra: .cfa -4 + ^ r10: .cfa -8 + ^ r4: .cfa -32 + ^ r5: .cfa -28 + ^ r6: .cfa -24 + ^ r7: .cfa -20 + ^ r8: .cfa -16 + ^ r9: .cfa -12 + ^
STACK CFI 72abc .cfa: sp 184 +
STACK CFI INIT 72bb0 74 .cfa: sp 0 + .ra: lr
STACK CFI 72bb4 .cfa: sp 16 + .ra: .cfa -4 + ^ r3: .cfa -16 + ^ r4: .cfa -12 + ^ r5: .cfa -8 + ^
STACK CFI INIT 72c24 74 .cfa: sp 0 + .ra: lr
STACK CFI 72c28 .cfa: sp 16 + .ra: .cfa -4 + ^ r3: .cfa -16 + ^ r4: .cfa -12 + ^ r5: .cfa -8 + ^
STACK CFI INIT 72c98 74 .cfa: sp 0 + .ra: lr
STACK CFI 72c9c .cfa: sp 16 + .ra: .cfa -4 + ^ r3: .cfa -16 + ^ r4: .cfa -12 + ^ r5: .cfa -8 + ^
STACK CFI INIT 72d0c 78 .cfa: sp 0 + .ra: lr
STACK CFI 72d10 .cfa: sp 16 + .ra: .cfa -4 + ^ r3: .cfa -16 + ^ r4: .cfa -12 + ^ r5: .cfa -8 + ^
STACK CFI INIT 72d84 78 .cfa: sp 0 + .ra: lr
STACK CFI 72d88 .cfa: sp 16 + .ra: .cfa -4 + ^ r3: .cfa -16 + ^ r4: .cfa -12 + ^ r5: .cfa -8 + ^
STACK CFI INIT 72dfc 78 .cfa: sp 0 + .ra: lr
STACK CFI 72e00 .cfa: sp 16 + .ra: .cfa -4 + ^ r3: .cfa -16 + ^ r4: .cfa -12 + ^ r5: .cfa -8 + ^
STACK CFI INIT 72e74 78 .cfa: sp 0 + .ra: lr
STACK CFI 72e78 .cfa: sp 16 + .ra: .cfa -4 + ^ r3: .cfa -16 + ^ r4: .cfa -12 + ^ r5: .cfa -8 + ^
STACK CFI INIT 72eec 78 .cfa: sp 0 + .ra: lr
STACK CFI 72ef0 .cfa: sp 16 + .ra: .cfa -4 + ^ r3: .cfa -16 + ^ r4: .cfa -12 + ^ r5: .cfa -8 + ^
STACK CFI INIT 72f64 78 .cfa: sp 0 + .ra: lr
STACK CFI 72f68 .cfa: sp 16 + .ra: .cfa -4 + ^ r3: .cfa -16 + ^ r4: .cfa -12 + ^ r5: .cfa -8 + ^
STACK CFI INIT 72fdc 78 .cfa: sp 0 + .ra: lr
STACK CFI 72fe0 .cfa: sp 16 + .ra: .cfa -4 + ^ r3: .cfa -16 + ^ r4: .cfa -12 + ^ r5: .cfa -8 + ^
STACK CFI INIT 73054 78 .cfa: sp 0 + .ra: lr
STACK CFI 73058 .cfa: sp 16 + .ra: .cfa -4 + ^ r3: .cfa -16 + ^ r4: .cfa -12 + ^ r5: .cfa -8 + ^
STACK CFI INIT 730cc 78 .cfa: sp 0 + .ra: lr
STACK CFI 730d0 .cfa: sp 16 + .ra: .cfa -4 + ^ r3: .cfa -16 + ^ r4: .cfa -12 + ^ r5: .cfa -8 + ^
STACK CFI INIT 73144 78 .cfa: sp 0 + .ra: lr
STACK CFI 73148 .cfa: sp 16 + .ra: .cfa -4 + ^ r3: .cfa -16 + ^ r4: .cfa -12 + ^ r5: .cfa -8 + ^
STACK CFI INIT 731bc 78 .cfa: sp 0 + .ra: lr
STACK CFI 731c0 .cfa: sp 16 + .ra: .cfa -4 + ^ r3: .cfa -16 + ^ r4: .cfa -12 + ^ r5: .cfa -8 + ^
STACK CFI INIT 73234 78 .cfa: sp 0 + .ra: lr
STACK CFI 73238 .cfa: sp 16 + .ra: .cfa -4 + ^ r3: .cfa -16 + ^ r4: .cfa -12 + ^ r5: .cfa -8 + ^
STACK CFI INIT 732ac 78 .cfa: sp 0 + .ra: lr
STACK CFI 732b0 .cfa: sp 16 + .ra: .cfa -4 + ^ r3: .cfa -16 + ^ r4: .cfa -12 + ^ r5: .cfa -8 + ^
STACK CFI INIT 73324 13c .cfa: sp 0 + .ra: lr
STACK CFI 73328 .cfa: sp 24 + r4: .cfa -24 + ^ r5: .cfa -20 + ^ r6: .cfa -16 + ^ r7: .cfa -12 + ^ r8: .cfa -8 + ^ r9: .cfa -4 + ^
STACK CFI INIT 73460 a8 .cfa: sp 0 + .ra: lr
STACK CFI 73464 .cfa: sp 20 + .ra: .cfa -4 + ^ r4: .cfa -20 + ^ r5: .cfa -16 + ^ r6: .cfa -12 + ^ r7: .cfa -8 + ^
STACK CFI 73468 .cfa: sp 32 +
STACK CFI INIT 73508 4c .cfa: sp 0 + .ra: lr
STACK CFI 7350c .cfa: sp 12 + .ra: .cfa -4 + ^ r4: .cfa -12 + ^ r5: .cfa -8 + ^
STACK CFI 73510 .cfa: sp 24 +
STACK CFI INIT 73554 600 .cfa: sp 0 + .ra: lr
STACK CFI 73558 .cfa: sp 36 + .ra: .cfa -4 + ^ r10: .cfa -12 + ^ r11: .cfa -8 + ^ r4: .cfa -36 + ^ r5: .cfa -32 + ^ r6: .cfa -28 + ^ r7: .cfa -24 + ^ r8: .cfa -20 + ^ r9: .cfa -16 + ^
STACK CFI 7355c .cfa: sp 112 +
STACK CFI INIT 73b54 600 .cfa: sp 0 + .ra: lr
STACK CFI 73b58 .cfa: sp 36 + .ra: .cfa -4 + ^ r10: .cfa -12 + ^ r11: .cfa -8 + ^ r4: .cfa -36 + ^ r5: .cfa -32 + ^ r6: .cfa -28 + ^ r7: .cfa -24 + ^ r8: .cfa -20 + ^ r9: .cfa -16 + ^
STACK CFI 73b5c .cfa: sp 112 +
STACK CFI INIT 74154 280 .cfa: sp 0 + .ra: lr
STACK CFI 74158 .cfa: sp 36 + .ra: .cfa -4 + ^ r10: .cfa -12 + ^ r11: .cfa -8 + ^ r4: .cfa -36 + ^ r5: .cfa -32 + ^ r6: .cfa -28 + ^ r7: .cfa -24 + ^ r8: .cfa -20 + ^ r9: .cfa -16 + ^
STACK CFI 7415c .cfa: r11 4 +
STACK CFI INIT 743d4 58 .cfa: sp 0 + .ra: lr
STACK CFI 743d8 .cfa: sp 8 + .ra: .cfa -4 + ^ r4: .cfa -8 + ^
STACK CFI 743dc .cfa: sp 32 +
STACK CFI INIT 7442c 1b8 .cfa: sp 0 + .ra: lr
STACK CFI 74434 .cfa: sp 32 + .ra: .cfa -4 + ^ r3: .cfa -32 + ^ r4: .cfa -28 + ^ r5: .cfa -24 + ^ r6: .cfa -20 + ^ r7: .cfa -16 + ^ r8: .cfa -12 + ^ r9: .cfa -8 + ^
STACK CFI INIT 745e4 38 .cfa: sp 0 + .ra: lr
STACK CFI 745e8 .cfa: sp 12 + .ra: .cfa -4 + ^ r4: .cfa -12 + ^ r5: .cfa -8 + ^
STACK CFI 745ec .cfa: sp 24 +
STACK CFI INIT 7461c b0 .cfa: sp 0 + .ra: lr
STACK CFI 74620 .cfa: sp 12 + r4: .cfa -12 + ^ r5: .cfa -8 + ^ r6: .cfa -4 + ^
STACK CFI INIT 746cc 2f0 .cfa: sp 0 + .ra: lr
STACK CFI 746d0 .cfa: sp 36 + .ra: .cfa -4 + ^ r10: .cfa -12 + ^ r11: .cfa -8 + ^ r4: .cfa -36 + ^ r5: .cfa -32 + ^ r6: .cfa -28 + ^ r7: .cfa -24 + ^ r8: .cfa -20 + ^ r9: .cfa -16 + ^
STACK CFI 746d8 .cfa: r11 4 +
STACK CFI INIT 749bc 2ac .cfa: sp 0 + .ra: lr
STACK CFI 749c0 .cfa: sp 36 + .ra: .cfa -4 + ^ r10: .cfa -12 + ^ r11: .cfa -8 + ^ r4: .cfa -36 + ^ r5: .cfa -32 + ^ r6: .cfa -28 + ^ r7: .cfa -24 + ^ r8: .cfa -20 + ^ r9: .cfa -16 + ^
STACK CFI 749c4 .cfa: r11 4 +
STACK CFI INIT 74c68 3c .cfa: sp 0 + .ra: lr
STACK CFI 74c6c .cfa: sp 12 + .ra: .cfa -4 + ^ r4: .cfa -12 + ^ r5: .cfa -8 + ^
STACK CFI 74c70 .cfa: sp 40 +
STACK CFI INIT 74ca4 2c4 .cfa: sp 0 + .ra: lr
STACK CFI 74ca8 .cfa: sp 36 + .ra: .cfa -4 + ^ r10: .cfa -12 + ^ r11: .cfa -8 + ^ r4: .cfa -36 + ^ r5: .cfa -32 + ^ r6: .cfa -28 + ^ r7: .cfa -24 + ^ r8: .cfa -20 + ^ r9: .cfa -16 + ^
STACK CFI 74cb0 .cfa: r11 4 +
STACK CFI INIT 74f68 3c .cfa: sp 0 + .ra: lr
STACK CFI 74f6c .cfa: sp 12 + .ra: .cfa -4 + ^ r4: .cfa -12 + ^ r5: .cfa -8 + ^
STACK CFI 74f70 .cfa: sp 40 +
STACK CFI INIT 74fa4 74 .cfa: sp 0 + .ra: lr
STACK CFI 74fa8 .cfa: sp 24 + .ra: .cfa -4 + ^ r4: .cfa -24 + ^ r5: .cfa -20 + ^ r6: .cfa -16 + ^ r7: .cfa -12 + ^ r8: .cfa -8 + ^
STACK CFI 74fac .cfa: sp 56 +
STACK CFI INIT 75018 104 .cfa: sp 0 + .ra: lr
STACK CFI 7501c .cfa: sp 32 + .ra: .cfa -4 + ^ r3: .cfa -32 + ^ r4: .cfa -28 + ^ r5: .cfa -24 + ^ r6: .cfa -20 + ^ r7: .cfa -16 + ^ r8: .cfa -12 + ^ r9: .cfa -8 + ^
STACK CFI INIT 7511c 320 .cfa: sp 0 + .ra: lr
STACK CFI 75120 .cfa: sp 36 + .ra: .cfa -4 + ^ r10: .cfa -12 + ^ r11: .cfa -8 + ^ r4: .cfa -36 + ^ r5: .cfa -32 + ^ r6: .cfa -28 + ^ r7: .cfa -24 + ^ r8: .cfa -20 + ^ r9: .cfa -16 + ^
STACK CFI 75128 .cfa: r11 4 +
STACK CFI INIT 7543c 3c .cfa: sp 0 + .ra: lr
STACK CFI 75440 .cfa: sp 16 + .ra: .cfa -4 + ^ r4: .cfa -16 + ^ r5: .cfa -12 + ^ r6: .cfa -8 + ^
STACK CFI 75444 .cfa: sp 40 +
STACK CFI INIT 75478 2d0 .cfa: sp 0 + .ra: lr
STACK CFI 7547c .cfa: sp 36 + .ra: .cfa -4 + ^ r10: .cfa -12 + ^ r11: .cfa -8 + ^ r4: .cfa -36 + ^ r5: .cfa -32 + ^ r6: .cfa -28 + ^ r7: .cfa -24 + ^ r8: .cfa -20 + ^ r9: .cfa -16 + ^
STACK CFI 75484 .cfa: r11 4 +
STACK CFI INIT 75748 3c .cfa: sp 0 + .ra: lr
STACK CFI 7574c .cfa: sp 16 + .ra: .cfa -4 + ^ r4: .cfa -16 + ^ r5: .cfa -12 + ^ r6: .cfa -8 + ^
STACK CFI 75750 .cfa: sp 40 +
STACK CFI INIT 75784 100 .cfa: sp 0 + .ra: lr
STACK CFI 75788 .cfa: sp 24 + .ra: .cfa -4 + ^ r4: .cfa -24 + ^ r5: .cfa -20 + ^ r6: .cfa -16 + ^ r7: .cfa -12 + ^ r8: .cfa -8 + ^
STACK CFI INIT 0 4c .cfa: sp 0 + .ra: lr
STACK CFI 4 .cfa: sp 8 + .ra: .cfa -4 + ^ r4: .cfa -8 + ^
STACK CFI INIT 75884 100 .cfa: sp 0 + .ra: lr
STACK CFI 75888 .cfa: sp 24 + .ra: .cfa -4 + ^ r4: .cfa -24 + ^ r5: .cfa -20 + ^ r6: .cfa -16 + ^ r7: .cfa -12 + ^ r8: .cfa -8 + ^
STACK CFI INIT 75984 d4 .cfa: sp 0 + .ra: lr
STACK CFI 75988 .cfa: sp 24 + .ra: .cfa -4 + ^ r4: .cfa -24 + ^ r5: .cfa -20 + ^ r6: .cfa -16 + ^ r7: .cfa -12 + ^ r8: .cfa -8 + ^
STACK CFI INIT 75a58 318 .cfa: sp 0 + .ra: lr
STACK CFI 75a5c .cfa: sp 36 + .ra: .cfa -4 + ^ r10: .cfa -12 + ^ r11: .cfa -8 + ^ r4: .cfa -36 + ^ r5: .cfa -32 + ^ r6: .cfa -28 + ^ r7: .cfa -24 + ^ r8: .cfa -20 + ^ r9: .cfa -16 + ^
STACK CFI 75a60 .cfa: r11 4 +
STACK CFI INIT 75d70 44 .cfa: sp 0 + .ra: lr
STACK CFI 75d74 .cfa: sp 20 + .ra: .cfa -4 + ^ r4: .cfa -20 + ^ r5: .cfa -16 + ^ r6: .cfa -12 + ^ r7: .cfa -8 + ^
STACK CFI 75d78 .cfa: sp 56 +
STACK CFI INIT 75db4 318 .cfa: sp 0 + .ra: lr
STACK CFI 75db8 .cfa: sp 36 + .ra: .cfa -4 + ^ r10: .cfa -12 + ^ r11: .cfa -8 + ^ r4: .cfa -36 + ^ r5: .cfa -32 + ^ r6: .cfa -28 + ^ r7: .cfa -24 + ^ r8: .cfa -20 + ^ r9: .cfa -16 + ^
STACK CFI 75dbc .cfa: r11 4 +
STACK CFI INIT 760cc 44 .cfa: sp 0 + .ra: lr
STACK CFI 760d0 .cfa: sp 20 + .ra: .cfa -4 + ^ r4: .cfa -20 + ^ r5: .cfa -16 + ^ r6: .cfa -12 + ^ r7: .cfa -8 + ^
STACK CFI 760d4 .cfa: sp 56 +
STACK CFI INIT 76110 74 .cfa: sp 0 + .ra: lr
STACK CFI 76114 .cfa: sp 8 + .ra: .cfa -4 + ^ r4: .cfa -8 + ^
STACK CFI INIT 76184 100 .cfa: sp 0 + .ra: lr
STACK CFI 76188 .cfa: sp 8 + .ra: .cfa -4 + ^ r4: .cfa -8 + ^
STACK CFI 76194 .cfa: sp 16 +
STACK CFI INIT 76284 2e8 .cfa: sp 0 + .ra: lr
STACK CFI 76288 .cfa: sp 36 + .ra: .cfa -4 + ^ r10: .cfa -12 + ^ r11: .cfa -8 + ^ r4: .cfa -36 + ^ r5: .cfa -32 + ^ r6: .cfa -28 + ^ r7: .cfa -24 + ^ r8: .cfa -20 + ^ r9: .cfa -16 + ^
STACK CFI 7628c .cfa: r11 4 +
STACK CFI INIT 7656c 3a8 .cfa: sp 0 + .ra: lr
STACK CFI 76570 .cfa: sp 36 + .ra: .cfa -4 + ^ r10: .cfa -12 + ^ r11: .cfa -8 + ^ r4: .cfa -36 + ^ r5: .cfa -32 + ^ r6: .cfa -28 + ^ r7: .cfa -24 + ^ r8: .cfa -20 + ^ r9: .cfa -16 + ^
STACK CFI 76574 .cfa: r11 4 +
STACK CFI INIT 76914 218 .cfa: sp 0 + .ra: lr
STACK CFI 76918 .cfa: sp 32 + .ra: .cfa -4 + ^ r10: .cfa -8 + ^ r4: .cfa -32 + ^ r5: .cfa -28 + ^ r6: .cfa -24 + ^ r7: .cfa -20 + ^ r8: .cfa -16 + ^ r9: .cfa -12 + ^
STACK CFI 7691c .cfa: sp 144 +
STACK CFI INIT 76b2c 290 .cfa: sp 0 + .ra: lr
STACK CFI 76b30 .cfa: sp 32 + .ra: .cfa -4 + ^ r10: .cfa -8 + ^ r4: .cfa -32 + ^ r5: .cfa -28 + ^ r6: .cfa -24 + ^ r7: .cfa -20 + ^ r8: .cfa -16 + ^ r9: .cfa -12 + ^
STACK CFI 76b34 .cfa: sp 184 +
STACK CFI INIT 76dbc d64 .cfa: sp 0 + .ra: lr
STACK CFI 76dc0 .cfa: sp 36 + .ra: .cfa -4 + ^ r10: .cfa -12 + ^ r11: .cfa -8 + ^ r4: .cfa -36 + ^ r5: .cfa -32 + ^ r6: .cfa -28 + ^ r7: .cfa -24 + ^ r8: .cfa -20 + ^ r9: .cfa -16 + ^
STACK CFI 76dc4 .cfa: sp 192 +
STACK CFI INIT 77b20 13c .cfa: sp 0 + .ra: lr
STACK CFI 77b24 .cfa: sp 28 + .ra: .cfa -4 + ^ r4: .cfa -28 + ^ r5: .cfa -24 + ^ r6: .cfa -20 + ^ r7: .cfa -16 + ^ r8: .cfa -12 + ^ r9: .cfa -8 + ^
STACK CFI 77b28 .cfa: sp 72 +
STACK CFI INIT 77c5c 13c .cfa: sp 0 + .ra: lr
STACK CFI 77c60 .cfa: sp 28 + .ra: .cfa -4 + ^ r4: .cfa -28 + ^ r5: .cfa -24 + ^ r6: .cfa -20 + ^ r7: .cfa -16 + ^ r8: .cfa -12 + ^ r9: .cfa -8 + ^
STACK CFI 77c64 .cfa: sp 72 +
STACK CFI INIT 77d98 bd4 .cfa: sp 0 + .ra: lr
STACK CFI 77d9c .cfa: sp 36 + .ra: .cfa -4 + ^ r10: .cfa -12 + ^ r11: .cfa -8 + ^ r4: .cfa -36 + ^ r5: .cfa -32 + ^ r6: .cfa -28 + ^ r7: .cfa -24 + ^ r8: .cfa -20 + ^ r9: .cfa -16 + ^
STACK CFI 77da0 .cfa: sp 144 +
STACK CFI INIT 7896c bd4 .cfa: sp 0 + .ra: lr
STACK CFI 78970 .cfa: sp 36 + .ra: .cfa -4 + ^ r10: .cfa -12 + ^ r11: .cfa -8 + ^ r4: .cfa -36 + ^ r5: .cfa -32 + ^ r6: .cfa -28 + ^ r7: .cfa -24 + ^ r8: .cfa -20 + ^ r9: .cfa -16 + ^
STACK CFI 78974 .cfa: sp 144 +
STACK CFI INIT 79540 130 .cfa: sp 0 + .ra: lr
STACK CFI 79544 .cfa: sp 36 + .ra: .cfa -4 + ^ r10: .cfa -12 + ^ r11: .cfa -8 + ^ r4: .cfa -36 + ^ r5: .cfa -32 + ^ r6: .cfa -28 + ^ r7: .cfa -24 + ^ r8: .cfa -20 + ^ r9: .cfa -16 + ^
STACK CFI 7954c .cfa: sp 88 +
STACK CFI INIT 79670 1bc .cfa: sp 0 + .ra: lr
STACK CFI 79674 .cfa: sp 36 + .ra: .cfa -4 + ^ r10: .cfa -12 + ^ r11: .cfa -8 + ^ r4: .cfa -36 + ^ r5: .cfa -32 + ^ r6: .cfa -28 + ^ r7: .cfa -24 + ^ r8: .cfa -20 + ^ r9: .cfa -16 + ^
STACK CFI 79678 .cfa: sp 96 +
STACK CFI INIT 7982c 94c .cfa: sp 0 + .ra: lr
STACK CFI 79830 .cfa: sp 36 + .ra: .cfa -4 + ^ r10: .cfa -12 + ^ r11: .cfa -8 + ^ r4: .cfa -36 + ^ r5: .cfa -32 + ^ r6: .cfa -28 + ^ r7: .cfa -24 + ^ r8: .cfa -20 + ^ r9: .cfa -16 + ^
STACK CFI 79834 .cfa: sp 88 +
STACK CFI INIT 7a178 1fc .cfa: sp 0 + .ra: lr
STACK CFI 7a17c .cfa: sp 36 + .ra: .cfa -4 + ^ r10: .cfa -12 + ^ r11: .cfa -8 + ^ r4: .cfa -36 + ^ r5: .cfa -32 + ^ r6: .cfa -28 + ^ r7: .cfa -24 + ^ r8: .cfa -20 + ^ r9: .cfa -16 + ^
STACK CFI 7a184 .cfa: sp 96 +
STACK CFI INIT 7a374 1fc .cfa: sp 0 + .ra: lr
STACK CFI 7a378 .cfa: sp 36 + .ra: .cfa -4 + ^ r10: .cfa -12 + ^ r11: .cfa -8 + ^ r4: .cfa -36 + ^ r5: .cfa -32 + ^ r6: .cfa -28 + ^ r7: .cfa -24 + ^ r8: .cfa -20 + ^ r9: .cfa -16 + ^
STACK CFI 7a380 .cfa: sp 96 +
STACK CFI INIT 7a570 1fc .cfa: sp 0 + .ra: lr
STACK CFI 7a574 .cfa: sp 36 + .ra: .cfa -4 + ^ r10: .cfa -12 + ^ r11: .cfa -8 + ^ r4: .cfa -36 + ^ r5: .cfa -32 + ^ r6: .cfa -28 + ^ r7: .cfa -24 + ^ r8: .cfa -20 + ^ r9: .cfa -16 + ^
STACK CFI 7a57c .cfa: sp 96 +
STACK CFI INIT 7a76c 8a0 .cfa: sp 0 + .ra: lr
STACK CFI 7a770 .cfa: sp 36 + .ra: .cfa -4 + ^ r10: .cfa -12 + ^ r11: .cfa -8 + ^ r4: .cfa -36 + ^ r5: .cfa -32 + ^ r6: .cfa -28 + ^ r7: .cfa -24 + ^ r8: .cfa -20 + ^ r9: .cfa -16 + ^
STACK CFI 7a774 .cfa: sp 104 +
STACK CFI INIT 7b00c 58 .cfa: sp 0 + .ra: lr
STACK CFI 7b010 .cfa: sp 20 + .ra: .cfa -4 + ^ r4: .cfa -20 + ^ r5: .cfa -16 + ^ r6: .cfa -12 + ^ r7: .cfa -8 + ^
STACK CFI 7b014 .cfa: sp 56 +
STACK CFI INIT 7b064 45c .cfa: sp 0 + .ra: lr
STACK CFI 7b068 .cfa: sp 36 + .ra: .cfa -4 + ^ r10: .cfa -12 + ^ r11: .cfa -8 + ^ r4: .cfa -36 + ^ r5: .cfa -32 + ^ r6: .cfa -28 + ^ r7: .cfa -24 + ^ r8: .cfa -20 + ^ r9: .cfa -16 + ^
STACK CFI 7b06c .cfa: sp 104 +
STACK CFI INIT 7b4c0 898 .cfa: sp 0 + .ra: lr
STACK CFI 7b4c4 .cfa: sp 36 + .ra: .cfa -4 + ^ r10: .cfa -12 + ^ r11: .cfa -8 + ^ r4: .cfa -36 + ^ r5: .cfa -32 + ^ r6: .cfa -28 + ^ r7: .cfa -24 + ^ r8: .cfa -20 + ^ r9: .cfa -16 + ^
STACK CFI 7b4c8 .cfa: sp 104 +
STACK CFI INIT 7bd58 58 .cfa: sp 0 + .ra: lr
STACK CFI 7bd5c .cfa: sp 20 + .ra: .cfa -4 + ^ r4: .cfa -20 + ^ r5: .cfa -16 + ^ r6: .cfa -12 + ^ r7: .cfa -8 + ^
STACK CFI 7bd60 .cfa: sp 56 +
STACK CFI INIT 7bdb0 870 .cfa: sp 0 + .ra: lr
STACK CFI 7bdb4 .cfa: sp 36 + .ra: .cfa -4 + ^ r10: .cfa -12 + ^ r11: .cfa -8 + ^ r4: .cfa -36 + ^ r5: .cfa -32 + ^ r6: .cfa -28 + ^ r7: .cfa -24 + ^ r8: .cfa -20 + ^ r9: .cfa -16 + ^
STACK CFI 7bdb8 .cfa: sp 104 +
STACK CFI INIT 7c620 58 .cfa: sp 0 + .ra: lr
STACK CFI 7c624 .cfa: sp 20 + .ra: .cfa -4 + ^ r4: .cfa -20 + ^ r5: .cfa -16 + ^ r6: .cfa -12 + ^ r7: .cfa -8 + ^
STACK CFI 7c628 .cfa: sp 56 +
STACK CFI INIT 7c678 870 .cfa: sp 0 + .ra: lr
STACK CFI 7c67c .cfa: sp 36 + .ra: .cfa -4 + ^ r10: .cfa -12 + ^ r11: .cfa -8 + ^ r4: .cfa -36 + ^ r5: .cfa -32 + ^ r6: .cfa -28 + ^ r7: .cfa -24 + ^ r8: .cfa -20 + ^ r9: .cfa -16 + ^
STACK CFI 7c680 .cfa: sp 104 +
STACK CFI INIT 7cee8 58 .cfa: sp 0 + .ra: lr
STACK CFI 7ceec .cfa: sp 20 + .ra: .cfa -4 + ^ r4: .cfa -20 + ^ r5: .cfa -16 + ^ r6: .cfa -12 + ^ r7: .cfa -8 + ^
STACK CFI 7cef0 .cfa: sp 56 +
STACK CFI INIT 7cf40 88 .cfa: sp 0 + .ra: lr
STACK CFI 7cf44 .cfa: sp 28 + .ra: .cfa -4 + ^ r4: .cfa -28 + ^ r5: .cfa -24 + ^ r6: .cfa -20 + ^ r7: .cfa -16 + ^ r8: .cfa -12 + ^ r9: .cfa -8 + ^
STACK CFI 7cf48 .cfa: sp 80 +
STACK CFI INIT 7cfc8 948 .cfa: sp 0 + .ra: lr
STACK CFI 7cfcc .cfa: sp 36 + .ra: .cfa -4 + ^ r10: .cfa -12 + ^ r11: .cfa -8 + ^ r4: .cfa -36 + ^ r5: .cfa -32 + ^ r6: .cfa -28 + ^ r7: .cfa -24 + ^ r8: .cfa -20 + ^ r9: .cfa -16 + ^
STACK CFI 7cfd0 .cfa: sp 120 +
STACK CFI INIT 7d910 58 .cfa: sp 0 + .ra: lr
STACK CFI 7d914 .cfa: sp 20 + .ra: .cfa -4 + ^ r4: .cfa -20 + ^ r5: .cfa -16 + ^ r6: .cfa -12 + ^ r7: .cfa -8 + ^
STACK CFI 7d918 .cfa: sp 56 +
STACK CFI INIT 7d968 8a8 .cfa: sp 0 + .ra: lr
STACK CFI 7d96c .cfa: sp 36 + .ra: .cfa -4 + ^ r10: .cfa -12 + ^ r11: .cfa -8 + ^ r4: .cfa -36 + ^ r5: .cfa -32 + ^ r6: .cfa -28 + ^ r7: .cfa -24 + ^ r8: .cfa -20 + ^ r9: .cfa -16 + ^
STACK CFI 7d970 .cfa: sp 120 +
STACK CFI INIT 7e210 58 .cfa: sp 0 + .ra: lr
STACK CFI 7e214 .cfa: sp 20 + .ra: .cfa -4 + ^ r4: .cfa -20 + ^ r5: .cfa -16 + ^ r6: .cfa -12 + ^ r7: .cfa -8 + ^
STACK CFI 7e218 .cfa: sp 56 +
STACK CFI INIT 45f54 160 .cfa: sp 0 + .ra: lr
STACK CFI INIT 7e268 4c .cfa: sp 0 + .ra: lr
STACK CFI 7e26c .cfa: sp 8 +
STACK CFI 7e270 .cfa: sp 16 + .ra: .cfa -12 + ^ r4: .cfa -16 + ^
STACK CFI 7e274 .cfa: sp 24 +
STACK CFI INIT 7e2b4 4c .cfa: sp 0 + .ra: lr
STACK CFI 7e2b8 .cfa: sp 8 +
STACK CFI 7e2bc .cfa: sp 16 + .ra: .cfa -12 + ^ r4: .cfa -16 + ^
STACK CFI 7e2c0 .cfa: sp 24 +
STACK CFI INIT 7e300 34 .cfa: sp 0 + .ra: lr
STACK CFI 7e304 .cfa: sp 16 + .ra: .cfa -4 + ^ r3: .cfa -16 + ^ r4: .cfa -12 + ^ r5: .cfa -8 + ^
STACK CFI INIT 7e334 10 .cfa: sp 0 + .ra: lr
STACK CFI INIT 7e344 70 .cfa: sp 0 + .ra: lr
STACK CFI 7e348 .cfa: sp 24 + .ra: .cfa -4 + ^ r4: .cfa -24 + ^ r5: .cfa -20 + ^ r6: .cfa -16 + ^ r7: .cfa -12 + ^ r8: .cfa -8 + ^
STACK CFI INIT 7e3b4 18 .cfa: sp 0 + .ra: lr
STACK CFI 7e3b8 .cfa: sp 8 + .ra: .cfa -4 + ^ r4: .cfa -8 + ^
STACK CFI INIT 7e3cc 4c .cfa: sp 0 + .ra: lr
STACK CFI 7e3d0 .cfa: sp 24 + .ra: .cfa -4 + ^ r3: .cfa -24 + ^ r4: .cfa -20 + ^ r5: .cfa -16 + ^ r6: .cfa -12 + ^ r7: .cfa -8 + ^
STACK CFI INIT 7e418 34 .cfa: sp 0 + .ra: lr
STACK CFI 7e428 .cfa: sp 8 + .ra: .cfa -4 + ^ r4: .cfa -8 + ^
STACK CFI INIT 7e44c 34 .cfa: sp 0 + .ra: lr
STACK CFI 7e45c .cfa: sp 8 + .ra: .cfa -4 + ^ r4: .cfa -8 + ^
STACK CFI INIT 7e480 3c .cfa: sp 0 + .ra: lr
STACK CFI 7e490 .cfa: sp 8 + .ra: .cfa -4 + ^ r4: .cfa -8 + ^
STACK CFI INIT 7e4bc 3c .cfa: sp 0 + .ra: lr
STACK CFI 7e4cc .cfa: sp 8 + .ra: .cfa -4 + ^ r4: .cfa -8 + ^
STACK CFI INIT 7e4f8 18 .cfa: sp 0 + .ra: lr
STACK CFI 7e4fc .cfa: sp 8 + .ra: .cfa -4 + ^ r4: .cfa -8 + ^
STACK CFI INIT 7e510 1c .cfa: sp 0 + .ra: lr
STACK CFI 7e514 .cfa: sp 8 + .ra: .cfa -4 + ^ r4: .cfa -8 + ^
STACK CFI INIT 7e52c 38 .cfa: sp 0 + .ra: lr
STACK CFI 7e534 .cfa: sp 8 + .ra: .cfa -4 + ^ r4: .cfa -8 + ^
STACK CFI INIT 7e564 8 .cfa: sp 0 + .ra: lr
STACK CFI INIT 7e56c 8 .cfa: sp 0 + .ra: lr
STACK CFI INIT 7e574 6c .cfa: sp 0 + .ra: lr
STACK CFI 7e578 .cfa: sp 20 + .ra: .cfa -4 + ^ r4: .cfa -20 + ^ r5: .cfa -16 + ^ r6: .cfa -12 + ^ r7: .cfa -8 + ^
STACK CFI 7e57c .cfa: sp 32 +
STACK CFI INIT 7e5e0 6c .cfa: sp 0 + .ra: lr
STACK CFI 7e5e4 .cfa: sp 20 + .ra: .cfa -4 + ^ r4: .cfa -20 + ^ r5: .cfa -16 + ^ r6: .cfa -12 + ^ r7: .cfa -8 + ^
STACK CFI 7e5e8 .cfa: sp 32 +
STACK CFI INIT 7e64c 1c .cfa: sp 0 + .ra: lr
STACK CFI 7e650 .cfa: sp 8 + .ra: .cfa -4 + ^ r4: .cfa -8 + ^
STACK CFI INIT 7e668 38 .cfa: sp 0 + .ra: lr
STACK CFI 7e670 .cfa: sp 8 + .ra: .cfa -4 + ^ r4: .cfa -8 + ^
STACK CFI INIT 7e6a0 34 .cfa: sp 0 + .ra: lr
STACK CFI 7e6a8 .cfa: sp 8 + .ra: .cfa -4 + ^ r3: .cfa -8 + ^
STACK CFI INIT 7e6d4 34 .cfa: sp 0 + .ra: lr
STACK CFI 7e6dc .cfa: sp 8 + .ra: .cfa -4 + ^ r3: .cfa -8 + ^
STACK CFI INIT 7e708 c .cfa: sp 0 + .ra: lr
STACK CFI INIT 7e714 78 .cfa: sp 0 + .ra: lr
STACK CFI 7e71c .cfa: sp 16 + .ra: .cfa -4 + ^ r4: .cfa -16 + ^ r5: .cfa -12 + ^ r6: .cfa -8 + ^
STACK CFI INIT 7e78c 2e4 .cfa: sp 0 + .ra: lr
STACK CFI 7e790 .cfa: sp 36 + .ra: .cfa -4 + ^ r10: .cfa -12 + ^ r11: .cfa -8 + ^ r4: .cfa -36 + ^ r5: .cfa -32 + ^ r6: .cfa -28 + ^ r7: .cfa -24 + ^ r8: .cfa -20 + ^ r9: .cfa -16 + ^
STACK CFI 7e798 .cfa: sp 560 +
STACK CFI INIT 7ea70 c .cfa: sp 0 + .ra: lr
STACK CFI INIT 7ea7c 4c .cfa: sp 0 + .ra: lr
STACK CFI 7ea80 .cfa: sp 16 + .ra: .cfa -4 + ^ r3: .cfa -16 + ^ r4: .cfa -12 + ^ r5: .cfa -8 + ^
STACK CFI INIT 7eac8 74 .cfa: sp 0 + .ra: lr
STACK CFI 7eacc .cfa: sp 16 + .ra: .cfa -4 + ^ r4: .cfa -16 + ^ r5: .cfa -12 + ^ r6: .cfa -8 + ^
STACK CFI INIT 7eb3c 8 .cfa: sp 0 + .ra: lr
STACK CFI INIT 7eb44 74 .cfa: sp 0 + .ra: lr
STACK CFI 7eb48 .cfa: sp 16 + .ra: .cfa -4 + ^ r4: .cfa -16 + ^ r5: .cfa -12 + ^ r6: .cfa -8 + ^
STACK CFI INIT 7ebb8 8 .cfa: sp 0 + .ra: lr
STACK CFI INIT 7ebc0 48 .cfa: sp 0 + .ra: lr
STACK CFI 7ebd0 .cfa: sp 8 + .ra: .cfa -4 + ^ r4: .cfa -8 + ^
STACK CFI INIT 7ec18 48 .cfa: sp 0 + .ra: lr
STACK CFI 7ec28 .cfa: sp 8 + .ra: .cfa -4 + ^ r4: .cfa -8 + ^
STACK CFI INIT 7ec70 50 .cfa: sp 0 + .ra: lr
STACK CFI 7ec80 .cfa: sp 8 + .ra: .cfa -4 + ^ r4: .cfa -8 + ^
STACK CFI INIT 7ecd0 50 .cfa: sp 0 + .ra: lr
STACK CFI 7ece0 .cfa: sp 8 + .ra: .cfa -4 + ^ r4: .cfa -8 + ^
STACK CFI INIT 45c60 14 .cfa: sp 0 + .ra: lr
STACK CFI 45c64 .cfa: sp 8 + .ra: .cfa -4 + ^ r3: .cfa -8 + ^
STACK CFI INIT 45c74 14 .cfa: sp 0 + .ra: lr
STACK CFI 45c78 .cfa: sp 8 + .ra: .cfa -4 + ^ r3: .cfa -8 + ^
STACK CFI INIT 7ed30 30 .cfa: sp 0 + .ra: lr
STACK CFI 7ed38 .cfa: sp 8 + .ra: .cfa -4 + ^ r4: .cfa -8 + ^
STACK CFI INIT 7ed60 90 .cfa: sp 0 + .ra: lr
STACK CFI 7ed64 .cfa: sp 24 + .ra: .cfa -4 + ^ r3: .cfa -24 + ^ r4: .cfa -20 + ^ r5: .cfa -16 + ^ r6: .cfa -12 + ^ r7: .cfa -8 + ^
STACK CFI INIT 7edf0 18 .cfa: sp 0 + .ra: lr
STACK CFI INIT 7ee08 c .cfa: sp 0 + .ra: lr
STACK CFI 7ee0c .cfa: sp 8 + .ra: .cfa -4 + ^ r3: .cfa -8 + ^
STACK CFI INIT 7ee14 20 .cfa: sp 0 + .ra: lr
STACK CFI 7ee1c .cfa: sp 8 + .ra: .cfa -4 + ^ r4: .cfa -8 + ^
STACK CFI INIT 7ee34 20 .cfa: sp 0 + .ra: lr
STACK CFI 7ee3c .cfa: sp 8 + .ra: .cfa -4 + ^ r4: .cfa -8 + ^
STACK CFI INIT 7ee54 4c .cfa: sp 0 + .ra: lr
STACK CFI 7ee58 .cfa: sp 16 + .ra: .cfa -4 + ^ r3: .cfa -16 + ^ r4: .cfa -12 + ^ r5: .cfa -8 + ^
STACK CFI INIT 7eea0 d0 .cfa: sp 0 + .ra: lr
STACK CFI 7eea8 .cfa: sp 8 + .ra: .cfa -4 + ^ r4: .cfa -8 + ^
STACK CFI INIT 7ef70 108 .cfa: sp 0 + .ra: lr
STACK CFI 7ef78 .cfa: sp 16 + .ra: .cfa -4 + ^ r4: .cfa -16 + ^ r5: .cfa -12 + ^ r6: .cfa -8 + ^
STACK CFI 7efa0 .cfa: sp 40 +
STACK CFI INIT 7f078 130 .cfa: sp 0 + .ra: lr
STACK CFI 7f07c .cfa: sp 8 +
STACK CFI 7f080 .cfa: sp 24 + .ra: .cfa -12 + ^ r4: .cfa -24 + ^ r5: .cfa -20 + ^ r6: .cfa -16 + ^
STACK CFI 7f08c .cfa: sp 72 +
STACK CFI INIT 7f1a8 104 .cfa: sp 0 + .ra: lr
STACK CFI 7f1b0 .cfa: sp 16 + .ra: .cfa -4 + ^ r4: .cfa -16 + ^ r5: .cfa -12 + ^ r6: .cfa -8 + ^
STACK CFI 7f1c4 .cfa: sp 40 +
STACK CFI INIT 7f2ac 30 .cfa: sp 0 + .ra: lr
STACK CFI 7f2b4 .cfa: sp 8 + .ra: .cfa -4 + ^ r4: .cfa -8 + ^
STACK CFI INIT 7f2dc 88 .cfa: sp 0 + .ra: lr
STACK CFI 7f2e0 .cfa: sp 16 + .ra: .cfa -4 + ^ r4: .cfa -16 + ^ r5: .cfa -12 + ^ r6: .cfa -8 + ^
STACK CFI INIT 7f364 7c .cfa: sp 0 + .ra: lr
STACK CFI 7f36c .cfa: sp 16 + .ra: .cfa -4 + ^ r3: .cfa -16 + ^ r4: .cfa -12 + ^ r5: .cfa -8 + ^
STACK CFI INIT 7f3e0 7c .cfa: sp 0 + .ra: lr
STACK CFI 7f3e4 .cfa: sp 16 + .ra: .cfa -4 + ^ r3: .cfa -16 + ^ r4: .cfa -12 + ^ r5: .cfa -8 + ^
STACK CFI INIT 7f45c 188 .cfa: sp 0 + .ra: lr
STACK CFI 7f460 .cfa: sp 16 + .ra: .cfa -4 + ^ r4: .cfa -16 + ^ r5: .cfa -12 + ^ r6: .cfa -8 + ^
STACK CFI 7f464 .cfa: sp 32 +
STACK CFI INIT 7f5e4 188 .cfa: sp 0 + .ra: lr
STACK CFI 7f5e8 .cfa: sp 16 + .ra: .cfa -4 + ^ r4: .cfa -16 + ^ r5: .cfa -12 + ^ r6: .cfa -8 + ^
STACK CFI 7f5f0 .cfa: sp 24 +
STACK CFI INIT 7f76c 174 .cfa: sp 0 + .ra: lr
STACK CFI 7f770 .cfa: sp 20 + .ra: .cfa -4 + ^ r4: .cfa -20 + ^ r5: .cfa -16 + ^ r6: .cfa -12 + ^ r7: .cfa -8 + ^
STACK CFI 7f778 .cfa: sp 32 +
STACK CFI INIT 7f8e0 8 .cfa: sp 0 + .ra: lr
STACK CFI INIT 7f8e8 74 .cfa: sp 0 + .ra: lr
STACK CFI 7f8ec .cfa: sp 16 + .ra: .cfa -4 + ^ r3: .cfa -16 + ^ r4: .cfa -12 + ^ r5: .cfa -8 + ^
STACK CFI INIT 7f95c 8 .cfa: sp 0 + .ra: lr
STACK CFI INIT 7f964 4 .cfa: sp 0 + .ra: lr
STACK CFI INIT 7f968 7c .cfa: sp 0 + .ra: lr
STACK CFI 7f96c .cfa: sp 24 + .ra: .cfa -4 + ^ r3: .cfa -24 + ^ r4: .cfa -20 + ^ r5: .cfa -16 + ^ r6: .cfa -12 + ^ r7: .cfa -8 + ^
STACK CFI INIT 7f9e4 1c .cfa: sp 0 + .ra: lr
STACK CFI INIT 7fa00 1c .cfa: sp 0 + .ra: lr
STACK CFI INIT 7fa1c 44 .cfa: sp 0 + .ra: lr
STACK CFI INIT 7fa60 14 .cfa: sp 0 + .ra: lr
STACK CFI INIT 7fa74 14 .cfa: sp 0 + .ra: lr
STACK CFI INIT 7fa88 3f4 .cfa: sp 0 + .ra: lr
STACK CFI 7fa8c .cfa: sp 36 + .ra: .cfa -4 + ^ r10: .cfa -12 + ^ r11: .cfa -8 + ^ r4: .cfa -36 + ^ r5: .cfa -32 + ^ r6: .cfa -28 + ^ r7: .cfa -24 + ^ r8: .cfa -20 + ^ r9: .cfa -16 + ^
STACK CFI 7fa90 .cfa: sp 56 +
STACK CFI INIT 7fe7c 24 .cfa: sp 0 + .ra: lr
STACK CFI 7fe80 .cfa: sp 4 + .ra: .cfa -4 + ^
STACK CFI 7fe84 .cfa: sp 16 +
STACK CFI INIT 7fea0 24 .cfa: sp 0 + .ra: lr
STACK CFI 7fea4 .cfa: sp 4 + .ra: .cfa -4 + ^
STACK CFI 7fea8 .cfa: sp 16 +
STACK CFI INIT 7fec4 24 .cfa: sp 0 + .ra: lr
STACK CFI 7fec8 .cfa: sp 4 + .ra: .cfa -4 + ^
STACK CFI 7fecc .cfa: sp 16 +
STACK CFI INIT 7fee8 50 .cfa: sp 0 + .ra: lr
STACK CFI 7feec .cfa: sp 16 + .ra: .cfa -4 + ^ r3: .cfa -16 + ^ r4: .cfa -12 + ^ r5: .cfa -8 + ^
STACK CFI INIT 7ff38 50 .cfa: sp 0 + .ra: lr
STACK CFI 7ff3c .cfa: sp 16 + .ra: .cfa -4 + ^ r3: .cfa -16 + ^ r4: .cfa -12 + ^ r5: .cfa -8 + ^
STACK CFI INIT 7ff88 50 .cfa: sp 0 + .ra: lr
STACK CFI 7ff8c .cfa: sp 16 + .ra: .cfa -4 + ^ r3: .cfa -16 + ^ r4: .cfa -12 + ^ r5: .cfa -8 + ^
STACK CFI INIT 7ffd8 20c .cfa: sp 0 + .ra: lr
STACK CFI 7ffdc .cfa: sp 36 + .ra: .cfa -4 + ^ r10: .cfa -12 + ^ r11: .cfa -8 + ^ r4: .cfa -36 + ^ r5: .cfa -32 + ^ r6: .cfa -28 + ^ r7: .cfa -24 + ^ r8: .cfa -20 + ^ r9: .cfa -16 + ^
STACK CFI 7ffe0 .cfa: sp 80 +
STACK CFI INIT 801e4 4 .cfa: sp 0 + .ra: lr
STACK CFI INIT 801e8 30 .cfa: sp 0 + .ra: lr
STACK CFI INIT 80218 4 .cfa: sp 0 + .ra: lr
STACK CFI INIT 8021c 20c .cfa: sp 0 + .ra: lr
STACK CFI 80220 .cfa: sp 36 + .ra: .cfa -4 + ^ r10: .cfa -12 + ^ r11: .cfa -8 + ^ r4: .cfa -36 + ^ r5: .cfa -32 + ^ r6: .cfa -28 + ^ r7: .cfa -24 + ^ r8: .cfa -20 + ^ r9: .cfa -16 + ^
STACK CFI 80224 .cfa: sp 80 +
STACK CFI INIT 80428 4 .cfa: sp 0 + .ra: lr
STACK CFI INIT 8042c 4 .cfa: sp 0 + .ra: lr
STACK CFI INIT 80430 4 .cfa: sp 0 + .ra: lr
STACK CFI INIT 80434 20c .cfa: sp 0 + .ra: lr
STACK CFI 80438 .cfa: sp 36 + .ra: .cfa -4 + ^ r10: .cfa -12 + ^ r11: .cfa -8 + ^ r4: .cfa -36 + ^ r5: .cfa -32 + ^ r6: .cfa -28 + ^ r7: .cfa -24 + ^ r8: .cfa -20 + ^ r9: .cfa -16 + ^
STACK CFI 8043c .cfa: sp 80 +
STACK CFI INIT 80640 4 .cfa: sp 0 + .ra: lr
STACK CFI INIT 80644 21c .cfa: sp 0 + .ra: lr
STACK CFI 80648 .cfa: sp 36 + .ra: .cfa -4 + ^ r10: .cfa -12 + ^ r11: .cfa -8 + ^ r4: .cfa -36 + ^ r5: .cfa -32 + ^ r6: .cfa -28 + ^ r7: .cfa -24 + ^ r8: .cfa -20 + ^ r9: .cfa -16 + ^
STACK CFI 8064c .cfa: sp 88 +
STACK CFI INIT 80860 4 .cfa: sp 0 + .ra: lr
STACK CFI INIT 80864 21c .cfa: sp 0 + .ra: lr
STACK CFI 80868 .cfa: sp 36 + .ra: .cfa -4 + ^ r10: .cfa -12 + ^ r11: .cfa -8 + ^ r4: .cfa -36 + ^ r5: .cfa -32 + ^ r6: .cfa -28 + ^ r7: .cfa -24 + ^ r8: .cfa -20 + ^ r9: .cfa -16 + ^
STACK CFI 8086c .cfa: sp 88 +
STACK CFI INIT 80a80 4 .cfa: sp 0 + .ra: lr
STACK CFI INIT 80a84 21c .cfa: sp 0 + .ra: lr
STACK CFI 80a88 .cfa: sp 36 + .ra: .cfa -4 + ^ r10: .cfa -12 + ^ r11: .cfa -8 + ^ r4: .cfa -36 + ^ r5: .cfa -32 + ^ r6: .cfa -28 + ^ r7: .cfa -24 + ^ r8: .cfa -20 + ^ r9: .cfa -16 + ^
STACK CFI 80a8c .cfa: sp 88 +
STACK CFI INIT 80ca0 4 .cfa: sp 0 + .ra: lr
STACK CFI INIT 80ca4 24 .cfa: sp 0 + .ra: lr
STACK CFI 80ca8 .cfa: sp 8 + .ra: .cfa -4 + ^ r4: .cfa -8 + ^
STACK CFI INIT 80cc8 21c .cfa: sp 0 + .ra: lr
STACK CFI 80ccc .cfa: sp 36 + .ra: .cfa -4 + ^ r10: .cfa -12 + ^ r11: .cfa -8 + ^ r4: .cfa -36 + ^ r5: .cfa -32 + ^ r6: .cfa -28 + ^ r7: .cfa -24 + ^ r8: .cfa -20 + ^ r9: .cfa -16 + ^
STACK CFI 80cd0 .cfa: sp 88 +
STACK CFI INIT 80ee4 4 .cfa: sp 0 + .ra: lr
STACK CFI INIT 80ee8 20c .cfa: sp 0 + .ra: lr
STACK CFI 80eec .cfa: sp 36 + .ra: .cfa -4 + ^ r10: .cfa -12 + ^ r11: .cfa -8 + ^ r4: .cfa -36 + ^ r5: .cfa -32 + ^ r6: .cfa -28 + ^ r7: .cfa -24 + ^ r8: .cfa -20 + ^ r9: .cfa -16 + ^
STACK CFI 80ef0 .cfa: sp 80 +
STACK CFI INIT 810f4 4 .cfa: sp 0 + .ra: lr
STACK CFI INIT 810f8 30 .cfa: sp 0 + .ra: lr
STACK CFI 81100 .cfa: sp 8 + .ra: .cfa -4 + ^ r4: .cfa -8 + ^
STACK CFI INIT 81128 90 .cfa: sp 0 + .ra: lr
STACK CFI 8112c .cfa: sp 24 + .ra: .cfa -4 + ^ r3: .cfa -24 + ^ r4: .cfa -20 + ^ r5: .cfa -16 + ^ r6: .cfa -12 + ^ r7: .cfa -8 + ^
STACK CFI INIT 811b8 18 .cfa: sp 0 + .ra: lr
STACK CFI INIT 811d0 c .cfa: sp 0 + .ra: lr
STACK CFI 811d4 .cfa: sp 8 + .ra: .cfa -4 + ^ r3: .cfa -8 + ^
STACK CFI INIT 811dc 20 .cfa: sp 0 + .ra: lr
STACK CFI 811e4 .cfa: sp 8 + .ra: .cfa -4 + ^ r4: .cfa -8 + ^
STACK CFI INIT 811fc 20 .cfa: sp 0 + .ra: lr
STACK CFI 81204 .cfa: sp 8 + .ra: .cfa -4 + ^ r4: .cfa -8 + ^
STACK CFI INIT 8121c 4c .cfa: sp 0 + .ra: lr
STACK CFI 81220 .cfa: sp 16 + .ra: .cfa -4 + ^ r3: .cfa -16 + ^ r4: .cfa -12 + ^ r5: .cfa -8 + ^
STACK CFI INIT 81268 d0 .cfa: sp 0 + .ra: lr
STACK CFI 81270 .cfa: sp 8 + .ra: .cfa -4 + ^ r4: .cfa -8 + ^
STACK CFI INIT 81338 108 .cfa: sp 0 + .ra: lr
STACK CFI 81340 .cfa: sp 16 + .ra: .cfa -4 + ^ r4: .cfa -16 + ^ r5: .cfa -12 + ^ r6: .cfa -8 + ^
STACK CFI 81368 .cfa: sp 40 +
STACK CFI INIT 81440 130 .cfa: sp 0 + .ra: lr
STACK CFI 81444 .cfa: sp 8 +
STACK CFI 81448 .cfa: sp 24 + .ra: .cfa -12 + ^ r4: .cfa -24 + ^ r5: .cfa -20 + ^ r6: .cfa -16 + ^
STACK CFI 81454 .cfa: sp 72 +
STACK CFI INIT 81570 104 .cfa: sp 0 + .ra: lr
STACK CFI 81578 .cfa: sp 16 + .ra: .cfa -4 + ^ r4: .cfa -16 + ^ r5: .cfa -12 + ^ r6: .cfa -8 + ^
STACK CFI 8158c .cfa: sp 40 +
STACK CFI INIT 81674 30 .cfa: sp 0 + .ra: lr
STACK CFI 8167c .cfa: sp 8 + .ra: .cfa -4 + ^ r4: .cfa -8 + ^
STACK CFI INIT 816a4 88 .cfa: sp 0 + .ra: lr
STACK CFI 816a8 .cfa: sp 16 + .ra: .cfa -4 + ^ r4: .cfa -16 + ^ r5: .cfa -12 + ^ r6: .cfa -8 + ^
STACK CFI INIT 8172c 7c .cfa: sp 0 + .ra: lr
STACK CFI 81730 .cfa: sp 16 + .ra: .cfa -4 + ^ r3: .cfa -16 + ^ r4: .cfa -12 + ^ r5: .cfa -8 + ^
STACK CFI INIT 817a8 7c .cfa: sp 0 + .ra: lr
STACK CFI 817ac .cfa: sp 16 + .ra: .cfa -4 + ^ r3: .cfa -16 + ^ r4: .cfa -12 + ^ r5: .cfa -8 + ^
STACK CFI INIT 81824 188 .cfa: sp 0 + .ra: lr
STACK CFI 81828 .cfa: sp 16 + .ra: .cfa -4 + ^ r4: .cfa -16 + ^ r5: .cfa -12 + ^ r6: .cfa -8 + ^
STACK CFI 8182c .cfa: sp 32 +
STACK CFI INIT 819ac 188 .cfa: sp 0 + .ra: lr
STACK CFI 819b0 .cfa: sp 16 + .ra: .cfa -4 + ^ r4: .cfa -16 + ^ r5: .cfa -12 + ^ r6: .cfa -8 + ^
STACK CFI 819b8 .cfa: sp 24 +
STACK CFI INIT 81b34 174 .cfa: sp 0 + .ra: lr
STACK CFI 81b38 .cfa: sp 20 + .ra: .cfa -4 + ^ r4: .cfa -20 + ^ r5: .cfa -16 + ^ r6: .cfa -12 + ^ r7: .cfa -8 + ^
STACK CFI 81b40 .cfa: sp 32 +
STACK CFI INIT 81ca8 8 .cfa: sp 0 + .ra: lr
STACK CFI INIT 81cb0 48 .cfa: sp 0 + .ra: lr
STACK CFI 81cb8 .cfa: sp 8 + .ra: .cfa -4 + ^ r4: .cfa -8 + ^
STACK CFI INIT 81cf8 8 .cfa: sp 0 + .ra: lr
STACK CFI INIT 81d00 4 .cfa: sp 0 + .ra: lr
STACK CFI INIT 81d04 60 .cfa: sp 0 + .ra: lr
STACK CFI 81d0c .cfa: sp 16 + .ra: .cfa -4 + ^ r4: .cfa -16 + ^ r5: .cfa -12 + ^ r6: .cfa -8 + ^
STACK CFI INIT 81d64 1c .cfa: sp 0 + .ra: lr
STACK CFI INIT 81d80 1c .cfa: sp 0 + .ra: lr
STACK CFI INIT 81d9c 44 .cfa: sp 0 + .ra: lr
STACK CFI INIT 81de0 14 .cfa: sp 0 + .ra: lr
STACK CFI INIT 81df4 14 .cfa: sp 0 + .ra: lr
STACK CFI INIT 81e08 3b4 .cfa: sp 0 + .ra: lr
STACK CFI 81e0c .cfa: sp 36 + .ra: .cfa -4 + ^ r10: .cfa -12 + ^ r11: .cfa -8 + ^ r4: .cfa -36 + ^ r5: .cfa -32 + ^ r6: .cfa -28 + ^ r7: .cfa -24 + ^ r8: .cfa -20 + ^ r9: .cfa -16 + ^
STACK CFI 81e10 .cfa: sp 56 +
STACK CFI INIT 821bc 24 .cfa: sp 0 + .ra: lr
STACK CFI 821c0 .cfa: sp 4 + .ra: .cfa -4 + ^
STACK CFI 821c4 .cfa: sp 16 +
STACK CFI INIT 821e0 50 .cfa: sp 0 + .ra: lr
STACK CFI 821e8 .cfa: sp 8 + .ra: .cfa -4 + ^ r4: .cfa -8 + ^
STACK CFI 821fc .cfa: sp 16 +
STACK CFI INIT 82230 50 .cfa: sp 0 + .ra: lr
STACK CFI 82234 .cfa: sp 16 + .ra: .cfa -4 + ^ r3: .cfa -16 + ^ r4: .cfa -12 + ^ r5: .cfa -8 + ^
STACK CFI INIT 82280 18c .cfa: sp 0 + .ra: lr
STACK CFI 82284 .cfa: sp 32 + .ra: .cfa -4 + ^ r10: .cfa -8 + ^ r4: .cfa -32 + ^ r5: .cfa -28 + ^ r6: .cfa -24 + ^ r7: .cfa -20 + ^ r8: .cfa -16 + ^ r9: .cfa -12 + ^
STACK CFI INIT 8240c 1ec .cfa: sp 0 + .ra: lr
STACK CFI 82410 .cfa: sp 32 + .ra: .cfa -4 + ^ r10: .cfa -8 + ^ r4: .cfa -32 + ^ r5: .cfa -28 + ^ r6: .cfa -24 + ^ r7: .cfa -20 + ^ r8: .cfa -16 + ^ r9: .cfa -12 + ^
STACK CFI 82414 .cfa: sp 72 +
STACK CFI INIT 825f8 4 .cfa: sp 0 + .ra: lr
STACK CFI INIT 825fc 30 .cfa: sp 0 + .ra: lr
STACK CFI INIT 8262c 4 .cfa: sp 0 + .ra: lr
STACK CFI INIT 82630 1ec .cfa: sp 0 + .ra: lr
STACK CFI 82634 .cfa: sp 32 + .ra: .cfa -4 + ^ r10: .cfa -8 + ^ r4: .cfa -32 + ^ r5: .cfa -28 + ^ r6: .cfa -24 + ^ r7: .cfa -20 + ^ r8: .cfa -16 + ^ r9: .cfa -12 + ^
STACK CFI 82638 .cfa: sp 72 +
STACK CFI INIT 8281c 4 .cfa: sp 0 + .ra: lr
STACK CFI INIT 82820 4 .cfa: sp 0 + .ra: lr
STACK CFI INIT 82824 4 .cfa: sp 0 + .ra: lr
STACK CFI INIT 82828 1ec .cfa: sp 0 + .ra: lr
STACK CFI 8282c .cfa: sp 32 + .ra: .cfa -4 + ^ r10: .cfa -8 + ^ r4: .cfa -32 + ^ r5: .cfa -28 + ^ r6: .cfa -24 + ^ r7: .cfa -20 + ^ r8: .cfa -16 + ^ r9: .cfa -12 + ^
STACK CFI 82830 .cfa: sp 72 +
STACK CFI INIT 82a14 4 .cfa: sp 0 + .ra: lr
STACK CFI INIT 82a18 1f4 .cfa: sp 0 + .ra: lr
STACK CFI 82a1c .cfa: sp 36 + .ra: .cfa -4 + ^ r10: .cfa -12 + ^ r11: .cfa -8 + ^ r4: .cfa -36 + ^ r5: .cfa -32 + ^ r6: .cfa -28 + ^ r7: .cfa -24 + ^ r8: .cfa -20 + ^ r9: .cfa -16 + ^
STACK CFI 82a20 .cfa: sp 80 +
STACK CFI INIT 82c0c 4 .cfa: sp 0 + .ra: lr
STACK CFI INIT 82c10 1f4 .cfa: sp 0 + .ra: lr
STACK CFI 82c14 .cfa: sp 36 + .ra: .cfa -4 + ^ r10: .cfa -12 + ^ r11: .cfa -8 + ^ r4: .cfa -36 + ^ r5: .cfa -32 + ^ r6: .cfa -28 + ^ r7: .cfa -24 + ^ r8: .cfa -20 + ^ r9: .cfa -16 + ^
STACK CFI 82c18 .cfa: sp 80 +
STACK CFI INIT 82e04 4 .cfa: sp 0 + .ra: lr
STACK CFI INIT 82e08 1f4 .cfa: sp 0 + .ra: lr
STACK CFI 82e0c .cfa: sp 36 + .ra: .cfa -4 + ^ r10: .cfa -12 + ^ r11: .cfa -8 + ^ r4: .cfa -36 + ^ r5: .cfa -32 + ^ r6: .cfa -28 + ^ r7: .cfa -24 + ^ r8: .cfa -20 + ^ r9: .cfa -16 + ^
STACK CFI 82e10 .cfa: sp 80 +
STACK CFI INIT 82ffc 4 .cfa: sp 0 + .ra: lr
STACK CFI INIT 83000 24 .cfa: sp 0 + .ra: lr
STACK CFI 83004 .cfa: sp 8 + .ra: .cfa -4 + ^ r4: .cfa -8 + ^
STACK CFI INIT 83024 1f4 .cfa: sp 0 + .ra: lr
STACK CFI 83028 .cfa: sp 36 + .ra: .cfa -4 + ^ r10: .cfa -12 + ^ r11: .cfa -8 + ^ r4: .cfa -36 + ^ r5: .cfa -32 + ^ r6: .cfa -28 + ^ r7: .cfa -24 + ^ r8: .cfa -20 + ^ r9: .cfa -16 + ^
STACK CFI 8302c .cfa: sp 80 +
STACK CFI INIT 83218 4 .cfa: sp 0 + .ra: lr
STACK CFI INIT 8321c 1ec .cfa: sp 0 + .ra: lr
STACK CFI 83220 .cfa: sp 32 + .ra: .cfa -4 + ^ r10: .cfa -8 + ^ r4: .cfa -32 + ^ r5: .cfa -28 + ^ r6: .cfa -24 + ^ r7: .cfa -20 + ^ r8: .cfa -16 + ^ r9: .cfa -12 + ^
STACK CFI 83224 .cfa: sp 72 +
STACK CFI INIT 83408 4 .cfa: sp 0 + .ra: lr
STACK CFI INIT 7ec08 10 .cfa: sp 0 + .ra: lr
STACK CFI INIT 7ec60 10 .cfa: sp 0 + .ra: lr
STACK CFI INIT 7ecc0 10 .cfa: sp 0 + .ra: lr
STACK CFI INIT 7ed20 10 .cfa: sp 0 + .ra: lr
STACK CFI INIT 8340c 40 .cfa: sp 0 + .ra: lr
STACK CFI INIT 8344c 48 .cfa: sp 0 + .ra: lr
STACK CFI INIT 83494 84 .cfa: sp 0 + .ra: lr
STACK CFI 834a0 .cfa: sp 4 + r4: .cfa -4 + ^
STACK CFI INIT 83518 44 .cfa: sp 0 + .ra: lr
STACK CFI INIT 8355c 6c .cfa: sp 0 + .ra: lr
STACK CFI INIT 835c8 48 .cfa: sp 0 + .ra: lr
STACK CFI INIT 55a98 b8 .cfa: sp 0 + .ra: lr
STACK CFI 55a9c .cfa: sp 16 + .ra: .cfa -4 + ^ r4: .cfa -16 + ^ r5: .cfa -12 + ^ r6: .cfa -8 + ^
STACK CFI 55acc .cfa: sp 24 +
STACK CFI INIT 559e0 b8 .cfa: sp 0 + .ra: lr
STACK CFI 559e4 .cfa: sp 16 + .ra: .cfa -4 + ^ r4: .cfa -16 + ^ r5: .cfa -12 + ^ r6: .cfa -8 + ^
STACK CFI 55a14 .cfa: sp 24 +
STACK CFI INIT 55c10 c0 .cfa: sp 0 + .ra: lr
STACK CFI 55c14 .cfa: sp 16 + .ra: .cfa -4 + ^ r4: .cfa -16 + ^ r5: .cfa -12 + ^ r6: .cfa -8 + ^
STACK CFI 55c44 .cfa: sp 24 +
STACK CFI INIT 55b50 c0 .cfa: sp 0 + .ra: lr
STACK CFI 55b54 .cfa: sp 16 + .ra: .cfa -4 + ^ r4: .cfa -16 + ^ r5: .cfa -12 + ^ r6: .cfa -8 + ^
STACK CFI 55b84 .cfa: sp 24 +
STACK CFI INIT 83610 104 .cfa: sp 0 + .ra: lr
STACK CFI 83614 .cfa: sp 16 + .ra: .cfa -4 + ^ r4: .cfa -16 + ^ r5: .cfa -12 + ^ r6: .cfa -8 + ^
STACK CFI 8365c .cfa: sp 24 +
STACK CFI INIT 83724 104 .cfa: sp 0 + .ra: lr
STACK CFI 83728 .cfa: sp 16 + .ra: .cfa -4 + ^ r4: .cfa -16 + ^ r5: .cfa -12 + ^ r6: .cfa -8 + ^
STACK CFI 83770 .cfa: sp 24 +
STACK CFI INIT 83838 108 .cfa: sp 0 + .ra: lr
STACK CFI 8383c .cfa: sp 16 + .ra: .cfa -4 + ^ r4: .cfa -16 + ^ r5: .cfa -12 + ^ r6: .cfa -8 + ^
STACK CFI 83884 .cfa: sp 24 +
STACK CFI INIT 83950 108 .cfa: sp 0 + .ra: lr
STACK CFI 83954 .cfa: sp 16 + .ra: .cfa -4 + ^ r4: .cfa -16 + ^ r5: .cfa -12 + ^ r6: .cfa -8 + ^
STACK CFI 8399c .cfa: sp 24 +
STACK CFI INIT 83a68 10c .cfa: sp 0 + .ra: lr
STACK CFI 83a6c .cfa: sp 16 + .ra: .cfa -4 + ^ r4: .cfa -16 + ^ r5: .cfa -12 + ^ r6: .cfa -8 + ^
STACK CFI 83ab4 .cfa: sp 24 +
STACK CFI INIT 83b84 10c .cfa: sp 0 + .ra: lr
STACK CFI 83b88 .cfa: sp 16 + .ra: .cfa -4 + ^ r4: .cfa -16 + ^ r5: .cfa -12 + ^ r6: .cfa -8 + ^
STACK CFI 83bd0 .cfa: sp 24 +
STACK CFI INIT 83ca0 110 .cfa: sp 0 + .ra: lr
STACK CFI 83ca4 .cfa: sp 16 + .ra: .cfa -4 + ^ r4: .cfa -16 + ^ r5: .cfa -12 + ^ r6: .cfa -8 + ^
STACK CFI 83cec .cfa: sp 24 +
STACK CFI INIT 83dc0 110 .cfa: sp 0 + .ra: lr
STACK CFI 83dc4 .cfa: sp 16 + .ra: .cfa -4 + ^ r4: .cfa -16 + ^ r5: .cfa -12 + ^ r6: .cfa -8 + ^
STACK CFI 83e0c .cfa: sp 24 +
STACK CFI INIT 83ee0 124 .cfa: sp 0 + .ra: lr
STACK CFI 83ee4 .cfa: sp 16 + .ra: .cfa -4 + ^ r4: .cfa -16 + ^ r5: .cfa -12 + ^ r6: .cfa -8 + ^
STACK CFI 83f38 .cfa: sp 24 +
STACK CFI INIT 84004 8 .cfa: sp 0 + .ra: lr
STACK CFI INIT 8401c 124 .cfa: sp 0 + .ra: lr
STACK CFI 84020 .cfa: sp 16 + .ra: .cfa -4 + ^ r4: .cfa -16 + ^ r5: .cfa -12 + ^ r6: .cfa -8 + ^
STACK CFI 84074 .cfa: sp 24 +
STACK CFI INIT 84140 8 .cfa: sp 0 + .ra: lr
STACK CFI INIT 84158 12c .cfa: sp 0 + .ra: lr
STACK CFI 8415c .cfa: sp 16 + .ra: .cfa -4 + ^ r4: .cfa -16 + ^ r5: .cfa -12 + ^ r6: .cfa -8 + ^
STACK CFI 841b0 .cfa: sp 24 +
STACK CFI INIT 84284 8 .cfa: sp 0 + .ra: lr
STACK CFI INIT 8429c 12c .cfa: sp 0 + .ra: lr
STACK CFI 842a0 .cfa: sp 16 + .ra: .cfa -4 + ^ r4: .cfa -16 + ^ r5: .cfa -12 + ^ r6: .cfa -8 + ^
STACK CFI 842f4 .cfa: sp 24 +
STACK CFI INIT 843c8 8 .cfa: sp 0 + .ra: lr
STACK CFI INIT 843e0 80 .cfa: sp 0 + .ra: lr
STACK CFI 843e4 .cfa: sp 16 + .ra: .cfa -4 + ^ r4: .cfa -16 + ^ r5: .cfa -12 + ^ r6: .cfa -8 + ^
STACK CFI INIT 84460 134 .cfa: sp 0 + .ra: lr
STACK CFI 84464 .cfa: sp 20 + .ra: .cfa -4 + ^ r4: .cfa -20 + ^ r5: .cfa -16 + ^ r6: .cfa -12 + ^ r7: .cfa -8 + ^
STACK CFI 84484 .cfa: sp 40 +
STACK CFI INIT 84594 30 .cfa: sp 0 + .ra: lr
STACK CFI INIT 845c4 58 .cfa: sp 0 + .ra: lr
STACK CFI 845c8 .cfa: sp 16 + r4: .cfa -16 + ^ r5: .cfa -12 + ^ r6: .cfa -8 + ^ r7: .cfa -4 + ^
STACK CFI INIT 8461c 88 .cfa: sp 0 + .ra: lr
STACK CFI 84620 .cfa: sp 16 + .ra: .cfa -4 + ^ r4: .cfa -16 + ^ r5: .cfa -12 + ^ r6: .cfa -8 + ^
STACK CFI 84670 .cfa: sp 24 +
STACK CFI INIT 846a4 18 .cfa: sp 0 + .ra: lr
STACK CFI INIT 846bc 5c .cfa: sp 0 + .ra: lr
STACK CFI 846d4 .cfa: sp 16 + .ra: .cfa -4 + ^ r4: .cfa -16 + ^ r5: .cfa -12 + ^ r6: .cfa -8 + ^
STACK CFI INIT 84718 1d8 .cfa: sp 0 + .ra: lr
STACK CFI 84720 .cfa: sp 32 + .ra: .cfa -4 + ^ r10: .cfa -8 + ^ r4: .cfa -32 + ^ r5: .cfa -28 + ^ r6: .cfa -24 + ^ r7: .cfa -20 + ^ r8: .cfa -16 + ^ r9: .cfa -12 + ^
STACK CFI 8472c .cfa: sp 40 +
STACK CFI INIT 848f0 38 .cfa: sp 0 + .ra: lr
STACK CFI 848f8 .cfa: sp 8 + .ra: .cfa -4 + ^ r4: .cfa -8 + ^
STACK CFI INIT 84928 dc .cfa: sp 0 + .ra: lr
STACK CFI 8492c .cfa: sp 32 + .ra: .cfa -4 + ^ r10: .cfa -8 + ^ r4: .cfa -32 + ^ r5: .cfa -28 + ^ r6: .cfa -24 + ^ r7: .cfa -20 + ^ r8: .cfa -16 + ^ r9: .cfa -12 + ^
STACK CFI 84954 .cfa: sp 40 +
STACK CFI INIT 84a04 1d0 .cfa: sp 0 + .ra: lr
STACK CFI 84a08 .cfa: sp 36 + .ra: .cfa -4 + ^ r10: .cfa -12 + ^ r11: .cfa -8 + ^ r4: .cfa -36 + ^ r5: .cfa -32 + ^ r6: .cfa -28 + ^ r7: .cfa -24 + ^ r8: .cfa -20 + ^ r9: .cfa -16 + ^
STACK CFI 84a10 .cfa: sp 48 +
STACK CFI INIT 84bd4 134 .cfa: sp 0 + .ra: lr
STACK CFI 84bd8 .cfa: sp 8 +
STACK CFI 84bdc .cfa: sp 36 + .ra: .cfa -12 + ^ r4: .cfa -36 + ^ r5: .cfa -32 + ^ r6: .cfa -28 + ^ r7: .cfa -24 + ^ r8: .cfa -20 + ^ r9: .cfa -16 + ^
STACK CFI 84be4 .cfa: sp 48 +
STACK CFI INIT 84d08 108 .cfa: sp 0 + .ra: lr
STACK CFI 84d10 .cfa: sp 24 + .ra: .cfa -4 + ^ r4: .cfa -24 + ^ r5: .cfa -20 + ^ r6: .cfa -16 + ^ r7: .cfa -12 + ^ r8: .cfa -8 + ^
STACK CFI INIT 84e10 150 .cfa: sp 0 + .ra: lr
STACK CFI 84e14 .cfa: sp 24 + .ra: .cfa -4 + ^ r3: .cfa -24 + ^ r4: .cfa -20 + ^ r5: .cfa -16 + ^ r6: .cfa -12 + ^ r7: .cfa -8 + ^
STACK CFI INIT 84f60 160 .cfa: sp 0 + .ra: lr
STACK CFI 84f64 .cfa: sp 36 + .ra: .cfa -4 + ^ r10: .cfa -12 + ^ r11: .cfa -8 + ^ r4: .cfa -36 + ^ r5: .cfa -32 + ^ r6: .cfa -28 + ^ r7: .cfa -24 + ^ r8: .cfa -20 + ^ r9: .cfa -16 + ^
STACK CFI 84f90 .cfa: sp 48 +
STACK CFI INIT 850c0 1b0 .cfa: sp 0 + .ra: lr
STACK CFI 850c4 .cfa: sp 36 + .ra: .cfa -4 + ^ r10: .cfa -12 + ^ r11: .cfa -8 + ^ r4: .cfa -36 + ^ r5: .cfa -32 + ^ r6: .cfa -28 + ^ r7: .cfa -24 + ^ r8: .cfa -20 + ^ r9: .cfa -16 + ^
STACK CFI 850d0 .cfa: sp 56 +
STACK CFI INIT 85270 ec .cfa: sp 0 + .ra: lr
STACK CFI 85278 .cfa: sp 20 + .ra: .cfa -4 + ^ r4: .cfa -20 + ^ r5: .cfa -16 + ^ r6: .cfa -12 + ^ r7: .cfa -8 + ^
STACK CFI 852bc .cfa: sp 32 +
STACK CFI INIT 8535c 8 .cfa: sp 0 + .ra: lr
STACK CFI INIT 85364 134 .cfa: sp 0 + .ra: lr
STACK CFI 85368 .cfa: sp 20 + .ra: .cfa -4 + ^ r4: .cfa -20 + ^ r5: .cfa -16 + ^ r6: .cfa -12 + ^ r7: .cfa -8 + ^
STACK CFI 85388 .cfa: sp 40 +
STACK CFI INIT 85498 38 .cfa: sp 0 + .ra: lr
STACK CFI 854a0 .cfa: sp 8 + .ra: .cfa -4 + ^ r4: .cfa -8 + ^
STACK CFI INIT 854d0 f4 .cfa: sp 0 + .ra: lr
STACK CFI 854d4 .cfa: sp 24 + .ra: .cfa -4 + ^ r3: .cfa -24 + ^ r4: .cfa -20 + ^ r5: .cfa -16 + ^ r6: .cfa -12 + ^ r7: .cfa -8 + ^
STACK CFI INIT 855c4 144 .cfa: sp 0 + .ra: lr
STACK CFI 855c8 .cfa: sp 24 + .ra: .cfa -4 + ^ r3: .cfa -24 + ^ r4: .cfa -20 + ^ r5: .cfa -16 + ^ r6: .cfa -12 + ^ r7: .cfa -8 + ^
STACK CFI INIT 85708 150 .cfa: sp 0 + .ra: lr
STACK CFI 8570c .cfa: sp 36 + .ra: .cfa -4 + ^ r10: .cfa -12 + ^ r11: .cfa -8 + ^ r4: .cfa -36 + ^ r5: .cfa -32 + ^ r6: .cfa -28 + ^ r7: .cfa -24 + ^ r8: .cfa -20 + ^ r9: .cfa -16 + ^
STACK CFI 85728 .cfa: sp 48 +
STACK CFI INIT 85858 1a4 .cfa: sp 0 + .ra: lr
STACK CFI 8585c .cfa: sp 36 + .ra: .cfa -4 + ^ r10: .cfa -12 + ^ r11: .cfa -8 + ^ r4: .cfa -36 + ^ r5: .cfa -32 + ^ r6: .cfa -28 + ^ r7: .cfa -24 + ^ r8: .cfa -20 + ^ r9: .cfa -16 + ^
STACK CFI 85868 .cfa: sp 56 +
STACK CFI INIT 859fc e4 .cfa: sp 0 + .ra: lr
STACK CFI 85a04 .cfa: sp 20 + .ra: .cfa -4 + ^ r4: .cfa -20 + ^ r5: .cfa -16 + ^ r6: .cfa -12 + ^ r7: .cfa -8 + ^
STACK CFI 85a48 .cfa: sp 32 +
STACK CFI INIT 85ae0 8 .cfa: sp 0 + .ra: lr
STACK CFI INIT 85ae8 134 .cfa: sp 0 + .ra: lr
STACK CFI 85aec .cfa: sp 20 + .ra: .cfa -4 + ^ r4: .cfa -20 + ^ r5: .cfa -16 + ^ r6: .cfa -12 + ^ r7: .cfa -8 + ^
STACK CFI 85b0c .cfa: sp 40 +
STACK CFI INIT 85c1c 38 .cfa: sp 0 + .ra: lr
STACK CFI 85c24 .cfa: sp 8 + .ra: .cfa -4 + ^ r4: .cfa -8 + ^
STACK CFI INIT 85c54 160 .cfa: sp 0 + .ra: lr
STACK CFI 85c58 .cfa: sp 24 + .ra: .cfa -4 + ^ r3: .cfa -24 + ^ r4: .cfa -20 + ^ r5: .cfa -16 + ^ r6: .cfa -12 + ^ r7: .cfa -8 + ^
STACK CFI INIT 85db4 198 .cfa: sp 0 + .ra: lr
STACK CFI 85db8 .cfa: sp 24 + .ra: .cfa -4 + ^ r3: .cfa -24 + ^ r4: .cfa -20 + ^ r5: .cfa -16 + ^ r6: .cfa -12 + ^ r7: .cfa -8 + ^
STACK CFI INIT 85f4c 1b4 .cfa: sp 0 + .ra: lr
STACK CFI 85f50 .cfa: sp 36 + .ra: .cfa -4 + ^ r10: .cfa -12 + ^ r11: .cfa -8 + ^ r4: .cfa -36 + ^ r5: .cfa -32 + ^ r6: .cfa -28 + ^ r7: .cfa -24 + ^ r8: .cfa -20 + ^ r9: .cfa -16 + ^
STACK CFI 85f7c .cfa: sp 48 +
STACK CFI INIT 86100 1f0 .cfa: sp 0 + .ra: lr
STACK CFI 86104 .cfa: sp 36 + .ra: .cfa -4 + ^ r10: .cfa -12 + ^ r11: .cfa -8 + ^ r4: .cfa -36 + ^ r5: .cfa -32 + ^ r6: .cfa -28 + ^ r7: .cfa -24 + ^ r8: .cfa -20 + ^ r9: .cfa -16 + ^
STACK CFI 86110 .cfa: sp 48 +
STACK CFI INIT 862f0 128 .cfa: sp 0 + .ra: lr
STACK CFI 862f8 .cfa: sp 20 + .ra: .cfa -4 + ^ r4: .cfa -20 + ^ r5: .cfa -16 + ^ r6: .cfa -12 + ^ r7: .cfa -8 + ^
STACK CFI 86344 .cfa: sp 32 +
STACK CFI INIT 86418 8 .cfa: sp 0 + .ra: lr
STACK CFI INIT 86420 134 .cfa: sp 0 + .ra: lr
STACK CFI 86424 .cfa: sp 20 + .ra: .cfa -4 + ^ r4: .cfa -20 + ^ r5: .cfa -16 + ^ r6: .cfa -12 + ^ r7: .cfa -8 + ^
STACK CFI 86444 .cfa: sp 40 +
STACK CFI INIT 86554 38 .cfa: sp 0 + .ra: lr
STACK CFI 8655c .cfa: sp 8 + .ra: .cfa -4 + ^ r4: .cfa -8 + ^
STACK CFI INIT 8658c 80 .cfa: sp 0 + .ra: lr
STACK CFI 86590 .cfa: sp 16 + .ra: .cfa -4 + ^ r4: .cfa -16 + ^ r5: .cfa -12 + ^ r6: .cfa -8 + ^
STACK CFI INIT 8660c 134 .cfa: sp 0 + .ra: lr
STACK CFI 86610 .cfa: sp 20 + .ra: .cfa -4 + ^ r4: .cfa -20 + ^ r5: .cfa -16 + ^ r6: .cfa -12 + ^ r7: .cfa -8 + ^
STACK CFI 86630 .cfa: sp 40 +
STACK CFI INIT 86740 30 .cfa: sp 0 + .ra: lr
STACK CFI INIT 86770 68 .cfa: sp 0 + .ra: lr
STACK CFI 86774 .cfa: sp 16 + r4: .cfa -16 + ^ r5: .cfa -12 + ^ r6: .cfa -8 + ^ r7: .cfa -4 + ^
STACK CFI INIT 867d8 88 .cfa: sp 0 + .ra: lr
STACK CFI 867dc .cfa: sp 16 + .ra: .cfa -4 + ^ r4: .cfa -16 + ^ r5: .cfa -12 + ^ r6: .cfa -8 + ^
STACK CFI 8682c .cfa: sp 24 +
STACK CFI INIT 86860 18 .cfa: sp 0 + .ra: lr
STACK CFI INIT 86878 5c .cfa: sp 0 + .ra: lr
STACK CFI 86890 .cfa: sp 16 + .ra: .cfa -4 + ^ r4: .cfa -16 + ^ r5: .cfa -12 + ^ r6: .cfa -8 + ^
STACK CFI INIT 868d4 1e4 .cfa: sp 0 + .ra: lr
STACK CFI 868dc .cfa: sp 28 + .ra: .cfa -4 + ^ r4: .cfa -28 + ^ r5: .cfa -24 + ^ r6: .cfa -20 + ^ r7: .cfa -16 + ^ r8: .cfa -12 + ^ r9: .cfa -8 + ^
STACK CFI 868e8 .cfa: sp 40 +
STACK CFI INIT 86ab8 38 .cfa: sp 0 + .ra: lr
STACK CFI 86ac0 .cfa: sp 8 + .ra: .cfa -4 + ^ r4: .cfa -8 + ^
STACK CFI INIT 86af0 dc .cfa: sp 0 + .ra: lr
STACK CFI 86af4 .cfa: sp 32 + .ra: .cfa -4 + ^ r10: .cfa -8 + ^ r4: .cfa -32 + ^ r5: .cfa -28 + ^ r6: .cfa -24 + ^ r7: .cfa -20 + ^ r8: .cfa -16 + ^ r9: .cfa -12 + ^
STACK CFI 86b1c .cfa: sp 40 +
STACK CFI INIT 86bcc 1e0 .cfa: sp 0 + .ra: lr
STACK CFI 86bd0 .cfa: sp 36 + .ra: .cfa -4 + ^ r10: .cfa -12 + ^ r11: .cfa -8 + ^ r4: .cfa -36 + ^ r5: .cfa -32 + ^ r6: .cfa -28 + ^ r7: .cfa -24 + ^ r8: .cfa -20 + ^ r9: .cfa -16 + ^
STACK CFI 86bd8 .cfa: sp 48 +
STACK CFI INIT 86dac 138 .cfa: sp 0 + .ra: lr
STACK CFI 86db0 .cfa: sp 8 +
STACK CFI 86db4 .cfa: sp 36 + .ra: .cfa -12 + ^ r4: .cfa -36 + ^ r5: .cfa -32 + ^ r6: .cfa -28 + ^ r7: .cfa -24 + ^ r8: .cfa -20 + ^ r9: .cfa -16 + ^
STACK CFI 86dbc .cfa: sp 48 +
STACK CFI INIT 86ee4 108 .cfa: sp 0 + .ra: lr
STACK CFI 86eec .cfa: sp 24 + .ra: .cfa -4 + ^ r4: .cfa -24 + ^ r5: .cfa -20 + ^ r6: .cfa -16 + ^ r7: .cfa -12 + ^ r8: .cfa -8 + ^
STACK CFI INIT 86fec 150 .cfa: sp 0 + .ra: lr
STACK CFI 86ff0 .cfa: sp 24 + .ra: .cfa -4 + ^ r3: .cfa -24 + ^ r4: .cfa -20 + ^ r5: .cfa -16 + ^ r6: .cfa -12 + ^ r7: .cfa -8 + ^
STACK CFI INIT 8713c 160 .cfa: sp 0 + .ra: lr
STACK CFI 87140 .cfa: sp 36 + .ra: .cfa -4 + ^ r10: .cfa -12 + ^ r11: .cfa -8 + ^ r4: .cfa -36 + ^ r5: .cfa -32 + ^ r6: .cfa -28 + ^ r7: .cfa -24 + ^ r8: .cfa -20 + ^ r9: .cfa -16 + ^
STACK CFI 8716c .cfa: sp 48 +
STACK CFI INIT 8729c 1b0 .cfa: sp 0 + .ra: lr
STACK CFI 872a0 .cfa: sp 36 + .ra: .cfa -4 + ^ r10: .cfa -12 + ^ r11: .cfa -8 + ^ r4: .cfa -36 + ^ r5: .cfa -32 + ^ r6: .cfa -28 + ^ r7: .cfa -24 + ^ r8: .cfa -20 + ^ r9: .cfa -16 + ^
STACK CFI 872ac .cfa: sp 56 +
STACK CFI INIT 8744c ec .cfa: sp 0 + .ra: lr
STACK CFI 87454 .cfa: sp 20 + .ra: .cfa -4 + ^ r4: .cfa -20 + ^ r5: .cfa -16 + ^ r6: .cfa -12 + ^ r7: .cfa -8 + ^
STACK CFI 87498 .cfa: sp 32 +
STACK CFI INIT 87538 8 .cfa: sp 0 + .ra: lr
STACK CFI INIT 87540 134 .cfa: sp 0 + .ra: lr
STACK CFI 87544 .cfa: sp 20 + .ra: .cfa -4 + ^ r4: .cfa -20 + ^ r5: .cfa -16 + ^ r6: .cfa -12 + ^ r7: .cfa -8 + ^
STACK CFI 87564 .cfa: sp 40 +
STACK CFI INIT 87674 38 .cfa: sp 0 + .ra: lr
STACK CFI 8767c .cfa: sp 8 + .ra: .cfa -4 + ^ r4: .cfa -8 + ^
STACK CFI INIT 876ac f4 .cfa: sp 0 + .ra: lr
STACK CFI 876b0 .cfa: sp 24 + .ra: .cfa -4 + ^ r3: .cfa -24 + ^ r4: .cfa -20 + ^ r5: .cfa -16 + ^ r6: .cfa -12 + ^ r7: .cfa -8 + ^
STACK CFI INIT 877a0 144 .cfa: sp 0 + .ra: lr
STACK CFI 877a4 .cfa: sp 24 + .ra: .cfa -4 + ^ r3: .cfa -24 + ^ r4: .cfa -20 + ^ r5: .cfa -16 + ^ r6: .cfa -12 + ^ r7: .cfa -8 + ^
STACK CFI INIT 878e4 150 .cfa: sp 0 + .ra: lr
STACK CFI 878e8 .cfa: sp 36 + .ra: .cfa -4 + ^ r10: .cfa -12 + ^ r11: .cfa -8 + ^ r4: .cfa -36 + ^ r5: .cfa -32 + ^ r6: .cfa -28 + ^ r7: .cfa -24 + ^ r8: .cfa -20 + ^ r9: .cfa -16 + ^
STACK CFI 87904 .cfa: sp 48 +
STACK CFI INIT 87a34 1a4 .cfa: sp 0 + .ra: lr
STACK CFI 87a38 .cfa: sp 36 + .ra: .cfa -4 + ^ r10: .cfa -12 + ^ r11: .cfa -8 + ^ r4: .cfa -36 + ^ r5: .cfa -32 + ^ r6: .cfa -28 + ^ r7: .cfa -24 + ^ r8: .cfa -20 + ^ r9: .cfa -16 + ^
STACK CFI 87a44 .cfa: sp 56 +
STACK CFI INIT 87bd8 e4 .cfa: sp 0 + .ra: lr
STACK CFI 87be0 .cfa: sp 20 + .ra: .cfa -4 + ^ r4: .cfa -20 + ^ r5: .cfa -16 + ^ r6: .cfa -12 + ^ r7: .cfa -8 + ^
STACK CFI 87c24 .cfa: sp 32 +
STACK CFI INIT 87cbc 8 .cfa: sp 0 + .ra: lr
STACK CFI INIT 87cc4 134 .cfa: sp 0 + .ra: lr
STACK CFI 87cc8 .cfa: sp 20 + .ra: .cfa -4 + ^ r4: .cfa -20 + ^ r5: .cfa -16 + ^ r6: .cfa -12 + ^ r7: .cfa -8 + ^
STACK CFI 87ce8 .cfa: sp 40 +
STACK CFI INIT 87df8 38 .cfa: sp 0 + .ra: lr
STACK CFI 87e00 .cfa: sp 8 + .ra: .cfa -4 + ^ r4: .cfa -8 + ^
STACK CFI INIT 87e30 160 .cfa: sp 0 + .ra: lr
STACK CFI 87e34 .cfa: sp 24 + .ra: .cfa -4 + ^ r3: .cfa -24 + ^ r4: .cfa -20 + ^ r5: .cfa -16 + ^ r6: .cfa -12 + ^ r7: .cfa -8 + ^
STACK CFI INIT 87f90 198 .cfa: sp 0 + .ra: lr
STACK CFI 87f94 .cfa: sp 24 + .ra: .cfa -4 + ^ r3: .cfa -24 + ^ r4: .cfa -20 + ^ r5: .cfa -16 + ^ r6: .cfa -12 + ^ r7: .cfa -8 + ^
STACK CFI INIT 88128 1b4 .cfa: sp 0 + .ra: lr
STACK CFI 8812c .cfa: sp 36 + .ra: .cfa -4 + ^ r10: .cfa -12 + ^ r11: .cfa -8 + ^ r4: .cfa -36 + ^ r5: .cfa -32 + ^ r6: .cfa -28 + ^ r7: .cfa -24 + ^ r8: .cfa -20 + ^ r9: .cfa -16 + ^
STACK CFI 88158 .cfa: sp 48 +
STACK CFI INIT 882dc 1f0 .cfa: sp 0 + .ra: lr
STACK CFI 882e0 .cfa: sp 36 + .ra: .cfa -4 + ^ r10: .cfa -12 + ^ r11: .cfa -8 + ^ r4: .cfa -36 + ^ r5: .cfa -32 + ^ r6: .cfa -28 + ^ r7: .cfa -24 + ^ r8: .cfa -20 + ^ r9: .cfa -16 + ^
STACK CFI 882ec .cfa: sp 48 +
STACK CFI INIT 884cc 128 .cfa: sp 0 + .ra: lr
STACK CFI 884d4 .cfa: sp 20 + .ra: .cfa -4 + ^ r4: .cfa -20 + ^ r5: .cfa -16 + ^ r6: .cfa -12 + ^ r7: .cfa -8 + ^
STACK CFI 88520 .cfa: sp 32 +
STACK CFI INIT 885f4 8 .cfa: sp 0 + .ra: lr
STACK CFI INIT 885fc 134 .cfa: sp 0 + .ra: lr
STACK CFI 88600 .cfa: sp 20 + .ra: .cfa -4 + ^ r4: .cfa -20 + ^ r5: .cfa -16 + ^ r6: .cfa -12 + ^ r7: .cfa -8 + ^
STACK CFI 88620 .cfa: sp 40 +
STACK CFI INIT 88730 38 .cfa: sp 0 + .ra: lr
STACK CFI 88738 .cfa: sp 8 + .ra: .cfa -4 + ^ r4: .cfa -8 + ^
STACK CFI INIT 83714 10 .cfa: sp 0 + .ra: lr
STACK CFI INIT 83828 10 .cfa: sp 0 + .ra: lr
STACK CFI INIT 83940 10 .cfa: sp 0 + .ra: lr
STACK CFI INIT 83a58 10 .cfa: sp 0 + .ra: lr
STACK CFI INIT 83b74 10 .cfa: sp 0 + .ra: lr
STACK CFI INIT 83c90 10 .cfa: sp 0 + .ra: lr
STACK CFI INIT 83db0 10 .cfa: sp 0 + .ra: lr
STACK CFI INIT 83ed0 10 .cfa: sp 0 + .ra: lr
STACK CFI INIT 8400c 10 .cfa: sp 0 + .ra: lr
STACK CFI INIT 84148 10 .cfa: sp 0 + .ra: lr
STACK CFI INIT 8428c 10 .cfa: sp 0 + .ra: lr
STACK CFI INIT 843d0 10 .cfa: sp 0 + .ra: lr
STACK CFI INIT 88768 4 .cfa: sp 0 + .ra: lr
STACK CFI INIT 8876c 4 .cfa: sp 0 + .ra: lr
STACK CFI INIT 88770 1c .cfa: sp 0 + .ra: lr
STACK CFI INIT 8878c 34 .cfa: sp 0 + .ra: lr
STACK CFI 88790 .cfa: sp 8 +
STACK CFI 88794 .cfa: sp 20 + r4: .cfa -20 + ^ r5: .cfa -16 + ^ r6: .cfa -12 + ^
STACK CFI INIT 887c0 8 .cfa: sp 0 + .ra: lr
STACK CFI INIT 887c8 8 .cfa: sp 0 + .ra: lr
STACK CFI INIT 887d0 8 .cfa: sp 0 + .ra: lr
STACK CFI INIT 887d8 28 .cfa: sp 0 + .ra: lr
STACK CFI 887e0 .cfa: sp 8 + .ra: .cfa -4 + ^ r4: .cfa -8 + ^
STACK CFI INIT 88800 8 .cfa: sp 0 + .ra: lr
STACK CFI INIT 88808 8 .cfa: sp 0 + .ra: lr
STACK CFI INIT 88810 4 .cfa: sp 0 + .ra: lr
STACK CFI INIT 88814 4 .cfa: sp 0 + .ra: lr
STACK CFI INIT 88818 1c .cfa: sp 0 + .ra: lr
STACK CFI INIT 88834 34 .cfa: sp 0 + .ra: lr
STACK CFI 88838 .cfa: sp 8 +
STACK CFI 8883c .cfa: sp 20 + r4: .cfa -20 + ^ r5: .cfa -16 + ^ r6: .cfa -12 + ^
STACK CFI INIT 88868 8 .cfa: sp 0 + .ra: lr
STACK CFI INIT 88870 8 .cfa: sp 0 + .ra: lr
STACK CFI INIT 88878 8 .cfa: sp 0 + .ra: lr
STACK CFI INIT 88880 8 .cfa: sp 0 + .ra: lr
STACK CFI INIT 88888 8 .cfa: sp 0 + .ra: lr
STACK CFI INIT 88890 9c .cfa: sp 0 + .ra: lr
STACK CFI 88894 .cfa: sp 24 + .ra: .cfa -4 + ^ r4: .cfa -24 + ^ r5: .cfa -20 + ^ r6: .cfa -16 + ^ r7: .cfa -12 + ^ r8: .cfa -8 + ^
STACK CFI INIT 8892c 9c .cfa: sp 0 + .ra: lr
STACK CFI 88930 .cfa: sp 24 + .ra: .cfa -4 + ^ r4: .cfa -24 + ^ r5: .cfa -20 + ^ r6: .cfa -16 + ^ r7: .cfa -12 + ^ r8: .cfa -8 + ^
STACK CFI INIT 889c8 34 .cfa: sp 0 + .ra: lr
STACK CFI 889d8 .cfa: sp 8 + .ra: .cfa -4 + ^ r4: .cfa -8 + ^
STACK CFI INIT 889fc 34 .cfa: sp 0 + .ra: lr
STACK CFI 88a0c .cfa: sp 8 + .ra: .cfa -4 + ^ r4: .cfa -8 + ^
STACK CFI INIT 88a30 3c .cfa: sp 0 + .ra: lr
STACK CFI 88a40 .cfa: sp 8 + .ra: .cfa -4 + ^ r4: .cfa -8 + ^
STACK CFI INIT 88a6c 3c .cfa: sp 0 + .ra: lr
STACK CFI 88a7c .cfa: sp 8 + .ra: .cfa -4 + ^ r4: .cfa -8 + ^
STACK CFI INIT 88aa8 a4 .cfa: sp 0 + .ra: lr
STACK CFI 88aac .cfa: sp 24 + .ra: .cfa -4 + ^ r4: .cfa -24 + ^ r5: .cfa -20 + ^ r6: .cfa -16 + ^ r7: .cfa -12 + ^ r8: .cfa -8 + ^
STACK CFI INIT 88b4c a4 .cfa: sp 0 + .ra: lr
STACK CFI 88b50 .cfa: sp 24 + .ra: .cfa -4 + ^ r4: .cfa -24 + ^ r5: .cfa -20 + ^ r6: .cfa -16 + ^ r7: .cfa -12 + ^ r8: .cfa -8 + ^
STACK CFI INIT 88bf0 28 .cfa: sp 0 + .ra: lr
STACK CFI 88bf8 .cfa: sp 8 + .ra: .cfa -4 + ^ r4: .cfa -8 + ^
STACK CFI INIT 88c18 50 .cfa: sp 0 + .ra: lr
STACK CFI 88c1c .cfa: sp 24 + .ra: .cfa -4 + ^ r3: .cfa -24 + ^ r4: .cfa -20 + ^ r5: .cfa -16 + ^ r6: .cfa -12 + ^ r7: .cfa -8 + ^
STACK CFI INIT 88c68 18 .cfa: sp 0 + .ra: lr
STACK CFI 88c6c .cfa: sp 8 + .ra: .cfa -4 + ^ r4: .cfa -8 + ^
STACK CFI INIT 88c80 14 .cfa: sp 0 + .ra: lr
STACK CFI 88c84 .cfa: sp 8 + .ra: .cfa -4 + ^ r3: .cfa -8 + ^
STACK CFI INIT 88c94 30 .cfa: sp 0 + .ra: lr
STACK CFI 88c98 .cfa: sp 8 + .ra: .cfa -4 + ^ r4: .cfa -8 + ^
STACK CFI 88c9c .cfa: sp 16 +
STACK CFI INIT 88cc4 5c .cfa: sp 0 + .ra: lr
STACK CFI 88cc8 .cfa: sp 8 +
STACK CFI 88ccc .cfa: sp 24 + .ra: .cfa -12 + ^ r4: .cfa -24 + ^ r5: .cfa -20 + ^ r6: .cfa -16 + ^
STACK CFI 88cd0 .cfa: sp 40 +
STACK CFI INIT 88d20 14 .cfa: sp 0 + .ra: lr
STACK CFI 88d24 .cfa: sp 8 + .ra: .cfa -4 + ^ r3: .cfa -8 + ^
STACK CFI INIT 88d34 2c .cfa: sp 0 + .ra: lr
STACK CFI 88d40 .cfa: sp 8 + .ra: .cfa -4 + ^ r3: .cfa -8 + ^
STACK CFI INIT 88d60 64 .cfa: sp 0 + .ra: lr
STACK CFI 88d6c .cfa: sp 8 + .ra: .cfa -4 + ^ r4: .cfa -8 + ^
STACK CFI INIT 88dc4 34 .cfa: sp 0 + .ra: lr
STACK CFI 88dd0 .cfa: sp 8 + .ra: .cfa -4 + ^ r3: .cfa -8 + ^
STACK CFI INIT 88df8 2c .cfa: sp 0 + .ra: lr
STACK CFI 88e04 .cfa: sp 8 + .ra: .cfa -4 + ^ r3: .cfa -8 + ^
STACK CFI INIT 88e24 14 .cfa: sp 0 + .ra: lr
STACK CFI 88e28 .cfa: sp 8 + .ra: .cfa -4 + ^ r3: .cfa -8 + ^
STACK CFI INIT 88e38 3c .cfa: sp 0 + .ra: lr
STACK CFI 88e3c .cfa: sp 8 + .ra: .cfa -4 + ^ r3: .cfa -8 + ^
STACK CFI INIT 88e74 34 .cfa: sp 0 + .ra: lr
STACK CFI 88e7c .cfa: sp 8 + .ra: .cfa -4 + ^ r3: .cfa -8 + ^
STACK CFI INIT 88ea8 40 .cfa: sp 0 + .ra: lr
STACK CFI 88eac .cfa: sp 8 + .ra: .cfa -4 + ^ r4: .cfa -8 + ^
STACK CFI INIT 88ee8 14 .cfa: sp 0 + .ra: lr
STACK CFI 88eec .cfa: sp 8 + .ra: .cfa -4 + ^ r3: .cfa -8 + ^
STACK CFI INIT 88efc 50 .cfa: sp 0 + .ra: lr
STACK CFI 88f0c .cfa: sp 8 + .ra: .cfa -4 + ^ r4: .cfa -8 + ^
STACK CFI INIT 88f4c 8 .cfa: sp 0 + .ra: lr
STACK CFI INIT 88f54 8 .cfa: sp 0 + .ra: lr
STACK CFI INIT 88f5c 8 .cfa: sp 0 + .ra: lr
STACK CFI INIT 88f64 10 .cfa: sp 0 + .ra: lr
STACK CFI INIT 88f74 8 .cfa: sp 0 + .ra: lr
STACK CFI INIT 88f7c 8 .cfa: sp 0 + .ra: lr
STACK CFI INIT 88f84 8 .cfa: sp 0 + .ra: lr
STACK CFI INIT 88f8c 8 .cfa: sp 0 + .ra: lr
STACK CFI INIT 88f94 10 .cfa: sp 0 + .ra: lr
STACK CFI INIT 88fa4 10 .cfa: sp 0 + .ra: lr
STACK CFI INIT 88fb4 2c .cfa: sp 0 + .ra: lr
STACK CFI 88fc0 .cfa: sp 8 + .ra: .cfa -4 + ^ r3: .cfa -8 + ^
STACK CFI INIT 88fe0 10 .cfa: sp 0 + .ra: lr
STACK CFI INIT 88ff0 10 .cfa: sp 0 + .ra: lr
STACK CFI INIT 89000 68 .cfa: sp 0 + .ra: lr
STACK CFI 89010 .cfa: sp 16 + .ra: .cfa -4 + ^ r4: .cfa -16 + ^ r5: .cfa -12 + ^ r6: .cfa -8 + ^
STACK CFI INIT 89068 4 .cfa: sp 0 + .ra: lr
STACK CFI INIT 8906c 18 .cfa: sp 0 + .ra: lr
STACK CFI 89070 .cfa: sp 4 + .ra: .cfa -4 + ^
STACK CFI 89074 .cfa: sp 16 +
STACK CFI INIT 89084 50 .cfa: sp 0 + .ra: lr
STACK CFI 89088 .cfa: sp 24 + .ra: .cfa -4 + ^ r3: .cfa -24 + ^ r4: .cfa -20 + ^ r5: .cfa -16 + ^ r6: .cfa -12 + ^ r7: .cfa -8 + ^
STACK CFI INIT 890d4 18 .cfa: sp 0 + .ra: lr
STACK CFI 890d8 .cfa: sp 8 + .ra: .cfa -4 + ^ r4: .cfa -8 + ^
STACK CFI INIT 890ec 14 .cfa: sp 0 + .ra: lr
STACK CFI 890f0 .cfa: sp 8 + .ra: .cfa -4 + ^ r3: .cfa -8 + ^
STACK CFI INIT 89100 30 .cfa: sp 0 + .ra: lr
STACK CFI 89104 .cfa: sp 8 + .ra: .cfa -4 + ^ r4: .cfa -8 + ^
STACK CFI 89108 .cfa: sp 16 +
STACK CFI INIT 89130 5c .cfa: sp 0 + .ra: lr
STACK CFI 89134 .cfa: sp 8 +
STACK CFI 89138 .cfa: sp 24 + .ra: .cfa -12 + ^ r4: .cfa -24 + ^ r5: .cfa -20 + ^ r6: .cfa -16 + ^
STACK CFI 8913c .cfa: sp 40 +
STACK CFI INIT 8918c 14 .cfa: sp 0 + .ra: lr
STACK CFI 89190 .cfa: sp 8 + .ra: .cfa -4 + ^ r3: .cfa -8 + ^
STACK CFI INIT 891a0 30 .cfa: sp 0 + .ra: lr
STACK CFI 891ac .cfa: sp 8 + .ra: .cfa -4 + ^ r3: .cfa -8 + ^
STACK CFI INIT 891d0 64 .cfa: sp 0 + .ra: lr
STACK CFI 891dc .cfa: sp 8 + .ra: .cfa -4 + ^ r4: .cfa -8 + ^
STACK CFI INIT 89234 34 .cfa: sp 0 + .ra: lr
STACK CFI 89240 .cfa: sp 8 + .ra: .cfa -4 + ^ r3: .cfa -8 + ^
STACK CFI INIT 89268 2c .cfa: sp 0 + .ra: lr
STACK CFI 89274 .cfa: sp 8 + .ra: .cfa -4 + ^ r3: .cfa -8 + ^
STACK CFI INIT 89294 14 .cfa: sp 0 + .ra: lr
STACK CFI 89298 .cfa: sp 8 + .ra: .cfa -4 + ^ r3: .cfa -8 + ^
STACK CFI INIT 892a8 40 .cfa: sp 0 + .ra: lr
STACK CFI 892ac .cfa: sp 8 + .ra: .cfa -4 + ^ r3: .cfa -8 + ^
STACK CFI INIT 892e8 34 .cfa: sp 0 + .ra: lr
STACK CFI 892f0 .cfa: sp 8 + .ra: .cfa -4 + ^ r3: .cfa -8 + ^
STACK CFI INIT 8931c 3c .cfa: sp 0 + .ra: lr
STACK CFI 89320 .cfa: sp 8 + .ra: .cfa -4 + ^ r4: .cfa -8 + ^
STACK CFI INIT 89358 14 .cfa: sp 0 + .ra: lr
STACK CFI 8935c .cfa: sp 8 + .ra: .cfa -4 + ^ r3: .cfa -8 + ^
STACK CFI INIT 8936c 50 .cfa: sp 0 + .ra: lr
STACK CFI 8937c .cfa: sp 8 + .ra: .cfa -4 + ^ r4: .cfa -8 + ^
STACK CFI INIT 893bc 8 .cfa: sp 0 + .ra: lr
STACK CFI INIT 893c4 8 .cfa: sp 0 + .ra: lr
STACK CFI INIT 893cc 8 .cfa: sp 0 + .ra: lr
STACK CFI INIT 893d4 10 .cfa: sp 0 + .ra: lr
STACK CFI INIT 893e4 8 .cfa: sp 0 + .ra: lr
STACK CFI INIT 893ec 8 .cfa: sp 0 + .ra: lr
STACK CFI INIT 893f4 8 .cfa: sp 0 + .ra: lr
STACK CFI INIT 893fc 8 .cfa: sp 0 + .ra: lr
STACK CFI INIT 89404 10 .cfa: sp 0 + .ra: lr
STACK CFI INIT 89414 10 .cfa: sp 0 + .ra: lr
STACK CFI INIT 89424 2c .cfa: sp 0 + .ra: lr
STACK CFI 89430 .cfa: sp 8 + .ra: .cfa -4 + ^ r3: .cfa -8 + ^
STACK CFI INIT 89450 10 .cfa: sp 0 + .ra: lr
STACK CFI INIT 89460 10 .cfa: sp 0 + .ra: lr
STACK CFI INIT 89470 68 .cfa: sp 0 + .ra: lr
STACK CFI 89480 .cfa: sp 16 + .ra: .cfa -4 + ^ r4: .cfa -16 + ^ r5: .cfa -12 + ^ r6: .cfa -8 + ^
STACK CFI INIT 894d8 4 .cfa: sp 0 + .ra: lr
STACK CFI INIT 894dc 18 .cfa: sp 0 + .ra: lr
STACK CFI 894e0 .cfa: sp 4 + .ra: .cfa -4 + ^
STACK CFI 894e4 .cfa: sp 16 +
STACK CFI INIT 894f4 c .cfa: sp 0 + .ra: lr
STACK CFI INIT 89500 c .cfa: sp 0 + .ra: lr
STACK CFI INIT 8950c c .cfa: sp 0 + .ra: lr
STACK CFI INIT 89518 14 .cfa: sp 0 + .ra: lr
STACK CFI 89520 .cfa: sp 8 +
STACK CFI INIT 8952c 14 .cfa: sp 0 + .ra: lr
STACK CFI 89534 .cfa: sp 8 +
STACK CFI INIT 89540 c .cfa: sp 0 + .ra: lr
STACK CFI INIT 8954c c .cfa: sp 0 + .ra: lr
STACK CFI INIT 89558 c .cfa: sp 0 + .ra: lr
STACK CFI INIT 89564 14 .cfa: sp 0 + .ra: lr
STACK CFI 8956c .cfa: sp 8 +
STACK CFI INIT 89578 14 .cfa: sp 0 + .ra: lr
STACK CFI 89580 .cfa: sp 8 +
STACK CFI INIT 8958c c .cfa: sp 0 + .ra: lr
STACK CFI INIT 89598 c .cfa: sp 0 + .ra: lr
STACK CFI INIT 895a4 8 .cfa: sp 0 + .ra: lr
STACK CFI INIT 895ac 4 .cfa: sp 0 + .ra: lr
STACK CFI INIT 895b0 24 .cfa: sp 0 + .ra: lr
STACK CFI INIT 895d4 34 .cfa: sp 0 + .ra: lr
STACK CFI 895e4 .cfa: sp 8 + .ra: .cfa -4 + ^ r4: .cfa -8 + ^
STACK CFI INIT 89608 34 .cfa: sp 0 + .ra: lr
STACK CFI 89618 .cfa: sp 8 + .ra: .cfa -4 + ^ r4: .cfa -8 + ^
STACK CFI INIT 8963c 34 .cfa: sp 0 + .ra: lr
STACK CFI 8964c .cfa: sp 8 + .ra: .cfa -4 + ^ r4: .cfa -8 + ^
STACK CFI INIT 89670 34 .cfa: sp 0 + .ra: lr
STACK CFI 89680 .cfa: sp 8 + .ra: .cfa -4 + ^ r4: .cfa -8 + ^
STACK CFI INIT 896a4 34 .cfa: sp 0 + .ra: lr
STACK CFI 896b4 .cfa: sp 8 + .ra: .cfa -4 + ^ r4: .cfa -8 + ^
STACK CFI INIT 896d8 34 .cfa: sp 0 + .ra: lr
STACK CFI 896e8 .cfa: sp 8 + .ra: .cfa -4 + ^ r4: .cfa -8 + ^
STACK CFI INIT 8970c 34 .cfa: sp 0 + .ra: lr
STACK CFI 8971c .cfa: sp 8 + .ra: .cfa -4 + ^ r4: .cfa -8 + ^
STACK CFI INIT 89740 34 .cfa: sp 0 + .ra: lr
STACK CFI 89750 .cfa: sp 8 + .ra: .cfa -4 + ^ r4: .cfa -8 + ^
STACK CFI INIT 89774 34 .cfa: sp 0 + .ra: lr
STACK CFI 89784 .cfa: sp 8 + .ra: .cfa -4 + ^ r4: .cfa -8 + ^
STACK CFI INIT 897a8 34 .cfa: sp 0 + .ra: lr
STACK CFI 897b8 .cfa: sp 8 + .ra: .cfa -4 + ^ r4: .cfa -8 + ^
STACK CFI INIT 897dc 34 .cfa: sp 0 + .ra: lr
STACK CFI 897ec .cfa: sp 8 + .ra: .cfa -4 + ^ r4: .cfa -8 + ^
STACK CFI INIT 89810 28 .cfa: sp 0 + .ra: lr
STACK CFI 89818 .cfa: sp 8 + .ra: .cfa -4 + ^ r4: .cfa -8 + ^
STACK CFI 8981c .cfa: sp 16 +
STACK CFI INIT 89838 28 .cfa: sp 0 + .ra: lr
STACK CFI 89840 .cfa: sp 8 + .ra: .cfa -4 + ^ r4: .cfa -8 + ^
STACK CFI 89844 .cfa: sp 16 +
STACK CFI INIT 89860 28 .cfa: sp 0 + .ra: lr
STACK CFI 89868 .cfa: sp 8 + .ra: .cfa -4 + ^ r4: .cfa -8 + ^
STACK CFI 8986c .cfa: sp 16 +
STACK CFI INIT 89888 28 .cfa: sp 0 + .ra: lr
STACK CFI 89890 .cfa: sp 8 + .ra: .cfa -4 + ^ r4: .cfa -8 + ^
STACK CFI 89894 .cfa: sp 16 +
STACK CFI INIT 898b0 28 .cfa: sp 0 + .ra: lr
STACK CFI 898b8 .cfa: sp 8 + .ra: .cfa -4 + ^ r4: .cfa -8 + ^
STACK CFI 898bc .cfa: sp 16 +
STACK CFI INIT 898d8 28 .cfa: sp 0 + .ra: lr
STACK CFI 898e0 .cfa: sp 8 + .ra: .cfa -4 + ^ r4: .cfa -8 + ^
STACK CFI 898e4 .cfa: sp 16 +
STACK CFI INIT 89900 28 .cfa: sp 0 + .ra: lr
STACK CFI 89908 .cfa: sp 8 + .ra: .cfa -4 + ^ r4: .cfa -8 + ^
STACK CFI 8990c .cfa: sp 16 +
STACK CFI INIT 89928 28 .cfa: sp 0 + .ra: lr
STACK CFI 89930 .cfa: sp 8 + .ra: .cfa -4 + ^ r4: .cfa -8 + ^
STACK CFI 89934 .cfa: sp 16 +
STACK CFI INIT 89950 28 .cfa: sp 0 + .ra: lr
STACK CFI 89958 .cfa: sp 8 + .ra: .cfa -4 + ^ r4: .cfa -8 + ^
STACK CFI 8995c .cfa: sp 16 +
STACK CFI INIT 89978 28 .cfa: sp 0 + .ra: lr
STACK CFI 89980 .cfa: sp 8 + .ra: .cfa -4 + ^ r4: .cfa -8 + ^
STACK CFI 89984 .cfa: sp 16 +
STACK CFI INIT 899a0 28 .cfa: sp 0 + .ra: lr
STACK CFI 899a8 .cfa: sp 8 + .ra: .cfa -4 + ^ r4: .cfa -8 + ^
STACK CFI 899ac .cfa: sp 16 +
STACK CFI INIT 899c8 84 .cfa: sp 0 + .ra: lr
STACK CFI 899d8 .cfa: sp 8 + .ra: .cfa -4 + ^ r4: .cfa -8 + ^
STACK CFI INIT 89a4c 84 .cfa: sp 0 + .ra: lr
STACK CFI 89a5c .cfa: sp 8 + .ra: .cfa -4 + ^ r4: .cfa -8 + ^
STACK CFI INIT 89ad0 74 .cfa: sp 0 + .ra: lr
STACK CFI 89ae0 .cfa: sp 8 + .ra: .cfa -4 + ^ r4: .cfa -8 + ^
STACK CFI INIT 89b44 1c .cfa: sp 0 + .ra: lr
STACK CFI 89b48 .cfa: sp 8 + .ra: .cfa -4 + ^ r4: .cfa -8 + ^
STACK CFI INIT 89b60 1c .cfa: sp 0 + .ra: lr
STACK CFI 89b64 .cfa: sp 8 + .ra: .cfa -4 + ^ r4: .cfa -8 + ^
STACK CFI INIT 89b7c 3c .cfa: sp 0 + .ra: lr
STACK CFI 89b8c .cfa: sp 8 + .ra: .cfa -4 + ^ r4: .cfa -8 + ^
STACK CFI INIT 89bb8 3c .cfa: sp 0 + .ra: lr
STACK CFI 89bc8 .cfa: sp 8 + .ra: .cfa -4 + ^ r4: .cfa -8 + ^
STACK CFI INIT 89bf4 1c .cfa: sp 0 + .ra: lr
STACK CFI 89bf8 .cfa: sp 8 + .ra: .cfa -4 + ^ r4: .cfa -8 + ^
STACK CFI INIT 89c10 3c .cfa: sp 0 + .ra: lr
STACK CFI 89c20 .cfa: sp 8 + .ra: .cfa -4 + ^ r4: .cfa -8 + ^
STACK CFI INIT 89c4c 3c .cfa: sp 0 + .ra: lr
STACK CFI 89c5c .cfa: sp 8 + .ra: .cfa -4 + ^ r4: .cfa -8 + ^
STACK CFI INIT 89c88 1c .cfa: sp 0 + .ra: lr
STACK CFI 89c8c .cfa: sp 8 + .ra: .cfa -4 + ^ r4: .cfa -8 + ^
STACK CFI INIT 89ca4 3c .cfa: sp 0 + .ra: lr
STACK CFI 89cb4 .cfa: sp 8 + .ra: .cfa -4 + ^ r4: .cfa -8 + ^
STACK CFI INIT 89ce0 3c .cfa: sp 0 + .ra: lr
STACK CFI 89cf0 .cfa: sp 8 + .ra: .cfa -4 + ^ r4: .cfa -8 + ^
STACK CFI INIT 89d1c 3c .cfa: sp 0 + .ra: lr
STACK CFI 89d2c .cfa: sp 8 + .ra: .cfa -4 + ^ r4: .cfa -8 + ^
STACK CFI INIT 89d58 3c .cfa: sp 0 + .ra: lr
STACK CFI 89d68 .cfa: sp 8 + .ra: .cfa -4 + ^ r4: .cfa -8 + ^
STACK CFI INIT 89d94 3c .cfa: sp 0 + .ra: lr
STACK CFI 89da4 .cfa: sp 8 + .ra: .cfa -4 + ^ r4: .cfa -8 + ^
STACK CFI INIT 89dd0 3c .cfa: sp 0 + .ra: lr
STACK CFI 89de0 .cfa: sp 8 + .ra: .cfa -4 + ^ r4: .cfa -8 + ^
STACK CFI INIT 89e0c 48 .cfa: sp 0 + .ra: lr
STACK CFI 89e1c .cfa: sp 8 + .ra: .cfa -4 + ^ r4: .cfa -8 + ^
STACK CFI INIT 89e54 34 .cfa: sp 0 + .ra: lr
STACK CFI 89e64 .cfa: sp 8 + .ra: .cfa -4 + ^ r4: .cfa -8 + ^
STACK CFI INIT 89e88 3c .cfa: sp 0 + .ra: lr
STACK CFI 89e98 .cfa: sp 8 + .ra: .cfa -4 + ^ r4: .cfa -8 + ^
STACK CFI INIT 89ec4 34 .cfa: sp 0 + .ra: lr
STACK CFI 89ed4 .cfa: sp 8 + .ra: .cfa -4 + ^ r4: .cfa -8 + ^
STACK CFI INIT 89ef8 3c .cfa: sp 0 + .ra: lr
STACK CFI 89f08 .cfa: sp 8 + .ra: .cfa -4 + ^ r4: .cfa -8 + ^
STACK CFI INIT 89f34 34 .cfa: sp 0 + .ra: lr
STACK CFI 89f44 .cfa: sp 8 + .ra: .cfa -4 + ^ r4: .cfa -8 + ^
STACK CFI INIT 89f68 3c .cfa: sp 0 + .ra: lr
STACK CFI 89f78 .cfa: sp 8 + .ra: .cfa -4 + ^ r4: .cfa -8 + ^
STACK CFI INIT 89fa4 84 .cfa: sp 0 + .ra: lr
STACK CFI 89fa8 .cfa: sp 16 + .ra: .cfa -4 + ^ r3: .cfa -16 + ^ r4: .cfa -12 + ^ r5: .cfa -8 + ^
STACK CFI INIT 8a028 1c .cfa: sp 0 + .ra: lr
STACK CFI 8a02c .cfa: sp 8 + .ra: .cfa -4 + ^ r4: .cfa -8 + ^
STACK CFI INIT 8a044 6c .cfa: sp 0 + .ra: lr
STACK CFI 8a048 .cfa: sp 16 + .ra: .cfa -4 + ^ r3: .cfa -16 + ^ r4: .cfa -12 + ^ r5: .cfa -8 + ^
STACK CFI INIT 8a0b0 1c .cfa: sp 0 + .ra: lr
STACK CFI 8a0b4 .cfa: sp 8 + .ra: .cfa -4 + ^ r4: .cfa -8 + ^
STACK CFI INIT 8a0cc 34 .cfa: sp 0 + .ra: lr
STACK CFI 8a0dc .cfa: sp 8 + .ra: .cfa -4 + ^ r4: .cfa -8 + ^
STACK CFI INIT 8a100 3c .cfa: sp 0 + .ra: lr
STACK CFI 8a110 .cfa: sp 8 + .ra: .cfa -4 + ^ r4: .cfa -8 + ^
STACK CFI INIT 8a13c 14 .cfa: sp 0 + .ra: lr
STACK CFI 8a140 .cfa: sp 8 + .ra: .cfa -4 + ^ r3: .cfa -8 + ^
STACK CFI INIT 8a150 34 .cfa: sp 0 + .ra: lr
STACK CFI 8a160 .cfa: sp 8 + .ra: .cfa -4 + ^ r4: .cfa -8 + ^
STACK CFI INIT 8a184 3c .cfa: sp 0 + .ra: lr
STACK CFI 8a194 .cfa: sp 8 + .ra: .cfa -4 + ^ r4: .cfa -8 + ^
STACK CFI INIT 8a1c0 48 .cfa: sp 0 + .ra: lr
STACK CFI 8a1d0 .cfa: sp 8 + .ra: .cfa -4 + ^ r4: .cfa -8 + ^
STACK CFI INIT 8a208 50 .cfa: sp 0 + .ra: lr
STACK CFI 8a218 .cfa: sp 8 + .ra: .cfa -4 + ^ r4: .cfa -8 + ^
STACK CFI INIT 8a258 50 .cfa: sp 0 + .ra: lr
STACK CFI 8a268 .cfa: sp 8 + .ra: .cfa -4 + ^ r4: .cfa -8 + ^
STACK CFI INIT 8a2a8 1c4 .cfa: sp 0 + .ra: lr
STACK CFI 8a2ac .cfa: sp 36 + .ra: .cfa -4 + ^ r10: .cfa -12 + ^ r11: .cfa -8 + ^ r4: .cfa -36 + ^ r5: .cfa -32 + ^ r6: .cfa -28 + ^ r7: .cfa -24 + ^ r8: .cfa -20 + ^ r9: .cfa -16 + ^
STACK CFI 8a2b0 .cfa: sp 56 +
STACK CFI INIT 8a46c 1dc .cfa: sp 0 + .ra: lr
STACK CFI 8a474 .cfa: sp 36 + .ra: .cfa -4 + ^ r10: .cfa -12 + ^ r11: .cfa -8 + ^ r4: .cfa -36 + ^ r5: .cfa -32 + ^ r6: .cfa -28 + ^ r7: .cfa -24 + ^ r8: .cfa -20 + ^ r9: .cfa -16 + ^
STACK CFI 8a484 .cfa: sp 64 +
STACK CFI INIT 6f12c 60 .cfa: sp 0 + .ra: lr
STACK CFI 6f130 .cfa: sp 4 + r3: .cfa -4 + ^
STACK CFI 6f138 .cfa: sp 24 + .ra: .cfa -8 + ^ r4: .cfa -24 + ^ r5: .cfa -20 + ^ r6: .cfa -16 + ^ r7: .cfa -12 + ^
STACK CFI 6f13c .cfa: sp 32 +
STACK CFI INIT 8a648 58 .cfa: sp 0 + .ra: lr
STACK CFI 8a660 .cfa: sp 8 + .ra: .cfa -4 + ^ r4: .cfa -8 + ^
STACK CFI INIT 8a6a0 58 .cfa: sp 0 + .ra: lr
STACK CFI 8a6b8 .cfa: sp 8 + .ra: .cfa -4 + ^ r4: .cfa -8 + ^
STACK CFI INIT 8a6f8 58 .cfa: sp 0 + .ra: lr
STACK CFI 8a6fc .cfa: sp 8 + .ra: .cfa -4 + ^ r4: .cfa -8 + ^
STACK CFI INIT 8a750 14 .cfa: sp 0 + .ra: lr
STACK CFI 8a754 .cfa: sp 8 + .ra: .cfa -4 + ^ r3: .cfa -8 + ^
STACK CFI INIT 8a764 14 .cfa: sp 0 + .ra: lr
STACK CFI 8a768 .cfa: sp 8 + .ra: .cfa -4 + ^ r3: .cfa -8 + ^
STACK CFI INIT 8a778 1c .cfa: sp 0 + .ra: lr
STACK CFI 8a780 .cfa: sp 8 + .ra: .cfa -4 + ^ r4: .cfa -8 + ^
STACK CFI INIT 8a794 1c .cfa: sp 0 + .ra: lr
STACK CFI 8a79c .cfa: sp 8 + .ra: .cfa -4 + ^ r4: .cfa -8 + ^
STACK CFI INIT 8a7b0 1c .cfa: sp 0 + .ra: lr
STACK CFI 8a7b8 .cfa: sp 8 + .ra: .cfa -4 + ^ r4: .cfa -8 + ^
STACK CFI INIT 8a7cc 1c .cfa: sp 0 + .ra: lr
STACK CFI 8a7d4 .cfa: sp 8 + .ra: .cfa -4 + ^ r4: .cfa -8 + ^
STACK CFI INIT 8a7e8 14 .cfa: sp 0 + .ra: lr
STACK CFI 8a7ec .cfa: sp 8 + .ra: .cfa -4 + ^ r3: .cfa -8 + ^
STACK CFI INIT 8a7fc 1c .cfa: sp 0 + .ra: lr
STACK CFI 8a804 .cfa: sp 4 + .ra: .cfa -4 + ^
STACK CFI 8a80c .cfa: sp 16 +
STACK CFI INIT 8a818 1c .cfa: sp 0 + .ra: lr
STACK CFI 8a820 .cfa: sp 4 + .ra: .cfa -4 + ^
STACK CFI 8a828 .cfa: sp 16 +
STACK CFI INIT 8a834 58 .cfa: sp 0 + .ra: lr
STACK CFI 8a84c .cfa: sp 8 + .ra: .cfa -4 + ^ r4: .cfa -8 + ^
STACK CFI INIT 8a88c 58 .cfa: sp 0 + .ra: lr
STACK CFI 8a8a4 .cfa: sp 8 + .ra: .cfa -4 + ^ r4: .cfa -8 + ^
STACK CFI INIT 8a8e4 58 .cfa: sp 0 + .ra: lr
STACK CFI 8a8e8 .cfa: sp 8 + .ra: .cfa -4 + ^ r4: .cfa -8 + ^
STACK CFI INIT 8a93c 14 .cfa: sp 0 + .ra: lr
STACK CFI 8a940 .cfa: sp 8 + .ra: .cfa -4 + ^ r3: .cfa -8 + ^
STACK CFI INIT 8a950 14 .cfa: sp 0 + .ra: lr
STACK CFI 8a954 .cfa: sp 8 + .ra: .cfa -4 + ^ r3: .cfa -8 + ^
STACK CFI INIT 8a964 1c .cfa: sp 0 + .ra: lr
STACK CFI 8a96c .cfa: sp 8 + .ra: .cfa -4 + ^ r4: .cfa -8 + ^
STACK CFI INIT 8a980 1c .cfa: sp 0 + .ra: lr
STACK CFI 8a988 .cfa: sp 8 + .ra: .cfa -4 + ^ r4: .cfa -8 + ^
STACK CFI INIT 8a99c 1c .cfa: sp 0 + .ra: lr
STACK CFI 8a9a4 .cfa: sp 8 + .ra: .cfa -4 + ^ r4: .cfa -8 + ^
STACK CFI INIT 8a9b8 1c .cfa: sp 0 + .ra: lr
STACK CFI 8a9c0 .cfa: sp 8 + .ra: .cfa -4 + ^ r4: .cfa -8 + ^
STACK CFI INIT 8a9d4 14 .cfa: sp 0 + .ra: lr
STACK CFI 8a9d8 .cfa: sp 8 + .ra: .cfa -4 + ^ r3: .cfa -8 + ^
STACK CFI INIT 8a9e8 1c .cfa: sp 0 + .ra: lr
STACK CFI 8a9f0 .cfa: sp 4 + .ra: .cfa -4 + ^
STACK CFI 8a9f8 .cfa: sp 16 +
STACK CFI INIT 8aa04 1c .cfa: sp 0 + .ra: lr
STACK CFI 8aa0c .cfa: sp 4 + .ra: .cfa -4 + ^
STACK CFI 8aa14 .cfa: sp 16 +
STACK CFI INIT 8aa20 8c .cfa: sp 0 + .ra: lr
STACK CFI INIT 8aaac 8c .cfa: sp 0 + .ra: lr
STACK CFI INIT 8ab38 f8 .cfa: sp 0 + .ra: lr
STACK CFI 8ab3c .cfa: sp 16 + .ra: .cfa -4 + ^ r4: .cfa -16 + ^ r5: .cfa -12 + ^ r6: .cfa -8 + ^
STACK CFI 8ab6c .cfa: sp 24 +
STACK CFI INIT 8ac30 f8 .cfa: sp 0 + .ra: lr
STACK CFI 8ac34 .cfa: sp 16 + .ra: .cfa -4 + ^ r4: .cfa -16 + ^ r5: .cfa -12 + ^ r6: .cfa -8 + ^
STACK CFI 8ac64 .cfa: sp 24 +
STACK CFI INIT 8ad28 30 .cfa: sp 0 + .ra: lr
STACK CFI INIT 8ad58 68 .cfa: sp 0 + .ra: lr
STACK CFI 8ad5c .cfa: sp 24 + .ra: .cfa -4 + ^ r4: .cfa -24 + ^ r5: .cfa -20 + ^ r6: .cfa -16 + ^ r7: .cfa -12 + ^ r8: .cfa -8 + ^
STACK CFI 8ad60 .cfa: sp 56 +
STACK CFI INIT 8adc0 68 .cfa: sp 0 + .ra: lr
STACK CFI 8adc4 .cfa: sp 24 + .ra: .cfa -4 + ^ r4: .cfa -24 + ^ r5: .cfa -20 + ^ r6: .cfa -16 + ^ r7: .cfa -12 + ^ r8: .cfa -8 + ^
STACK CFI 8adc8 .cfa: sp 56 +
STACK CFI INIT 8ae28 30 .cfa: sp 0 + .ra: lr
STACK CFI INIT 8ae58 4c .cfa: sp 0 + .ra: lr
STACK CFI 8ae5c .cfa: sp 20 + .ra: .cfa -4 + ^ r4: .cfa -20 + ^ r5: .cfa -16 + ^ r6: .cfa -12 + ^ r7: .cfa -8 + ^
STACK CFI 8ae60 .cfa: sp 56 +
STACK CFI INIT 8aea4 50 .cfa: sp 0 + .ra: lr
STACK CFI 8aea8 .cfa: sp 20 + .ra: .cfa -4 + ^ r4: .cfa -20 + ^ r5: .cfa -16 + ^ r6: .cfa -12 + ^ r7: .cfa -8 + ^
STACK CFI 8aeb0 .cfa: sp 48 +
STACK CFI INIT 8aef4 54 .cfa: sp 0 + .ra: lr
STACK CFI 8af0c .cfa: sp 8 + .ra: .cfa -4 + ^ r4: .cfa -8 + ^
STACK CFI INIT 8af48 54 .cfa: sp 0 + .ra: lr
STACK CFI 8af60 .cfa: sp 8 + .ra: .cfa -4 + ^ r4: .cfa -8 + ^
STACK CFI INIT 8af9c 54 .cfa: sp 0 + .ra: lr
STACK CFI 8afb4 .cfa: sp 8 + .ra: .cfa -4 + ^ r4: .cfa -8 + ^
STACK CFI INIT 8aff0 14 .cfa: sp 0 + .ra: lr
STACK CFI 8aff4 .cfa: sp 8 + .ra: .cfa -4 + ^ r3: .cfa -8 + ^
STACK CFI INIT 8b004 14 .cfa: sp 0 + .ra: lr
STACK CFI 8b008 .cfa: sp 8 + .ra: .cfa -4 + ^ r3: .cfa -8 + ^
STACK CFI INIT 8b018 1c .cfa: sp 0 + .ra: lr
STACK CFI 8b020 .cfa: sp 8 + .ra: .cfa -4 + ^ r4: .cfa -8 + ^
STACK CFI INIT 8b034 1c .cfa: sp 0 + .ra: lr
STACK CFI 8b03c .cfa: sp 8 + .ra: .cfa -4 + ^ r4: .cfa -8 + ^
STACK CFI INIT 8b050 1c .cfa: sp 0 + .ra: lr
STACK CFI 8b058 .cfa: sp 8 + .ra: .cfa -4 + ^ r4: .cfa -8 + ^
STACK CFI INIT 8b06c 60 .cfa: sp 0 + .ra: lr
STACK CFI INIT 8b0cc f0 .cfa: sp 0 + .ra: lr
STACK CFI 8b0d0 .cfa: sp 16 + .ra: .cfa -4 + ^ r4: .cfa -16 + ^ r5: .cfa -12 + ^ r6: .cfa -8 + ^
STACK CFI 8b0fc .cfa: sp 24 +
STACK CFI INIT 8b1bc 30 .cfa: sp 0 + .ra: lr
STACK CFI INIT 8b1ec 60 .cfa: sp 0 + .ra: lr
STACK CFI 8b1f0 .cfa: sp 20 + .ra: .cfa -4 + ^ r4: .cfa -20 + ^ r5: .cfa -16 + ^ r6: .cfa -12 + ^ r7: .cfa -8 + ^
STACK CFI 8b1f4 .cfa: sp 56 +
STACK CFI INIT 8b24c 60 .cfa: sp 0 + .ra: lr
STACK CFI 8b250 .cfa: sp 20 + .ra: .cfa -4 + ^ r4: .cfa -20 + ^ r5: .cfa -16 + ^ r6: .cfa -12 + ^ r7: .cfa -8 + ^
STACK CFI 8b254 .cfa: sp 56 +
STACK CFI INIT 8b2ac 60 .cfa: sp 0 + .ra: lr
STACK CFI 8b2b0 .cfa: sp 20 + .ra: .cfa -4 + ^ r4: .cfa -20 + ^ r5: .cfa -16 + ^ r6: .cfa -12 + ^ r7: .cfa -8 + ^
STACK CFI 8b2b4 .cfa: sp 56 +
STACK CFI INIT 8b30c 60 .cfa: sp 0 + .ra: lr
STACK CFI 8b310 .cfa: sp 20 + .ra: .cfa -4 + ^ r4: .cfa -20 + ^ r5: .cfa -16 + ^ r6: .cfa -12 + ^ r7: .cfa -8 + ^
STACK CFI 8b314 .cfa: sp 56 +
STACK CFI INIT 8b36c 60 .cfa: sp 0 + .ra: lr
STACK CFI 8b370 .cfa: sp 20 + .ra: .cfa -4 + ^ r4: .cfa -20 + ^ r5: .cfa -16 + ^ r6: .cfa -12 + ^ r7: .cfa -8 + ^
STACK CFI 8b374 .cfa: sp 56 +
STACK CFI INIT 8b3cc 60 .cfa: sp 0 + .ra: lr
STACK CFI 8b3d0 .cfa: sp 20 + .ra: .cfa -4 + ^ r4: .cfa -20 + ^ r5: .cfa -16 + ^ r6: .cfa -12 + ^ r7: .cfa -8 + ^
STACK CFI 8b3d4 .cfa: sp 56 +
STACK CFI INIT 8b42c 60 .cfa: sp 0 + .ra: lr
STACK CFI 8b430 .cfa: sp 20 + .ra: .cfa -4 + ^ r4: .cfa -20 + ^ r5: .cfa -16 + ^ r6: .cfa -12 + ^ r7: .cfa -8 + ^
STACK CFI 8b434 .cfa: sp 56 +
STACK CFI INIT 8b48c 60 .cfa: sp 0 + .ra: lr
STACK CFI 8b490 .cfa: sp 20 + .ra: .cfa -4 + ^ r4: .cfa -20 + ^ r5: .cfa -16 + ^ r6: .cfa -12 + ^ r7: .cfa -8 + ^
STACK CFI 8b494 .cfa: sp 56 +
STACK CFI INIT 8b4ec 60 .cfa: sp 0 + .ra: lr
STACK CFI 8b4f0 .cfa: sp 20 + .ra: .cfa -4 + ^ r4: .cfa -20 + ^ r5: .cfa -16 + ^ r6: .cfa -12 + ^ r7: .cfa -8 + ^
STACK CFI 8b4f4 .cfa: sp 56 +
STACK CFI INIT 8b54c 60 .cfa: sp 0 + .ra: lr
STACK CFI 8b550 .cfa: sp 20 + .ra: .cfa -4 + ^ r4: .cfa -20 + ^ r5: .cfa -16 + ^ r6: .cfa -12 + ^ r7: .cfa -8 + ^
STACK CFI 8b554 .cfa: sp 56 +
STACK CFI INIT 8b5ac 60 .cfa: sp 0 + .ra: lr
STACK CFI 8b5b0 .cfa: sp 20 + .ra: .cfa -4 + ^ r4: .cfa -20 + ^ r5: .cfa -16 + ^ r6: .cfa -12 + ^ r7: .cfa -8 + ^
STACK CFI 8b5b4 .cfa: sp 56 +
STACK CFI INIT 8b60c 30 .cfa: sp 0 + .ra: lr
STACK CFI INIT 8b63c 48 .cfa: sp 0 + .ra: lr
STACK CFI 8b640 .cfa: sp 16 + .ra: .cfa -4 + ^ r4: .cfa -16 + ^ r5: .cfa -12 + ^ r6: .cfa -8 + ^
STACK CFI 8b648 .cfa: sp 40 +
STACK CFI INIT 8b684 48 .cfa: sp 0 + .ra: lr
STACK CFI 8b688 .cfa: sp 16 + .ra: .cfa -4 + ^ r4: .cfa -16 + ^ r5: .cfa -12 + ^ r6: .cfa -8 + ^
STACK CFI 8b690 .cfa: sp 40 +
STACK CFI INIT 8b6cc 48 .cfa: sp 0 + .ra: lr
STACK CFI 8b6d0 .cfa: sp 16 + .ra: .cfa -4 + ^ r4: .cfa -16 + ^ r5: .cfa -12 + ^ r6: .cfa -8 + ^
STACK CFI 8b6d8 .cfa: sp 40 +
STACK CFI INIT 8b714 44 .cfa: sp 0 + .ra: lr
STACK CFI 8b718 .cfa: sp 16 + .ra: .cfa -4 + ^ r4: .cfa -16 + ^ r5: .cfa -12 + ^ r6: .cfa -8 + ^
STACK CFI 8b71c .cfa: sp 40 +
STACK CFI INIT 8b758 44 .cfa: sp 0 + .ra: lr
STACK CFI 8b75c .cfa: sp 16 + .ra: .cfa -4 + ^ r4: .cfa -16 + ^ r5: .cfa -12 + ^ r6: .cfa -8 + ^
STACK CFI 8b760 .cfa: sp 40 +
STACK CFI INIT 8b79c 44 .cfa: sp 0 + .ra: lr
STACK CFI 8b7a0 .cfa: sp 16 + .ra: .cfa -4 + ^ r4: .cfa -16 + ^ r5: .cfa -12 + ^ r6: .cfa -8 + ^
STACK CFI 8b7a4 .cfa: sp 40 +
STACK CFI INIT 8b7e0 44 .cfa: sp 0 + .ra: lr
STACK CFI 8b7e4 .cfa: sp 16 + .ra: .cfa -4 + ^ r4: .cfa -16 + ^ r5: .cfa -12 + ^ r6: .cfa -8 + ^
STACK CFI 8b7e8 .cfa: sp 40 +
STACK CFI INIT 8b824 48 .cfa: sp 0 + .ra: lr
STACK CFI 8b828 .cfa: sp 16 + .ra: .cfa -4 + ^ r4: .cfa -16 + ^ r5: .cfa -12 + ^ r6: .cfa -8 + ^
STACK CFI 8b830 .cfa: sp 40 +
STACK CFI INIT 8b86c 68 .cfa: sp 0 + .ra: lr
STACK CFI 8b870 .cfa: sp 16 + .ra: .cfa -4 + ^ r3: .cfa -16 + ^ r4: .cfa -12 + ^ r5: .cfa -8 + ^
STACK CFI INIT 8b8d4 68 .cfa: sp 0 + .ra: lr
STACK CFI 8b8d8 .cfa: sp 16 + .ra: .cfa -4 + ^ r3: .cfa -16 + ^ r4: .cfa -12 + ^ r5: .cfa -8 + ^
STACK CFI INIT 8b93c dc .cfa: sp 0 + .ra: lr
STACK CFI 8b944 .cfa: sp 24 + .ra: .cfa -4 + ^ r4: .cfa -24 + ^ r5: .cfa -20 + ^ r6: .cfa -16 + ^ r7: .cfa -12 + ^ r8: .cfa -8 + ^
STACK CFI INIT 8ba18 1c .cfa: sp 0 + .ra: lr
STACK CFI INIT 8ba34 1c .cfa: sp 0 + .ra: lr
STACK CFI INIT 8ba50 1c .cfa: sp 0 + .ra: lr
STACK CFI INIT 8ba6c 4 .cfa: sp 0 + .ra: lr
STACK CFI INIT 8ba70 1c .cfa: sp 0 + .ra: lr
STACK CFI INIT 8ba8c 58 .cfa: sp 0 + .ra: lr
STACK CFI INIT 8bae4 58 .cfa: sp 0 + .ra: lr
STACK CFI INIT 8bb3c 94 .cfa: sp 0 + .ra: lr
STACK CFI INIT 8bbd0 94 .cfa: sp 0 + .ra: lr
STACK CFI INIT 8bc64 f8 .cfa: sp 0 + .ra: lr
STACK CFI INIT 8bd5c 30 .cfa: sp 0 + .ra: lr
STACK CFI INIT 8bd8c 58 .cfa: sp 0 + .ra: lr
STACK CFI 8bd90 .cfa: sp 24 + .ra: .cfa -4 + ^ r4: .cfa -24 + ^ r5: .cfa -20 + ^ r6: .cfa -16 + ^ r7: .cfa -12 + ^ r8: .cfa -8 + ^
STACK CFI 8bd98 .cfa: sp 56 +
STACK CFI INIT 8bde4 34 .cfa: sp 0 + .ra: lr
STACK CFI INIT 8be18 30 .cfa: sp 0 + .ra: lr
STACK CFI INIT 8be48 14 .cfa: sp 0 + .ra: lr
STACK CFI 8be4c .cfa: sp 8 + .ra: .cfa -4 + ^ r3: .cfa -8 + ^
STACK CFI INIT 8be5c 60 .cfa: sp 0 + .ra: lr
STACK CFI 8be60 .cfa: sp 20 + .ra: .cfa -4 + ^ r4: .cfa -20 + ^ r5: .cfa -16 + ^ r6: .cfa -12 + ^ r7: .cfa -8 + ^
STACK CFI 8be64 .cfa: sp 56 +
STACK CFI INIT 8bebc 60 .cfa: sp 0 + .ra: lr
STACK CFI 8bec0 .cfa: sp 20 + .ra: .cfa -4 + ^ r4: .cfa -20 + ^ r5: .cfa -16 + ^ r6: .cfa -12 + ^ r7: .cfa -8 + ^
STACK CFI 8bec4 .cfa: sp 56 +
STACK CFI INIT 8bf1c 60 .cfa: sp 0 + .ra: lr
STACK CFI 8bf20 .cfa: sp 20 + .ra: .cfa -4 + ^ r4: .cfa -20 + ^ r5: .cfa -16 + ^ r6: .cfa -12 + ^ r7: .cfa -8 + ^
STACK CFI 8bf24 .cfa: sp 56 +
STACK CFI INIT 8bf7c 60 .cfa: sp 0 + .ra: lr
STACK CFI 8bf80 .cfa: sp 20 + .ra: .cfa -4 + ^ r4: .cfa -20 + ^ r5: .cfa -16 + ^ r6: .cfa -12 + ^ r7: .cfa -8 + ^
STACK CFI 8bf84 .cfa: sp 56 +
STACK CFI INIT 8bfdc 60 .cfa: sp 0 + .ra: lr
STACK CFI 8bfe0 .cfa: sp 20 + .ra: .cfa -4 + ^ r4: .cfa -20 + ^ r5: .cfa -16 + ^ r6: .cfa -12 + ^ r7: .cfa -8 + ^
STACK CFI 8bfe4 .cfa: sp 56 +
STACK CFI INIT 8c03c 34 .cfa: sp 0 + .ra: lr
STACK CFI INIT 8c070 58 .cfa: sp 0 + .ra: lr
STACK CFI 8c088 .cfa: sp 8 + .ra: .cfa -4 + ^ r4: .cfa -8 + ^
STACK CFI INIT 8c0c8 bc .cfa: sp 0 + .ra: lr
STACK CFI 8c0cc .cfa: sp 16 + .ra: .cfa -4 + ^ r4: .cfa -16 + ^ r5: .cfa -12 + ^ r6: .cfa -8 + ^
STACK CFI 8c0e4 .cfa: sp 24 +
STACK CFI INIT 8c184 14 .cfa: sp 0 + .ra: lr
STACK CFI 8c188 .cfa: sp 8 + .ra: .cfa -4 + ^ r3: .cfa -8 + ^
STACK CFI INIT 8c198 38 .cfa: sp 0 + .ra: lr
STACK CFI 8c19c .cfa: sp 16 + .ra: .cfa -4 + ^ r4: .cfa -16 + ^ r5: .cfa -12 + ^ r6: .cfa -8 + ^
STACK CFI INIT 8c1d0 30 .cfa: sp 0 + .ra: lr
STACK CFI 8c1d4 .cfa: sp 8 + .ra: .cfa -4 + ^ r4: .cfa -8 + ^
STACK CFI 8c1d8 .cfa: sp 16 +
STACK CFI INIT 8c200 14 .cfa: sp 0 + .ra: lr
STACK CFI 8c204 .cfa: sp 8 + .ra: .cfa -4 + ^ r3: .cfa -8 + ^
STACK CFI INIT 8c214 8 .cfa: sp 0 + .ra: lr
STACK CFI INIT 8c21c 24 .cfa: sp 0 + .ra: lr
STACK CFI INIT 8c240 10c .cfa: sp 0 + .ra: lr
STACK CFI 8c244 .cfa: sp 24 + .ra: .cfa -4 + ^ r3: .cfa -24 + ^ r4: .cfa -20 + ^ r5: .cfa -16 + ^ r6: .cfa -12 + ^ r7: .cfa -8 + ^
STACK CFI INIT 8c34c a4 .cfa: sp 0 + .ra: lr
STACK CFI 8c350 .cfa: sp 16 + .ra: .cfa -4 + ^ r4: .cfa -16 + ^ r5: .cfa -12 + ^ r6: .cfa -8 + ^
STACK CFI INIT 8c3f0 50 .cfa: sp 0 + .ra: lr
STACK CFI 8c408 .cfa: sp 8 + .ra: .cfa -4 + ^ r4: .cfa -8 + ^
STACK CFI INIT 8c440 54 .cfa: sp 0 + .ra: lr
STACK CFI 8c448 .cfa: sp 8 + .ra: .cfa -4 + ^ r4: .cfa -8 + ^
STACK CFI 8c450 .cfa: sp 16 +
STACK CFI INIT 8c494 24 .cfa: sp 0 + .ra: lr
STACK CFI 8c498 .cfa: sp 4 + .ra: .cfa -4 + ^
STACK CFI 8c4a0 .cfa: sp 16 +
STACK CFI INIT 8c4b8 1c .cfa: sp 0 + .ra: lr
STACK CFI 8c4c0 .cfa: sp 8 + .ra: .cfa -4 + ^ r4: .cfa -8 + ^
STACK CFI INIT 8c4d4 14 .cfa: sp 0 + .ra: lr
STACK CFI 8c4d8 .cfa: sp 8 + .ra: .cfa -4 + ^ r3: .cfa -8 + ^
STACK CFI INIT 8c4e8 d0 .cfa: sp 0 + .ra: lr
STACK CFI 8c4ec .cfa: sp 16 + .ra: .cfa -4 + ^ r4: .cfa -16 + ^ r5: .cfa -12 + ^ r6: .cfa -8 + ^
STACK CFI INIT 8c5b8 74 .cfa: sp 0 + .ra: lr
STACK CFI 8c5bc .cfa: sp 16 + .ra: .cfa -4 + ^ r3: .cfa -16 + ^ r4: .cfa -12 + ^ r5: .cfa -8 + ^
STACK CFI INIT 8c62c 1b8 .cfa: sp 0 + .ra: lr
STACK CFI 8c630 .cfa: sp 36 + .ra: .cfa -4 + ^ r10: .cfa -12 + ^ r11: .cfa -8 + ^ r4: .cfa -36 + ^ r5: .cfa -32 + ^ r6: .cfa -28 + ^ r7: .cfa -24 + ^ r8: .cfa -20 + ^ r9: .cfa -16 + ^
STACK CFI 8c634 .cfa: sp 96 +
STACK CFI INIT 8c7e4 26c .cfa: sp 0 + .ra: lr
STACK CFI 8c7e8 .cfa: sp 36 + .ra: .cfa -4 + ^ r10: .cfa -12 + ^ r11: .cfa -8 + ^ r4: .cfa -36 + ^ r5: .cfa -32 + ^ r6: .cfa -28 + ^ r7: .cfa -24 + ^ r8: .cfa -20 + ^ r9: .cfa -16 + ^
STACK CFI 8c7ec .cfa: sp 56 +
STACK CFI INIT 8ca50 190 .cfa: sp 0 + .ra: lr
STACK CFI 8ca54 .cfa: sp 28 + .ra: .cfa -4 + ^ r4: .cfa -28 + ^ r5: .cfa -24 + ^ r6: .cfa -20 + ^ r7: .cfa -16 + ^ r8: .cfa -12 + ^ r9: .cfa -8 + ^
STACK CFI 8ca58 .cfa: sp 88 +
STACK CFI INIT 8cbe0 74 .cfa: sp 0 + .ra: lr
STACK CFI 8cbe4 .cfa: sp 16 + .ra: .cfa -4 + ^ r3: .cfa -16 + ^ r4: .cfa -12 + ^ r5: .cfa -8 + ^
STACK CFI INIT 8cc54 74 .cfa: sp 0 + .ra: lr
STACK CFI 8cc58 .cfa: sp 16 + .ra: .cfa -4 + ^ r3: .cfa -16 + ^ r4: .cfa -12 + ^ r5: .cfa -8 + ^
STACK CFI INIT 8ccc8 74 .cfa: sp 0 + .ra: lr
STACK CFI 8cccc .cfa: sp 16 + .ra: .cfa -4 + ^ r3: .cfa -16 + ^ r4: .cfa -12 + ^ r5: .cfa -8 + ^
STACK CFI INIT 8cd3c 4fc .cfa: sp 0 + .ra: lr
STACK CFI 8cd44 .cfa: sp 36 + .ra: .cfa -4 + ^ r10: .cfa -12 + ^ r11: .cfa -8 + ^ r4: .cfa -36 + ^ r5: .cfa -32 + ^ r6: .cfa -28 + ^ r7: .cfa -24 + ^ r8: .cfa -20 + ^ r9: .cfa -16 + ^
STACK CFI 8cd4c .cfa: sp 72 +
STACK CFI INIT 8d238 74 .cfa: sp 0 + .ra: lr
STACK CFI 8d23c .cfa: sp 16 + .ra: .cfa -4 + ^ r3: .cfa -16 + ^ r4: .cfa -12 + ^ r5: .cfa -8 + ^
STACK CFI INIT 8d2ac 74 .cfa: sp 0 + .ra: lr
STACK CFI 8d2b0 .cfa: sp 16 + .ra: .cfa -4 + ^ r3: .cfa -16 + ^ r4: .cfa -12 + ^ r5: .cfa -8 + ^
STACK CFI INIT 8d320 74 .cfa: sp 0 + .ra: lr
STACK CFI 8d324 .cfa: sp 16 + .ra: .cfa -4 + ^ r3: .cfa -16 + ^ r4: .cfa -12 + ^ r5: .cfa -8 + ^
STACK CFI INIT 8d394 66c .cfa: sp 0 + .ra: lr
STACK CFI 8d39c .cfa: sp 36 + .ra: .cfa -4 + ^ r10: .cfa -12 + ^ r11: .cfa -8 + ^ r4: .cfa -36 + ^ r5: .cfa -32 + ^ r6: .cfa -28 + ^ r7: .cfa -24 + ^ r8: .cfa -20 + ^ r9: .cfa -16 + ^
STACK CFI 8d3a4 .cfa: sp 96 +
STACK CFI INIT 8da00 74 .cfa: sp 0 + .ra: lr
STACK CFI 8da04 .cfa: sp 16 + .ra: .cfa -4 + ^ r3: .cfa -16 + ^ r4: .cfa -12 + ^ r5: .cfa -8 + ^
STACK CFI INIT 8da74 66c .cfa: sp 0 + .ra: lr
STACK CFI 8da7c .cfa: sp 36 + .ra: .cfa -4 + ^ r10: .cfa -12 + ^ r11: .cfa -8 + ^ r4: .cfa -36 + ^ r5: .cfa -32 + ^ r6: .cfa -28 + ^ r7: .cfa -24 + ^ r8: .cfa -20 + ^ r9: .cfa -16 + ^
STACK CFI 8da84 .cfa: sp 96 +
STACK CFI INIT 8e0e0 74 .cfa: sp 0 + .ra: lr
STACK CFI 8e0e4 .cfa: sp 16 + .ra: .cfa -4 + ^ r3: .cfa -16 + ^ r4: .cfa -12 + ^ r5: .cfa -8 + ^
STACK CFI INIT 8e154 74 .cfa: sp 0 + .ra: lr
STACK CFI 8e158 .cfa: sp 16 + .ra: .cfa -4 + ^ r3: .cfa -16 + ^ r4: .cfa -12 + ^ r5: .cfa -8 + ^
STACK CFI INIT 8e1c8 74 .cfa: sp 0 + .ra: lr
STACK CFI 8e1cc .cfa: sp 16 + .ra: .cfa -4 + ^ r3: .cfa -16 + ^ r4: .cfa -12 + ^ r5: .cfa -8 + ^
STACK CFI INIT 8e23c e0 .cfa: sp 0 + .ra: lr
STACK CFI 8e240 .cfa: sp 28 + .ra: .cfa -4 + ^ r4: .cfa -28 + ^ r5: .cfa -24 + ^ r6: .cfa -20 + ^ r7: .cfa -16 + ^ r8: .cfa -12 + ^ r9: .cfa -8 + ^
STACK CFI 8e244 .cfa: sp 576 +
STACK CFI INIT 8e31c 74 .cfa: sp 0 + .ra: lr
STACK CFI 8e320 .cfa: sp 16 + .ra: .cfa -4 + ^ r3: .cfa -16 + ^ r4: .cfa -12 + ^ r5: .cfa -8 + ^
STACK CFI INIT 8e390 74 .cfa: sp 0 + .ra: lr
STACK CFI 8e394 .cfa: sp 16 + .ra: .cfa -4 + ^ r3: .cfa -16 + ^ r4: .cfa -12 + ^ r5: .cfa -8 + ^
STACK CFI INIT 8e404 74 .cfa: sp 0 + .ra: lr
STACK CFI 8e408 .cfa: sp 16 + .ra: .cfa -4 + ^ r3: .cfa -16 + ^ r4: .cfa -12 + ^ r5: .cfa -8 + ^
STACK CFI INIT 8e478 78 .cfa: sp 0 + .ra: lr
STACK CFI 8e47c .cfa: sp 16 + .ra: .cfa -4 + ^ r3: .cfa -16 + ^ r4: .cfa -12 + ^ r5: .cfa -8 + ^
STACK CFI INIT 8e4f0 78 .cfa: sp 0 + .ra: lr
STACK CFI 8e4f4 .cfa: sp 16 + .ra: .cfa -4 + ^ r3: .cfa -16 + ^ r4: .cfa -12 + ^ r5: .cfa -8 + ^
STACK CFI INIT 8e568 78 .cfa: sp 0 + .ra: lr
STACK CFI 8e56c .cfa: sp 16 + .ra: .cfa -4 + ^ r3: .cfa -16 + ^ r4: .cfa -12 + ^ r5: .cfa -8 + ^
STACK CFI INIT 8e5e0 78 .cfa: sp 0 + .ra: lr
STACK CFI 8e5e4 .cfa: sp 16 + .ra: .cfa -4 + ^ r3: .cfa -16 + ^ r4: .cfa -12 + ^ r5: .cfa -8 + ^
STACK CFI INIT 8e658 78 .cfa: sp 0 + .ra: lr
STACK CFI 8e65c .cfa: sp 16 + .ra: .cfa -4 + ^ r3: .cfa -16 + ^ r4: .cfa -12 + ^ r5: .cfa -8 + ^
STACK CFI INIT 8e6d0 78 .cfa: sp 0 + .ra: lr
STACK CFI 8e6d4 .cfa: sp 16 + .ra: .cfa -4 + ^ r3: .cfa -16 + ^ r4: .cfa -12 + ^ r5: .cfa -8 + ^
STACK CFI INIT 8e748 78 .cfa: sp 0 + .ra: lr
STACK CFI 8e74c .cfa: sp 16 + .ra: .cfa -4 + ^ r3: .cfa -16 + ^ r4: .cfa -12 + ^ r5: .cfa -8 + ^
STACK CFI INIT 8e7c0 78 .cfa: sp 0 + .ra: lr
STACK CFI 8e7c4 .cfa: sp 16 + .ra: .cfa -4 + ^ r3: .cfa -16 + ^ r4: .cfa -12 + ^ r5: .cfa -8 + ^
STACK CFI INIT 8e838 78 .cfa: sp 0 + .ra: lr
STACK CFI 8e83c .cfa: sp 16 + .ra: .cfa -4 + ^ r3: .cfa -16 + ^ r4: .cfa -12 + ^ r5: .cfa -8 + ^
STACK CFI INIT 8e8b0 78 .cfa: sp 0 + .ra: lr
STACK CFI 8e8b4 .cfa: sp 16 + .ra: .cfa -4 + ^ r3: .cfa -16 + ^ r4: .cfa -12 + ^ r5: .cfa -8 + ^
STACK CFI INIT 8e928 78 .cfa: sp 0 + .ra: lr
STACK CFI 8e92c .cfa: sp 16 + .ra: .cfa -4 + ^ r3: .cfa -16 + ^ r4: .cfa -12 + ^ r5: .cfa -8 + ^
STACK CFI INIT 8e9a0 78 .cfa: sp 0 + .ra: lr
STACK CFI 8e9a4 .cfa: sp 16 + .ra: .cfa -4 + ^ r3: .cfa -16 + ^ r4: .cfa -12 + ^ r5: .cfa -8 + ^
STACK CFI INIT 8ea18 78 .cfa: sp 0 + .ra: lr
STACK CFI 8ea1c .cfa: sp 16 + .ra: .cfa -4 + ^ r3: .cfa -16 + ^ r4: .cfa -12 + ^ r5: .cfa -8 + ^
STACK CFI INIT 8ea90 150 .cfa: sp 0 + .ra: lr
STACK CFI 8ea94 .cfa: sp 24 + r4: .cfa -24 + ^ r5: .cfa -20 + ^ r6: .cfa -16 + ^ r7: .cfa -12 + ^ r8: .cfa -8 + ^ r9: .cfa -4 + ^
STACK CFI INIT 8ebe0 b8 .cfa: sp 0 + .ra: lr
STACK CFI 8ebe4 .cfa: sp 24 + .ra: .cfa -4 + ^ r4: .cfa -24 + ^ r5: .cfa -20 + ^ r6: .cfa -16 + ^ r7: .cfa -12 + ^ r8: .cfa -8 + ^
STACK CFI 8ebe8 .cfa: sp 32 +
STACK CFI INIT 8ec98 50 .cfa: sp 0 + .ra: lr
STACK CFI 8ec9c .cfa: sp 12 + .ra: .cfa -4 + ^ r4: .cfa -12 + ^ r5: .cfa -8 + ^
STACK CFI 8eca0 .cfa: sp 24 +
STACK CFI INIT 8ece8 6d4 .cfa: sp 0 + .ra: lr
STACK CFI 8ecec .cfa: sp 36 + .ra: .cfa -4 + ^ r10: .cfa -12 + ^ r11: .cfa -8 + ^ r4: .cfa -36 + ^ r5: .cfa -32 + ^ r6: .cfa -28 + ^ r7: .cfa -24 + ^ r8: .cfa -20 + ^ r9: .cfa -16 + ^
STACK CFI 8ecf0 .cfa: sp 120 +
STACK CFI INIT 8f3bc 6d4 .cfa: sp 0 + .ra: lr
STACK CFI 8f3c0 .cfa: sp 36 + .ra: .cfa -4 + ^ r10: .cfa -12 + ^ r11: .cfa -8 + ^ r4: .cfa -36 + ^ r5: .cfa -32 + ^ r6: .cfa -28 + ^ r7: .cfa -24 + ^ r8: .cfa -20 + ^ r9: .cfa -16 + ^
STACK CFI 8f3c4 .cfa: sp 120 +
STACK CFI INIT 8fa90 234 .cfa: sp 0 + .ra: lr
STACK CFI 8fa94 .cfa: sp 36 + .ra: .cfa -4 + ^ r10: .cfa -12 + ^ r11: .cfa -8 + ^ r4: .cfa -36 + ^ r5: .cfa -32 + ^ r6: .cfa -28 + ^ r7: .cfa -24 + ^ r8: .cfa -20 + ^ r9: .cfa -16 + ^
STACK CFI 8fa98 .cfa: r11 4 +
STACK CFI INIT 8fcc4 58 .cfa: sp 0 + .ra: lr
STACK CFI 8fcc8 .cfa: sp 8 + .ra: .cfa -4 + ^ r4: .cfa -8 + ^
STACK CFI 8fccc .cfa: sp 32 +
STACK CFI INIT 8fd1c 164 .cfa: sp 0 + .ra: lr
STACK CFI 8fd24 .cfa: sp 32 + .ra: .cfa -4 + ^ r10: .cfa -8 + ^ r4: .cfa -32 + ^ r5: .cfa -28 + ^ r6: .cfa -24 + ^ r7: .cfa -20 + ^ r8: .cfa -16 + ^ r9: .cfa -12 + ^
STACK CFI INIT 8fe80 38 .cfa: sp 0 + .ra: lr
STACK CFI 8fe84 .cfa: sp 12 + .ra: .cfa -4 + ^ r4: .cfa -12 + ^ r5: .cfa -8 + ^
STACK CFI 8fe88 .cfa: sp 24 +
STACK CFI INIT 8feb8 b4 .cfa: sp 0 + .ra: lr
STACK CFI 8febc .cfa: sp 12 + r4: .cfa -12 + ^ r5: .cfa -8 + ^ r6: .cfa -4 + ^
STACK CFI INIT 8ff6c 2c0 .cfa: sp 0 + .ra: lr
STACK CFI 8ff70 .cfa: sp 36 + .ra: .cfa -4 + ^ r10: .cfa -12 + ^ r11: .cfa -8 + ^ r4: .cfa -36 + ^ r5: .cfa -32 + ^ r6: .cfa -28 + ^ r7: .cfa -24 + ^ r8: .cfa -20 + ^ r9: .cfa -16 + ^
STACK CFI 8ff78 .cfa: r11 4 +
STACK CFI INIT 9022c 3c .cfa: sp 0 + .ra: lr
STACK CFI 90230 .cfa: sp 12 + .ra: .cfa -4 + ^ r4: .cfa -12 + ^ r5: .cfa -8 + ^
STACK CFI 90234 .cfa: sp 40 +
STACK CFI INIT 90268 74 .cfa: sp 0 + .ra: lr
STACK CFI 9026c .cfa: sp 24 + .ra: .cfa -4 + ^ r4: .cfa -24 + ^ r5: .cfa -20 + ^ r6: .cfa -16 + ^ r7: .cfa -12 + ^ r8: .cfa -8 + ^
STACK CFI 90270 .cfa: sp 56 +
STACK CFI INIT 902dc 108 .cfa: sp 0 + .ra: lr
STACK CFI 902e0 .cfa: sp 32 + .ra: .cfa -4 + ^ r3: .cfa -32 + ^ r4: .cfa -28 + ^ r5: .cfa -24 + ^ r6: .cfa -20 + ^ r7: .cfa -16 + ^ r8: .cfa -12 + ^ r9: .cfa -8 + ^
STACK CFI INIT 903e4 2cc .cfa: sp 0 + .ra: lr
STACK CFI 903e8 .cfa: sp 36 + .ra: .cfa -4 + ^ r10: .cfa -12 + ^ r11: .cfa -8 + ^ r4: .cfa -36 + ^ r5: .cfa -32 + ^ r6: .cfa -28 + ^ r7: .cfa -24 + ^ r8: .cfa -20 + ^ r9: .cfa -16 + ^
STACK CFI 903f0 .cfa: r11 4 +
STACK CFI INIT 906b0 3c .cfa: sp 0 + .ra: lr
STACK CFI 906b4 .cfa: sp 16 + .ra: .cfa -4 + ^ r4: .cfa -16 + ^ r5: .cfa -12 + ^ r6: .cfa -8 + ^
STACK CFI 906b8 .cfa: sp 40 +
STACK CFI INIT 906ec 100 .cfa: sp 0 + .ra: lr
STACK CFI 906f0 .cfa: sp 24 + .ra: .cfa -4 + ^ r4: .cfa -24 + ^ r5: .cfa -20 + ^ r6: .cfa -16 + ^ r7: .cfa -12 + ^ r8: .cfa -8 + ^
STACK CFI INIT 0 4c .cfa: sp 0 + .ra: lr
STACK CFI 4 .cfa: sp 8 + .ra: .cfa -4 + ^ r4: .cfa -8 + ^
STACK CFI INIT 907ec 100 .cfa: sp 0 + .ra: lr
STACK CFI 907f0 .cfa: sp 24 + .ra: .cfa -4 + ^ r4: .cfa -24 + ^ r5: .cfa -20 + ^ r6: .cfa -16 + ^ r7: .cfa -12 + ^ r8: .cfa -8 + ^
STACK CFI INIT 908ec d4 .cfa: sp 0 + .ra: lr
STACK CFI 908f0 .cfa: sp 24 + .ra: .cfa -4 + ^ r4: .cfa -24 + ^ r5: .cfa -20 + ^ r6: .cfa -16 + ^ r7: .cfa -12 + ^ r8: .cfa -8 + ^
STACK CFI INIT 909c0 224 .cfa: sp 0 + .ra: lr
STACK CFI 909c4 .cfa: sp 36 + .ra: .cfa -4 + ^ r10: .cfa -12 + ^ r11: .cfa -8 + ^ r4: .cfa -36 + ^ r5: .cfa -32 + ^ r6: .cfa -28 + ^ r7: .cfa -24 + ^ r8: .cfa -20 + ^ r9: .cfa -16 + ^
STACK CFI 909c8 .cfa: r11 4 +
STACK CFI INIT 90be4 3c .cfa: sp 0 + .ra: lr
STACK CFI 90be8 .cfa: sp 12 + .ra: .cfa -4 + ^ r4: .cfa -12 + ^ r5: .cfa -8 + ^
STACK CFI 90bec .cfa: sp 40 +
STACK CFI INIT 90c20 1dc .cfa: sp 0 + .ra: lr
STACK CFI 90c24 .cfa: sp 36 + .ra: .cfa -4 + ^ r10: .cfa -12 + ^ r11: .cfa -8 + ^ r4: .cfa -36 + ^ r5: .cfa -32 + ^ r6: .cfa -28 + ^ r7: .cfa -24 + ^ r8: .cfa -20 + ^ r9: .cfa -16 + ^
STACK CFI 90c28 .cfa: r11 4 +
STACK CFI INIT 90dfc 258 .cfa: sp 0 + .ra: lr
STACK CFI 90e00 .cfa: sp 36 + .ra: .cfa -4 + ^ r10: .cfa -12 + ^ r11: .cfa -8 + ^ r4: .cfa -36 + ^ r5: .cfa -32 + ^ r6: .cfa -28 + ^ r7: .cfa -24 + ^ r8: .cfa -20 + ^ r9: .cfa -16 + ^
STACK CFI 90e04 .cfa: r11 4 +
STACK CFI INIT 91054 3c .cfa: sp 0 + .ra: lr
STACK CFI 91058 .cfa: sp 16 + .ra: .cfa -4 + ^ r4: .cfa -16 + ^ r5: .cfa -12 + ^ r6: .cfa -8 + ^
STACK CFI 9105c .cfa: sp 40 +
STACK CFI INIT 91090 2b8 .cfa: sp 0 + .ra: lr
STACK CFI 91094 .cfa: sp 36 + .ra: .cfa -4 + ^ r10: .cfa -12 + ^ r11: .cfa -8 + ^ r4: .cfa -36 + ^ r5: .cfa -32 + ^ r6: .cfa -28 + ^ r7: .cfa -24 + ^ r8: .cfa -20 + ^ r9: .cfa -16 + ^
STACK CFI 91098 .cfa: r11 4 +
STACK CFI INIT 91348 44 .cfa: sp 0 + .ra: lr
STACK CFI 9134c .cfa: sp 20 + .ra: .cfa -4 + ^ r4: .cfa -20 + ^ r5: .cfa -16 + ^ r6: .cfa -12 + ^ r7: .cfa -8 + ^
STACK CFI 91350 .cfa: sp 56 +
STACK CFI INIT 9138c 2b8 .cfa: sp 0 + .ra: lr
STACK CFI 91390 .cfa: sp 36 + .ra: .cfa -4 + ^ r10: .cfa -12 + ^ r11: .cfa -8 + ^ r4: .cfa -36 + ^ r5: .cfa -32 + ^ r6: .cfa -28 + ^ r7: .cfa -24 + ^ r8: .cfa -20 + ^ r9: .cfa -16 + ^
STACK CFI 91394 .cfa: r11 4 +
STACK CFI INIT 91644 44 .cfa: sp 0 + .ra: lr
STACK CFI 91648 .cfa: sp 20 + .ra: .cfa -4 + ^ r4: .cfa -20 + ^ r5: .cfa -16 + ^ r6: .cfa -12 + ^ r7: .cfa -8 + ^
STACK CFI 9164c .cfa: sp 56 +
STACK CFI INIT 91688 6c .cfa: sp 0 + .ra: lr
STACK CFI 9168c .cfa: sp 8 + .ra: .cfa -4 + ^ r4: .cfa -8 + ^
STACK CFI INIT 916f4 f0 .cfa: sp 0 + .ra: lr
STACK CFI 916f8 .cfa: sp 8 + .ra: .cfa -4 + ^ r4: .cfa -8 + ^
STACK CFI 91704 .cfa: sp 16 +
STACK CFI INIT 917e4 2dc .cfa: sp 0 + .ra: lr
STACK CFI 917e8 .cfa: sp 36 + .ra: .cfa -4 + ^ r10: .cfa -12 + ^ r11: .cfa -8 + ^ r4: .cfa -36 + ^ r5: .cfa -32 + ^ r6: .cfa -28 + ^ r7: .cfa -24 + ^ r8: .cfa -20 + ^ r9: .cfa -16 + ^
STACK CFI 917ec .cfa: r11 4 +
STACK CFI INIT 91ac0 390 .cfa: sp 0 + .ra: lr
STACK CFI 91ac4 .cfa: sp 36 + .ra: .cfa -4 + ^ r10: .cfa -12 + ^ r11: .cfa -8 + ^ r4: .cfa -36 + ^ r5: .cfa -32 + ^ r6: .cfa -28 + ^ r7: .cfa -24 + ^ r8: .cfa -20 + ^ r9: .cfa -16 + ^
STACK CFI 91ac8 .cfa: r11 4 +
STACK CFI INIT 91e50 220 .cfa: sp 0 + .ra: lr
STACK CFI 91e54 .cfa: sp 32 + .ra: .cfa -4 + ^ r10: .cfa -8 + ^ r4: .cfa -32 + ^ r5: .cfa -28 + ^ r6: .cfa -24 + ^ r7: .cfa -20 + ^ r8: .cfa -16 + ^ r9: .cfa -12 + ^
STACK CFI 91e58 .cfa: sp 144 +
STACK CFI INIT 92070 298 .cfa: sp 0 + .ra: lr
STACK CFI 92074 .cfa: sp 32 + .ra: .cfa -4 + ^ r10: .cfa -8 + ^ r4: .cfa -32 + ^ r5: .cfa -28 + ^ r6: .cfa -24 + ^ r7: .cfa -20 + ^ r8: .cfa -16 + ^ r9: .cfa -12 + ^
STACK CFI 92078 .cfa: sp 184 +
STACK CFI INIT 92308 c48 .cfa: sp 0 + .ra: lr
STACK CFI 9230c .cfa: sp 36 + .ra: .cfa -4 + ^ r10: .cfa -12 + ^ r11: .cfa -8 + ^ r4: .cfa -36 + ^ r5: .cfa -32 + ^ r6: .cfa -28 + ^ r7: .cfa -24 + ^ r8: .cfa -20 + ^ r9: .cfa -16 + ^
STACK CFI 92310 .cfa: sp 192 +
STACK CFI INIT 92f50 144 .cfa: sp 0 + .ra: lr
STACK CFI 92f54 .cfa: sp 28 + .ra: .cfa -4 + ^ r4: .cfa -28 + ^ r5: .cfa -24 + ^ r6: .cfa -20 + ^ r7: .cfa -16 + ^ r8: .cfa -12 + ^ r9: .cfa -8 + ^
STACK CFI 92f58 .cfa: sp 72 +
STACK CFI INIT 93094 144 .cfa: sp 0 + .ra: lr
STACK CFI 93098 .cfa: sp 28 + .ra: .cfa -4 + ^ r4: .cfa -28 + ^ r5: .cfa -24 + ^ r6: .cfa -20 + ^ r7: .cfa -16 + ^ r8: .cfa -12 + ^ r9: .cfa -8 + ^
STACK CFI 9309c .cfa: sp 72 +
STACK CFI INIT 931d8 b8c .cfa: sp 0 + .ra: lr
STACK CFI 931dc .cfa: sp 36 + .ra: .cfa -4 + ^ r10: .cfa -12 + ^ r11: .cfa -8 + ^ r4: .cfa -36 + ^ r5: .cfa -32 + ^ r6: .cfa -28 + ^ r7: .cfa -24 + ^ r8: .cfa -20 + ^ r9: .cfa -16 + ^
STACK CFI 931e0 .cfa: sp 144 +
STACK CFI INIT 93d64 b8c .cfa: sp 0 + .ra: lr
STACK CFI 93d68 .cfa: sp 36 + .ra: .cfa -4 + ^ r10: .cfa -12 + ^ r11: .cfa -8 + ^ r4: .cfa -36 + ^ r5: .cfa -32 + ^ r6: .cfa -28 + ^ r7: .cfa -24 + ^ r8: .cfa -20 + ^ r9: .cfa -16 + ^
STACK CFI 93d6c .cfa: sp 144 +
STACK CFI INIT 948f0 130 .cfa: sp 0 + .ra: lr
STACK CFI 948f4 .cfa: sp 36 + .ra: .cfa -4 + ^ r10: .cfa -12 + ^ r11: .cfa -8 + ^ r4: .cfa -36 + ^ r5: .cfa -32 + ^ r6: .cfa -28 + ^ r7: .cfa -24 + ^ r8: .cfa -20 + ^ r9: .cfa -16 + ^
STACK CFI 948fc .cfa: sp 88 +
STACK CFI INIT 94a20 180 .cfa: sp 0 + .ra: lr
STACK CFI 94a24 .cfa: sp 36 + .ra: .cfa -4 + ^ r10: .cfa -12 + ^ r11: .cfa -8 + ^ r4: .cfa -36 + ^ r5: .cfa -32 + ^ r6: .cfa -28 + ^ r7: .cfa -24 + ^ r8: .cfa -20 + ^ r9: .cfa -16 + ^
STACK CFI 94a28 .cfa: sp 96 +
STACK CFI INIT 94ba0 924 .cfa: sp 0 + .ra: lr
STACK CFI 94ba4 .cfa: sp 36 + .ra: .cfa -4 + ^ r10: .cfa -12 + ^ r11: .cfa -8 + ^ r4: .cfa -36 + ^ r5: .cfa -32 + ^ r6: .cfa -28 + ^ r7: .cfa -24 + ^ r8: .cfa -20 + ^ r9: .cfa -16 + ^
STACK CFI 94ba8 .cfa: sp 88 +
STACK CFI INIT 954c4 210 .cfa: sp 0 + .ra: lr
STACK CFI 954c8 .cfa: sp 36 + .ra: .cfa -4 + ^ r10: .cfa -12 + ^ r11: .cfa -8 + ^ r4: .cfa -36 + ^ r5: .cfa -32 + ^ r6: .cfa -28 + ^ r7: .cfa -24 + ^ r8: .cfa -20 + ^ r9: .cfa -16 + ^
STACK CFI 954d0 .cfa: sp 96 +
STACK CFI INIT 956d4 210 .cfa: sp 0 + .ra: lr
STACK CFI 956d8 .cfa: sp 36 + .ra: .cfa -4 + ^ r10: .cfa -12 + ^ r11: .cfa -8 + ^ r4: .cfa -36 + ^ r5: .cfa -32 + ^ r6: .cfa -28 + ^ r7: .cfa -24 + ^ r8: .cfa -20 + ^ r9: .cfa -16 + ^
STACK CFI 956e0 .cfa: sp 96 +
STACK CFI INIT 958e4 210 .cfa: sp 0 + .ra: lr
STACK CFI 958e8 .cfa: sp 36 + .ra: .cfa -4 + ^ r10: .cfa -12 + ^ r11: .cfa -8 + ^ r4: .cfa -36 + ^ r5: .cfa -32 + ^ r6: .cfa -28 + ^ r7: .cfa -24 + ^ r8: .cfa -20 + ^ r9: .cfa -16 + ^
STACK CFI 958f0 .cfa: sp 96 +
STACK CFI INIT 95af4 89c .cfa: sp 0 + .ra: lr
STACK CFI 95af8 .cfa: sp 36 + .ra: .cfa -4 + ^ r10: .cfa -12 + ^ r11: .cfa -8 + ^ r4: .cfa -36 + ^ r5: .cfa -32 + ^ r6: .cfa -28 + ^ r7: .cfa -24 + ^ r8: .cfa -20 + ^ r9: .cfa -16 + ^
STACK CFI 95afc .cfa: sp 104 +
STACK CFI INIT 96390 58 .cfa: sp 0 + .ra: lr
STACK CFI 96394 .cfa: sp 20 + .ra: .cfa -4 + ^ r4: .cfa -20 + ^ r5: .cfa -16 + ^ r6: .cfa -12 + ^ r7: .cfa -8 + ^
STACK CFI 96398 .cfa: sp 56 +
STACK CFI INIT 963e8 460 .cfa: sp 0 + .ra: lr
STACK CFI 963ec .cfa: sp 36 + .ra: .cfa -4 + ^ r10: .cfa -12 + ^ r11: .cfa -8 + ^ r4: .cfa -36 + ^ r5: .cfa -32 + ^ r6: .cfa -28 + ^ r7: .cfa -24 + ^ r8: .cfa -20 + ^ r9: .cfa -16 + ^
STACK CFI 963f0 .cfa: sp 104 +
STACK CFI INIT 96848 8a8 .cfa: sp 0 + .ra: lr
STACK CFI 9684c .cfa: sp 36 + .ra: .cfa -4 + ^ r10: .cfa -12 + ^ r11: .cfa -8 + ^ r4: .cfa -36 + ^ r5: .cfa -32 + ^ r6: .cfa -28 + ^ r7: .cfa -24 + ^ r8: .cfa -20 + ^ r9: .cfa -16 + ^
STACK CFI 96850 .cfa: sp 96 +
STACK CFI INIT 970f0 58 .cfa: sp 0 + .ra: lr
STACK CFI 970f4 .cfa: sp 20 + .ra: .cfa -4 + ^ r4: .cfa -20 + ^ r5: .cfa -16 + ^ r6: .cfa -12 + ^ r7: .cfa -8 + ^
STACK CFI 970f8 .cfa: sp 56 +
STACK CFI INIT 97148 854 .cfa: sp 0 + .ra: lr
STACK CFI 9714c .cfa: sp 36 + .ra: .cfa -4 + ^ r10: .cfa -12 + ^ r11: .cfa -8 + ^ r4: .cfa -36 + ^ r5: .cfa -32 + ^ r6: .cfa -28 + ^ r7: .cfa -24 + ^ r8: .cfa -20 + ^ r9: .cfa -16 + ^
STACK CFI 97150 .cfa: sp 96 +
STACK CFI INIT 9799c 58 .cfa: sp 0 + .ra: lr
STACK CFI 979a0 .cfa: sp 20 + .ra: .cfa -4 + ^ r4: .cfa -20 + ^ r5: .cfa -16 + ^ r6: .cfa -12 + ^ r7: .cfa -8 + ^
STACK CFI 979a4 .cfa: sp 56 +
STACK CFI INIT 979f4 854 .cfa: sp 0 + .ra: lr
STACK CFI 979f8 .cfa: sp 36 + .ra: .cfa -4 + ^ r10: .cfa -12 + ^ r11: .cfa -8 + ^ r4: .cfa -36 + ^ r5: .cfa -32 + ^ r6: .cfa -28 + ^ r7: .cfa -24 + ^ r8: .cfa -20 + ^ r9: .cfa -16 + ^
STACK CFI 979fc .cfa: sp 96 +
STACK CFI INIT 98248 58 .cfa: sp 0 + .ra: lr
STACK CFI 9824c .cfa: sp 20 + .ra: .cfa -4 + ^ r4: .cfa -20 + ^ r5: .cfa -16 + ^ r6: .cfa -12 + ^ r7: .cfa -8 + ^
STACK CFI 98250 .cfa: sp 56 +
STACK CFI INIT 982a0 88 .cfa: sp 0 + .ra: lr
STACK CFI 982a4 .cfa: sp 28 + .ra: .cfa -4 + ^ r4: .cfa -28 + ^ r5: .cfa -24 + ^ r6: .cfa -20 + ^ r7: .cfa -16 + ^ r8: .cfa -12 + ^ r9: .cfa -8 + ^
STACK CFI 982a8 .cfa: sp 80 +
STACK CFI INIT 98328 8fc .cfa: sp 0 + .ra: lr
STACK CFI 9832c .cfa: sp 36 + .ra: .cfa -4 + ^ r10: .cfa -12 + ^ r11: .cfa -8 + ^ r4: .cfa -36 + ^ r5: .cfa -32 + ^ r6: .cfa -28 + ^ r7: .cfa -24 + ^ r8: .cfa -20 + ^ r9: .cfa -16 + ^
STACK CFI 98330 .cfa: sp 120 +
STACK CFI INIT 98c24 58 .cfa: sp 0 + .ra: lr
STACK CFI 98c28 .cfa: sp 20 + .ra: .cfa -4 + ^ r4: .cfa -20 + ^ r5: .cfa -16 + ^ r6: .cfa -12 + ^ r7: .cfa -8 + ^
STACK CFI 98c2c .cfa: sp 56 +
STACK CFI INIT 98c7c 8e4 .cfa: sp 0 + .ra: lr
STACK CFI 98c80 .cfa: sp 36 + .ra: .cfa -4 + ^ r10: .cfa -12 + ^ r11: .cfa -8 + ^ r4: .cfa -36 + ^ r5: .cfa -32 + ^ r6: .cfa -28 + ^ r7: .cfa -24 + ^ r8: .cfa -20 + ^ r9: .cfa -16 + ^
STACK CFI 98c84 .cfa: sp 112 +
STACK CFI INIT 99560 58 .cfa: sp 0 + .ra: lr
STACK CFI 99564 .cfa: sp 20 + .ra: .cfa -4 + ^ r4: .cfa -20 + ^ r5: .cfa -16 + ^ r6: .cfa -12 + ^ r7: .cfa -8 + ^
STACK CFI 99568 .cfa: sp 56 +
STACK CFI INIT 460b4 160 .cfa: sp 0 + .ra: lr
STACK CFI INIT 995b8 10 .cfa: sp 0 + .ra: lr
STACK CFI INIT 995c8 20 .cfa: sp 0 + .ra: lr
STACK CFI 995d4 .cfa: sp 8 + .ra: .cfa -4 + ^ r3: .cfa -8 + ^
STACK CFI INIT 46214 18c .cfa: sp 0 + .ra: lr
STACK CFI 4621c .cfa: sp 32 + r10: .cfa -8 + ^ r11: .cfa -4 + ^ r4: .cfa -32 + ^ r5: .cfa -28 + ^ r6: .cfa -24 + ^ r7: .cfa -20 + ^ r8: .cfa -16 + ^ r9: .cfa -12 + ^
STACK CFI INIT 995e8 44 .cfa: sp 0 + .ra: lr
STACK CFI 995ec .cfa: sp 8 + .ra: .cfa -4 + ^ r4: .cfa -8 + ^
STACK CFI 995f0 .cfa: sp 16 +
STACK CFI INIT 9962c 44 .cfa: sp 0 + .ra: lr
STACK CFI 99630 .cfa: sp 8 + .ra: .cfa -4 + ^ r4: .cfa -8 + ^
STACK CFI 99634 .cfa: sp 16 +
STACK CFI INIT 99670 30 .cfa: sp 0 + .ra: lr
STACK CFI INIT 996a0 14 .cfa: sp 0 + .ra: lr
STACK CFI 996a4 .cfa: sp 8 + .ra: .cfa -4 + ^ r4: .cfa -8 + ^
STACK CFI INIT 996b4 18 .cfa: sp 0 + .ra: lr
STACK CFI 996b8 .cfa: sp 8 + .ra: .cfa -4 + ^ r3: .cfa -8 + ^
STACK CFI INIT 996cc 14 .cfa: sp 0 + .ra: lr
STACK CFI 996d0 .cfa: sp 8 + .ra: .cfa -4 + ^ r3: .cfa -8 + ^
STACK CFI INIT 996e0 14 .cfa: sp 0 + .ra: lr
STACK CFI 996e4 .cfa: sp 8 + .ra: .cfa -4 + ^ r3: .cfa -8 + ^
STACK CFI INIT 996f4 30 .cfa: sp 0 + .ra: lr
STACK CFI 996f8 .cfa: sp 8 + .ra: .cfa -4 + ^ r4: .cfa -8 + ^
STACK CFI INIT 99724 14 .cfa: sp 0 + .ra: lr
STACK CFI 99728 .cfa: sp 8 + .ra: .cfa -4 + ^ r4: .cfa -8 + ^
STACK CFI INIT 47b7c 10 .cfa: sp 0 + .ra: lr
STACK CFI INIT 47b8c 10 .cfa: sp 0 + .ra: lr
STACK CFI INIT 99738 a4 .cfa: sp 0 + .ra: lr
STACK CFI 99748 .cfa: sp 4 + r4: .cfa -4 + ^
STACK CFI INIT 997dc 9c .cfa: sp 0 + .ra: lr
STACK CFI 997e0 .cfa: sp 16 + .ra: .cfa -4 + ^ r3: .cfa -16 + ^ r4: .cfa -12 + ^ r5: .cfa -8 + ^
STACK CFI INIT 99878 b8 .cfa: sp 0 + .ra: lr
STACK CFI 99880 .cfa: sp 8 + .ra: .cfa -4 + ^ r4: .cfa -8 + ^
STACK CFI 9988c .cfa: sp 16 +
STACK CFI INIT 47b9c 34 .cfa: sp 0 + .ra: lr
STACK CFI 47bac .cfa: sp 8 + .ra: .cfa -4 + ^ r4: .cfa -8 + ^
STACK CFI INIT 47bd0 34 .cfa: sp 0 + .ra: lr
STACK CFI 47be0 .cfa: sp 8 + .ra: .cfa -4 + ^ r4: .cfa -8 + ^
STACK CFI INIT 47c04 3c .cfa: sp 0 + .ra: lr
STACK CFI 47c14 .cfa: sp 8 + .ra: .cfa -4 + ^ r4: .cfa -8 + ^
STACK CFI INIT 47c40 3c .cfa: sp 0 + .ra: lr
STACK CFI 47c50 .cfa: sp 8 + .ra: .cfa -4 + ^ r4: .cfa -8 + ^
STACK CFI INIT 47c7c 48 .cfa: sp 0 + .ra: lr
STACK CFI 47c80 .cfa: sp 8 + .ra: .cfa -4 + ^ r3: .cfa -8 + ^
STACK CFI INIT 47cc4 48 .cfa: sp 0 + .ra: lr
STACK CFI 47cc8 .cfa: sp 8 + .ra: .cfa -4 + ^ r3: .cfa -8 + ^
STACK CFI INIT 53ea4 54 .cfa: sp 0 + .ra: lr
STACK CFI 53eb4 .cfa: sp 8 + .ra: .cfa -4 + ^ r4: .cfa -8 + ^
STACK CFI INIT 99930 1c .cfa: sp 0 + .ra: lr
STACK CFI 99934 .cfa: sp 8 + .ra: .cfa -4 + ^ r3: .cfa -8 + ^
STACK CFI INIT 9994c b0 .cfa: sp 0 + .ra: lr
STACK CFI 99950 .cfa: sp 16 + .ra: .cfa -4 + ^ r4: .cfa -16 + ^ r5: .cfa -12 + ^ r6: .cfa -8 + ^
STACK CFI INIT 999fc 130 .cfa: sp 0 + .ra: lr
STACK CFI 99a00 .cfa: sp 20 + .ra: .cfa -4 + ^ r4: .cfa -20 + ^ r5: .cfa -16 + ^ r6: .cfa -12 + ^ r7: .cfa -8 + ^
STACK CFI 99a04 .cfa: sp 32 +
STACK CFI INIT 99b2c 20 .cfa: sp 0 + .ra: lr
STACK CFI INIT 99b4c 98 .cfa: sp 0 + .ra: lr
STACK CFI 99b50 .cfa: sp 24 + .ra: .cfa -4 + ^ r4: .cfa -24 + ^ r5: .cfa -20 + ^ r6: .cfa -16 + ^ r7: .cfa -12 + ^ r8: .cfa -8 + ^
STACK CFI INIT 99be4 38 .cfa: sp 0 + .ra: lr
STACK CFI INIT 99c1c 8c .cfa: sp 0 + .ra: lr
STACK CFI 99c20 .cfa: sp 24 + .ra: .cfa -4 + ^ r3: .cfa -24 + ^ r4: .cfa -20 + ^ r5: .cfa -16 + ^ r6: .cfa -12 + ^ r7: .cfa -8 + ^
STACK CFI INIT 99ca8 18 .cfa: sp 0 + .ra: lr
STACK CFI INIT 99cc0 28 .cfa: sp 0 + .ra: lr
STACK CFI 99cc4 .cfa: sp 8 + .ra: .cfa -4 + ^ r4: .cfa -8 + ^
STACK CFI INIT 99ce8 3c .cfa: sp 0 + .ra: lr
STACK CFI 99cec .cfa: sp 16 + .ra: .cfa -4 + ^ r4: .cfa -16 + ^ r5: .cfa -12 + ^ r6: .cfa -8 + ^
STACK CFI INIT 99d24 c8 .cfa: sp 0 + .ra: lr
STACK CFI 99d28 .cfa: sp 24 + .ra: .cfa -4 + ^ r3: .cfa -24 + ^ r4: .cfa -20 + ^ r5: .cfa -16 + ^ r6: .cfa -12 + ^ r7: .cfa -8 + ^
STACK CFI INIT 99dec 28 .cfa: sp 0 + .ra: lr
STACK CFI 99df0 .cfa: sp 8 + .ra: .cfa -4 + ^ r4: .cfa -8 + ^
STACK CFI INIT 99e14 3c .cfa: sp 0 + .ra: lr
STACK CFI 99e18 .cfa: sp 16 + .ra: .cfa -4 + ^ r4: .cfa -16 + ^ r5: .cfa -12 + ^ r6: .cfa -8 + ^
STACK CFI INIT 99e50 28 .cfa: sp 0 + .ra: lr
STACK CFI INIT 99e78 f0 .cfa: sp 0 + .ra: lr
STACK CFI 99e7c .cfa: sp 24 + .ra: .cfa -4 + ^ r4: .cfa -24 + ^ r5: .cfa -20 + ^ r6: .cfa -16 + ^ r7: .cfa -12 + ^ r8: .cfa -8 + ^
STACK CFI INIT 99f68 50 .cfa: sp 0 + .ra: lr
STACK CFI 99f6c .cfa: sp 16 + .ra: .cfa -4 + ^ r4: .cfa -16 + ^ r5: .cfa -12 + ^ r6: .cfa -8 + ^
STACK CFI INIT 99fb8 20 .cfa: sp 0 + .ra: lr
STACK CFI 99fbc .cfa: sp 8 + .ra: .cfa -4 + ^ r3: .cfa -8 + ^
STACK CFI INIT 99fd8 8 .cfa: sp 0 + .ra: lr
STACK CFI INIT 99fe0 120 .cfa: sp 0 + .ra: lr
STACK CFI 99fe4 .cfa: sp 24 + .ra: .cfa -4 + ^ r3: .cfa -24 + ^ r4: .cfa -20 + ^ r5: .cfa -16 + ^ r6: .cfa -12 + ^ r7: .cfa -8 + ^
STACK CFI INIT 9a100 130 .cfa: sp 0 + .ra: lr
STACK CFI 9a104 .cfa: sp 20 + .ra: .cfa -4 + ^ r4: .cfa -20 + ^ r5: .cfa -16 + ^ r6: .cfa -12 + ^ r7: .cfa -8 + ^
STACK CFI 9a108 .cfa: sp 32 +
STACK CFI INIT 9a230 24 .cfa: sp 0 + .ra: lr
STACK CFI INIT 9a254 98 .cfa: sp 0 + .ra: lr
STACK CFI 9a258 .cfa: sp 24 + .ra: .cfa -4 + ^ r4: .cfa -24 + ^ r5: .cfa -20 + ^ r6: .cfa -16 + ^ r7: .cfa -12 + ^ r8: .cfa -8 + ^
STACK CFI INIT 9a2ec 38 .cfa: sp 0 + .ra: lr
STACK CFI INIT 0 2c .cfa: sp 0 + .ra: lr
STACK CFI 8 .cfa: sp 8 + .ra: .cfa -4 + ^ r4: .cfa -8 + ^
STACK CFI INIT 0 40 .cfa: sp 0 + .ra: lr
STACK CFI 4 .cfa: sp 16 + .ra: .cfa -4 + ^ r4: .cfa -16 + ^ r5: .cfa -12 + ^ r6: .cfa -8 + ^
STACK CFI INIT 9a324 8c .cfa: sp 0 + .ra: lr
STACK CFI 9a328 .cfa: sp 24 + .ra: .cfa -4 + ^ r3: .cfa -24 + ^ r4: .cfa -20 + ^ r5: .cfa -16 + ^ r6: .cfa -12 + ^ r7: .cfa -8 + ^
STACK CFI INIT 9a3b0 2c .cfa: sp 0 + .ra: lr
STACK CFI 9a3b8 .cfa: sp 8 + .ra: .cfa -4 + ^ r4: .cfa -8 + ^
STACK CFI INIT 9a3dc 40 .cfa: sp 0 + .ra: lr
STACK CFI 9a3e0 .cfa: sp 16 + .ra: .cfa -4 + ^ r4: .cfa -16 + ^ r5: .cfa -12 + ^ r6: .cfa -8 + ^
STACK CFI INIT 9a41c 24 .cfa: sp 0 + .ra: lr
STACK CFI INIT 9a440 13c .cfa: sp 0 + .ra: lr
STACK CFI 9a448 .cfa: sp 20 + .ra: .cfa -4 + ^ r4: .cfa -20 + ^ r5: .cfa -16 + ^ r6: .cfa -12 + ^ r7: .cfa -8 + ^
STACK CFI 9a454 .cfa: sp 32 +
STACK CFI INIT 9a57c 54 .cfa: sp 0 + .ra: lr
STACK CFI 9a580 .cfa: sp 12 + .ra: .cfa -4 + ^ r4: .cfa -12 + ^ r5: .cfa -8 + ^
STACK CFI 9a58c .cfa: sp 24 +
STACK CFI INIT 9a5d0 14 .cfa: sp 0 + .ra: lr
STACK CFI INIT 9a5e4 558 .cfa: sp 0 + .ra: lr
STACK CFI 9a5ec .cfa: sp 16 + .ra: .cfa -4 + ^ r4: .cfa -16 + ^ r5: .cfa -12 + ^ r6: .cfa -8 + ^
STACK CFI 9a5f4 .cfa: sp 88 +
STACK CFI INIT 9ab3c 14 .cfa: sp 0 + .ra: lr
STACK CFI INIT 9ab50 320 .cfa: sp 0 + .ra: lr
STACK CFI 9ab58 .cfa: sp 16 + .ra: .cfa -4 + ^ r4: .cfa -16 + ^ r5: .cfa -12 + ^ r6: .cfa -8 + ^
STACK CFI 9ab60 .cfa: sp 152 +
STACK CFI INIT 9ae70 14 .cfa: sp 0 + .ra: lr
STACK CFI INIT 9ae84 14 .cfa: sp 0 + .ra: lr
STACK CFI INIT 9ae98 380 .cfa: sp 0 + .ra: lr
STACK CFI 9ae9c .cfa: sp 36 + .ra: .cfa -4 + ^ r10: .cfa -12 + ^ r11: .cfa -8 + ^ r4: .cfa -36 + ^ r5: .cfa -32 + ^ r6: .cfa -28 + ^ r7: .cfa -24 + ^ r8: .cfa -20 + ^ r9: .cfa -16 + ^
STACK CFI 9aea8 .cfa: sp 200 +
STACK CFI INIT 9b218 1cc .cfa: sp 0 + .ra: lr
STACK CFI 9b22c .cfa: sp 24 + .ra: .cfa -4 + ^ r4: .cfa -24 + ^ r5: .cfa -20 + ^ r6: .cfa -16 + ^ r7: .cfa -12 + ^ r8: .cfa -8 + ^
STACK CFI 9b234 .cfa: sp 160 +
STACK CFI INIT 9b3e4 48 .cfa: sp 0 + .ra: lr
STACK CFI 9b3e8 .cfa: sp 8 + .ra: .cfa -4 + ^ r3: .cfa -8 + ^
STACK CFI INIT 9b42c 48 .cfa: sp 0 + .ra: lr
STACK CFI 9b430 .cfa: sp 8 + .ra: .cfa -4 + ^ r3: .cfa -8 + ^
STACK CFI INIT 9b474 48 .cfa: sp 0 + .ra: lr
STACK CFI 9b478 .cfa: sp 8 + .ra: .cfa -4 + ^ r3: .cfa -8 + ^
STACK CFI INIT 9b4bc 48 .cfa: sp 0 + .ra: lr
STACK CFI 9b4c0 .cfa: sp 8 + .ra: .cfa -4 + ^ r3: .cfa -8 + ^
STACK CFI INIT 9b504 94 .cfa: sp 0 + .ra: lr
STACK CFI 9b508 .cfa: sp 16 + .ra: .cfa -4 + ^ r4: .cfa -16 + ^ r5: .cfa -12 + ^ r6: .cfa -8 + ^
STACK CFI 9b510 .cfa: sp 32 +
STACK CFI INIT 9b598 94 .cfa: sp 0 + .ra: lr
STACK CFI 9b59c .cfa: sp 16 + .ra: .cfa -4 + ^ r4: .cfa -16 + ^ r5: .cfa -12 + ^ r6: .cfa -8 + ^
STACK CFI 9b5a4 .cfa: sp 32 +
STACK CFI INIT 9b62c 94 .cfa: sp 0 + .ra: lr
STACK CFI 9b630 .cfa: sp 16 + .ra: .cfa -4 + ^ r4: .cfa -16 + ^ r5: .cfa -12 + ^ r6: .cfa -8 + ^
STACK CFI 9b638 .cfa: sp 32 +
STACK CFI INIT 9b6c0 94 .cfa: sp 0 + .ra: lr
STACK CFI 9b6c4 .cfa: sp 16 + .ra: .cfa -4 + ^ r4: .cfa -16 + ^ r5: .cfa -12 + ^ r6: .cfa -8 + ^
STACK CFI 9b6cc .cfa: sp 32 +
STACK CFI INIT 9b754 94 .cfa: sp 0 + .ra: lr
STACK CFI 9b758 .cfa: sp 16 + .ra: .cfa -4 + ^ r4: .cfa -16 + ^ r5: .cfa -12 + ^ r6: .cfa -8 + ^
STACK CFI 9b760 .cfa: sp 32 +
STACK CFI INIT 9b7e8 94 .cfa: sp 0 + .ra: lr
STACK CFI 9b7ec .cfa: sp 16 + .ra: .cfa -4 + ^ r4: .cfa -16 + ^ r5: .cfa -12 + ^ r6: .cfa -8 + ^
STACK CFI 9b7f4 .cfa: sp 32 +
STACK CFI INIT 9b87c 94 .cfa: sp 0 + .ra: lr
STACK CFI 9b880 .cfa: sp 16 + .ra: .cfa -4 + ^ r4: .cfa -16 + ^ r5: .cfa -12 + ^ r6: .cfa -8 + ^
STACK CFI 9b888 .cfa: sp 32 +
STACK CFI INIT 9b910 94 .cfa: sp 0 + .ra: lr
STACK CFI 9b914 .cfa: sp 16 + .ra: .cfa -4 + ^ r4: .cfa -16 + ^ r5: .cfa -12 + ^ r6: .cfa -8 + ^
STACK CFI 9b91c .cfa: sp 32 +
STACK CFI INIT 9b9a4 94 .cfa: sp 0 + .ra: lr
STACK CFI 9b9a8 .cfa: sp 16 + .ra: .cfa -4 + ^ r4: .cfa -16 + ^ r5: .cfa -12 + ^ r6: .cfa -8 + ^
STACK CFI 9b9b0 .cfa: sp 32 +
STACK CFI INIT 9ba38 80 .cfa: sp 0 + .ra: lr
STACK CFI 9ba3c .cfa: sp 16 + .ra: .cfa -4 + ^ r4: .cfa -16 + ^ r5: .cfa -12 + ^ r6: .cfa -8 + ^
STACK CFI 9ba44 .cfa: sp 32 +
STACK CFI INIT 9bab8 c0 .cfa: sp 0 + .ra: lr
STACK CFI 9babc .cfa: sp 24 + .ra: .cfa -4 + ^ r4: .cfa -24 + ^ r5: .cfa -20 + ^ r6: .cfa -16 + ^ r7: .cfa -12 + ^ r8: .cfa -8 + ^
STACK CFI 9bac4 .cfa: sp 32 +
STACK CFI INIT 9bb78 c0 .cfa: sp 0 + .ra: lr
STACK CFI 9bb7c .cfa: sp 24 + .ra: .cfa -4 + ^ r4: .cfa -24 + ^ r5: .cfa -20 + ^ r6: .cfa -16 + ^ r7: .cfa -12 + ^ r8: .cfa -8 + ^
STACK CFI 9bb84 .cfa: sp 40 +
STACK CFI INIT 9bc38 48 .cfa: sp 0 + .ra: lr
STACK CFI 9bc3c .cfa: sp 8 + .ra: .cfa -4 + ^ r3: .cfa -8 + ^
STACK CFI INIT 9bc80 54 .cfa: sp 0 + .ra: lr
STACK CFI 9bc84 .cfa: sp 16 + .ra: .cfa -4 + ^ r3: .cfa -16 + ^ r4: .cfa -12 + ^ r5: .cfa -8 + ^
STACK CFI INIT 9bcd4 10 .cfa: sp 0 + .ra: lr
STACK CFI INIT 9bce4 34 .cfa: sp 0 + .ra: lr
STACK CFI 9bcf4 .cfa: sp 8 + .ra: .cfa -4 + ^ r4: .cfa -8 + ^
STACK CFI INIT 9bd18 1c .cfa: sp 0 + .ra: lr
STACK CFI 9bd1c .cfa: sp 8 + .ra: .cfa -4 + ^ r4: .cfa -8 + ^
STACK CFI INIT 9bd34 10 .cfa: sp 0 + .ra: lr
STACK CFI INIT 9bd44 28 .cfa: sp 0 + .ra: lr
STACK CFI 9bd4c .cfa: sp 8 + .ra: .cfa -4 + ^ r4: .cfa -8 + ^
STACK CFI INIT 9bd6c 30 .cfa: sp 0 + .ra: lr
STACK CFI 9bd74 .cfa: sp 8 + .ra: .cfa -4 + ^ r4: .cfa -8 + ^
STACK CFI INIT 9bd9c 34 .cfa: sp 0 + .ra: lr
STACK CFI 9bdac .cfa: sp 8 + .ra: .cfa -4 + ^ r4: .cfa -8 + ^
STACK CFI INIT 9bdd0 1c .cfa: sp 0 + .ra: lr
STACK CFI 9bdd4 .cfa: sp 8 + .ra: .cfa -4 + ^ r4: .cfa -8 + ^
STACK CFI INIT 9bdec 9c .cfa: sp 0 + .ra: lr
STACK CFI 9bdf4 .cfa: sp 12 + .ra: .cfa -4 + ^ r4: .cfa -12 + ^ r5: .cfa -8 + ^
STACK CFI 9bdfc .cfa: sp 24 +
STACK CFI INIT 9be88 100 .cfa: sp 0 + .ra: lr
STACK CFI 9be98 .cfa: sp 8 + .ra: .cfa -4 + ^ r4: .cfa -8 + ^
STACK CFI 9bea8 .cfa: sp 16 +
STACK CFI INIT 9bf88 94 .cfa: sp 0 + .ra: lr
STACK CFI 9bf8c .cfa: sp 16 + .ra: .cfa -4 + ^ r4: .cfa -16 + ^ r5: .cfa -12 + ^ r6: .cfa -8 + ^
STACK CFI INIT 9c01c f0 .cfa: sp 0 + .ra: lr
STACK CFI 9c020 .cfa: sp 16 + .ra: .cfa -4 + ^ r4: .cfa -16 + ^ r5: .cfa -12 + ^ r6: .cfa -8 + ^
STACK CFI 9c02c .cfa: sp 24 +
STACK CFI INIT 9c10c e8 .cfa: sp 0 + .ra: lr
STACK CFI 9c110 .cfa: sp 24 + .ra: .cfa -4 + ^ r3: .cfa -24 + ^ r4: .cfa -20 + ^ r5: .cfa -16 + ^ r6: .cfa -12 + ^ r7: .cfa -8 + ^
STACK CFI INIT 9c1f4 114 .cfa: sp 0 + .ra: lr
STACK CFI 9c1f8 .cfa: sp 32 + .ra: .cfa -4 + ^ r10: .cfa -12 + ^ r11: .cfa -8 + ^ r4: .cfa -32 + ^ r5: .cfa -28 + ^ r6: .cfa -24 + ^ r8: .cfa -20 + ^ r9: .cfa -16 + ^
STACK CFI 9c1fc .cfa: sp 40 +
STACK CFI INIT 9c308 20 .cfa: sp 0 + .ra: lr
STACK CFI 9c310 .cfa: sp 8 + .ra: .cfa -4 + ^ r3: .cfa -8 + ^
STACK CFI INIT 9c328 a8 .cfa: sp 0 + .ra: lr
STACK CFI 9c32c .cfa: sp 16 + .ra: .cfa -4 + ^ r4: .cfa -16 + ^ r5: .cfa -12 + ^ r6: .cfa -8 + ^
STACK CFI INIT 9c3d0 10 .cfa: sp 0 + .ra: lr
STACK CFI INIT 9c3e0 28 .cfa: sp 0 + .ra: lr
STACK CFI 9c3e4 .cfa: sp 4 + .ra: .cfa -4 + ^
STACK CFI 9c3ec .cfa: sp 16 +
STACK CFI INIT 0 8 .cfa: sp 0 + .ra: lr
STACK CFI INIT 0 8 .cfa: sp 0 + .ra: lr
STACK CFI INIT 9c408 68 .cfa: sp 0 + .ra: lr
STACK CFI 9c40c .cfa: sp 16 + r4: .cfa -16 + ^ r5: .cfa -12 + ^ r6: .cfa -8 + ^ r7: .cfa -4 + ^
STACK CFI INIT 9c470 88 .cfa: sp 0 + .ra: lr
STACK CFI 9c474 .cfa: sp 12 + .ra: .cfa -4 + ^ r4: .cfa -12 + ^ r5: .cfa -8 + ^
STACK CFI 9c480 .cfa: sp 24 +
STACK CFI INIT 0 14 .cfa: sp 0 + .ra: lr
STACK CFI 4 .cfa: sp 8 + .ra: .cfa -4 + ^ r4: .cfa -8 + ^
STACK CFI INIT 9c4f8 e0 .cfa: sp 0 + .ra: lr
STACK CFI 9c4fc .cfa: sp 12 + r4: .cfa -12 + ^ r5: .cfa -8 + ^ r6: .cfa -4 + ^
STACK CFI INIT 9c5d8 5c .cfa: sp 0 + .ra: lr
STACK CFI 9c5e0 .cfa: sp 8 + .ra: .cfa -4 + ^ r4: .cfa -8 + ^
STACK CFI INIT 9c634 4 .cfa: sp 0 + .ra: lr
STACK CFI INIT 0 5c .cfa: sp 0 + .ra: lr
STACK CFI 8 .cfa: sp 16 + .ra: .cfa -4 + ^ r4: .cfa -16 + ^ r5: .cfa -12 + ^ r6: .cfa -8 + ^
STACK CFI INIT 9c638 34 .cfa: sp 0 + .ra: lr
STACK CFI 9c648 .cfa: sp 8 + .ra: .cfa -4 + ^ r4: .cfa -8 + ^
STACK CFI INIT 9c66c 1c .cfa: sp 0 + .ra: lr
STACK CFI 9c670 .cfa: sp 8 + .ra: .cfa -4 + ^ r4: .cfa -8 + ^
STACK CFI INIT 9c688 e0 .cfa: sp 0 + .ra: lr
STACK CFI 9c68c .cfa: sp 20 + .ra: .cfa -4 + ^ r4: .cfa -20 + ^ r5: .cfa -16 + ^ r6: .cfa -12 + ^ r7: .cfa -8 + ^
STACK CFI 9c694 .cfa: sp 40 +
STACK CFI INIT 9c768 10 .cfa: sp 0 + .ra: lr
STACK CFI INIT 9c778 34 .cfa: sp 0 + .ra: lr
STACK CFI 9c788 .cfa: sp 8 + .ra: .cfa -4 + ^ r4: .cfa -8 + ^
STACK CFI INIT 9c7ac 1c .cfa: sp 0 + .ra: lr
STACK CFI 9c7b0 .cfa: sp 8 + .ra: .cfa -4 + ^ r4: .cfa -8 + ^
STACK CFI INIT 9c7c8 10 .cfa: sp 0 + .ra: lr
STACK CFI INIT 9c7d8 10 .cfa: sp 0 + .ra: lr
STACK CFI INIT 9c7e8 24 .cfa: sp 0 + .ra: lr
STACK CFI INIT 9c80c c .cfa: sp 0 + .ra: lr
STACK CFI INIT 9c818 5c .cfa: sp 0 + .ra: lr
STACK CFI 9c820 .cfa: sp 8 + .ra: .cfa -4 + ^ r4: .cfa -8 + ^
STACK CFI 9c824 .cfa: sp 16 +
STACK CFI INIT 9c874 28 .cfa: sp 0 + .ra: lr
STACK CFI INIT 9c89c 28 .cfa: sp 0 + .ra: lr
STACK CFI 9c8a4 .cfa: sp 8 + .ra: .cfa -4 + ^ r4: .cfa -8 + ^
STACK CFI INIT 9c8c4 28 .cfa: sp 0 + .ra: lr
STACK CFI 9c8cc .cfa: sp 8 + .ra: .cfa -4 + ^ r4: .cfa -8 + ^
STACK CFI INIT 9c8ec 1c .cfa: sp 0 + .ra: lr
STACK CFI 9c8f0 .cfa: sp 8 + .ra: .cfa -4 + ^ r4: .cfa -8 + ^
STACK CFI INIT 9c908 30 .cfa: sp 0 + .ra: lr
STACK CFI 9c910 .cfa: sp 8 + .ra: .cfa -4 + ^ r4: .cfa -8 + ^
STACK CFI INIT 9c938 30 .cfa: sp 0 + .ra: lr
STACK CFI 9c940 .cfa: sp 8 + .ra: .cfa -4 + ^ r4: .cfa -8 + ^
STACK CFI INIT 9c968 34 .cfa: sp 0 + .ra: lr
STACK CFI 9c978 .cfa: sp 8 + .ra: .cfa -4 + ^ r4: .cfa -8 + ^
STACK CFI INIT 9c99c 1c .cfa: sp 0 + .ra: lr
STACK CFI 9c9a0 .cfa: sp 8 + .ra: .cfa -4 + ^ r4: .cfa -8 + ^
STACK CFI INIT 9c9b8 30 .cfa: sp 0 + .ra: lr
STACK CFI 9c9bc .cfa: sp 8 + .ra: .cfa -4 + ^ r4: .cfa -8 + ^
STACK CFI 9c9c4 .cfa: sp 16 +
STACK CFI INIT 9c9e8 30 .cfa: sp 0 + .ra: lr
STACK CFI 9c9ec .cfa: sp 8 + .ra: .cfa -4 + ^ r4: .cfa -8 + ^
STACK CFI 9c9f4 .cfa: sp 16 +
STACK CFI INIT 9ca18 24 .cfa: sp 0 + .ra: lr
STACK CFI INIT 9ca3c 10 .cfa: sp 0 + .ra: lr
STACK CFI INIT 9ca4c 10 .cfa: sp 0 + .ra: lr
STACK CFI INIT 9ca5c 24 .cfa: sp 0 + .ra: lr
STACK CFI 9ca64 .cfa: sp 8 + .ra: .cfa -4 + ^ r4: .cfa -8 + ^
STACK CFI INIT 463a0 a0 .cfa: sp 0 + .ra: lr
STACK CFI 463a4 .cfa: sp 24 + .ra: .cfa -4 + ^ r3: .cfa -24 + ^ r4: .cfa -20 + ^ r5: .cfa -16 + ^ r6: .cfa -12 + ^ r7: .cfa -8 + ^
STACK CFI INIT 9ca80 34 .cfa: sp 0 + .ra: lr
STACK CFI 9ca84 .cfa: sp 8 + .ra: .cfa -4 + ^ r4: .cfa -8 + ^
STACK CFI INIT 9cab4 30 .cfa: sp 0 + .ra: lr
STACK CFI 9cab8 .cfa: sp 8 + .ra: .cfa -4 + ^ r4: .cfa -8 + ^
STACK CFI INIT 9cae4 10 .cfa: sp 0 + .ra: lr
STACK CFI 9cae8 .cfa: sp 8 + .ra: .cfa -4 + ^ r3: .cfa -8 + ^
STACK CFI INIT 9caf4 40 .cfa: sp 0 + .ra: lr
STACK CFI 9caf8 .cfa: sp 16 + .ra: .cfa -4 + ^ r3: .cfa -16 + ^ r4: .cfa -12 + ^ r5: .cfa -8 + ^
STACK CFI INIT 9cb34 f8 .cfa: sp 0 + .ra: lr
STACK CFI 9cb38 .cfa: sp 24 + .ra: .cfa -4 + ^ r3: .cfa -24 + ^ r4: .cfa -20 + ^ r5: .cfa -16 + ^ r6: .cfa -12 + ^ r7: .cfa -8 + ^
STACK CFI INIT 9cc2c 9c .cfa: sp 0 + .ra: lr
STACK CFI 9cc30 .cfa: sp 16 + .ra: .cfa -4 + ^ r3: .cfa -16 + ^ r4: .cfa -12 + ^ r5: .cfa -8 + ^
STACK CFI INIT 9ccc8 f4 .cfa: sp 0 + .ra: lr
STACK CFI 9ccd0 .cfa: sp 16 + .ra: .cfa -4 + ^ r3: .cfa -16 + ^ r4: .cfa -12 + ^ r5: .cfa -8 + ^
STACK CFI INIT 9cdbc 2fc .cfa: sp 0 + .ra: lr
STACK CFI 9cdc0 .cfa: sp 24 + .ra: .cfa -4 + ^ r4: .cfa -24 + ^ r5: .cfa -20 + ^ r6: .cfa -16 + ^ r7: .cfa -12 + ^ r8: .cfa -8 + ^
STACK CFI 9cdd4 .cfa: sp 56 +
STACK CFI INIT 9d0b8 4c .cfa: sp 0 + .ra: lr
STACK CFI 9d0bc .cfa: sp 16 + .ra: .cfa -4 + ^ r4: .cfa -16 + ^ r5: .cfa -12 + ^ r6: .cfa -8 + ^
STACK CFI INIT 9d104 4c .cfa: sp 0 + .ra: lr
STACK CFI 9d108 .cfa: sp 16 + .ra: .cfa -4 + ^ r4: .cfa -16 + ^ r5: .cfa -12 + ^ r6: .cfa -8 + ^
STACK CFI INIT 9d150 98 .cfa: sp 0 + .ra: lr
STACK CFI 9d158 .cfa: sp 16 + .ra: .cfa -4 + ^ r4: .cfa -16 + ^ r5: .cfa -12 + ^ r6: .cfa -8 + ^
STACK CFI INIT 9d1e8 9c .cfa: sp 0 + .ra: lr
STACK CFI 9d1f0 .cfa: sp 16 + .ra: .cfa -4 + ^ r4: .cfa -16 + ^ r5: .cfa -12 + ^ r6: .cfa -8 + ^
STACK CFI INIT 9d284 40 .cfa: sp 0 + .ra: lr
STACK CFI 9d290 .cfa: sp 8 + .ra: .cfa -4 + ^ r3: .cfa -8 + ^
STACK CFI INIT 9d2c4 40 .cfa: sp 0 + .ra: lr
STACK CFI 9d2d0 .cfa: sp 8 + .ra: .cfa -4 + ^ r3: .cfa -8 + ^
STACK CFI INIT 9d304 15c .cfa: sp 0 + .ra: lr
STACK CFI 9d30c .cfa: sp 24 + .ra: .cfa -4 + ^ r4: .cfa -24 + ^ r5: .cfa -20 + ^ r6: .cfa -16 + ^ r7: .cfa -12 + ^ r8: .cfa -8 + ^
STACK CFI 9d314 .cfa: sp 48 +
STACK CFI INIT 9d460 160 .cfa: sp 0 + .ra: lr
STACK CFI 9d468 .cfa: sp 24 + .ra: .cfa -4 + ^ r4: .cfa -24 + ^ r5: .cfa -20 + ^ r6: .cfa -16 + ^ r7: .cfa -12 + ^ r8: .cfa -8 + ^
STACK CFI 9d470 .cfa: sp 48 +
STACK CFI INIT 9d5c0 134 .cfa: sp 0 + .ra: lr
STACK CFI 9d5c4 .cfa: sp 20 + .ra: .cfa -4 + ^ r4: .cfa -20 + ^ r5: .cfa -16 + ^ r6: .cfa -12 + ^ r7: .cfa -8 + ^
STACK CFI 9d5d0 .cfa: sp 32 +
STACK CFI INIT 9d6f4 13c .cfa: sp 0 + .ra: lr
STACK CFI 9d6f8 .cfa: sp 20 + .ra: .cfa -4 + ^ r4: .cfa -20 + ^ r5: .cfa -16 + ^ r6: .cfa -12 + ^ r7: .cfa -8 + ^
STACK CFI 9d704 .cfa: sp 32 +
STACK CFI INIT 9d830 4a0 .cfa: sp 0 + .ra: lr
STACK CFI 9d838 .cfa: sp 36 + .ra: .cfa -4 + ^ r10: .cfa -12 + ^ r11: .cfa -8 + ^ r4: .cfa -36 + ^ r5: .cfa -32 + ^ r6: .cfa -28 + ^ r7: .cfa -24 + ^ r8: .cfa -20 + ^ r9: .cfa -16 + ^
STACK CFI 9d840 .cfa: sp 72 +
STACK CFI INIT 9dcd0 25c .cfa: sp 0 + .ra: lr
STACK CFI 9dcd4 .cfa: sp 24 + .ra: .cfa -4 + ^ r4: .cfa -24 + ^ r5: .cfa -20 + ^ r6: .cfa -16 + ^ r7: .cfa -12 + ^ r8: .cfa -8 + ^
STACK CFI INIT 9df2c 4b0 .cfa: sp 0 + .ra: lr
STACK CFI 9df34 .cfa: sp 36 + .ra: .cfa -4 + ^ r10: .cfa -12 + ^ r11: .cfa -8 + ^ r4: .cfa -36 + ^ r5: .cfa -32 + ^ r6: .cfa -28 + ^ r7: .cfa -24 + ^ r8: .cfa -20 + ^ r9: .cfa -16 + ^
STACK CFI 9df3c .cfa: sp 72 +
STACK CFI INIT 9e3dc 258 .cfa: sp 0 + .ra: lr
STACK CFI 9e3e0 .cfa: sp 24 + .ra: .cfa -4 + ^ r4: .cfa -24 + ^ r5: .cfa -20 + ^ r6: .cfa -16 + ^ r7: .cfa -12 + ^ r8: .cfa -8 + ^
STACK CFI INIT 9e634 44 .cfa: sp 0 + .ra: lr
STACK CFI 9e63c .cfa: sp 4 + r4: .cfa -4 + ^
STACK CFI INIT 9e678 40 .cfa: sp 0 + .ra: lr
STACK CFI INIT 9e6b8 12c .cfa: sp 0 + .ra: lr
STACK CFI 9e6bc .cfa: sp 32 + .ra: .cfa -4 + ^ r3: .cfa -32 + ^ r4: .cfa -28 + ^ r5: .cfa -24 + ^ r6: .cfa -20 + ^ r7: .cfa -16 + ^ r8: .cfa -12 + ^ r9: .cfa -8 + ^
STACK CFI INIT 9e7e4 8 .cfa: sp 0 + .ra: lr
STACK CFI INIT 9e7ec 38 .cfa: sp 0 + .ra: lr
STACK CFI 9e7f4 .cfa: sp 8 + .ra: .cfa -4 + ^ r4: .cfa -8 + ^
STACK CFI INIT 9e824 58 .cfa: sp 0 + .ra: lr
STACK CFI 9e82c .cfa: sp 8 + .ra: .cfa -4 + ^ r4: .cfa -8 + ^
STACK CFI INIT 9e87c 70 .cfa: sp 0 + .ra: lr
STACK CFI 9e880 .cfa: sp 16 + .ra: .cfa -4 + ^ r3: .cfa -16 + ^ r4: .cfa -12 + ^ r5: .cfa -8 + ^
STACK CFI INIT 9e8ec 170 .cfa: sp 0 + .ra: lr
STACK CFI 9e8f0 .cfa: sp 36 + .ra: .cfa -4 + ^ r10: .cfa -12 + ^ r11: .cfa -8 + ^ r4: .cfa -36 + ^ r5: .cfa -32 + ^ r6: .cfa -28 + ^ r7: .cfa -24 + ^ r8: .cfa -20 + ^ r9: .cfa -16 + ^
STACK CFI 9e8f4 .cfa: r11 4 +
STACK CFI INIT 9ea5c 7c .cfa: sp 0 + .ra: lr
STACK CFI 9ea60 .cfa: sp 12 + .ra: .cfa -4 + ^ r4: .cfa -12 + ^ r5: .cfa -8 + ^
STACK CFI 9ea6c .cfa: sp 24 +
STACK CFI INIT 9ead8 13c .cfa: sp 0 + .ra: lr
STACK CFI 9eae4 .cfa: sp 32 + .ra: .cfa -4 + ^ r10: .cfa -8 + ^ r4: .cfa -32 + ^ r5: .cfa -28 + ^ r6: .cfa -24 + ^ r7: .cfa -20 + ^ r8: .cfa -16 + ^ r9: .cfa -12 + ^
STACK CFI 9eaec .cfa: sp 176 +
STACK CFI INIT 9ec14 f4 .cfa: sp 0 + .ra: lr
STACK CFI 9ec18 .cfa: sp 20 + .ra: .cfa -4 + ^ r4: .cfa -20 + ^ r5: .cfa -16 + ^ r6: .cfa -12 + ^ r7: .cfa -8 + ^
STACK CFI 9ec20 .cfa: sp 32 +
STACK CFI INIT 9ed08 5c .cfa: sp 0 + .ra: lr
STACK CFI 9ed0c .cfa: sp 16 + .ra: .cfa -4 + ^ r4: .cfa -16 + ^ r5: .cfa -12 + ^ r6: .cfa -8 + ^
STACK CFI INIT 9ed64 100 .cfa: sp 0 + .ra: lr
STACK CFI 9ed68 .cfa: sp 24 + .ra: .cfa -4 + ^ r4: .cfa -24 + ^ r5: .cfa -20 + ^ r6: .cfa -16 + ^ r7: .cfa -12 + ^ r8: .cfa -8 + ^
STACK CFI 9ed70 .cfa: sp 48 +
STACK CFI INIT 9ee64 8 .cfa: sp 0 + .ra: lr
STACK CFI INIT 9ee6c 64 .cfa: sp 0 + .ra: lr
STACK CFI 9ee70 .cfa: sp 16 + .ra: .cfa -4 + ^ r4: .cfa -16 + ^ r5: .cfa -12 + ^ r6: .cfa -8 + ^
STACK CFI INIT 9eed0 a4 .cfa: sp 0 + .ra: lr
STACK CFI 9eed4 .cfa: sp 16 + .ra: .cfa -4 + ^ r3: .cfa -16 + ^ r4: .cfa -12 + ^ r5: .cfa -8 + ^
STACK CFI INIT 9ef84 a8 .cfa: sp 0 + .ra: lr
STACK CFI 9ef88 .cfa: sp 16 + .ra: .cfa -4 + ^ r3: .cfa -16 + ^ r4: .cfa -12 + ^ r5: .cfa -8 + ^
STACK CFI INIT 9f03c b0 .cfa: sp 0 + .ra: lr
STACK CFI 9f040 .cfa: sp 16 + .ra: .cfa -4 + ^ r3: .cfa -16 + ^ r4: .cfa -12 + ^ r5: .cfa -8 + ^
STACK CFI INIT 9f0fc ac .cfa: sp 0 + .ra: lr
STACK CFI 9f100 .cfa: sp 16 + .ra: .cfa -4 + ^ r3: .cfa -16 + ^ r4: .cfa -12 + ^ r5: .cfa -8 + ^
STACK CFI INIT 9f1b8 c8 .cfa: sp 0 + .ra: lr
STACK CFI 9f1bc .cfa: sp 16 + .ra: .cfa -4 + ^ r3: .cfa -16 + ^ r4: .cfa -12 + ^ r5: .cfa -8 + ^
STACK CFI INIT 9f280 8 .cfa: sp 0 + .ra: lr
STACK CFI INIT 9f298 d0 .cfa: sp 0 + .ra: lr
STACK CFI 9f29c .cfa: sp 16 + .ra: .cfa -4 + ^ r3: .cfa -16 + ^ r4: .cfa -12 + ^ r5: .cfa -8 + ^
STACK CFI INIT 9f368 8 .cfa: sp 0 + .ra: lr
STACK CFI INIT 9f380 d8 .cfa: sp 0 + .ra: lr
STACK CFI 9f384 .cfa: sp 32 + .ra: .cfa -4 + ^ r10: .cfa -8 + ^ r4: .cfa -32 + ^ r5: .cfa -28 + ^ r6: .cfa -24 + ^ r7: .cfa -20 + ^ r8: .cfa -16 + ^ r9: .cfa -12 + ^
STACK CFI 9f3a0 .cfa: sp 48 +
STACK CFI INIT 9f458 230 .cfa: sp 0 + .ra: lr
STACK CFI 9f460 .cfa: sp 20 + .ra: .cfa -4 + ^ r4: .cfa -20 + ^ r5: .cfa -16 + ^ r6: .cfa -12 + ^ r7: .cfa -8 + ^
STACK CFI 9f468 .cfa: sp 56 +
STACK CFI INIT 9f688 240 .cfa: sp 0 + .ra: lr
STACK CFI 9f68c .cfa: sp 36 + .ra: .cfa -4 + ^ r10: .cfa -12 + ^ r11: .cfa -8 + ^ r4: .cfa -36 + ^ r5: .cfa -32 + ^ r6: .cfa -28 + ^ r7: .cfa -24 + ^ r8: .cfa -20 + ^ r9: .cfa -16 + ^
STACK CFI 9f694 .cfa: sp 80 +
STACK CFI INIT 9f8c8 cc .cfa: sp 0 + .ra: lr
STACK CFI 9f8cc .cfa: sp 8 +
STACK CFI 9f8d0 .cfa: sp 32 + .ra: .cfa -12 + ^ r4: .cfa -32 + ^ r5: .cfa -28 + ^ r6: .cfa -24 + ^ r7: .cfa -20 + ^ r8: .cfa -16 + ^
STACK CFI 9f8d8 .cfa: sp 56 +
STACK CFI INIT 9f994 200 .cfa: sp 0 + .ra: lr
STACK CFI 9f998 .cfa: sp 20 + .ra: .cfa -4 + ^ r4: .cfa -20 + ^ r5: .cfa -16 + ^ r6: .cfa -12 + ^ r7: .cfa -8 + ^
STACK CFI 9f9a0 .cfa: sp 48 +
STACK CFI INIT 9fb94 94 .cfa: sp 0 + .ra: lr
STACK CFI INIT 9fc28 9c .cfa: sp 0 + .ra: lr
STACK CFI 9fc30 .cfa: sp 16 + .ra: .cfa -4 + ^ r4: .cfa -16 + ^ r5: .cfa -12 + ^ r6: .cfa -8 + ^
STACK CFI INIT 9fcc4 ec .cfa: sp 0 + .ra: lr
STACK CFI 9fcc8 .cfa: sp 24 + .ra: .cfa -4 + ^ r3: .cfa -24 + ^ r4: .cfa -20 + ^ r5: .cfa -16 + ^ r6: .cfa -12 + ^ r7: .cfa -8 + ^
STACK CFI INIT 9fdb0 ec .cfa: sp 0 + .ra: lr
STACK CFI 9fdb8 .cfa: sp 24 + .ra: .cfa -4 + ^ r4: .cfa -24 + ^ r5: .cfa -20 + ^ r6: .cfa -16 + ^ r7: .cfa -12 + ^ r8: .cfa -8 + ^
STACK CFI INIT 9fe9c 140 .cfa: sp 0 + .ra: lr
STACK CFI 9fea0 .cfa: sp 32 + .ra: .cfa -4 + ^ r3: .cfa -32 + ^ r4: .cfa -28 + ^ r5: .cfa -24 + ^ r6: .cfa -20 + ^ r7: .cfa -16 + ^ r8: .cfa -12 + ^ r9: .cfa -8 + ^
STACK CFI INIT 9ffdc ec .cfa: sp 0 + .ra: lr
STACK CFI 9ffe4 .cfa: sp 24 + .ra: .cfa -4 + ^ r4: .cfa -24 + ^ r5: .cfa -20 + ^ r6: .cfa -16 + ^ r7: .cfa -12 + ^ r8: .cfa -8 + ^
STACK CFI INIT a00c8 140 .cfa: sp 0 + .ra: lr
STACK CFI a00cc .cfa: sp 32 + .ra: .cfa -4 + ^ r3: .cfa -32 + ^ r4: .cfa -28 + ^ r5: .cfa -24 + ^ r6: .cfa -20 + ^ r7: .cfa -16 + ^ r8: .cfa -12 + ^ r9: .cfa -8 + ^
STACK CFI INIT a0208 8c .cfa: sp 0 + .ra: lr
STACK CFI a0210 .cfa: sp 16 + .ra: .cfa -4 + ^ r4: .cfa -16 + ^ r5: .cfa -12 + ^ r6: .cfa -8 + ^
STACK CFI INIT a0294 8 .cfa: sp 0 + .ra: lr
STACK CFI INIT a029c 8 .cfa: sp 0 + .ra: lr
STACK CFI INIT 0 8 .cfa: sp 0 + .ra: lr
STACK CFI INIT a02a4 4c .cfa: sp 0 + .ra: lr
STACK CFI a02a8 .cfa: sp 8 + .ra: .cfa -4 + ^ r4: .cfa -8 + ^
STACK CFI INIT a02f0 50 .cfa: sp 0 + .ra: lr
STACK CFI a02f4 .cfa: sp 8 + .ra: .cfa -4 + ^ r4: .cfa -8 + ^
STACK CFI INIT a0340 34 .cfa: sp 0 + .ra: lr
STACK CFI a0344 .cfa: sp 8 + .ra: .cfa -4 + ^ r4: .cfa -8 + ^
STACK CFI INIT a0374 8c .cfa: sp 0 + .ra: lr
STACK CFI a037c .cfa: sp 16 + .ra: .cfa -4 + ^ r4: .cfa -16 + ^ r5: .cfa -12 + ^ r6: .cfa -8 + ^
STACK CFI INIT a0400 e4 .cfa: sp 0 + .ra: lr
STACK CFI a0404 .cfa: sp 24 + .ra: .cfa -4 + ^ r3: .cfa -24 + ^ r4: .cfa -20 + ^ r5: .cfa -16 + ^ r6: .cfa -12 + ^ r7: .cfa -8 + ^
STACK CFI INIT a04e4 dc .cfa: sp 0 + .ra: lr
STACK CFI a04e8 .cfa: sp 24 + .ra: .cfa -4 + ^ r4: .cfa -24 + ^ r5: .cfa -20 + ^ r6: .cfa -16 + ^ r7: .cfa -12 + ^ r8: .cfa -8 + ^
STACK CFI INIT a05c0 138 .cfa: sp 0 + .ra: lr
STACK CFI a05c4 .cfa: sp 32 + .ra: .cfa -4 + ^ r3: .cfa -32 + ^ r4: .cfa -28 + ^ r5: .cfa -24 + ^ r6: .cfa -20 + ^ r7: .cfa -16 + ^ r8: .cfa -12 + ^ r9: .cfa -8 + ^
STACK CFI INIT a06f8 dc .cfa: sp 0 + .ra: lr
STACK CFI a06fc .cfa: sp 24 + .ra: .cfa -4 + ^ r4: .cfa -24 + ^ r5: .cfa -20 + ^ r6: .cfa -16 + ^ r7: .cfa -12 + ^ r8: .cfa -8 + ^
STACK CFI INIT a07d4 138 .cfa: sp 0 + .ra: lr
STACK CFI a07d8 .cfa: sp 32 + .ra: .cfa -4 + ^ r3: .cfa -32 + ^ r4: .cfa -28 + ^ r5: .cfa -24 + ^ r6: .cfa -20 + ^ r7: .cfa -16 + ^ r8: .cfa -12 + ^ r9: .cfa -8 + ^
STACK CFI INIT a090c 84 .cfa: sp 0 + .ra: lr
STACK CFI a0914 .cfa: sp 16 + .ra: .cfa -4 + ^ r4: .cfa -16 + ^ r5: .cfa -12 + ^ r6: .cfa -8 + ^
STACK CFI INIT a0990 8 .cfa: sp 0 + .ra: lr
STACK CFI INIT a0998 8 .cfa: sp 0 + .ra: lr
STACK CFI INIT 0 8 .cfa: sp 0 + .ra: lr
STACK CFI INIT a09a0 4c .cfa: sp 0 + .ra: lr
STACK CFI a09a4 .cfa: sp 8 + .ra: .cfa -4 + ^ r4: .cfa -8 + ^
STACK CFI INIT a09ec 50 .cfa: sp 0 + .ra: lr
STACK CFI a09f0 .cfa: sp 8 + .ra: .cfa -4 + ^ r4: .cfa -8 + ^
STACK CFI INIT a0a3c 34 .cfa: sp 0 + .ra: lr
STACK CFI a0a40 .cfa: sp 8 + .ra: .cfa -4 + ^ r4: .cfa -8 + ^
STACK CFI INIT a0a70 f8 .cfa: sp 0 + .ra: lr
STACK CFI a0a78 .cfa: sp 16 + .ra: .cfa -4 + ^ r4: .cfa -16 + ^ r5: .cfa -12 + ^ r6: .cfa -8 + ^
STACK CFI INIT a0b68 138 .cfa: sp 0 + .ra: lr
STACK CFI a0b6c .cfa: sp 24 + .ra: .cfa -4 + ^ r3: .cfa -24 + ^ r4: .cfa -20 + ^ r5: .cfa -16 + ^ r6: .cfa -12 + ^ r7: .cfa -8 + ^
STACK CFI INIT a0ca0 148 .cfa: sp 0 + .ra: lr
STACK CFI a0ca4 .cfa: sp 24 + .ra: .cfa -4 + ^ r4: .cfa -24 + ^ r5: .cfa -20 + ^ r6: .cfa -16 + ^ r7: .cfa -12 + ^ r8: .cfa -8 + ^
STACK CFI INIT a0de8 18c .cfa: sp 0 + .ra: lr
STACK CFI a0dec .cfa: sp 32 + .ra: .cfa -4 + ^ r3: .cfa -32 + ^ r4: .cfa -28 + ^ r5: .cfa -24 + ^ r6: .cfa -20 + ^ r7: .cfa -16 + ^ r8: .cfa -12 + ^ r9: .cfa -8 + ^
STACK CFI INIT a0f74 148 .cfa: sp 0 + .ra: lr
STACK CFI a0f78 .cfa: sp 24 + .ra: .cfa -4 + ^ r4: .cfa -24 + ^ r5: .cfa -20 + ^ r6: .cfa -16 + ^ r7: .cfa -12 + ^ r8: .cfa -8 + ^
STACK CFI INIT a10bc 18c .cfa: sp 0 + .ra: lr
STACK CFI a10c0 .cfa: sp 32 + .ra: .cfa -4 + ^ r3: .cfa -32 + ^ r4: .cfa -28 + ^ r5: .cfa -24 + ^ r6: .cfa -20 + ^ r7: .cfa -16 + ^ r8: .cfa -12 + ^ r9: .cfa -8 + ^
STACK CFI INIT a1248 c8 .cfa: sp 0 + .ra: lr
STACK CFI a1250 .cfa: sp 16 + .ra: .cfa -4 + ^ r4: .cfa -16 + ^ r5: .cfa -12 + ^ r6: .cfa -8 + ^
STACK CFI INIT a1310 8 .cfa: sp 0 + .ra: lr
STACK CFI INIT a1318 8 .cfa: sp 0 + .ra: lr
STACK CFI INIT 0 8 .cfa: sp 0 + .ra: lr
STACK CFI INIT a1320 48 .cfa: sp 0 + .ra: lr
STACK CFI a1324 .cfa: sp 8 + .ra: .cfa -4 + ^ r4: .cfa -8 + ^
STACK CFI INIT a1368 4c .cfa: sp 0 + .ra: lr
STACK CFI a136c .cfa: sp 8 + .ra: .cfa -4 + ^ r4: .cfa -8 + ^
STACK CFI INIT a13b4 34 .cfa: sp 0 + .ra: lr
STACK CFI a13b8 .cfa: sp 8 + .ra: .cfa -4 + ^ r4: .cfa -8 + ^
STACK CFI INIT a13e8 44 .cfa: sp 0 + .ra: lr
STACK CFI a13f0 .cfa: sp 4 + r4: .cfa -4 + ^
STACK CFI INIT a142c 40 .cfa: sp 0 + .ra: lr
STACK CFI INIT a146c 12c .cfa: sp 0 + .ra: lr
STACK CFI a1470 .cfa: sp 32 + .ra: .cfa -4 + ^ r3: .cfa -32 + ^ r4: .cfa -28 + ^ r5: .cfa -24 + ^ r6: .cfa -20 + ^ r7: .cfa -16 + ^ r8: .cfa -12 + ^ r9: .cfa -8 + ^
STACK CFI INIT a1598 8 .cfa: sp 0 + .ra: lr
STACK CFI INIT a15a0 44 .cfa: sp 0 + .ra: lr
STACK CFI a15a8 .cfa: sp 8 + .ra: .cfa -4 + ^ r4: .cfa -8 + ^
STACK CFI INIT a15e4 58 .cfa: sp 0 + .ra: lr
STACK CFI a15ec .cfa: sp 8 + .ra: .cfa -4 + ^ r4: .cfa -8 + ^
STACK CFI INIT a163c 70 .cfa: sp 0 + .ra: lr
STACK CFI a1640 .cfa: sp 16 + .ra: .cfa -4 + ^ r3: .cfa -16 + ^ r4: .cfa -12 + ^ r5: .cfa -8 + ^
STACK CFI INIT a16ac 17c .cfa: sp 0 + .ra: lr
STACK CFI a16b0 .cfa: sp 36 + .ra: .cfa -4 + ^ r10: .cfa -12 + ^ r11: .cfa -8 + ^ r4: .cfa -36 + ^ r5: .cfa -32 + ^ r6: .cfa -28 + ^ r7: .cfa -24 + ^ r8: .cfa -20 + ^ r9: .cfa -16 + ^
STACK CFI a16b4 .cfa: r11 4 +
STACK CFI INIT a1828 84 .cfa: sp 0 + .ra: lr
STACK CFI a182c .cfa: sp 12 + .ra: .cfa -4 + ^ r4: .cfa -12 + ^ r5: .cfa -8 + ^
STACK CFI a1838 .cfa: sp 24 +
STACK CFI INIT a18ac 13c .cfa: sp 0 + .ra: lr
STACK CFI a18b8 .cfa: sp 32 + .ra: .cfa -4 + ^ r10: .cfa -8 + ^ r4: .cfa -32 + ^ r5: .cfa -28 + ^ r6: .cfa -24 + ^ r7: .cfa -20 + ^ r8: .cfa -16 + ^ r9: .cfa -12 + ^
STACK CFI a18c0 .cfa: sp 176 +
STACK CFI INIT a19e8 f4 .cfa: sp 0 + .ra: lr
STACK CFI a19ec .cfa: sp 20 + .ra: .cfa -4 + ^ r4: .cfa -20 + ^ r5: .cfa -16 + ^ r6: .cfa -12 + ^ r7: .cfa -8 + ^
STACK CFI a19f4 .cfa: sp 32 +
STACK CFI INIT a1adc 5c .cfa: sp 0 + .ra: lr
STACK CFI a1ae0 .cfa: sp 16 + .ra: .cfa -4 + ^ r4: .cfa -16 + ^ r5: .cfa -12 + ^ r6: .cfa -8 + ^
STACK CFI INIT a1b38 100 .cfa: sp 0 + .ra: lr
STACK CFI a1b3c .cfa: sp 24 + .ra: .cfa -4 + ^ r4: .cfa -24 + ^ r5: .cfa -20 + ^ r6: .cfa -16 + ^ r7: .cfa -12 + ^ r8: .cfa -8 + ^
STACK CFI a1b44 .cfa: sp 48 +
STACK CFI INIT a1c38 8 .cfa: sp 0 + .ra: lr
STACK CFI INIT a1c40 64 .cfa: sp 0 + .ra: lr
STACK CFI a1c44 .cfa: sp 16 + .ra: .cfa -4 + ^ r4: .cfa -16 + ^ r5: .cfa -12 + ^ r6: .cfa -8 + ^
STACK CFI INIT a1ca4 a4 .cfa: sp 0 + .ra: lr
STACK CFI a1ca8 .cfa: sp 16 + .ra: .cfa -4 + ^ r3: .cfa -16 + ^ r4: .cfa -12 + ^ r5: .cfa -8 + ^
STACK CFI INIT a1d58 a8 .cfa: sp 0 + .ra: lr
STACK CFI a1d5c .cfa: sp 16 + .ra: .cfa -4 + ^ r3: .cfa -16 + ^ r4: .cfa -12 + ^ r5: .cfa -8 + ^
STACK CFI INIT a1e10 b0 .cfa: sp 0 + .ra: lr
STACK CFI a1e14 .cfa: sp 16 + .ra: .cfa -4 + ^ r3: .cfa -16 + ^ r4: .cfa -12 + ^ r5: .cfa -8 + ^
STACK CFI INIT a1ed0 ac .cfa: sp 0 + .ra: lr
STACK CFI a1ed4 .cfa: sp 16 + .ra: .cfa -4 + ^ r3: .cfa -16 + ^ r4: .cfa -12 + ^ r5: .cfa -8 + ^
STACK CFI INIT a1f8c c8 .cfa: sp 0 + .ra: lr
STACK CFI a1f90 .cfa: sp 16 + .ra: .cfa -4 + ^ r3: .cfa -16 + ^ r4: .cfa -12 + ^ r5: .cfa -8 + ^
STACK CFI INIT a2054 8 .cfa: sp 0 + .ra: lr
STACK CFI INIT a206c d0 .cfa: sp 0 + .ra: lr
STACK CFI a2070 .cfa: sp 16 + .ra: .cfa -4 + ^ r3: .cfa -16 + ^ r4: .cfa -12 + ^ r5: .cfa -8 + ^
STACK CFI INIT a213c 8 .cfa: sp 0 + .ra: lr
STACK CFI INIT a2154 d8 .cfa: sp 0 + .ra: lr
STACK CFI a2158 .cfa: sp 32 + .ra: .cfa -4 + ^ r10: .cfa -8 + ^ r4: .cfa -32 + ^ r5: .cfa -28 + ^ r6: .cfa -24 + ^ r7: .cfa -20 + ^ r8: .cfa -16 + ^ r9: .cfa -12 + ^
STACK CFI a2174 .cfa: sp 48 +
STACK CFI INIT a222c 208 .cfa: sp 0 + .ra: lr
STACK CFI a2234 .cfa: sp 20 + .ra: .cfa -4 + ^ r4: .cfa -20 + ^ r5: .cfa -16 + ^ r6: .cfa -12 + ^ r7: .cfa -8 + ^
STACK CFI a223c .cfa: sp 56 +
STACK CFI INIT a2434 244 .cfa: sp 0 + .ra: lr
STACK CFI a2438 .cfa: sp 36 + .ra: .cfa -4 + ^ r10: .cfa -12 + ^ r11: .cfa -8 + ^ r4: .cfa -36 + ^ r5: .cfa -32 + ^ r6: .cfa -28 + ^ r7: .cfa -24 + ^ r8: .cfa -20 + ^ r9: .cfa -16 + ^
STACK CFI a2440 .cfa: sp 80 +
STACK CFI INIT a2678 cc .cfa: sp 0 + .ra: lr
STACK CFI a267c .cfa: sp 8 +
STACK CFI a2680 .cfa: sp 32 + .ra: .cfa -12 + ^ r4: .cfa -32 + ^ r5: .cfa -28 + ^ r6: .cfa -24 + ^ r7: .cfa -20 + ^ r8: .cfa -16 + ^
STACK CFI a2688 .cfa: sp 56 +
STACK CFI INIT a2744 208 .cfa: sp 0 + .ra: lr
STACK CFI a2748 .cfa: sp 20 + .ra: .cfa -4 + ^ r4: .cfa -20 + ^ r5: .cfa -16 + ^ r6: .cfa -12 + ^ r7: .cfa -8 + ^
STACK CFI a2750 .cfa: sp 48 +
STACK CFI INIT a294c 94 .cfa: sp 0 + .ra: lr
STACK CFI INIT a29e0 9c .cfa: sp 0 + .ra: lr
STACK CFI a29e8 .cfa: sp 16 + .ra: .cfa -4 + ^ r4: .cfa -16 + ^ r5: .cfa -12 + ^ r6: .cfa -8 + ^
STACK CFI INIT a2a7c ec .cfa: sp 0 + .ra: lr
STACK CFI a2a80 .cfa: sp 24 + .ra: .cfa -4 + ^ r3: .cfa -24 + ^ r4: .cfa -20 + ^ r5: .cfa -16 + ^ r6: .cfa -12 + ^ r7: .cfa -8 + ^
STACK CFI INIT a2b68 ec .cfa: sp 0 + .ra: lr
STACK CFI a2b70 .cfa: sp 24 + .ra: .cfa -4 + ^ r4: .cfa -24 + ^ r5: .cfa -20 + ^ r6: .cfa -16 + ^ r7: .cfa -12 + ^ r8: .cfa -8 + ^
STACK CFI INIT a2c54 140 .cfa: sp 0 + .ra: lr
STACK CFI a2c58 .cfa: sp 32 + .ra: .cfa -4 + ^ r3: .cfa -32 + ^ r4: .cfa -28 + ^ r5: .cfa -24 + ^ r6: .cfa -20 + ^ r7: .cfa -16 + ^ r8: .cfa -12 + ^ r9: .cfa -8 + ^
STACK CFI INIT a2d94 ec .cfa: sp 0 + .ra: lr
STACK CFI a2d9c .cfa: sp 24 + .ra: .cfa -4 + ^ r4: .cfa -24 + ^ r5: .cfa -20 + ^ r6: .cfa -16 + ^ r7: .cfa -12 + ^ r8: .cfa -8 + ^
STACK CFI INIT a2e80 140 .cfa: sp 0 + .ra: lr
STACK CFI a2e84 .cfa: sp 32 + .ra: .cfa -4 + ^ r3: .cfa -32 + ^ r4: .cfa -28 + ^ r5: .cfa -24 + ^ r6: .cfa -20 + ^ r7: .cfa -16 + ^ r8: .cfa -12 + ^ r9: .cfa -8 + ^
STACK CFI INIT a2fc0 8c .cfa: sp 0 + .ra: lr
STACK CFI a2fc8 .cfa: sp 16 + .ra: .cfa -4 + ^ r4: .cfa -16 + ^ r5: .cfa -12 + ^ r6: .cfa -8 + ^
STACK CFI INIT a304c 8 .cfa: sp 0 + .ra: lr
STACK CFI INIT a3054 8 .cfa: sp 0 + .ra: lr
STACK CFI INIT 0 8 .cfa: sp 0 + .ra: lr
STACK CFI INIT a305c 4c .cfa: sp 0 + .ra: lr
STACK CFI a3060 .cfa: sp 8 + .ra: .cfa -4 + ^ r4: .cfa -8 + ^
STACK CFI INIT a30a8 50 .cfa: sp 0 + .ra: lr
STACK CFI a30ac .cfa: sp 8 + .ra: .cfa -4 + ^ r4: .cfa -8 + ^
STACK CFI INIT a30f8 34 .cfa: sp 0 + .ra: lr
STACK CFI a30fc .cfa: sp 8 + .ra: .cfa -4 + ^ r4: .cfa -8 + ^
STACK CFI INIT a312c 8c .cfa: sp 0 + .ra: lr
STACK CFI a3134 .cfa: sp 16 + .ra: .cfa -4 + ^ r4: .cfa -16 + ^ r5: .cfa -12 + ^ r6: .cfa -8 + ^
STACK CFI INIT a31b8 e4 .cfa: sp 0 + .ra: lr
STACK CFI a31bc .cfa: sp 24 + .ra: .cfa -4 + ^ r3: .cfa -24 + ^ r4: .cfa -20 + ^ r5: .cfa -16 + ^ r6: .cfa -12 + ^ r7: .cfa -8 + ^
STACK CFI INIT a329c dc .cfa: sp 0 + .ra: lr
STACK CFI a32a0 .cfa: sp 24 + .ra: .cfa -4 + ^ r4: .cfa -24 + ^ r5: .cfa -20 + ^ r6: .cfa -16 + ^ r7: .cfa -12 + ^ r8: .cfa -8 + ^
STACK CFI INIT a3378 138 .cfa: sp 0 + .ra: lr
STACK CFI a337c .cfa: sp 32 + .ra: .cfa -4 + ^ r3: .cfa -32 + ^ r4: .cfa -28 + ^ r5: .cfa -24 + ^ r6: .cfa -20 + ^ r7: .cfa -16 + ^ r8: .cfa -12 + ^ r9: .cfa -8 + ^
STACK CFI INIT a34b0 dc .cfa: sp 0 + .ra: lr
STACK CFI a34b4 .cfa: sp 24 + .ra: .cfa -4 + ^ r4: .cfa -24 + ^ r5: .cfa -20 + ^ r6: .cfa -16 + ^ r7: .cfa -12 + ^ r8: .cfa -8 + ^
STACK CFI INIT a358c 138 .cfa: sp 0 + .ra: lr
STACK CFI a3590 .cfa: sp 32 + .ra: .cfa -4 + ^ r3: .cfa -32 + ^ r4: .cfa -28 + ^ r5: .cfa -24 + ^ r6: .cfa -20 + ^ r7: .cfa -16 + ^ r8: .cfa -12 + ^ r9: .cfa -8 + ^
STACK CFI INIT a36c4 84 .cfa: sp 0 + .ra: lr
STACK CFI a36cc .cfa: sp 16 + .ra: .cfa -4 + ^ r4: .cfa -16 + ^ r5: .cfa -12 + ^ r6: .cfa -8 + ^
STACK CFI INIT a3748 8 .cfa: sp 0 + .ra: lr
STACK CFI INIT a3750 8 .cfa: sp 0 + .ra: lr
STACK CFI INIT 0 8 .cfa: sp 0 + .ra: lr
STACK CFI INIT a3758 4c .cfa: sp 0 + .ra: lr
STACK CFI a375c .cfa: sp 8 + .ra: .cfa -4 + ^ r4: .cfa -8 + ^
STACK CFI INIT a37a4 50 .cfa: sp 0 + .ra: lr
STACK CFI a37a8 .cfa: sp 8 + .ra: .cfa -4 + ^ r4: .cfa -8 + ^
STACK CFI INIT a37f4 34 .cfa: sp 0 + .ra: lr
STACK CFI a37f8 .cfa: sp 8 + .ra: .cfa -4 + ^ r4: .cfa -8 + ^
STACK CFI INIT a3828 f8 .cfa: sp 0 + .ra: lr
STACK CFI a3830 .cfa: sp 16 + .ra: .cfa -4 + ^ r4: .cfa -16 + ^ r5: .cfa -12 + ^ r6: .cfa -8 + ^
STACK CFI INIT a3920 138 .cfa: sp 0 + .ra: lr
STACK CFI a3924 .cfa: sp 24 + .ra: .cfa -4 + ^ r3: .cfa -24 + ^ r4: .cfa -20 + ^ r5: .cfa -16 + ^ r6: .cfa -12 + ^ r7: .cfa -8 + ^
STACK CFI INIT a3a58 148 .cfa: sp 0 + .ra: lr
STACK CFI a3a5c .cfa: sp 24 + .ra: .cfa -4 + ^ r4: .cfa -24 + ^ r5: .cfa -20 + ^ r6: .cfa -16 + ^ r7: .cfa -12 + ^ r8: .cfa -8 + ^
STACK CFI INIT a3ba0 18c .cfa: sp 0 + .ra: lr
STACK CFI a3ba4 .cfa: sp 32 + .ra: .cfa -4 + ^ r3: .cfa -32 + ^ r4: .cfa -28 + ^ r5: .cfa -24 + ^ r6: .cfa -20 + ^ r7: .cfa -16 + ^ r8: .cfa -12 + ^ r9: .cfa -8 + ^
STACK CFI INIT a3d2c 148 .cfa: sp 0 + .ra: lr
STACK CFI a3d30 .cfa: sp 24 + .ra: .cfa -4 + ^ r4: .cfa -24 + ^ r5: .cfa -20 + ^ r6: .cfa -16 + ^ r7: .cfa -12 + ^ r8: .cfa -8 + ^
STACK CFI INIT a3e74 18c .cfa: sp 0 + .ra: lr
STACK CFI a3e78 .cfa: sp 32 + .ra: .cfa -4 + ^ r3: .cfa -32 + ^ r4: .cfa -28 + ^ r5: .cfa -24 + ^ r6: .cfa -20 + ^ r7: .cfa -16 + ^ r8: .cfa -12 + ^ r9: .cfa -8 + ^
STACK CFI INIT a4000 c8 .cfa: sp 0 + .ra: lr
STACK CFI a4008 .cfa: sp 16 + .ra: .cfa -4 + ^ r4: .cfa -16 + ^ r5: .cfa -12 + ^ r6: .cfa -8 + ^
STACK CFI INIT a40c8 8 .cfa: sp 0 + .ra: lr
STACK CFI INIT a40d0 8 .cfa: sp 0 + .ra: lr
STACK CFI INIT 0 8 .cfa: sp 0 + .ra: lr
STACK CFI INIT a40d8 48 .cfa: sp 0 + .ra: lr
STACK CFI a40dc .cfa: sp 8 + .ra: .cfa -4 + ^ r4: .cfa -8 + ^
STACK CFI INIT a4120 4c .cfa: sp 0 + .ra: lr
STACK CFI a4124 .cfa: sp 8 + .ra: .cfa -4 + ^ r4: .cfa -8 + ^
STACK CFI INIT a416c 34 .cfa: sp 0 + .ra: lr
STACK CFI a4170 .cfa: sp 8 + .ra: .cfa -4 + ^ r4: .cfa -8 + ^
STACK CFI INIT 9ef74 10 .cfa: sp 0 + .ra: lr
STACK CFI INIT 9f02c 10 .cfa: sp 0 + .ra: lr
STACK CFI INIT 9f0ec 10 .cfa: sp 0 + .ra: lr
STACK CFI INIT 9f1a8 10 .cfa: sp 0 + .ra: lr
STACK CFI INIT 9f288 10 .cfa: sp 0 + .ra: lr
STACK CFI INIT 9f370 10 .cfa: sp 0 + .ra: lr
STACK CFI INIT a1d48 10 .cfa: sp 0 + .ra: lr
STACK CFI INIT a1e00 10 .cfa: sp 0 + .ra: lr
STACK CFI INIT a1ec0 10 .cfa: sp 0 + .ra: lr
STACK CFI INIT a1f7c 10 .cfa: sp 0 + .ra: lr
STACK CFI INIT a205c 10 .cfa: sp 0 + .ra: lr
STACK CFI INIT a2144 10 .cfa: sp 0 + .ra: lr
STACK CFI INIT a41a0 8 .cfa: sp 0 + .ra: lr
STACK CFI INIT a41a8 2c .cfa: sp 0 + .ra: lr
STACK CFI INIT a41d4 8 .cfa: sp 0 + .ra: lr
STACK CFI INIT a41dc c .cfa: sp 0 + .ra: lr
STACK CFI INIT a41e8 8 .cfa: sp 0 + .ra: lr
STACK CFI INIT a41f0 c .cfa: sp 0 + .ra: lr
STACK CFI INIT a41fc c .cfa: sp 0 + .ra: lr
STACK CFI INIT a4208 8 .cfa: sp 0 + .ra: lr
STACK CFI INIT a4210 10 .cfa: sp 0 + .ra: lr
STACK CFI INIT a4220 24 .cfa: sp 0 + .ra: lr
STACK CFI a4224 .cfa: sp 8 + .ra: .cfa -4 + ^ r3: .cfa -8 + ^
STACK CFI INIT 0 28 .cfa: sp 0 + .ra: lr
STACK CFI 8 .cfa: sp 8 + .ra: .cfa -4 + ^ r4: .cfa -8 + ^
STACK CFI INIT a4244 18 .cfa: sp 0 + .ra: lr
STACK CFI INIT 0 2c .cfa: sp 0 + .ra: lr
STACK CFI INIT 0 18 .cfa: sp 0 + .ra: lr
STACK CFI INIT 0 18 .cfa: sp 0 + .ra: lr
STACK CFI INIT 0 1c .cfa: sp 0 + .ra: lr
STACK CFI INIT a425c 1c .cfa: sp 0 + .ra: lr
STACK CFI INIT a4278 1c .cfa: sp 0 + .ra: lr
STACK CFI INIT a4294 1c .cfa: sp 0 + .ra: lr
STACK CFI INIT a42b0 1c .cfa: sp 0 + .ra: lr
STACK CFI INIT a42cc 8 .cfa: sp 0 + .ra: lr
STACK CFI INIT a42d4 1c .cfa: sp 0 + .ra: lr
STACK CFI INIT a42f0 24 .cfa: sp 0 + .ra: lr
STACK CFI INIT a4314 8 .cfa: sp 0 + .ra: lr
STACK CFI INIT a431c 10 .cfa: sp 0 + .ra: lr
STACK CFI INIT a432c 14 .cfa: sp 0 + .ra: lr
STACK CFI INIT a4340 c .cfa: sp 0 + .ra: lr
STACK CFI INIT a434c 8 .cfa: sp 0 + .ra: lr
STACK CFI INIT a4354 10 .cfa: sp 0 + .ra: lr
STACK CFI INIT a4364 14 .cfa: sp 0 + .ra: lr
STACK CFI INIT a4378 c .cfa: sp 0 + .ra: lr
STACK CFI INIT a4384 c .cfa: sp 0 + .ra: lr
STACK CFI INIT a4390 8 .cfa: sp 0 + .ra: lr
STACK CFI INIT a4398 c .cfa: sp 0 + .ra: lr
STACK CFI INIT a43a4 14 .cfa: sp 0 + .ra: lr
STACK CFI INIT a43b8 c .cfa: sp 0 + .ra: lr
STACK CFI INIT a43c4 2c .cfa: sp 0 + .ra: lr
STACK CFI a43cc .cfa: sp 8 + .ra: .cfa -4 + ^ r3: .cfa -8 + ^
STACK CFI INIT a43f0 8 .cfa: sp 0 + .ra: lr
STACK CFI INIT a43f8 14 .cfa: sp 0 + .ra: lr
STACK CFI INIT a440c 6c .cfa: sp 0 + .ra: lr
STACK CFI a4410 .cfa: sp 16 + .ra: .cfa -4 + ^ r3: .cfa -16 + ^ r4: .cfa -12 + ^ r5: .cfa -8 + ^
STACK CFI INIT a4478 34 .cfa: sp 0 + .ra: lr
STACK CFI INIT a44ac 14 .cfa: sp 0 + .ra: lr
STACK CFI a44b0 .cfa: sp 8 + .ra: .cfa -4 + ^ r4: .cfa -8 + ^
STACK CFI INIT a44c0 14 .cfa: sp 0 + .ra: lr
STACK CFI a44c4 .cfa: sp 8 + .ra: .cfa -4 + ^ r4: .cfa -8 + ^
STACK CFI INIT a44d4 4 .cfa: sp 0 + .ra: lr
STACK CFI INIT a44d8 9c .cfa: sp 0 + .ra: lr
STACK CFI a44dc .cfa: sp 40 + .ra: .cfa -4 + ^ r10: .cfa -12 + ^ r11: .cfa -8 + ^ r3: .cfa -40 + ^ r4: .cfa -36 + ^ r5: .cfa -32 + ^ r6: .cfa -28 + ^ r7: .cfa -24 + ^ r8: .cfa -20 + ^ r9: .cfa -16 + ^
STACK CFI INIT a4574 c .cfa: sp 0 + .ra: lr
STACK CFI INIT a4580 30 .cfa: sp 0 + .ra: lr
STACK CFI a4584 .cfa: sp 16 + .ra: .cfa -4 + ^ r4: .cfa -16 + ^ r5: .cfa -12 + ^ r6: .cfa -8 + ^
STACK CFI INIT a45b0 3c .cfa: sp 0 + .ra: lr
STACK CFI a45b4 .cfa: sp 8 + .ra: .cfa -4 + ^ r4: .cfa -8 + ^
STACK CFI INIT a45ec 64 .cfa: sp 0 + .ra: lr
STACK CFI a45f0 .cfa: sp 24 + .ra: .cfa -4 + ^ r3: .cfa -24 + ^ r4: .cfa -20 + ^ r5: .cfa -16 + ^ r6: .cfa -12 + ^ r7: .cfa -8 + ^
STACK CFI INIT a4650 c .cfa: sp 0 + .ra: lr
STACK CFI INIT a465c 30 .cfa: sp 0 + .ra: lr
STACK CFI a4660 .cfa: sp 16 + .ra: .cfa -4 + ^ r4: .cfa -16 + ^ r5: .cfa -12 + ^ r6: .cfa -8 + ^
STACK CFI INIT a468c 44 .cfa: sp 0 + .ra: lr
STACK CFI INIT a46d0 58 .cfa: sp 0 + .ra: lr
STACK CFI a46d4 .cfa: sp 24 + .ra: .cfa -4 + ^ r4: .cfa -24 + ^ r5: .cfa -20 + ^ r6: .cfa -16 + ^ r7: .cfa -12 + ^ r8: .cfa -8 + ^
STACK CFI INIT a4728 c .cfa: sp 0 + .ra: lr
STACK CFI INIT a4734 30 .cfa: sp 0 + .ra: lr
STACK CFI a4738 .cfa: sp 16 + .ra: .cfa -4 + ^ r4: .cfa -16 + ^ r5: .cfa -12 + ^ r6: .cfa -8 + ^
STACK CFI INIT a4764 4 .cfa: sp 0 + .ra: lr
STACK CFI INIT a4768 68 .cfa: sp 0 + .ra: lr
STACK CFI a476c .cfa: sp 24 + .ra: .cfa -4 + ^ r3: .cfa -24 + ^ r4: .cfa -20 + ^ r5: .cfa -16 + ^ r6: .cfa -12 + ^ r7: .cfa -8 + ^
STACK CFI INIT a47d0 c .cfa: sp 0 + .ra: lr
STACK CFI INIT a47dc 30 .cfa: sp 0 + .ra: lr
STACK CFI a47e0 .cfa: sp 16 + .ra: .cfa -4 + ^ r4: .cfa -16 + ^ r5: .cfa -12 + ^ r6: .cfa -8 + ^
STACK CFI INIT a480c 4 .cfa: sp 0 + .ra: lr
STACK CFI INIT a4810 58 .cfa: sp 0 + .ra: lr
STACK CFI a4814 .cfa: sp 24 + .ra: .cfa -4 + ^ r4: .cfa -24 + ^ r5: .cfa -20 + ^ r6: .cfa -16 + ^ r7: .cfa -12 + ^ r8: .cfa -8 + ^
STACK CFI INIT a4868 c .cfa: sp 0 + .ra: lr
STACK CFI INIT a4874 30 .cfa: sp 0 + .ra: lr
STACK CFI a4878 .cfa: sp 16 + .ra: .cfa -4 + ^ r4: .cfa -16 + ^ r5: .cfa -12 + ^ r6: .cfa -8 + ^
STACK CFI INIT a48a4 4c .cfa: sp 0 + .ra: lr
STACK CFI INIT a48f0 64 .cfa: sp 0 + .ra: lr
STACK CFI a48f4 .cfa: sp 24 + .ra: .cfa -4 + ^ r3: .cfa -24 + ^ r4: .cfa -20 + ^ r5: .cfa -16 + ^ r6: .cfa -12 + ^ r7: .cfa -8 + ^
STACK CFI INIT a4954 c .cfa: sp 0 + .ra: lr
STACK CFI INIT a4960 30 .cfa: sp 0 + .ra: lr
STACK CFI a4964 .cfa: sp 16 + .ra: .cfa -4 + ^ r4: .cfa -16 + ^ r5: .cfa -12 + ^ r6: .cfa -8 + ^
STACK CFI INIT a4990 44 .cfa: sp 0 + .ra: lr
STACK CFI INIT a49d4 30 .cfa: sp 0 + .ra: lr
STACK CFI a49e0 .cfa: sp 16 + .ra: .cfa -4 + ^ r3: .cfa -16 + ^ r4: .cfa -12 + ^ r5: .cfa -8 + ^
STACK CFI INIT a4a04 60 .cfa: sp 0 + .ra: lr
STACK CFI a4a0c .cfa: sp 16 + .ra: .cfa -4 + ^ r3: .cfa -16 + ^ r4: .cfa -12 + ^ r5: .cfa -8 + ^
STACK CFI INIT a4a64 7c .cfa: sp 0 + .ra: lr
STACK CFI a4a6c .cfa: sp 16 + .ra: .cfa -4 + ^ r3: .cfa -16 + ^ r4: .cfa -12 + ^ r5: .cfa -8 + ^
STACK CFI INIT a4ae0 40 .cfa: sp 0 + .ra: lr
STACK CFI a4ae4 .cfa: sp 24 + .ra: .cfa -4 + ^ r3: .cfa -24 + ^ r4: .cfa -20 + ^ r5: .cfa -16 + ^ r6: .cfa -12 + ^ r7: .cfa -8 + ^
STACK CFI INIT a4b20 6c .cfa: sp 0 + .ra: lr
STACK CFI a4b24 .cfa: sp 24 + .ra: .cfa -4 + ^ r4: .cfa -24 + ^ r5: .cfa -20 + ^ r6: .cfa -16 + ^ r7: .cfa -12 + ^ r8: .cfa -8 + ^
STACK CFI INIT a4b8c 5c .cfa: sp 0 + .ra: lr
STACK CFI a4b94 .cfa: sp 16 + .ra: .cfa -4 + ^ r3: .cfa -16 + ^ r4: .cfa -12 + ^ r5: .cfa -8 + ^
STACK CFI INIT a4be8 8 .cfa: sp 0 + .ra: lr
STACK CFI INIT a4bf0 1c .cfa: sp 0 + .ra: lr
STACK CFI INIT a4c0c c .cfa: sp 0 + .ra: lr
STACK CFI INIT a4c18 14 .cfa: sp 0 + .ra: lr
STACK CFI INIT a4c2c c .cfa: sp 0 + .ra: lr
STACK CFI INIT a4c38 c .cfa: sp 0 + .ra: lr
STACK CFI INIT 0 34 .cfa: sp 0 + .ra: lr
STACK CFI INIT a4c44 8 .cfa: sp 0 + .ra: lr
STACK CFI INIT a4c4c 84 .cfa: sp 0 + .ra: lr
STACK CFI a4c54 .cfa: sp 8 + .ra: .cfa -4 + ^ r4: .cfa -8 + ^
STACK CFI INIT a4cd0 8c .cfa: sp 0 + .ra: lr
STACK CFI a4cd4 .cfa: sp 24 + .ra: .cfa -4 + ^ r3: .cfa -24 + ^ r4: .cfa -20 + ^ r5: .cfa -16 + ^ r6: .cfa -12 + ^ r7: .cfa -8 + ^
STACK CFI INIT a4d5c 24 .cfa: sp 0 + .ra: lr
STACK CFI a4d60 .cfa: sp 8 + .ra: .cfa -4 + ^ r4: .cfa -8 + ^
STACK CFI INIT a4d80 24 .cfa: sp 0 + .ra: lr
STACK CFI a4d84 .cfa: sp 8 + .ra: .cfa -4 + ^ r4: .cfa -8 + ^
STACK CFI INIT a4da4 4 .cfa: sp 0 + .ra: lr
STACK CFI INIT a4da8 4 .cfa: sp 0 + .ra: lr
STACK CFI INIT 45c88 60 .cfa: sp 0 + .ra: lr
STACK CFI 45c8c .cfa: sp 16 + .ra: .cfa -4 + ^ r3: .cfa -16 + ^ r4: .cfa -12 + ^ r5: .cfa -8 + ^
STACK CFI INIT a4dac 24 .cfa: sp 0 + .ra: lr
STACK CFI INIT a4dd0 4c .cfa: sp 0 + .ra: lr
STACK CFI a4ddc .cfa: sp 8 + .ra: .cfa -4 + ^ r4: .cfa -8 + ^
STACK CFI a4df8 .cfa: sp 16 +
STACK CFI INIT a4e1c 194 .cfa: sp 0 + .ra: lr
STACK CFI a4e24 .cfa: sp 36 + .ra: .cfa -4 + ^ r10: .cfa -12 + ^ r11: .cfa -8 + ^ r4: .cfa -36 + ^ r5: .cfa -32 + ^ r6: .cfa -28 + ^ r7: .cfa -24 + ^ r8: .cfa -20 + ^ r9: .cfa -16 + ^
STACK CFI a4e4c .cfa: sp 56 +
STACK CFI INIT a4fb0 5c .cfa: sp 0 + .ra: lr
STACK CFI a4fc4 .cfa: sp 8 + .ra: .cfa -4 + ^ r4: .cfa -8 + ^
STACK CFI INIT a500c 14 .cfa: sp 0 + .ra: lr
STACK CFI INIT a5020 28 .cfa: sp 0 + .ra: lr
STACK CFI a5028 .cfa: sp 8 + .ra: .cfa -4 + ^ r4: .cfa -8 + ^
STACK CFI INIT a5048 34 .cfa: sp 0 + .ra: lr
STACK CFI a504c .cfa: sp 16 + .ra: .cfa -4 + ^ r3: .cfa -16 + ^ r4: .cfa -12 + ^ r5: .cfa -8 + ^
STACK CFI INIT a507c 2c .cfa: sp 0 + .ra: lr
STACK CFI a5084 .cfa: sp 8 + .ra: .cfa -4 + ^ r4: .cfa -8 + ^
STACK CFI INIT a50a8 2c .cfa: sp 0 + .ra: lr
STACK CFI a50ac .cfa: sp 16 + .ra: .cfa -4 + ^ r3: .cfa -16 + ^ r4: .cfa -12 + ^ r5: .cfa -8 + ^
STACK CFI INIT a50d4 28 .cfa: sp 0 + .ra: lr
STACK CFI a50dc .cfa: sp 8 + .ra: .cfa -4 + ^ r4: .cfa -8 + ^
STACK CFI INIT a50fc 30 .cfa: sp 0 + .ra: lr
STACK CFI a5100 .cfa: sp 16 + .ra: .cfa -4 + ^ r3: .cfa -16 + ^ r4: .cfa -12 + ^ r5: .cfa -8 + ^
STACK CFI INIT a512c 48 .cfa: sp 0 + .ra: lr
STACK CFI a5130 .cfa: sp 16 + .ra: .cfa -4 + ^ r3: .cfa -16 + ^ r4: .cfa -12 + ^ r5: .cfa -8 + ^
STACK CFI INIT a5174 3c .cfa: sp 0 + .ra: lr
STACK CFI a5178 .cfa: sp 16 + .ra: .cfa -4 + ^ r3: .cfa -16 + ^ r4: .cfa -12 + ^ r5: .cfa -8 + ^
STACK CFI INIT a51b0 14 .cfa: sp 0 + .ra: lr
STACK CFI INIT a51c4 44 .cfa: sp 0 + .ra: lr
STACK CFI a51cc .cfa: sp 8 + .ra: .cfa -4 + ^ r4: .cfa -8 + ^
STACK CFI INIT a5208 34 .cfa: sp 0 + .ra: lr
STACK CFI a520c .cfa: sp 16 + .ra: .cfa -4 + ^ r3: .cfa -16 + ^ r4: .cfa -12 + ^ r5: .cfa -8 + ^
STACK CFI INIT a523c 40 .cfa: sp 0 + .ra: lr
STACK CFI a5244 .cfa: sp 16 + .ra: .cfa -4 + ^ r3: .cfa -16 + ^ r4: .cfa -12 + ^ r5: .cfa -8 + ^
STACK CFI INIT a527c 74 .cfa: sp 0 + .ra: lr
STACK CFI a5280 .cfa: sp 24 + .ra: .cfa -4 + ^ r3: .cfa -24 + ^ r4: .cfa -20 + ^ r5: .cfa -16 + ^ r6: .cfa -12 + ^ r7: .cfa -8 + ^
STACK CFI INIT a52f0 2c .cfa: sp 0 + .ra: lr
STACK CFI a52f8 .cfa: sp 4 + .ra: .cfa -4 + ^
STACK CFI a5300 .cfa: sp 16 +
STACK CFI INIT a531c 30 .cfa: sp 0 + .ra: lr
STACK CFI a5324 .cfa: sp 8 + .ra: .cfa -4 + ^ r4: .cfa -8 + ^
STACK CFI a5328 .cfa: sp 16 +
STACK CFI INIT a534c 40 .cfa: sp 0 + .ra: lr
STACK CFI a5354 .cfa: sp 4 + .ra: .cfa -4 + ^
STACK CFI a535c .cfa: sp 16 +
STACK CFI INIT a538c 40 .cfa: sp 0 + .ra: lr
STACK CFI a5390 .cfa: sp 12 + .ra: .cfa -4 + ^ r4: .cfa -12 + ^ r5: .cfa -8 + ^
STACK CFI a5398 .cfa: sp 24 +
STACK CFI INIT a53cc 40 .cfa: sp 0 + .ra: lr
STACK CFI a53d0 .cfa: sp 16 + .ra: .cfa -4 + ^ r4: .cfa -16 + ^ r5: .cfa -12 + ^ r6: .cfa -8 + ^
STACK CFI INIT a540c 20 .cfa: sp 0 + .ra: lr
STACK CFI a5410 .cfa: sp 4 + r4: .cfa -4 + ^
STACK CFI INIT a542c 2c .cfa: sp 0 + .ra: lr
STACK CFI a5430 .cfa: sp 4 + .ra: .cfa -4 + ^
STACK CFI a543c .cfa: sp 16 +
STACK CFI INIT a5458 58 .cfa: sp 0 + .ra: lr
STACK CFI a545c .cfa: sp 24 + .ra: .cfa -4 + ^ r3: .cfa -24 + ^ r4: .cfa -20 + ^ r5: .cfa -16 + ^ r6: .cfa -12 + ^ r7: .cfa -8 + ^
STACK CFI INIT a54b0 100 .cfa: sp 0 + .ra: lr
STACK CFI a54b4 .cfa: sp 20 + .ra: .cfa -4 + ^ r4: .cfa -20 + ^ r5: .cfa -16 + ^ r6: .cfa -12 + ^ r7: .cfa -8 + ^
STACK CFI a54c4 .cfa: sp 32 +
STACK CFI INIT a55b0 28 .cfa: sp 0 + .ra: lr
STACK CFI a55b4 .cfa: sp 8 + .ra: .cfa -4 + ^ r4: .cfa -8 + ^
STACK CFI a55b8 .cfa: sp 16 +
STACK CFI INIT a55d8 40 .cfa: sp 0 + .ra: lr
STACK CFI a55e0 .cfa: sp 8 + .ra: .cfa -4 + ^ r4: .cfa -8 + ^
STACK CFI INIT a5618 28 .cfa: sp 0 + .ra: lr
STACK CFI a561c .cfa: sp 16 + .ra: .cfa -4 + ^ r3: .cfa -16 + ^ r4: .cfa -12 + ^ r5: .cfa -8 + ^
STACK CFI INIT a5640 18 .cfa: sp 0 + .ra: lr
STACK CFI a5644 .cfa: sp 8 +
STACK CFI INIT a5658 28 .cfa: sp 0 + .ra: lr
STACK CFI a565c .cfa: sp 16 + .ra: .cfa -4 + ^ r3: .cfa -16 + ^ r4: .cfa -12 + ^ r5: .cfa -8 + ^
STACK CFI INIT a5680 180 .cfa: sp 0 + .ra: lr
STACK CFI a5684 .cfa: sp 24 + .ra: .cfa -4 + ^ r4: .cfa -24 + ^ r5: .cfa -20 + ^ r6: .cfa -16 + ^ r7: .cfa -12 + ^ r8: .cfa -8 + ^
STACK CFI a568c .cfa: sp 32 +
STACK CFI INIT a5800 28 .cfa: sp 0 + .ra: lr
STACK CFI a5804 .cfa: sp 4 + r4: .cfa -4 + ^
STACK CFI a5808 .cfa: sp 16 +
STACK CFI INIT a5828 44 .cfa: sp 0 + .ra: lr
STACK CFI a5830 .cfa: sp 8 + .ra: .cfa -4 + ^ r4: .cfa -8 + ^
STACK CFI INIT a586c 30 .cfa: sp 0 + .ra: lr
STACK CFI a5870 .cfa: sp 16 + .ra: .cfa -4 + ^ r4: .cfa -16 + ^ r5: .cfa -12 + ^ r6: .cfa -8 + ^
STACK CFI INIT a589c c .cfa: sp 0 + .ra: lr
STACK CFI INIT a58a8 38 .cfa: sp 0 + .ra: lr
STACK CFI a58b0 .cfa: sp 8 + .ra: .cfa -4 + ^ r4: .cfa -8 + ^
STACK CFI INIT a58e0 64 .cfa: sp 0 + .ra: lr
STACK CFI a58f0 .cfa: sp 8 + .ra: .cfa -4 + ^ r4: .cfa -8 + ^
STACK CFI INIT a5944 94 .cfa: sp 0 + .ra: lr
STACK CFI a5948 .cfa: sp 16 + .ra: .cfa -4 + ^ r4: .cfa -16 + ^ r5: .cfa -12 + ^ r6: .cfa -8 + ^
STACK CFI INIT a59d8 90 .cfa: sp 0 + .ra: lr
STACK CFI a59e0 .cfa: sp 20 + .ra: .cfa -4 + ^ r4: .cfa -20 + ^ r5: .cfa -16 + ^ r6: .cfa -12 + ^ r7: .cfa -8 + ^
STACK CFI a59f0 .cfa: sp 32 +
STACK CFI INIT a5a68 30 .cfa: sp 0 + .ra: lr
STACK CFI a5a6c .cfa: sp 8 + .ra: .cfa -4 + ^ r3: .cfa -8 + ^
STACK CFI INIT a5a98 b8 .cfa: sp 0 + .ra: lr
STACK CFI a5a9c .cfa: sp 24 + .ra: .cfa -4 + ^ r4: .cfa -24 + ^ r5: .cfa -20 + ^ r6: .cfa -16 + ^ r7: .cfa -12 + ^ r8: .cfa -8 + ^
STACK CFI INIT a5b50 4 .cfa: sp 0 + .ra: lr
STACK CFI INIT a5b54 e4 .cfa: sp 0 + .ra: lr
STACK CFI a5b58 .cfa: sp 32 + .ra: .cfa -4 + ^ r10: .cfa -8 + ^ r4: .cfa -32 + ^ r5: .cfa -28 + ^ r6: .cfa -24 + ^ r7: .cfa -20 + ^ r8: .cfa -16 + ^ r9: .cfa -12 + ^
STACK CFI INIT a5c38 10c .cfa: sp 0 + .ra: lr
STACK CFI a5c3c .cfa: sp 24 + .ra: .cfa -4 + ^ r4: .cfa -24 + ^ r5: .cfa -20 + ^ r6: .cfa -16 + ^ r7: .cfa -12 + ^ r8: .cfa -8 + ^
STACK CFI INIT a5d44 18 .cfa: sp 0 + .ra: lr
STACK CFI a5d48 .cfa: sp 8 +
STACK CFI INIT a5d5c 28 .cfa: sp 0 + .ra: lr
STACK CFI a5d60 .cfa: sp 16 + .ra: .cfa -4 + ^ r3: .cfa -16 + ^ r4: .cfa -12 + ^ r5: .cfa -8 + ^
STACK CFI INIT a5d84 18 .cfa: sp 0 + .ra: lr
STACK CFI a5d88 .cfa: sp 8 +
STACK CFI INIT a5d9c 28 .cfa: sp 0 + .ra: lr
STACK CFI a5da0 .cfa: sp 16 + .ra: .cfa -4 + ^ r3: .cfa -16 + ^ r4: .cfa -12 + ^ r5: .cfa -8 + ^
STACK CFI INIT a5dc4 c8 .cfa: sp 0 + .ra: lr
STACK CFI a5dc8 .cfa: sp 24 + .ra: .cfa -4 + ^ r4: .cfa -24 + ^ r5: .cfa -20 + ^ r6: .cfa -16 + ^ r7: .cfa -12 + ^ r8: .cfa -8 + ^
STACK CFI INIT a5e8c 4c .cfa: sp 0 + .ra: lr
STACK CFI a5e98 .cfa: sp 8 + .ra: .cfa -4 + ^ r4: .cfa -8 + ^
STACK CFI INIT a5ed8 8 .cfa: sp 0 + .ra: lr
STACK CFI INIT a5ee0 80 .cfa: sp 0 + .ra: lr
STACK CFI a5ee4 .cfa: sp 24 + .ra: .cfa -4 + ^ r3: .cfa -24 + ^ r4: .cfa -20 + ^ r5: .cfa -16 + ^ r6: .cfa -12 + ^ r7: .cfa -8 + ^
STACK CFI INIT a5f60 84 .cfa: sp 0 + .ra: lr
STACK CFI a5f64 .cfa: sp 24 + .ra: .cfa -4 + ^ r3: .cfa -24 + ^ r4: .cfa -20 + ^ r5: .cfa -16 + ^ r6: .cfa -12 + ^ r7: .cfa -8 + ^
STACK CFI INIT a5fe4 78 .cfa: sp 0 + .ra: lr
STACK CFI a5ff4 .cfa: sp 8 + .ra: .cfa -4 + ^ r4: .cfa -8 + ^
STACK CFI INIT a605c a0 .cfa: sp 0 + .ra: lr
STACK CFI a6060 .cfa: sp 12 + .ra: .cfa -4 + ^ r4: .cfa -12 + ^ r5: .cfa -8 + ^
STACK CFI a6070 .cfa: sp 24 +
STACK CFI INIT a60fc d4 .cfa: sp 0 + .ra: lr
STACK CFI a6100 .cfa: sp 20 + .ra: .cfa -4 + ^ r4: .cfa -20 + ^ r5: .cfa -16 + ^ r6: .cfa -12 + ^ r7: .cfa -8 + ^
STACK CFI a6120 .cfa: sp 32 +
STACK CFI INIT a61d0 4 .cfa: sp 0 + .ra: lr
STACK CFI INIT a61d4 9c .cfa: sp 0 + .ra: lr
STACK CFI a61d8 .cfa: sp 24 + .ra: .cfa -4 + ^ r4: .cfa -24 + ^ r5: .cfa -20 + ^ r6: .cfa -16 + ^ r7: .cfa -12 + ^ r8: .cfa -8 + ^
STACK CFI a61e0 .cfa: sp 32 +
STACK CFI INIT a6270 88 .cfa: sp 0 + .ra: lr
STACK CFI a6280 .cfa: sp 20 + .ra: .cfa -4 + ^ r4: .cfa -20 + ^ r5: .cfa -16 + ^ r6: .cfa -12 + ^ r7: .cfa -8 + ^
STACK CFI a62a0 .cfa: sp 32 +
STACK CFI INIT a62f8 60 .cfa: sp 0 + .ra: lr
STACK CFI a62fc .cfa: sp 12 + .ra: .cfa -4 + ^ r4: .cfa -12 + ^ r5: .cfa -8 + ^
STACK CFI a6304 .cfa: sp 24 +
STACK CFI INIT a6358 98 .cfa: sp 0 + .ra: lr
STACK CFI a635c .cfa: sp 24 + .ra: .cfa -4 + ^ r3: .cfa -24 + ^ r4: .cfa -20 + ^ r5: .cfa -16 + ^ r6: .cfa -12 + ^ r7: .cfa -8 + ^
STACK CFI INIT a63f0 28 .cfa: sp 0 + .ra: lr
STACK CFI a63f4 .cfa: sp 8 + .ra: .cfa -4 + ^ r4: .cfa -8 + ^
STACK CFI INIT a6418 cc .cfa: sp 0 + .ra: lr
STACK CFI a641c .cfa: sp 24 + .ra: .cfa -4 + ^ r3: .cfa -24 + ^ r4: .cfa -20 + ^ r5: .cfa -16 + ^ r6: .cfa -12 + ^ r7: .cfa -8 + ^
STACK CFI INIT a64e4 60 .cfa: sp 0 + .ra: lr
STACK CFI a64ec .cfa: sp 8 + .ra: .cfa -4 + ^ r4: .cfa -8 + ^
STACK CFI a64f4 .cfa: sp 16 +
STACK CFI INIT a6544 34 .cfa: sp 0 + .ra: lr
STACK CFI a654c .cfa: sp 8 + .ra: .cfa -4 + ^ r4: .cfa -8 + ^
STACK CFI INIT a6578 58 .cfa: sp 0 + .ra: lr
STACK CFI a6580 .cfa: sp 8 + .ra: .cfa -4 + ^ r4: .cfa -8 + ^
STACK CFI INIT a65d0 28 .cfa: sp 0 + .ra: lr
STACK CFI a65d4 .cfa: sp 8 + .ra: .cfa -4 + ^ r4: .cfa -8 + ^
STACK CFI INIT a65f8 cc .cfa: sp 0 + .ra: lr
STACK CFI a65fc .cfa: sp 24 + .ra: .cfa -4 + ^ r3: .cfa -24 + ^ r4: .cfa -20 + ^ r5: .cfa -16 + ^ r6: .cfa -12 + ^ r7: .cfa -8 + ^
STACK CFI INIT a66c4 28 .cfa: sp 0 + .ra: lr
STACK CFI a66c8 .cfa: sp 8 + .ra: .cfa -4 + ^ r4: .cfa -8 + ^
STACK CFI INIT a66ec 1b8 .cfa: sp 0 + .ra: lr
STACK CFI a66f0 .cfa: sp 28 + .ra: .cfa -4 + ^ r4: .cfa -28 + ^ r5: .cfa -24 + ^ r6: .cfa -20 + ^ r7: .cfa -16 + ^ r8: .cfa -12 + ^ r9: .cfa -8 + ^
STACK CFI a6708 .cfa: sp 48 +
STACK CFI INIT a68a4 20 .cfa: sp 0 + .ra: lr
STACK CFI a68ac .cfa: sp 4 + .ra: .cfa -4 + ^
STACK CFI a68b4 .cfa: sp 16 +
STACK CFI INIT a68c4 48 .cfa: sp 0 + .ra: lr
STACK CFI a68cc .cfa: sp 16 + .ra: .cfa -4 + ^ r4: .cfa -16 + ^ r5: .cfa -12 + ^ r6: .cfa -8 + ^
STACK CFI INIT a690c 40 .cfa: sp 0 + .ra: lr
STACK CFI a6910 .cfa: sp 20 + .ra: .cfa -4 + ^ r4: .cfa -20 + ^ r5: .cfa -16 + ^ r6: .cfa -12 + ^ r7: .cfa -8 + ^
STACK CFI a6918 .cfa: sp 32 +
STACK CFI INIT a694c 10 .cfa: sp 0 + .ra: lr
STACK CFI INIT a695c 2c .cfa: sp 0 + .ra: lr
STACK CFI a6964 .cfa: sp 4 + .ra: .cfa -4 + ^
STACK CFI a696c .cfa: sp 16 +
STACK CFI INIT a6988 44 .cfa: sp 0 + .ra: lr
STACK CFI a698c .cfa: sp 20 + .ra: .cfa -4 + ^ r4: .cfa -20 + ^ r5: .cfa -16 + ^ r6: .cfa -12 + ^ r7: .cfa -8 + ^
STACK CFI a6994 .cfa: sp 32 +
STACK CFI INIT a69cc 24 .cfa: sp 0 + .ra: lr
STACK CFI a69d0 .cfa: sp 4 + r4: .cfa -4 + ^
STACK CFI INIT a69f0 24 .cfa: sp 0 + .ra: lr
STACK CFI a69f4 .cfa: sp 4 + r4: .cfa -4 + ^
STACK CFI INIT a6a14 1c .cfa: sp 0 + .ra: lr
STACK CFI a6a1c .cfa: sp 8 +
STACK CFI INIT a6a30 24 .cfa: sp 0 + .ra: lr
STACK CFI a6a34 .cfa: sp 4 + r4: .cfa -4 + ^
STACK CFI INIT a6a54 24 .cfa: sp 0 + .ra: lr
STACK CFI a6a58 .cfa: sp 4 + r4: .cfa -4 + ^
STACK CFI INIT a6a78 40 .cfa: sp 0 + .ra: lr
STACK CFI a6a7c .cfa: sp 16 + .ra: .cfa -4 + ^ r4: .cfa -16 + ^ r5: .cfa -12 + ^ r6: .cfa -8 + ^
STACK CFI INIT a6ab8 40 .cfa: sp 0 + .ra: lr
STACK CFI a6abc .cfa: sp 8 + .ra: .cfa -4 + ^ r4: .cfa -8 + ^
STACK CFI a6ac0 .cfa: sp 16 +
STACK CFI INIT a6af8 28 .cfa: sp 0 + .ra: lr
STACK CFI a6afc .cfa: sp 8 + .ra: .cfa -4 + ^ r4: .cfa -8 + ^
STACK CFI INIT 0 18 .cfa: sp 0 + .ra: lr
STACK CFI INIT 0 18 .cfa: sp 0 + .ra: lr
STACK CFI INIT 45ce8 18 .cfa: sp 0 + .ra: lr
STACK CFI INIT a6b20 8 .cfa: sp 0 + .ra: lr
STACK CFI INIT a6b28 2c .cfa: sp 0 + .ra: lr
STACK CFI INIT a6b54 8 .cfa: sp 0 + .ra: lr
STACK CFI INIT a6b5c c .cfa: sp 0 + .ra: lr
STACK CFI INIT a6b68 8 .cfa: sp 0 + .ra: lr
STACK CFI INIT a6b70 c .cfa: sp 0 + .ra: lr
STACK CFI INIT a6b7c c .cfa: sp 0 + .ra: lr
STACK CFI INIT a6b88 8 .cfa: sp 0 + .ra: lr
STACK CFI INIT a6b90 10 .cfa: sp 0 + .ra: lr
STACK CFI INIT a6ba0 24 .cfa: sp 0 + .ra: lr
STACK CFI a6ba4 .cfa: sp 8 + .ra: .cfa -4 + ^ r3: .cfa -8 + ^
STACK CFI INIT 0 28 .cfa: sp 0 + .ra: lr
STACK CFI 8 .cfa: sp 8 + .ra: .cfa -4 + ^ r4: .cfa -8 + ^
STACK CFI INIT a6bc4 18 .cfa: sp 0 + .ra: lr
STACK CFI INIT 0 2c .cfa: sp 0 + .ra: lr
STACK CFI INIT 0 18 .cfa: sp 0 + .ra: lr
STACK CFI INIT 0 18 .cfa: sp 0 + .ra: lr
STACK CFI INIT 0 1c .cfa: sp 0 + .ra: lr
STACK CFI INIT a6bdc 20 .cfa: sp 0 + .ra: lr
STACK CFI INIT a6bfc 20 .cfa: sp 0 + .ra: lr
STACK CFI INIT a6c1c 20 .cfa: sp 0 + .ra: lr
STACK CFI INIT a6c3c 20 .cfa: sp 0 + .ra: lr
STACK CFI INIT a6c5c 8 .cfa: sp 0 + .ra: lr
STACK CFI INIT a6c64 1c .cfa: sp 0 + .ra: lr
STACK CFI INIT a6c80 24 .cfa: sp 0 + .ra: lr
STACK CFI INIT a6ca4 8 .cfa: sp 0 + .ra: lr
STACK CFI INIT a6cac 10 .cfa: sp 0 + .ra: lr
STACK CFI INIT a6cbc 14 .cfa: sp 0 + .ra: lr
STACK CFI INIT a6cd0 c .cfa: sp 0 + .ra: lr
STACK CFI INIT a6cdc 8 .cfa: sp 0 + .ra: lr
STACK CFI INIT a6ce4 10 .cfa: sp 0 + .ra: lr
STACK CFI INIT a6cf4 14 .cfa: sp 0 + .ra: lr
STACK CFI INIT a6d08 c .cfa: sp 0 + .ra: lr
STACK CFI INIT a6d14 c .cfa: sp 0 + .ra: lr
STACK CFI INIT a6d20 8 .cfa: sp 0 + .ra: lr
STACK CFI INIT a6d28 c .cfa: sp 0 + .ra: lr
STACK CFI INIT a6d34 14 .cfa: sp 0 + .ra: lr
STACK CFI INIT a6d48 c .cfa: sp 0 + .ra: lr
STACK CFI INIT a6d54 2c .cfa: sp 0 + .ra: lr
STACK CFI a6d5c .cfa: sp 8 + .ra: .cfa -4 + ^ r3: .cfa -8 + ^
STACK CFI INIT a6d80 8 .cfa: sp 0 + .ra: lr
STACK CFI INIT a6d88 14 .cfa: sp 0 + .ra: lr
STACK CFI INIT a6d9c 6c .cfa: sp 0 + .ra: lr
STACK CFI a6da0 .cfa: sp 16 + .ra: .cfa -4 + ^ r3: .cfa -16 + ^ r4: .cfa -12 + ^ r5: .cfa -8 + ^
STACK CFI INIT a6e08 34 .cfa: sp 0 + .ra: lr
STACK CFI INIT a6e3c 14 .cfa: sp 0 + .ra: lr
STACK CFI a6e40 .cfa: sp 8 + .ra: .cfa -4 + ^ r4: .cfa -8 + ^
STACK CFI INIT a6e50 14 .cfa: sp 0 + .ra: lr
STACK CFI a6e54 .cfa: sp 8 + .ra: .cfa -4 + ^ r4: .cfa -8 + ^
STACK CFI INIT a6e64 4 .cfa: sp 0 + .ra: lr
STACK CFI INIT a6e68 9c .cfa: sp 0 + .ra: lr
STACK CFI a6e6c .cfa: sp 32 + .ra: .cfa -4 + ^ r10: .cfa -8 + ^ r4: .cfa -32 + ^ r5: .cfa -28 + ^ r6: .cfa -24 + ^ r7: .cfa -20 + ^ r8: .cfa -16 + ^ r9: .cfa -12 + ^
STACK CFI INIT a6f04 c .cfa: sp 0 + .ra: lr
STACK CFI INIT a6f10 30 .cfa: sp 0 + .ra: lr
STACK CFI a6f14 .cfa: sp 16 + .ra: .cfa -4 + ^ r4: .cfa -16 + ^ r5: .cfa -12 + ^ r6: .cfa -8 + ^
STACK CFI INIT a6f40 40 .cfa: sp 0 + .ra: lr
STACK CFI a6f44 .cfa: sp 8 + .ra: .cfa -4 + ^ r4: .cfa -8 + ^
STACK CFI INIT a6f80 6c .cfa: sp 0 + .ra: lr
STACK CFI a6f84 .cfa: sp 24 + .ra: .cfa -4 + ^ r3: .cfa -24 + ^ r4: .cfa -20 + ^ r5: .cfa -16 + ^ r6: .cfa -12 + ^ r7: .cfa -8 + ^
STACK CFI INIT a6fec c .cfa: sp 0 + .ra: lr
STACK CFI INIT a6ff8 30 .cfa: sp 0 + .ra: lr
STACK CFI a6ffc .cfa: sp 16 + .ra: .cfa -4 + ^ r4: .cfa -16 + ^ r5: .cfa -12 + ^ r6: .cfa -8 + ^
STACK CFI INIT a7028 50 .cfa: sp 0 + .ra: lr
STACK CFI INIT a7078 60 .cfa: sp 0 + .ra: lr
STACK CFI a707c .cfa: sp 24 + .ra: .cfa -4 + ^ r4: .cfa -24 + ^ r5: .cfa -20 + ^ r6: .cfa -16 + ^ r7: .cfa -12 + ^ r8: .cfa -8 + ^
STACK CFI INIT a70d8 c .cfa: sp 0 + .ra: lr
STACK CFI INIT a70e4 30 .cfa: sp 0 + .ra: lr
STACK CFI a70e8 .cfa: sp 16 + .ra: .cfa -4 + ^ r4: .cfa -16 + ^ r5: .cfa -12 + ^ r6: .cfa -8 + ^
STACK CFI INIT a7114 4 .cfa: sp 0 + .ra: lr
STACK CFI INIT a7118 70 .cfa: sp 0 + .ra: lr
STACK CFI a7120 .cfa: sp 24 + .ra: .cfa -4 + ^ r3: .cfa -24 + ^ r4: .cfa -20 + ^ r5: .cfa -16 + ^ r6: .cfa -12 + ^ r7: .cfa -8 + ^
STACK CFI INIT a7188 c .cfa: sp 0 + .ra: lr
STACK CFI INIT a7194 30 .cfa: sp 0 + .ra: lr
STACK CFI a7198 .cfa: sp 16 + .ra: .cfa -4 + ^ r4: .cfa -16 + ^ r5: .cfa -12 + ^ r6: .cfa -8 + ^
STACK CFI INIT a71c4 4 .cfa: sp 0 + .ra: lr
STACK CFI INIT a71c8 60 .cfa: sp 0 + .ra: lr
STACK CFI a71d0 .cfa: sp 24 + .ra: .cfa -4 + ^ r4: .cfa -24 + ^ r5: .cfa -20 + ^ r6: .cfa -16 + ^ r7: .cfa -12 + ^ r8: .cfa -8 + ^
STACK CFI INIT a7228 c .cfa: sp 0 + .ra: lr
STACK CFI INIT a7234 30 .cfa: sp 0 + .ra: lr
STACK CFI a7238 .cfa: sp 16 + .ra: .cfa -4 + ^ r4: .cfa -16 + ^ r5: .cfa -12 + ^ r6: .cfa -8 + ^
STACK CFI INIT a7264 4c .cfa: sp 0 + .ra: lr
STACK CFI INIT a72b0 6c .cfa: sp 0 + .ra: lr
STACK CFI a72b8 .cfa: sp 24 + .ra: .cfa -4 + ^ r3: .cfa -24 + ^ r4: .cfa -20 + ^ r5: .cfa -16 + ^ r6: .cfa -12 + ^ r7: .cfa -8 + ^
STACK CFI INIT a731c c .cfa: sp 0 + .ra: lr
STACK CFI INIT a7328 30 .cfa: sp 0 + .ra: lr
STACK CFI a732c .cfa: sp 16 + .ra: .cfa -4 + ^ r4: .cfa -16 + ^ r5: .cfa -12 + ^ r6: .cfa -8 + ^
STACK CFI INIT a7358 4c .cfa: sp 0 + .ra: lr
STACK CFI INIT a73a4 30 .cfa: sp 0 + .ra: lr
STACK CFI a73b0 .cfa: sp 16 + .ra: .cfa -4 + ^ r3: .cfa -16 + ^ r4: .cfa -12 + ^ r5: .cfa -8 + ^
STACK CFI INIT a73d4 60 .cfa: sp 0 + .ra: lr
STACK CFI a73dc .cfa: sp 16 + .ra: .cfa -4 + ^ r3: .cfa -16 + ^ r4: .cfa -12 + ^ r5: .cfa -8 + ^
STACK CFI INIT a7434 7c .cfa: sp 0 + .ra: lr
STACK CFI a743c .cfa: sp 16 + .ra: .cfa -4 + ^ r3: .cfa -16 + ^ r4: .cfa -12 + ^ r5: .cfa -8 + ^
STACK CFI INIT a74b0 40 .cfa: sp 0 + .ra: lr
STACK CFI a74b4 .cfa: sp 24 + .ra: .cfa -4 + ^ r3: .cfa -24 + ^ r4: .cfa -20 + ^ r5: .cfa -16 + ^ r6: .cfa -12 + ^ r7: .cfa -8 + ^
STACK CFI INIT a74f0 6c .cfa: sp 0 + .ra: lr
STACK CFI a74f4 .cfa: sp 24 + .ra: .cfa -4 + ^ r4: .cfa -24 + ^ r5: .cfa -20 + ^ r6: .cfa -16 + ^ r7: .cfa -12 + ^ r8: .cfa -8 + ^
STACK CFI INIT a755c 5c .cfa: sp 0 + .ra: lr
STACK CFI a7564 .cfa: sp 16 + .ra: .cfa -4 + ^ r3: .cfa -16 + ^ r4: .cfa -12 + ^ r5: .cfa -8 + ^
STACK CFI INIT a75b8 8 .cfa: sp 0 + .ra: lr
STACK CFI INIT a75c0 1c .cfa: sp 0 + .ra: lr
STACK CFI INIT a75dc c .cfa: sp 0 + .ra: lr
STACK CFI INIT a75e8 14 .cfa: sp 0 + .ra: lr
STACK CFI INIT a75fc c .cfa: sp 0 + .ra: lr
STACK CFI INIT a7608 c .cfa: sp 0 + .ra: lr
STACK CFI INIT 0 24 .cfa: sp 0 + .ra: lr
STACK CFI INIT a7614 8 .cfa: sp 0 + .ra: lr
STACK CFI INIT a761c 94 .cfa: sp 0 + .ra: lr
STACK CFI a7624 .cfa: sp 8 + .ra: .cfa -4 + ^ r4: .cfa -8 + ^
STACK CFI INIT a76b0 84 .cfa: sp 0 + .ra: lr
STACK CFI a76b4 .cfa: sp 24 + .ra: .cfa -4 + ^ r4: .cfa -24 + ^ r5: .cfa -20 + ^ r6: .cfa -16 + ^ r7: .cfa -12 + ^ r8: .cfa -8 + ^
STACK CFI INIT a7734 24 .cfa: sp 0 + .ra: lr
STACK CFI a7738 .cfa: sp 8 + .ra: .cfa -4 + ^ r4: .cfa -8 + ^
STACK CFI INIT a7758 24 .cfa: sp 0 + .ra: lr
STACK CFI a775c .cfa: sp 8 + .ra: .cfa -4 + ^ r4: .cfa -8 + ^
STACK CFI INIT a777c 4 .cfa: sp 0 + .ra: lr
STACK CFI INIT a7780 4 .cfa: sp 0 + .ra: lr
STACK CFI INIT 45d00 60 .cfa: sp 0 + .ra: lr
STACK CFI 45d04 .cfa: sp 16 + .ra: .cfa -4 + ^ r3: .cfa -16 + ^ r4: .cfa -12 + ^ r5: .cfa -8 + ^
STACK CFI INIT a7784 24 .cfa: sp 0 + .ra: lr
STACK CFI INIT a77a8 4c .cfa: sp 0 + .ra: lr
STACK CFI a77b4 .cfa: sp 8 + .ra: .cfa -4 + ^ r4: .cfa -8 + ^
STACK CFI a77d0 .cfa: sp 16 +
STACK CFI INIT a77f4 1a0 .cfa: sp 0 + .ra: lr
STACK CFI a77fc .cfa: sp 36 + .ra: .cfa -4 + ^ r10: .cfa -12 + ^ r11: .cfa -8 + ^ r4: .cfa -36 + ^ r5: .cfa -32 + ^ r6: .cfa -28 + ^ r7: .cfa -24 + ^ r8: .cfa -20 + ^ r9: .cfa -16 + ^
STACK CFI a7824 .cfa: sp 56 +
STACK CFI INIT a7994 5c .cfa: sp 0 + .ra: lr
STACK CFI a79a8 .cfa: sp 8 + .ra: .cfa -4 + ^ r4: .cfa -8 + ^
STACK CFI INIT a79f0 14 .cfa: sp 0 + .ra: lr
STACK CFI INIT a7a04 28 .cfa: sp 0 + .ra: lr
STACK CFI a7a0c .cfa: sp 8 + .ra: .cfa -4 + ^ r4: .cfa -8 + ^
STACK CFI INIT a7a2c 34 .cfa: sp 0 + .ra: lr
STACK CFI a7a30 .cfa: sp 16 + .ra: .cfa -4 + ^ r3: .cfa -16 + ^ r4: .cfa -12 + ^ r5: .cfa -8 + ^
STACK CFI INIT a7a60 2c .cfa: sp 0 + .ra: lr
STACK CFI a7a68 .cfa: sp 8 + .ra: .cfa -4 + ^ r4: .cfa -8 + ^
STACK CFI INIT a7a8c 2c .cfa: sp 0 + .ra: lr
STACK CFI a7a90 .cfa: sp 16 + .ra: .cfa -4 + ^ r3: .cfa -16 + ^ r4: .cfa -12 + ^ r5: .cfa -8 + ^
STACK CFI INIT a7ab8 28 .cfa: sp 0 + .ra: lr
STACK CFI a7ac0 .cfa: sp 8 + .ra: .cfa -4 + ^ r4: .cfa -8 + ^
STACK CFI INIT a7ae0 30 .cfa: sp 0 + .ra: lr
STACK CFI a7ae4 .cfa: sp 16 + .ra: .cfa -4 + ^ r3: .cfa -16 + ^ r4: .cfa -12 + ^ r5: .cfa -8 + ^
STACK CFI INIT a7b10 48 .cfa: sp 0 + .ra: lr
STACK CFI a7b14 .cfa: sp 16 + .ra: .cfa -4 + ^ r3: .cfa -16 + ^ r4: .cfa -12 + ^ r5: .cfa -8 + ^
STACK CFI INIT a7b58 3c .cfa: sp 0 + .ra: lr
STACK CFI a7b5c .cfa: sp 16 + .ra: .cfa -4 + ^ r3: .cfa -16 + ^ r4: .cfa -12 + ^ r5: .cfa -8 + ^
STACK CFI INIT a7b94 14 .cfa: sp 0 + .ra: lr
STACK CFI INIT a7ba8 44 .cfa: sp 0 + .ra: lr
STACK CFI a7bb0 .cfa: sp 8 + .ra: .cfa -4 + ^ r4: .cfa -8 + ^
STACK CFI INIT a7bec 38 .cfa: sp 0 + .ra: lr
STACK CFI a7bf0 .cfa: sp 16 + .ra: .cfa -4 + ^ r3: .cfa -16 + ^ r4: .cfa -12 + ^ r5: .cfa -8 + ^
STACK CFI INIT a7c24 48 .cfa: sp 0 + .ra: lr
STACK CFI a7c30 .cfa: sp 16 + .ra: .cfa -4 + ^ r3: .cfa -16 + ^ r4: .cfa -12 + ^ r5: .cfa -8 + ^
STACK CFI INIT a7c6c 7c .cfa: sp 0 + .ra: lr
STACK CFI a7c70 .cfa: sp 16 + .ra: .cfa -4 + ^ r4: .cfa -16 + ^ r5: .cfa -12 + ^ r6: .cfa -8 + ^
STACK CFI INIT a7ce8 2c .cfa: sp 0 + .ra: lr
STACK CFI a7cf0 .cfa: sp 4 + .ra: .cfa -4 + ^
STACK CFI a7cf8 .cfa: sp 16 +
STACK CFI INIT a7d14 30 .cfa: sp 0 + .ra: lr
STACK CFI a7d1c .cfa: sp 8 + .ra: .cfa -4 + ^ r4: .cfa -8 + ^
STACK CFI a7d20 .cfa: sp 16 +
STACK CFI INIT a7d44 40 .cfa: sp 0 + .ra: lr
STACK CFI a7d4c .cfa: sp 4 + .ra: .cfa -4 + ^
STACK CFI a7d54 .cfa: sp 16 +
STACK CFI INIT a7d84 44 .cfa: sp 0 + .ra: lr
STACK CFI a7d88 .cfa: sp 12 + .ra: .cfa -4 + ^ r4: .cfa -12 + ^ r5: .cfa -8 + ^
STACK CFI a7d90 .cfa: sp 24 +
STACK CFI INIT a7dc8 40 .cfa: sp 0 + .ra: lr
STACK CFI a7dcc .cfa: sp 16 + .ra: .cfa -4 + ^ r4: .cfa -16 + ^ r5: .cfa -12 + ^ r6: .cfa -8 + ^
STACK CFI INIT a7e08 18 .cfa: sp 0 + .ra: lr
STACK CFI INIT a7e20 30 .cfa: sp 0 + .ra: lr
STACK CFI a7e24 .cfa: sp 4 + .ra: .cfa -4 + ^
STACK CFI a7e30 .cfa: sp 16 +
STACK CFI INIT a7e50 58 .cfa: sp 0 + .ra: lr
STACK CFI a7e54 .cfa: sp 24 + .ra: .cfa -4 + ^ r3: .cfa -24 + ^ r4: .cfa -20 + ^ r5: .cfa -16 + ^ r6: .cfa -12 + ^ r7: .cfa -8 + ^
STACK CFI INIT a7ea8 f8 .cfa: sp 0 + .ra: lr
STACK CFI a7eac .cfa: sp 20 + .ra: .cfa -4 + ^ r4: .cfa -20 + ^ r5: .cfa -16 + ^ r6: .cfa -12 + ^ r7: .cfa -8 + ^
STACK CFI a7ebc .cfa: sp 32 +
STACK CFI INIT a7fa0 28 .cfa: sp 0 + .ra: lr
STACK CFI a7fa4 .cfa: sp 8 + .ra: .cfa -4 + ^ r4: .cfa -8 + ^
STACK CFI a7fa8 .cfa: sp 16 +
STACK CFI INIT a7fc8 40 .cfa: sp 0 + .ra: lr
STACK CFI a7fd0 .cfa: sp 8 + .ra: .cfa -4 + ^ r4: .cfa -8 + ^
STACK CFI INIT a8008 28 .cfa: sp 0 + .ra: lr
STACK CFI a800c .cfa: sp 16 + .ra: .cfa -4 + ^ r3: .cfa -16 + ^ r4: .cfa -12 + ^ r5: .cfa -8 + ^
STACK CFI INIT a8030 18 .cfa: sp 0 + .ra: lr
STACK CFI a8034 .cfa: sp 8 +
STACK CFI INIT a8048 28 .cfa: sp 0 + .ra: lr
STACK CFI a804c .cfa: sp 16 + .ra: .cfa -4 + ^ r3: .cfa -16 + ^ r4: .cfa -12 + ^ r5: .cfa -8 + ^
STACK CFI INIT a8070 188 .cfa: sp 0 + .ra: lr
STACK CFI a8074 .cfa: sp 32 + .ra: .cfa -4 + ^ r10: .cfa -8 + ^ r4: .cfa -32 + ^ r5: .cfa -28 + ^ r6: .cfa -24 + ^ r7: .cfa -20 + ^ r8: .cfa -16 + ^ r9: .cfa -12 + ^
STACK CFI a807c .cfa: sp 40 +
STACK CFI INIT a81f8 2c .cfa: sp 0 + .ra: lr
STACK CFI a81fc .cfa: sp 4 + r4: .cfa -4 + ^
STACK CFI a8204 .cfa: sp 16 +
STACK CFI INIT a8224 44 .cfa: sp 0 + .ra: lr
STACK CFI a822c .cfa: sp 8 + .ra: .cfa -4 + ^ r4: .cfa -8 + ^
STACK CFI INIT a8268 30 .cfa: sp 0 + .ra: lr
STACK CFI a826c .cfa: sp 16 + .ra: .cfa -4 + ^ r4: .cfa -16 + ^ r5: .cfa -12 + ^ r6: .cfa -8 + ^
STACK CFI INIT a8298 c .cfa: sp 0 + .ra: lr
STACK CFI INIT a82a4 38 .cfa: sp 0 + .ra: lr
STACK CFI a82ac .cfa: sp 8 + .ra: .cfa -4 + ^ r4: .cfa -8 + ^
STACK CFI INIT a82dc 64 .cfa: sp 0 + .ra: lr
STACK CFI a82ec .cfa: sp 8 + .ra: .cfa -4 + ^ r4: .cfa -8 + ^
STACK CFI INIT a8340 98 .cfa: sp 0 + .ra: lr
STACK CFI a8344 .cfa: sp 24 + .ra: .cfa -4 + ^ r3: .cfa -24 + ^ r4: .cfa -20 + ^ r5: .cfa -16 + ^ r6: .cfa -12 + ^ r7: .cfa -8 + ^
STACK CFI INIT a83d8 90 .cfa: sp 0 + .ra: lr
STACK CFI a83e0 .cfa: sp 20 + .ra: .cfa -4 + ^ r4: .cfa -20 + ^ r5: .cfa -16 + ^ r6: .cfa -12 + ^ r7: .cfa -8 + ^
STACK CFI a83f0 .cfa: sp 32 +
STACK CFI INIT a8468 30 .cfa: sp 0 + .ra: lr
STACK CFI a846c .cfa: sp 8 + .ra: .cfa -4 + ^ r3: .cfa -8 + ^
STACK CFI INIT a8498 b8 .cfa: sp 0 + .ra: lr
STACK CFI a849c .cfa: sp 24 + .ra: .cfa -4 + ^ r4: .cfa -24 + ^ r5: .cfa -20 + ^ r6: .cfa -16 + ^ r7: .cfa -12 + ^ r8: .cfa -8 + ^
STACK CFI INIT a8550 4 .cfa: sp 0 + .ra: lr
STACK CFI INIT a8554 e4 .cfa: sp 0 + .ra: lr
STACK CFI a8558 .cfa: sp 32 + .ra: .cfa -4 + ^ r10: .cfa -8 + ^ r4: .cfa -32 + ^ r5: .cfa -28 + ^ r6: .cfa -24 + ^ r7: .cfa -20 + ^ r8: .cfa -16 + ^ r9: .cfa -12 + ^
STACK CFI INIT a8638 110 .cfa: sp 0 + .ra: lr
STACK CFI a863c .cfa: sp 24 + .ra: .cfa -4 + ^ r4: .cfa -24 + ^ r5: .cfa -20 + ^ r6: .cfa -16 + ^ r7: .cfa -12 + ^ r8: .cfa -8 + ^
STACK CFI INIT a8748 18 .cfa: sp 0 + .ra: lr
STACK CFI a874c .cfa: sp 8 +
STACK CFI INIT a8760 28 .cfa: sp 0 + .ra: lr
STACK CFI a8764 .cfa: sp 16 + .ra: .cfa -4 + ^ r3: .cfa -16 + ^ r4: .cfa -12 + ^ r5: .cfa -8 + ^
STACK CFI INIT a8788 18 .cfa: sp 0 + .ra: lr
STACK CFI a878c .cfa: sp 8 +
STACK CFI INIT a87a0 28 .cfa: sp 0 + .ra: lr
STACK CFI a87a4 .cfa: sp 16 + .ra: .cfa -4 + ^ r3: .cfa -16 + ^ r4: .cfa -12 + ^ r5: .cfa -8 + ^
STACK CFI INIT a87c8 c8 .cfa: sp 0 + .ra: lr
STACK CFI a87cc .cfa: sp 24 + .ra: .cfa -4 + ^ r4: .cfa -24 + ^ r5: .cfa -20 + ^ r6: .cfa -16 + ^ r7: .cfa -12 + ^ r8: .cfa -8 + ^
STACK CFI INIT a8890 4c .cfa: sp 0 + .ra: lr
STACK CFI a889c .cfa: sp 8 + .ra: .cfa -4 + ^ r4: .cfa -8 + ^
STACK CFI INIT a88dc 8 .cfa: sp 0 + .ra: lr
STACK CFI INIT a88e4 78 .cfa: sp 0 + .ra: lr
STACK CFI a88e8 .cfa: sp 24 + .ra: .cfa -4 + ^ r3: .cfa -24 + ^ r4: .cfa -20 + ^ r5: .cfa -16 + ^ r6: .cfa -12 + ^ r7: .cfa -8 + ^
STACK CFI INIT a895c 80 .cfa: sp 0 + .ra: lr
STACK CFI a8960 .cfa: sp 24 + .ra: .cfa -4 + ^ r3: .cfa -24 + ^ r4: .cfa -20 + ^ r5: .cfa -16 + ^ r6: .cfa -12 + ^ r7: .cfa -8 + ^
STACK CFI INIT a89dc 78 .cfa: sp 0 + .ra: lr
STACK CFI a89ec .cfa: sp 8 + .ra: .cfa -4 + ^ r4: .cfa -8 + ^
STACK CFI INIT a8a54 a0 .cfa: sp 0 + .ra: lr
STACK CFI a8a58 .cfa: sp 12 + .ra: .cfa -4 + ^ r4: .cfa -12 + ^ r5: .cfa -8 + ^
STACK CFI a8a68 .cfa: sp 24 +
STACK CFI INIT a8af4 d4 .cfa: sp 0 + .ra: lr
STACK CFI a8af8 .cfa: sp 20 + .ra: .cfa -4 + ^ r4: .cfa -20 + ^ r5: .cfa -16 + ^ r6: .cfa -12 + ^ r7: .cfa -8 + ^
STACK CFI a8b18 .cfa: sp 32 +
STACK CFI INIT a8bc8 4 .cfa: sp 0 + .ra: lr
STACK CFI INIT a8bcc 9c .cfa: sp 0 + .ra: lr
STACK CFI a8bd0 .cfa: sp 24 + .ra: .cfa -4 + ^ r4: .cfa -24 + ^ r5: .cfa -20 + ^ r6: .cfa -16 + ^ r7: .cfa -12 + ^ r8: .cfa -8 + ^
STACK CFI a8bd8 .cfa: sp 32 +
STACK CFI INIT a8c68 88 .cfa: sp 0 + .ra: lr
STACK CFI a8c78 .cfa: sp 20 + .ra: .cfa -4 + ^ r4: .cfa -20 + ^ r5: .cfa -16 + ^ r6: .cfa -12 + ^ r7: .cfa -8 + ^
STACK CFI a8c98 .cfa: sp 32 +
STACK CFI INIT a8cf0 60 .cfa: sp 0 + .ra: lr
STACK CFI a8cf4 .cfa: sp 12 + .ra: .cfa -4 + ^ r4: .cfa -12 + ^ r5: .cfa -8 + ^
STACK CFI a8cfc .cfa: sp 24 +
STACK CFI INIT a8d50 9c .cfa: sp 0 + .ra: lr
STACK CFI a8d54 .cfa: sp 24 + .ra: .cfa -4 + ^ r4: .cfa -24 + ^ r5: .cfa -20 + ^ r6: .cfa -16 + ^ r7: .cfa -12 + ^ r8: .cfa -8 + ^
STACK CFI INIT a8dec 28 .cfa: sp 0 + .ra: lr
STACK CFI a8df0 .cfa: sp 8 + .ra: .cfa -4 + ^ r4: .cfa -8 + ^
STACK CFI INIT a8e14 d0 .cfa: sp 0 + .ra: lr
STACK CFI a8e18 .cfa: sp 24 + .ra: .cfa -4 + ^ r4: .cfa -24 + ^ r5: .cfa -20 + ^ r6: .cfa -16 + ^ r7: .cfa -12 + ^ r8: .cfa -8 + ^
STACK CFI INIT a8ee4 60 .cfa: sp 0 + .ra: lr
STACK CFI a8eec .cfa: sp 8 + .ra: .cfa -4 + ^ r4: .cfa -8 + ^
STACK CFI a8ef4 .cfa: sp 16 +
STACK CFI INIT a8f44 34 .cfa: sp 0 + .ra: lr
STACK CFI a8f4c .cfa: sp 8 + .ra: .cfa -4 + ^ r4: .cfa -8 + ^
STACK CFI INIT a8f78 58 .cfa: sp 0 + .ra: lr
STACK CFI a8f80 .cfa: sp 8 + .ra: .cfa -4 + ^ r4: .cfa -8 + ^
STACK CFI INIT a8fd0 28 .cfa: sp 0 + .ra: lr
STACK CFI a8fd4 .cfa: sp 8 + .ra: .cfa -4 + ^ r4: .cfa -8 + ^
STACK CFI INIT a8ff8 d0 .cfa: sp 0 + .ra: lr
STACK CFI a8ffc .cfa: sp 24 + .ra: .cfa -4 + ^ r4: .cfa -24 + ^ r5: .cfa -20 + ^ r6: .cfa -16 + ^ r7: .cfa -12 + ^ r8: .cfa -8 + ^
STACK CFI INIT a90c8 28 .cfa: sp 0 + .ra: lr
STACK CFI a90cc .cfa: sp 8 + .ra: .cfa -4 + ^ r4: .cfa -8 + ^
STACK CFI INIT a90f0 1c0 .cfa: sp 0 + .ra: lr
STACK CFI a90f8 .cfa: sp 28 + .ra: .cfa -4 + ^ r4: .cfa -28 + ^ r5: .cfa -24 + ^ r6: .cfa -20 + ^ r7: .cfa -16 + ^ r8: .cfa -12 + ^ r9: .cfa -8 + ^
STACK CFI a9108 .cfa: sp 48 +
STACK CFI INIT a92b0 20 .cfa: sp 0 + .ra: lr
STACK CFI a92b8 .cfa: sp 4 + .ra: .cfa -4 + ^
STACK CFI a92c0 .cfa: sp 16 +
STACK CFI INIT a92d0 48 .cfa: sp 0 + .ra: lr
STACK CFI a92d8 .cfa: sp 16 + .ra: .cfa -4 + ^ r4: .cfa -16 + ^ r5: .cfa -12 + ^ r6: .cfa -8 + ^
STACK CFI INIT a9318 40 .cfa: sp 0 + .ra: lr
STACK CFI a931c .cfa: sp 20 + .ra: .cfa -4 + ^ r4: .cfa -20 + ^ r5: .cfa -16 + ^ r6: .cfa -12 + ^ r7: .cfa -8 + ^
STACK CFI a9324 .cfa: sp 32 +
STACK CFI INIT a9358 18 .cfa: sp 0 + .ra: lr
STACK CFI INIT a9370 34 .cfa: sp 0 + .ra: lr
STACK CFI a937c .cfa: sp 4 + .ra: .cfa -4 + ^
STACK CFI a9384 .cfa: sp 16 +
STACK CFI INIT a93a4 4c .cfa: sp 0 + .ra: lr
STACK CFI a93a8 .cfa: sp 20 + .ra: .cfa -4 + ^ r4: .cfa -20 + ^ r5: .cfa -16 + ^ r6: .cfa -12 + ^ r7: .cfa -8 + ^
STACK CFI a93b0 .cfa: sp 32 +
STACK CFI INIT a93f0 30 .cfa: sp 0 + .ra: lr
STACK CFI a93f4 .cfa: sp 4 + r4: .cfa -4 + ^
STACK CFI INIT a9420 30 .cfa: sp 0 + .ra: lr
STACK CFI a9424 .cfa: sp 4 + r4: .cfa -4 + ^
STACK CFI INIT a9450 30 .cfa: sp 0 + .ra: lr
STACK CFI a9454 .cfa: sp 4 + r4: .cfa -4 + ^
STACK CFI INIT a9480 30 .cfa: sp 0 + .ra: lr
STACK CFI a9484 .cfa: sp 4 + r4: .cfa -4 + ^
STACK CFI INIT a94b0 3c .cfa: sp 0 + .ra: lr
STACK CFI a94b4 .cfa: sp 8 +
STACK CFI a94b8 .cfa: sp 12 + r4: .cfa -12 + ^
STACK CFI INIT a94ec 40 .cfa: sp 0 + .ra: lr
STACK CFI a94f0 .cfa: sp 16 + .ra: .cfa -4 + ^ r4: .cfa -16 + ^ r5: .cfa -12 + ^ r6: .cfa -8 + ^
STACK CFI INIT a952c 40 .cfa: sp 0 + .ra: lr
STACK CFI a9530 .cfa: sp 8 + .ra: .cfa -4 + ^ r4: .cfa -8 + ^
STACK CFI a9534 .cfa: sp 16 +
STACK CFI INIT a956c 28 .cfa: sp 0 + .ra: lr
STACK CFI a9570 .cfa: sp 8 + .ra: .cfa -4 + ^ r4: .cfa -8 + ^
STACK CFI INIT 0 18 .cfa: sp 0 + .ra: lr
STACK CFI INIT 0 18 .cfa: sp 0 + .ra: lr
STACK CFI INIT a9594 2c .cfa: sp 0 + .ra: lr
STACK CFI INIT a95c0 38 .cfa: sp 0 + .ra: lr
STACK CFI a95c4 .cfa: sp 24 + .ra: .cfa -4 + ^ r3: .cfa -24 + ^ r4: .cfa -20 + ^ r5: .cfa -16 + ^ r6: .cfa -12 + ^ r7: .cfa -8 + ^
STACK CFI INIT a95f8 38 .cfa: sp 0 + .ra: lr
STACK CFI a95fc .cfa: sp 24 + .ra: .cfa -4 + ^ r3: .cfa -24 + ^ r4: .cfa -20 + ^ r5: .cfa -16 + ^ r6: .cfa -12 + ^ r7: .cfa -8 + ^
STACK CFI INIT a9630 38 .cfa: sp 0 + .ra: lr
STACK CFI a9634 .cfa: sp 24 + .ra: .cfa -4 + ^ r3: .cfa -24 + ^ r4: .cfa -20 + ^ r5: .cfa -16 + ^ r6: .cfa -12 + ^ r7: .cfa -8 + ^
STACK CFI INIT a9668 38 .cfa: sp 0 + .ra: lr
STACK CFI a966c .cfa: sp 24 + .ra: .cfa -4 + ^ r3: .cfa -24 + ^ r4: .cfa -20 + ^ r5: .cfa -16 + ^ r6: .cfa -12 + ^ r7: .cfa -8 + ^
STACK CFI INIT a96a0 38 .cfa: sp 0 + .ra: lr
STACK CFI a96a4 .cfa: sp 24 + .ra: .cfa -4 + ^ r3: .cfa -24 + ^ r4: .cfa -20 + ^ r5: .cfa -16 + ^ r6: .cfa -12 + ^ r7: .cfa -8 + ^
STACK CFI INIT a96d8 3c .cfa: sp 0 + .ra: lr
STACK CFI a96dc .cfa: sp 24 + .ra: .cfa -4 + ^ r3: .cfa -24 + ^ r4: .cfa -20 + ^ r5: .cfa -16 + ^ r6: .cfa -12 + ^ r7: .cfa -8 + ^
STACK CFI INIT a9714 64 .cfa: sp 0 + .ra: lr
STACK CFI a9718 .cfa: sp 32 + .ra: .cfa -4 + ^ r10: .cfa -8 + ^ r4: .cfa -32 + ^ r5: .cfa -28 + ^ r6: .cfa -24 + ^ r7: .cfa -20 + ^ r8: .cfa -16 + ^ r9: .cfa -12 + ^
STACK CFI INIT a9778 64 .cfa: sp 0 + .ra: lr
STACK CFI a977c .cfa: sp 32 + .ra: .cfa -4 + ^ r10: .cfa -8 + ^ r4: .cfa -32 + ^ r5: .cfa -28 + ^ r6: .cfa -24 + ^ r7: .cfa -20 + ^ r8: .cfa -16 + ^ r9: .cfa -12 + ^
STACK CFI INIT a97dc 64 .cfa: sp 0 + .ra: lr
STACK CFI a97e0 .cfa: sp 32 + .ra: .cfa -4 + ^ r10: .cfa -8 + ^ r4: .cfa -32 + ^ r5: .cfa -28 + ^ r6: .cfa -24 + ^ r7: .cfa -20 + ^ r8: .cfa -16 + ^ r9: .cfa -12 + ^
STACK CFI INIT a9840 64 .cfa: sp 0 + .ra: lr
STACK CFI a9844 .cfa: sp 32 + .ra: .cfa -4 + ^ r10: .cfa -8 + ^ r4: .cfa -32 + ^ r5: .cfa -28 + ^ r6: .cfa -24 + ^ r7: .cfa -20 + ^ r8: .cfa -16 + ^ r9: .cfa -12 + ^
STACK CFI INIT a98a4 64 .cfa: sp 0 + .ra: lr
STACK CFI a98a8 .cfa: sp 32 + .ra: .cfa -4 + ^ r10: .cfa -8 + ^ r4: .cfa -32 + ^ r5: .cfa -28 + ^ r6: .cfa -24 + ^ r7: .cfa -20 + ^ r8: .cfa -16 + ^ r9: .cfa -12 + ^
STACK CFI INIT a9908 68 .cfa: sp 0 + .ra: lr
STACK CFI a990c .cfa: sp 32 + .ra: .cfa -4 + ^ r10: .cfa -8 + ^ r4: .cfa -32 + ^ r5: .cfa -28 + ^ r6: .cfa -24 + ^ r7: .cfa -20 + ^ r8: .cfa -16 + ^ r9: .cfa -12 + ^
STACK CFI INIT a9970 60 .cfa: sp 0 + .ra: lr
STACK CFI a9974 .cfa: sp 32 + .ra: .cfa -4 + ^ r10: .cfa -8 + ^ r4: .cfa -32 + ^ r5: .cfa -28 + ^ r6: .cfa -24 + ^ r7: .cfa -20 + ^ r8: .cfa -16 + ^ r9: .cfa -12 + ^
STACK CFI INIT a99d0 60 .cfa: sp 0 + .ra: lr
STACK CFI a99d4 .cfa: sp 32 + .ra: .cfa -4 + ^ r10: .cfa -8 + ^ r4: .cfa -32 + ^ r5: .cfa -28 + ^ r6: .cfa -24 + ^ r7: .cfa -20 + ^ r8: .cfa -16 + ^ r9: .cfa -12 + ^
STACK CFI INIT a9a30 60 .cfa: sp 0 + .ra: lr
STACK CFI a9a34 .cfa: sp 32 + .ra: .cfa -4 + ^ r10: .cfa -8 + ^ r4: .cfa -32 + ^ r5: .cfa -28 + ^ r6: .cfa -24 + ^ r7: .cfa -20 + ^ r8: .cfa -16 + ^ r9: .cfa -12 + ^
STACK CFI INIT a9a90 60 .cfa: sp 0 + .ra: lr
STACK CFI a9a94 .cfa: sp 32 + .ra: .cfa -4 + ^ r10: .cfa -8 + ^ r4: .cfa -32 + ^ r5: .cfa -28 + ^ r6: .cfa -24 + ^ r7: .cfa -20 + ^ r8: .cfa -16 + ^ r9: .cfa -12 + ^
STACK CFI INIT a9af0 60 .cfa: sp 0 + .ra: lr
STACK CFI a9af4 .cfa: sp 32 + .ra: .cfa -4 + ^ r10: .cfa -8 + ^ r4: .cfa -32 + ^ r5: .cfa -28 + ^ r6: .cfa -24 + ^ r7: .cfa -20 + ^ r8: .cfa -16 + ^ r9: .cfa -12 + ^
STACK CFI INIT a9b50 64 .cfa: sp 0 + .ra: lr
STACK CFI a9b54 .cfa: sp 32 + .ra: .cfa -4 + ^ r10: .cfa -8 + ^ r4: .cfa -32 + ^ r5: .cfa -28 + ^ r6: .cfa -24 + ^ r7: .cfa -20 + ^ r8: .cfa -16 + ^ r9: .cfa -12 + ^
STACK CFI INIT a9bb4 38 .cfa: sp 0 + .ra: lr
STACK CFI a9bb8 .cfa: sp 24 + .ra: .cfa -4 + ^ r3: .cfa -24 + ^ r4: .cfa -20 + ^ r5: .cfa -16 + ^ r6: .cfa -12 + ^ r7: .cfa -8 + ^
STACK CFI INIT a9bec 38 .cfa: sp 0 + .ra: lr
STACK CFI a9bf0 .cfa: sp 24 + .ra: .cfa -4 + ^ r3: .cfa -24 + ^ r4: .cfa -20 + ^ r5: .cfa -16 + ^ r6: .cfa -12 + ^ r7: .cfa -8 + ^
STACK CFI INIT a9c24 38 .cfa: sp 0 + .ra: lr
STACK CFI a9c28 .cfa: sp 24 + .ra: .cfa -4 + ^ r3: .cfa -24 + ^ r4: .cfa -20 + ^ r5: .cfa -16 + ^ r6: .cfa -12 + ^ r7: .cfa -8 + ^
STACK CFI INIT a9c5c 38 .cfa: sp 0 + .ra: lr
STACK CFI a9c60 .cfa: sp 24 + .ra: .cfa -4 + ^ r3: .cfa -24 + ^ r4: .cfa -20 + ^ r5: .cfa -16 + ^ r6: .cfa -12 + ^ r7: .cfa -8 + ^
STACK CFI INIT a9c94 38 .cfa: sp 0 + .ra: lr
STACK CFI a9c98 .cfa: sp 24 + .ra: .cfa -4 + ^ r3: .cfa -24 + ^ r4: .cfa -20 + ^ r5: .cfa -16 + ^ r6: .cfa -12 + ^ r7: .cfa -8 + ^
STACK CFI INIT a9ccc 3c .cfa: sp 0 + .ra: lr
STACK CFI a9cd0 .cfa: sp 24 + .ra: .cfa -4 + ^ r3: .cfa -24 + ^ r4: .cfa -20 + ^ r5: .cfa -16 + ^ r6: .cfa -12 + ^ r7: .cfa -8 + ^
STACK CFI INIT a9d08 6c .cfa: sp 0 + .ra: lr
STACK CFI a9d0c .cfa: sp 32 + .ra: .cfa -4 + ^ r10: .cfa -8 + ^ r4: .cfa -32 + ^ r5: .cfa -28 + ^ r6: .cfa -24 + ^ r7: .cfa -20 + ^ r8: .cfa -16 + ^ r9: .cfa -12 + ^
STACK CFI INIT a9d74 6c .cfa: sp 0 + .ra: lr
STACK CFI a9d78 .cfa: sp 32 + .ra: .cfa -4 + ^ r10: .cfa -8 + ^ r4: .cfa -32 + ^ r5: .cfa -28 + ^ r6: .cfa -24 + ^ r7: .cfa -20 + ^ r8: .cfa -16 + ^ r9: .cfa -12 + ^
STACK CFI INIT a9de0 6c .cfa: sp 0 + .ra: lr
STACK CFI a9de4 .cfa: sp 32 + .ra: .cfa -4 + ^ r10: .cfa -8 + ^ r4: .cfa -32 + ^ r5: .cfa -28 + ^ r6: .cfa -24 + ^ r7: .cfa -20 + ^ r8: .cfa -16 + ^ r9: .cfa -12 + ^
STACK CFI INIT a9e4c 6c .cfa: sp 0 + .ra: lr
STACK CFI a9e50 .cfa: sp 32 + .ra: .cfa -4 + ^ r10: .cfa -8 + ^ r4: .cfa -32 + ^ r5: .cfa -28 + ^ r6: .cfa -24 + ^ r7: .cfa -20 + ^ r8: .cfa -16 + ^ r9: .cfa -12 + ^
STACK CFI INIT a9eb8 6c .cfa: sp 0 + .ra: lr
STACK CFI a9ebc .cfa: sp 32 + .ra: .cfa -4 + ^ r10: .cfa -8 + ^ r4: .cfa -32 + ^ r5: .cfa -28 + ^ r6: .cfa -24 + ^ r7: .cfa -20 + ^ r8: .cfa -16 + ^ r9: .cfa -12 + ^
STACK CFI INIT a9f24 70 .cfa: sp 0 + .ra: lr
STACK CFI a9f28 .cfa: sp 32 + .ra: .cfa -4 + ^ r10: .cfa -8 + ^ r4: .cfa -32 + ^ r5: .cfa -28 + ^ r6: .cfa -24 + ^ r7: .cfa -20 + ^ r8: .cfa -16 + ^ r9: .cfa -12 + ^
STACK CFI INIT a9f94 68 .cfa: sp 0 + .ra: lr
STACK CFI a9f98 .cfa: sp 32 + .ra: .cfa -4 + ^ r10: .cfa -8 + ^ r4: .cfa -32 + ^ r5: .cfa -28 + ^ r6: .cfa -24 + ^ r7: .cfa -20 + ^ r8: .cfa -16 + ^ r9: .cfa -12 + ^
STACK CFI INIT a9ffc 68 .cfa: sp 0 + .ra: lr
STACK CFI aa000 .cfa: sp 32 + .ra: .cfa -4 + ^ r10: .cfa -8 + ^ r4: .cfa -32 + ^ r5: .cfa -28 + ^ r6: .cfa -24 + ^ r7: .cfa -20 + ^ r8: .cfa -16 + ^ r9: .cfa -12 + ^
STACK CFI INIT aa064 68 .cfa: sp 0 + .ra: lr
STACK CFI aa068 .cfa: sp 32 + .ra: .cfa -4 + ^ r10: .cfa -8 + ^ r4: .cfa -32 + ^ r5: .cfa -28 + ^ r6: .cfa -24 + ^ r7: .cfa -20 + ^ r8: .cfa -16 + ^ r9: .cfa -12 + ^
STACK CFI INIT aa0cc 68 .cfa: sp 0 + .ra: lr
STACK CFI aa0d0 .cfa: sp 32 + .ra: .cfa -4 + ^ r10: .cfa -8 + ^ r4: .cfa -32 + ^ r5: .cfa -28 + ^ r6: .cfa -24 + ^ r7: .cfa -20 + ^ r8: .cfa -16 + ^ r9: .cfa -12 + ^
STACK CFI INIT aa134 68 .cfa: sp 0 + .ra: lr
STACK CFI aa138 .cfa: sp 32 + .ra: .cfa -4 + ^ r10: .cfa -8 + ^ r4: .cfa -32 + ^ r5: .cfa -28 + ^ r6: .cfa -24 + ^ r7: .cfa -20 + ^ r8: .cfa -16 + ^ r9: .cfa -12 + ^
STACK CFI INIT aa19c 6c .cfa: sp 0 + .ra: lr
STACK CFI aa1a0 .cfa: sp 32 + .ra: .cfa -4 + ^ r10: .cfa -8 + ^ r4: .cfa -32 + ^ r5: .cfa -28 + ^ r6: .cfa -24 + ^ r7: .cfa -20 + ^ r8: .cfa -16 + ^ r9: .cfa -12 + ^
STACK CFI INIT aa208 4c .cfa: sp 0 + .ra: lr
STACK CFI aa20c .cfa: sp 24 + .ra: .cfa -4 + ^ r3: .cfa -24 + ^ r4: .cfa -20 + ^ r5: .cfa -16 + ^ r6: .cfa -12 + ^ r7: .cfa -8 + ^
STACK CFI INIT aa254 80 .cfa: sp 0 + .ra: lr
STACK CFI aa258 .cfa: sp 40 + .ra: .cfa -4 + ^ r10: .cfa -12 + ^ r11: .cfa -8 + ^ r3: .cfa -40 + ^ r4: .cfa -36 + ^ r5: .cfa -32 + ^ r6: .cfa -28 + ^ r7: .cfa -24 + ^ r8: .cfa -20 + ^ r9: .cfa -16 + ^
STACK CFI INIT aa2d4 74 .cfa: sp 0 + .ra: lr
STACK CFI aa2d8 .cfa: sp 40 + .ra: .cfa -4 + ^ r10: .cfa -12 + ^ r11: .cfa -8 + ^ r3: .cfa -40 + ^ r4: .cfa -36 + ^ r5: .cfa -32 + ^ r6: .cfa -28 + ^ r7: .cfa -24 + ^ r8: .cfa -20 + ^ r9: .cfa -16 + ^
STACK CFI INIT aa348 2c .cfa: sp 0 + .ra: lr
STACK CFI aa350 .cfa: sp 8 + .ra: .cfa -4 + ^ r3: .cfa -8 + ^
STACK CFI INIT aa374 20 .cfa: sp 0 + .ra: lr
STACK CFI aa378 .cfa: sp 8 + .ra: .cfa -4 + ^ r4: .cfa -8 + ^
STACK CFI INIT aa394 20 .cfa: sp 0 + .ra: lr
STACK CFI aa398 .cfa: sp 8 + .ra: .cfa -4 + ^ r4: .cfa -8 + ^
STACK CFI INIT aa3b4 14 .cfa: sp 0 + .ra: lr
STACK CFI aa3b8 .cfa: sp 8 + .ra: .cfa -4 + ^ r3: .cfa -8 + ^
STACK CFI INIT aa3c8 38 .cfa: sp 0 + .ra: lr
STACK CFI aa3cc .cfa: sp 24 + .ra: .cfa -4 + ^ r3: .cfa -24 + ^ r4: .cfa -20 + ^ r5: .cfa -16 + ^ r6: .cfa -12 + ^ r7: .cfa -8 + ^
STACK CFI INIT aa400 60 .cfa: sp 0 + .ra: lr
STACK CFI aa404 .cfa: sp 32 + .ra: .cfa -4 + ^ r10: .cfa -8 + ^ r4: .cfa -32 + ^ r5: .cfa -28 + ^ r6: .cfa -24 + ^ r7: .cfa -20 + ^ r8: .cfa -16 + ^ r9: .cfa -12 + ^
STACK CFI INIT aa460 5c .cfa: sp 0 + .ra: lr
STACK CFI aa464 .cfa: sp 32 + .ra: .cfa -4 + ^ r10: .cfa -8 + ^ r4: .cfa -32 + ^ r5: .cfa -28 + ^ r6: .cfa -24 + ^ r7: .cfa -20 + ^ r8: .cfa -16 + ^ r9: .cfa -12 + ^
STACK CFI INIT aa4bc 24 .cfa: sp 0 + .ra: lr
STACK CFI aa4c0 .cfa: sp 8 + .ra: .cfa -4 + ^ r4: .cfa -8 + ^
STACK CFI INIT aa4e0 20 .cfa: sp 0 + .ra: lr
STACK CFI aa4e4 .cfa: sp 8 + .ra: .cfa -4 + ^ r4: .cfa -8 + ^
STACK CFI INIT aa500 20 .cfa: sp 0 + .ra: lr
STACK CFI aa504 .cfa: sp 8 + .ra: .cfa -4 + ^ r4: .cfa -8 + ^
STACK CFI INIT aa520 20 .cfa: sp 0 + .ra: lr
STACK CFI aa524 .cfa: sp 8 + .ra: .cfa -4 + ^ r4: .cfa -8 + ^
