MODULE Linux arm 5B8B4CA8141E20B53FAD54881245DDC40 libc-2.11.1.so
PUBLIC 15340 0 __libc_init_first
PUBLIC 15430 0 __libc_start_main
PUBLIC 15728 0 gnu_get_libc_release
PUBLIC 15738 0 gnu_get_libc_version
PUBLIC 159c0 0 __errno_location
PUBLIC 159dc 0 __aeabi_atexit
PUBLIC 159ec 0 __aeabi_memclr4
PUBLIC 159f8 0 __aeabi_memcpy4
PUBLIC 159fc 0 __aeabi_memmove4
PUBLIC 15a00 0 __aeabi_memset4
PUBLIC 15a10 0 __aeabi_assert
PUBLIC 15a1c 0 __aeabi_errno_addr
PUBLIC 15a38 0 __aeabi_MB_CUR_MAX
PUBLIC 15a5c 0 __aeabi_localeconv
PUBLIC 161ec 0 iconv_open
PUBLIC 163d4 0 iconv
PUBLIC 165a8 0 iconv_close
PUBLIC 171b4 0 __gconv_get_modules_db
PUBLIC 171c4 0 __gconv_get_alias_db
PUBLIC 20d98 0 __gconv_get_cache
PUBLIC 21718 0 __ctype_get_mb_cur_max
PUBLIC 21974 0 setlocale
PUBLIC 23bd0 0 localeconv
PUBLIC 23d80 0 nl_langinfo
PUBLIC 23da8 0 __nl_langinfo_l
PUBLIC 23e30 0 __newlocale
PUBLIC 2481c 0 duplocale
PUBLIC 249c4 0 __freelocale
PUBLIC 24a9c 0 uselocale
PUBLIC 24cb4 0 __assert_fail
PUBLIC 24e58 0 __assert_perror_fail
PUBLIC 25028 0 __assert
PUBLIC 25034 0 isalnum
PUBLIC 25098 0 isalpha
PUBLIC 250fc 0 iscntrl
PUBLIC 25160 0 isdigit
PUBLIC 251c4 0 islower
PUBLIC 25228 0 isgraph
PUBLIC 2528c 0 isprint
PUBLIC 252f0 0 ispunct
PUBLIC 25354 0 isspace
PUBLIC 253b8 0 isupper
PUBLIC 2541c 0 isxdigit
PUBLIC 25480 0 tolower
PUBLIC 254b4 0 toupper
PUBLIC 254e8 0 isblank
PUBLIC 2554c 0 _tolower
PUBLIC 2557c 0 _toupper
PUBLIC 255ac 0 __toascii_l
PUBLIC 255b4 0 __isascii_l
PUBLIC 255c4 0 isblank_l
PUBLIC 255d8 0 isalnum_l
PUBLIC 255ec 0 isalpha_l
PUBLIC 25600 0 iscntrl_l
PUBLIC 25614 0 isdigit_l
PUBLIC 25628 0 __islower_l
PUBLIC 2563c 0 __isgraph_l
PUBLIC 25650 0 isprint_l
PUBLIC 25664 0 ispunct_l
PUBLIC 25678 0 isspace_l
PUBLIC 2568c 0 isupper_l
PUBLIC 256a0 0 __isxdigit_l
PUBLIC 256b4 0 __tolower_l
PUBLIC 256c0 0 toupper_l
PUBLIC 256cc 0 isctype
PUBLIC 25704 0 __ctype_b_loc
PUBLIC 2576c 0 __ctype_toupper_loc
PUBLIC 257d4 0 __ctype_tolower_loc
PUBLIC 25c20 0 bindtextdomain
PUBLIC 25c48 0 bind_textdomain_codeset
PUBLIC 25c6c 0 dcgettext
PUBLIC 25c94 0 dgettext
PUBLIC 25c9c 0 gettext
PUBLIC 276c8 0 dcngettext
PUBLIC 276ec 0 dngettext
PUBLIC 27708 0 ngettext
PUBLIC 29b84 0 textdomain
PUBLIC 2b1e4 0 catopen
PUBLIC 2b384 0 catgets
PUBLIC 2b444 0 catclose
PUBLIC 2b4dc 0 __open_catalog
PUBLIC 2bce4 0 isinf
PUBLIC 2bd10 0 isnan
PUBLIC 2bd34 0 finite
PUBLIC 2bd48 0 copysign
PUBLIC 2bd68 0 modfl
PUBLIC 2be80 0 scalbnl
PUBLIC 2bfe4 0 frexp
PUBLIC 2c07c 0 ldexpl
PUBLIC 2c128 0 __signbit
PUBLIC 2c130 0 __isinff
PUBLIC 2c148 0 __isnanf
PUBLIC 2c15c 0 finitef
PUBLIC 2c170 0 copysignf
PUBLIC 2c180 0 modff
PUBLIC 2c218 0 scalbnf
PUBLIC 2c340 0 frexpf
PUBLIC 2c3c0 0 ldexpf
PUBLIC 2c448 0 __signbitf
PUBLIC 2c4c0 0 __sigsetjmp
PUBLIC 2c560 0 setjmp
PUBLIC 2c570 0 _setjmp
PUBLIC 2c580 0 _longjmp
PUBLIC 2c678 0 signal
PUBLIC 2c73c 0 gsignal
PUBLIC 2c7fc 0 killpg
PUBLIC 2c9c0 0 sigaction
PUBLIC 2c9f8 0 sigprocmask
PUBLIC 2caa0 0 kill
PUBLIC 2cac0 0 sigpending
PUBLIC 2cb04 0 sigsuspend
PUBLIC 2cca0 0 sigwait
PUBLIC 2ccf0 0 sigblock
PUBLIC 2cd3c 0 sigsetmask
PUBLIC 2ce10 0 __sigpause
PUBLIC 2ce60 0 sigpause
PUBLIC 2ce68 0 __xpg_sigpause
PUBLIC 2ce70 0 sigvec
PUBLIC 2cf44 0 sigstack
PUBLIC 2cfb0 0 sigaltstack
PUBLIC 2cfd0 0 siginterrupt
PUBLIC 2d094 0 __sigismember
PUBLIC 2d0b8 0 __sigaddset
PUBLIC 2d0e0 0 __sigdelset
PUBLIC 2d108 0 sigemptyset
PUBLIC 2d148 0 sigfillset
PUBLIC 2d19c 0 sigaddset
PUBLIC 2d200 0 sigdelset
PUBLIC 2d264 0 sigismember
PUBLIC 2d2c0 0 sigreturn
PUBLIC 2d2e4 0 siggetmask
PUBLIC 2d2ec 0 sysv_signal
PUBLIC 2d378 0 sigisemptyset
PUBLIC 2d404 0 sigandset
PUBLIC 2d490 0 sigorset
PUBLIC 2d51c 0 __libc_current_sigrtmin_private
PUBLIC 2d52c 0 __libc_current_sigrtmax
PUBLIC 2d540 0 __libc_allocate_rtsig_private
PUBLIC 2d630 0 sigtimedwait
PUBLIC 2d730 0 sigwaitinfo
PUBLIC 2d780 0 sigqueue
PUBLIC 2d810 0 sighold
PUBLIC 2d868 0 sigrelse
PUBLIC 2d8c0 0 sigignore
PUBLIC 2d908 0 sigset
PUBLIC 2da80 0 __default_sa_restorer_v1
PUBLIC 2da90 0 __default_sa_restorer_v2
PUBLIC 2daa0 0 __default_rt_sa_restorer_v1
PUBLIC 2dab0 0 __default_rt_sa_restorer_v2
PUBLIC 31874 0 atof
PUBLIC 3187c 0 atoi
PUBLIC 31888 0 atol
PUBLIC 31894 0 atoll
PUBLIC 318a0 0 abort
PUBLIC 31bb0 0 bsearch
PUBLIC 32564 0 qsort_r
PUBLIC 32880 0 qsort
PUBLIC 3289c 0 getenv
PUBLIC 329c8 0 putenv
PUBLIC 32fe0 0 setenv
PUBLIC 33044 0 unsetenv
PUBLIC 331e0 0 clearenv
PUBLIC 33304 0 __secure_getenv
PUBLIC 334a8 0 exit
PUBLIC 334c0 0 on_exit
PUBLIC 337ac 0 __cxa_atexit
PUBLIC 337bc 0 __cxa_finalize
PUBLIC 33ae4 0 quick_exit
PUBLIC 33afc 0 __cxa_at_quick_exit
PUBLIC 33b14 0 abs
PUBLIC 33b20 0 labs
PUBLIC 33b2c 0 llabs
PUBLIC 33b58 0 div
PUBLIC 33ba8 0 ldiv
PUBLIC 33bf8 0 imaxdiv
PUBLIC 33c8c 0 srand
PUBLIC 33d6c 0 initstate
PUBLIC 33e6c 0 setstate
PUBLIC 33f74 0 random
PUBLIC 34060 0 setstate_r
PUBLIC 34154 0 random_r
PUBLIC 34214 0 srandom_r
PUBLIC 343d8 0 initstate_r
PUBLIC 344e0 0 rand
PUBLIC 344e4 0 rand_r
PUBLIC 3453c 0 drand48
PUBLIC 34568 0 erand48
PUBLIC 34590 0 lrand48
PUBLIC 345bc 0 nrand48
PUBLIC 345e4 0 mrand48
PUBLIC 34610 0 jrand48
PUBLIC 34638 0 srand48
PUBLIC 34648 0 seed48
PUBLIC 34668 0 lcong48
PUBLIC 34678 0 drand48_r
PUBLIC 34684 0 erand48_r
PUBLIC 34704 0 lrand48_r
PUBLIC 34720 0 nrand48_r
PUBLIC 34754 0 mrand48_r
PUBLIC 34770 0 jrand48_r
PUBLIC 347a0 0 srand48_r
PUBLIC 347e0 0 seed48_r
PUBLIC 34838 0 lcong48_r
PUBLIC 34924 0 __strtol_internal
PUBLIC 34958 0 strtol
PUBLIC 34990 0 __strtoul_internal
PUBLIC 349c4 0 strtoul
PUBLIC 349fc 0 __strtoll_internal
PUBLIC 34a30 0 strtoll
PUBLIC 34a68 0 __strtoull_internal
PUBLIC 34a9c 0 strtouq
PUBLIC 34fe0 0 strtol_l
PUBLIC 354ec 0 strtoul_l
PUBLIC 35bd0 0 strtoll_l
PUBLIC 36298 0 strtoull_l
PUBLIC 362b4 0 __strtof_internal
PUBLIC 362dc 0 strtof
PUBLIC 36308 0 __strtod_internal
PUBLIC 36330 0 strtod
PUBLIC 3635c 0 __strtold_internal
PUBLIC 36384 0 strtold
PUBLIC 38794 0 strtof_l
PUBLIC 3ae6c 0 __strtod_l
PUBLIC 3ae7c 0 strtold_l
PUBLIC 3b59c 0 __libc_system
PUBLIC 3b604 0 realpath
PUBLIC 3ba94 0 canonicalize_file_name
PUBLIC 3ba9c 0 a64l
PUBLIC 3bb98 0 l64a
PUBLIC 3bbec 0 getsubopt
PUBLIC 3bcd8 0 __xpg_basename
PUBLIC 3be60 0 strtoimax
PUBLIC 3be68 0 strtoumax
PUBLIC 3be70 0 getcontext
PUBLIC 3be94 0 setcontext
PUBLIC 3beb8 0 makecontext
PUBLIC 3bee4 0 swapcontext
PUBLIC 3bf08 0 strfmon
PUBLIC 3d320 0 strfmon_l
PUBLIC 3d350 0 mblen
PUBLIC 3d418 0 mbstowcs
PUBLIC 3d444 0 mbtowc
PUBLIC 3d50c 0 wcstombs
PUBLIC 3d538 0 wctomb
PUBLIC 3d5d4 0 wcstoimax
PUBLIC 3d5dc 0 wcstoumax
PUBLIC 3d680 0 rpmatch
PUBLIC 3db7c 0 fmtmsg
PUBLIC 3e13c 0 addseverity
PUBLIC 3e70c 0 ctermid
PUBLIC 3e738 0 cuserid
PUBLIC 3fd94 0 _IO_vfprintf
PUBLIC 44cb0 0 vprintf
PUBLIC 450f8 0 __printf_fp
PUBLIC 47a10 0 register_printf_specifier
PUBLIC 47b80 0 register_printf_function
PUBLIC 47b84 0 parse_printf_format
PUBLIC 49100 0 register_printf_modifier
PUBLIC 49530 0 register_printf_type
PUBLIC 49698 0 printf_size
PUBLIC 49efc 0 printf_size_info
PUBLIC 49f24 0 _IO_fprintf
PUBLIC 49f54 0 _IO_printf
PUBLIC 49f9c 0 snprintf
PUBLIC 49fcc 0 sprintf
PUBLIC 49ffc 0 asprintf
PUBLIC 4a02c 0 dprintf
PUBLIC 4a05c 0 _IO_vfscanf
PUBLIC 501c4 0 vfscanf
PUBLIC 501cc 0 fscanf
PUBLIC 501fc 0 scanf
PUBLIC 50248 0 _IO_sscanf
PUBLIC 5030c 0 perror
PUBLIC 503dc 0 psignal
PUBLIC 50534 0 tmpfile
PUBLIC 505cc 0 tmpfile64
PUBLIC 50664 0 tmpnam
PUBLIC 506f4 0 tmpnam_r
PUBLIC 50754 0 tempnam
PUBLIC 50da4 0 getline
PUBLIC 50db0 0 getw
PUBLIC 50de0 0 putw
PUBLIC 50e18 0 remove
PUBLIC 50e70 0 rename
PUBLIC 510a8 0 renameat
PUBLIC 51260 0 flockfile
PUBLIC 512dc 0 ftrylockfile
PUBLIC 51358 0 _IO_funlockfile
PUBLIC 513e0 0 __isoc99_scanf
PUBLIC 5160c 0 __isoc99_vscanf
PUBLIC 51824 0 __isoc99_fscanf
PUBLIC 51a2c 0 __isoc99_vfscanf
PUBLIC 51c20 0 __isoc99_sscanf
PUBLIC 51c50 0 __isoc99_vsscanf
PUBLIC 51cd0 0 psiginfo
PUBLIC 525b0 0 vfwprintf
PUBLIC 5d3c8 0 vfwscanf
PUBLIC 5e6ac 0 _IO_file_doallocate
PUBLIC 5e7b0 0 fclose
PUBLIC 5eb00 0 fdopen
PUBLIC 5ede4 0 fflush
PUBLIC 5efbc 0 fgetpos
PUBLIC 5f29c 0 fgets
PUBLIC 5f610 0 fopen
PUBLIC 5f790 0 fopencookie
PUBLIC 5f864 0 fputs
PUBLIC 5fa68 0 fread
PUBLIC 5fc64 0 fsetpos
PUBLIC 5fec8 0 ftell
PUBLIC 60164 0 fwrite
PUBLIC 603a8 0 getdelim
PUBLIC 60720 0 _IO_getline
PUBLIC 60744 0 _IO_getline_info
PUBLIC 60890 0 gets
PUBLIC 60b18 0 _IO_padn
PUBLIC 60d44 0 _IO_proc_close
PUBLIC 60fd8 0 _IO_proc_open
PUBLIC 616b8 0 popen
PUBLIC 61734 0 _IO_puts
PUBLIC 61aa0 0 _IO_seekoff
PUBLIC 61d04 0 _IO_seekpos
PUBLIC 61ee8 0 setbuffer
PUBLIC 620f8 0 _IO_setvbuf
PUBLIC 62384 0 _IO_ungetc
PUBLIC 6255c 0 vsprintf
PUBLIC 625f8 0 vsscanf
PUBLIC 6266c 0 _IO_fgetpos64
PUBLIC 62920 0 fopen64
PUBLIC 62928 0 fsetpos64
PUBLIC 62b88 0 putchar
PUBLIC 62d84 0 putchar_unlocked
PUBLIC 63238 0 clearerr
PUBLIC 63354 0 _IO_feof
PUBLIC 63490 0 _IO_ferror
PUBLIC 635cc 0 fileno_unlocked
PUBLIC 63610 0 fputc
PUBLIC 637f8 0 freopen
PUBLIC 63ac4 0 fseek
PUBLIC 63cb8 0 getc
PUBLIC 63e90 0 getchar
PUBLIC 64148 0 open_memstream
PUBLIC 64204 0 pclose
PUBLIC 64208 0 _IO_putc
PUBLIC 643f0 0 rewind
PUBLIC 645cc 0 setbuf
PUBLIC 645d4 0 setlinebuf
PUBLIC 645e4 0 vasprintf
PUBLIC 64734 0 vdprintf
PUBLIC 647f8 0 vscanf
PUBLIC 6486c 0 vsnprintf
PUBLIC 64a40 0 obstack_vprintf
PUBLIC 64bc8 0 obstack_printf
PUBLIC 64bf8 0 fcloseall
PUBLIC 64bfc 0 fseeko
PUBLIC 64df0 0 ftello
PUBLIC 6508c 0 freopen64
PUBLIC 65358 0 fseeko64
PUBLIC 65550 0 ftello64
PUBLIC 657b0 0 __fbufsize
PUBLIC 657dc 0 __freading
PUBLIC 65818 0 __fwriting
PUBLIC 6582c 0 __freadable
PUBLIC 65840 0 __fwritable
PUBLIC 65854 0 __flbf
PUBLIC 65860 0 __fpurge
PUBLIC 658dc 0 __fpending
PUBLIC 65908 0 __fsetlocking
PUBLIC 65e5c 0 __libc_fatal
PUBLIC 66108 0 fmemopen
PUBLIC 66280 0 clearerr_unlocked
PUBLIC 66290 0 feof_unlocked
PUBLIC 662a4 0 ferror_unlocked
PUBLIC 662b8 0 fputc_unlocked
PUBLIC 662e8 0 getc_unlocked
PUBLIC 6630c 0 getchar_unlocked
PUBLIC 6633c 0 fflush_unlocked
PUBLIC 66368 0 putc_unlocked
PUBLIC 66398 0 _IO_peekc_locked
PUBLIC 66578 0 fread_unlocked
PUBLIC 665c4 0 fwrite_unlocked
PUBLIC 66638 0 fgets_unlocked
PUBLIC 666f0 0 fputs_unlocked
PUBLIC 6697c 0 swprintf
PUBLIC 66a00 0 vswprintf
PUBLIC 66aac 0 vswscanf
PUBLIC 66b28 0 swscanf
PUBLIC 66cf4 0 _IO_least_wmarker
PUBLIC 66d2c 0 _IO_switch_to_main_wget_area
PUBLIC 66d6c 0 _IO_switch_to_wbackup_area
PUBLIC 66dac 0 _IO_wsetb
PUBLIC 66e28 0 _IO_wdefault_pbackfail
PUBLIC 66f70 0 _IO_wdefault_finish
PUBLIC 67010 0 _IO_wdefault_uflow
PUBLIC 6703c 0 __woverflow
PUBLIC 67074 0 __wuflow
PUBLIC 67194 0 __wunderflow
PUBLIC 672b0 0 _IO_wdefault_xsputn
PUBLIC 673cc 0 _IO_wdefault_xsgetn
PUBLIC 674d4 0 _IO_wdoallocbuf
PUBLIC 67528 0 _IO_wdefault_doallocate
PUBLIC 67580 0 _IO_switch_to_wget_mode
PUBLIC 6760c 0 _IO_free_wbackup_area
PUBLIC 67648 0 _IO_sputbackwc
PUBLIC 6769c 0 _IO_sungetwc
PUBLIC 676fc 0 _IO_adjust_wcolumn
PUBLIC 67770 0 _IO_init_wmarker
PUBLIC 677cc 0 _IO_wmarker_delta
PUBLIC 6780c 0 _IO_seekwmark
PUBLIC 678a4 0 _IO_unsave_wmarkers
PUBLIC 6815c 0 _IO_wdo_write
PUBLIC 68298 0 _IO_wfile_underflow
PUBLIC 68934 0 _IO_wfile_overflow
PUBLIC 68be4 0 _IO_wfile_sync
PUBLIC 68d48 0 _IO_wfile_seekoff
PUBLIC 692b8 0 _IO_wfile_xsputn
PUBLIC 69564 0 open_wmemstream
PUBLIC 69638 0 fputwc
PUBLIC 69844 0 fputwc_unlocked
PUBLIC 698ac 0 fgetwc
PUBLIC 69a8c 0 getwc_unlocked
PUBLIC 69ab8 0 getwchar
PUBLIC 69cac 0 getwchar_unlocked
PUBLIC 69ce4 0 fgetws
PUBLIC 69f44 0 fgetws_unlocked
PUBLIC 69ffc 0 fputws
PUBLIC 6a1f8 0 fputws_unlocked
PUBLIC 6a400 0 ungetwc
PUBLIC 6a5dc 0 putwc
PUBLIC 6a7cc 0 putwc_unlocked
PUBLIC 6a810 0 putwchar
PUBLIC 6aa14 0 putwchar_unlocked
PUBLIC 6aa60 0 fwprintf
PUBLIC 6aa90 0 vwprintf
PUBLIC 6aac4 0 wprintf
PUBLIC 6ab0c 0 wscanf
PUBLIC 6ab58 0 fwscanf
PUBLIC 6ab88 0 vwscanf
PUBLIC 6aba8 0 fwide
PUBLIC 6b20c 0 _IO_file_close
PUBLIC 6b750 0 _IO_file_xsputn
PUBLIC 6b984 0 _IO_file_write
PUBLIC 6ba60 0 _IO_file_seekoff
PUBLIC 6bec8 0 _IO_file_sync
PUBLIC 6bfb8 0 _IO_file_setbuf
PUBLIC 6c048 0 _IO_file_init
PUBLIC 6c07c 0 _IO_file_close_it
PUBLIC 6c1d8 0 _IO_file_finish
PUBLIC 6c258 0 _IO_file_open
PUBLIC 6c3c8 0 _IO_file_fopen
PUBLIC 6ca64 0 _IO_file_attach
PUBLIC 6cb2c 0 _IO_do_write
PUBLIC 6cb54 0 _IO_file_underflow
PUBLIC 6ce68 0 _IO_file_overflow
PUBLIC 6d078 0 _IO_file_read
PUBLIC 6d0d4 0 _IO_file_seek
PUBLIC 6d0dc 0 _IO_file_stat
PUBLIC 6d410 0 _IO_un_link
PUBLIC 6d774 0 _IO_link_in
PUBLIC 6dc70 0 _IO_switch_to_get_mode
PUBLIC 6dcf0 0 _IO_free_backup_area
PUBLIC 6dd24 0 __overflow
PUBLIC 6dd48 0 __underflow
PUBLIC 6de1c 0 __uflow
PUBLIC 6def4 0 _IO_setb
PUBLIC 6df64 0 _IO_doallocbuf
PUBLIC 6dfc8 0 _IO_default_uflow
PUBLIC 6dff0 0 _IO_default_xsputn
PUBLIC 6e104 0 _IO_sgetn
PUBLIC 6e118 0 _IO_default_xsgetn
PUBLIC 6e2d8 0 _IO_default_doallocate
PUBLIC 6e3fc 0 _IO_init
PUBLIC 6e428 0 _IO_default_finish
PUBLIC 6e4c4 0 _IO_sputbackc
PUBLIC 6e51c 0 _IO_sungetc
PUBLIC 6e56c 0 _IO_adjust_column
PUBLIC 6ebd8 0 _IO_flush_all
PUBLIC 6ebe0 0 _IO_flush_all_linebuffered
PUBLIC 6ef28 0 _IO_init_marker
PUBLIC 6ef7c 0 _IO_remove_marker
PUBLIC 6efc4 0 _IO_marker_difference
PUBLIC 6efd4 0 _IO_marker_delta
PUBLIC 6f008 0 _IO_seekmark
PUBLIC 6f098 0 _IO_unsave_markers
PUBLIC 6f0b8 0 _IO_default_pbackfail
PUBLIC 6f214 0 _IO_iter_begin
PUBLIC 6f224 0 _IO_iter_end
PUBLIC 6f22c 0 _IO_iter_next
PUBLIC 6f234 0 _IO_iter_file
PUBLIC 6f238 0 _IO_list_lock
PUBLIC 6f2cc 0 _IO_list_unlock
PUBLIC 6f364 0 _IO_list_resetlock
PUBLIC 6f620 0 _IO_str_init_static
PUBLIC 6f628 0 _IO_str_init_readonly
PUBLIC 6f64c 0 _IO_str_overflow
PUBLIC 6f7b4 0 _IO_str_underflow
PUBLIC 6f818 0 _IO_str_seekoff
PUBLIC 6f9e0 0 _IO_str_pbackfail
PUBLIC 74f14 0 malloc_set_state
PUBLIC 75400 0 __libc_malloc
PUBLIC 759a0 0 malloc_get_state
PUBLIC 75be8 0 cfree
PUBLIC 75d58 0 realloc
PUBLIC 76170 0 __libc_memalign
PUBLIC 765d4 0 __libc_valloc
PUBLIC 76960 0 pvalloc
PUBLIC 76d00 0 __libc_calloc
PUBLIC 772a8 0 malloc_trim
PUBLIC 77610 0 malloc_usable_size
PUBLIC 77648 0 malloc_stats
PUBLIC 77898 0 __libc_mallinfo
PUBLIC 77994 0 __libc_mallopt
PUBLIC 77998 0 posix_memalign
PUBLIC 77a34 0 malloc_info
PUBLIC 77b08 0 __default_morecore
PUBLIC 77cac 0 mcheck_check_all
PUBLIC 782dc 0 mcheck
PUBLIC 783fc 0 mcheck_pedantic
PUBLIC 78424 0 mprobe
PUBLIC 78d08 0 tr_break
PUBLIC 78d0c 0 mtrace
PUBLIC 78f00 0 muntrace
PUBLIC 79000 0 _obstack_begin
PUBLIC 790d0 0 _obstack_begin_1
PUBLIC 791c4 0 _obstack_newchunk
PUBLIC 793ec 0 _obstack_allocated_p
PUBLIC 7942c 0 obstack_free
PUBLIC 794d4 0 _obstack_memory_used
PUBLIC 79508 0 strcat
PUBLIC 79530 0 index
PUBLIC 79650 0 strcmp
PUBLIC 79880 0 strcoll
PUBLIC 798b0 0 strcpy
PUBLIC 799a0 0 strcspn
PUBLIC 799f0 0 __strverscmp
PUBLIC 79b1c 0 __strdup
PUBLIC 79b4c 0 strndup
PUBLIC 79b84 0 strerror
PUBLIC 79c38 0 __strerror_r
PUBLIC 79d50 0 strlen
PUBLIC 79db0 0 strnlen
PUBLIC 79f80 0 strncat
PUBLIC 7a17c 0 strncmp
PUBLIC 7a2e8 0 strncpy
PUBLIC 7a548 0 strrchr
PUBLIC 7a590 0 strpbrk
PUBLIC 7a688 0 strsignal
PUBLIC 7a8d8 0 strspn
PUBLIC 7af68 0 strstr
PUBLIC 7b420 0 strtok
PUBLIC 7b4e4 0 strtok_r
PUBLIC 7b550 0 strxfrm
PUBLIC 7b578 0 memchr
PUBLIC 7b8c4 0 memcmp
PUBLIC 7bd10 0 memmove
PUBLIC 7c050 0 memset
PUBLIC 7c214 0 mempcpy
PUBLIC 7c350 0 bcopy
PUBLIC 7c5a4 0 bzero
PUBLIC 7c74c 0 ffs
PUBLIC 7c7a0 0 ffsll
PUBLIC 7c814 0 __stpcpy
PUBLIC 7c838 0 stpncpy
PUBLIC 7caac 0 __strcasecmp
PUBLIC 7cb04 0 strncasecmp
PUBLIC 7cbf0 0 __strcasecmp_l
PUBLIC 7cc30 0 __strncasecmp_l
PUBLIC 7ccd8 0 memccpy
PUBLIC 7d1a4 0 __strsep_g
PUBLIC 7e098 0 strcasestr
PUBLIC 7ec08 0 swab
PUBLIC 7ecb8 0 strfry
PUBLIC 7ee40 0 memfrob
PUBLIC 7f4ac 0 memmem
PUBLIC 7f8e0 0 __rawmemchr
PUBLIC 7f9b0 0 strchrnul
PUBLIC 7fac0 0 argz_append
PUBLIC 7fb1c 0 argz_add
PUBLIC 7fb4c 0 argz_count
PUBLIC 7fb8c 0 argz_create
PUBLIC 7fc34 0 argz_create_sep
PUBLIC 7fd08 0 argz_next
PUBLIC 7fd50 0 argz_delete
PUBLIC 7fdb0 0 argz_extract
PUBLIC 7fdf4 0 argz_insert
PUBLIC 7fed4 0 argz_stringify
PUBLIC 7ff14 0 argz_add_sep
PUBLIC 80038 0 argz_replace
PUBLIC 802e8 0 basename
PUBLIC 80308 0 strcoll_l
PUBLIC 81458 0 strxfrm_l
PUBLIC 82318 0 __mempcpy_small
PUBLIC 823fc 0 __strcpy_small
PUBLIC 824e8 0 __stpcpy_small
PUBLIC 825b8 0 __strcspn_c1
PUBLIC 825fc 0 __strcspn_c2
PUBLIC 82654 0 __strcspn_c3
PUBLIC 826c4 0 __strspn_c1
PUBLIC 826f4 0 __strspn_c2
PUBLIC 8271c 0 __strspn_c3
PUBLIC 82754 0 __strpbrk_c2
PUBLIC 827a8 0 __strpbrk_c3
PUBLIC 8280c 0 __strtok_r_1c
PUBLIC 82888 0 __strsep_1c
PUBLIC 828c0 0 __strsep_2c
PUBLIC 8293c 0 __strsep_3c
PUBLIC 829c8 0 memrchr
PUBLIC 82c94 0 __xpg_strerror_r
PUBLIC 82d90 0 strerror_l
PUBLIC 82e38 0 envz_entry
PUBLIC 82fd0 0 envz_get
PUBLIC 83018 0 envz_remove
PUBLIC 83048 0 envz_add
PUBLIC 83114 0 envz_merge
PUBLIC 831e0 0 envz_strip
PUBLIC 83260 0 memcpy
PUBLIC 83570 0 wmemcpy
PUBLIC 83578 0 wmemset
PUBLIC 83648 0 wcscat
PUBLIC 83670 0 wcschr
PUBLIC 83698 0 wcscmp
PUBLIC 836c0 0 wcscpy
PUBLIC 836e0 0 wcscspn
PUBLIC 83730 0 wcsdup
PUBLIC 83764 0 wcslen
PUBLIC 837f8 0 wcsncat
PUBLIC 839f4 0 wcsncmp
PUBLIC 83b60 0 wcsncpy
PUBLIC 83dc0 0 wcspbrk
PUBLIC 83e18 0 wcsrchr
PUBLIC 83e3c 0 wcsspn
PUBLIC 83ea8 0 wcstok
PUBLIC 83f38 0 wcswcs
PUBLIC 8409c 0 wmemchr
PUBLIC 841f0 0 wmemcmp
PUBLIC 84370 0 wmemmove
PUBLIC 84378 0 wcpcpy
PUBLIC 8439c 0 wcpncpy
PUBLIC 84608 0 wmempcpy
PUBLIC 84610 0 btowc
PUBLIC 8475c 0 wctob
PUBLIC 8489c 0 mbsinit
PUBLIC 848bc 0 __mbrlen
PUBLIC 848e8 0 mbrtowc
PUBLIC 84b08 0 wcrtomb
PUBLIC 84d24 0 mbsrtowcs
PUBLIC 84d70 0 wcsrtombs
PUBLIC 85078 0 mbsnrtowcs
PUBLIC 85368 0 wcsnrtombs
PUBLIC 85640 0 wcsnlen
PUBLIC 85830 0 wcschrnul
PUBLIC 85868 0 __wcstol_internal
PUBLIC 8589c 0 wcstol
PUBLIC 858d4 0 __wcstoul_internal
PUBLIC 85908 0 wcstoul
PUBLIC 85940 0 __wcstoll_internal
PUBLIC 85974 0 wcstoll
PUBLIC 859ac 0 __wcstoull_internal
PUBLIC 859e0 0 wcstouq
PUBLIC 85a18 0 __wcstod_internal
PUBLIC 85a40 0 wcstod
PUBLIC 85a6c 0 __wcstold_internal
PUBLIC 85a94 0 wcstold
PUBLIC 85ac0 0 __wcstof_internal
PUBLIC 85ae8 0 wcstof
PUBLIC 86098 0 __wcstol_l
PUBLIC 86614 0 wcstoul_l
PUBLIC 86edc 0 wcstoll_l
PUBLIC 8778c 0 __wcstoull_l
PUBLIC 89c10 0 __wcstod_l
PUBLIC 89c20 0 wcstold_l
PUBLIC 8bdd8 0 __wcstof_l
PUBLIC 8bde4 0 wcscoll
PUBLIC 8be0c 0 wcsxfrm
PUBLIC 8be34 0 wcwidth
PUBLIC 8bec4 0 wcswidth
PUBLIC 8c054 0 __wcscoll_l
PUBLIC 8ce10 0 wcsxfrm_l
PUBLIC 8d928 0 wcscasecmp
PUBLIC 8d974 0 wcsncasecmp
PUBLIC 8da84 0 __wcscasecmp_l
PUBLIC 8dad8 0 wcsncasecmp_l
PUBLIC 8e384 0 __isoc99_swscanf
PUBLIC 8e3b4 0 __isoc99_vswscanf
PUBLIC 8e43c 0 __isoc99_wscanf
PUBLIC 8e668 0 __isoc99_vwscanf
PUBLIC 8e880 0 __isoc99_fwscanf
PUBLIC 8ea88 0 __isoc99_vfwscanf
PUBLIC 8f164 0 asctime_r
PUBLIC 8f16c 0 asctime
PUBLIC 8f180 0 clock
PUBLIC 8f1f0 0 ctime
PUBLIC 8f200 0 ctime_r
PUBLIC 8f224 0 difftime
PUBLIC 8f258 0 __gmtime_r
PUBLIC 8f264 0 gmtime
PUBLIC 8f278 0 localtime_r
PUBLIC 8f284 0 localtime
PUBLIC 8fe24 0 timelocal
PUBLIC 8fe54 0 time
PUBLIC 8fe90 0 __gettimeofday
PUBLIC 8feb0 0 settimeofday
PUBLIC 8fed0 0 adjtime
PUBLIC 91210 0 tzset
PUBLIC 932c0 0 getitimer
PUBLIC 932e0 0 setitimer
PUBLIC 93300 0 stime
PUBLIC 93354 0 dysize
PUBLIC 933b8 0 timegm
PUBLIC 933dc 0 ftime
PUBLIC 93460 0 getdate_r
PUBLIC 938fc 0 getdate
PUBLIC 93948 0 strptime
PUBLIC 96b8c 0 strptime_l
PUBLIC 96ba8 0 strftime
PUBLIC 98bb0 0 strftime_l
PUBLIC 98bd8 0 wcsftime
PUBLIC 9a84c 0 wcsftime_l
PUBLIC 9b410 0 ntp_gettime
PUBLIC 9b578 0 opendir
PUBLIC 9b604 0 closedir
PUBLIC 9b678 0 readdir
PUBLIC 9b7e8 0 readdir_r
PUBLIC 9b9ac 0 rewinddir
PUBLIC 9ba84 0 seekdir
PUBLIC 9bb60 0 telldir
PUBLIC 9bbb4 0 scandir
PUBLIC 9bda8 0 alphasort
PUBLIC 9bdbc 0 versionsort
PUBLIC 9bea4 0 dirfd
PUBLIC 9beac 0 readdir64
PUBLIC 9c01c 0 readdir64_r
PUBLIC 9c22c 0 scandir64
PUBLIC 9c420 0 alphasort64
PUBLIC 9c434 0 versionsort64
PUBLIC 9c448 0 fdopendir
PUBLIC 9c4fc 0 getdirentries
PUBLIC 9c53c 0 getdirentries64
PUBLIC 9c590 0 fgetgrent
PUBLIC 9cda8 0 getgrouplist
PUBLIC 9ce50 0 initgroups
PUBLIC 9cf14 0 setgroups
PUBLIC 9cf54 0 getgrent
PUBLIC 9d088 0 getgrgid
PUBLIC 9d278 0 getgrnam
PUBLIC 9d468 0 putgrent
PUBLIC 9d814 0 setgrent
PUBLIC 9d94c 0 endgrent
PUBLIC 9da84 0 getgrent_r
PUBLIC 9dbf4 0 getgrgid_r
PUBLIC 9de1c 0 getgrnam_r
PUBLIC 9e044 0 _nss_files_parse_grent
PUBLIC 9e364 0 fgetgrent_r
PUBLIC 9e6c4 0 fgetpwent
PUBLIC 9e900 0 getpw
PUBLIC 9e9d4 0 putpwent
PUBLIC 9eb70 0 getpwent
PUBLIC 9eca4 0 getpwnam
PUBLIC 9ee94 0 getpwuid
PUBLIC 9f084 0 setpwent
PUBLIC 9f1bc 0 endpwent
PUBLIC 9f2f4 0 getpwent_r
PUBLIC 9f464 0 getpwnam_r
PUBLIC 9f68c 0 getpwuid_r
PUBLIC 9f8b4 0 _nss_files_parse_pwent
PUBLIC 9fb28 0 fgetpwent_r
PUBLIC 9fe80 0 uname
PUBLIC 9fea0 0 times
PUBLIC 9fef4 0 wait
PUBLIC 9ffc0 0 waitpid
PUBLIC a0088 0 wait3
PUBLIC a00b0 0 wait4
PUBLIC a00d0 0 waitid
PUBLIC a01a0 0 alarm
PUBLIC a0210 0 sleep
PUBLIC a0480 0 pause
PUBLIC a0500 0 nanosleep
PUBLIC a0570 0 __libc_fork
PUBLIC a08e0 0 vfork
PUBLIC a0930 0 _exit
PUBLIC a09a4 0 execve
PUBLIC a09e4 0 fexecve
PUBLIC a0ac4 0 execv
PUBLIC a0ae4 0 execle
PUBLIC a0c68 0 execl
PUBLIC a0df4 0 execvp
PUBLIC a0e14 0 execlp
PUBLIC a0f78 0 execvpe
PUBLIC a1438 0 getpid
PUBLIC a1490 0 getppid
PUBLIC a14b0 0 getuid
PUBLIC a14c4 0 geteuid
PUBLIC a14d8 0 getgid
PUBLIC a14ec 0 getegid
PUBLIC a1500 0 getgroups
PUBLIC a1540 0 setuid
PUBLIC a15c4 0 setgid
PUBLIC a1648 0 group_member
PUBLIC a16f0 0 getpgid
PUBLIC a1710 0 setpgid
PUBLIC a1730 0 getpgrp
PUBLIC a1750 0 __bsd_getpgrp
PUBLIC a1754 0 setpgrp
PUBLIC a1760 0 getsid
PUBLIC a1780 0 setsid
PUBLIC a17a0 0 getresuid
PUBLIC a17e0 0 getresgid
PUBLIC a1820 0 setresuid
PUBLIC a18b0 0 setresgid
PUBLIC a1d74 0 pathconf
PUBLIC a1fd0 0 __sysconf
PUBLIC a29ac 0 fpathconf
PUBLIC a2fa0 0 globfree
PUBLIC a3774 0 glob
PUBLIC a4938 0 glob_pattern_p
PUBLIC a5370 0 globfree64
PUBLIC a53d0 0 glob64
PUBLIC aad74 0 fnmatch
PUBLIC ab024 0 confstr
PUBLIC ac5e0 0 getopt
PUBLIC ac608 0 __posix_getopt
PUBLIC ac634 0 getopt_long
PUBLIC ac688 0 getopt_long_only
PUBLIC ac6f0 0 sched_setparam
PUBLIC ac710 0 __sched_getparam
PUBLIC ac730 0 sched_setscheduler
PUBLIC ac750 0 __sched_getscheduler
PUBLIC ac770 0 __sched_yield
PUBLIC ac790 0 __sched_get_priority_max
PUBLIC ac7b0 0 sched_get_priority_min
PUBLIC ac7d0 0 sched_rr_get_interval
PUBLIC ac7f0 0 sched_getaffinity
PUBLIC ac84c 0 sched_setaffinity
PUBLIC ac9f0 0 pread
PUBLIC acacc 0 __libc_pwrite
PUBLIC acba8 0 pread64
PUBLIC acc78 0 __pwrite64
PUBLIC acd48 0 posix_madvise
PUBLIC acd94 0 __sched_cpucount
PUBLIC acfc4 0 __sched_cpualloc
PUBLIC acfd4 0 __sched_cpufree
PUBLIC b013c 0 freeaddrinfo
PUBLIC b016c 0 getaddrinfo
PUBLIC b0ac0 0 gai_strerror
PUBLIC c0dcc 0 re_compile_pattern
PUBLIC c0e60 0 re_set_syntax
PUBLIC c0e88 0 re_compile_fastmap
PUBLIC c153c 0 regcomp
PUBLIC c1630 0 regerror
PUBLIC c16c8 0 regfree
PUBLIC c1708 0 re_comp
PUBLIC c188c 0 regexec
PUBLIC c1a14 0 re_match
PUBLIC c1a40 0 re_search
PUBLIC c1a6c 0 re_match_2
PUBLIC c1ab0 0 re_search_2
PUBLIC c1af4 0 re_set_registers
PUBLIC c1b3c 0 re_exec
PUBLIC c1bb0 0 posix_spawn_file_actions_init
PUBLIC c1bc8 0 posix_spawn_file_actions_destroy
PUBLIC c1bdc 0 posix_spawn_file_actions_addclose
PUBLIC c1c54 0 posix_spawn_file_actions_addopen
PUBLIC c1ce0 0 posix_spawn_file_actions_adddup2
PUBLIC c1d64 0 posix_spawnattr_init
PUBLIC c1d7c 0 posix_spawnattr_destroy
PUBLIC c1d84 0 posix_spawnattr_getsigdefault
PUBLIC c1da4 0 posix_spawnattr_setsigdefault
PUBLIC c1dbc 0 posix_spawnattr_getflags
PUBLIC c1dcc 0 posix_spawnattr_setflags
PUBLIC c1de0 0 posix_spawnattr_getpgroup
PUBLIC c1df0 0 posix_spawnattr_setpgroup
PUBLIC c1dfc 0 posix_spawn
PUBLIC c1e28 0 posix_spawnp
PUBLIC c2520 0 posix_spawnattr_getsigmask
PUBLIC c2540 0 posix_spawnattr_getschedpolicy
PUBLIC c2550 0 posix_spawnattr_getschedparam
PUBLIC c2560 0 posix_spawnattr_setsigmask
PUBLIC c2578 0 posix_spawnattr_setschedpolicy
PUBLIC c258c 0 posix_spawnattr_setschedparam
PUBLIC c259c 0 getlogin
PUBLIC c2680 0 getlogin_r
PUBLIC c59cc 0 wordfree
PUBLIC c5a20 0 wordexp
PUBLIC c6428 0 setlogin
PUBLIC c6470 0 sched_getcpu
PUBLIC c64c8 0 utime
PUBLIC c6504 0 mkfifo
PUBLIC c653c 0 mkfifoat
PUBLIC c657c 0 __xstat
PUBLIC c662c 0 __fxstat
PUBLIC c66dc 0 __lxstat
PUBLIC c678c 0 __xstat64
PUBLIC c67d4 0 __fxstat64
PUBLIC c681c 0 __lxstat64
PUBLIC c6864 0 __xmknod
PUBLIC c6910 0 __xmknodat
PUBLIC c6ac0 0 __fxstatat
PUBLIC c6cb8 0 __fxstatat64
PUBLIC c6e70 0 __statfs
PUBLIC c6e90 0 fstatfs
PUBLIC c6eb0 0 statfs64
PUBLIC c6efc 0 fstatfs64
PUBLIC c6f48 0 statvfs
PUBLIC c6fa8 0 fstatvfs
PUBLIC c7008 0 statvfs64
PUBLIC c7064 0 fstatvfs64
PUBLIC c70c0 0 umask
PUBLIC c70e0 0 chmod
PUBLIC c7100 0 fchmod
PUBLIC c7120 0 fchmodat
PUBLIC c72a0 0 mkdir
PUBLIC c72c0 0 mkdirat
PUBLIC c7400 0 __open
PUBLIC c7470 0 __open64
PUBLIC c772c 0 openat
PUBLIC c77bc 0 __openat_2
PUBLIC c7914 0 openat64
PUBLIC c79a4 0 __openat64_2
PUBLIC c79f0 0 close
PUBLIC c7a80 0 __read
PUBLIC c7b10 0 __write
PUBLIC c7b80 0 lseek
PUBLIC c7ba0 0 access
PUBLIC c7bc0 0 eaccess
PUBLIC c7cd4 0 faccessat
PUBLIC c7fd8 0 fcntl
PUBLIC c80c0 0 flock
PUBLIC c80e0 0 lockf
PUBLIC c81dc 0 lockf64
PUBLIC c8350 0 dup
PUBLIC c8370 0 __dup2
PUBLIC c8390 0 dup3
PUBLIC c83b0 0 pipe
PUBLIC c83d0 0 pipe2
PUBLIC c8410 0 creat
PUBLIC c8480 0 creat64
PUBLIC c8490 0 chdir
PUBLIC c84b0 0 fchdir
PUBLIC c84d0 0 getcwd
PUBLIC c8634 0 getwd
PUBLIC c86bc 0 get_current_dir_name
PUBLIC c875c 0 chown
PUBLIC c879c 0 fchown
PUBLIC c87dc 0 lchown
PUBLIC c881c 0 fchownat
PUBLIC c8994 0 ttyname
PUBLIC c8bf4 0 ttyname_r
PUBLIC c8e68 0 isatty
PUBLIC c8e90 0 link
PUBLIC c8eb0 0 linkat
PUBLIC c9080 0 symlink
PUBLIC c90a0 0 symlinkat
PUBLIC c91d0 0 readlink
PUBLIC c91f0 0 readlinkat
PUBLIC c9320 0 unlink
PUBLIC c9340 0 unlinkat
PUBLIC c94a0 0 rmdir
PUBLIC c94c0 0 __poll
PUBLIC c9584 0 ppoll
PUBLIC c978c 0 posix_fadvise
PUBLIC c97b8 0 posix_fadvise64
PUBLIC c97f4 0 posix_fallocate
PUBLIC c9a1c 0 posix_fallocate64
PUBLIC c9c60 0 sendfile
PUBLIC c9c80 0 sendfile64
PUBLIC c9ca0 0 utimensat
PUBLIC c9d08 0 futimens
PUBLIC c9d54 0 lchmod
PUBLIC cadcc 0 ftw
PUBLIC cadf8 0 nftw
PUBLIC cbeac 0 ftw64
PUBLIC cbed8 0 nftw64
PUBLIC ccae8 0 fts_open
PUBLIC cce2c 0 fts_close
PUBLIC ccf28 0 fts_read
PUBLIC cd454 0 fts_set
PUBLIC cd48c 0 fts_children
PUBLIC cdecc 0 sync_file_range
PUBLIC cdf1c 0 __open_2
PUBLIC cdf40 0 __open64_2
PUBLIC cdf64 0 fallocate
PUBLIC cdfb0 0 fallocate64
PUBLIC cdff8 0 cfgetospeed
PUBLIC ce00c 0 cfgetispeed
PUBLIC ce02c 0 cfsetospeed
PUBLIC ce094 0 cfsetispeed
PUBLIC ce128 0 cfsetspeed
PUBLIC ce1fc 0 tcsetattr
PUBLIC ce2e0 0 tcgetattr
PUBLIC ce3c8 0 tcgetpgrp
PUBLIC ce3f4 0 tcsetpgrp
PUBLIC ce418 0 tcdrain
PUBLIC ce4e0 0 tcflow
PUBLIC ce4f0 0 tcflush
PUBLIC ce500 0 tcsendbreak
PUBLIC ce53c 0 cfmakeraw
PUBLIC ce588 0 tcgetsid
PUBLIC ce678 0 getrlimit
PUBLIC ce6b8 0 setrlimit
PUBLIC ce6f8 0 getrlimit64
PUBLIC ce788 0 setrlimit64
PUBLIC ce7e0 0 getrusage
PUBLIC ce800 0 ulimit
PUBLIC ce8d0 0 vlimit
PUBLIC cea04 0 vtimes
PUBLIC cea40 0 getpriority
PUBLIC cea80 0 setpriority
PUBLIC ceaa0 0 nice
PUBLIC ceb74 0 brk
PUBLIC cec0c 0 __sbrk
PUBLIC ceca8 0 sstk
PUBLIC cecd0 0 ioctl
PUBLIC cef64 0 readv
PUBLIC cf2b8 0 writev
PUBLIC cf628 0 preadv
PUBLIC cf9ac 0 preadv64
PUBLIC cfca8 0 pwritev
PUBLIC cffa8 0 pwritev64
PUBLIC d00c4 0 setreuid
PUBLIC d014c 0 setregid
PUBLIC d01d4 0 seteuid
PUBLIC d0298 0 setegid
PUBLIC d035c 0 getpagesize
PUBLIC d0384 0 getdtablesize
PUBLIC d03ac 0 gethostname
PUBLIC d0430 0 sethostname
PUBLIC d0450 0 getdomainname
PUBLIC d04b0 0 setdomainname
PUBLIC d0500 0 __select
PUBLIC d0580 0 pselect
PUBLIC d0740 0 acct
PUBLIC d0760 0 chroot
PUBLIC d07a0 0 fsync
PUBLIC d0810 0 sync
PUBLIC d0850 0 fdatasync
PUBLIC d08c0 0 reboot
PUBLIC d0914 0 gethostid
PUBLIC d0ab8 0 sethostid
PUBLIC d0bc0 0 vhangup
PUBLIC d0be0 0 swapon
PUBLIC d0c00 0 swapoff
PUBLIC d0c20 0 mktemp
PUBLIC d0c4c 0 mkstemp
PUBLIC d0c5c 0 mkstemp64
PUBLIC d0c6c 0 mkdtemp
PUBLIC d0c94 0 mkostemp
PUBLIC d0ca4 0 mkostemp64
PUBLIC d0cb4 0 mkstemps
PUBLIC d0cf0 0 mkstemps64
PUBLIC d0d2c 0 mkostemps
PUBLIC d0d64 0 mkostemps64
PUBLIC d0da0 0 ualarm
PUBLIC d0df0 0 usleep
PUBLIC d0e3c 0 gtty
PUBLIC d0e88 0 stty
PUBLIC d0ed4 0 ptrace
PUBLIC d0fac 0 getmntent
PUBLIC d1174 0 setmntent
PUBLIC d11e4 0 endmntent
PUBLIC d11fc 0 __getmntent_r
PUBLIC d167c 0 addmntent
PUBLIC d1bc0 0 hasmntopt
PUBLIC d1c4c 0 utimes
PUBLIC d1c90 0 lutimes
PUBLIC d1d58 0 futimes
PUBLIC d1f64 0 futimesat
PUBLIC d20e0 0 truncate
PUBLIC d2100 0 ftruncate
PUBLIC d2120 0 truncate64
PUBLIC d2164 0 ftruncate64
PUBLIC d21a8 0 insque
PUBLIC d21d4 0 remque
PUBLIC d22fc 0 setttyent
PUBLIC d2364 0 getttyent
PUBLIC d283c 0 endttyent
PUBLIC d2878 0 getttynam
PUBLIC d2b4c 0 getusershell
PUBLIC d2b9c 0 endusershell
PUBLIC d2bd0 0 setusershell
PUBLIC d2bf8 0 getpass
PUBLIC d2de4 0 ttyslot
PUBLIC d32f0 0 __vsyslog_chk
PUBLIC d38e0 0 __syslog_chk
PUBLIC d3910 0 syslog
PUBLIC d3944 0 vsyslog
PUBLIC d3958 0 openlog
PUBLIC d39e8 0 closelog
PUBLIC d3a88 0 setlogmask
PUBLIC d3ab0 0 syscall
PUBLIC d3ae0 0 daemon
PUBLIC d3c50 0 mmap
PUBLIC d3ca0 0 mmap64
PUBLIC d3d00 0 munmap
PUBLIC d3d20 0 mprotect
PUBLIC d3d60 0 msync
PUBLIC d3dd0 0 madvise
PUBLIC d3df0 0 mincore
PUBLIC d3e10 0 remap_file_pages
PUBLIC d3e40 0 mlock
PUBLIC d3e60 0 munlock
PUBLIC d3e80 0 mlockall
PUBLIC d3ea0 0 munlockall
PUBLIC d3ec0 0 hdestroy
PUBLIC d3ed0 0 hsearch
PUBLIC d3f08 0 hcreate
PUBLIC d3f18 0 hcreate_r
PUBLIC d3ffc 0 hdestroy_r
PUBLIC d4038 0 hsearch_r
PUBLIC d4498 0 tsearch
PUBLIC d45cc 0 tfind
PUBLIC d4630 0 tdelete
PUBLIC d4a70 0 twalk
PUBLIC d4a84 0 tdestroy
PUBLIC d4a90 0 lsearch
PUBLIC d4b24 0 lfind
PUBLIC d4c90 0 vwarnx
PUBLIC d4d60 0 vwarn
PUBLIC d4ea0 0 warn
PUBLIC d4ed0 0 warnx
PUBLIC d4f00 0 verr
PUBLIC d4f1c 0 verrx
PUBLIC d4f38 0 err
PUBLIC d4f58 0 errx
PUBLIC d51a0 0 error
PUBLIC d52ac 0 error_at_line
PUBLIC d544c 0 ustat
PUBLIC d586c 0 get_nprocs
PUBLIC d59d8 0 get_nprocs_conf
PUBLIC d5aa0 0 get_phys_pages
PUBLIC d5ab0 0 get_avphys_pages
PUBLIC d5ac0 0 dirname
PUBLIC d5c24 0 getloadavg
PUBLIC d5dd0 0 fgetxattr
PUBLIC d5df0 0 flistxattr
PUBLIC d5e10 0 fremovexattr
PUBLIC d5e30 0 fsetxattr
PUBLIC d5e60 0 getxattr
PUBLIC d5e80 0 listxattr
PUBLIC d5ea0 0 lgetxattr
PUBLIC d5ec0 0 llistxattr
PUBLIC d5ee0 0 lremovexattr
PUBLIC d5f00 0 lsetxattr
PUBLIC d5f30 0 removexattr
PUBLIC d5f50 0 setxattr
PUBLIC d5f80 0 step
PUBLIC d6000 0 advance
PUBLIC d6208 0 setfsent
PUBLIC d6220 0 getfsent
PUBLIC d6264 0 getfsspec
PUBLIC d62c8 0 getfsfile
PUBLIC d632c 0 endfsent
PUBLIC d6358 0 chflags
PUBLIC d63a4 0 fchflags
PUBLIC d63f0 0 revoke
PUBLIC d6414 0 fcvt
PUBLIC d64bc 0 ecvt
PUBLIC d64f4 0 gcvt
PUBLIC d652c 0 fcvt_r
PUBLIC d69f4 0 ecvt_r
PUBLIC d6d04 0 qfcvt
PUBLIC d6db0 0 qecvt
PUBLIC d6de8 0 qgcvt
PUBLIC d6e20 0 qfcvt_r
PUBLIC d72e8 0 qecvt_r
PUBLIC d7928 0 ioperm
PUBLIC d7a34 0 iopl
PUBLIC d7a7c 0 outb
PUBLIC d7a9c 0 outw
PUBLIC d7abc 0 outl
PUBLIC d7adc 0 inb
PUBLIC d7afc 0 inw
PUBLIC d7b1c 0 inl
PUBLIC d7b3c 0 __sysctl
PUBLIC d7bd0 0 clone
PUBLIC d7c60 0 llseek
PUBLIC d7cc8 0 umount
PUBLIC d7cd0 0 umount2
PUBLIC d7cf0 0 readahead
PUBLIC d7d38 0 setfsuid
PUBLIC d7d4c 0 setfsgid
PUBLIC d7d60 0 gnu_dev_major
PUBLIC d7d74 0 gnu_dev_minor
PUBLIC d7d8c 0 gnu_dev_makedev
PUBLIC d7de0 0 epoll_pwait
PUBLIC d7ebc 0 signalfd
PUBLIC d7f64 0 eventfd
PUBLIC d8000 0 eventfd_read
PUBLIC d801c 0 eventfd_write
PUBLIC d8050 0 ntp_adjtime
PUBLIC d8070 0 bdflush
PUBLIC d8090 0 capget
PUBLIC d80b0 0 capset
PUBLIC d80d0 0 delete_module
PUBLIC d80f0 0 epoll_create
PUBLIC d8110 0 epoll_create1
PUBLIC d8130 0 epoll_ctl
PUBLIC d8170 0 epoll_wait
PUBLIC d81e0 0 init_module
PUBLIC d8210 0 inotify_add_watch
PUBLIC d8230 0 inotify_init
PUBLIC d8250 0 inotify_init1
PUBLIC d8270 0 inotify_rm_watch
PUBLIC d8290 0 klogctl
PUBLIC d82b0 0 mount
PUBLIC d82e0 0 mremap
PUBLIC d8310 0 nfsservctl
PUBLIC d8330 0 personality
PUBLIC d8350 0 pivot_root
PUBLIC d8370 0 prctl
PUBLIC d83a0 0 quotactl
PUBLIC d83f0 0 splice
PUBLIC d8470 0 sysinfo
PUBLIC d84b0 0 tee
PUBLIC d8520 0 unshare
PUBLIC d8540 0 uselib
PUBLIC d8580 0 vmsplice
PUBLIC d85f0 0 timerfd_create
PUBLIC d8610 0 timerfd_settime
PUBLIC d8630 0 timerfd_gettime
PUBLIC d8650 0 get_kernel_syms
PUBLIC d86a0 0 accept
PUBLIC d8710 0 bind
PUBLIC d8750 0 connect
PUBLIC d87c0 0 getpeername
PUBLIC d87e0 0 getsockname
PUBLIC d8800 0 getsockopt
PUBLIC d8830 0 listen
PUBLIC d8870 0 recv
PUBLIC d8910 0 recvfrom
PUBLIC d89b0 0 recvmsg
PUBLIC d8a40 0 __send
PUBLIC d8ad0 0 sendmsg
PUBLIC d8b70 0 sendto
PUBLIC d8bf0 0 setsockopt
PUBLIC d8c20 0 shutdown
PUBLIC d8c40 0 socket
PUBLIC d8c60 0 socketpair
PUBLIC d8c80 0 isfdtype
PUBLIC d99ac 0 sockatmark
PUBLIC d99d4 0 accept4
PUBLIC d99f8 0 __cmsg_nxthdr
PUBLIC d9a54 0 __libc_sa_len
PUBLIC d9a84 0 ftok
PUBLIC d9af0 0 msgsnd
PUBLIC d9b90 0 msgrcv
PUBLIC d9c10 0 msgget
PUBLIC d9c30 0 msgctl
PUBLIC d9c80 0 semop
PUBLIC d9ca0 0 semget
PUBLIC d9cc0 0 semctl
PUBLIC d9d30 0 semtimedop
PUBLIC d9d50 0 shmat
PUBLIC d9d70 0 shmdt
PUBLIC d9d90 0 shmget
PUBLIC d9db0 0 shmctl
PUBLIC da330 0 moncontrol
PUBLIC da394 0 __monstartup
PUBLIC da584 0 _mcleanup
PUBLIC da7ac 0 profil
PUBLIC dac48 0 sprofil
PUBLIC db110 0 __profile_frequency
PUBLIC db130 0 __gnu_mcount_nc
PUBLIC db150 0 _mcount
PUBLIC db170 0 wctrans
PUBLIC db1fc 0 towctrans
PUBLIC db25c 0 __towctrans_l
PUBLIC db2bc 0 iswalnum
PUBLIC db3b8 0 iswalpha
PUBLIC db4b4 0 iswblank
PUBLIC db5b0 0 iswcntrl
PUBLIC db6ac 0 iswdigit
PUBLIC db764 0 iswlower
PUBLIC db860 0 iswgraph
PUBLIC db95c 0 iswprint
PUBLIC dba58 0 iswpunct
PUBLIC dbb54 0 iswspace
PUBLIC dbc50 0 iswupper
PUBLIC dbd44 0 iswxdigit
PUBLIC dbe40 0 towlower
PUBLIC dbecc 0 towupper
PUBLIC dbf50 0 wctype
PUBLIC dbfd8 0 __iswctype
PUBLIC dc04c 0 __iswalnum_l
PUBLIC dc0dc 0 __iswalpha_l
PUBLIC dc16c 0 __iswblank_l
PUBLIC dc1fc 0 iswcntrl_l
PUBLIC dc28c 0 iswdigit_l
PUBLIC dc320 0 __iswlower_l
PUBLIC dc3b0 0 __iswgraph_l
PUBLIC dc440 0 __iswprint_l
PUBLIC dc4d0 0 __iswpunct_l
PUBLIC dc560 0 __iswspace_l
PUBLIC dc5f0 0 __iswupper_l
PUBLIC dc680 0 iswxdigit_l
PUBLIC dc710 0 __towlower_l
PUBLIC dc778 0 __towupper_l
PUBLIC dc7e0 0 __wctype_l
PUBLIC dc858 0 iswctype_l
PUBLIC dc8cc 0 wctrans_l
PUBLIC dc944 0 getspent
PUBLIC dca78 0 getspnam
PUBLIC dcc68 0 sgetspent
PUBLIC dce98 0 fgetspent
PUBLIC dd0d4 0 putspent
PUBLIC dd54c 0 setspent
PUBLIC dd684 0 endspent
PUBLIC dd7bc 0 getspent_r
PUBLIC dd92c 0 getspnam_r
PUBLIC ddafc 0 _nss_files_parse_spent
PUBLIC dde70 0 sgetspent_r
PUBLIC ddf08 0 fgetspent_r
PUBLIC de25c 0 lckpwdf
PUBLIC de800 0 ulckpwdf
PUBLIC de904 0 getsgent
PUBLIC dea44 0 getsgnam
PUBLIC dec34 0 sgetsgent
PUBLIC dee64 0 fgetsgent
PUBLIC df0a0 0 putsgent
PUBLIC df330 0 setsgent
PUBLIC df468 0 endsgent
PUBLIC df5a0 0 getsgent_r
PUBLIC df710 0 getsgnam_r
PUBLIC df8e0 0 _nss_files_parse_sgent
PUBLIC dfcf4 0 sgetsgent_r
PUBLIC dfdb0 0 fgetsgent_r
PUBLIC e2d94 0 argp_failure
PUBLIC e47d0 0 argp_state_help
PUBLIC e48a0 0 argp_error
PUBLIC e4984 0 argp_help
PUBLIC e4f90 0 argp_parse
PUBLIC e5da4 0 argp_usage
PUBLIC e5ed0 0 pthread_equal
PUBLIC e5f08 0 pthread_attr_destroy
PUBLIC e5f3c 0 pthread_attr_init
PUBLIC e5f74 0 pthread_attr_getdetachstate
PUBLIC e5fac 0 pthread_attr_setdetachstate
PUBLIC e5fe4 0 pthread_attr_getinheritsched
PUBLIC e601c 0 pthread_attr_setinheritsched
PUBLIC e6054 0 pthread_attr_getschedparam
PUBLIC e608c 0 pthread_attr_setschedparam
PUBLIC e60c4 0 pthread_attr_getschedpolicy
PUBLIC e60fc 0 pthread_attr_setschedpolicy
PUBLIC e6134 0 pthread_attr_getscope
PUBLIC e616c 0 pthread_attr_setscope
PUBLIC e61a4 0 pthread_condattr_destroy
PUBLIC e61dc 0 pthread_condattr_init
PUBLIC e6214 0 pthread_cond_broadcast
PUBLIC e624c 0 pthread_cond_destroy
PUBLIC e6284 0 pthread_cond_init
PUBLIC e62bc 0 pthread_cond_signal
PUBLIC e62f4 0 pthread_cond_wait
PUBLIC e632c 0 pthread_cond_timedwait
PUBLIC e6364 0 pthread_exit
PUBLIC e639c 0 pthread_getschedparam
PUBLIC e63d4 0 pthread_setschedparam
PUBLIC e640c 0 pthread_mutex_destroy
PUBLIC e6444 0 pthread_mutex_init
PUBLIC e647c 0 pthread_mutex_lock
PUBLIC e64b4 0 pthread_mutex_unlock
PUBLIC e64ec 0 pthread_self
PUBLIC e651c 0 pthread_setcancelstate
PUBLIC e6554 0 pthread_setcanceltype
PUBLIC e67f4 0 __register_atfork
PUBLIC e6c14 0 __libc_pthread_init
PUBLIC e6ca0 0 hstrerror
PUBLIC e6d20 0 herror
PUBLIC e6dd4 0 inet_aton
PUBLIC e6f64 0 inet_addr
PUBLIC e7004 0 inet_ntop
PUBLIC e77bc 0 inet_pton
PUBLIC e7acc 0 inet_nsap_addr
PUBLIC e7cc8 0 inet_nsap_ntoa
PUBLIC e8098 0 __res_randomid
PUBLIC e8c40 0 __res_ninit
PUBLIC e8c48 0 __res_iclose
PUBLIC e8d68 0 __res_nclose
PUBLIC e9d9c 0 __res_init
PUBLIC e9f44 0 __res_maybe_init
PUBLIC ea074 0 __res_state
PUBLIC ea090 0 __gai_sigqueue
PUBLIC ea768 0 __nss_database_lookup
PUBLIC eac30 0 __nss_configure_lookup
PUBLIC eaef8 0 __nss_lookup_function
PUBLIC eb254 0 __nss_next2
PUBLIC eb418 0 __nss_disable_nscd
PUBLIC eba48 0 __nss_group_lookup2
PUBLIC ebac8 0 __nss_passwd_lookup2
PUBLIC ebcd0 0 __nss_services_lookup2
PUBLIC ebd48 0 __nss_hosts_lookup2
PUBLIC ec0a8 0 __nss_hostname_digits_dots
PUBLIC ec7d4 0 __cyg_profile_func_enter
PUBLIC ec7d8 0 __memcpy_chk
PUBLIC ec91c 0 __memmove_chk
PUBLIC ecb74 0 __mempcpy_chk
PUBLIC eccbc 0 __memset_chk
PUBLIC ece74 0 __stpcpy_chk
PUBLIC ecef8 0 __strcat_chk
PUBLIC ecfcc 0 __strcpy_chk
PUBLIC ed0c0 0 __strncat_chk
PUBLIC ed37c 0 __strncpy_chk
PUBLIC ed5fc 0 __stpncpy_chk
PUBLIC ed86c 0 __sprintf_chk
PUBLIC ed8a4 0 __vsprintf_chk
PUBLIC ed940 0 __snprintf_chk
PUBLIC ed968 0 __vsnprintf_chk
PUBLIC eda28 0 __printf_chk
PUBLIC edc64 0 __fprintf_chk
PUBLIC ede78 0 __vprintf_chk
PUBLIC ee0a0 0 __vfprintf_chk
PUBLIC ee2a0 0 __gets_chk
PUBLIC ee540 0 __chk_fail
PUBLIC ee724 0 __fgets_chk
PUBLIC ee980 0 __fgets_unlocked_chk
PUBLIC eea48 0 __read_chk
PUBLIC eea94 0 __pread_chk
PUBLIC eeab0 0 __pread64_chk
PUBLIC eead4 0 __recv_chk
PUBLIC eeaf0 0 __recvfrom_chk
PUBLIC eeb18 0 __readlink_chk
PUBLIC eeb64 0 __readlinkat_chk
PUBLIC eeb80 0 __getwd_chk
PUBLIC eebb8 0 __getcwd_chk
PUBLIC eebd0 0 __realpath_chk
PUBLIC eebe8 0 __ptsname_r_chk
PUBLIC eec00 0 __fread_chk
PUBLIC eee38 0 __fread_unlocked_chk
PUBLIC eeec4 0 __confstr_chk
PUBLIC eeedc 0 __getgroups_chk
PUBLIC eef1c 0 __ttyname_r_chk
PUBLIC eef34 0 __gethostname_chk
PUBLIC eef4c 0 __getdomainname_chk
PUBLIC eef64 0 __asprintf_chk
PUBLIC eef94 0 __vasprintf_chk
PUBLIC ef0f8 0 __dprintf_chk
PUBLIC ef128 0 __vdprintf_chk
PUBLIC ef200 0 __obstack_vprintf_chk
PUBLIC ef39c 0 __obstack_printf_chk
PUBLIC ef3cc 0 __longjmp_chk
PUBLIC ef4f0 0 __stack_chk_fail
PUBLIC ef504 0 __fortify_fail
PUBLIC ef554 0 __getlogin_r_chk
PUBLIC ef650 0 backtrace
PUBLIC ef758 0 __backtrace_symbols
PUBLIC efbc8 0 backtrace_symbols_fd
PUBLIC efe64 0 __wprintf_chk
PUBLIC f00a0 0 __fwprintf_chk
PUBLIC f02b4 0 __vwprintf_chk
PUBLIC f04dc 0 __vfwprintf_chk
PUBLIC f06dc 0 __fgetws_chk
PUBLIC f0938 0 __fgetws_unlocked_chk
PUBLIC f0a00 0 __wctomb_chk
PUBLIC f0a48 0 __wcscpy_chk
PUBLIC f0ab8 0 __wmemcpy_chk
PUBLIC f0ad4 0 __wmemmove_chk
PUBLIC f0af0 0 __wmempcpy_chk
PUBLIC f0b0c 0 __wcpcpy_chk
PUBLIC f0b84 0 __wcsncpy_chk
PUBLIC f0b9c 0 __wcscat_chk
PUBLIC f0c70 0 __wcsncat_chk
PUBLIC f0f2c 0 __wmemset_chk
PUBLIC f0f44 0 __wcpncpy_chk
PUBLIC f0f5c 0 __swprintf_chk
PUBLIC f0f84 0 __vswprintf_chk
PUBLIC f1050 0 __wcrtomb_chk
PUBLIC f108c 0 __mbsnrtowcs_chk
PUBLIC f10b0 0 __wcsnrtombs_chk
PUBLIC f10d4 0 __mbsrtowcs_chk
PUBLIC f10f0 0 __wcsrtombs_chk
PUBLIC f110c 0 __mbstowcs_chk
PUBLIC f1144 0 __wcstombs_chk
PUBLIC f1464 0 htonl
PUBLIC f1478 0 htons
PUBLIC f1488 0 inet_lnaof
PUBLIC f14b8 0 inet_makeaddr
PUBLIC f1500 0 inet_netof
PUBLIC f152c 0 inet_ntoa
PUBLIC f159c 0 inet_network
PUBLIC f1820 0 __h_errno_location
PUBLIC f183c 0 gethostbyaddr
PUBLIC f1a68 0 gethostbyaddr_r
PUBLIC f1d8c 0 gethostbyname
PUBLIC f1fd8 0 gethostbyname2
PUBLIC f222c 0 gethostbyname2_r
PUBLIC f2530 0 gethostbyname_r
PUBLIC f282c 0 gethostent
PUBLIC f295c 0 sethostent
PUBLIC f2a84 0 endhostent
PUBLIC f2ba4 0 gethostent_r
PUBLIC f2d0c 0 getnetbyaddr
PUBLIC f2f38 0 getnetbyaddr_r
PUBLIC f3174 0 getnetbyname
PUBLIC f3394 0 getnetent
PUBLIC f34c4 0 setnetent
PUBLIC f35ec 0 endnetent
PUBLIC f370c 0 getnetent_r
PUBLIC f3874 0 getnetbyname_r
PUBLIC f3aa8 0 getprotobynumber
PUBLIC f3c8c 0 getprotobynumber_r
PUBLIC f3e2c 0 getprotoent
PUBLIC f3f48 0 setprotoent
PUBLIC f4070 0 endprotoent
PUBLIC f4190 0 getprotoent_r
PUBLIC f42ec 0 getprotobyname
PUBLIC f44d0 0 getprotobyname_r
PUBLIC f4670 0 getservbyname
PUBLIC f4860 0 getservbyname_r
PUBLIC f4a58 0 getservbyport
PUBLIC f4c48 0 getservbyport_r
PUBLIC f4e40 0 getservent
PUBLIC f4f5c 0 setservent
PUBLIC f5084 0 endservent
PUBLIC f51a4 0 getservent_r
PUBLIC f5300 0 getrpcent
PUBLIC f5434 0 getrpcbyname
PUBLIC f5624 0 getrpcbynumber
PUBLIC f5814 0 setrpcent
PUBLIC f593c 0 endrpcent
PUBLIC f5a5c 0 getrpcent_r
PUBLIC f5bb8 0 getrpcbyname_r
PUBLIC f5d88 0 getrpcbynumber_r
PUBLIC f5f58 0 ether_aton
PUBLIC f5f68 0 ether_aton_r
PUBLIC f651c 0 ether_hostton
PUBLIC f665c 0 ether_line
PUBLIC f6d50 0 ether_ntoa
PUBLIC f6d60 0 ether_ntoa_r
PUBLIC f6db0 0 ether_ntohost
PUBLIC f71a0 0 __internal_setnetgrent
PUBLIC f71dc 0 setnetgrent
PUBLIC f72c4 0 __internal_endnetgrent
PUBLIC f72e0 0 endnetgrent
PUBLIC f73b4 0 __internal_getnetgrent_r
PUBLIC f7588 0 getnetgrent_r
PUBLIC f76b0 0 innetgr
PUBLIC f79c0 0 getnetgrent
PUBLIC f7e9c 0 getnameinfo
PUBLIC f85c8 0 if_nametoindex
PUBLIC f8674 0 if_freenameindex
PUBLIC f86b0 0 if_nameindex
PUBLIC f896c 0 if_indextoname
PUBLIC f8f28 0 getifaddrs
PUBLIC f9a2c 0 freeifaddrs
PUBLIC f9a30 0 getipv4sourcefilter
PUBLIC f9b40 0 setipv4sourcefilter
PUBLIC f9e2c 0 getsourcefilter
PUBLIC f9f74 0 setsourcefilter
PUBLIC faa14 0 rresvport_af
PUBLIC fab4c 0 rcmd_af
PUBLIC fb4fc 0 rcmd
PUBLIC fb528 0 rresvport
PUBLIC fb530 0 ruserok_af
PUBLIC fb600 0 ruserok
PUBLIC fb61c 0 iruserok_af
PUBLIC fb6c4 0 iruserok
PUBLIC fb6ec 0 __ivaliduser
PUBLIC fb748 0 rexec_af
PUBLIC fbbfc 0 rexec
PUBLIC fbf24 0 ruserpass
PUBLIC fc334 0 setaliasent
PUBLIC fc46c 0 endaliasent
PUBLIC fc5a4 0 getaliasent_r
PUBLIC fc714 0 getaliasent
PUBLIC fc848 0 getaliasbyname
PUBLIC fca38 0 getaliasbyname_r
PUBLIC fcdb4 0 inet6_option_space
PUBLIC fcdc4 0 inet6_option_init
PUBLIC fcdf8 0 inet6_option_append
PUBLIC fce40 0 inet6_option_alloc
PUBLIC fce44 0 inet6_option_next
PUBLIC fcefc 0 inet6_option_find
PUBLIC fd008 0 inet6_opt_init
PUBLIC fd04c 0 inet6_opt_append
PUBLIC fd124 0 inet6_opt_finish
PUBLIC fd174 0 inet6_opt_set_val
PUBLIC fd198 0 inet6_opt_next
PUBLIC fd224 0 inet6_opt_find
PUBLIC fd2c0 0 inet6_opt_get_val
PUBLIC fd2e4 0 inet6_rth_space
PUBLIC fd304 0 inet6_rth_init
PUBLIC fd354 0 inet6_rth_add
PUBLIC fd3a0 0 inet6_rth_reverse
PUBLIC fd554 0 inet6_rth_segments
PUBLIC fd56c 0 inet6_rth_getaddr
PUBLIC fe164 0 authnone_create
PUBLIC fe49c 0 authunix_create
PUBLIC fe628 0 authunix_create_default
PUBLIC fe760 0 xdr_authunix_parms
PUBLIC fe7fc 0 bindresvport
PUBLIC fe9d8 0 clnt_create
PUBLIC fec68 0 clnt_sperrno
PUBLIC fed00 0 clnt_sperror
PUBLIC ff004 0 clnt_perror
PUBLIC ff028 0 clnt_perrno
PUBLIC ff04c 0 clnt_spcreateerror
PUBLIC ff12c 0 clnt_pcreateerror
PUBLIC ff3a4 0 clntraw_create
PUBLIC ff4d0 0 callrpc
PUBLIC ffdc4 0 clnttcp_create
PUBLIC 1008e4 0 __libc_clntudp_bufcreate
PUBLIC 100c58 0 clntudp_bufcreate
PUBLIC 100ca4 0 clntudp_create
PUBLIC 100cf0 0 _rpc_dtablesize
PUBLIC 100d18 0 get_myaddress
PUBLIC 100dd4 0 getrpcport
PUBLIC 100f84 0 pmap_set
PUBLIC 1010b8 0 pmap_unset
PUBLIC 1011a8 0 pmap_getmaps
PUBLIC 101344 0 pmap_getport
PUBLIC 1014e0 0 xdr_pmap
PUBLIC 101530 0 xdr_pmaplist
PUBLIC 1015e8 0 pmap_rmtcall
PUBLIC 1016f4 0 xdr_rmtcall_args
PUBLIC 101800 0 xdr_rmtcallres
PUBLIC 101870 0 clnt_broadcast
PUBLIC 101fb4 0 xdr_opaque_auth
PUBLIC 101fe4 0 xdr_des_block
PUBLIC 101fec 0 xdr_accepted_reply
PUBLIC 10206c 0 xdr_rejected_reply
PUBLIC 1020d4 0 xdr_replymsg
PUBLIC 102144 0 xdr_callhdr
PUBLIC 1021cc 0 _seterr_reply
PUBLIC 1022d0 0 xdr_callmsg
PUBLIC 1028f0 0 __rpc_thread_svc_fdset
PUBLIC 102928 0 __rpc_thread_createerr
PUBLIC 102964 0 __rpc_thread_svc_pollfd
PUBLIC 1029a0 0 __rpc_thread_svc_max_pollfd
PUBLIC 102a48 0 xprt_register
PUBLIC 102ba0 0 xprt_unregister
PUBLIC 102c54 0 svc_register
PUBLIC 102d08 0 svc_unregister
PUBLIC 102d98 0 svc_sendreply
PUBLIC 102df0 0 svcerr_noproc
PUBLIC 102e40 0 svcerr_decode
PUBLIC 102e90 0 svcerr_systemerr
PUBLIC 102ee0 0 svcerr_auth
PUBLIC 102f14 0 svcerr_weakauth
PUBLIC 102f4c 0 svcerr_noprog
PUBLIC 102f98 0 svcerr_progvers
PUBLIC 102ff8 0 svc_getreq
PUBLIC 103040 0 svc_getreqset
PUBLIC 1030b0 0 svc_getreq_poll
PUBLIC 103144 0 svc_getreq_common
PUBLIC 103358 0 _authenticate
PUBLIC 103798 0 svcraw_create
PUBLIC 10382c 0 svc_exit
PUBLIC 103854 0 svc_run
PUBLIC 103c40 0 registerrpc
PUBLIC 1041f8 0 svctcp_create
PUBLIC 104410 0 svcfd_create
PUBLIC 104a54 0 svcudp_bufcreate
PUBLIC 104ccc 0 svcudp_create
PUBLIC 104cdc 0 svcudp_enablecache
PUBLIC 104e68 0 xdr_free
PUBLIC 104e90 0 xdr_void
PUBLIC 104e98 0 xdr_int
PUBLIC 104e9c 0 xdr_u_int
PUBLIC 104ea0 0 xdr_long
PUBLIC 104ee8 0 xdr_u_long
PUBLIC 104f4c 0 xdr_hyper
PUBLIC 10501c 0 xdr_u_hyper
PUBLIC 1050ec 0 xdr_longlong_t
PUBLIC 1050f0 0 xdr_u_longlong_t
PUBLIC 1050f4 0 xdr_short
PUBLIC 105164 0 xdr_u_short
PUBLIC 1051d4 0 xdr_char
PUBLIC 105208 0 xdr_u_char
PUBLIC 10523c 0 xdr_bool
PUBLIC 1052c0 0 xdr_enum
PUBLIC 1052c4 0 xdr_opaque
PUBLIC 105394 0 xdr_bytes
PUBLIC 1054b4 0 xdr_netobj
PUBLIC 1054c4 0 xdr_union
PUBLIC 105560 0 xdr_string
PUBLIC 1056a0 0 xdr_wrapstring
PUBLIC 1056b8 0 xdr_array
PUBLIC 105810 0 xdr_vector
PUBLIC 1058b0 0 xdr_float
PUBLIC 1058f4 0 xdr_double
PUBLIC 105bbc 0 xdrmem_create
PUBLIC 106254 0 xdrrec_create
PUBLIC 1063a0 0 xdrrec_skiprecord
PUBLIC 106484 0 xdrrec_eof
PUBLIC 106570 0 xdrrec_endofrecord
PUBLIC 1065f0 0 xdr_reference
PUBLIC 1066d4 0 xdr_pointer
PUBLIC 10690c 0 xdrstdio_create
PUBLIC 106934 0 getpublickey
PUBLIC 106a3c 0 getsecretkey
PUBLIC 106c58 0 xdr_sizeof
PUBLIC 1071b4 0 authdes_create
PUBLIC 107218 0 authdes_pk_create
PUBLIC 1073fc 0 xdr_authdes_cred
PUBLIC 107498 0 xdr_authdes_verf
PUBLIC 10798c 0 key_setsecret
PUBLIC 1079e4 0 key_secretkey_is_set
PUBLIC 107a54 0 key_encryptsession
PUBLIC 107ad0 0 key_decryptsession
PUBLIC 107b4c 0 key_encryptsession_pk
PUBLIC 107bd4 0 key_decryptsession_pk
PUBLIC 107c5c 0 key_gendes
PUBLIC 107d5c 0 key_setnet
PUBLIC 107db8 0 key_get_conv
PUBLIC 107e7c 0 xdr_keystatus
PUBLIC 107e90 0 xdr_keybuf
PUBLIC 107ea8 0 xdr_netnamestr
PUBLIC 107ec0 0 xdr_cryptkeyarg
PUBLIC 107ef0 0 xdr_cryptkeyarg2
PUBLIC 107f34 0 xdr_cryptkeyres
PUBLIC 107f78 0 xdr_unixcred
PUBLIC 107fe8 0 xdr_getcredres
PUBLIC 10802c 0 xdr_key_netstarg
PUBLIC 108070 0 xdr_key_netstres
PUBLIC 1080b4 0 user2netname
PUBLIC 108178 0 host2netname
PUBLIC 1082c8 0 getnetname
PUBLIC 1082fc 0 netname2user
PUBLIC 108408 0 netname2host
PUBLIC 10863c 0 rtime
PUBLIC 108f70 0 authdes_getucred
PUBLIC 109944 0 clntunix_create
PUBLIC 10a0fc 0 svcunix_create
PUBLIC 10a308 0 svcunixfd_create
PUBLIC 10a438 0 xdr_int64_t
PUBLIC 10a504 0 xdr_uint64_t
PUBLIC 10a5d0 0 xdr_int32_t
PUBLIC 10a614 0 xdr_uint32_t
PUBLIC 10a658 0 xdr_int16_t
PUBLIC 10a6c8 0 xdr_uint16_t
PUBLIC 10a738 0 xdr_int8_t
PUBLIC 10a7a8 0 xdr_uint8_t
PUBLIC 10aa2c 0 passwd2des
PUBLIC 10aa9c 0 xencrypt
PUBLIC 10ab40 0 xdecrypt
PUBLIC 10ac94 0 cbc_crypt
PUBLIC 10ad98 0 ecb_crypt
PUBLIC 10c8f8 0 des_setparity
PUBLIC 1102c0 0 isastream
PUBLIC 1102dc 0 getmsg
PUBLIC 110300 0 getpmsg
PUBLIC 110324 0 putmsg
PUBLIC 110348 0 putpmsg
PUBLIC 11036c 0 fattach
PUBLIC 110390 0 fdetach
PUBLIC 1103b4 0 posix_openpt
PUBLIC 1105d4 0 getpt
PUBLIC 1105f0 0 grantpt
PUBLIC 110adc 0 unlockpt
PUBLIC 110b5c 0 ptsname_r
PUBLIC 110ecc 0 ptsname
PUBLIC 110ef8 0 getutent
PUBLIC 1110e4 0 setutent
PUBLIC 1111c0 0 getutent_r
PUBLIC 1112b8 0 pututline
PUBLIC 1113a8 0 endutent
PUBLIC 111498 0 getutid
PUBLIC 1114f8 0 getutline
PUBLIC 111558 0 getutid_r
PUBLIC 1116c8 0 getutline_r
PUBLIC 112b5c 0 utmpname
PUBLIC 112cf8 0 updwtmp
PUBLIC 112e1c 0 setutxent
PUBLIC 112e20 0 getutxent
PUBLIC 112e24 0 endutxent
PUBLIC 112e28 0 getutxid
PUBLIC 112e2c 0 getutxline
PUBLIC 112e30 0 pututxline
PUBLIC 112e34 0 utmpxname
PUBLIC 112e38 0 updwtmpx
PUBLIC 112e3c 0 getutmpx
PUBLIC 112e80 0 dl_iterate_phdr
PUBLIC 113140 0 _dl_addr
PUBLIC 1135fc 0 _dl_mcount_wrapper
PUBLIC 11362c 0 _dl_mcount_wrapper_check
PUBLIC 1137f0 0 __libc_dlopen_mode
PUBLIC 113844 0 __libc_dlsym
PUBLIC 1138b0 0 __libc_dlclose
PUBLIC 113e9c 0 _dl_vsym
PUBLIC 113f5c 0 _dl_sym
PUBLIC 113f7c 0 __libc_dl_error_tsd
PUBLIC 1140c4 0 __gnu_Unwind_Find_exidx
PUBLIC 1145a0 0 __nss_next
PUBLIC 1145cc 0 __nss_group_lookup
PUBLIC 1145d8 0 __nss_passwd_lookup
PUBLIC 114608 0 __nss_hosts_lookup
PUBLIC 116c68 0 __libc_freeres
PUBLIC 1172d0 0 __libc_thread_freeres
STACK CFI INIT 152d0 34 .cfa: sp 0 + .ra: lr
STACK CFI 152d4 .cfa: sp 8 +
STACK CFI 152d8 .ra: .cfa -4 + ^ r4: .cfa -8 + ^
STACK CFI INIT 15304 34 .cfa: sp 0 + .ra: lr
STACK CFI 15308 .cfa: sp 8 +
STACK CFI 1530c .ra: .cfa -4 + ^ r4: .cfa -8 + ^
STACK CFI INIT 15340 4 .cfa: sp 0 + .ra: lr
STACK CFI INIT 15344 e4 .cfa: sp 0 + .ra: lr
STACK CFI 15348 .cfa: sp 16 +
STACK CFI 1534c .ra: .cfa -4 + ^ r4: .cfa -16 + ^ r5: .cfa -12 + ^ r6: .cfa -8 + ^
STACK CFI 1535c .cfa: sp 24 +
STACK CFI INIT 15428 8 .cfa: sp 0 + .ra: lr
STACK CFI 1542c .cfa: sp 8 + .ra: .cfa -4 + ^ r3: .cfa -8 + ^
STACK CFI INIT 15430 2a4 .cfa: sp 0 + .ra: lr
STACK CFI 15434 .cfa: sp 28 +
STACK CFI 15438 .ra: .cfa -4 + ^ r10: .cfa -8 + ^ r4: .cfa -28 + ^ r5: .cfa -24 + ^ r6: .cfa -20 + ^ r7: .cfa -16 + ^ r8: .cfa -12 + ^
STACK CFI 1543c .cfa: sp 328 +
STACK CFI INIT 156e0 30 .cfa: sp 0 + .ra: lr
STACK CFI 156e8 .ra: r12
STACK CFI INIT 15710 18 .cfa: sp 0 + .ra: lr
STACK CFI INIT 15728 10 .cfa: sp 0 + .ra: lr
STACK CFI INIT 15738 10 .cfa: sp 0 + .ra: lr
STACK CFI INIT 15748 10 .cfa: sp 0 + .ra: lr
STACK CFI 1574c .cfa: sp 8 + .ra: .cfa -4 + ^ r3: .cfa -8 + ^
STACK CFI INIT 15758 104 .cfa: sp 0 + .ra: lr
STACK CFI 1575c .cfa: sp 24 +
STACK CFI 15760 .ra: .cfa -4 + ^ r4: .cfa -24 + ^ r5: .cfa -20 + ^ r7: .cfa -16 + ^ r8: .cfa -12 + ^ r9: .cfa -8 + ^
STACK CFI 15764 .cfa: sp 128 +
STACK CFI INIT 1585c 30 .cfa: sp 0 + .ra: lr
STACK CFI 15860 .cfa: sp 8 +
STACK CFI 15868 .ra: .cfa -4 + ^ r4: .cfa -8 + ^
STACK CFI INIT 1588c 38 .cfa: sp 0 + .ra: lr
STACK CFI 15890 .cfa: sp 16 + .ra: .cfa -4 + ^ r4: .cfa -16 + ^ r5: .cfa -12 + ^ r6: .cfa -8 + ^
STACK CFI 158b4 .cfa: sp 0 + .ra: .ra r4: r4 r5: r5 r6: r6
STACK CFI 158b8 .cfa: sp 16 + .ra: .cfa -4 + ^ r4: .cfa -16 + ^ r5: .cfa -12 + ^ r6: .cfa -8 + ^
STACK CFI INIT 158cc 7c .cfa: sp 0 + .ra: lr
STACK CFI 158d4 .cfa: sp 16 +
STACK CFI 158dc .ra: .cfa -4 + ^ r3: .cfa -16 + ^ r4: .cfa -12 + ^ r5: .cfa -8 + ^
STACK CFI INIT 15948 50 .cfa: sp 0 + .ra: lr
STACK CFI 1594c .cfa: sp 8 +
STACK CFI 15950 .ra: .cfa -4 + ^ r4: .cfa -8 + ^
STACK CFI 15954 .cfa: sp 24 +
STACK CFI INIT 159a0 8 .cfa: sp 0 + .ra: lr
STACK CFI 159a2 .cfa: sp 8 + .ra: .cfa -4 + ^ r7: .cfa -8 + ^
STACK CFI INIT 159b0 8 .cfa: sp 0 + .ra: lr
STACK CFI INIT 159c0 1c .cfa: sp 0 + .ra: lr
STACK CFI 159c8 .cfa: sp 4 +
STACK CFI 159cc .ra: .cfa -4 + ^
STACK CFI INIT 159dc 10 .cfa: sp 0 + .ra: lr
STACK CFI INIT 159ec c .cfa: sp 0 + .ra: lr
STACK CFI INIT 159f8 4 .cfa: sp 0 + .ra: lr
STACK CFI INIT 159fc 4 .cfa: sp 0 + .ra: lr
STACK CFI INIT 15a00 10 .cfa: sp 0 + .ra: lr
STACK CFI INIT 15a10 c .cfa: sp 0 + .ra: lr
STACK CFI 15a14 .cfa: sp 8 +
STACK CFI 15a18 .ra: .cfa -4 + ^ r3: .cfa -8 + ^
STACK CFI INIT 15a1c 1c .cfa: sp 0 + .ra: lr
STACK CFI 15a24 .cfa: sp 4 +
STACK CFI 15a28 .ra: .cfa -4 + ^
STACK CFI INIT 15a38 24 .cfa: sp 0 + .ra: lr
STACK CFI 15a40 .cfa: sp 4 +
STACK CFI 15a44 .ra: .cfa -4 + ^
STACK CFI INIT 15a5c 4 .cfa: sp 0 + .ra: lr
STACK CFI INIT 15a60 518 .cfa: sp 0 + .ra: lr
STACK CFI 15a64 .cfa: sp 36 +
STACK CFI 15a6c .cfa: sp 64 +
STACK CFI 15a70 .ra: .cfa -4 + ^ r10: .cfa -12 + ^ r11: .cfa -8 + ^ r4: .cfa -36 + ^ r5: .cfa -32 + ^ r6: .cfa -28 + ^ r7: .cfa -24 + ^ r8: .cfa -20 + ^ r9: .cfa -16 + ^
STACK CFI INIT 15f78 80 .cfa: sp 0 + .ra: lr
STACK CFI 15f84 .cfa: sp 8 +
STACK CFI 15f88 .ra: .cfa -4 + ^ r4: .cfa -8 + ^
STACK CFI 15f8c .cfa: sp 16 +
STACK CFI INIT 15ff8 90 .cfa: sp 0 + .ra: lr
STACK CFI 15ffc .cfa: sp 20 +
STACK CFI 16000 .ra: .cfa -4 + ^ r4: .cfa -20 + ^ r5: .cfa -16 + ^ r6: .cfa -12 + ^ r7: .cfa -8 + ^
STACK CFI 16010 .cfa: sp 40 +
STACK CFI INIT 16088 1c .cfa: sp 0 + .ra: lr
STACK CFI 1608c .cfa: sp 4 +
STACK CFI 16094 .cfa: sp 16 +
STACK CFI 16098 .ra: .cfa -4 + ^
STACK CFI INIT 160a4 24 .cfa: sp 0 + .ra: lr
STACK CFI 160a8 .cfa: sp 4 +
STACK CFI 160ac .cfa: sp 24 +
STACK CFI 160b4 .ra: .cfa -4 + ^
STACK CFI INIT 160c8 124 .cfa: sp 0 + .ra: lr
STACK CFI 160cc .cfa: sp 8 +
STACK CFI 160d8 r4: .cfa -8 + ^ r5: .cfa -4 + ^
STACK CFI INIT 161ec 1e8 .cfa: sp 0 + .ra: lr
STACK CFI 161f0 .cfa: sp 28 +
STACK CFI 161f4 .cfa: r11 4 + .ra: .cfa -4 + ^ r11: .cfa -8 + ^ r4: .cfa -28 + ^ r5: .cfa -24 + ^ r6: .cfa -20 + ^ r7: .cfa -16 + ^ r8: .cfa -12 + ^
STACK CFI INIT 163d4 1d4 .cfa: sp 0 + .ra: lr
STACK CFI 163d8 .cfa: sp 28 +
STACK CFI 163dc .ra: .cfa -4 + ^ r10: .cfa -8 + ^ r4: .cfa -28 + ^ r5: .cfa -24 + ^ r6: .cfa -20 + ^ r7: .cfa -16 + ^ r8: .cfa -12 + ^
STACK CFI 163e0 .cfa: sp 48 +
STACK CFI INIT 165a8 40 .cfa: sp 0 + .ra: lr
STACK CFI 165b0 .cfa: sp 8 +
STACK CFI 165b4 .ra: .cfa -4 + ^ r3: .cfa -8 + ^
STACK CFI INIT 165e8 874 .cfa: sp 0 + .ra: lr
STACK CFI 165ec .cfa: sp 36 +
STACK CFI 165f0 .cfa: r11 4 + .ra: .cfa -4 + ^ r10: .cfa -12 + ^ r11: .cfa -8 + ^ r4: .cfa -36 + ^ r5: .cfa -32 + ^ r6: .cfa -28 + ^ r7: .cfa -24 + ^ r8: .cfa -20 + ^ r9: .cfa -16 + ^
STACK CFI INIT 16e5c 240 .cfa: sp 0 + .ra: lr
STACK CFI 16e60 .cfa: sp 36 +
STACK CFI 16e68 .cfa: sp 72 +
STACK CFI 16e6c .ra: .cfa -4 + ^ r10: .cfa -12 + ^ r11: .cfa -8 + ^ r4: .cfa -36 + ^ r5: .cfa -32 + ^ r6: .cfa -28 + ^ r7: .cfa -24 + ^ r8: .cfa -20 + ^ r9: .cfa -16 + ^
STACK CFI INIT 1709c 98 .cfa: sp 0 + .ra: lr
STACK CFI 170a0 .cfa: sp 32 +
STACK CFI 170a4 .ra: .cfa -4 + ^ r10: .cfa -8 + ^ r4: .cfa -32 + ^ r5: .cfa -28 + ^ r6: .cfa -24 + ^ r7: .cfa -20 + ^ r8: .cfa -16 + ^ r9: .cfa -12 + ^
STACK CFI INIT 11645c 58 .cfa: sp 0 + .ra: lr
STACK CFI 116460 .cfa: sp 16 +
STACK CFI 116464 .ra: .cfa -4 + ^ r3: .cfa -16 + ^ r4: .cfa -12 + ^ r5: .cfa -8 + ^
STACK CFI INIT 1164b4 7c .cfa: sp 0 + .ra: lr
STACK CFI 1164b8 .cfa: sp 8 + .ra: .cfa -4 + ^ r4: .cfa -8 + ^
STACK CFI INIT 116530 dc .cfa: sp 0 + .ra: lr
STACK CFI 116534 .cfa: sp 24 +
STACK CFI 116538 .ra: .cfa -4 + ^ r4: .cfa -24 + ^ r5: .cfa -20 + ^ r6: .cfa -16 + ^ r7: .cfa -12 + ^ r8: .cfa -8 + ^
STACK CFI INIT 17134 30 .cfa: sp 0 + .ra: lr
STACK CFI 17138 .cfa: sp 16 +
STACK CFI 1713c .ra: .cfa -4 + ^ r4: .cfa -16 + ^ r5: .cfa -12 + ^ r6: .cfa -8 + ^
STACK CFI INIT 17164 c .cfa: sp 0 + .ra: lr
STACK CFI INIT 17170 44 .cfa: sp 0 + .ra: lr
STACK CFI 17174 .cfa: sp 4 +
STACK CFI 1717c .cfa: sp 16 +
STACK CFI 17194 .ra: .cfa -4 + ^
STACK CFI INIT 171b4 10 .cfa: sp 0 + .ra: lr
STACK CFI INIT 171c4 10 .cfa: sp 0 + .ra: lr
STACK CFI INIT 171d4 90 .cfa: sp 0 + .ra: lr
STACK CFI 171d8 .cfa: sp 16 +
STACK CFI 171dc .ra: .cfa -4 + ^ r3: .cfa -16 + ^ r4: .cfa -12 + ^ r5: .cfa -8 + ^
STACK CFI INIT 17264 ca0 .cfa: sp 0 + .ra: lr
STACK CFI 17268 .cfa: sp 36 +
STACK CFI 1726c .ra: .cfa -4 + ^ r10: .cfa -12 + ^ r11: .cfa -8 + ^ r4: .cfa -36 + ^ r5: .cfa -32 + ^ r6: .cfa -28 + ^ r7: .cfa -24 + ^ r8: .cfa -20 + ^ r9: .cfa -16 + ^
STACK CFI 17270 .cfa: r11 4 +
STACK CFI INIT 17f04 d4 .cfa: sp 0 + .ra: lr
STACK CFI 17f08 .cfa: sp 16 +
STACK CFI 17f0c .ra: .cfa -4 + ^ r4: .cfa -16 + ^ r5: .cfa -12 + ^ r6: .cfa -8 + ^
STACK CFI 17f14 .cfa: sp 24 +
STACK CFI INIT 17fd8 3c0 .cfa: sp 0 + .ra: lr
STACK CFI 17fdc .cfa: sp 36 +
STACK CFI 17fe0 .ra: .cfa -4 + ^ r10: .cfa -12 + ^ r11: .cfa -8 + ^ r4: .cfa -36 + ^ r5: .cfa -32 + ^ r6: .cfa -28 + ^ r7: .cfa -24 + ^ r8: .cfa -20 + ^ r9: .cfa -16 + ^
STACK CFI 17fec .cfa: sp 48 +
STACK CFI INIT 18398 154 .cfa: sp 0 + .ra: lr
STACK CFI 1839c .cfa: sp 24 +
STACK CFI 183a0 .ra: .cfa -4 + ^ r4: .cfa -24 + ^ r5: .cfa -20 + ^ r6: .cfa -16 + ^ r7: .cfa -12 + ^ r8: .cfa -8 + ^
STACK CFI INIT 11660c 2c .cfa: sp 0 + .ra: lr
STACK CFI INIT 184ec ec .cfa: sp 0 + .ra: lr
STACK CFI 184f0 .cfa: sp 24 +
STACK CFI 184f4 .ra: .cfa -4 + ^ r4: .cfa -24 + ^ r5: .cfa -20 + ^ r6: .cfa -16 + ^ r7: .cfa -12 + ^ r8: .cfa -8 + ^
STACK CFI INIT 185d8 3a0 .cfa: sp 0 + .ra: lr
STACK CFI 185dc .cfa: sp 36 +
STACK CFI 185e0 .ra: .cfa -4 + ^ r10: .cfa -12 + ^ r11: .cfa -8 + ^ r4: .cfa -36 + ^ r5: .cfa -32 + ^ r6: .cfa -28 + ^ r7: .cfa -24 + ^ r8: .cfa -20 + ^ r9: .cfa -16 + ^
STACK CFI 185e4 .cfa: r11 4 +
STACK CFI INIT 18978 b8 .cfa: sp 0 + .ra: lr
STACK CFI 1897c .cfa: sp 24 +
STACK CFI 18980 .ra: .cfa -4 + ^ r4: .cfa -24 + ^ r5: .cfa -20 + ^ r6: .cfa -16 + ^ r7: .cfa -12 + ^ r8: .cfa -8 + ^
STACK CFI INIT 18a30 43c .cfa: sp 0 + .ra: lr
STACK CFI 18a34 .cfa: sp 36 +
STACK CFI 18a38 .ra: .cfa -4 + ^ r10: .cfa -12 + ^ r11: .cfa -8 + ^ r4: .cfa -36 + ^ r5: .cfa -32 + ^ r6: .cfa -28 + ^ r7: .cfa -24 + ^ r8: .cfa -20 + ^ r9: .cfa -16 + ^
STACK CFI 18a3c .cfa: r11 4 +
STACK CFI INIT 18e6c 7b4 .cfa: sp 0 + .ra: lr
STACK CFI 18e70 .cfa: sp 36 +
STACK CFI 18e74 .cfa: r11 4 + .ra: .cfa -4 + ^ r10: .cfa -12 + ^ r11: .cfa -8 + ^ r4: .cfa -36 + ^ r5: .cfa -32 + ^ r6: .cfa -28 + ^ r7: .cfa -24 + ^ r8: .cfa -20 + ^ r9: .cfa -16 + ^
STACK CFI INIT 19620 1f0 .cfa: sp 0 + .ra: lr
STACK CFI 19624 .cfa: sp 16 +
STACK CFI 19628 .ra: .cfa -4 + ^ r4: .cfa -16 + ^ r5: .cfa -12 + ^ r6: .cfa -8 + ^
STACK CFI INIT 19810 10 .cfa: sp 0 + .ra: lr
STACK CFI INIT 19820 5f8 .cfa: sp 0 + .ra: lr
STACK CFI 19824 .cfa: sp 36 +
STACK CFI 19828 .ra: .cfa -4 + ^ r10: .cfa -12 + ^ r11: .cfa -8 + ^ r4: .cfa -36 + ^ r5: .cfa -32 + ^ r6: .cfa -28 + ^ r7: .cfa -24 + ^ r8: .cfa -20 + ^ r9: .cfa -16 + ^
STACK CFI 1982c .cfa: sp 88 +
STACK CFI INIT 19e18 734 .cfa: sp 0 + .ra: lr
STACK CFI 19e1c .cfa: sp 36 +
STACK CFI 19e20 .ra: .cfa -4 + ^ r10: .cfa -12 + ^ r11: .cfa -8 + ^ r4: .cfa -36 + ^ r5: .cfa -32 + ^ r6: .cfa -28 + ^ r7: .cfa -24 + ^ r8: .cfa -20 + ^ r9: .cfa -16 + ^
STACK CFI 19e28 .cfa: sp 88 +
STACK CFI INIT 1a54c 580 .cfa: sp 0 + .ra: lr
STACK CFI 1a550 .cfa: sp 36 +
STACK CFI 1a554 .ra: .cfa -4 + ^ r10: .cfa -12 + ^ r11: .cfa -8 + ^ r4: .cfa -36 + ^ r5: .cfa -32 + ^ r6: .cfa -28 + ^ r7: .cfa -24 + ^ r8: .cfa -20 + ^ r9: .cfa -16 + ^
STACK CFI 1a558 .cfa: sp 88 +
STACK CFI INIT 1aacc 7b4 .cfa: sp 0 + .ra: lr
STACK CFI 1aad0 .cfa: sp 36 +
STACK CFI 1aad4 .ra: .cfa -4 + ^ r10: .cfa -12 + ^ r11: .cfa -8 + ^ r4: .cfa -36 + ^ r5: .cfa -32 + ^ r6: .cfa -28 + ^ r7: .cfa -24 + ^ r8: .cfa -20 + ^ r9: .cfa -16 + ^
STACK CFI 1aadc .cfa: sp 88 +
STACK CFI INIT 1b280 3ec .cfa: sp 0 + .ra: lr
STACK CFI 1b284 .cfa: sp 36 +
STACK CFI 1b288 .ra: .cfa -4 + ^ r10: .cfa -12 + ^ r11: .cfa -8 + ^ r4: .cfa -36 + ^ r5: .cfa -32 + ^ r6: .cfa -28 + ^ r7: .cfa -24 + ^ r8: .cfa -20 + ^ r9: .cfa -16 + ^
STACK CFI 1b290 .cfa: sp 88 +
STACK CFI INIT 1b66c 8c0 .cfa: sp 0 + .ra: lr
STACK CFI 1b670 .cfa: sp 36 +
STACK CFI 1b674 .ra: .cfa -4 + ^ r10: .cfa -12 + ^ r11: .cfa -8 + ^ r4: .cfa -36 + ^ r5: .cfa -32 + ^ r6: .cfa -28 + ^ r7: .cfa -24 + ^ r8: .cfa -20 + ^ r9: .cfa -16 + ^
STACK CFI 1b678 .cfa: sp 104 +
STACK CFI INIT 1bf2c c58 .cfa: sp 0 + .ra: lr
STACK CFI 1bf30 .cfa: sp 36 +
STACK CFI 1bf34 .ra: .cfa -4 + ^ r10: .cfa -12 + ^ r11: .cfa -8 + ^ r4: .cfa -36 + ^ r5: .cfa -32 + ^ r6: .cfa -28 + ^ r7: .cfa -24 + ^ r8: .cfa -20 + ^ r9: .cfa -16 + ^
STACK CFI 1bf3c .cfa: sp 120 +
STACK CFI INIT 1cb84 ea0 .cfa: sp 0 + .ra: lr
STACK CFI 1cb88 .cfa: sp 36 +
STACK CFI 1cb8c .ra: .cfa -4 + ^ r10: .cfa -12 + ^ r11: .cfa -8 + ^ r4: .cfa -36 + ^ r5: .cfa -32 + ^ r6: .cfa -28 + ^ r7: .cfa -24 + ^ r8: .cfa -20 + ^ r9: .cfa -16 + ^
STACK CFI 1cb94 .cfa: sp 128 +
STACK CFI INIT 1da24 890 .cfa: sp 0 + .ra: lr
STACK CFI 1da28 .cfa: sp 36 +
STACK CFI 1da2c .ra: .cfa -4 + ^ r10: .cfa -12 + ^ r11: .cfa -8 + ^ r4: .cfa -36 + ^ r5: .cfa -32 + ^ r6: .cfa -28 + ^ r7: .cfa -24 + ^ r8: .cfa -20 + ^ r9: .cfa -16 + ^
STACK CFI 1da34 .cfa: sp 104 +
STACK CFI INIT 1e2b4 be8 .cfa: sp 0 + .ra: lr
STACK CFI 1e2b8 .cfa: sp 36 +
STACK CFI 1e2bc .ra: .cfa -4 + ^ r10: .cfa -12 + ^ r11: .cfa -8 + ^ r4: .cfa -36 + ^ r5: .cfa -32 + ^ r6: .cfa -28 + ^ r7: .cfa -24 + ^ r8: .cfa -20 + ^ r9: .cfa -16 + ^
STACK CFI 1e2c4 .cfa: sp 112 +
STACK CFI INIT 1ee9c 86c .cfa: sp 0 + .ra: lr
STACK CFI 1eea0 .cfa: sp 36 +
STACK CFI 1eea4 .cfa: sp 104 +
STACK CFI 1eec4 .ra: .cfa -4 + ^ r10: .cfa -12 + ^ r11: .cfa -8 + ^ r4: .cfa -36 + ^ r5: .cfa -32 + ^ r6: .cfa -28 + ^ r7: .cfa -24 + ^ r8: .cfa -20 + ^ r9: .cfa -16 + ^
STACK CFI INIT 1f708 c04 .cfa: sp 0 + .ra: lr
STACK CFI 1f70c .cfa: sp 36 +
STACK CFI 1f710 .ra: .cfa -4 + ^ r10: .cfa -12 + ^ r11: .cfa -8 + ^ r4: .cfa -36 + ^ r5: .cfa -32 + ^ r6: .cfa -28 + ^ r7: .cfa -24 + ^ r8: .cfa -20 + ^ r9: .cfa -16 + ^
STACK CFI 1f718 .cfa: sp 112 +
STACK CFI INIT 2030c e4 .cfa: sp 0 + .ra: lr
STACK CFI 20310 .cfa: sp 16 +
STACK CFI 20318 .ra: .cfa -4 + ^ r4: .cfa -16 + ^ r5: .cfa -12 + ^ r6: .cfa -8 + ^
STACK CFI INIT 203f0 c .cfa: sp 0 + .ra: lr
STACK CFI INIT 203fc 4d8 .cfa: sp 0 + .ra: lr
STACK CFI 20400 .cfa: sp 36 +
STACK CFI 20404 .cfa: sp 112 +
STACK CFI 20414 .ra: .cfa -4 + ^ r10: .cfa -12 + ^ r11: .cfa -8 + ^ r4: .cfa -36 + ^ r5: .cfa -32 + ^ r6: .cfa -28 + ^ r7: .cfa -24 + ^ r8: .cfa -20 + ^ r9: .cfa -16 + ^
STACK CFI INIT 208d4 32c .cfa: sp 0 + .ra: lr
STACK CFI 208dc .cfa: sp 32 +
STACK CFI 208e4 .ra: .cfa -4 + ^ r10: .cfa -8 + ^ r4: .cfa -32 + ^ r5: .cfa -28 + ^ r6: .cfa -24 + ^ r7: .cfa -20 + ^ r8: .cfa -16 + ^ r9: .cfa -12 + ^
STACK CFI INIT 116638 34 .cfa: sp 0 + .ra: lr
STACK CFI INIT 20c00 dc .cfa: sp 0 + .ra: lr
STACK CFI 20c04 .cfa: sp 36 +
STACK CFI 20c08 .ra: .cfa -4 + ^ r10: .cfa -12 + ^ r11: .cfa -8 + ^ r4: .cfa -36 + ^ r5: .cfa -32 + ^ r6: .cfa -28 + ^ r7: .cfa -24 + ^ r8: .cfa -20 + ^ r9: .cfa -16 + ^
STACK CFI 20c0c .cfa: sp 48 +
STACK CFI INIT 20cdc bc .cfa: sp 0 + .ra: lr
STACK CFI 20ce0 .cfa: sp 24 +
STACK CFI 20ce4 .cfa: r11 4 + .ra: .cfa -4 + ^ r11: .cfa -8 + ^ r4: .cfa -24 + ^ r5: .cfa -20 + ^ r6: .cfa -16 + ^ r7: .cfa -12 + ^
STACK CFI INIT 20d98 14 .cfa: sp 0 + .ra: lr
STACK CFI INIT 20dac 218 .cfa: sp 0 + .ra: lr
STACK CFI 20db4 .cfa: sp 20 +
STACK CFI 20dbc .cfa: sp 136 + .ra: .cfa -4 + ^ r4: .cfa -20 + ^ r5: .cfa -16 + ^ r6: .cfa -12 + ^ r7: .cfa -8 + ^
STACK CFI INIT 20fc4 84 .cfa: sp 0 + .ra: lr
STACK CFI 20fc8 .cfa: sp 16 +
STACK CFI 20fcc .ra: .cfa -4 + ^ r4: .cfa -16 + ^ r5: .cfa -12 + ^ r6: .cfa -8 + ^
STACK CFI 20fd0 .cfa: sp 24 +
STACK CFI INIT 21048 42c .cfa: sp 0 + .ra: lr
STACK CFI 2104c .cfa: sp 36 +
STACK CFI 21050 .ra: .cfa -4 + ^ r10: .cfa -12 + ^ r11: .cfa -8 + ^ r4: .cfa -36 + ^ r5: .cfa -32 + ^ r6: .cfa -28 + ^ r7: .cfa -24 + ^ r8: .cfa -20 + ^ r9: .cfa -16 + ^
STACK CFI 21060 .cfa: sp 80 +
STACK CFI INIT 21474 1c .cfa: sp 0 + .ra: lr
STACK CFI INIT 11666c 30 .cfa: sp 0 + .ra: lr
STACK CFI 116670 .cfa: sp 8 +
STACK CFI 116674 .ra: .cfa -4 + ^ r4: .cfa -8 + ^
STACK CFI INIT 11669c 24 .cfa: sp 0 + .ra: lr
STACK CFI 1166a0 .cfa: sp 8 +
STACK CFI 1166a4 .ra: .cfa -4 + ^ r4: .cfa -8 + ^
STACK CFI INIT 21490 ac .cfa: sp 0 + .ra: lr
STACK CFI 2149c .cfa: sp 16 +
STACK CFI 214a4 .ra: .cfa -4 + ^ r3: .cfa -16 + ^ r4: .cfa -12 + ^ r5: .cfa -8 + ^
STACK CFI INIT 2153c c .cfa: sp 0 + .ra: lr
STACK CFI INIT 21548 24 .cfa: sp 0 + .ra: lr
STACK CFI INIT 2156c 1ac .cfa: sp 0 + .ra: lr
STACK CFI 21570 .cfa: sp 28 +
STACK CFI 21574 .ra: .cfa -4 + ^ r10: .cfa -8 + ^ r4: .cfa -28 + ^ r5: .cfa -24 + ^ r6: .cfa -20 + ^ r7: .cfa -16 + ^ r8: .cfa -12 + ^
STACK CFI 2157c .cfa: sp 40 +
STACK CFI INIT 21718 24 .cfa: sp 0 + .ra: lr
STACK CFI 21720 .cfa: sp 4 +
STACK CFI 21724 .ra: .cfa -4 + ^
STACK CFI INIT 2173c 50 .cfa: sp 0 + .ra: lr
STACK CFI 21740 .cfa: sp 16 +
STACK CFI 21744 .ra: .cfa -4 + ^ r3: .cfa -16 + ^ r4: .cfa -12 + ^ r5: .cfa -8 + ^
STACK CFI INIT 2178c 1e8 .cfa: sp 0 + .ra: lr
STACK CFI 21790 .cfa: sp 36 +
STACK CFI 21798 .ra: .cfa -4 + ^ r10: .cfa -12 + ^ r11: .cfa -8 + ^ r4: .cfa -36 + ^ r5: .cfa -32 + ^ r6: .cfa -28 + ^ r7: .cfa -24 + ^ r8: .cfa -20 + ^ r9: .cfa -16 + ^
STACK CFI 2179c .cfa: sp 56 +
STACK CFI INIT 21974 890 .cfa: sp 0 + .ra: lr
STACK CFI 21978 .cfa: sp 36 +
STACK CFI 21980 .ra: .cfa -4 + ^ r10: .cfa -12 + ^ r11: .cfa -8 + ^ r4: .cfa -36 + ^ r5: .cfa -32 + ^ r6: .cfa -28 + ^ r7: .cfa -24 + ^ r8: .cfa -20 + ^ r9: .cfa -16 + ^
STACK CFI 21988 .cfa: r11 4 +
STACK CFI INIT 1166c0 130 .cfa: sp 0 + .ra: lr
STACK CFI 1166c4 .cfa: sp 36 +
STACK CFI 1166cc .ra: .cfa -4 + ^ r10: .cfa -12 + ^ r11: .cfa -8 + ^ r4: .cfa -36 + ^ r5: .cfa -32 + ^ r6: .cfa -28 + ^ r7: .cfa -24 + ^ r8: .cfa -20 + ^ r9: .cfa -16 + ^
STACK CFI 1166e4 .cfa: sp 56 +
STACK CFI INIT 22204 124 .cfa: sp 0 + .ra: lr
STACK CFI 22208 .cfa: sp 8 +
STACK CFI 22214 r4: .cfa -8 + ^ r5: .cfa -4 + ^
STACK CFI INIT 22328 4e8 .cfa: sp 0 + .ra: lr
STACK CFI 2232c .cfa: sp 36 +
STACK CFI 22330 .cfa: r11 4 + .ra: .cfa -4 + ^ r10: .cfa -12 + ^ r11: .cfa -8 + ^ r4: .cfa -36 + ^ r5: .cfa -32 + ^ r6: .cfa -28 + ^ r7: .cfa -24 + ^ r8: .cfa -20 + ^ r9: .cfa -16 + ^
STACK CFI INIT 22810 60 .cfa: sp 0 + .ra: lr
STACK CFI INIT 22870 440 .cfa: sp 0 + .ra: lr
STACK CFI 22878 .cfa: sp 40 +
STACK CFI 2287c .ra: .cfa -4 + ^ r10: .cfa -12 + ^ r11: .cfa -8 + ^ r3: .cfa -40 + ^ r4: .cfa -36 + ^ r5: .cfa -32 + ^ r6: .cfa -28 + ^ r7: .cfa -24 + ^ r8: .cfa -20 + ^ r9: .cfa -16 + ^
STACK CFI INIT 22cb0 31c .cfa: sp 0 + .ra: lr
STACK CFI 22cb4 .cfa: sp 32 +
STACK CFI 22cb8 .cfa: r11 4 + .ra: .cfa -4 + ^ r10: .cfa -12 + ^ r11: .cfa -8 + ^ r4: .cfa -32 + ^ r5: .cfa -28 + ^ r6: .cfa -24 + ^ r7: .cfa -20 + ^ r8: .cfa -16 + ^
STACK CFI INIT 22fcc 64 .cfa: sp 0 + .ra: lr
STACK CFI 22fd4 .cfa: sp 8 +
STACK CFI 22fdc .ra: .cfa -4 + ^ r4: .cfa -8 + ^
STACK CFI INIT 23030 10 .cfa: sp 0 + .ra: lr
STACK CFI INIT 23040 b90 .cfa: sp 0 + .ra: lr
STACK CFI 23044 .cfa: sp 36 +
STACK CFI 23048 .cfa: r11 4 + .ra: .cfa -4 + ^ r10: .cfa -12 + ^ r11: .cfa -8 + ^ r4: .cfa -36 + ^ r5: .cfa -32 + ^ r6: .cfa -28 + ^ r7: .cfa -24 + ^ r8: .cfa -20 + ^ r9: .cfa -16 + ^
STACK CFI INIT 1167f0 11c .cfa: sp 0 + .ra: lr
STACK CFI 1167f4 .cfa: sp 24 +
STACK CFI 1167f8 .ra: .cfa -4 + ^ r3: .cfa -24 + ^ r4: .cfa -20 + ^ r5: .cfa -16 + ^ r6: .cfa -12 + ^ r7: .cfa -8 + ^
STACK CFI INIT 23bd0 1b0 .cfa: sp 0 + .ra: lr
STACK CFI 23bd4 .cfa: sp 16 +
STACK CFI 23bd8 .ra: .cfa -4 + ^ r4: .cfa -16 + ^ r5: .cfa -12 + ^ r6: .cfa -8 + ^
STACK CFI INIT 23d80 28 .cfa: sp 0 + .ra: lr
STACK CFI 23d8c .cfa: sp 4 +
STACK CFI 23d94 .ra: .cfa -4 + ^
STACK CFI INIT 23da8 88 .cfa: sp 0 + .ra: lr
STACK CFI INIT 23e30 9ec .cfa: sp 0 + .ra: lr
STACK CFI 23e34 .cfa: sp 36 +
STACK CFI 23e3c .cfa: r11 4 + .ra: .cfa -4 + ^ r10: .cfa -12 + ^ r11: .cfa -8 + ^ r4: .cfa -36 + ^ r5: .cfa -32 + ^ r6: .cfa -28 + ^ r7: .cfa -24 + ^ r8: .cfa -20 + ^ r9: .cfa -16 + ^
STACK CFI INIT 2481c 1a8 .cfa: sp 0 + .ra: lr
STACK CFI 24820 .cfa: sp 32 +
STACK CFI 24824 .ra: .cfa -4 + ^ r10: .cfa -8 + ^ r4: .cfa -32 + ^ r5: .cfa -28 + ^ r6: .cfa -24 + ^ r7: .cfa -20 + ^ r8: .cfa -16 + ^ r9: .cfa -12 + ^
STACK CFI INIT 249c4 d8 .cfa: sp 0 + .ra: lr
STACK CFI 249c8 .cfa: sp 16 +
STACK CFI 249cc .ra: .cfa -4 + ^ r4: .cfa -16 + ^ r5: .cfa -12 + ^ r6: .cfa -8 + ^
STACK CFI INIT 24a9c a8 .cfa: sp 0 + .ra: lr
STACK CFI 24aa8 .cfa: sp 4 +
STACK CFI 24ab0 .ra: .cfa -4 + ^
STACK CFI INIT 24b44 5c .cfa: sp 0 + .ra: lr
STACK CFI INIT 24ba0 64 .cfa: sp 0 + .ra: lr
STACK CFI INIT 24c04 88 .cfa: sp 0 + .ra: lr
STACK CFI 24c0c .cfa: sp 8 +
STACK CFI 24c18 .ra: .cfa -4 + ^ r4: .cfa -8 + ^
STACK CFI INIT 24c8c 28 .cfa: sp 0 + .ra: lr
STACK CFI 24c98 .cfa: sp 4 +
STACK CFI 24ca0 .ra: .cfa -4 + ^
STACK CFI INIT 24cb4 1a4 .cfa: sp 0 + .ra: lr
STACK CFI 24cc8 .cfa: sp 8 +
STACK CFI 24cd0 .cfa: sp 40 +
STACK CFI 24cd8 .ra: .cfa -4 + ^ r7: .cfa -8 + ^
STACK CFI INIT 24e58 1d0 .cfa: sp 0 + .ra: lr
STACK CFI 24e60 .cfa: sp 12 +
STACK CFI 24e68 .cfa: sp 1068 +
STACK CFI 24e70 .cfa: sp 1080 +
STACK CFI 24e80 .ra: .cfa -4 + ^ r11: .cfa -8 + ^ r7: .cfa -12 + ^
STACK CFI INIT 25028 c .cfa: sp 0 + .ra: lr
STACK CFI 2502c .cfa: sp 8 +
STACK CFI 25030 .ra: .cfa -4 + ^ r3: .cfa -8 + ^
STACK CFI INIT 25034 64 .cfa: sp 0 + .ra: lr
STACK CFI 2503c .cfa: sp 4 +
STACK CFI 25048 .ra: .cfa -4 + ^
STACK CFI INIT 25098 64 .cfa: sp 0 + .ra: lr
STACK CFI 250a0 .cfa: sp 4 +
STACK CFI 250ac .ra: .cfa -4 + ^
STACK CFI INIT 250fc 64 .cfa: sp 0 + .ra: lr
STACK CFI 25104 .cfa: sp 4 +
STACK CFI 25110 .ra: .cfa -4 + ^
STACK CFI INIT 25160 64 .cfa: sp 0 + .ra: lr
STACK CFI 25168 .cfa: sp 4 +
STACK CFI 25174 .ra: .cfa -4 + ^
STACK CFI INIT 251c4 64 .cfa: sp 0 + .ra: lr
STACK CFI 251cc .cfa: sp 4 +
STACK CFI 251d8 .ra: .cfa -4 + ^
STACK CFI INIT 25228 64 .cfa: sp 0 + .ra: lr
STACK CFI 25230 .cfa: sp 4 +
STACK CFI 2523c .ra: .cfa -4 + ^
STACK CFI INIT 2528c 64 .cfa: sp 0 + .ra: lr
STACK CFI 25294 .cfa: sp 4 +
STACK CFI 252a0 .ra: .cfa -4 + ^
STACK CFI INIT 252f0 64 .cfa: sp 0 + .ra: lr
STACK CFI 252f8 .cfa: sp 4 +
STACK CFI 25304 .ra: .cfa -4 + ^
STACK CFI INIT 25354 64 .cfa: sp 0 + .ra: lr
STACK CFI 2535c .cfa: sp 4 +
STACK CFI 25368 .ra: .cfa -4 + ^
STACK CFI INIT 253b8 64 .cfa: sp 0 + .ra: lr
STACK CFI 253c0 .cfa: sp 4 +
STACK CFI 253cc .ra: .cfa -4 + ^
STACK CFI INIT 2541c 64 .cfa: sp 0 + .ra: lr
STACK CFI 25424 .cfa: sp 4 +
STACK CFI 25430 .ra: .cfa -4 + ^
STACK CFI INIT 25480 34 .cfa: sp 0 + .ra: lr
STACK CFI 2548c .cfa: sp 4 +
STACK CFI 25490 .ra: .cfa -4 + ^
STACK CFI INIT 254b4 34 .cfa: sp 0 + .ra: lr
STACK CFI 254c0 .cfa: sp 4 +
STACK CFI 254c4 .ra: .cfa -4 + ^
STACK CFI INIT 254e8 64 .cfa: sp 0 + .ra: lr
STACK CFI 254f0 .cfa: sp 4 +
STACK CFI 254fc .ra: .cfa -4 + ^
STACK CFI INIT 2554c 30 .cfa: sp 0 + .ra: lr
STACK CFI 25554 .cfa: sp 4 +
STACK CFI 25560 .ra: .cfa -4 + ^
STACK CFI INIT 2557c 30 .cfa: sp 0 + .ra: lr
STACK CFI 25584 .cfa: sp 4 +
STACK CFI 25590 .ra: .cfa -4 + ^
STACK CFI INIT 255ac 8 .cfa: sp 0 + .ra: lr
STACK CFI INIT 255b4 10 .cfa: sp 0 + .ra: lr
STACK CFI INIT 255c4 14 .cfa: sp 0 + .ra: lr
STACK CFI INIT 255d8 14 .cfa: sp 0 + .ra: lr
STACK CFI INIT 255ec 14 .cfa: sp 0 + .ra: lr
STACK CFI INIT 25600 14 .cfa: sp 0 + .ra: lr
STACK CFI INIT 25614 14 .cfa: sp 0 + .ra: lr
STACK CFI INIT 25628 14 .cfa: sp 0 + .ra: lr
STACK CFI INIT 2563c 14 .cfa: sp 0 + .ra: lr
STACK CFI INIT 25650 14 .cfa: sp 0 + .ra: lr
STACK CFI INIT 25664 14 .cfa: sp 0 + .ra: lr
STACK CFI INIT 25678 14 .cfa: sp 0 + .ra: lr
STACK CFI INIT 2568c 14 .cfa: sp 0 + .ra: lr
STACK CFI INIT 256a0 14 .cfa: sp 0 + .ra: lr
STACK CFI INIT 256b4 c .cfa: sp 0 + .ra: lr
STACK CFI INIT 256c0 c .cfa: sp 0 + .ra: lr
STACK CFI INIT 256cc 38 .cfa: sp 0 + .ra: lr
STACK CFI 256d4 .cfa: sp 4 +
STACK CFI 256e0 .ra: .cfa -4 + ^
STACK CFI INIT 25704 68 .cfa: sp 0 + .ra: lr
STACK CFI 2570c .cfa: sp 4 +
STACK CFI 25710 .ra: .cfa -4 + ^
STACK CFI INIT 2576c 68 .cfa: sp 0 + .ra: lr
STACK CFI 25774 .cfa: sp 4 +
STACK CFI 25778 .ra: .cfa -4 + ^
STACK CFI INIT 257d4 68 .cfa: sp 0 + .ra: lr
STACK CFI 257dc .cfa: sp 4 +
STACK CFI 257e0 .ra: .cfa -4 + ^
STACK CFI INIT 2583c 3e4 .cfa: sp 0 + .ra: lr
STACK CFI 25840 .cfa: sp 40 +
STACK CFI 25844 .ra: .cfa -4 + ^ r10: .cfa -12 + ^ r11: .cfa -8 + ^ r3: .cfa -40 + ^ r4: .cfa -36 + ^ r5: .cfa -32 + ^ r6: .cfa -28 + ^ r7: .cfa -24 + ^ r8: .cfa -20 + ^ r9: .cfa -16 + ^
STACK CFI INIT 25c20 28 .cfa: sp 0 + .ra: lr
STACK CFI 25c24 .cfa: sp 4 +
STACK CFI 25c28 .cfa: sp 16 +
STACK CFI 25c38 .ra: .cfa -4 + ^
STACK CFI INIT 25c48 24 .cfa: sp 0 + .ra: lr
STACK CFI 25c4c .cfa: sp 4 +
STACK CFI 25c50 .cfa: sp 16 +
STACK CFI 25c5c .ra: .cfa -4 + ^
STACK CFI INIT 25c6c 28 .cfa: sp 0 + .ra: lr
STACK CFI 25c70 .cfa: sp 4 +
STACK CFI 25c78 .cfa: sp 16 +
STACK CFI 25c88 .ra: .cfa -4 + ^
STACK CFI INIT 25c94 8 .cfa: sp 0 + .ra: lr
STACK CFI INIT 25c9c 10 .cfa: sp 0 + .ra: lr
STACK CFI INIT 25cac 1c4 .cfa: sp 0 + .ra: lr
STACK CFI 25cb0 .cfa: sp 24 +
STACK CFI 25cb4 .ra: .cfa -4 + ^ r3: .cfa -24 + ^ r4: .cfa -20 + ^ r5: .cfa -16 + ^ r6: .cfa -12 + ^ r7: .cfa -8 + ^
STACK CFI INIT 11690c e0 .cfa: sp 0 + .ra: lr
STACK CFI 116910 .cfa: sp 24 +
STACK CFI 116914 .ra: .cfa -4 + ^ r3: .cfa -24 + ^ r4: .cfa -20 + ^ r5: .cfa -16 + ^ r6: .cfa -12 + ^ r7: .cfa -8 + ^
STACK CFI INIT 25e70 6c .cfa: sp 0 + .ra: lr
STACK CFI 25e78 .cfa: sp 16 +
STACK CFI 25e7c .ra: .cfa -4 + ^ r3: .cfa -16 + ^ r4: .cfa -12 + ^ r5: .cfa -8 + ^
STACK CFI INIT 25edc a4 .cfa: sp 0 + .ra: lr
STACK CFI 25ee0 .cfa: sp 16 +
STACK CFI 25ee4 .ra: .cfa -4 + ^ r4: .cfa -16 + ^ r5: .cfa -12 + ^ r6: .cfa -8 + ^
STACK CFI INIT 25f80 e10 .cfa: sp 0 + .ra: lr
STACK CFI 25f84 .cfa: sp 36 +
STACK CFI 25f88 .cfa: r11 4 + .ra: .cfa -4 + ^ r10: .cfa -12 + ^ r11: .cfa -8 + ^ r4: .cfa -36 + ^ r5: .cfa -32 + ^ r6: .cfa -28 + ^ r7: .cfa -24 + ^ r8: .cfa -20 + ^ r9: .cfa -16 + ^
STACK CFI INIT 26d90 938 .cfa: sp 0 + .ra: lr
STACK CFI 26d98 .cfa: sp 36 +
STACK CFI 26d9c .ra: .cfa -4 + ^ r10: .cfa -12 + ^ r11: .cfa -8 + ^ r4: .cfa -36 + ^ r5: .cfa -32 + ^ r6: .cfa -28 + ^ r7: .cfa -24 + ^ r8: .cfa -20 + ^ r9: .cfa -16 + ^
STACK CFI 26da0 .cfa: r11 4 +
STACK CFI INIT 276c8 24 .cfa: sp 0 + .ra: lr
STACK CFI 276cc .cfa: sp 4 +
STACK CFI 276d0 .cfa: sp 16 +
STACK CFI 276e0 .ra: .cfa -4 + ^
STACK CFI INIT 276ec 1c .cfa: sp 0 + .ra: lr
STACK CFI 276f0 .cfa: sp 4 +
STACK CFI 276f8 .cfa: sp 16 +
STACK CFI 276fc .ra: .cfa -4 + ^
STACK CFI INIT 27708 34 .cfa: sp 0 + .ra: lr
STACK CFI 2770c .cfa: sp 4 +
STACK CFI 27714 .ra: .cfa -4 + ^
STACK CFI 27718 .cfa: sp 16 +
STACK CFI INIT 2773c 30c .cfa: sp 0 + .ra: lr
STACK CFI 27740 .cfa: sp 32 +
STACK CFI 27744 .ra: .cfa -4 + ^ r10: .cfa -12 + ^ r11: .cfa -8 + ^ r4: .cfa -32 + ^ r5: .cfa -28 + ^ r6: .cfa -24 + ^ r7: .cfa -20 + ^ r8: .cfa -16 + ^
STACK CFI 27748 .cfa: r11 4 +
STACK CFI INIT 1169ec 50 .cfa: sp 0 + .ra: lr
STACK CFI 1169f4 .cfa: sp 16 +
STACK CFI 1169f8 .ra: .cfa -4 + ^ r3: .cfa -16 + ^ r4: .cfa -12 + ^ r5: .cfa -8 + ^
STACK CFI INIT 27a48 19c4 .cfa: sp 0 + .ra: lr
STACK CFI 27a4c .cfa: sp 36 +
STACK CFI 27a50 .ra: .cfa -4 + ^ r10: .cfa -12 + ^ r11: .cfa -8 + ^ r4: .cfa -36 + ^ r5: .cfa -32 + ^ r6: .cfa -28 + ^ r7: .cfa -24 + ^ r8: .cfa -20 + ^ r9: .cfa -16 + ^
STACK CFI 27a54 .cfa: r11 4 +
STACK CFI INIT 116a3c cc .cfa: sp 0 + .ra: lr
STACK CFI 116a44 .cfa: sp 24 +
STACK CFI 116a48 .ra: .cfa -4 + ^ r4: .cfa -24 + ^ r5: .cfa -20 + ^ r6: .cfa -16 + ^ r7: .cfa -12 + ^ r8: .cfa -8 + ^
STACK CFI INIT 2940c 554 .cfa: sp 0 + .ra: lr
STACK CFI 29410 .cfa: sp 36 +
STACK CFI 29414 .ra: .cfa -4 + ^ r10: .cfa -12 + ^ r11: .cfa -8 + ^ r4: .cfa -36 + ^ r5: .cfa -32 + ^ r6: .cfa -28 + ^ r7: .cfa -24 + ^ r8: .cfa -20 + ^ r9: .cfa -16 + ^
STACK CFI 29418 .cfa: r11 4 +
STACK CFI INIT 29960 c .cfa: sp 0 + .ra: lr
STACK CFI INIT 2996c 218 .cfa: sp 0 + .ra: lr
STACK CFI 29970 .cfa: sp 28 +
STACK CFI 29974 .ra: .cfa -4 + ^ r10: .cfa -8 + ^ r4: .cfa -28 + ^ r5: .cfa -24 + ^ r6: .cfa -20 + ^ r7: .cfa -16 + ^ r8: .cfa -12 + ^
STACK CFI 2997c .cfa: sp 48 +
STACK CFI INIT 29b84 184 .cfa: sp 0 + .ra: lr
STACK CFI 29b88 .cfa: sp 24 +
STACK CFI 29b8c .ra: .cfa -4 + ^ r3: .cfa -24 + ^ r4: .cfa -20 + ^ r5: .cfa -16 + ^ r6: .cfa -12 + ^ r7: .cfa -8 + ^
STACK CFI INIT 29d08 420 .cfa: sp 0 + .ra: lr
STACK CFI 29d0c .cfa: sp 36 +
STACK CFI 29d10 .cfa: sp 96 +
STACK CFI 29d14 .ra: .cfa -4 + ^ r10: .cfa -12 + ^ r11: .cfa -8 + ^ r4: .cfa -36 + ^ r5: .cfa -32 + ^ r6: .cfa -28 + ^ r7: .cfa -24 + ^ r8: .cfa -20 + ^ r9: .cfa -16 + ^
STACK CFI INIT 2a128 228 .cfa: sp 0 + .ra: lr
STACK CFI 2a12c .cfa: sp 36 +
STACK CFI 2a130 .ra: .cfa -4 + ^ r10: .cfa -12 + ^ r11: .cfa -8 + ^ r4: .cfa -36 + ^ r5: .cfa -32 + ^ r6: .cfa -28 + ^ r7: .cfa -24 + ^ r8: .cfa -20 + ^ r9: .cfa -16 + ^
STACK CFI 2a138 .cfa: sp 48 +
STACK CFI INIT 2a350 244 .cfa: sp 0 + .ra: lr
STACK CFI 2a354 .cfa: sp 24 +
STACK CFI 2a358 .cfa: sp 32 +
STACK CFI 2a35c .ra: .cfa -4 + ^ r4: .cfa -24 + ^ r5: .cfa -20 + ^ r6: .cfa -16 + ^ r7: .cfa -12 + ^ r8: .cfa -8 + ^
STACK CFI INIT 2a594 50 .cfa: sp 0 + .ra: lr
STACK CFI 2a598 .cfa: sp 8 +
STACK CFI 2a59c .ra: .cfa -4 + ^ r4: .cfa -8 + ^
STACK CFI INIT 2a5e4 158 .cfa: sp 0 + .ra: lr
STACK CFI 2a5e8 .cfa: sp 24 +
STACK CFI 2a5ec .ra: .cfa -4 + ^ r4: .cfa -24 + ^ r5: .cfa -20 + ^ r6: .cfa -16 + ^ r7: .cfa -12 + ^ r8: .cfa -8 + ^
STACK CFI INIT 2a73c 28 .cfa: sp 0 + .ra: lr
STACK CFI 2a740 .cfa: sp 4 +
STACK CFI 2a748 .cfa: sp 16 +
STACK CFI 2a758 .ra: .cfa -4 + ^
STACK CFI INIT 2a764 910 .cfa: sp 0 + .ra: lr
STACK CFI 2a768 .cfa: sp 36 +
STACK CFI 2a76c .cfa: sp 1300 +
STACK CFI 2a770 .cfa: sp 1304 +
STACK CFI 2a774 .ra: .cfa -4 + ^ r10: .cfa -12 + ^ r11: .cfa -8 + ^ r4: .cfa -36 + ^ r5: .cfa -32 + ^ r6: .cfa -28 + ^ r7: .cfa -24 + ^ r8: .cfa -20 + ^ r9: .cfa -16 + ^
STACK CFI INIT 2b074 144 .cfa: sp 0 + .ra: lr
STACK CFI 2b078 .cfa: sp 20 +
STACK CFI 2b07c .ra: .cfa -4 + ^ r4: .cfa -20 + ^ r5: .cfa -16 + ^ r6: .cfa -12 + ^ r7: .cfa -8 + ^
STACK CFI 2b080 .cfa: sp 40 +
STACK CFI INIT 2b1b8 2c .cfa: sp 0 + .ra: lr
STACK CFI INIT 2b1e4 1a0 .cfa: sp 0 + .ra: lr
STACK CFI 2b1e8 .cfa: sp 24 +
STACK CFI 2b1ec .ra: .cfa -4 + ^ r11: .cfa -8 + ^ r4: .cfa -24 + ^ r5: .cfa -20 + ^ r6: .cfa -16 + ^ r7: .cfa -12 + ^
STACK CFI 2b1f0 .cfa: r11 4 +
STACK CFI INIT 2b384 c0 .cfa: sp 0 + .ra: lr
STACK CFI 2b38c .cfa: sp 32 +
STACK CFI 2b390 .ra: .cfa -4 + ^ r10: .cfa -8 + ^ r3: .cfa -32 + ^ r4: .cfa -28 + ^ r5: .cfa -24 + ^ r6: .cfa -20 + ^ r7: .cfa -16 + ^ r8: .cfa -12 + ^
STACK CFI INIT 2b444 98 .cfa: sp 0 + .ra: lr
STACK CFI 2b44c .cfa: sp 8 +
STACK CFI 2b450 .ra: .cfa -4 + ^ r4: .cfa -8 + ^
STACK CFI INIT 2b4dc 808 .cfa: sp 0 + .ra: lr
STACK CFI 2b4e0 .cfa: sp 36 +
STACK CFI 2b4e4 .cfa: r11 4 + .ra: .cfa -4 + ^ r10: .cfa -12 + ^ r11: .cfa -8 + ^ r4: .cfa -36 + ^ r5: .cfa -32 + ^ r6: .cfa -28 + ^ r7: .cfa -24 + ^ r8: .cfa -20 + ^ r9: .cfa -16 + ^
STACK CFI INIT 2bce4 2c .cfa: sp 0 + .ra: lr
STACK CFI INIT 2bd10 24 .cfa: sp 0 + .ra: lr
STACK CFI INIT 2bd34 14 .cfa: sp 0 + .ra: lr
STACK CFI INIT 2bd48 20 .cfa: sp 0 + .ra: lr
STACK CFI 2bd54 .cfa: sp 8 +
STACK CFI 2bd58 r4: .cfa -8 + ^ r5: .cfa -4 + ^
STACK CFI INIT 2bd68 118 .cfa: sp 0 + .ra: lr
STACK CFI 2bd6c .cfa: sp 32 +
STACK CFI 2bd70 .ra: .cfa -4 + ^ r3: .cfa -32 + ^ r4: .cfa -28 + ^ r5: .cfa -24 + ^ r6: .cfa -20 + ^ r7: .cfa -16 + ^ r8: .cfa -12 + ^ r9: .cfa -8 + ^
STACK CFI INIT 2be80 164 .cfa: sp 0 + .ra: lr
STACK CFI 2be84 .cfa: sp 16 +
STACK CFI 2be88 .ra: .cfa -4 + ^ r4: .cfa -16 + ^ r5: .cfa -12 + ^ r6: .cfa -8 + ^
STACK CFI INIT 2bfe4 98 .cfa: sp 0 + .ra: lr
STACK CFI 2bfe8 .cfa: sp 24 +
STACK CFI 2bfec .ra: .cfa -4 + ^ r4: .cfa -24 + ^ r5: .cfa -20 + ^ r6: .cfa -16 + ^ r8: .cfa -12 + ^ r9: .cfa -8 + ^
STACK CFI INIT 2c07c ac .cfa: sp 0 + .ra: lr
STACK CFI 2c080 .cfa: sp 16 +
STACK CFI 2c084 .ra: .cfa -4 + ^ r4: .cfa -16 + ^ r5: .cfa -12 + ^ r6: .cfa -8 + ^
STACK CFI INIT 2c128 8 .cfa: sp 0 + .ra: lr
STACK CFI INIT 2c130 18 .cfa: sp 0 + .ra: lr
STACK CFI INIT 2c148 14 .cfa: sp 0 + .ra: lr
STACK CFI INIT 2c15c 14 .cfa: sp 0 + .ra: lr
STACK CFI INIT 2c170 10 .cfa: sp 0 + .ra: lr
STACK CFI INIT 2c180 98 .cfa: sp 0 + .ra: lr
STACK CFI 2c194 .cfa: sp 8 +
STACK CFI 2c1a0 .ra: .cfa -4 + ^ r4: .cfa -8 + ^
STACK CFI INIT 2c218 128 .cfa: sp 0 + .ra: lr
STACK CFI 2c21c .cfa: sp 8 +
STACK CFI 2c220 .ra: .cfa -4 + ^ r4: .cfa -8 + ^
STACK CFI INIT 2c340 80 .cfa: sp 0 + .ra: lr
STACK CFI 2c344 .cfa: sp 16 +
STACK CFI 2c34c .ra: .cfa -4 + ^ r3: .cfa -16 + ^ r4: .cfa -12 + ^ r5: .cfa -8 + ^
STACK CFI INIT 2c3c0 88 .cfa: sp 0 + .ra: lr
STACK CFI 2c3c4 .cfa: sp 16 +
STACK CFI 2c3c8 .ra: .cfa -4 + ^ r3: .cfa -16 + ^ r4: .cfa -12 + ^ r5: .cfa -8 + ^
STACK CFI INIT 2c448 8 .cfa: sp 0 + .ra: lr
STACK CFI INIT 2c450 64 .cfa: sp 0 + .ra: lr
STACK CFI 2c460 .cfa: sp 8 +
STACK CFI 2c468 r4: .cfa -8 + ^ r5: .cfa -4 + ^
STACK CFI INIT 2c4c0 5c .cfa: sp 0 + .ra: lr
STACK CFI INIT 2c520 34 .cfa: sp 0 + .ra: lr
STACK CFI 2c528 .cfa: sp 8 +
STACK CFI 2c52c .ra: .cfa -4 + ^ r4: .cfa -8 + ^
STACK CFI INIT 2c560 8 .cfa: sp 0 + .ra: lr
STACK CFI INIT 2c570 8 .cfa: sp 0 + .ra: lr
STACK CFI INIT 2c580 44 .cfa: sp 0 + .ra: lr
STACK CFI 2c584 .cfa: sp 16 +
STACK CFI 2c588 .ra: .cfa -4 + ^ r3: .cfa -16 + ^ r4: .cfa -12 + ^ r5: .cfa -8 + ^
STACK CFI INIT 2c5d0 64 .cfa: sp 0 + .ra: lr
STACK CFI 2c5e0 .ra: .ra r10: r10 r11: r11 r4: r4 r5: r5 r6: r6 r7: r7 r8: r8 r9: r9 sp: sp
STACK CFI INIT 2c640 38 .cfa: sp 0 + .ra: lr
STACK CFI 2c648 .cfa: sp 8 +
STACK CFI 2c654 .cfa: r11 4 + .ra: .cfa -4 + ^ r11: .cfa -8 + ^
STACK CFI INIT 2c678 c4 .cfa: sp 0 + .ra: lr
STACK CFI 2c684 .cfa: sp 12 +
STACK CFI 2c690 .cfa: sp 296 +
STACK CFI 2c694 .ra: .cfa -4 + ^ r4: .cfa -12 + ^ r5: .cfa -8 + ^
STACK CFI INIT 2c73c c0 .cfa: sp 0 + .ra: lr
STACK CFI 2c740 .cfa: sp 12 +
STACK CFI 2c744 .ra: .cfa -4 + ^ r4: .cfa -12 + ^ r7: .cfa -8 + ^
STACK CFI INIT 2c7fc 38 .cfa: sp 0 + .ra: lr
STACK CFI 2c804 .cfa: sp 4 +
STACK CFI 2c808 .ra: .cfa -4 + ^
STACK CFI INIT 2c834 18c .cfa: sp 0 + .ra: lr
STACK CFI 2c838 .cfa: sp 20 +
STACK CFI 2c83c .ra: .cfa -4 + ^ r4: .cfa -20 + ^ r5: .cfa -16 + ^ r6: .cfa -12 + ^ r7: .cfa -8 + ^
STACK CFI 2c848 .cfa: sp 304 +
STACK CFI INIT 2c9c0 38 .cfa: sp 0 + .ra: lr
STACK CFI 2c9cc .cfa: sp 4 +
STACK CFI 2c9d0 .ra: .cfa -4 + ^
STACK CFI INIT 2c9f8 a8 .cfa: sp 0 + .ra: lr
STACK CFI 2ca00 .cfa: sp 16 +
STACK CFI 2ca04 .ra: .cfa -4 + ^ r4: .cfa -16 + ^ r5: .cfa -12 + ^ r7: .cfa -8 + ^
STACK CFI 2ca08 .cfa: sp 144 +
STACK CFI INIT 2caa0 1c .cfa: sp 0 + .ra: lr
STACK CFI 2caa4 r7: r12
STACK CFI 2cab0 r7: r7
STACK CFI INIT 2cac0 44 .cfa: sp 0 + .ra: lr
STACK CFI 2cac4 .cfa: sp 8 +
STACK CFI 2cacc .ra: .cfa -4 + ^ r7: .cfa -8 + ^
STACK CFI INIT 2cb04 bc .cfa: sp 0 + .ra: lr
STACK CFI 2cb0c .cfa: sp 12 +
STACK CFI 2cb18 .cfa: sp 24 +
STACK CFI 2cb1c .ra: .cfa -4 + ^ r4: .cfa -12 + ^ r7: .cfa -8 + ^
STACK CFI INIT 2cbc0 44 .cfa: sp 0 + .ra: lr
STACK CFI 2cbc4 .cfa: sp 8 +
STACK CFI 2cbcc .ra: .cfa -4 + ^ r7: .cfa -8 + ^
STACK CFI INIT 2cc04 9c .cfa: sp 0 + .ra: lr
STACK CFI 2cc0c .cfa: sp 8 +
STACK CFI 2cc10 r4: .cfa -8 + ^ r7: .cfa -4 + ^
STACK CFI 2cc14 .cfa: sp 136 +
STACK CFI INIT 2cca0 50 .cfa: sp 0 + .ra: lr
STACK CFI 2cca8 .cfa: sp 16 +
STACK CFI 2ccb4 .ra: .cfa -4 + ^ r4: .cfa -16 + ^ r5: .cfa -12 + ^ r6: .cfa -8 + ^
STACK CFI INIT 2ccf0 4c .cfa: sp 0 + .ra: lr
STACK CFI 2ccf4 .cfa: sp 4 +
STACK CFI 2ccf8 .cfa: sp 264 +
STACK CFI 2cd20 .ra: .cfa -4 + ^
STACK CFI INIT 2cd3c 50 .cfa: sp 0 + .ra: lr
STACK CFI 2cd40 .cfa: sp 4 +
STACK CFI 2cd44 .cfa: sp 264 +
STACK CFI 2cd6c .ra: .cfa -4 + ^
STACK CFI INIT 2cd8c 84 .cfa: sp 0 + .ra: lr
STACK CFI 2cd94 .cfa: sp 12 +
STACK CFI 2cd98 .ra: .cfa -4 + ^ r4: .cfa -12 + ^ r5: .cfa -8 + ^
STACK CFI 2cd9c .cfa: sp 144 +
STACK CFI INIT 2ce10 50 .cfa: sp 0 + .ra: lr
STACK CFI 2ce18 .cfa: sp 16 +
STACK CFI 2ce24 .ra: .cfa -4 + ^ r4: .cfa -16 + ^ r5: .cfa -12 + ^ r6: .cfa -8 + ^
STACK CFI INIT 2ce60 8 .cfa: sp 0 + .ra: lr
STACK CFI INIT 2ce68 8 .cfa: sp 0 + .ra: lr
STACK CFI INIT 2ce70 d4 .cfa: sp 0 + .ra: lr
STACK CFI 2ce78 .cfa: sp 16 +
STACK CFI 2ce7c .ra: .cfa -4 + ^ r4: .cfa -16 + ^ r5: .cfa -12 + ^ r6: .cfa -8 + ^
STACK CFI 2ce80 .cfa: sp 296 +
STACK CFI INIT 2cf44 6c .cfa: sp 0 + .ra: lr
STACK CFI 2cf48 .cfa: sp 8 +
STACK CFI 2cf4c .ra: .cfa -4 + ^ r4: .cfa -8 + ^
STACK CFI 2cf50 .cfa: sp 32 +
STACK CFI INIT 2cfb0 1c .cfa: sp 0 + .ra: lr
STACK CFI 2cfb4 r7: r12
STACK CFI 2cfc0 r7: r7
STACK CFI INIT 2cfd0 c4 .cfa: sp 0 + .ra: lr
STACK CFI 2cfd4 .cfa: sp 12 +
STACK CFI 2cfd8 .cfa: sp 160 +
STACK CFI 2cfdc .ra: .cfa -4 + ^ r4: .cfa -12 + ^ r5: .cfa -8 + ^
STACK CFI INIT 2d094 24 .cfa: sp 0 + .ra: lr
STACK CFI INIT 2d0b8 28 .cfa: sp 0 + .ra: lr
STACK CFI INIT 2d0e0 28 .cfa: sp 0 + .ra: lr
STACK CFI INIT 2d108 40 .cfa: sp 0 + .ra: lr
STACK CFI 2d110 .cfa: sp 8 +
STACK CFI 2d114 .ra: .cfa -4 + ^ r3: .cfa -8 + ^
STACK CFI INIT 2d148 54 .cfa: sp 0 + .ra: lr
STACK CFI 2d14c .cfa: sp 8 +
STACK CFI 2d150 .ra: .cfa -4 + ^ r4: .cfa -8 + ^
STACK CFI INIT 2d19c 64 .cfa: sp 0 + .ra: lr
STACK CFI 2d1ac .cfa: sp 8 +
STACK CFI 2d1b8 .ra: .cfa -4 + ^ r4: .cfa -8 + ^
STACK CFI INIT 2d200 64 .cfa: sp 0 + .ra: lr
STACK CFI 2d210 .cfa: sp 8 +
STACK CFI 2d21c .ra: .cfa -4 + ^ r4: .cfa -8 + ^
STACK CFI INIT 2d264 5c .cfa: sp 0 + .ra: lr
STACK CFI 2d270 .cfa: sp 4 +
STACK CFI 2d274 .ra: .cfa -4 + ^
STACK CFI INIT 2d2c0 24 .cfa: sp 0 + .ra: lr
STACK CFI 2d2c8 .cfa: sp 4 +
STACK CFI 2d2d0 .ra: .cfa -4 + ^
STACK CFI INIT 2d2e4 8 .cfa: sp 0 + .ra: lr
STACK CFI INIT 2d2ec 8c .cfa: sp 0 + .ra: lr
STACK CFI 2d2f8 .cfa: sp 12 +
STACK CFI 2d304 .cfa: sp 296 +
STACK CFI 2d308 .ra: .cfa -4 + ^ r4: .cfa -12 + ^ r5: .cfa -8 + ^
STACK CFI INIT 2d378 8c .cfa: sp 0 + .ra: lr
STACK CFI 2d380 .cfa: sp 4 +
STACK CFI 2d384 .ra: .cfa -4 + ^
STACK CFI INIT 2d404 8c .cfa: sp 0 + .ra: lr
STACK CFI 2d410 .cfa: sp 12 +
STACK CFI 2d414 .ra: .cfa -4 + ^ r4: .cfa -12 + ^ r5: .cfa -8 + ^
STACK CFI INIT 2d490 8c .cfa: sp 0 + .ra: lr
STACK CFI 2d49c .cfa: sp 12 +
STACK CFI 2d4a0 .ra: .cfa -4 + ^ r4: .cfa -12 + ^ r5: .cfa -8 + ^
STACK CFI INIT 2d51c 10 .cfa: sp 0 + .ra: lr
STACK CFI INIT 2d52c 14 .cfa: sp 0 + .ra: lr
STACK CFI INIT 2d540 4c .cfa: sp 0 + .ra: lr
STACK CFI INIT 2d58c a4 .cfa: sp 0 + .ra: lr
STACK CFI 2d594 .cfa: sp 8 +
STACK CFI 2d59c .cfa: sp 136 +
STACK CFI 2d5a0 .ra: .cfa -4 + ^ r7: .cfa -8 + ^
STACK CFI INIT 2d630 58 .cfa: sp 0 + .ra: lr
STACK CFI 2d634 .cfa: sp 24 +
STACK CFI 2d638 .ra: .cfa -4 + ^ r4: .cfa -24 + ^ r5: .cfa -20 + ^ r6: .cfa -16 + ^ r7: .cfa -12 + ^ r8: .cfa -8 + ^
STACK CFI INIT 2d688 a8 .cfa: sp 0 + .ra: lr
STACK CFI 2d690 .cfa: sp 8 +
STACK CFI 2d698 .cfa: sp 136 +
STACK CFI 2d69c .ra: .cfa -4 + ^ r7: .cfa -8 + ^
STACK CFI INIT 2d730 50 .cfa: sp 0 + .ra: lr
STACK CFI 2d738 .cfa: sp 16 +
STACK CFI 2d744 .ra: .cfa -4 + ^ r4: .cfa -16 + ^ r5: .cfa -12 + ^ r6: .cfa -8 + ^
STACK CFI INIT 2d780 90 .cfa: sp 0 + .ra: lr
STACK CFI 2d784 .cfa: sp 24 +
STACK CFI 2d788 .cfa: sp 152 +
STACK CFI 2d78c .ra: .cfa -4 + ^ r4: .cfa -24 + ^ r5: .cfa -20 + ^ r6: .cfa -16 + ^ r7: .cfa -12 + ^ r8: .cfa -8 + ^
STACK CFI INIT 2d810 58 .cfa: sp 0 + .ra: lr
STACK CFI 2d814 .cfa: sp 8 +
STACK CFI 2d818 .cfa: sp 136 +
STACK CFI 2d81c .ra: .cfa -4 + ^ r4: .cfa -8 + ^
STACK CFI INIT 2d868 58 .cfa: sp 0 + .ra: lr
STACK CFI 2d86c .cfa: sp 8 +
STACK CFI 2d870 .cfa: sp 136 +
STACK CFI 2d874 .ra: .cfa -4 + ^ r4: .cfa -8 + ^
STACK CFI INIT 2d8c0 48 .cfa: sp 0 + .ra: lr
STACK CFI 2d8c4 .cfa: sp 12 +
STACK CFI 2d8c8 .cfa: sp 160 +
STACK CFI 2d8cc .ra: .cfa -4 + ^ r4: .cfa -12 + ^ r5: .cfa -8 + ^
STACK CFI INIT 2d908 15c .cfa: sp 0 + .ra: lr
STACK CFI 2d910 .cfa: sp 20 +
STACK CFI 2d914 .ra: .cfa -4 + ^ r4: .cfa -20 + ^ r5: .cfa -16 + ^ r6: .cfa -12 + ^ r7: .cfa -8 + ^
STACK CFI 2d918 .cfa: sp 560 +
STACK CFI INIT 2dac0 130 .cfa: sp 0 + .ra: lr
STACK CFI 2dac8 .cfa: sp 8 +
STACK CFI 2dad8 r4: .cfa -8 + ^ r5: .cfa -4 + ^
STACK CFI INIT 2dbf0 5c .cfa: sp 0 + .ra: lr
STACK CFI 2dbf4 .cfa: sp 24 +
STACK CFI 2dbf8 .ra: .cfa -4 + ^ r4: .cfa -24 + ^ r5: .cfa -20 + ^ r6: .cfa -16 + ^ r7: .cfa -12 + ^ r8: .cfa -8 + ^
STACK CFI INIT 2dc4c 130 .cfa: sp 0 + .ra: lr
STACK CFI 2dc54 .cfa: sp 8 +
STACK CFI 2dc64 r4: .cfa -8 + ^ r5: .cfa -4 + ^
STACK CFI INIT 2dd7c 5c .cfa: sp 0 + .ra: lr
STACK CFI 2dd80 .cfa: sp 24 +
STACK CFI 2dd84 .ra: .cfa -4 + ^ r4: .cfa -24 + ^ r5: .cfa -20 + ^ r6: .cfa -16 + ^ r7: .cfa -12 + ^ r8: .cfa -8 + ^
STACK CFI INIT 2ddd8 cc .cfa: sp 0 + .ra: lr
STACK CFI 2dde4 .cfa: sp 16 +
STACK CFI 2dde8 r4: .cfa -16 + ^ r5: .cfa -12 + ^ r6: .cfa -8 + ^ r7: .cfa -4 + ^
STACK CFI INIT 2dea4 188 .cfa: sp 0 + .ra: lr
STACK CFI 2deac .cfa: sp 28 +
STACK CFI 2deb4 r10: .cfa -4 + ^ r4: .cfa -28 + ^ r5: .cfa -24 + ^ r6: .cfa -20 + ^ r7: .cfa -16 + ^ r8: .cfa -12 + ^ r9: .cfa -8 + ^
STACK CFI INIT 2e02c a0 .cfa: sp 0 + .ra: lr
STACK CFI 2e034 .cfa: sp 4 +
STACK CFI 2e038 r4: .cfa -4 + ^
STACK CFI INIT 2e0cc ae8 .cfa: sp 0 + .ra: lr
STACK CFI 2e0d0 .cfa: sp 36 +
STACK CFI 2e0d4 .ra: .cfa -4 + ^ r10: .cfa -12 + ^ r11: .cfa -8 + ^ r4: .cfa -36 + ^ r5: .cfa -32 + ^ r6: .cfa -28 + ^ r7: .cfa -24 + ^ r8: .cfa -20 + ^ r9: .cfa -16 + ^
STACK CFI 2e0d8 .cfa: sp 72 +
STACK CFI INIT 2ebb4 908 .cfa: sp 0 + .ra: lr
STACK CFI 2ebb8 .cfa: sp 36 +
STACK CFI 2ebbc .cfa: sp 88 +
STACK CFI 2ebc0 .ra: .cfa -4 + ^ r10: .cfa -12 + ^ r11: .cfa -8 + ^ r4: .cfa -36 + ^ r5: .cfa -32 + ^ r6: .cfa -28 + ^ r7: .cfa -24 + ^ r8: .cfa -20 + ^ r9: .cfa -16 + ^
STACK CFI INIT 2f4bc a8 .cfa: sp 0 + .ra: lr
STACK CFI 2f4c4 .cfa: sp 28 +
STACK CFI 2f4c8 r10: .cfa -4 + ^ r4: .cfa -28 + ^ r5: .cfa -24 + ^ r6: .cfa -20 + ^ r7: .cfa -16 + ^ r8: .cfa -12 + ^ r9: .cfa -8 + ^
STACK CFI INIT 2f564 9c .cfa: sp 0 + .ra: lr
STACK CFI 2f56c .cfa: sp 28 +
STACK CFI 2f574 r10: .cfa -4 + ^ r4: .cfa -28 + ^ r5: .cfa -24 + ^ r6: .cfa -20 + ^ r7: .cfa -16 + ^ r8: .cfa -12 + ^ r9: .cfa -8 + ^
STACK CFI INIT 2f600 964 .cfa: sp 0 + .ra: lr
STACK CFI 2f604 .cfa: sp 36 +
STACK CFI 2f608 .ra: .cfa -4 + ^ r10: .cfa -12 + ^ r11: .cfa -8 + ^ r4: .cfa -36 + ^ r5: .cfa -32 + ^ r6: .cfa -28 + ^ r7: .cfa -24 + ^ r8: .cfa -20 + ^ r9: .cfa -16 + ^
STACK CFI 2f60c .cfa: sp 64 +
STACK CFI INIT 2ff64 5bc .cfa: sp 0 + .ra: lr
STACK CFI 2ff68 .cfa: sp 36 +
STACK CFI 2ff6c .cfa: r11 4 + .ra: .cfa -4 + ^ r10: .cfa -12 + ^ r11: .cfa -8 + ^ r4: .cfa -36 + ^ r5: .cfa -32 + ^ r6: .cfa -28 + ^ r7: .cfa -24 + ^ r8: .cfa -20 + ^ r9: .cfa -16 + ^
STACK CFI INIT 30520 15c .cfa: sp 0 + .ra: lr
STACK CFI 30528 .cfa: sp 24 +
STACK CFI 3052c r10: .cfa -4 + ^ r4: .cfa -24 + ^ r5: .cfa -20 + ^ r6: .cfa -16 + ^ r7: .cfa -12 + ^ r8: .cfa -8 + ^
STACK CFI INIT 3067c 27c .cfa: sp 0 + .ra: lr
STACK CFI 30684 .cfa: sp 32 +
STACK CFI 3068c .ra: .cfa -4 + ^ r10: .cfa -8 + ^ r4: .cfa -32 + ^ r5: .cfa -28 + ^ r6: .cfa -24 + ^ r7: .cfa -20 + ^ r8: .cfa -16 + ^ r9: .cfa -12 + ^
STACK CFI INIT 308f8 4f8 .cfa: sp 0 + .ra: lr
STACK CFI 308fc .cfa: sp 36 +
STACK CFI 30904 .cfa: sp 72 +
STACK CFI 30908 .ra: .cfa -4 + ^ r10: .cfa -12 + ^ r11: .cfa -8 + ^ r4: .cfa -36 + ^ r5: .cfa -32 + ^ r6: .cfa -28 + ^ r7: .cfa -24 + ^ r8: .cfa -20 + ^ r9: .cfa -16 + ^
STACK CFI INIT 30df0 230 .cfa: sp 0 + .ra: lr
STACK CFI 30df8 .cfa: sp 24 +
STACK CFI 30e00 .ra: .cfa -4 + ^ r4: .cfa -24 + ^ r5: .cfa -20 + ^ r6: .cfa -16 + ^ r7: .cfa -12 + ^ r8: .cfa -8 + ^
STACK CFI INIT 31020 420 .cfa: sp 0 + .ra: lr
STACK CFI 31028 .cfa: sp 36 +
STACK CFI 3102c .ra: .cfa -4 + ^ r10: .cfa -12 + ^ r11: .cfa -8 + ^ r4: .cfa -36 + ^ r5: .cfa -32 + ^ r6: .cfa -28 + ^ r7: .cfa -24 + ^ r8: .cfa -20 + ^ r9: .cfa -16 + ^
STACK CFI 31030 .cfa: sp 56 +
STACK CFI INIT 31440 78 .cfa: sp 0 + .ra: lr
STACK CFI 31444 .cfa: sp 8 +
STACK CFI 3144c .cfa: r11 4 + .ra: .cfa -4 + ^ r11: .cfa -8 + ^
STACK CFI INIT 314b8 c8 .cfa: sp 0 + .ra: lr
STACK CFI 314c4 .cfa: sp 24 +
STACK CFI 314c8 r10: .cfa -4 + ^ r4: .cfa -24 + ^ r5: .cfa -20 + ^ r6: .cfa -16 + ^ r7: .cfa -12 + ^ r8: .cfa -8 + ^
STACK CFI INIT 31580 1a0 .cfa: sp 0 + .ra: lr
STACK CFI 31588 .cfa: sp 28 +
STACK CFI 31590 r10: .cfa -4 + ^ r4: .cfa -28 + ^ r5: .cfa -24 + ^ r6: .cfa -20 + ^ r7: .cfa -16 + ^ r8: .cfa -12 + ^ r9: .cfa -8 + ^
STACK CFI INIT 31720 e8 .cfa: sp 0 + .ra: lr
STACK CFI 31724 .cfa: sp 16 +
STACK CFI 31728 r4: .cfa -16 + ^ r5: .cfa -12 + ^ r6: .cfa -8 + ^ r7: .cfa -4 + ^
STACK CFI INIT 31808 24 .cfa: sp 0 + .ra: lr
STACK CFI INIT 3182c 48 .cfa: sp 0 + .ra: lr
STACK CFI 31834 .cfa: sp 8 +
STACK CFI 31838 r4: .cfa -8 + ^ r5: .cfa -4 + ^
STACK CFI INIT 31874 8 .cfa: sp 0 + .ra: lr
STACK CFI INIT 3187c c .cfa: sp 0 + .ra: lr
STACK CFI INIT 31888 c .cfa: sp 0 + .ra: lr
STACK CFI INIT 31894 c .cfa: sp 0 + .ra: lr
STACK CFI INIT 318a0 310 .cfa: sp 0 + .ra: lr
STACK CFI 318a8 .cfa: sp 8 +
STACK CFI 318b0 .ra: .cfa -4 + ^ r7: .cfa -8 + ^
STACK CFI 318c0 .cfa: sp 280 +
STACK CFI INIT 31bb0 78 .cfa: sp 0 + .ra: lr
STACK CFI 31bb4 .cfa: sp 40 +
STACK CFI 31bbc .ra: .cfa -4 + ^ r10: .cfa -12 + ^ r11: .cfa -8 + ^ r3: .cfa -40 + ^ r4: .cfa -36 + ^ r5: .cfa -32 + ^ r6: .cfa -28 + ^ r7: .cfa -24 + ^ r8: .cfa -20 + ^ r9: .cfa -16 + ^
STACK CFI INIT 31c28 60c .cfa: sp 0 + .ra: lr
STACK CFI 31c2c .cfa: sp 36 +
STACK CFI 31c34 .cfa: sp 328 +
STACK CFI 31c40 .ra: .cfa -4 + ^ r10: .cfa -12 + ^ r11: .cfa -8 + ^ r4: .cfa -36 + ^ r5: .cfa -32 + ^ r6: .cfa -28 + ^ r7: .cfa -24 + ^ r8: .cfa -20 + ^ r9: .cfa -16 + ^
STACK CFI INIT 32234 330 .cfa: sp 0 + .ra: lr
STACK CFI 32238 .cfa: sp 36 +
STACK CFI 32240 .cfa: sp 56 +
STACK CFI 32248 .ra: .cfa -4 + ^ r10: .cfa -12 + ^ r11: .cfa -8 + ^ r4: .cfa -36 + ^ r5: .cfa -32 + ^ r6: .cfa -28 + ^ r7: .cfa -24 + ^ r8: .cfa -20 + ^ r9: .cfa -16 + ^
STACK CFI INIT 32564 31c .cfa: sp 0 + .ra: lr
STACK CFI 32568 .cfa: sp 36 +
STACK CFI 3256c .cfa: r11 4 + .ra: .cfa -4 + ^ r10: .cfa -12 + ^ r11: .cfa -8 + ^ r4: .cfa -36 + ^ r5: .cfa -32 + ^ r6: .cfa -28 + ^ r7: .cfa -24 + ^ r8: .cfa -20 + ^ r9: .cfa -16 + ^
STACK CFI INIT 32880 1c .cfa: sp 0 + .ra: lr
STACK CFI 32884 .cfa: sp 4 +
STACK CFI 3288c .cfa: sp 16 +
STACK CFI 32890 .ra: .cfa -4 + ^
STACK CFI INIT 3289c 12c .cfa: sp 0 + .ra: lr
STACK CFI 328a0 .cfa: sp 32 +
STACK CFI 328a4 .ra: .cfa -4 + ^ r10: .cfa -8 + ^ r3: .cfa -32 + ^ r4: .cfa -28 + ^ r5: .cfa -24 + ^ r6: .cfa -20 + ^ r7: .cfa -16 + ^ r8: .cfa -12 + ^
STACK CFI INIT 329c8 7c .cfa: sp 0 + .ra: lr
STACK CFI 329cc .cfa: sp 16 +
STACK CFI 329d4 .cfa: r11 4 + .ra: .cfa -4 + ^ r11: .cfa -8 + ^ r4: .cfa -16 + ^ r5: .cfa -12 + ^
STACK CFI INIT 32a44 59c .cfa: sp 0 + .ra: lr
STACK CFI 32a48 .cfa: sp 36 +
STACK CFI 32a4c .cfa: r11 4 + .ra: .cfa -4 + ^ r10: .cfa -12 + ^ r11: .cfa -8 + ^ r4: .cfa -36 + ^ r5: .cfa -32 + ^ r6: .cfa -28 + ^ r7: .cfa -24 + ^ r8: .cfa -20 + ^ r9: .cfa -16 + ^
STACK CFI INIT 32fe0 64 .cfa: sp 0 + .ra: lr
STACK CFI 32fe4 .cfa: sp 16 +
STACK CFI 32fe8 .ra: .cfa -4 + ^ r4: .cfa -16 + ^ r5: .cfa -12 + ^ r6: .cfa -8 + ^
STACK CFI INIT 33044 19c .cfa: sp 0 + .ra: lr
STACK CFI 33048 .cfa: sp 24 +
STACK CFI 3304c .ra: .cfa -4 + ^ r4: .cfa -24 + ^ r5: .cfa -20 + ^ r6: .cfa -16 + ^ r7: .cfa -12 + ^ r8: .cfa -8 + ^
STACK CFI INIT 331e0 124 .cfa: sp 0 + .ra: lr
STACK CFI 331e4 .cfa: sp 24 +
STACK CFI 331e8 .ra: .cfa -4 + ^ r3: .cfa -24 + ^ r4: .cfa -20 + ^ r5: .cfa -16 + ^ r6: .cfa -12 + ^ r7: .cfa -8 + ^
STACK CFI INIT 116b08 40 .cfa: sp 0 + .ra: lr
STACK CFI 116b0c .cfa: sp 16 + .ra: .cfa -4 + ^ r3: .cfa -16 + ^ r4: .cfa -12 + ^ r5: .cfa -8 + ^
STACK CFI INIT 33304 30 .cfa: sp 0 + .ra: lr
STACK CFI INIT 33334 174 .cfa: sp 0 + .ra: lr
STACK CFI 33338 .cfa: sp 24 +
STACK CFI 3333c .ra: .cfa -4 + ^ r3: .cfa -24 + ^ r4: .cfa -20 + ^ r5: .cfa -16 + ^ r6: .cfa -12 + ^ r7: .cfa -8 + ^
STACK CFI INIT 334a8 18 .cfa: sp 0 + .ra: lr
STACK CFI 334b0 .cfa: sp 8 +
STACK CFI 334b8 .ra: .cfa -4 + ^ r3: .cfa -8 + ^
STACK CFI INIT 334c0 4c .cfa: sp 0 + .ra: lr
STACK CFI 334c4 .cfa: sp 16 +
STACK CFI 334c8 .ra: .cfa -4 + ^ r3: .cfa -16 + ^ r4: .cfa -12 + ^ r5: .cfa -8 + ^
STACK CFI INIT 3350c 258 .cfa: sp 0 + .ra: lr
STACK CFI 33510 .cfa: sp 24 +
STACK CFI 33514 .ra: .cfa -4 + ^ r4: .cfa -24 + ^ r5: .cfa -20 + ^ r6: .cfa -16 + ^ r7: .cfa -12 + ^ r8: .cfa -8 + ^
STACK CFI INIT 33764 48 .cfa: sp 0 + .ra: lr
STACK CFI 33768 .cfa: sp 16 +
STACK CFI 3376c .ra: .cfa -4 + ^ r4: .cfa -16 + ^ r5: .cfa -12 + ^ r6: .cfa -8 + ^
STACK CFI INIT 337ac 10 .cfa: sp 0 + .ra: lr
STACK CFI INIT 337bc 328 .cfa: sp 0 + .ra: lr
STACK CFI 337c0 .cfa: sp 36 +
STACK CFI 337c4 .ra: .cfa -4 + ^ r10: .cfa -12 + ^ r11: .cfa -8 + ^ r4: .cfa -36 + ^ r5: .cfa -32 + ^ r6: .cfa -28 + ^ r7: .cfa -24 + ^ r8: .cfa -20 + ^ r9: .cfa -16 + ^
STACK CFI 337d0 .cfa: sp 64 +
STACK CFI INIT 33ae4 18 .cfa: sp 0 + .ra: lr
STACK CFI 33aec .cfa: sp 8 +
STACK CFI 33af4 .ra: .cfa -4 + ^ r3: .cfa -8 + ^
STACK CFI INIT 33afc 18 .cfa: sp 0 + .ra: lr
STACK CFI INIT 33b14 c .cfa: sp 0 + .ra: lr
STACK CFI INIT 33b20 c .cfa: sp 0 + .ra: lr
STACK CFI INIT 33b2c 2c .cfa: sp 0 + .ra: lr
STACK CFI 33b30 .cfa: sp 8 +
STACK CFI 33b34 r4: .cfa -8 + ^ r5: .cfa -4 + ^
STACK CFI INIT 33b58 50 .cfa: sp 0 + .ra: lr
STACK CFI 33b5c .cfa: sp 24 +
STACK CFI 33b60 .ra: .cfa -4 + ^ r3: .cfa -24 + ^ r4: .cfa -20 + ^ r5: .cfa -16 + ^ r6: .cfa -12 + ^ r7: .cfa -8 + ^
STACK CFI INIT 33ba8 50 .cfa: sp 0 + .ra: lr
STACK CFI 33bac .cfa: sp 24 +
STACK CFI 33bb0 .ra: .cfa -4 + ^ r3: .cfa -24 + ^ r4: .cfa -20 + ^ r5: .cfa -16 + ^ r6: .cfa -12 + ^ r7: .cfa -8 + ^
STACK CFI INIT 33bf8 94 .cfa: sp 0 + .ra: lr
STACK CFI 33bfc .cfa: sp 32 +
STACK CFI 33c00 .ra: .cfa -4 + ^ r10: .cfa -12 + ^ r11: .cfa -8 + ^ r4: .cfa -32 + ^ r5: .cfa -28 + ^ r6: .cfa -24 + ^ r8: .cfa -20 + ^ r9: .cfa -16 + ^
STACK CFI INIT 33c8c e0 .cfa: sp 0 + .ra: lr
STACK CFI 33c90 .cfa: sp 24 +
STACK CFI 33c94 .ra: .cfa -4 + ^ r3: .cfa -24 + ^ r4: .cfa -20 + ^ r5: .cfa -16 + ^ r6: .cfa -12 + ^ r7: .cfa -8 + ^
STACK CFI INIT 33d6c 100 .cfa: sp 0 + .ra: lr
STACK CFI 33d70 .cfa: sp 24 +
STACK CFI 33d74 .ra: .cfa -4 + ^ r4: .cfa -24 + ^ r5: .cfa -20 + ^ r6: .cfa -16 + ^ r7: .cfa -12 + ^ r8: .cfa -8 + ^
STACK CFI INIT 33e6c 108 .cfa: sp 0 + .ra: lr
STACK CFI 33e70 .cfa: sp 24 +
STACK CFI 33e74 .ra: .cfa -4 + ^ r4: .cfa -24 + ^ r5: .cfa -20 + ^ r6: .cfa -16 + ^ r7: .cfa -12 + ^ r8: .cfa -8 + ^
STACK CFI INIT 33f74 ec .cfa: sp 0 + .ra: lr
STACK CFI 33f78 .cfa: sp 20 +
STACK CFI 33f7c .ra: .cfa -4 + ^ r4: .cfa -20 + ^ r5: .cfa -16 + ^ r6: .cfa -12 + ^ r7: .cfa -8 + ^
STACK CFI 33f80 .cfa: sp 32 +
STACK CFI INIT 34060 f4 .cfa: sp 0 + .ra: lr
STACK CFI 3406c .cfa: sp 16 +
STACK CFI 34070 .ra: .cfa -4 + ^ r4: .cfa -16 + ^ r5: .cfa -12 + ^ r6: .cfa -8 + ^
STACK CFI INIT 34154 c0 .cfa: sp 0 + .ra: lr
STACK CFI 34160 .cfa: sp 16 +
STACK CFI 34164 .ra: .cfa -4 + ^ r4: .cfa -16 + ^ r5: .cfa -12 + ^ r6: .cfa -8 + ^
STACK CFI INIT 34214 1c4 .cfa: sp 0 + .ra: lr
STACK CFI 34218 .cfa: sp 32 +
STACK CFI 3421c .ra: .cfa -4 + ^ r10: .cfa -8 + ^ r4: .cfa -32 + ^ r5: .cfa -28 + ^ r6: .cfa -24 + ^ r7: .cfa -20 + ^ r8: .cfa -16 + ^ r9: .cfa -12 + ^
STACK CFI 34220 .cfa: sp 40 +
STACK CFI INIT 343d8 108 .cfa: sp 0 + .ra: lr
STACK CFI 343dc .cfa: sp 24 +
STACK CFI 343e0 .ra: .cfa -4 + ^ r3: .cfa -24 + ^ r4: .cfa -20 + ^ r5: .cfa -16 + ^ r6: .cfa -12 + ^ r7: .cfa -8 + ^
STACK CFI INIT 344e0 4 .cfa: sp 0 + .ra: lr
STACK CFI INIT 344e4 58 .cfa: sp 0 + .ra: lr
STACK CFI INIT 3453c 2c .cfa: sp 0 + .ra: lr
STACK CFI 34544 .cfa: sp 4 +
STACK CFI 3454c .cfa: sp 16 +
STACK CFI 34554 .ra: .cfa -4 + ^
STACK CFI INIT 34568 28 .cfa: sp 0 + .ra: lr
STACK CFI 34570 .cfa: sp 4 +
STACK CFI 34574 .cfa: sp 16 +
STACK CFI 3457c .ra: .cfa -4 + ^
STACK CFI INIT 34590 2c .cfa: sp 0 + .ra: lr
STACK CFI 34598 .cfa: sp 4 +
STACK CFI 345a0 .cfa: sp 16 +
STACK CFI 345a8 .ra: .cfa -4 + ^
STACK CFI INIT 345bc 28 .cfa: sp 0 + .ra: lr
STACK CFI 345c4 .cfa: sp 4 +
STACK CFI 345c8 .cfa: sp 16 +
STACK CFI 345d0 .ra: .cfa -4 + ^
STACK CFI INIT 345e4 2c .cfa: sp 0 + .ra: lr
STACK CFI 345ec .cfa: sp 4 +
STACK CFI 345f4 .cfa: sp 16 +
STACK CFI 345fc .ra: .cfa -4 + ^
STACK CFI INIT 34610 28 .cfa: sp 0 + .ra: lr
STACK CFI 34618 .cfa: sp 4 +
STACK CFI 3461c .cfa: sp 16 +
STACK CFI 34624 .ra: .cfa -4 + ^
STACK CFI INIT 34638 10 .cfa: sp 0 + .ra: lr
STACK CFI INIT 34648 20 .cfa: sp 0 + .ra: lr
STACK CFI 3464c .cfa: sp 8 +
STACK CFI 34650 .ra: .cfa -4 + ^ r4: .cfa -8 + ^
STACK CFI INIT 34668 10 .cfa: sp 0 + .ra: lr
STACK CFI INIT 34678 c .cfa: sp 0 + .ra: lr
STACK CFI INIT 34684 80 .cfa: sp 0 + .ra: lr
STACK CFI 34688 .cfa: sp 24 +
STACK CFI 3468c .ra: .cfa -4 + ^ r3: .cfa -24 + ^ r4: .cfa -20 + ^ r5: .cfa -16 + ^ r6: .cfa -12 + ^ r7: .cfa -8 + ^
STACK CFI INIT 34704 1c .cfa: sp 0 + .ra: lr
STACK CFI INIT 34720 34 .cfa: sp 0 + .ra: lr
STACK CFI 34724 .cfa: sp 16 +
STACK CFI 34728 .ra: .cfa -4 + ^ r3: .cfa -16 + ^ r4: .cfa -12 + ^ r5: .cfa -8 + ^
STACK CFI INIT 34754 1c .cfa: sp 0 + .ra: lr
STACK CFI INIT 34770 30 .cfa: sp 0 + .ra: lr
STACK CFI 34774 .cfa: sp 16 +
STACK CFI 34778 .ra: .cfa -4 + ^ r3: .cfa -16 + ^ r4: .cfa -12 + ^ r5: .cfa -8 + ^
STACK CFI INIT 347a0 40 .cfa: sp 0 + .ra: lr
STACK CFI INIT 347e0 58 .cfa: sp 0 + .ra: lr
STACK CFI 347e8 .cfa: sp 16 +
STACK CFI 347ec .ra: .cfa -4 + ^ r3: .cfa -16 + ^ r4: .cfa -12 + ^ r5: .cfa -8 + ^
STACK CFI INIT 34838 58 .cfa: sp 0 + .ra: lr
STACK CFI 3483c .cfa: sp 24 +
STACK CFI 34840 .ra: .cfa -4 + ^ r3: .cfa -24 + ^ r4: .cfa -20 + ^ r5: .cfa -16 + ^ r6: .cfa -12 + ^ r7: .cfa -8 + ^
STACK CFI INIT 34890 94 .cfa: sp 0 + .ra: lr
STACK CFI 34898 .cfa: sp 20 +
STACK CFI 348a0 r4: .cfa -20 + ^ r5: .cfa -16 + ^ r6: .cfa -12 + ^ r7: .cfa -8 + ^ r8: .cfa -4 + ^
STACK CFI INIT 34924 34 .cfa: sp 0 + .ra: lr
STACK CFI 34928 .cfa: sp 12 +
STACK CFI 3492c .ra: .cfa -4 + ^ r4: .cfa -12 + ^ r5: .cfa -8 + ^
STACK CFI 34940 .cfa: sp 24 +
STACK CFI INIT 34958 38 .cfa: sp 0 + .ra: lr
STACK CFI 3495c .cfa: sp 8 +
STACK CFI 34960 .ra: .cfa -4 + ^ r4: .cfa -8 + ^
STACK CFI 34968 .cfa: sp 16 +
STACK CFI INIT 34990 34 .cfa: sp 0 + .ra: lr
STACK CFI 34994 .cfa: sp 12 +
STACK CFI 34998 .ra: .cfa -4 + ^ r4: .cfa -12 + ^ r5: .cfa -8 + ^
STACK CFI 349ac .cfa: sp 24 +
STACK CFI INIT 349c4 38 .cfa: sp 0 + .ra: lr
STACK CFI 349c8 .cfa: sp 8 +
STACK CFI 349cc .ra: .cfa -4 + ^ r4: .cfa -8 + ^
STACK CFI 349d4 .cfa: sp 16 +
STACK CFI INIT 349fc 34 .cfa: sp 0 + .ra: lr
STACK CFI 34a00 .cfa: sp 12 +
STACK CFI 34a04 .ra: .cfa -4 + ^ r4: .cfa -12 + ^ r5: .cfa -8 + ^
STACK CFI 34a18 .cfa: sp 24 +
STACK CFI INIT 34a30 38 .cfa: sp 0 + .ra: lr
STACK CFI 34a34 .cfa: sp 8 +
STACK CFI 34a38 .ra: .cfa -4 + ^ r4: .cfa -8 + ^
STACK CFI 34a40 .cfa: sp 16 +
STACK CFI INIT 34a68 34 .cfa: sp 0 + .ra: lr
STACK CFI 34a6c .cfa: sp 12 +
STACK CFI 34a70 .ra: .cfa -4 + ^ r4: .cfa -12 + ^ r5: .cfa -8 + ^
STACK CFI 34a84 .cfa: sp 24 +
STACK CFI INIT 34a9c 38 .cfa: sp 0 + .ra: lr
STACK CFI 34aa0 .cfa: sp 8 +
STACK CFI 34aa4 .ra: .cfa -4 + ^ r4: .cfa -8 + ^
STACK CFI 34aac .cfa: sp 16 +
STACK CFI INIT 34ad4 50c .cfa: sp 0 + .ra: lr
STACK CFI 34ad8 .cfa: sp 36 +
STACK CFI 34adc .cfa: sp 72 +
STACK CFI 34ae0 .ra: .cfa -4 + ^ r10: .cfa -12 + ^ r11: .cfa -8 + ^ r4: .cfa -36 + ^ r5: .cfa -32 + ^ r6: .cfa -28 + ^ r7: .cfa -24 + ^ r8: .cfa -20 + ^ r9: .cfa -16 + ^
STACK CFI INIT 34fe0 1c .cfa: sp 0 + .ra: lr
STACK CFI 34fe4 .cfa: sp 4 +
STACK CFI 34fe8 .cfa: sp 16 +
STACK CFI 34ff0 .ra: .cfa -4 + ^
STACK CFI INIT 34ffc 4f0 .cfa: sp 0 + .ra: lr
STACK CFI 35000 .cfa: sp 36 +
STACK CFI 35004 .cfa: sp 72 +
STACK CFI 35008 .ra: .cfa -4 + ^ r10: .cfa -12 + ^ r11: .cfa -8 + ^ r4: .cfa -36 + ^ r5: .cfa -32 + ^ r6: .cfa -28 + ^ r7: .cfa -24 + ^ r8: .cfa -20 + ^ r9: .cfa -16 + ^
STACK CFI INIT 354ec 1c .cfa: sp 0 + .ra: lr
STACK CFI 354f0 .cfa: sp 4 +
STACK CFI 354f4 .cfa: sp 16 +
STACK CFI 354fc .ra: .cfa -4 + ^
STACK CFI INIT 35508 6c8 .cfa: sp 0 + .ra: lr
STACK CFI 3550c .cfa: sp 36 +
STACK CFI 35510 .cfa: sp 104 +
STACK CFI 35514 .ra: .cfa -4 + ^ r10: .cfa -12 + ^ r11: .cfa -8 + ^ r4: .cfa -36 + ^ r5: .cfa -32 + ^ r6: .cfa -28 + ^ r7: .cfa -24 + ^ r8: .cfa -20 + ^ r9: .cfa -16 + ^
STACK CFI INIT 35bd0 1c .cfa: sp 0 + .ra: lr
STACK CFI 35bd4 .cfa: sp 4 +
STACK CFI 35bd8 .cfa: sp 16 +
STACK CFI 35be0 .ra: .cfa -4 + ^
STACK CFI INIT 35bec 6ac .cfa: sp 0 + .ra: lr
STACK CFI 35bf0 .cfa: sp 36 +
STACK CFI 35bf4 .cfa: sp 104 +
STACK CFI 35bf8 .ra: .cfa -4 + ^ r10: .cfa -12 + ^ r11: .cfa -8 + ^ r4: .cfa -36 + ^ r5: .cfa -32 + ^ r6: .cfa -28 + ^ r7: .cfa -24 + ^ r8: .cfa -20 + ^ r9: .cfa -16 + ^
STACK CFI INIT 36298 1c .cfa: sp 0 + .ra: lr
STACK CFI 3629c .cfa: sp 4 +
STACK CFI 362a0 .cfa: sp 16 +
STACK CFI 362a8 .ra: .cfa -4 + ^
STACK CFI INIT 362b4 28 .cfa: sp 0 + .ra: lr
STACK CFI 362b8 .cfa: sp 8 +
STACK CFI 362bc .ra: .cfa -4 + ^ r4: .cfa -8 + ^
STACK CFI INIT 362dc 2c .cfa: sp 0 + .ra: lr
STACK CFI 362e0 .cfa: sp 8 +
STACK CFI 362e4 .ra: .cfa -4 + ^ r4: .cfa -8 + ^
STACK CFI INIT 36308 28 .cfa: sp 0 + .ra: lr
STACK CFI 3630c .cfa: sp 8 +
STACK CFI 36310 .ra: .cfa -4 + ^ r4: .cfa -8 + ^
STACK CFI INIT 36330 2c .cfa: sp 0 + .ra: lr
STACK CFI 36334 .cfa: sp 8 +
STACK CFI 36338 .ra: .cfa -4 + ^ r4: .cfa -8 + ^
STACK CFI INIT 3635c 28 .cfa: sp 0 + .ra: lr
STACK CFI 36360 .cfa: sp 8 +
STACK CFI 36364 .ra: .cfa -4 + ^ r4: .cfa -8 + ^
STACK CFI INIT 36384 2c .cfa: sp 0 + .ra: lr
STACK CFI 36388 .cfa: sp 8 +
STACK CFI 3638c .ra: .cfa -4 + ^ r4: .cfa -8 + ^
STACK CFI INIT 363b0 160 .cfa: sp 0 + .ra: lr
STACK CFI 363b4 .cfa: sp 32 +
STACK CFI 363bc .ra: .cfa -4 + ^ r10: .cfa -8 + ^ r4: .cfa -32 + ^ r5: .cfa -28 + ^ r6: .cfa -24 + ^ r7: .cfa -20 + ^ r8: .cfa -16 + ^ r9: .cfa -12 + ^
STACK CFI INIT 36510 320 .cfa: sp 0 + .ra: lr
STACK CFI 36514 .cfa: sp 36 +
STACK CFI 36518 .ra: .cfa -4 + ^ r10: .cfa -12 + ^ r11: .cfa -8 + ^ r4: .cfa -36 + ^ r5: .cfa -32 + ^ r6: .cfa -28 + ^ r7: .cfa -24 + ^ r8: .cfa -20 + ^ r9: .cfa -16 + ^
STACK CFI 36520 .cfa: sp 48 +
STACK CFI INIT 36830 1f64 .cfa: sp 0 + .ra: lr
STACK CFI 36834 .cfa: sp 36 +
STACK CFI 3683c .cfa: sp 192 +
STACK CFI 36840 .ra: .cfa -4 + ^ r10: .cfa -12 + ^ r11: .cfa -8 + ^ r4: .cfa -36 + ^ r5: .cfa -32 + ^ r6: .cfa -28 + ^ r7: .cfa -24 + ^ r8: .cfa -20 + ^ r9: .cfa -16 + ^
STACK CFI INIT 38794 c .cfa: sp 0 + .ra: lr
STACK CFI INIT 387a0 200 .cfa: sp 0 + .ra: lr
STACK CFI 387a4 .cfa: sp 32 +
STACK CFI 387a8 .ra: .cfa -4 + ^ r10: .cfa -8 + ^ r4: .cfa -32 + ^ r5: .cfa -28 + ^ r6: .cfa -24 + ^ r7: .cfa -20 + ^ r8: .cfa -16 + ^ r9: .cfa -12 + ^
STACK CFI INIT 389a0 320 .cfa: sp 0 + .ra: lr
STACK CFI 389a4 .cfa: sp 36 +
STACK CFI 389a8 .ra: .cfa -4 + ^ r10: .cfa -12 + ^ r11: .cfa -8 + ^ r4: .cfa -36 + ^ r5: .cfa -32 + ^ r6: .cfa -28 + ^ r7: .cfa -24 + ^ r8: .cfa -20 + ^ r9: .cfa -16 + ^
STACK CFI 389b0 .cfa: sp 48 +
STACK CFI INIT 38cc0 21ac .cfa: sp 0 + .ra: lr
STACK CFI 38cc4 .cfa: sp 36 +
STACK CFI 38ccc .cfa: sp 440 +
STACK CFI 38cd0 .ra: .cfa -4 + ^ r10: .cfa -12 + ^ r11: .cfa -8 + ^ r4: .cfa -36 + ^ r5: .cfa -32 + ^ r6: .cfa -28 + ^ r7: .cfa -24 + ^ r8: .cfa -20 + ^ r9: .cfa -16 + ^
STACK CFI INIT 3ae6c c .cfa: sp 0 + .ra: lr
STACK CFI INIT 3ae78 4 .cfa: sp 0 + .ra: lr
STACK CFI INIT 3ae7c c .cfa: sp 0 + .ra: lr
STACK CFI INIT 3ae88 5bc .cfa: sp 0 + .ra: lr
STACK CFI 3ae8c .cfa: sp 20 +
STACK CFI 3ae90 .ra: .cfa -4 + ^ r4: .cfa -20 + ^ r5: .cfa -16 + ^ r6: .cfa -12 + ^ r7: .cfa -8 + ^
STACK CFI 3ae98 .cfa: sp 352 +
STACK CFI INIT 3b444 158 .cfa: sp 0 + .ra: lr
STACK CFI 3b448 .cfa: sp 24 +
STACK CFI 3b44c .ra: .cfa -4 + ^ r3: .cfa -24 + ^ r4: .cfa -20 + ^ r5: .cfa -16 + ^ r6: .cfa -12 + ^ r7: .cfa -8 + ^
STACK CFI INIT 3b59c 68 .cfa: sp 0 + .ra: lr
STACK CFI 3b5a0 .cfa: sp 16 +
STACK CFI 3b5a4 .ra: .cfa -4 + ^ r4: .cfa -16 + ^ r5: .cfa -12 + ^ r6: .cfa -8 + ^
STACK CFI INIT 3b604 490 .cfa: sp 0 + .ra: lr
STACK CFI 3b608 .cfa: sp 36 +
STACK CFI 3b60c .ra: .cfa -4 + ^ r10: .cfa -12 + ^ r11: .cfa -8 + ^ r4: .cfa -36 + ^ r5: .cfa -32 + ^ r6: .cfa -28 + ^ r7: .cfa -24 + ^ r8: .cfa -20 + ^ r9: .cfa -16 + ^
STACK CFI 3b610 .cfa: r11 4 +
STACK CFI INIT 3ba94 8 .cfa: sp 0 + .ra: lr
STACK CFI INIT 3ba9c fc .cfa: sp 0 + .ra: lr
STACK CFI 3baa0 .cfa: sp 4 +
STACK CFI 3bab0 r4: .cfa -4 + ^
STACK CFI INIT 3bb98 54 .cfa: sp 0 + .ra: lr
STACK CFI INIT 3bbec ec .cfa: sp 0 + .ra: lr
STACK CFI 3bbf0 .cfa: sp 36 +
STACK CFI 3bbf4 .ra: .cfa -4 + ^ r10: .cfa -12 + ^ r11: .cfa -8 + ^ r4: .cfa -36 + ^ r5: .cfa -32 + ^ r6: .cfa -28 + ^ r7: .cfa -24 + ^ r8: .cfa -20 + ^ r9: .cfa -16 + ^
STACK CFI 3bbf8 .cfa: sp 48 +
STACK CFI INIT 3bcd8 188 .cfa: sp 0 + .ra: lr
STACK CFI 3bcdc .cfa: sp 8 +
STACK CFI 3bce0 .ra: .cfa -4 + ^ r4: .cfa -8 + ^
STACK CFI INIT 3be60 8 .cfa: sp 0 + .ra: lr
STACK CFI INIT 3be68 8 .cfa: sp 0 + .ra: lr
STACK CFI INIT 3be70 24 .cfa: sp 0 + .ra: lr
STACK CFI 3be78 .cfa: sp 4 +
STACK CFI 3be80 .ra: .cfa -4 + ^
STACK CFI INIT 3be94 24 .cfa: sp 0 + .ra: lr
STACK CFI 3be9c .cfa: sp 4 +
STACK CFI 3bea4 .ra: .cfa -4 + ^
STACK CFI INIT 3beb8 2c .cfa: sp 0 + .ra: lr
STACK CFI 3bec0 .cfa: sp 8 +
STACK CFI 3bec4 r2: .cfa -8 + ^ r3: .cfa -4 + ^
STACK CFI 3bec8 .cfa: sp 12 +
STACK CFI 3becc .ra: .cfa -12 + ^
STACK CFI INIT 3bee4 24 .cfa: sp 0 + .ra: lr
STACK CFI 3beec .cfa: sp 4 +
STACK CFI 3bef4 .ra: .cfa -4 + ^
STACK CFI INIT 3bf08 4c .cfa: sp 0 + .ra: lr
STACK CFI 3bf0c .cfa: sp 8 +
STACK CFI 3bf10 r2: .cfa -8 + ^ r3: .cfa -4 + ^
STACK CFI 3bf14 .cfa: sp 20 +
STACK CFI 3bf18 .cfa: sp 40 +
STACK CFI 3bf1c .ra: .cfa -12 + ^ r4: .cfa -20 + ^ r5: .cfa -16 + ^
STACK CFI INIT 3bf54 13cc .cfa: sp 0 + .ra: lr
STACK CFI 3bf60 .cfa: sp 36 +
STACK CFI 3bf64 .ra: .cfa -4 + ^ r10: .cfa -12 + ^ r11: .cfa -8 + ^ r4: .cfa -36 + ^ r5: .cfa -32 + ^ r6: .cfa -28 + ^ r7: .cfa -24 + ^ r8: .cfa -20 + ^ r9: .cfa -16 + ^
STACK CFI 3bf74 .cfa: sp 384 +
STACK CFI INIT 3d320 30 .cfa: sp 0 + .ra: lr
STACK CFI 3d324 .cfa: sp 4 +
STACK CFI 3d328 .cfa: sp 8 +
STACK CFI 3d32c .cfa: sp 24 +
STACK CFI 3d334 .ra: .cfa -8 + ^ r3: .cfa -4 + ^
STACK CFI INIT 3d350 c8 .cfa: sp 0 + .ra: lr
STACK CFI 3d358 .cfa: sp 8 +
STACK CFI 3d360 .ra: .cfa -4 + ^ r4: .cfa -8 + ^
STACK CFI INIT 3d418 2c .cfa: sp 0 + .ra: lr
STACK CFI 3d41c .cfa: sp 4 +
STACK CFI 3d420 .cfa: sp 24 +
STACK CFI 3d438 .ra: .cfa -4 + ^
STACK CFI INIT 3d444 c8 .cfa: sp 0 + .ra: lr
STACK CFI 3d44c .cfa: sp 8 +
STACK CFI 3d454 .ra: .cfa -4 + ^ r4: .cfa -8 + ^
STACK CFI INIT 3d50c 2c .cfa: sp 0 + .ra: lr
STACK CFI 3d510 .cfa: sp 4 +
STACK CFI 3d514 .cfa: sp 24 +
STACK CFI 3d52c .ra: .cfa -4 + ^
STACK CFI INIT 3d538 9c .cfa: sp 0 + .ra: lr
STACK CFI 3d540 .cfa: sp 8 +
STACK CFI 3d544 .ra: .cfa -4 + ^ r4: .cfa -8 + ^
STACK CFI INIT 3d5d4 8 .cfa: sp 0 + .ra: lr
STACK CFI INIT 3d5dc 8 .cfa: sp 0 + .ra: lr
STACK CFI INIT 3d5e4 9c .cfa: sp 0 + .ra: lr
STACK CFI 3d5e8 .cfa: sp 28 +
STACK CFI 3d5ec .cfa: sp 40 +
STACK CFI 3d5f0 .ra: .cfa -4 + ^ r10: .cfa -8 + ^ r4: .cfa -28 + ^ r5: .cfa -24 + ^ r6: .cfa -20 + ^ r7: .cfa -16 + ^ r8: .cfa -12 + ^
STACK CFI INIT 3d680 74 .cfa: sp 0 + .ra: lr
STACK CFI 3d684 .cfa: sp 12 +
STACK CFI 3d688 .ra: .cfa -4 + ^ r4: .cfa -12 + ^ r5: .cfa -8 + ^
STACK CFI 3d68c .cfa: sp 32 +
STACK CFI INIT 116b48 4c .cfa: sp 0 + .ra: lr
STACK CFI 116b50 .cfa: sp 8 +
STACK CFI 116b5c .ra: .cfa -4 + ^ r4: .cfa -8 + ^
STACK CFI INIT 3d6f4 ec .cfa: sp 0 + .ra: lr
STACK CFI 3d6f8 .cfa: sp 12 +
STACK CFI 3d6fc .ra: .cfa -4 + ^ r4: .cfa -12 + ^ r5: .cfa -8 + ^
STACK CFI 3d700 .cfa: sp 24 +
STACK CFI INIT 3d7e0 39c .cfa: sp 0 + .ra: lr
STACK CFI 3d7e8 .cfa: sp 36 +
STACK CFI 3d7f0 .cfa: sp 64 + .ra: .cfa -4 + ^ r10: .cfa -12 + ^ r11: .cfa -8 + ^ r4: .cfa -36 + ^ r5: .cfa -32 + ^ r6: .cfa -28 + ^ r7: .cfa -24 + ^ r8: .cfa -20 + ^ r9: .cfa -16 + ^
STACK CFI INIT 3db7c 5c0 .cfa: sp 0 + .ra: lr
STACK CFI 3db80 .cfa: sp 36 +
STACK CFI 3db84 .ra: .cfa -4 + ^ r10: .cfa -12 + ^ r11: .cfa -8 + ^ r4: .cfa -36 + ^ r5: .cfa -32 + ^ r6: .cfa -28 + ^ r7: .cfa -24 + ^ r8: .cfa -20 + ^ r9: .cfa -16 + ^
STACK CFI 3db90 .cfa: sp 104 +
STACK CFI INIT 3e13c f8 .cfa: sp 0 + .ra: lr
STACK CFI 3e144 .cfa: sp 24 +
STACK CFI 3e148 .ra: .cfa -4 + ^ r4: .cfa -24 + ^ r5: .cfa -20 + ^ r6: .cfa -16 + ^ r7: .cfa -12 + ^ r8: .cfa -8 + ^
STACK CFI INIT 3e234 288 .cfa: sp 0 + .ra: lr
STACK CFI 3e238 .cfa: sp 36 +
STACK CFI 3e240 .cfa: sp 64 +
STACK CFI 3e248 .ra: .cfa -4 + ^ r10: .cfa -12 + ^ r11: .cfa -8 + ^ r4: .cfa -36 + ^ r5: .cfa -32 + ^ r6: .cfa -28 + ^ r7: .cfa -24 + ^ r8: .cfa -20 + ^ r9: .cfa -16 + ^
STACK CFI INIT 3e4bc 250 .cfa: sp 0 + .ra: lr
STACK CFI 3e4c4 .cfa: sp 28 +
STACK CFI 3e4c8 r10: .cfa -4 + ^ r4: .cfa -28 + ^ r5: .cfa -24 + ^ r6: .cfa -20 + ^ r7: .cfa -16 + ^ r8: .cfa -12 + ^ r9: .cfa -8 + ^
STACK CFI INIT 3e70c 2c .cfa: sp 0 + .ra: lr
STACK CFI INIT 3e738 94 .cfa: sp 0 + .ra: lr
STACK CFI 3e73c .cfa: sp 8 +
STACK CFI 3e740 .cfa: sp 1064 +
STACK CFI 3e744 .cfa: sp 1072 +
STACK CFI 3e748 .ra: .cfa -4 + ^ r4: .cfa -8 + ^
STACK CFI INIT 3e7cc 104 .cfa: sp 0 + .ra: lr
STACK CFI 3e7d4 .cfa: sp 24 +
STACK CFI 3e7d8 .ra: .cfa -4 + ^ r4: .cfa -24 + ^ r5: .cfa -20 + ^ r6: .cfa -16 + ^ r7: .cfa -12 + ^ r8: .cfa -8 + ^
STACK CFI INIT 3e8d0 784 .cfa: sp 0 + .ra: lr
STACK CFI 3e8d4 .cfa: sp 32 +
STACK CFI 3e8d8 .cfa: sp 112 +
STACK CFI 3e8e8 r10: .cfa -8 + ^ r11: .cfa -4 + ^ r4: .cfa -32 + ^ r5: .cfa -28 + ^ r6: .cfa -24 + ^ r7: .cfa -20 + ^ r8: .cfa -16 + ^ r9: .cfa -12 + ^
STACK CFI INIT 3f054 a4 .cfa: sp 0 + .ra: lr
STACK CFI 3f058 .cfa: sp 12 +
STACK CFI 3f05c .cfa: sp 32 +
STACK CFI 3f060 .ra: .cfa -4 + ^ r4: .cfa -12 + ^ r5: .cfa -8 + ^
STACK CFI INIT 3f0f8 ac .cfa: sp 0 + .ra: lr
STACK CFI 3f0fc .cfa: sp 12 +
STACK CFI 3f100 .cfa: sp 56 +
STACK CFI 3f108 .ra: .cfa -4 + ^ r4: .cfa -12 + ^ r5: .cfa -8 + ^
STACK CFI INIT 3f1a4 784 .cfa: sp 0 + .ra: lr
STACK CFI 3f1a8 .cfa: sp 32 +
STACK CFI 3f1ac .cfa: sp 104 +
STACK CFI 3f1b8 r10: .cfa -8 + ^ r11: .cfa -4 + ^ r4: .cfa -32 + ^ r5: .cfa -28 + ^ r6: .cfa -24 + ^ r7: .cfa -20 + ^ r8: .cfa -16 + ^ r9: .cfa -12 + ^
STACK CFI INIT 3f928 94 .cfa: sp 0 + .ra: lr
STACK CFI 3f92c .cfa: sp 24 +
STACK CFI 3f934 .ra: .cfa -4 + ^ r4: .cfa -24 + ^ r5: .cfa -20 + ^ r6: .cfa -16 + ^ r7: .cfa -12 + ^ r8: .cfa -8 + ^
STACK CFI INIT 3f9bc 1b8 .cfa: sp 0 + .ra: lr
STACK CFI 3f9c0 .cfa: sp 40 +
STACK CFI 3f9c4 .ra: .cfa -4 + ^ r10: .cfa -12 + ^ r11: .cfa -8 + ^ r3: .cfa -40 + ^ r4: .cfa -36 + ^ r5: .cfa -32 + ^ r6: .cfa -28 + ^ r7: .cfa -24 + ^ r8: .cfa -20 + ^ r9: .cfa -16 + ^
STACK CFI 3f9c8 .cfa: r11 4 +
STACK CFI INIT 3fb74 220 .cfa: sp 0 + .ra: lr
STACK CFI 3fb78 .cfa: sp 36 +
STACK CFI 3fb7c .ra: .cfa -4 + ^ r10: .cfa -12 + ^ r11: .cfa -8 + ^ r4: .cfa -36 + ^ r5: .cfa -32 + ^ r6: .cfa -28 + ^ r7: .cfa -24 + ^ r8: .cfa -20 + ^ r9: .cfa -16 + ^
STACK CFI 3fb84 .cfa: r11 4 +
STACK CFI INIT 3fd94 4cbc .cfa: sp 0 + .ra: lr
STACK CFI 3fd98 .cfa: sp 36 +
STACK CFI 3fd9c .cfa: r11 4 + .ra: .cfa -4 + ^ r10: .cfa -12 + ^ r11: .cfa -8 + ^ r4: .cfa -36 + ^ r5: .cfa -32 + ^ r6: .cfa -28 + ^ r7: .cfa -24 + ^ r8: .cfa -20 + ^ r9: .cfa -16 + ^
STACK CFI INIT 44a50 260 .cfa: sp 0 + .ra: lr
STACK CFI 44a54 .cfa: sp 32 +
STACK CFI 44a58 .cfa: r11 4 + .ra: .cfa -4 + ^ r10: .cfa -12 + ^ r11: .cfa -8 + ^ r4: .cfa -32 + ^ r5: .cfa -28 + ^ r6: .cfa -24 + ^ r7: .cfa -20 + ^ r8: .cfa -16 + ^
STACK CFI INIT 44cb0 34 .cfa: sp 0 + .ra: lr
STACK CFI 44cc4 .cfa: sp 4 +
STACK CFI 44cc8 r4: .cfa -4 + ^
STACK CFI INIT 44ce4 18c .cfa: sp 0 + .ra: lr
STACK CFI 44cec .cfa: sp 16 +
STACK CFI 44cf4 .cfa: sp 24 +
STACK CFI 44cf8 .ra: .cfa -4 + ^ r4: .cfa -16 + ^ r5: .cfa -12 + ^ r6: .cfa -8 + ^
STACK CFI INIT 44e70 220 .cfa: sp 0 + .ra: lr
STACK CFI 44e74 .cfa: sp 36 +
STACK CFI 44e78 .ra: .cfa -4 + ^ r10: .cfa -12 + ^ r11: .cfa -8 + ^ r4: .cfa -36 + ^ r5: .cfa -32 + ^ r6: .cfa -28 + ^ r7: .cfa -24 + ^ r8: .cfa -20 + ^ r9: .cfa -16 + ^
STACK CFI 44e80 .cfa: r11 4 +
STACK CFI INIT 45090 68 .cfa: sp 0 + .ra: lr
STACK CFI 45094 .cfa: sp 8 +
STACK CFI 450ac .ra: .cfa -4 + ^ r4: .cfa -8 + ^
STACK CFI INIT 450f8 2918 .cfa: sp 0 + .ra: lr
STACK CFI 450fc .cfa: sp 36 +
STACK CFI 45100 .cfa: r11 4 + .ra: .cfa -4 + ^ r10: .cfa -12 + ^ r11: .cfa -8 + ^ r4: .cfa -36 + ^ r5: .cfa -32 + ^ r6: .cfa -28 + ^ r7: .cfa -24 + ^ r8: .cfa -20 + ^ r9: .cfa -16 + ^
STACK CFI INIT 47a10 170 .cfa: sp 0 + .ra: lr
STACK CFI 47a18 .cfa: sp 32 +
STACK CFI 47a1c .ra: .cfa -4 + ^ r10: .cfa -8 + ^ r3: .cfa -32 + ^ r4: .cfa -28 + ^ r5: .cfa -24 + ^ r6: .cfa -20 + ^ r7: .cfa -16 + ^ r8: .cfa -12 + ^
STACK CFI INIT 47b80 4 .cfa: sp 0 + .ra: lr
STACK CFI INIT 47b84 f0 .cfa: sp 0 + .ra: lr
STACK CFI 47b88 .cfa: sp 24 +
STACK CFI 47b8c .ra: .cfa -4 + ^ r4: .cfa -24 + ^ r5: .cfa -20 + ^ r6: .cfa -16 + ^ r7: .cfa -12 + ^ r8: .cfa -8 + ^
STACK CFI 47b90 .cfa: sp 80 +
STACK CFI INIT 47c74 148c .cfa: sp 0 + .ra: lr
STACK CFI 47c78 .cfa: sp 36 +
STACK CFI 47c80 .cfa: sp 312 +
STACK CFI 47c84 .ra: .cfa -4 + ^ r10: .cfa -12 + ^ r11: .cfa -8 + ^ r4: .cfa -36 + ^ r5: .cfa -32 + ^ r6: .cfa -28 + ^ r7: .cfa -24 + ^ r8: .cfa -20 + ^ r9: .cfa -16 + ^
STACK CFI INIT 116b94 64 .cfa: sp 0 + .ra: lr
STACK CFI 116b9c .cfa: sp 16 +
STACK CFI 116ba8 .ra: .cfa -4 + ^ r4: .cfa -16 + ^ r5: .cfa -12 + ^ r6: .cfa -8 + ^
STACK CFI INIT 49100 21c .cfa: sp 0 + .ra: lr
STACK CFI 49108 .cfa: sp 24 +
STACK CFI 49110 .ra: .cfa -4 + ^ r4: .cfa -24 + ^ r5: .cfa -20 + ^ r6: .cfa -16 + ^ r7: .cfa -12 + ^ r8: .cfa -8 + ^
STACK CFI INIT 4931c 108 .cfa: sp 0 + .ra: lr
STACK CFI 49324 .cfa: sp 32 +
STACK CFI 49328 r10: .cfa -8 + ^ r11: .cfa -4 + ^ r4: .cfa -32 + ^ r5: .cfa -28 + ^ r6: .cfa -24 + ^ r7: .cfa -20 + ^ r8: .cfa -16 + ^ r9: .cfa -12 + ^
STACK CFI 49338 .cfa: sp 40 +
STACK CFI INIT 49424 10c .cfa: sp 0 + .ra: lr
STACK CFI 4942c .cfa: sp 32 +
STACK CFI 49430 r10: .cfa -8 + ^ r11: .cfa -4 + ^ r4: .cfa -32 + ^ r5: .cfa -28 + ^ r6: .cfa -24 + ^ r7: .cfa -20 + ^ r8: .cfa -16 + ^ r9: .cfa -12 + ^
STACK CFI 49440 .cfa: sp 40 +
STACK CFI INIT 49530 168 .cfa: sp 0 + .ra: lr
STACK CFI 49534 .cfa: sp 24 +
STACK CFI 49538 .ra: .cfa -4 + ^ r4: .cfa -24 + ^ r5: .cfa -20 + ^ r6: .cfa -16 + ^ r7: .cfa -12 + ^ r8: .cfa -8 + ^
STACK CFI INIT 49698 864 .cfa: sp 0 + .ra: lr
STACK CFI 4969c .cfa: sp 36 +
STACK CFI 496a0 .ra: .cfa -4 + ^ r10: .cfa -12 + ^ r11: .cfa -8 + ^ r4: .cfa -36 + ^ r5: .cfa -32 + ^ r6: .cfa -28 + ^ r7: .cfa -24 + ^ r8: .cfa -20 + ^ r9: .cfa -16 + ^
STACK CFI 496b4 .cfa: sp 96 +
STACK CFI INIT 49efc 28 .cfa: sp 0 + .ra: lr
STACK CFI INIT 49f24 30 .cfa: sp 0 + .ra: lr
STACK CFI 49f28 .cfa: sp 12 +
STACK CFI 49f2c .cfa: sp 16 +
STACK CFI 49f30 .cfa: sp 24 +
STACK CFI 49f34 .ra: .cfa -16 + ^ r1: .cfa -12 + ^ r2: .cfa -8 + ^ r3: .cfa -4 + ^
STACK CFI INIT 49f54 48 .cfa: sp 0 + .ra: lr
STACK CFI 49f58 .cfa: sp 16 +
STACK CFI 49f5c r0: .cfa -16 + ^ r1: .cfa -12 + ^ r2: .cfa -8 + ^ r3: .cfa -4 + ^
STACK CFI 49f60 .cfa: sp 20 +
STACK CFI 49f68 .cfa: sp 32 +
STACK CFI 49f80 .ra: .cfa -20 + ^
STACK CFI INIT 49f9c 30 .cfa: sp 0 + .ra: lr
STACK CFI 49fa0 .cfa: sp 8 +
STACK CFI 49fa4 .cfa: sp 12 +
STACK CFI 49fa8 .cfa: sp 24 +
STACK CFI 49fb0 .ra: .cfa -12 + ^ r2: .cfa -8 + ^ r3: .cfa -4 + ^
STACK CFI INIT 49fcc 30 .cfa: sp 0 + .ra: lr
STACK CFI 49fd0 .cfa: sp 12 +
STACK CFI 49fd4 .cfa: sp 16 +
STACK CFI 49fd8 .cfa: sp 24 +
STACK CFI 49fdc .ra: .cfa -16 + ^ r1: .cfa -12 + ^ r2: .cfa -8 + ^ r3: .cfa -4 + ^
STACK CFI INIT 49ffc 30 .cfa: sp 0 + .ra: lr
STACK CFI 4a000 .cfa: sp 12 +
STACK CFI 4a004 .cfa: sp 16 +
STACK CFI 4a008 .cfa: sp 24 +
STACK CFI 4a00c .ra: .cfa -16 + ^ r1: .cfa -12 + ^ r2: .cfa -8 + ^ r3: .cfa -4 + ^
STACK CFI INIT 4a02c 30 .cfa: sp 0 + .ra: lr
STACK CFI 4a030 .cfa: sp 12 +
STACK CFI 4a034 .cfa: sp 16 +
STACK CFI 4a038 .cfa: sp 24 +
STACK CFI 4a03c .ra: .cfa -16 + ^ r1: .cfa -12 + ^ r2: .cfa -8 + ^ r3: .cfa -4 + ^
STACK CFI INIT 4a05c 6168 .cfa: sp 0 + .ra: lr
STACK CFI 4a060 .cfa: sp 36 +
STACK CFI 4a064 .ra: .cfa -4 + ^ r10: .cfa -12 + ^ r11: .cfa -8 + ^ r4: .cfa -36 + ^ r5: .cfa -32 + ^ r6: .cfa -28 + ^ r7: .cfa -24 + ^ r8: .cfa -20 + ^ r9: .cfa -16 + ^
STACK CFI 4a068 .cfa: r11 4 +
STACK CFI INIT 501c4 8 .cfa: sp 0 + .ra: lr
STACK CFI INIT 501cc 30 .cfa: sp 0 + .ra: lr
STACK CFI 501d0 .cfa: sp 12 +
STACK CFI 501d4 .cfa: sp 16 +
STACK CFI 501d8 .cfa: sp 24 +
STACK CFI 501dc .ra: .cfa -16 + ^ r1: .cfa -12 + ^ r2: .cfa -8 + ^ r3: .cfa -4 + ^
STACK CFI INIT 501fc 4c .cfa: sp 0 + .ra: lr
STACK CFI 50204 .cfa: sp 16 +
STACK CFI 50208 r0: .cfa -16 + ^ r1: .cfa -12 + ^ r2: .cfa -8 + ^ r3: .cfa -4 + ^
STACK CFI 5020c .cfa: sp 20 +
STACK CFI 50210 .cfa: sp 32 +
STACK CFI 5022c .ra: .cfa -20 + ^
STACK CFI INIT 50248 30 .cfa: sp 0 + .ra: lr
STACK CFI 5024c .cfa: sp 12 +
STACK CFI 50250 .cfa: sp 16 +
STACK CFI 50254 .cfa: sp 24 +
STACK CFI 50258 .ra: .cfa -16 + ^ r1: .cfa -12 + ^ r2: .cfa -8 + ^ r3: .cfa -4 + ^
STACK CFI INIT 50278 94 .cfa: sp 0 + .ra: lr
STACK CFI 5027c .cfa: sp 16 +
STACK CFI 50280 .ra: .cfa -4 + ^ r4: .cfa -16 + ^ r5: .cfa -12 + ^ r6: .cfa -8 + ^
STACK CFI 50284 .cfa: sp 1040 +
STACK CFI 5028c .cfa: sp 1048 +
STACK CFI INIT 5030c d0 .cfa: sp 0 + .ra: lr
STACK CFI 5031c .cfa: sp 20 +
STACK CFI 50320 .ra: .cfa -4 + ^ r4: .cfa -20 + ^ r5: .cfa -16 + ^ r6: .cfa -12 + ^ r7: .cfa -8 + ^
STACK CFI 50340 .cfa: sp 32 +
STACK CFI INIT 503dc 158 .cfa: sp 0 + .ra: lr
STACK CFI 503e0 .cfa: sp 20 +
STACK CFI 503e4 .ra: .cfa -4 + ^ r4: .cfa -20 + ^ r5: .cfa -16 + ^ r6: .cfa -12 + ^ r7: .cfa -8 + ^
STACK CFI 503e8 .cfa: sp 40 +
STACK CFI INIT 50534 98 .cfa: sp 0 + .ra: lr
STACK CFI 50538 .cfa: sp 16 +
STACK CFI 50540 .cfa: sp 4112 +
STACK CFI 50544 .cfa: sp 4120 +
STACK CFI 50548 .ra: .cfa -4 + ^ r4: .cfa -16 + ^ r5: .cfa -12 + ^ r6: .cfa -8 + ^
STACK CFI INIT 505cc 98 .cfa: sp 0 + .ra: lr
STACK CFI 505d0 .cfa: sp 16 +
STACK CFI 505d8 .cfa: sp 4112 +
STACK CFI 505dc .cfa: sp 4120 +
STACK CFI 505e0 .ra: .cfa -4 + ^ r4: .cfa -16 + ^ r5: .cfa -12 + ^ r6: .cfa -8 + ^
STACK CFI INIT 50664 90 .cfa: sp 0 + .ra: lr
STACK CFI 50668 .cfa: sp 20 +
STACK CFI 5066c .ra: .cfa -4 + ^ r4: .cfa -20 + ^ r5: .cfa -16 + ^ r6: .cfa -12 + ^ r7: .cfa -8 + ^
STACK CFI 50670 .cfa: sp 56 +
STACK CFI INIT 506f4 60 .cfa: sp 0 + .ra: lr
STACK CFI 506f8 .cfa: sp 12 +
STACK CFI 506fc .ra: .cfa -4 + ^ r4: .cfa -12 + ^ r5: .cfa -8 + ^
STACK CFI 50700 .cfa: sp 24 +
STACK CFI INIT 50754 6c .cfa: sp 0 + .ra: lr
STACK CFI 50758 .cfa: sp 8 +
STACK CFI 5075c .cfa: sp 4104 +
STACK CFI 50760 .cfa: sp 4112 +
STACK CFI 50778 .ra: .cfa -4 + ^ r4: .cfa -8 + ^
STACK CFI INIT 507c0 40 .cfa: sp 0 + .ra: lr
STACK CFI 507c4 .cfa: sp 4 +
STACK CFI 507c8 .cfa: sp 112 +
STACK CFI 507d4 .ra: .cfa -4 + ^
STACK CFI INIT 50800 1f4 .cfa: sp 0 + .ra: lr
STACK CFI 50804 .cfa: sp 28 +
STACK CFI 50808 .ra: .cfa -4 + ^ r10: .cfa -8 + ^ r4: .cfa -28 + ^ r5: .cfa -24 + ^ r6: .cfa -20 + ^ r7: .cfa -16 + ^ r8: .cfa -12 + ^
STACK CFI 5080c .cfa: sp 40 +
STACK CFI INIT 509f4 3b0 .cfa: sp 0 + .ra: lr
STACK CFI 509f8 .cfa: sp 36 +
STACK CFI 509fc .ra: .cfa -4 + ^ r10: .cfa -12 + ^ r11: .cfa -8 + ^ r4: .cfa -36 + ^ r5: .cfa -32 + ^ r6: .cfa -28 + ^ r7: .cfa -24 + ^ r8: .cfa -20 + ^ r9: .cfa -16 + ^
STACK CFI 50a04 .cfa: sp 192 +
STACK CFI INIT 50da4 c .cfa: sp 0 + .ra: lr
STACK CFI INIT 50db0 30 .cfa: sp 0 + .ra: lr
STACK CFI 50db4 .cfa: sp 4 +
STACK CFI 50dbc .cfa: sp 16 +
STACK CFI 50dc8 .ra: .cfa -4 + ^
STACK CFI INIT 50de0 38 .cfa: sp 0 + .ra: lr
STACK CFI 50de4 .cfa: sp 4 +
STACK CFI 50de8 .cfa: sp 16 +
STACK CFI 50e00 .ra: .cfa -4 + ^
STACK CFI INIT 50e18 4c .cfa: sp 0 + .ra: lr
STACK CFI 50e1c .cfa: sp 8 +
STACK CFI 50e20 .ra: .cfa -4 + ^ r4: .cfa -8 + ^
STACK CFI INIT 50e70 1c .cfa: sp 0 + .ra: lr
STACK CFI 50e74 r7: r12
STACK CFI 50e80 r7: r7
STACK CFI INIT 50e90 218 .cfa: sp 0 + .ra: lr
STACK CFI 50e94 .cfa: sp 16 +
STACK CFI 50e98 .cfa: sp 128 +
STACK CFI 50e9c .ra: .cfa -4 + ^ r4: .cfa -16 + ^ r5: .cfa -12 + ^ r6: .cfa -8 + ^
STACK CFI INIT 510a8 1b8 .cfa: sp 0 + .ra: lr
STACK CFI 510ac .cfa: sp 36 +
STACK CFI 510b0 .ra: .cfa -4 + ^ r10: .cfa -12 + ^ r11: .cfa -8 + ^ r4: .cfa -36 + ^ r5: .cfa -32 + ^ r6: .cfa -28 + ^ r7: .cfa -24 + ^ r8: .cfa -20 + ^ r9: .cfa -16 + ^
STACK CFI 510b4 .cfa: r11 4 +
STACK CFI INIT 51260 7c .cfa: sp 0 + .ra: lr
STACK CFI 51264 .cfa: sp 24 +
STACK CFI 51268 .ra: .cfa -4 + ^ r3: .cfa -24 + ^ r4: .cfa -20 + ^ r5: .cfa -16 + ^ r6: .cfa -12 + ^ r7: .cfa -8 + ^
STACK CFI INIT 512dc 7c .cfa: sp 0 + .ra: lr
STACK CFI 512e4 .cfa: sp 16 +
STACK CFI 512ec .ra: .cfa -4 + ^ r4: .cfa -16 + ^ r5: .cfa -12 + ^ r6: .cfa -8 + ^
STACK CFI INIT 51358 88 .cfa: sp 0 + .ra: lr
STACK CFI 5135c .cfa: sp 20 +
STACK CFI 51360 .ra: .cfa -4 + ^ r4: .cfa -20 + ^ r5: .cfa -16 + ^ r6: .cfa -12 + ^ r7: .cfa -8 + ^
STACK CFI INIT 513e0 22c .cfa: sp 0 + .ra: lr
STACK CFI 513e4 .cfa: sp 16 +
STACK CFI 513e8 r0: .cfa -16 + ^ r1: .cfa -12 + ^ r2: .cfa -8 + ^ r3: .cfa -4 + ^
STACK CFI 513f4 .cfa: sp 40 +
STACK CFI 513f8 .ra: .cfa -20 + ^ r4: .cfa -40 + ^ r5: .cfa -36 + ^ r6: .cfa -32 + ^ r7: .cfa -28 + ^ r8: .cfa -24 + ^
STACK CFI 513fc .cfa: sp 48 +
STACK CFI INIT 5160c 218 .cfa: sp 0 + .ra: lr
STACK CFI 5161c .cfa: sp 32 +
STACK CFI 51620 .ra: .cfa -4 + ^ r10: .cfa -8 + ^ r4: .cfa -32 + ^ r5: .cfa -28 + ^ r6: .cfa -24 + ^ r7: .cfa -20 + ^ r8: .cfa -16 + ^ r9: .cfa -12 + ^
STACK CFI INIT 51824 208 .cfa: sp 0 + .ra: lr
STACK CFI 51828 .cfa: sp 12 +
STACK CFI 5182c .cfa: sp 36 +
STACK CFI 51830 .ra: .cfa -16 + ^ r1: .cfa -12 + ^ r2: .cfa -8 + ^ r3: .cfa -4 + ^ r4: .cfa -36 + ^ r5: .cfa -32 + ^ r6: .cfa -28 + ^ r7: .cfa -24 + ^ r8: .cfa -20 + ^
STACK CFI 51834 .cfa: sp 48 +
STACK CFI INIT 51a2c 1f4 .cfa: sp 0 + .ra: lr
STACK CFI 51a30 .cfa: sp 32 +
STACK CFI 51a34 .ra: .cfa -4 + ^ r10: .cfa -8 + ^ r3: .cfa -32 + ^ r4: .cfa -28 + ^ r5: .cfa -24 + ^ r6: .cfa -20 + ^ r7: .cfa -16 + ^ r8: .cfa -12 + ^
STACK CFI INIT 51c20 30 .cfa: sp 0 + .ra: lr
STACK CFI 51c24 .cfa: sp 12 +
STACK CFI 51c28 .cfa: sp 16 +
STACK CFI 51c2c .cfa: sp 24 +
STACK CFI 51c30 .ra: .cfa -16 + ^ r1: .cfa -12 + ^ r2: .cfa -8 + ^ r3: .cfa -4 + ^
STACK CFI INIT 51c50 80 .cfa: sp 0 + .ra: lr
STACK CFI 51c54 .cfa: sp 20 +
STACK CFI 51c58 .ra: .cfa -4 + ^ r4: .cfa -20 + ^ r5: .cfa -16 + ^ r6: .cfa -12 + ^ r7: .cfa -8 + ^
STACK CFI 51c5c .cfa: sp 200 +
STACK CFI INIT 51cd0 4c8 .cfa: sp 0 + .ra: lr
STACK CFI 51cd8 .cfa: sp 20 +
STACK CFI 51cdc .cfa: sp 544 +
STACK CFI 51ce0 .ra: .cfa -4 + ^ r4: .cfa -20 + ^ r5: .cfa -16 + ^ r6: .cfa -12 + ^ r7: .cfa -8 + ^
STACK CFI INIT 52198 a8 .cfa: sp 0 + .ra: lr
STACK CFI 521a0 .cfa: sp 24 +
STACK CFI 521a8 .ra: .cfa -4 + ^ r4: .cfa -24 + ^ r5: .cfa -20 + ^ r6: .cfa -16 + ^ r7: .cfa -12 + ^ r8: .cfa -8 + ^
STACK CFI INIT 52240 138 .cfa: sp 0 + .ra: lr
STACK CFI 52244 .cfa: sp 32 +
STACK CFI 52248 .ra: .cfa -4 + ^ r11: .cfa -8 + ^ r3: .cfa -32 + ^ r4: .cfa -28 + ^ r5: .cfa -24 + ^ r6: .cfa -20 + ^ r7: .cfa -16 + ^ r8: .cfa -12 + ^
STACK CFI 52260 .cfa: r11 4 +
STACK CFI INIT 52378 238 .cfa: sp 0 + .ra: lr
STACK CFI 5237c .cfa: sp 36 +
STACK CFI 52380 .ra: .cfa -4 + ^ r10: .cfa -12 + ^ r11: .cfa -8 + ^ r4: .cfa -36 + ^ r5: .cfa -32 + ^ r6: .cfa -28 + ^ r7: .cfa -24 + ^ r8: .cfa -20 + ^ r9: .cfa -16 + ^
STACK CFI 52388 .cfa: r11 4 +
STACK CFI INIT 525b0 5844 .cfa: sp 0 + .ra: lr
STACK CFI 525b4 .cfa: sp 36 +
STACK CFI 525b8 .cfa: r11 4 + .ra: .cfa -4 + ^ r10: .cfa -12 + ^ r11: .cfa -8 + ^ r4: .cfa -36 + ^ r5: .cfa -32 + ^ r6: .cfa -28 + ^ r7: .cfa -24 + ^ r8: .cfa -20 + ^ r9: .cfa -16 + ^
STACK CFI INIT 57df4 278 .cfa: sp 0 + .ra: lr
STACK CFI 57df8 .cfa: sp 32 +
STACK CFI 57dfc .cfa: r11 4 + .ra: .cfa -4 + ^ r10: .cfa -12 + ^ r11: .cfa -8 + ^ r4: .cfa -32 + ^ r5: .cfa -28 + ^ r6: .cfa -24 + ^ r7: .cfa -20 + ^ r8: .cfa -16 + ^
STACK CFI INIT 5806c 535c .cfa: sp 0 + .ra: lr
STACK CFI 58070 .cfa: sp 36 +
STACK CFI 58074 .cfa: r11 4 + .ra: .cfa -4 + ^ r10: .cfa -12 + ^ r11: .cfa -8 + ^ r4: .cfa -36 + ^ r5: .cfa -32 + ^ r6: .cfa -28 + ^ r7: .cfa -24 + ^ r8: .cfa -20 + ^ r9: .cfa -16 + ^
STACK CFI INIT 5d3c8 8 .cfa: sp 0 + .ra: lr
STACK CFI INIT 5d3d0 8e0 .cfa: sp 0 + .ra: lr
STACK CFI 5d3d4 .cfa: sp 24 +
STACK CFI 5d3dc .ra: .cfa -4 + ^ r4: .cfa -24 + ^ r5: .cfa -20 + ^ r6: .cfa -16 + ^ r7: .cfa -12 + ^ r8: .cfa -8 + ^
STACK CFI 5d3e8 .cfa: sp 32 +
STACK CFI INIT 5dcb0 138 .cfa: sp 0 + .ra: lr
STACK CFI 5dcb4 .cfa: sp 12 +
STACK CFI 5dcb8 r1: .cfa -12 + ^ r2: .cfa -8 + ^ r3: .cfa -4 + ^
STACK CFI 5dcbc .cfa: sp 32 +
STACK CFI 5dcc0 .cfa: r11 16 + .ra: .cfa -16 + ^ r11: .cfa -20 + ^ r4: .cfa -32 + ^ r5: .cfa -28 + ^ r6: .cfa -24 + ^
STACK CFI INIT 5dde8 8c4 .cfa: sp 0 + .ra: lr
STACK CFI 5ddec .cfa: sp 24 +
STACK CFI 5ddf0 .ra: .cfa -4 + ^ r4: .cfa -24 + ^ r5: .cfa -20 + ^ r6: .cfa -16 + ^ r7: .cfa -12 + ^ r8: .cfa -8 + ^
STACK CFI 5de24 .cfa: sp 32 +
STACK CFI INIT 5e6ac 104 .cfa: sp 0 + .ra: lr
STACK CFI 5e6b4 .cfa: sp 12 +
STACK CFI 5e6bc .cfa: sp 128 +
STACK CFI 5e6c0 .ra: .cfa -4 + ^ r4: .cfa -12 + ^ r5: .cfa -8 + ^
STACK CFI INIT 5e7b0 350 .cfa: sp 0 + .ra: lr
STACK CFI 5e7b4 .cfa: sp 24 +
STACK CFI 5e7b8 .ra: .cfa -4 + ^ r4: .cfa -24 + ^ r5: .cfa -20 + ^ r6: .cfa -16 + ^ r7: .cfa -12 + ^ r8: .cfa -8 + ^
STACK CFI INIT 5eb00 2e4 .cfa: sp 0 + .ra: lr
STACK CFI 5eb04 .cfa: sp 24 +
STACK CFI 5eb0c .cfa: sp 32 +
STACK CFI 5eb14 .ra: .cfa -4 + ^ r4: .cfa -24 + ^ r5: .cfa -20 + ^ r6: .cfa -16 + ^ r7: .cfa -12 + ^ r8: .cfa -8 + ^
STACK CFI INIT 5ede4 1d8 .cfa: sp 0 + .ra: lr
STACK CFI 5ede8 .cfa: sp 24 +
STACK CFI 5edec .ra: .cfa -4 + ^ r4: .cfa -24 + ^ r5: .cfa -20 + ^ r6: .cfa -16 + ^ r7: .cfa -12 + ^ r8: .cfa -8 + ^
STACK CFI INIT 5efbc 2e0 .cfa: sp 0 + .ra: lr
STACK CFI 5efc0 .cfa: sp 24 +
STACK CFI 5efc4 .ra: .cfa -4 + ^ r4: .cfa -24 + ^ r5: .cfa -20 + ^ r6: .cfa -16 + ^ r7: .cfa -12 + ^ r8: .cfa -8 + ^
STACK CFI 5efc8 .cfa: sp 32 +
STACK CFI INIT 5f29c 260 .cfa: sp 0 + .ra: lr
STACK CFI 5f2a0 .cfa: sp 28 +
STACK CFI 5f2a4 .ra: .cfa -4 + ^ r10: .cfa -8 + ^ r4: .cfa -28 + ^ r5: .cfa -24 + ^ r6: .cfa -20 + ^ r7: .cfa -16 + ^ r8: .cfa -12 + ^
STACK CFI 5f2a8 .cfa: sp 40 +
STACK CFI INIT 5f4fc 60 .cfa: sp 0 + .ra: lr
STACK CFI INIT 5f55c b4 .cfa: sp 0 + .ra: lr
STACK CFI 5f560 .cfa: sp 20 +
STACK CFI 5f564 .ra: .cfa -4 + ^ r4: .cfa -20 + ^ r5: .cfa -16 + ^ r6: .cfa -12 + ^ r7: .cfa -8 + ^
STACK CFI 5f568 .cfa: sp 32 +
STACK CFI INIT 5f610 8 .cfa: sp 0 + .ra: lr
STACK CFI INIT 5f618 24 .cfa: sp 0 + .ra: lr
STACK CFI 5f61c .cfa: sp 8 +
STACK CFI 5f620 .ra: .cfa -4 + ^ r3: .cfa -8 + ^
STACK CFI INIT 5f63c 48 .cfa: sp 0 + .ra: lr
STACK CFI 5f640 .cfa: sp 16 +
STACK CFI 5f644 .ra: .cfa -4 + ^ r3: .cfa -16 + ^ r4: .cfa -12 + ^ r5: .cfa -8 + ^
STACK CFI INIT 5f684 50 .cfa: sp 0 + .ra: lr
STACK CFI 5f68c .cfa: sp 4 +
STACK CFI 5f694 .cfa: sp 16 +
STACK CFI 5f69c .ra: .cfa -4 + ^
STACK CFI INIT 5f6d4 24 .cfa: sp 0 + .ra: lr
STACK CFI 5f6d8 .cfa: sp 8 +
STACK CFI 5f6dc .ra: .cfa -4 + ^ r3: .cfa -8 + ^
STACK CFI INIT 5f6f8 18 .cfa: sp 0 + .ra: lr
STACK CFI 5f6fc .cfa: sp 8 +
STACK CFI 5f700 r4: .cfa -8 + ^ r5: .cfa -4 + ^
STACK CFI INIT 5f710 80 .cfa: sp 0 + .ra: lr
STACK CFI 5f714 .cfa: sp 8 +
STACK CFI 5f718 .cfa: sp 32 +
STACK CFI 5f71c .ra: .cfa -12 + ^ r3: .cfa -32 + ^ r4: .cfa -28 + ^ r5: .cfa -24 + ^ r6: .cfa -20 + ^ r7: .cfa -16 + ^
STACK CFI INIT 5f790 d4 .cfa: sp 0 + .ra: lr
STACK CFI 5f794 .cfa: sp 8 +
STACK CFI 5f798 .cfa: sp 24 +
STACK CFI 5f7a0 .cfa: sp 40 +
STACK CFI 5f7a4 .ra: .cfa -12 + ^ r4: .cfa -24 + ^ r5: .cfa -20 + ^ r6: .cfa -16 + ^
STACK CFI INIT 5f864 204 .cfa: sp 0 + .ra: lr
STACK CFI 5f868 .cfa: sp 32 +
STACK CFI 5f86c .ra: .cfa -4 + ^ r10: .cfa -8 + ^ r3: .cfa -32 + ^ r4: .cfa -28 + ^ r5: .cfa -24 + ^ r6: .cfa -20 + ^ r7: .cfa -16 + ^ r8: .cfa -12 + ^
STACK CFI INIT 5fa68 1fc .cfa: sp 0 + .ra: lr
STACK CFI 5fa6c .cfa: sp 40 +
STACK CFI 5fa70 .ra: .cfa -4 + ^ r10: .cfa -12 + ^ r11: .cfa -8 + ^ r3: .cfa -40 + ^ r4: .cfa -36 + ^ r5: .cfa -32 + ^ r6: .cfa -28 + ^ r7: .cfa -24 + ^ r8: .cfa -20 + ^ r9: .cfa -16 + ^
STACK CFI INIT 5fc64 264 .cfa: sp 0 + .ra: lr
STACK CFI 5fc68 .cfa: sp 24 +
STACK CFI 5fc6c .ra: .cfa -4 + ^ r4: .cfa -24 + ^ r5: .cfa -20 + ^ r6: .cfa -16 + ^ r7: .cfa -12 + ^ r8: .cfa -8 + ^
STACK CFI 5fc70 .cfa: sp 32 +
STACK CFI INIT 5fec8 29c .cfa: sp 0 + .ra: lr
STACK CFI 5fecc .cfa: sp 28 +
STACK CFI 5fed0 .ra: .cfa -4 + ^ r4: .cfa -28 + ^ r5: .cfa -24 + ^ r6: .cfa -20 + ^ r7: .cfa -16 + ^ r8: .cfa -12 + ^ r9: .cfa -8 + ^
STACK CFI 5fed4 .cfa: sp 40 +
STACK CFI INIT 60164 244 .cfa: sp 0 + .ra: lr
STACK CFI 60168 .cfa: sp 40 +
STACK CFI 6016c .ra: .cfa -4 + ^ r10: .cfa -12 + ^ r11: .cfa -8 + ^ r3: .cfa -40 + ^ r4: .cfa -36 + ^ r5: .cfa -32 + ^ r6: .cfa -28 + ^ r7: .cfa -24 + ^ r8: .cfa -20 + ^ r9: .cfa -16 + ^
STACK CFI INIT 603a8 378 .cfa: sp 0 + .ra: lr
STACK CFI 603ac .cfa: sp 36 +
STACK CFI 603b8 .cfa: sp 48 +
STACK CFI 603c0 .ra: .cfa -4 + ^ r10: .cfa -12 + ^ r11: .cfa -8 + ^ r4: .cfa -36 + ^ r5: .cfa -32 + ^ r6: .cfa -28 + ^ r7: .cfa -24 + ^ r8: .cfa -20 + ^ r9: .cfa -16 + ^
STACK CFI INIT 60720 24 .cfa: sp 0 + .ra: lr
STACK CFI 60724 .cfa: sp 4 +
STACK CFI 60728 .cfa: sp 16 +
STACK CFI 6072c .ra: .cfa -4 + ^
STACK CFI INIT 60744 14c .cfa: sp 0 + .ra: lr
STACK CFI 60748 .cfa: sp 40 +
STACK CFI 6074c .ra: .cfa -4 + ^ r10: .cfa -12 + ^ r11: .cfa -8 + ^ r3: .cfa -40 + ^ r4: .cfa -36 + ^ r5: .cfa -32 + ^ r6: .cfa -28 + ^ r7: .cfa -24 + ^ r8: .cfa -20 + ^ r9: .cfa -16 + ^
STACK CFI INIT 60890 288 .cfa: sp 0 + .ra: lr
STACK CFI 60894 .cfa: sp 24 +
STACK CFI 60898 .ra: .cfa -4 + ^ r4: .cfa -24 + ^ r5: .cfa -20 + ^ r6: .cfa -16 + ^ r7: .cfa -12 + ^ r8: .cfa -8 + ^
STACK CFI 608a8 .cfa: sp 32 +
STACK CFI INIT 60b18 198 .cfa: sp 0 + .ra: lr
STACK CFI 60b20 .cfa: sp 24 +
STACK CFI 60b24 .ra: .cfa -4 + ^ r4: .cfa -24 + ^ r5: .cfa -20 + ^ r6: .cfa -16 + ^ r7: .cfa -12 + ^ r8: .cfa -8 + ^
STACK CFI 60b28 .cfa: sp 40 +
STACK CFI INIT 60cb0 94 .cfa: sp 0 + .ra: lr
STACK CFI 60cb8 .cfa: sp 20 +
STACK CFI 60cd0 .ra: .cfa -4 + ^ r4: .cfa -20 + ^ r5: .cfa -16 + ^ r6: .cfa -12 + ^ r7: .cfa -8 + ^
STACK CFI INIT 60d44 294 .cfa: sp 0 + .ra: lr
STACK CFI 60d48 .cfa: sp 32 +
STACK CFI 60d4c .ra: .cfa -4 + ^ r10: .cfa -8 + ^ r4: .cfa -32 + ^ r5: .cfa -28 + ^ r6: .cfa -24 + ^ r7: .cfa -20 + ^ r8: .cfa -16 + ^ r9: .cfa -12 + ^
STACK CFI 60d50 .cfa: sp 56 +
STACK CFI INIT 60fd8 6e0 .cfa: sp 0 + .ra: lr
STACK CFI 60fe0 .cfa: sp 24 +
STACK CFI 60fe8 .cfa: sp 104 +
STACK CFI 61014 .ra: .cfa -4 + ^ r4: .cfa -24 + ^ r5: .cfa -20 + ^ r6: .cfa -16 + ^ r7: .cfa -12 + ^ r8: .cfa -8 + ^
STACK CFI INIT 616b8 7c .cfa: sp 0 + .ra: lr
STACK CFI 616bc .cfa: sp 16 +
STACK CFI 616c0 .ra: .cfa -4 + ^ r4: .cfa -16 + ^ r5: .cfa -12 + ^ r6: .cfa -8 + ^
STACK CFI INIT 61734 264 .cfa: sp 0 + .ra: lr
STACK CFI 61738 .cfa: sp 32 +
STACK CFI 6173c .ra: .cfa -4 + ^ r10: .cfa -8 + ^ r3: .cfa -32 + ^ r4: .cfa -28 + ^ r5: .cfa -24 + ^ r6: .cfa -20 + ^ r7: .cfa -16 + ^ r8: .cfa -12 + ^
STACK CFI INIT 61998 108 .cfa: sp 0 + .ra: lr
STACK CFI 6199c .cfa: sp 24 +
STACK CFI 619a0 .cfa: sp 32 +
STACK CFI 619a4 .ra: .cfa -4 + ^ r4: .cfa -24 + ^ r5: .cfa -20 + ^ r6: .cfa -16 + ^ r7: .cfa -12 + ^ r8: .cfa -8 + ^
STACK CFI INIT 61aa0 1ec .cfa: sp 0 + .ra: lr
STACK CFI 61aa4 .cfa: sp 28 +
STACK CFI 61aa8 .ra: .cfa -4 + ^ r4: .cfa -28 + ^ r5: .cfa -24 + ^ r6: .cfa -20 + ^ r7: .cfa -16 + ^ r8: .cfa -12 + ^ r9: .cfa -8 + ^
STACK CFI 61aac .cfa: sp 40 +
STACK CFI INIT 61c8c 78 .cfa: sp 0 + .ra: lr
STACK CFI 61c94 .cfa: sp 16 +
STACK CFI 61c9c .cfa: sp 24 +
STACK CFI 61ca0 .ra: .cfa -4 + ^ r4: .cfa -16 + ^ r5: .cfa -12 + ^ r6: .cfa -8 + ^
STACK CFI INIT 61d04 1e4 .cfa: sp 0 + .ra: lr
STACK CFI 61d08 .cfa: sp 28 +
STACK CFI 61d0c .ra: .cfa -4 + ^ r4: .cfa -28 + ^ r5: .cfa -24 + ^ r6: .cfa -20 + ^ r7: .cfa -16 + ^ r8: .cfa -12 + ^ r9: .cfa -8 + ^
STACK CFI 61d10 .cfa: sp 40 +
STACK CFI INIT 61ee8 210 .cfa: sp 0 + .ra: lr
STACK CFI 61eec .cfa: sp 32 +
STACK CFI 61ef0 .ra: .cfa -4 + ^ r10: .cfa -8 + ^ r3: .cfa -32 + ^ r4: .cfa -28 + ^ r5: .cfa -24 + ^ r6: .cfa -20 + ^ r7: .cfa -16 + ^ r8: .cfa -12 + ^
STACK CFI INIT 620f8 28c .cfa: sp 0 + .ra: lr
STACK CFI 620fc .cfa: sp 40 +
STACK CFI 62100 .ra: .cfa -4 + ^ r10: .cfa -12 + ^ r11: .cfa -8 + ^ r3: .cfa -40 + ^ r4: .cfa -36 + ^ r5: .cfa -32 + ^ r6: .cfa -28 + ^ r7: .cfa -24 + ^ r8: .cfa -20 + ^ r9: .cfa -16 + ^
STACK CFI INIT 62384 1d8 .cfa: sp 0 + .ra: lr
STACK CFI 6238c .cfa: sp 32 +
STACK CFI 62390 .ra: .cfa -4 + ^ r10: .cfa -8 + ^ r3: .cfa -32 + ^ r4: .cfa -28 + ^ r5: .cfa -24 + ^ r6: .cfa -20 + ^ r7: .cfa -16 + ^ r8: .cfa -12 + ^
STACK CFI INIT 6255c 9c .cfa: sp 0 + .ra: lr
STACK CFI 62560 .cfa: sp 20 +
STACK CFI 62564 .ra: .cfa -4 + ^ r4: .cfa -20 + ^ r5: .cfa -16 + ^ r6: .cfa -12 + ^ r7: .cfa -8 + ^
STACK CFI 62568 .cfa: sp 200 +
STACK CFI INIT 625f8 74 .cfa: sp 0 + .ra: lr
STACK CFI 625fc .cfa: sp 20 +
STACK CFI 62600 .ra: .cfa -4 + ^ r4: .cfa -20 + ^ r5: .cfa -16 + ^ r6: .cfa -12 + ^ r7: .cfa -8 + ^
STACK CFI 62604 .cfa: sp 200 +
STACK CFI INIT 6266c 2b4 .cfa: sp 0 + .ra: lr
STACK CFI 62670 .cfa: sp 24 +
STACK CFI 62674 .ra: .cfa -4 + ^ r4: .cfa -24 + ^ r5: .cfa -20 + ^ r6: .cfa -16 + ^ r7: .cfa -12 + ^ r8: .cfa -8 + ^
STACK CFI 62678 .cfa: sp 32 +
STACK CFI INIT 62920 8 .cfa: sp 0 + .ra: lr
STACK CFI INIT 62928 260 .cfa: sp 0 + .ra: lr
STACK CFI 6292c .cfa: sp 24 +
STACK CFI 62930 .ra: .cfa -4 + ^ r4: .cfa -24 + ^ r5: .cfa -20 + ^ r6: .cfa -16 + ^ r7: .cfa -12 + ^ r8: .cfa -8 + ^
STACK CFI 62934 .cfa: sp 32 +
STACK CFI INIT 62b88 1fc .cfa: sp 0 + .ra: lr
STACK CFI 62b8c .cfa: sp 24 +
STACK CFI 62b90 .ra: .cfa -4 + ^ r4: .cfa -24 + ^ r5: .cfa -20 + ^ r6: .cfa -16 + ^ r7: .cfa -12 + ^ r8: .cfa -8 + ^
STACK CFI INIT 62d84 38 .cfa: sp 0 + .ra: lr
STACK CFI INIT 62dbc 2c .cfa: sp 0 + .ra: lr
STACK CFI INIT 62de8 8 .cfa: sp 0 + .ra: lr
STACK CFI INIT 62df0 c .cfa: sp 0 + .ra: lr
STACK CFI INIT 62dfc 9c .cfa: sp 0 + .ra: lr
STACK CFI 62e00 .cfa: sp 24 +
STACK CFI 62e04 .cfa: sp 48 +
STACK CFI 62e08 .ra: .cfa -4 + ^ r4: .cfa -24 + ^ r5: .cfa -20 + ^ r6: .cfa -16 + ^ r7: .cfa -12 + ^ r8: .cfa -8 + ^
STACK CFI INIT 62e98 7c .cfa: sp 0 + .ra: lr
STACK CFI 62e9c .cfa: sp 16 +
STACK CFI 62ea0 .ra: .cfa -4 + ^ r4: .cfa -16 + ^ r5: .cfa -12 + ^ r6: .cfa -8 + ^
STACK CFI 62eb4 .cfa: sp 40 +
STACK CFI INIT 62f14 a0 .cfa: sp 0 + .ra: lr
STACK CFI 62f18 .cfa: sp 24 +
STACK CFI 62f1c .cfa: sp 48 +
STACK CFI 62f20 .ra: .cfa -4 + ^ r4: .cfa -24 + ^ r5: .cfa -20 + ^ r6: .cfa -16 + ^ r7: .cfa -12 + ^ r8: .cfa -8 + ^
STACK CFI INIT 62fb4 90 .cfa: sp 0 + .ra: lr
STACK CFI 62fb8 .cfa: sp 32 +
STACK CFI 62fbc .cfa: r11 4 + .ra: .cfa -4 + ^ r10: .cfa -12 + ^ r11: .cfa -8 + ^ r4: .cfa -32 + ^ r5: .cfa -28 + ^ r6: .cfa -24 + ^ r7: .cfa -20 + ^ r8: .cfa -16 + ^
STACK CFI INIT 63044 1f4 .cfa: sp 0 + .ra: lr
STACK CFI 6304c .cfa: sp 24 +
STACK CFI 63050 .ra: .cfa -4 + ^ r4: .cfa -24 + ^ r5: .cfa -20 + ^ r6: .cfa -16 + ^ r7: .cfa -12 + ^ r8: .cfa -8 + ^
STACK CFI 63054 .cfa: sp 48 +
STACK CFI INIT 63238 11c .cfa: sp 0 + .ra: lr
STACK CFI 6323c .cfa: sp 24 +
STACK CFI 63240 .ra: .cfa -4 + ^ r3: .cfa -24 + ^ r4: .cfa -20 + ^ r5: .cfa -16 + ^ r6: .cfa -12 + ^ r7: .cfa -8 + ^
STACK CFI INIT 63354 13c .cfa: sp 0 + .ra: lr
STACK CFI 63358 .cfa: sp 32 +
STACK CFI 6335c .ra: .cfa -4 + ^ r10: .cfa -8 + ^ r3: .cfa -32 + ^ r4: .cfa -28 + ^ r5: .cfa -24 + ^ r6: .cfa -20 + ^ r7: .cfa -16 + ^ r8: .cfa -12 + ^
STACK CFI INIT 63490 13c .cfa: sp 0 + .ra: lr
STACK CFI 63494 .cfa: sp 32 +
STACK CFI 63498 .ra: .cfa -4 + ^ r10: .cfa -8 + ^ r3: .cfa -32 + ^ r4: .cfa -28 + ^ r5: .cfa -24 + ^ r6: .cfa -20 + ^ r7: .cfa -16 + ^ r8: .cfa -12 + ^
STACK CFI INIT 635cc 44 .cfa: sp 0 + .ra: lr
STACK CFI 635d4 .cfa: sp 4 +
STACK CFI 635dc .ra: .cfa -4 + ^
STACK CFI INIT 63610 1e8 .cfa: sp 0 + .ra: lr
STACK CFI 63614 .cfa: sp 24 +
STACK CFI 63618 .ra: .cfa -4 + ^ r4: .cfa -24 + ^ r5: .cfa -20 + ^ r6: .cfa -16 + ^ r7: .cfa -12 + ^ r8: .cfa -8 + ^
STACK CFI INIT 637f8 2cc .cfa: sp 0 + .ra: lr
STACK CFI 637fc .cfa: sp 28 +
STACK CFI 63800 .ra: .cfa -4 + ^ r10: .cfa -8 + ^ r4: .cfa -28 + ^ r5: .cfa -24 + ^ r6: .cfa -20 + ^ r7: .cfa -16 + ^ r8: .cfa -12 + ^
STACK CFI 63804 .cfa: sp 136 +
STACK CFI INIT 63ac4 1f4 .cfa: sp 0 + .ra: lr
STACK CFI 63ac8 .cfa: sp 28 +
STACK CFI 63acc .ra: .cfa -4 + ^ r10: .cfa -8 + ^ r4: .cfa -28 + ^ r5: .cfa -24 + ^ r6: .cfa -20 + ^ r7: .cfa -16 + ^ r8: .cfa -12 + ^
STACK CFI 63ad0 .cfa: sp 40 +
STACK CFI INIT 63cb8 1d8 .cfa: sp 0 + .ra: lr
STACK CFI 63cbc .cfa: sp 24 +
STACK CFI 63cc0 .ra: .cfa -4 + ^ r4: .cfa -24 + ^ r5: .cfa -20 + ^ r6: .cfa -16 + ^ r7: .cfa -12 + ^ r8: .cfa -8 + ^
STACK CFI INIT 63e90 1e8 .cfa: sp 0 + .ra: lr
STACK CFI 63e94 .cfa: sp 24 +
STACK CFI 63e98 .ra: .cfa -4 + ^ r4: .cfa -24 + ^ r5: .cfa -20 + ^ r6: .cfa -16 + ^ r7: .cfa -12 + ^ r8: .cfa -8 + ^
STACK CFI INIT 64078 60 .cfa: sp 0 + .ra: lr
STACK CFI 64084 .cfa: sp 8 +
STACK CFI 64090 .ra: .cfa -4 + ^ r4: .cfa -8 + ^
STACK CFI INIT 640d8 70 .cfa: sp 0 + .ra: lr
STACK CFI 640dc .cfa: sp 16 +
STACK CFI 640e0 .ra: .cfa -4 + ^ r4: .cfa -16 + ^ r5: .cfa -12 + ^ r6: .cfa -8 + ^
STACK CFI INIT 64148 bc .cfa: sp 0 + .ra: lr
STACK CFI 6414c .cfa: sp 24 +
STACK CFI 64150 .ra: .cfa -4 + ^ r4: .cfa -24 + ^ r5: .cfa -20 + ^ r6: .cfa -16 + ^ r7: .cfa -12 + ^ r8: .cfa -8 + ^
STACK CFI INIT 64204 4 .cfa: sp 0 + .ra: lr
STACK CFI INIT 64208 1e8 .cfa: sp 0 + .ra: lr
STACK CFI 6420c .cfa: sp 24 +
STACK CFI 64210 .ra: .cfa -4 + ^ r4: .cfa -24 + ^ r5: .cfa -20 + ^ r6: .cfa -16 + ^ r7: .cfa -12 + ^ r8: .cfa -8 + ^
STACK CFI INIT 643f0 1dc .cfa: sp 0 + .ra: lr
STACK CFI 643f4 .cfa: sp 24 +
STACK CFI 643f8 .ra: .cfa -4 + ^ r4: .cfa -24 + ^ r5: .cfa -20 + ^ r6: .cfa -16 + ^ r7: .cfa -12 + ^ r8: .cfa -8 + ^
STACK CFI 643fc .cfa: sp 32 +
STACK CFI INIT 645cc 8 .cfa: sp 0 + .ra: lr
STACK CFI INIT 645d4 10 .cfa: sp 0 + .ra: lr
STACK CFI INIT 645e4 150 .cfa: sp 0 + .ra: lr
STACK CFI 645e8 .cfa: sp 24 +
STACK CFI 645ec .ra: .cfa -4 + ^ r4: .cfa -24 + ^ r5: .cfa -20 + ^ r6: .cfa -16 + ^ r7: .cfa -12 + ^ r8: .cfa -8 + ^
STACK CFI 645f0 .cfa: sp 200 +
STACK CFI INIT 64734 c4 .cfa: sp 0 + .ra: lr
STACK CFI 64738 .cfa: sp 20 +
STACK CFI 6473c .ra: .cfa -4 + ^ r4: .cfa -20 + ^ r5: .cfa -16 + ^ r6: .cfa -12 + ^ r7: .cfa -8 + ^
STACK CFI 64740 .cfa: sp 384 +
STACK CFI INIT 647f8 20 .cfa: sp 0 + .ra: lr
STACK CFI INIT 64818 54 .cfa: sp 0 + .ra: lr
STACK CFI 6481c .cfa: sp 24 +
STACK CFI 64820 .ra: .cfa -4 + ^ r3: .cfa -24 + ^ r4: .cfa -20 + ^ r5: .cfa -16 + ^ r6: .cfa -12 + ^ r7: .cfa -8 + ^
STACK CFI INIT 6486c a4 .cfa: sp 0 + .ra: lr
STACK CFI 64870 .cfa: sp 28 +
STACK CFI 64878 .cfa: sp 272 +
STACK CFI 6487c .ra: .cfa -4 + ^ r10: .cfa -8 + ^ r4: .cfa -28 + ^ r5: .cfa -24 + ^ r6: .cfa -20 + ^ r7: .cfa -16 + ^ r8: .cfa -12 + ^
STACK CFI INIT 64910 a0 .cfa: sp 0 + .ra: lr
STACK CFI 64914 .cfa: sp 24 +
STACK CFI 64918 .ra: .cfa -4 + ^ r3: .cfa -24 + ^ r4: .cfa -20 + ^ r5: .cfa -16 + ^ r6: .cfa -12 + ^ r7: .cfa -8 + ^
STACK CFI INIT 649b0 90 .cfa: sp 0 + .ra: lr
STACK CFI 649b8 .cfa: sp 16 +
STACK CFI 649bc .ra: .cfa -4 + ^ r4: .cfa -16 + ^ r5: .cfa -12 + ^ r6: .cfa -8 + ^
STACK CFI INIT 64a40 188 .cfa: sp 0 + .ra: lr
STACK CFI 64a44 .cfa: sp 24 +
STACK CFI 64a4c .cfa: sp 200 +
STACK CFI 64a50 .ra: .cfa -4 + ^ r4: .cfa -24 + ^ r5: .cfa -20 + ^ r6: .cfa -16 + ^ r7: .cfa -12 + ^ r8: .cfa -8 + ^
STACK CFI INIT 64bc8 30 .cfa: sp 0 + .ra: lr
STACK CFI 64bcc .cfa: sp 12 +
STACK CFI 64bd0 .cfa: sp 16 +
STACK CFI 64bd4 .cfa: sp 24 +
STACK CFI 64bd8 .ra: .cfa -16 + ^ r1: .cfa -12 + ^ r2: .cfa -8 + ^ r3: .cfa -4 + ^
STACK CFI INIT 64bf8 4 .cfa: sp 0 + .ra: lr
STACK CFI INIT 64bfc 1f4 .cfa: sp 0 + .ra: lr
STACK CFI 64c00 .cfa: sp 28 +
STACK CFI 64c04 .ra: .cfa -4 + ^ r10: .cfa -8 + ^ r4: .cfa -28 + ^ r5: .cfa -24 + ^ r6: .cfa -20 + ^ r7: .cfa -16 + ^ r8: .cfa -12 + ^
STACK CFI 64c08 .cfa: sp 40 +
STACK CFI INIT 64df0 29c .cfa: sp 0 + .ra: lr
STACK CFI 64df4 .cfa: sp 28 +
STACK CFI 64df8 .ra: .cfa -4 + ^ r4: .cfa -28 + ^ r5: .cfa -24 + ^ r6: .cfa -20 + ^ r7: .cfa -16 + ^ r8: .cfa -12 + ^ r9: .cfa -8 + ^
STACK CFI 64dfc .cfa: sp 40 +
STACK CFI INIT 6508c 2cc .cfa: sp 0 + .ra: lr
STACK CFI 65090 .cfa: sp 28 +
STACK CFI 65094 .ra: .cfa -4 + ^ r10: .cfa -8 + ^ r4: .cfa -28 + ^ r5: .cfa -24 + ^ r6: .cfa -20 + ^ r7: .cfa -16 + ^ r8: .cfa -12 + ^
STACK CFI 65098 .cfa: sp 136 +
STACK CFI INIT 65358 1f8 .cfa: sp 0 + .ra: lr
STACK CFI 6535c .cfa: sp 28 +
STACK CFI 65360 .ra: .cfa -4 + ^ r4: .cfa -28 + ^ r5: .cfa -24 + ^ r6: .cfa -20 + ^ r7: .cfa -16 + ^ r8: .cfa -12 + ^ r9: .cfa -8 + ^
STACK CFI 65364 .cfa: sp 40 +
STACK CFI INIT 65550 260 .cfa: sp 0 + .ra: lr
STACK CFI 65554 .cfa: sp 28 +
STACK CFI 65558 .ra: .cfa -4 + ^ r4: .cfa -28 + ^ r5: .cfa -24 + ^ r6: .cfa -20 + ^ r7: .cfa -16 + ^ r8: .cfa -12 + ^ r9: .cfa -8 + ^
STACK CFI 6555c .cfa: sp 40 +
STACK CFI INIT 657b0 2c .cfa: sp 0 + .ra: lr
STACK CFI INIT 657dc 3c .cfa: sp 0 + .ra: lr
STACK CFI INIT 65818 14 .cfa: sp 0 + .ra: lr
STACK CFI INIT 6582c 14 .cfa: sp 0 + .ra: lr
STACK CFI INIT 65840 14 .cfa: sp 0 + .ra: lr
STACK CFI INIT 65854 c .cfa: sp 0 + .ra: lr
STACK CFI INIT 65860 7c .cfa: sp 0 + .ra: lr
STACK CFI 65868 .cfa: sp 8 +
STACK CFI 65870 .ra: .cfa -4 + ^ r4: .cfa -8 + ^
STACK CFI INIT 658dc 2c .cfa: sp 0 + .ra: lr
STACK CFI INIT 65908 34 .cfa: sp 0 + .ra: lr
STACK CFI INIT 6593c 520 .cfa: sp 0 + .ra: lr
STACK CFI 65940 .cfa: sp 12 +
STACK CFI 65944 .cfa: sp 48 +
STACK CFI 65948 .cfa: r11 16 + .ra: .cfa -16 + ^ r1: .cfa -12 + ^ r10: .cfa -24 + ^ r11: .cfa -20 + ^ r2: .cfa -8 + ^ r3: .cfa -4 + ^ r4: .cfa -48 + ^ r5: .cfa -44 + ^ r6: .cfa -40 + ^ r7: .cfa -36 + ^ r8: .cfa -32 + ^ r9: .cfa -28 + ^
STACK CFI INIT 65e5c 28 .cfa: sp 0 + .ra: lr
STACK CFI 65e60 .cfa: sp 16 +
STACK CFI 65e64 .ra: .cfa -4 + ^ r3: .cfa -16 + ^ r4: .cfa -12 + ^ r5: .cfa -8 + ^
STACK CFI INIT 65e84 88 .cfa: sp 0 + .ra: lr
STACK CFI 65e8c .cfa: sp 8 +
STACK CFI 65e90 r4: .cfa -8 + ^ r5: .cfa -4 + ^
STACK CFI INIT 65f0c 2c .cfa: sp 0 + .ra: lr
STACK CFI 65f14 .cfa: sp 8 +
STACK CFI 65f1c .ra: .cfa -4 + ^ r4: .cfa -8 + ^
STACK CFI INIT 65f38 134 .cfa: sp 0 + .ra: lr
STACK CFI 65f40 .cfa: sp 32 +
STACK CFI 65f48 .ra: .cfa -4 + ^ r10: .cfa -8 + ^ r4: .cfa -32 + ^ r5: .cfa -28 + ^ r6: .cfa -24 + ^ r7: .cfa -20 + ^ r8: .cfa -16 + ^ r9: .cfa -12 + ^
STACK CFI 65f4c .cfa: sp 40 +
STACK CFI INIT 6606c 9c .cfa: sp 0 + .ra: lr
STACK CFI 66070 .cfa: sp 28 +
STACK CFI 66074 .ra: .cfa -4 + ^ r10: .cfa -8 + ^ r4: .cfa -28 + ^ r5: .cfa -24 + ^ r6: .cfa -20 + ^ r7: .cfa -16 + ^ r8: .cfa -12 + ^
STACK CFI 66078 .cfa: sp 56 +
STACK CFI INIT 66108 178 .cfa: sp 0 + .ra: lr
STACK CFI 6610c .cfa: sp 24 +
STACK CFI 66110 .ra: .cfa -4 + ^ r4: .cfa -24 + ^ r5: .cfa -20 + ^ r6: .cfa -16 + ^ r7: .cfa -12 + ^ r8: .cfa -8 + ^
STACK CFI 66114 .cfa: sp 48 +
STACK CFI INIT 66280 10 .cfa: sp 0 + .ra: lr
STACK CFI INIT 66290 14 .cfa: sp 0 + .ra: lr
STACK CFI INIT 662a4 14 .cfa: sp 0 + .ra: lr
STACK CFI INIT 662b8 30 .cfa: sp 0 + .ra: lr
STACK CFI INIT 662e8 24 .cfa: sp 0 + .ra: lr
STACK CFI INIT 6630c 30 .cfa: sp 0 + .ra: lr
STACK CFI INIT 6633c 2c .cfa: sp 0 + .ra: lr
STACK CFI 66344 .cfa: sp 8 +
STACK CFI 66348 .ra: .cfa -4 + ^ r4: .cfa -8 + ^
STACK CFI INIT 66368 30 .cfa: sp 0 + .ra: lr
STACK CFI INIT 66398 1e0 .cfa: sp 0 + .ra: lr
STACK CFI 6639c .cfa: sp 24 +
STACK CFI 663a0 .ra: .cfa -4 + ^ r4: .cfa -24 + ^ r5: .cfa -20 + ^ r6: .cfa -16 + ^ r7: .cfa -12 + ^ r8: .cfa -8 + ^
STACK CFI INIT 66578 4c .cfa: sp 0 + .ra: lr
STACK CFI 6657c .cfa: sp 16 +
STACK CFI 66580 .ra: .cfa -4 + ^ r4: .cfa -16 + ^ r5: .cfa -12 + ^ r6: .cfa -8 + ^
STACK CFI INIT 665c4 74 .cfa: sp 0 + .ra: lr
STACK CFI 665c8 .cfa: sp 16 +
STACK CFI 665cc .ra: .cfa -4 + ^ r4: .cfa -16 + ^ r5: .cfa -12 + ^ r6: .cfa -8 + ^
STACK CFI INIT 66638 b8 .cfa: sp 0 + .ra: lr
STACK CFI 66640 .cfa: sp 16 +
STACK CFI 66644 .ra: .cfa -4 + ^ r4: .cfa -16 + ^ r5: .cfa -12 + ^ r6: .cfa -8 + ^
STACK CFI 66648 .cfa: sp 24 +
STACK CFI INIT 666f0 60 .cfa: sp 0 + .ra: lr
STACK CFI 666f4 .cfa: sp 16 +
STACK CFI 666f8 .ra: .cfa -4 + ^ r4: .cfa -16 + ^ r5: .cfa -12 + ^ r6: .cfa -8 + ^
STACK CFI INIT 66750 98 .cfa: sp 0 + .ra: lr
STACK CFI 66758 .cfa: sp 12 +
STACK CFI 66760 .cfa: sp 24 +
STACK CFI 66764 .ra: .cfa -4 + ^ r4: .cfa -12 + ^ r5: .cfa -8 + ^
STACK CFI INIT 667e8 194 .cfa: sp 0 + .ra: lr
STACK CFI 667f0 .cfa: sp 24 +
STACK CFI 667f4 .ra: .cfa -4 + ^ r4: .cfa -24 + ^ r5: .cfa -20 + ^ r6: .cfa -16 + ^ r7: .cfa -12 + ^ r8: .cfa -8 + ^
STACK CFI 667f8 .cfa: sp 88 +
STACK CFI INIT 6697c 30 .cfa: sp 0 + .ra: lr
STACK CFI 66980 .cfa: sp 8 +
STACK CFI 66984 .cfa: sp 12 +
STACK CFI 66988 .cfa: sp 24 +
STACK CFI 66990 .ra: .cfa -12 + ^ r2: .cfa -8 + ^ r3: .cfa -4 + ^
STACK CFI INIT 669ac 54 .cfa: sp 0 + .ra: lr
STACK CFI 669b0 .cfa: sp 24 +
STACK CFI 669b4 .ra: .cfa -4 + ^ r3: .cfa -24 + ^ r4: .cfa -20 + ^ r5: .cfa -16 + ^ r6: .cfa -12 + ^ r7: .cfa -8 + ^
STACK CFI INIT 66a00 ac .cfa: sp 0 + .ra: lr
STACK CFI 66a04 .cfa: sp 24 +
STACK CFI 66a08 .ra: .cfa -4 + ^ r4: .cfa -24 + ^ r5: .cfa -20 + ^ r6: .cfa -16 + ^ r7: .cfa -12 + ^ r8: .cfa -8 + ^
STACK CFI 66a0c .cfa: sp 648 +
STACK CFI INIT 66aac 7c .cfa: sp 0 + .ra: lr
STACK CFI 66ab0 .cfa: sp 20 +
STACK CFI 66ab4 .ra: .cfa -4 + ^ r4: .cfa -20 + ^ r5: .cfa -16 + ^ r6: .cfa -12 + ^ r7: .cfa -8 + ^
STACK CFI 66ab8 .cfa: sp 392 +
STACK CFI INIT 66b28 30 .cfa: sp 0 + .ra: lr
STACK CFI 66b2c .cfa: sp 12 +
STACK CFI 66b30 .cfa: sp 16 +
STACK CFI 66b34 .cfa: sp 24 +
STACK CFI 66b38 .ra: .cfa -16 + ^ r1: .cfa -12 + ^ r2: .cfa -8 + ^ r3: .cfa -4 + ^
STACK CFI INIT 66b58 19c .cfa: sp 0 + .ra: lr
STACK CFI 66b5c .cfa: sp 36 +
STACK CFI 66b60 .cfa: sp 48 +
STACK CFI 66b64 .ra: .cfa -4 + ^ r10: .cfa -12 + ^ r11: .cfa -8 + ^ r4: .cfa -36 + ^ r5: .cfa -32 + ^ r6: .cfa -28 + ^ r7: .cfa -24 + ^ r8: .cfa -20 + ^ r9: .cfa -16 + ^
STACK CFI INIT 66cf4 38 .cfa: sp 0 + .ra: lr
STACK CFI INIT 66d2c 40 .cfa: sp 0 + .ra: lr
STACK CFI 66d34 .cfa: sp 8 +
STACK CFI 66d38 r4: .cfa -8 + ^ r5: .cfa -4 + ^
STACK CFI INIT 66d6c 40 .cfa: sp 0 + .ra: lr
STACK CFI 66d74 .cfa: sp 8 +
STACK CFI 66d78 r4: .cfa -8 + ^ r5: .cfa -4 + ^
STACK CFI INIT 66dac 7c .cfa: sp 0 + .ra: lr
STACK CFI 66db4 .cfa: sp 24 +
STACK CFI 66db8 .ra: .cfa -4 + ^ r3: .cfa -24 + ^ r4: .cfa -20 + ^ r5: .cfa -16 + ^ r6: .cfa -12 + ^ r7: .cfa -8 + ^
STACK CFI INIT 66e28 148 .cfa: sp 0 + .ra: lr
STACK CFI 66e2c .cfa: sp 32 +
STACK CFI 66e30 .ra: .cfa -4 + ^ r10: .cfa -8 + ^ r4: .cfa -32 + ^ r5: .cfa -28 + ^ r6: .cfa -24 + ^ r7: .cfa -20 + ^ r8: .cfa -16 + ^ r9: .cfa -12 + ^
STACK CFI INIT 66f70 a0 .cfa: sp 0 + .ra: lr
STACK CFI 66f78 .cfa: sp 16 +
STACK CFI 66f80 .ra: .cfa -4 + ^ r4: .cfa -16 + ^ r5: .cfa -12 + ^ r6: .cfa -8 + ^
STACK CFI INIT 67010 2c .cfa: sp 0 + .ra: lr
STACK CFI 67018 .cfa: sp 8 +
STACK CFI 67020 .ra: .cfa -4 + ^ r4: .cfa -8 + ^
STACK CFI INIT 6703c 38 .cfa: sp 0 + .ra: lr
STACK CFI 67040 .cfa: sp 16 +
STACK CFI 67044 .ra: .cfa -4 + ^ r3: .cfa -16 + ^ r4: .cfa -12 + ^ r5: .cfa -8 + ^
STACK CFI INIT 67074 120 .cfa: sp 0 + .ra: lr
STACK CFI 6707c .cfa: sp 8 +
STACK CFI 67084 .ra: .cfa -4 + ^ r4: .cfa -8 + ^
STACK CFI INIT 67194 11c .cfa: sp 0 + .ra: lr
STACK CFI 6719c .cfa: sp 8 +
STACK CFI 671a4 .ra: .cfa -4 + ^ r4: .cfa -8 + ^
STACK CFI INIT 672b0 11c .cfa: sp 0 + .ra: lr
STACK CFI 672b4 .cfa: sp 40 +
STACK CFI 672b8 .ra: .cfa -4 + ^ r10: .cfa -12 + ^ r11: .cfa -8 + ^ r3: .cfa -40 + ^ r4: .cfa -36 + ^ r5: .cfa -32 + ^ r6: .cfa -28 + ^ r7: .cfa -24 + ^ r8: .cfa -20 + ^ r9: .cfa -16 + ^
STACK CFI INIT 673cc 108 .cfa: sp 0 + .ra: lr
STACK CFI 673d0 .cfa: sp 40 +
STACK CFI 673d4 .ra: .cfa -4 + ^ r10: .cfa -12 + ^ r11: .cfa -8 + ^ r3: .cfa -40 + ^ r4: .cfa -36 + ^ r5: .cfa -32 + ^ r6: .cfa -28 + ^ r7: .cfa -24 + ^ r8: .cfa -20 + ^ r9: .cfa -16 + ^
STACK CFI INIT 674d4 54 .cfa: sp 0 + .ra: lr
STACK CFI 674dc .cfa: sp 8 +
STACK CFI 674e4 .ra: .cfa -4 + ^ r4: .cfa -8 + ^
STACK CFI INIT 67528 58 .cfa: sp 0 + .ra: lr
STACK CFI 67530 .cfa: sp 8 +
STACK CFI 67538 .cfa: sp 16 +
STACK CFI 6753c .ra: .cfa -4 + ^ r4: .cfa -8 + ^
STACK CFI INIT 67580 8c .cfa: sp 0 + .ra: lr
STACK CFI 67588 .cfa: sp 8 +
STACK CFI 67594 .ra: .cfa -4 + ^ r4: .cfa -8 + ^
STACK CFI INIT 6760c 3c .cfa: sp 0 + .ra: lr
STACK CFI 67614 .cfa: sp 8 +
STACK CFI 6761c .ra: .cfa -4 + ^ r4: .cfa -8 + ^
STACK CFI INIT 67648 54 .cfa: sp 0 + .ra: lr
STACK CFI 67650 .cfa: sp 8 +
STACK CFI 67658 .ra: .cfa -4 + ^ r4: .cfa -8 + ^
STACK CFI INIT 6769c 60 .cfa: sp 0 + .ra: lr
STACK CFI 676a4 .cfa: sp 8 +
STACK CFI 676b0 .ra: .cfa -4 + ^ r4: .cfa -8 + ^
STACK CFI INIT 676fc 74 .cfa: sp 0 + .ra: lr
STACK CFI 67708 .cfa: sp 4 +
STACK CFI 6770c r4: .cfa -4 + ^
STACK CFI INIT 67770 5c .cfa: sp 0 + .ra: lr
STACK CFI 67774 .cfa: sp 16 +
STACK CFI 67778 .ra: .cfa -4 + ^ r3: .cfa -16 + ^ r4: .cfa -12 + ^ r5: .cfa -8 + ^
STACK CFI INIT 677cc 40 .cfa: sp 0 + .ra: lr
STACK CFI INIT 6780c 98 .cfa: sp 0 + .ra: lr
STACK CFI 67810 .cfa: sp 8 +
STACK CFI 67814 .ra: .cfa -4 + ^ r4: .cfa -8 + ^
STACK CFI 67818 .cfa: sp 16 +
STACK CFI INIT 678a4 20 .cfa: sp 0 + .ra: lr
STACK CFI INIT 678c4 54 .cfa: sp 0 + .ra: lr
STACK CFI 678cc .cfa: sp 4 +
STACK CFI 678e8 r4: .cfa -4 + ^
STACK CFI INIT 67918 44 .cfa: sp 0 + .ra: lr
STACK CFI 67920 .cfa: sp 8 +
STACK CFI 67924 .ra: .cfa -4 + ^ r4: .cfa -8 + ^
STACK CFI INIT 6795c 20 .cfa: sp 0 + .ra: lr
STACK CFI INIT 6797c 220 .cfa: sp 0 + .ra: lr
STACK CFI 67980 .cfa: sp 36 +
STACK CFI 67984 .ra: .cfa -4 + ^ r10: .cfa -12 + ^ r11: .cfa -8 + ^ r4: .cfa -36 + ^ r5: .cfa -32 + ^ r6: .cfa -28 + ^ r7: .cfa -24 + ^ r8: .cfa -20 + ^ r9: .cfa -16 + ^
STACK CFI 67990 .cfa: sp 56 +
STACK CFI INIT 67b9c 19c .cfa: sp 0 + .ra: lr
STACK CFI 67ba8 .cfa: sp 36 +
STACK CFI 67bac .ra: .cfa -4 + ^ r10: .cfa -12 + ^ r11: .cfa -8 + ^ r4: .cfa -36 + ^ r5: .cfa -32 + ^ r6: .cfa -28 + ^ r7: .cfa -24 + ^ r8: .cfa -20 + ^ r9: .cfa -16 + ^
STACK CFI 67bb8 .cfa: sp 48 +
STACK CFI INIT 67d38 88 .cfa: sp 0 + .ra: lr
STACK CFI 67d40 .cfa: sp 24 +
STACK CFI 67d44 .ra: .cfa -4 + ^ r3: .cfa -24 + ^ r4: .cfa -20 + ^ r5: .cfa -16 + ^ r6: .cfa -12 + ^ r7: .cfa -8 + ^
STACK CFI INIT 67dc0 24 .cfa: sp 0 + .ra: lr
STACK CFI INIT 67de4 1e8 .cfa: sp 0 + .ra: lr
STACK CFI 67de8 .cfa: sp 28 +
STACK CFI 67dec .cfa: sp 40 +
STACK CFI 67df0 .ra: .cfa -4 + ^ r10: .cfa -8 + ^ r4: .cfa -28 + ^ r5: .cfa -24 + ^ r6: .cfa -20 + ^ r7: .cfa -16 + ^ r8: .cfa -12 + ^
STACK CFI INIT 67fcc 2c .cfa: sp 0 + .ra: lr
STACK CFI 67fd0 .cfa: sp 8 +
STACK CFI 67fd4 .ra: .cfa -4 + ^ r4: .cfa -8 + ^
STACK CFI INIT 67ff8 164 .cfa: sp 0 + .ra: lr
STACK CFI 68000 .cfa: sp 12 +
STACK CFI 68008 .cfa: sp 40 +
STACK CFI 6800c .ra: .cfa -4 + ^ r4: .cfa -12 + ^ r5: .cfa -8 + ^
STACK CFI INIT 6815c 13c .cfa: sp 0 + .ra: lr
STACK CFI 68160 .cfa: sp 32 +
STACK CFI 68164 .ra: .cfa -4 + ^ r10: .cfa -8 + ^ r4: .cfa -32 + ^ r5: .cfa -28 + ^ r6: .cfa -24 + ^ r7: .cfa -20 + ^ r8: .cfa -16 + ^ r9: .cfa -12 + ^
STACK CFI 68168 .cfa: sp 56 +
STACK CFI INIT 68298 69c .cfa: sp 0 + .ra: lr
STACK CFI 682a0 .cfa: sp 32 +
STACK CFI 682a8 .cfa: sp 72 +
STACK CFI 682ac .ra: .cfa -4 + ^ r10: .cfa -12 + ^ r11: .cfa -8 + ^ r4: .cfa -32 + ^ r5: .cfa -28 + ^ r6: .cfa -24 + ^ r7: .cfa -20 + ^ r8: .cfa -16 + ^
STACK CFI INIT 68934 2b0 .cfa: sp 0 + .ra: lr
STACK CFI 6893c .cfa: sp 32 +
STACK CFI 68944 .ra: .cfa -4 + ^ r10: .cfa -8 + ^ r4: .cfa -32 + ^ r5: .cfa -28 + ^ r6: .cfa -24 + ^ r7: .cfa -20 + ^ r8: .cfa -16 + ^ r9: .cfa -12 + ^
STACK CFI INIT 68be4 164 .cfa: sp 0 + .ra: lr
STACK CFI 68bec .cfa: sp 16 +
STACK CFI 68bf8 .cfa: sp 24 +
STACK CFI 68c00 .ra: .cfa -4 + ^ r4: .cfa -16 + ^ r5: .cfa -12 + ^ r6: .cfa -8 + ^
STACK CFI INIT 68d48 570 .cfa: sp 0 + .ra: lr
STACK CFI 68d50 .cfa: sp 36 +
STACK CFI 68d54 .ra: .cfa -4 + ^ r10: .cfa -12 + ^ r11: .cfa -8 + ^ r4: .cfa -36 + ^ r5: .cfa -32 + ^ r6: .cfa -28 + ^ r7: .cfa -24 + ^ r8: .cfa -20 + ^ r9: .cfa -16 + ^
STACK CFI 68d64 .cfa: sp 160 +
STACK CFI INIT 692b8 1c8 .cfa: sp 0 + .ra: lr
STACK CFI 692bc .cfa: sp 40 +
STACK CFI 692c0 .ra: .cfa -4 + ^ r10: .cfa -12 + ^ r11: .cfa -8 + ^ r3: .cfa -40 + ^ r4: .cfa -36 + ^ r5: .cfa -32 + ^ r6: .cfa -28 + ^ r7: .cfa -24 + ^ r8: .cfa -20 + ^ r9: .cfa -16 + ^
STACK CFI INIT 69480 6c .cfa: sp 0 + .ra: lr
STACK CFI 69488 .cfa: sp 8 +
STACK CFI 69494 .ra: .cfa -4 + ^ r4: .cfa -8 + ^
STACK CFI INIT 694ec 78 .cfa: sp 0 + .ra: lr
STACK CFI 694f0 .cfa: sp 16 +
STACK CFI 694f4 .ra: .cfa -4 + ^ r4: .cfa -16 + ^ r5: .cfa -12 + ^ r6: .cfa -8 + ^
STACK CFI INIT 69564 d4 .cfa: sp 0 + .ra: lr
STACK CFI 69568 .cfa: sp 24 +
STACK CFI 6956c .ra: .cfa -4 + ^ r4: .cfa -24 + ^ r5: .cfa -20 + ^ r6: .cfa -16 + ^ r7: .cfa -12 + ^ r8: .cfa -8 + ^
STACK CFI 69570 .cfa: sp 32 +
STACK CFI INIT 69638 20c .cfa: sp 0 + .ra: lr
STACK CFI 6963c .cfa: sp 24 +
STACK CFI 69640 .ra: .cfa -4 + ^ r4: .cfa -24 + ^ r5: .cfa -20 + ^ r6: .cfa -16 + ^ r7: .cfa -12 + ^ r8: .cfa -8 + ^
STACK CFI INIT 69844 68 .cfa: sp 0 + .ra: lr
STACK CFI 69848 .cfa: sp 16 +
STACK CFI 6984c .ra: .cfa -4 + ^ r4: .cfa -16 + ^ r5: .cfa -12 + ^ r6: .cfa -8 + ^
STACK CFI INIT 698ac 1e0 .cfa: sp 0 + .ra: lr
STACK CFI 698b0 .cfa: sp 24 +
STACK CFI 698b4 .ra: .cfa -4 + ^ r4: .cfa -24 + ^ r5: .cfa -20 + ^ r6: .cfa -16 + ^ r7: .cfa -12 + ^ r8: .cfa -8 + ^
STACK CFI INIT 69a8c 2c .cfa: sp 0 + .ra: lr
STACK CFI INIT 69ab8 1f4 .cfa: sp 0 + .ra: lr
STACK CFI 69abc .cfa: sp 24 +
STACK CFI 69ac0 .ra: .cfa -4 + ^ r4: .cfa -24 + ^ r5: .cfa -20 + ^ r6: .cfa -16 + ^ r7: .cfa -12 + ^ r8: .cfa -8 + ^
STACK CFI INIT 69cac 38 .cfa: sp 0 + .ra: lr
STACK CFI INIT 69ce4 260 .cfa: sp 0 + .ra: lr
STACK CFI 69ce8 .cfa: sp 28 +
STACK CFI 69cec .ra: .cfa -4 + ^ r10: .cfa -8 + ^ r4: .cfa -28 + ^ r5: .cfa -24 + ^ r6: .cfa -20 + ^ r7: .cfa -16 + ^ r8: .cfa -12 + ^
STACK CFI 69cf0 .cfa: sp 40 +
STACK CFI INIT 69f44 b8 .cfa: sp 0 + .ra: lr
STACK CFI 69f4c .cfa: sp 16 +
STACK CFI 69f50 .ra: .cfa -4 + ^ r4: .cfa -16 + ^ r5: .cfa -12 + ^ r6: .cfa -8 + ^
STACK CFI 69f54 .cfa: sp 24 +
STACK CFI INIT 69ffc 1fc .cfa: sp 0 + .ra: lr
STACK CFI 6a000 .cfa: sp 32 +
STACK CFI 6a004 .ra: .cfa -4 + ^ r10: .cfa -8 + ^ r3: .cfa -32 + ^ r4: .cfa -28 + ^ r5: .cfa -24 + ^ r6: .cfa -20 + ^ r7: .cfa -16 + ^ r8: .cfa -12 + ^
STACK CFI INIT 6a1f8 58 .cfa: sp 0 + .ra: lr
STACK CFI 6a1fc .cfa: sp 16 +
STACK CFI 6a200 .ra: .cfa -4 + ^ r4: .cfa -16 + ^ r5: .cfa -12 + ^ r6: .cfa -8 + ^
STACK CFI INIT 6a250 18c .cfa: sp 0 + .ra: lr
STACK CFI 6a254 .cfa: sp 40 +
STACK CFI 6a258 .ra: .cfa -4 + ^ r10: .cfa -12 + ^ r11: .cfa -8 + ^ r3: .cfa -40 + ^ r4: .cfa -36 + ^ r5: .cfa -32 + ^ r6: .cfa -28 + ^ r7: .cfa -24 + ^ r8: .cfa -20 + ^ r9: .cfa -16 + ^
STACK CFI INIT 6a3dc 24 .cfa: sp 0 + .ra: lr
STACK CFI 6a3e0 .cfa: sp 4 +
STACK CFI 6a3e4 .cfa: sp 16 +
STACK CFI 6a3e8 .ra: .cfa -4 + ^
STACK CFI INIT 6a400 1dc .cfa: sp 0 + .ra: lr
STACK CFI 6a404 .cfa: sp 32 +
STACK CFI 6a408 .ra: .cfa -4 + ^ r10: .cfa -8 + ^ r3: .cfa -32 + ^ r4: .cfa -28 + ^ r5: .cfa -24 + ^ r6: .cfa -20 + ^ r7: .cfa -16 + ^ r8: .cfa -12 + ^
STACK CFI INIT 6a5dc 1f0 .cfa: sp 0 + .ra: lr
STACK CFI 6a5e0 .cfa: sp 24 +
STACK CFI 6a5e4 .ra: .cfa -4 + ^ r4: .cfa -24 + ^ r5: .cfa -20 + ^ r6: .cfa -16 + ^ r7: .cfa -12 + ^ r8: .cfa -8 + ^
STACK CFI INIT 6a7cc 44 .cfa: sp 0 + .ra: lr
STACK CFI 6a7d4 .cfa: sp 4 +
STACK CFI 6a7e0 r4: .cfa -4 + ^
STACK CFI INIT 6a810 204 .cfa: sp 0 + .ra: lr
STACK CFI 6a814 .cfa: sp 24 +
STACK CFI 6a818 .ra: .cfa -4 + ^ r4: .cfa -24 + ^ r5: .cfa -20 + ^ r6: .cfa -16 + ^ r7: .cfa -12 + ^ r8: .cfa -8 + ^
STACK CFI INIT 6aa14 4c .cfa: sp 0 + .ra: lr
STACK CFI 6aa1c .cfa: sp 4 +
STACK CFI 6aa30 r4: .cfa -4 + ^
STACK CFI INIT 6aa60 30 .cfa: sp 0 + .ra: lr
STACK CFI 6aa64 .cfa: sp 12 +
STACK CFI 6aa68 .cfa: sp 16 +
STACK CFI 6aa6c .cfa: sp 24 +
STACK CFI 6aa70 .ra: .cfa -16 + ^ r1: .cfa -12 + ^ r2: .cfa -8 + ^ r3: .cfa -4 + ^
STACK CFI INIT 6aa90 34 .cfa: sp 0 + .ra: lr
STACK CFI 6aaa4 .cfa: sp 4 +
STACK CFI 6aaa8 r4: .cfa -4 + ^
STACK CFI INIT 6aac4 48 .cfa: sp 0 + .ra: lr
STACK CFI 6aac8 .cfa: sp 16 +
STACK CFI 6aacc r0: .cfa -16 + ^ r1: .cfa -12 + ^ r2: .cfa -8 + ^ r3: .cfa -4 + ^
STACK CFI 6aad0 .cfa: sp 20 +
STACK CFI 6aad8 .cfa: sp 32 +
STACK CFI 6aaf0 .ra: .cfa -20 + ^
STACK CFI INIT 6ab0c 4c .cfa: sp 0 + .ra: lr
STACK CFI 6ab14 .cfa: sp 16 +
STACK CFI 6ab18 r0: .cfa -16 + ^ r1: .cfa -12 + ^ r2: .cfa -8 + ^ r3: .cfa -4 + ^
STACK CFI 6ab1c .cfa: sp 20 +
STACK CFI 6ab20 .cfa: sp 32 +
STACK CFI 6ab3c .ra: .cfa -20 + ^
STACK CFI INIT 6ab58 30 .cfa: sp 0 + .ra: lr
STACK CFI 6ab5c .cfa: sp 12 +
STACK CFI 6ab60 .cfa: sp 16 +
STACK CFI 6ab64 .cfa: sp 24 +
STACK CFI 6ab68 .ra: .cfa -16 + ^ r1: .cfa -12 + ^ r2: .cfa -8 + ^ r3: .cfa -4 + ^
STACK CFI INIT 6ab88 20 .cfa: sp 0 + .ra: lr
STACK CFI INIT 6aba8 21c .cfa: sp 0 + .ra: lr
STACK CFI 6abb0 .cfa: sp 32 +
STACK CFI 6abb4 .ra: .cfa -4 + ^ r10: .cfa -8 + ^ r3: .cfa -32 + ^ r4: .cfa -28 + ^ r5: .cfa -24 + ^ r6: .cfa -20 + ^ r7: .cfa -16 + ^ r8: .cfa -12 + ^
STACK CFI INIT 6adc4 138 .cfa: sp 0 + .ra: lr
STACK CFI 6adc8 .cfa: sp 24 +
STACK CFI 6adcc .cfa: sp 32 +
STACK CFI 6add4 .ra: .cfa -4 + ^ r4: .cfa -24 + ^ r5: .cfa -20 + ^ r6: .cfa -16 + ^ r7: .cfa -12 + ^ r8: .cfa -8 + ^
STACK CFI INIT 6aefc 4c .cfa: sp 0 + .ra: lr
STACK CFI 6af00 .cfa: sp 8 +
STACK CFI 6af04 .ra: .cfa -4 + ^ r4: .cfa -8 + ^
STACK CFI 6af08 .cfa: sp 16 +
STACK CFI INIT 6af48 9c .cfa: sp 0 + .ra: lr
STACK CFI 6af54 .cfa: sp 8 +
STACK CFI 6af5c .cfa: sp 16 +
STACK CFI 6af60 .ra: .cfa -4 + ^ r4: .cfa -8 + ^
STACK CFI INIT 6afe4 1d8 .cfa: sp 0 + .ra: lr
STACK CFI 6afec .cfa: sp 32 +
STACK CFI 6aff0 .cfa: sp 152 +
STACK CFI 6affc .ra: .cfa -4 + ^ r10: .cfa -12 + ^ r11: .cfa -8 + ^ r4: .cfa -32 + ^ r5: .cfa -28 + ^ r6: .cfa -24 + ^ r8: .cfa -20 + ^ r9: .cfa -16 + ^
STACK CFI INIT 6b1bc 30 .cfa: sp 0 + .ra: lr
STACK CFI 6b1c0 .cfa: sp 16 +
STACK CFI 6b1c4 .ra: .cfa -4 + ^ r4: .cfa -16 + ^ r5: .cfa -12 + ^ r6: .cfa -8 + ^
STACK CFI INIT 6b1ec 20 .cfa: sp 0 + .ra: lr
STACK CFI 6b1f0 .cfa: sp 8 +
STACK CFI 6b1f4 .ra: .cfa -4 + ^ r4: .cfa -8 + ^
STACK CFI INIT 6b20c 44 .cfa: sp 0 + .ra: lr
STACK CFI 6b210 .cfa: sp 8 +
STACK CFI 6b218 .ra: .cfa -4 + ^ r7: .cfa -8 + ^
STACK CFI INIT 6b250 64 .cfa: sp 0 + .ra: lr
STACK CFI 6b254 .cfa: sp 16 +
STACK CFI 6b258 .ra: .cfa -4 + ^ r3: .cfa -16 + ^ r4: .cfa -12 + ^ r7: .cfa -8 + ^
STACK CFI INIT 6b2b4 234 .cfa: sp 0 + .ra: lr
STACK CFI 6b2bc .cfa: sp 36 +
STACK CFI 6b2c0 .cfa: sp 152 +
STACK CFI 6b2cc .ra: .cfa -4 + ^ r10: .cfa -12 + ^ r11: .cfa -8 + ^ r4: .cfa -36 + ^ r5: .cfa -32 + ^ r6: .cfa -28 + ^ r7: .cfa -24 + ^ r8: .cfa -20 + ^ r9: .cfa -16 + ^
STACK CFI INIT 6b4e8 f4 .cfa: sp 0 + .ra: lr
STACK CFI 6b4ec .cfa: sp 32 +
STACK CFI 6b4f0 .ra: .cfa -4 + ^ r10: .cfa -8 + ^ r3: .cfa -32 + ^ r4: .cfa -28 + ^ r5: .cfa -24 + ^ r6: .cfa -20 + ^ r7: .cfa -16 + ^ r8: .cfa -12 + ^
STACK CFI INIT 6b5dc 64 .cfa: sp 0 + .ra: lr
STACK CFI 6b5e8 .cfa: sp 8 +
STACK CFI 6b5f0 .ra: .cfa -4 + ^ r4: .cfa -8 + ^
STACK CFI INIT 6b640 110 .cfa: sp 0 + .ra: lr
STACK CFI 6b644 .cfa: sp 20 +
STACK CFI 6b648 .ra: .cfa -4 + ^ r4: .cfa -20 + ^ r5: .cfa -16 + ^ r6: .cfa -12 + ^ r7: .cfa -8 + ^
STACK CFI 6b64c .cfa: sp 32 +
STACK CFI INIT 6b750 234 .cfa: sp 0 + .ra: lr
STACK CFI 6b754 .cfa: sp 32 +
STACK CFI 6b758 .ra: .cfa -4 + ^ r10: .cfa -8 + ^ r3: .cfa -32 + ^ r4: .cfa -28 + ^ r5: .cfa -24 + ^ r6: .cfa -20 + ^ r7: .cfa -16 + ^ r8: .cfa -12 + ^
STACK CFI INIT 6b984 dc .cfa: sp 0 + .ra: lr
STACK CFI 6b988 .cfa: sp 32 +
STACK CFI 6b98c .ra: .cfa -4 + ^ r10: .cfa -8 + ^ r3: .cfa -32 + ^ r4: .cfa -28 + ^ r5: .cfa -24 + ^ r6: .cfa -20 + ^ r7: .cfa -16 + ^ r8: .cfa -12 + ^
STACK CFI INIT 6ba60 468 .cfa: sp 0 + .ra: lr
STACK CFI 6ba64 .cfa: sp 36 +
STACK CFI 6ba68 .ra: .cfa -4 + ^ r10: .cfa -12 + ^ r11: .cfa -8 + ^ r4: .cfa -36 + ^ r5: .cfa -32 + ^ r6: .cfa -28 + ^ r7: .cfa -24 + ^ r8: .cfa -20 + ^ r9: .cfa -16 + ^
STACK CFI 6ba74 .cfa: sp 160 +
STACK CFI INIT 6bec8 f0 .cfa: sp 0 + .ra: lr
STACK CFI 6bed4 .cfa: sp 8 +
STACK CFI 6bedc .cfa: sp 16 +
STACK CFI 6bee0 .ra: .cfa -4 + ^ r4: .cfa -8 + ^
STACK CFI INIT 6bfb8 38 .cfa: sp 0 + .ra: lr
STACK CFI 6bfbc .cfa: sp 8 +
STACK CFI 6bfc0 .ra: .cfa -4 + ^ r4: .cfa -8 + ^
STACK CFI INIT 6bff0 58 .cfa: sp 0 + .ra: lr
STACK CFI 6bff4 .cfa: sp 16 +
STACK CFI 6bff8 .ra: .cfa -4 + ^ r3: .cfa -16 + ^ r4: .cfa -12 + ^ r5: .cfa -8 + ^
STACK CFI INIT 6c048 34 .cfa: sp 0 + .ra: lr
STACK CFI 6c060 .cfa: sp 8 +
STACK CFI 6c06c .ra: .cfa -4 + ^ r4: .cfa -8 + ^
STACK CFI INIT 6c07c 15c .cfa: sp 0 + .ra: lr
STACK CFI 6c080 .cfa: sp 16 +
STACK CFI 6c084 .ra: .cfa -4 + ^ r4: .cfa -16 + ^ r5: .cfa -12 + ^ r6: .cfa -8 + ^
STACK CFI INIT 6c1d8 80 .cfa: sp 0 + .ra: lr
STACK CFI 6c1e0 .cfa: sp 8 +
STACK CFI 6c1e8 .ra: .cfa -4 + ^ r4: .cfa -8 + ^
STACK CFI INIT 6c258 170 .cfa: sp 0 + .ra: lr
STACK CFI 6c260 .cfa: sp 20 +
STACK CFI 6c268 .cfa: sp 32 +
STACK CFI 6c26c .ra: .cfa -4 + ^ r4: .cfa -20 + ^ r5: .cfa -16 + ^ r6: .cfa -12 + ^ r7: .cfa -8 + ^
STACK CFI INIT 6c3c8 69c .cfa: sp 0 + .ra: lr
STACK CFI 6c3cc .cfa: sp 32 +
STACK CFI 6c3d0 .cfa: r11 4 + .ra: .cfa -4 + ^ r10: .cfa -12 + ^ r11: .cfa -8 + ^ r4: .cfa -32 + ^ r5: .cfa -28 + ^ r6: .cfa -24 + ^ r7: .cfa -20 + ^ r8: .cfa -16 + ^
STACK CFI INIT 6ca64 c8 .cfa: sp 0 + .ra: lr
STACK CFI 6ca6c .cfa: sp 28 +
STACK CFI 6ca74 .cfa: sp 40 +
STACK CFI 6ca78 .ra: .cfa -4 + ^ r4: .cfa -28 + ^ r5: .cfa -24 + ^ r6: .cfa -20 + ^ r7: .cfa -16 + ^ r8: .cfa -12 + ^ r9: .cfa -8 + ^
STACK CFI INIT 6cb2c 28 .cfa: sp 0 + .ra: lr
STACK CFI 6cb30 .cfa: sp 8 +
STACK CFI 6cb34 .ra: .cfa -4 + ^ r4: .cfa -8 + ^
STACK CFI INIT 6cb54 314 .cfa: sp 0 + .ra: lr
STACK CFI 6cb5c .cfa: sp 24 +
STACK CFI 6cb64 .ra: .cfa -4 + ^ r4: .cfa -24 + ^ r5: .cfa -20 + ^ r6: .cfa -16 + ^ r7: .cfa -12 + ^ r8: .cfa -8 + ^
STACK CFI INIT 6ce68 210 .cfa: sp 0 + .ra: lr
STACK CFI 6ce70 .cfa: sp 16 +
STACK CFI 6ce78 .ra: .cfa -4 + ^ r4: .cfa -16 + ^ r5: .cfa -12 + ^ r6: .cfa -8 + ^
STACK CFI INIT 6d078 5c .cfa: sp 0 + .ra: lr
STACK CFI 6d080 .cfa: sp 8 +
STACK CFI 6d088 .ra: .cfa -4 + ^ r7: .cfa -8 + ^
STACK CFI INIT 6d0d4 8 .cfa: sp 0 + .ra: lr
STACK CFI INIT 6d0dc 14 .cfa: sp 0 + .ra: lr
STACK CFI INIT 6d0f0 1e0 .cfa: sp 0 + .ra: lr
STACK CFI 6d0f4 .cfa: sp 32 +
STACK CFI 6d0f8 .ra: .cfa -4 + ^ r10: .cfa -8 + ^ r3: .cfa -32 + ^ r4: .cfa -28 + ^ r5: .cfa -24 + ^ r6: .cfa -20 + ^ r7: .cfa -16 + ^ r8: .cfa -12 + ^
STACK CFI INIT 116bf8 58 .cfa: sp 0 + .ra: lr
STACK CFI 116bfc .cfa: sp 8 +
STACK CFI 116c00 .ra: .cfa -4 + ^ r4: .cfa -8 + ^
STACK CFI INIT 6d2d0 140 .cfa: sp 0 + .ra: lr
STACK CFI 6d2d8 .cfa: sp 20 +
STACK CFI 6d2e8 .ra: .cfa -4 + ^ r4: .cfa -20 + ^ r5: .cfa -16 + ^ r6: .cfa -12 + ^ r7: .cfa -8 + ^
STACK CFI INIT 6d410 364 .cfa: sp 0 + .ra: lr
STACK CFI 6d418 .cfa: sp 28 +
STACK CFI 6d420 .cfa: sp 48 +
STACK CFI 6d424 .ra: .cfa -4 + ^ r10: .cfa -8 + ^ r4: .cfa -28 + ^ r5: .cfa -24 + ^ r6: .cfa -20 + ^ r7: .cfa -16 + ^ r8: .cfa -12 + ^
STACK CFI INIT 6d774 310 .cfa: sp 0 + .ra: lr
STACK CFI 6d77c .cfa: sp 28 +
STACK CFI 6d784 .cfa: sp 48 +
STACK CFI 6d788 .ra: .cfa -4 + ^ r10: .cfa -8 + ^ r4: .cfa -28 + ^ r5: .cfa -24 + ^ r6: .cfa -20 + ^ r7: .cfa -16 + ^ r8: .cfa -12 + ^
STACK CFI INIT 6da84 30 .cfa: sp 0 + .ra: lr
STACK CFI INIT 6dab4 144 .cfa: sp 0 + .ra: lr
STACK CFI 6dab8 .cfa: sp 36 +
STACK CFI 6dabc .cfa: sp 48 +
STACK CFI 6dac0 .ra: .cfa -4 + ^ r10: .cfa -12 + ^ r11: .cfa -8 + ^ r4: .cfa -36 + ^ r5: .cfa -32 + ^ r6: .cfa -28 + ^ r7: .cfa -24 + ^ r8: .cfa -20 + ^ r9: .cfa -16 + ^
STACK CFI INIT 6dbf8 3c .cfa: sp 0 + .ra: lr
STACK CFI 6dbfc .cfa: sp 4 +
STACK CFI 6dc00 r4: .cfa -4 + ^
STACK CFI INIT 6dc34 3c .cfa: sp 0 + .ra: lr
STACK CFI 6dc38 .cfa: sp 4 +
STACK CFI 6dc3c r4: .cfa -4 + ^
STACK CFI INIT 6dc70 80 .cfa: sp 0 + .ra: lr
STACK CFI 6dc7c .cfa: sp 8 +
STACK CFI 6dc84 .ra: .cfa -4 + ^ r4: .cfa -8 + ^
STACK CFI INIT 6dcf0 34 .cfa: sp 0 + .ra: lr
STACK CFI 6dcf8 .cfa: sp 8 +
STACK CFI 6dd00 .ra: .cfa -4 + ^ r4: .cfa -8 + ^
STACK CFI INIT 6dd24 24 .cfa: sp 0 + .ra: lr
STACK CFI 6dd38 .cfa: sp 8 +
STACK CFI 6dd40 .ra: .cfa -4 + ^ r3: .cfa -8 + ^
STACK CFI INIT 6dd48 d4 .cfa: sp 0 + .ra: lr
STACK CFI 6dd50 .cfa: sp 8 +
STACK CFI 6dd5c .ra: .cfa -4 + ^ r4: .cfa -8 + ^
STACK CFI INIT 6de1c d8 .cfa: sp 0 + .ra: lr
STACK CFI 6de24 .cfa: sp 8 +
STACK CFI 6de30 .ra: .cfa -4 + ^ r4: .cfa -8 + ^
STACK CFI INIT 6def4 70 .cfa: sp 0 + .ra: lr
STACK CFI 6defc .cfa: sp 24 +
STACK CFI 6df04 .ra: .cfa -4 + ^ r3: .cfa -24 + ^ r4: .cfa -20 + ^ r5: .cfa -16 + ^ r6: .cfa -12 + ^ r7: .cfa -8 + ^
STACK CFI INIT 6df64 5c .cfa: sp 0 + .ra: lr
STACK CFI 6df6c .cfa: sp 8 +
STACK CFI 6df74 .ra: .cfa -4 + ^ r4: .cfa -8 + ^
STACK CFI INIT 6dfc0 8 .cfa: sp 0 + .ra: lr
STACK CFI INIT 6dfc8 28 .cfa: sp 0 + .ra: lr
STACK CFI 6dfd0 .cfa: sp 8 +
STACK CFI 6dfd8 .ra: .cfa -4 + ^ r4: .cfa -8 + ^
STACK CFI INIT 6dff0 114 .cfa: sp 0 + .ra: lr
STACK CFI 6dff4 .cfa: sp 32 +
STACK CFI 6dff8 .ra: .cfa -4 + ^ r10: .cfa -8 + ^ r3: .cfa -32 + ^ r4: .cfa -28 + ^ r5: .cfa -24 + ^ r6: .cfa -20 + ^ r7: .cfa -16 + ^ r8: .cfa -12 + ^
STACK CFI INIT 6e104 14 .cfa: sp 0 + .ra: lr
STACK CFI 6e10c .cfa: sp 8 +
STACK CFI 6e110 .ra: .cfa -4 + ^ r3: .cfa -8 + ^
STACK CFI INIT 6e118 f8 .cfa: sp 0 + .ra: lr
STACK CFI 6e11c .cfa: sp 32 +
STACK CFI 6e120 .ra: .cfa -4 + ^ r10: .cfa -8 + ^ r3: .cfa -32 + ^ r4: .cfa -28 + ^ r5: .cfa -24 + ^ r6: .cfa -20 + ^ r7: .cfa -16 + ^ r8: .cfa -12 + ^
STACK CFI INIT 6e210 a0 .cfa: sp 0 + .ra: lr
STACK CFI 6e214 .cfa: sp 16 +
STACK CFI 6e218 .ra: .cfa -4 + ^ r4: .cfa -16 + ^ r5: .cfa -12 + ^ r6: .cfa -8 + ^
STACK CFI INIT 6e2b0 28 .cfa: sp 0 + .ra: lr
STACK CFI 6e2b4 .cfa: sp 4 +
STACK CFI 6e2b8 .ra: .cfa -4 + ^
STACK CFI 6e2bc .cfa: sp 16 +
STACK CFI INIT 6e2d8 58 .cfa: sp 0 + .ra: lr
STACK CFI 6e2e0 .cfa: sp 8 +
STACK CFI 6e2e8 .cfa: sp 16 +
STACK CFI 6e2ec .ra: .cfa -4 + ^ r4: .cfa -8 + ^
STACK CFI INIT 6e330 64 .cfa: sp 0 + .ra: lr
STACK CFI INIT 6e394 68 .cfa: sp 0 + .ra: lr
STACK CFI 6e398 .cfa: sp 16 +
STACK CFI 6e39c .ra: .cfa -4 + ^ r4: .cfa -16 + ^ r5: .cfa -12 + ^ r6: .cfa -8 + ^
STACK CFI INIT 6e3fc 24 .cfa: sp 0 + .ra: lr
STACK CFI 6e404 .cfa: sp 4 +
STACK CFI 6e40c .cfa: sp 16 +
STACK CFI 6e414 .ra: .cfa -4 + ^
STACK CFI INIT 6e420 8 .cfa: sp 0 + .ra: lr
STACK CFI INIT 6e428 90 .cfa: sp 0 + .ra: lr
STACK CFI 6e430 .cfa: sp 16 +
STACK CFI 6e438 .ra: .cfa -4 + ^ r4: .cfa -16 + ^ r5: .cfa -12 + ^ r6: .cfa -8 + ^
STACK CFI INIT 6e4b8 c .cfa: sp 0 + .ra: lr
STACK CFI INIT 6e4c4 58 .cfa: sp 0 + .ra: lr
STACK CFI 6e4d0 .cfa: sp 8 +
STACK CFI 6e4d8 .ra: .cfa -4 + ^ r4: .cfa -8 + ^
STACK CFI INIT 6e51c 50 .cfa: sp 0 + .ra: lr
STACK CFI 6e528 .cfa: sp 8 +
STACK CFI 6e530 .ra: .cfa -4 + ^ r4: .cfa -8 + ^
STACK CFI INIT 6e56c 7c .cfa: sp 0 + .ra: lr
STACK CFI 6e578 .cfa: sp 4 +
STACK CFI 6e57c r4: .cfa -4 + ^
STACK CFI INIT 6e5e8 3b0 .cfa: sp 0 + .ra: lr
STACK CFI 6e5ec .cfa: sp 36 +
STACK CFI 6e5f0 .ra: .cfa -4 + ^ r10: .cfa -12 + ^ r11: .cfa -8 + ^ r4: .cfa -36 + ^ r5: .cfa -32 + ^ r6: .cfa -28 + ^ r7: .cfa -24 + ^ r8: .cfa -20 + ^ r9: .cfa -16 + ^
STACK CFI 6e5f8 .cfa: sp 72 +
STACK CFI INIT 6e998 240 .cfa: sp 0 + .ra: lr
STACK CFI 6e99c .cfa: sp 32 +
STACK CFI 6e9a0 .ra: .cfa -4 + ^ r10: .cfa -8 + ^ r4: .cfa -32 + ^ r5: .cfa -28 + ^ r6: .cfa -24 + ^ r7: .cfa -20 + ^ r8: .cfa -16 + ^ r9: .cfa -12 + ^
STACK CFI INIT 6ebd8 8 .cfa: sp 0 + .ra: lr
STACK CFI INIT 6ebe0 348 .cfa: sp 0 + .ra: lr
STACK CFI 6ebe8 .cfa: sp 36 +
STACK CFI 6ebf0 .cfa: sp 72 +
STACK CFI 6ebfc .ra: .cfa -4 + ^ r10: .cfa -12 + ^ r11: .cfa -8 + ^ r4: .cfa -36 + ^ r5: .cfa -32 + ^ r6: .cfa -28 + ^ r7: .cfa -24 + ^ r8: .cfa -20 + ^ r9: .cfa -16 + ^
STACK CFI INIT 6ef28 54 .cfa: sp 0 + .ra: lr
STACK CFI 6ef2c .cfa: sp 16 +
STACK CFI 6ef30 .ra: .cfa -4 + ^ r3: .cfa -16 + ^ r4: .cfa -12 + ^ r5: .cfa -8 + ^
STACK CFI INIT 6ef7c 48 .cfa: sp 0 + .ra: lr
STACK CFI INIT 6efc4 10 .cfa: sp 0 + .ra: lr
STACK CFI INIT 6efd4 34 .cfa: sp 0 + .ra: lr
STACK CFI INIT 6f008 90 .cfa: sp 0 + .ra: lr
STACK CFI 6f00c .cfa: sp 8 +
STACK CFI 6f010 .ra: .cfa -4 + ^ r4: .cfa -8 + ^
STACK CFI 6f014 .cfa: sp 16 +
STACK CFI INIT 6f098 20 .cfa: sp 0 + .ra: lr
STACK CFI INIT 6f0b8 12c .cfa: sp 0 + .ra: lr
STACK CFI 6f0bc .cfa: sp 32 +
STACK CFI 6f0c0 .ra: .cfa -4 + ^ r10: .cfa -8 + ^ r4: .cfa -32 + ^ r5: .cfa -28 + ^ r6: .cfa -24 + ^ r7: .cfa -20 + ^ r8: .cfa -16 + ^ r9: .cfa -12 + ^
STACK CFI INIT 6f1e4 c .cfa: sp 0 + .ra: lr
STACK CFI INIT 6f1f0 8 .cfa: sp 0 + .ra: lr
STACK CFI INIT 6f1f8 8 .cfa: sp 0 + .ra: lr
STACK CFI INIT 6f200 8 .cfa: sp 0 + .ra: lr
STACK CFI INIT 6f208 8 .cfa: sp 0 + .ra: lr
STACK CFI INIT 6f210 4 .cfa: sp 0 + .ra: lr
STACK CFI INIT 6f214 10 .cfa: sp 0 + .ra: lr
STACK CFI INIT 6f224 8 .cfa: sp 0 + .ra: lr
STACK CFI INIT 6f22c 8 .cfa: sp 0 + .ra: lr
STACK CFI INIT 6f234 4 .cfa: sp 0 + .ra: lr
STACK CFI INIT 6f238 94 .cfa: sp 0 + .ra: lr
STACK CFI 6f240 .cfa: sp 16 +
STACK CFI 6f248 .ra: .cfa -4 + ^ r3: .cfa -16 + ^ r4: .cfa -12 + ^ r5: .cfa -8 + ^
STACK CFI INIT 6f2cc 98 .cfa: sp 0 + .ra: lr
STACK CFI 6f2d4 .cfa: sp 20 +
STACK CFI 6f2ec .ra: .cfa -4 + ^ r4: .cfa -20 + ^ r5: .cfa -16 + ^ r6: .cfa -12 + ^ r7: .cfa -8 + ^
STACK CFI INIT 6f364 20 .cfa: sp 0 + .ra: lr
STACK CFI INIT 6f384 3c .cfa: sp 0 + .ra: lr
STACK CFI 6f388 .cfa: sp 8 +
STACK CFI 6f38c .ra: .cfa -4 + ^ r4: .cfa -8 + ^
STACK CFI INIT 6f3c0 1e0 .cfa: sp 0 + .ra: lr
STACK CFI 6f3c4 .cfa: sp 36 +
STACK CFI 6f3c8 .ra: .cfa -4 + ^ r10: .cfa -12 + ^ r11: .cfa -8 + ^ r4: .cfa -36 + ^ r5: .cfa -32 + ^ r6: .cfa -28 + ^ r7: .cfa -24 + ^ r8: .cfa -20 + ^ r9: .cfa -16 + ^
STACK CFI 6f3d4 .cfa: sp 48 +
STACK CFI INIT 6f5a0 80 .cfa: sp 0 + .ra: lr
STACK CFI 6f5a8 .cfa: sp 24 +
STACK CFI 6f5ac .ra: .cfa -4 + ^ r3: .cfa -24 + ^ r4: .cfa -20 + ^ r5: .cfa -16 + ^ r6: .cfa -12 + ^ r7: .cfa -8 + ^
STACK CFI INIT 6f620 8 .cfa: sp 0 + .ra: lr
STACK CFI INIT 6f628 24 .cfa: sp 0 + .ra: lr
STACK CFI 6f62c .cfa: sp 8 +
STACK CFI 6f634 .ra: .cfa -4 + ^ r4: .cfa -8 + ^
STACK CFI INIT 6f64c 168 .cfa: sp 0 + .ra: lr
STACK CFI 6f650 .cfa: sp 40 +
STACK CFI 6f654 .ra: .cfa -4 + ^ r10: .cfa -12 + ^ r11: .cfa -8 + ^ r3: .cfa -40 + ^ r4: .cfa -36 + ^ r5: .cfa -32 + ^ r6: .cfa -28 + ^ r7: .cfa -24 + ^ r8: .cfa -20 + ^ r9: .cfa -16 + ^
STACK CFI INIT 6f7b4 48 .cfa: sp 0 + .ra: lr
STACK CFI INIT 6f7fc 1c .cfa: sp 0 + .ra: lr
STACK CFI INIT 6f818 1c8 .cfa: sp 0 + .ra: lr
STACK CFI 6f81c .cfa: sp 28 +
STACK CFI 6f820 .cfa: sp 40 +
STACK CFI 6f824 .ra: .cfa -4 + ^ r10: .cfa -8 + ^ r4: .cfa -28 + ^ r5: .cfa -24 + ^ r6: .cfa -20 + ^ r7: .cfa -16 + ^ r8: .cfa -12 + ^
STACK CFI INIT 6f9e0 20 .cfa: sp 0 + .ra: lr
STACK CFI INIT 6fa00 98 .cfa: sp 0 + .ra: lr
STACK CFI 6fa14 .cfa: sp 4 +
STACK CFI 6fa1c .ra: .cfa -4 + ^
STACK CFI INIT 6fa98 8 .cfa: sp 0 + .ra: lr
STACK CFI INIT 6faa0 84 .cfa: sp 0 + .ra: lr
STACK CFI 6faa8 .cfa: sp 4 +
STACK CFI 6faac r4: .cfa -4 + ^
STACK CFI INIT 6fb24 26c .cfa: sp 0 + .ra: lr
STACK CFI 6fb28 .cfa: sp 24 +
STACK CFI 6fb2c .ra: .cfa -4 + ^ r4: .cfa -24 + ^ r5: .cfa -20 + ^ r6: .cfa -16 + ^ r7: .cfa -12 + ^ r8: .cfa -8 + ^
STACK CFI INIT 6fd90 1a4 .cfa: sp 0 + .ra: lr
STACK CFI 6fd98 .cfa: sp 24 +
STACK CFI 6fd9c .ra: .cfa -4 + ^ r3: .cfa -24 + ^ r4: .cfa -20 + ^ r5: .cfa -16 + ^ r6: .cfa -12 + ^ r7: .cfa -8 + ^
STACK CFI INIT 6ff34 180 .cfa: sp 0 + .ra: lr
STACK CFI 6ff48 .cfa: sp 24 +
STACK CFI 6ff50 .ra: .cfa -4 + ^ r4: .cfa -24 + ^ r5: .cfa -20 + ^ r6: .cfa -16 + ^ r7: .cfa -12 + ^ r8: .cfa -8 + ^
STACK CFI INIT 700b4 110 .cfa: sp 0 + .ra: lr
STACK CFI 700c0 .cfa: sp 16 +
STACK CFI 700c4 .ra: .cfa -4 + ^ r4: .cfa -16 + ^ r5: .cfa -12 + ^ r6: .cfa -8 + ^
STACK CFI 700c8 .cfa: sp 40 +
STACK CFI INIT 701c4 180 .cfa: sp 0 + .ra: lr
STACK CFI 701c8 .cfa: sp 24 + .ra: .cfa -4 + ^ r4: .cfa -24 + ^ r5: .cfa -20 + ^ r6: .cfa -16 + ^ r7: .cfa -12 + ^ r8: .cfa -8 + ^
STACK CFI INIT 70344 cc .cfa: sp 0 + .ra: lr
STACK CFI 70348 .cfa: sp 20 +
STACK CFI 7034c .ra: .cfa -4 + ^ r4: .cfa -20 + ^ r5: .cfa -16 + ^ r6: .cfa -12 + ^ r7: .cfa -8 + ^
STACK CFI 7036c .cfa: sp 48 +
STACK CFI INIT 70410 434 .cfa: sp 0 + .ra: lr
STACK CFI 70414 .cfa: sp 36 +
STACK CFI 70418 .ra: .cfa -4 + ^ r10: .cfa -12 + ^ r11: .cfa -8 + ^ r4: .cfa -36 + ^ r5: .cfa -32 + ^ r6: .cfa -28 + ^ r7: .cfa -24 + ^ r8: .cfa -20 + ^ r9: .cfa -16 + ^
STACK CFI 70420 .cfa: sp 64 +
STACK CFI INIT 70844 108 .cfa: sp 0 + .ra: lr
STACK CFI 7084c .cfa: sp 32 +
STACK CFI 70854 .ra: .cfa -4 + ^ r10: .cfa -8 + ^ r4: .cfa -32 + ^ r5: .cfa -28 + ^ r6: .cfa -24 + ^ r7: .cfa -20 + ^ r8: .cfa -16 + ^ r9: .cfa -12 + ^
STACK CFI INIT 7094c f8 .cfa: sp 0 + .ra: lr
STACK CFI 70950 .cfa: sp 16 +
STACK CFI 70954 .ra: .cfa -4 + ^ r4: .cfa -16 + ^ r5: .cfa -12 + ^ r6: .cfa -8 + ^
STACK CFI INIT 70a44 1b8 .cfa: sp 0 + .ra: lr
STACK CFI 70a48 .cfa: sp 24 +
STACK CFI 70a4c .cfa: sp 32 +
STACK CFI 70a50 .ra: .cfa -4 + ^ r4: .cfa -24 + ^ r5: .cfa -20 + ^ r6: .cfa -16 + ^ r7: .cfa -12 + ^ r8: .cfa -8 + ^
STACK CFI INIT 70bfc 3f8 .cfa: sp 0 + .ra: lr
STACK CFI 70c00 .cfa: sp 32 +
STACK CFI 70c04 .ra: .cfa -4 + ^ r10: .cfa -8 + ^ r3: .cfa -32 + ^ r4: .cfa -28 + ^ r5: .cfa -24 + ^ r6: .cfa -20 + ^ r7: .cfa -16 + ^ r8: .cfa -12 + ^
STACK CFI INIT 70ff4 4bc .cfa: sp 0 + .ra: lr
STACK CFI 70ffc .cfa: sp 36 +
STACK CFI 71004 .cfa: sp 2260 +
STACK CFI 71008 .cfa: sp 2264 +
STACK CFI 71020 .ra: .cfa -4 + ^ r10: .cfa -12 + ^ r11: .cfa -8 + ^ r4: .cfa -36 + ^ r5: .cfa -32 + ^ r6: .cfa -28 + ^ r7: .cfa -24 + ^ r8: .cfa -20 + ^ r9: .cfa -16 + ^
STACK CFI INIT 714b0 1c8 .cfa: sp 0 + .ra: lr
STACK CFI 714b4 .cfa: sp 32 +
STACK CFI 714b8 .ra: .cfa -4 + ^ r10: .cfa -8 + ^ r3: .cfa -32 + ^ r4: .cfa -28 + ^ r5: .cfa -24 + ^ r6: .cfa -20 + ^ r7: .cfa -16 + ^ r8: .cfa -12 + ^
STACK CFI INIT 71678 fc .cfa: sp 0 + .ra: lr
STACK CFI 71680 .cfa: sp 32 +
STACK CFI 71684 .ra: .cfa -4 + ^ r10: .cfa -8 + ^ r4: .cfa -32 + ^ r5: .cfa -28 + ^ r6: .cfa -24 + ^ r7: .cfa -20 + ^ r8: .cfa -16 + ^ r9: .cfa -12 + ^
STACK CFI INIT 71774 a9c .cfa: sp 0 + .ra: lr
STACK CFI 7177c .cfa: sp 36 +
STACK CFI 71780 .ra: .cfa -4 + ^ r10: .cfa -12 + ^ r11: .cfa -8 + ^ r4: .cfa -36 + ^ r5: .cfa -32 + ^ r6: .cfa -28 + ^ r7: .cfa -24 + ^ r8: .cfa -20 + ^ r9: .cfa -16 + ^
STACK CFI 71794 .cfa: sp 80 +
STACK CFI INIT 72210 130 .cfa: sp 0 + .ra: lr
STACK CFI 72218 .cfa: sp 24 +
STACK CFI 7221c .ra: .cfa -4 + ^ r4: .cfa -24 + ^ r5: .cfa -20 + ^ r6: .cfa -16 + ^ r7: .cfa -12 + ^ r8: .cfa -8 + ^
STACK CFI INIT 72340 218 .cfa: sp 0 + .ra: lr
STACK CFI 72344 .cfa: sp 24 +
STACK CFI 72348 .ra: .cfa -4 + ^ r4: .cfa -24 + ^ r5: .cfa -20 + ^ r6: .cfa -16 + ^ r7: .cfa -12 + ^ r8: .cfa -8 + ^
STACK CFI INIT 72558 154c .cfa: sp 0 + .ra: lr
STACK CFI 72560 .cfa: sp 36 +
STACK CFI 72568 .cfa: sp 96 +
STACK CFI 72578 .ra: .cfa -4 + ^ r10: .cfa -12 + ^ r11: .cfa -8 + ^ r4: .cfa -36 + ^ r5: .cfa -32 + ^ r6: .cfa -28 + ^ r7: .cfa -24 + ^ r8: .cfa -20 + ^ r9: .cfa -16 + ^
STACK CFI INIT 73aa4 134 .cfa: sp 0 + .ra: lr
STACK CFI 73aac .cfa: sp 32 +
STACK CFI 73ab0 .ra: .cfa -4 + ^ r10: .cfa -8 + ^ r4: .cfa -32 + ^ r5: .cfa -28 + ^ r6: .cfa -24 + ^ r7: .cfa -20 + ^ r8: .cfa -16 + ^ r9: .cfa -12 + ^
STACK CFI INIT 73bd8 24c .cfa: sp 0 + .ra: lr
STACK CFI 73be0 .cfa: sp 32 +
STACK CFI 73be4 .ra: .cfa -4 + ^ r10: .cfa -8 + ^ r4: .cfa -32 + ^ r5: .cfa -28 + ^ r6: .cfa -24 + ^ r7: .cfa -20 + ^ r8: .cfa -16 + ^ r9: .cfa -12 + ^
STACK CFI INIT 73e24 184 .cfa: sp 0 + .ra: lr
STACK CFI 73e2c .cfa: sp 24 +
STACK CFI 73e30 .ra: .cfa -4 + ^ r4: .cfa -24 + ^ r5: .cfa -20 + ^ r6: .cfa -16 + ^ r7: .cfa -12 + ^ r8: .cfa -8 + ^
STACK CFI INIT 73fa8 4b4 .cfa: sp 0 + .ra: lr
STACK CFI 73fac .cfa: sp 32 +
STACK CFI 73fb0 .ra: .cfa -4 + ^ r10: .cfa -8 + ^ r3: .cfa -32 + ^ r4: .cfa -28 + ^ r5: .cfa -24 + ^ r6: .cfa -20 + ^ r7: .cfa -16 + ^ r8: .cfa -12 + ^
STACK CFI INIT 7445c 36c .cfa: sp 0 + .ra: lr
STACK CFI 74464 .cfa: sp 36 +
STACK CFI 74468 .ra: .cfa -4 + ^ r10: .cfa -12 + ^ r11: .cfa -8 + ^ r4: .cfa -36 + ^ r5: .cfa -32 + ^ r6: .cfa -28 + ^ r7: .cfa -24 + ^ r8: .cfa -20 + ^ r9: .cfa -16 + ^
STACK CFI 7446c .cfa: sp 56 +
STACK CFI INIT 747c8 a8 .cfa: sp 0 + .ra: lr
STACK CFI INIT 74870 450 .cfa: sp 0 + .ra: lr
STACK CFI 74878 .cfa: sp 36 +
STACK CFI 74884 .ra: .cfa -4 + ^ r10: .cfa -12 + ^ r11: .cfa -8 + ^ r4: .cfa -36 + ^ r5: .cfa -32 + ^ r6: .cfa -28 + ^ r7: .cfa -24 + ^ r8: .cfa -20 + ^ r9: .cfa -16 + ^
STACK CFI 7488c .cfa: sp 64 +
STACK CFI INIT 74cc0 254 .cfa: sp 0 + .ra: lr
STACK CFI 74cc4 .cfa: sp 24 +
STACK CFI 74cc8 .ra: .cfa -4 + ^ r4: .cfa -24 + ^ r5: .cfa -20 + ^ r6: .cfa -16 + ^ r7: .cfa -12 + ^ r8: .cfa -8 + ^
STACK CFI INIT 74f14 4ec .cfa: sp 0 + .ra: lr
STACK CFI 74f18 .cfa: sp 36 +
STACK CFI 74f1c .ra: .cfa -4 + ^ r10: .cfa -12 + ^ r11: .cfa -8 + ^ r4: .cfa -36 + ^ r5: .cfa -32 + ^ r6: .cfa -28 + ^ r7: .cfa -24 + ^ r8: .cfa -20 + ^ r9: .cfa -16 + ^
STACK CFI 74f2c .cfa: sp 48 +
STACK CFI INIT 75400 408 .cfa: sp 0 + .ra: lr
STACK CFI 75404 .cfa: sp 32 +
STACK CFI 75408 .ra: .cfa -4 + ^ r10: .cfa -8 + ^ r3: .cfa -32 + ^ r4: .cfa -28 + ^ r5: .cfa -24 + ^ r6: .cfa -20 + ^ r7: .cfa -16 + ^ r8: .cfa -12 + ^
STACK CFI INIT 75808 160 .cfa: sp 0 + .ra: lr
STACK CFI 7580c .cfa: sp 24 +
STACK CFI 75810 .ra: .cfa -4 + ^ r4: .cfa -24 + ^ r5: .cfa -20 + ^ r6: .cfa -16 + ^ r7: .cfa -12 + ^ r8: .cfa -8 + ^
STACK CFI INIT 75968 38 .cfa: sp 0 + .ra: lr
STACK CFI 7596c .cfa: sp 8 +
STACK CFI 75970 .ra: .cfa -4 + ^ r4: .cfa -8 + ^
STACK CFI INIT 759a0 248 .cfa: sp 0 + .ra: lr
STACK CFI 759a4 .cfa: sp 40 +
STACK CFI 759a8 .ra: .cfa -4 + ^ r10: .cfa -12 + ^ r11: .cfa -8 + ^ r3: .cfa -40 + ^ r4: .cfa -36 + ^ r5: .cfa -32 + ^ r6: .cfa -28 + ^ r7: .cfa -24 + ^ r8: .cfa -20 + ^ r9: .cfa -16 + ^
STACK CFI INIT 75be8 170 .cfa: sp 0 + .ra: lr
STACK CFI 75bf8 .cfa: sp 24 +
STACK CFI 75c00 .ra: .cfa -4 + ^ r4: .cfa -24 + ^ r5: .cfa -20 + ^ r6: .cfa -16 + ^ r7: .cfa -12 + ^ r8: .cfa -8 + ^
STACK CFI INIT 75d58 3c8 .cfa: sp 0 + .ra: lr
STACK CFI 75d68 .cfa: sp 36 +
STACK CFI 75d70 .cfa: sp 48 +
STACK CFI 75d74 .ra: .cfa -4 + ^ r10: .cfa -12 + ^ r11: .cfa -8 + ^ r4: .cfa -36 + ^ r5: .cfa -32 + ^ r6: .cfa -28 + ^ r7: .cfa -24 + ^ r8: .cfa -20 + ^ r9: .cfa -16 + ^
STACK CFI INIT 76120 50 .cfa: sp 0 + .ra: lr
STACK CFI 76128 .cfa: sp 16 +
STACK CFI 7612c .ra: .cfa -4 + ^ r4: .cfa -16 + ^ r5: .cfa -12 + ^ r6: .cfa -8 + ^
STACK CFI INIT 76170 424 .cfa: sp 0 + .ra: lr
STACK CFI 76180 .cfa: sp 32 +
STACK CFI 76188 .ra: .cfa -4 + ^ r10: .cfa -8 + ^ r4: .cfa -32 + ^ r5: .cfa -28 + ^ r6: .cfa -24 + ^ r7: .cfa -20 + ^ r8: .cfa -16 + ^ r9: .cfa -12 + ^
STACK CFI INIT 76594 40 .cfa: sp 0 + .ra: lr
STACK CFI 76598 .cfa: sp 16 +
STACK CFI 7659c .ra: .cfa -4 + ^ r4: .cfa -16 + ^ r5: .cfa -12 + ^ r6: .cfa -8 + ^
STACK CFI INIT 765d4 38c .cfa: sp 0 + .ra: lr
STACK CFI 765dc .cfa: sp 32 +
STACK CFI 765e4 .ra: .cfa -4 + ^ r10: .cfa -8 + ^ r4: .cfa -32 + ^ r5: .cfa -28 + ^ r6: .cfa -24 + ^ r7: .cfa -20 + ^ r8: .cfa -16 + ^ r9: .cfa -12 + ^
STACK CFI INIT 76960 3a0 .cfa: sp 0 + .ra: lr
STACK CFI 76968 .cfa: sp 40 +
STACK CFI 7696c .ra: .cfa -4 + ^ r10: .cfa -12 + ^ r11: .cfa -8 + ^ r3: .cfa -40 + ^ r4: .cfa -36 + ^ r5: .cfa -32 + ^ r6: .cfa -28 + ^ r7: .cfa -24 + ^ r8: .cfa -20 + ^ r9: .cfa -16 + ^
STACK CFI INIT 76d00 5a8 .cfa: sp 0 + .ra: lr
STACK CFI 76d04 .cfa: sp 36 +
STACK CFI 76d0c .ra: .cfa -4 + ^ r10: .cfa -12 + ^ r11: .cfa -8 + ^ r4: .cfa -36 + ^ r5: .cfa -32 + ^ r6: .cfa -28 + ^ r7: .cfa -24 + ^ r8: .cfa -20 + ^ r9: .cfa -16 + ^
STACK CFI 76d18 .cfa: sp 40 +
STACK CFI INIT 772a8 368 .cfa: sp 0 + .ra: lr
STACK CFI 772ac .cfa: sp 36 +
STACK CFI 772b0 .cfa: sp 88 +
STACK CFI 772c4 .ra: .cfa -4 + ^ r10: .cfa -12 + ^ r11: .cfa -8 + ^ r4: .cfa -36 + ^ r5: .cfa -32 + ^ r6: .cfa -28 + ^ r7: .cfa -24 + ^ r8: .cfa -20 + ^ r9: .cfa -16 + ^
STACK CFI INIT 77610 38 .cfa: sp 0 + .ra: lr
STACK CFI INIT 77648 250 .cfa: sp 0 + .ra: lr
STACK CFI 77654 .cfa: sp 36 +
STACK CFI 7765c .ra: .cfa -4 + ^ r10: .cfa -12 + ^ r11: .cfa -8 + ^ r4: .cfa -36 + ^ r5: .cfa -32 + ^ r6: .cfa -28 + ^ r7: .cfa -24 + ^ r8: .cfa -20 + ^ r9: .cfa -16 + ^
STACK CFI 77668 .cfa: sp 104 +
STACK CFI INIT 77898 fc .cfa: sp 0 + .ra: lr
STACK CFI 7789c .cfa: sp 24 +
STACK CFI 778a0 .ra: .cfa -4 + ^ r3: .cfa -24 + ^ r4: .cfa -20 + ^ r5: .cfa -16 + ^ r6: .cfa -12 + ^ r7: .cfa -8 + ^
STACK CFI INIT 77994 4 .cfa: sp 0 + .ra: lr
STACK CFI INIT 77998 9c .cfa: sp 0 + .ra: lr
STACK CFI 7799c .cfa: sp 16 +
STACK CFI 779a0 .ra: .cfa -4 + ^ r3: .cfa -16 + ^ r4: .cfa -12 + ^ r5: .cfa -8 + ^
STACK CFI INIT 77a34 d4 .cfa: sp 0 + .ra: lr
STACK CFI 77a38 .cfa: sp 16 +
STACK CFI 77a40 .cfa: sp 80 +
STACK CFI 77a4c .ra: .cfa -4 + ^ r4: .cfa -16 + ^ r5: .cfa -12 + ^ r6: .cfa -8 + ^
STACK CFI INIT 77b08 14 .cfa: sp 0 + .ra: lr
STACK CFI 77b0c .cfa: sp 8 + .ra: .cfa -4 + ^ r3: .cfa -8 + ^
STACK CFI INIT 77b1c bc .cfa: sp 0 + .ra: lr
STACK CFI 77b20 .cfa: sp 16 +
STACK CFI 77b24 .ra: .cfa -4 + ^ r3: .cfa -16 + ^ r4: .cfa -12 + ^ r5: .cfa -8 + ^
STACK CFI INIT 77bd8 d4 .cfa: sp 0 + .ra: lr
STACK CFI 77bdc .cfa: sp 8 +
STACK CFI 77be8 .ra: .cfa -4 + ^ r3: .cfa -8 + ^
STACK CFI INIT 77cac 50 .cfa: sp 0 + .ra: lr
STACK CFI 77cb4 .cfa: sp 8 +
STACK CFI 77cbc .ra: .cfa -4 + ^ r4: .cfa -8 + ^
STACK CFI INIT 77cfc 140 .cfa: sp 0 + .ra: lr
STACK CFI 77d00 .cfa: sp 16 +
STACK CFI 77d04 .ra: .cfa -4 + ^ r4: .cfa -16 + ^ r5: .cfa -12 + ^ r6: .cfa -8 + ^
STACK CFI 77d1c .cfa: sp 24 +
STACK CFI INIT 77e3c 118 .cfa: sp 0 + .ra: lr
STACK CFI 77e40 .cfa: sp 16 +
STACK CFI 77e44 .ra: .cfa -4 + ^ r4: .cfa -16 + ^ r5: .cfa -12 + ^ r6: .cfa -8 + ^
STACK CFI 77e5c .cfa: sp 24 +
STACK CFI INIT 77f54 130 .cfa: sp 0 + .ra: lr
STACK CFI 77f58 .cfa: sp 24 +
STACK CFI 77f5c .ra: .cfa -4 + ^ r3: .cfa -24 + ^ r4: .cfa -20 + ^ r5: .cfa -16 + ^ r6: .cfa -12 + ^ r7: .cfa -8 + ^
STACK CFI INIT 78084 258 .cfa: sp 0 + .ra: lr
STACK CFI 78088 .cfa: sp 40 +
STACK CFI 7808c .ra: .cfa -4 + ^ r10: .cfa -12 + ^ r11: .cfa -8 + ^ r3: .cfa -40 + ^ r4: .cfa -36 + ^ r5: .cfa -32 + ^ r6: .cfa -28 + ^ r7: .cfa -24 + ^ r8: .cfa -20 + ^ r9: .cfa -16 + ^
STACK CFI INIT 782dc 120 .cfa: sp 0 + .ra: lr
STACK CFI 782e0 .cfa: sp 16 +
STACK CFI 782e4 .ra: .cfa -4 + ^ r4: .cfa -16 + ^ r5: .cfa -12 + ^ r6: .cfa -8 + ^
STACK CFI INIT 783fc 28 .cfa: sp 0 + .ra: lr
STACK CFI 78400 .cfa: sp 8 + .ra: .cfa -4 + ^ r3: .cfa -8 + ^
STACK CFI INIT 78424 24 .cfa: sp 0 + .ra: lr
STACK CFI INIT 116c50 18 .cfa: sp 0 + .ra: lr
STACK CFI INIT 78448 160 .cfa: sp 0 + .ra: lr
STACK CFI 7844c .cfa: sp 24 +
STACK CFI 78450 .ra: .cfa -4 + ^ r11: .cfa -8 + ^ r4: .cfa -24 + ^ r5: .cfa -20 + ^ r6: .cfa -16 + ^ r7: .cfa -12 + ^
STACK CFI 78454 .cfa: r11 4 +
STACK CFI INIT 785a8 194 .cfa: sp 0 + .ra: lr
STACK CFI 785ac .cfa: sp 24 +
STACK CFI 785b0 .ra: .cfa -4 + ^ r4: .cfa -24 + ^ r5: .cfa -20 + ^ r6: .cfa -16 + ^ r7: .cfa -12 + ^ r8: .cfa -8 + ^
STACK CFI INIT 7873c 164 .cfa: sp 0 + .ra: lr
STACK CFI 78740 .cfa: sp 24 +
STACK CFI 78744 .ra: .cfa -4 + ^ r4: .cfa -24 + ^ r5: .cfa -20 + ^ r6: .cfa -16 + ^ r7: .cfa -12 + ^ r8: .cfa -8 + ^
STACK CFI INIT 788a0 21c .cfa: sp 0 + .ra: lr
STACK CFI 788a4 .cfa: sp 32 +
STACK CFI 788a8 .ra: .cfa -4 + ^ r10: .cfa -8 + ^ r4: .cfa -32 + ^ r5: .cfa -28 + ^ r6: .cfa -24 + ^ r7: .cfa -20 + ^ r8: .cfa -16 + ^ r9: .cfa -12 + ^
STACK CFI INIT 78abc 24c .cfa: sp 0 + .ra: lr
STACK CFI 78ac0 .cfa: sp 32 +
STACK CFI 78ac4 .ra: .cfa -4 + ^ r10: .cfa -8 + ^ r4: .cfa -32 + ^ r5: .cfa -28 + ^ r6: .cfa -24 + ^ r7: .cfa -20 + ^ r8: .cfa -16 + ^ r9: .cfa -12 + ^
STACK CFI INIT 78d08 4 .cfa: sp 0 + .ra: lr
STACK CFI INIT 78d0c 1f4 .cfa: sp 0 + .ra: lr
STACK CFI 78d14 .cfa: sp 24 +
STACK CFI 78d1c .ra: .cfa -4 + ^ r4: .cfa -24 + ^ r5: .cfa -20 + ^ r6: .cfa -16 + ^ r7: .cfa -12 + ^ r8: .cfa -8 + ^
STACK CFI INIT 78f00 a4 .cfa: sp 0 + .ra: lr
STACK CFI 78f04 .cfa: sp 16 +
STACK CFI 78f08 .ra: .cfa -4 + ^ r3: .cfa -16 + ^ r4: .cfa -12 + ^ r5: .cfa -8 + ^
STACK CFI INIT 78fa4 5c .cfa: sp 0 + .ra: lr
STACK CFI 78fb0 .cfa: sp 8 +
STACK CFI 78fbc .ra: .cfa -4 + ^ r4: .cfa -8 + ^
STACK CFI INIT 79000 d0 .cfa: sp 0 + .ra: lr
STACK CFI 79004 .cfa: sp 20 +
STACK CFI 7900c .ra: .cfa -4 + ^ r4: .cfa -20 + ^ r5: .cfa -16 + ^ r6: .cfa -12 + ^ r7: .cfa -8 + ^
STACK CFI 79018 .cfa: sp 32 +
STACK CFI INIT 790d0 f4 .cfa: sp 0 + .ra: lr
STACK CFI 790d4 .cfa: sp 20 +
STACK CFI 790dc .ra: .cfa -4 + ^ r4: .cfa -20 + ^ r5: .cfa -16 + ^ r6: .cfa -12 + ^ r7: .cfa -8 + ^
STACK CFI 790f0 .cfa: sp 32 +
STACK CFI INIT 791c4 228 .cfa: sp 0 + .ra: lr
STACK CFI 791c8 .cfa: sp 28 +
STACK CFI 791d0 .ra: .cfa -4 + ^ r10: .cfa -8 + ^ r4: .cfa -28 + ^ r5: .cfa -24 + ^ r6: .cfa -20 + ^ r7: .cfa -16 + ^ r8: .cfa -12 + ^
STACK CFI 79208 .cfa: sp 40 +
STACK CFI INIT 793ec 40 .cfa: sp 0 + .ra: lr
STACK CFI INIT 7942c a8 .cfa: sp 0 + .ra: lr
STACK CFI 79434 .cfa: sp 16 +
STACK CFI 7943c .ra: .cfa -4 + ^ r4: .cfa -16 + ^ r5: .cfa -12 + ^ r6: .cfa -8 + ^
STACK CFI INIT 794d4 34 .cfa: sp 0 + .ra: lr
STACK CFI INIT 116c68 144 .cfa: sp 0 + .ra: lr
STACK CFI 116c70 .cfa: sp 16 +
STACK CFI 116c7c .ra: .cfa -4 + ^ r4: .cfa -16 + ^ r5: .cfa -12 + ^ r6: .cfa -8 + ^
STACK CFI INIT 1172d0 84 .cfa: sp 0 + .ra: lr
STACK CFI 1172d4 .cfa: sp 16 +
STACK CFI 1172dc .ra: .cfa -4 + ^ r4: .cfa -16 + ^ r5: .cfa -12 + ^ r6: .cfa -8 + ^
STACK CFI INIT 79508 28 .cfa: sp 0 + .ra: lr
STACK CFI INIT 79530 118 .cfa: sp 0 + .ra: lr
STACK CFI 79538 .cfa: sp 12 +
STACK CFI 79540 r4: .cfa -12 + ^ r5: .cfa -8 + ^ r6: .cfa -4 + ^
STACK CFI INIT 79650 230 .cfa: sp 0 + .ra: lr
STACK CFI 79694 .cfa: sp 4 + r4: .cfa -4 + ^
STACK CFI 796e0 .cfa: sp 0 + r4: r4
STACK CFI 7970c .cfa: sp 4 + r5: .cfa -4 + ^
STACK CFI 79710 .cfa: sp 8 + r4: .cfa -8 + ^
STACK CFI 7984c .cfa: sp 4 + r4: r4
STACK CFI 79850 .cfa: sp 0 + r5: r5
STACK CFI 79854 .cfa: sp 8 + r4: .cfa -8 + ^ r5: .cfa -4 + ^
STACK CFI 79878 .cfa: sp 4 + r4: r4
STACK CFI 7987c .cfa: sp 0 + r5: r5
STACK CFI INIT 79880 28 .cfa: sp 0 + .ra: lr
STACK CFI 7988c .cfa: sp 4 +
STACK CFI 79894 .ra: .cfa -4 + ^
STACK CFI INIT 798b0 f0 .cfa: sp 0 + .ra: lr
STACK CFI 798cc .cfa: sp 4 + r5: .cfa -4 + ^
STACK CFI 798dc .cfa: sp 8 + r4: .cfa -8 + ^
STACK CFI 79948 .cfa: sp 4 + r4: r4
STACK CFI 7994c .cfa: sp 0 + r5: r5
STACK CFI INIT 799a0 50 .cfa: sp 0 + .ra: lr
STACK CFI 799a4 .cfa: sp 16 +
STACK CFI 799ac .ra: .cfa -4 + ^ r4: .cfa -16 + ^ r5: .cfa -12 + ^ r6: .cfa -8 + ^
STACK CFI INIT 799f0 12c .cfa: sp 0 + .ra: lr
STACK CFI 799f8 .cfa: sp 20 +
STACK CFI 79a00 r4: .cfa -20 + ^ r5: .cfa -16 + ^ r6: .cfa -12 + ^ r7: .cfa -8 + ^ r8: .cfa -4 + ^
STACK CFI INIT 79b1c 30 .cfa: sp 0 + .ra: lr
STACK CFI 79b20 .cfa: sp 16 +
STACK CFI 79b24 .ra: .cfa -4 + ^ r4: .cfa -16 + ^ r5: .cfa -12 + ^ r6: .cfa -8 + ^
STACK CFI INIT 79b4c 38 .cfa: sp 0 + .ra: lr
STACK CFI 79b50 .cfa: sp 16 +
STACK CFI 79b54 .ra: .cfa -4 + ^ r4: .cfa -16 + ^ r5: .cfa -12 + ^ r6: .cfa -8 + ^
STACK CFI INIT 79b84 b4 .cfa: sp 0 + .ra: lr
STACK CFI 79b8c .cfa: sp 16 +
STACK CFI 79b94 .ra: .cfa -4 + ^ r4: .cfa -16 + ^ r5: .cfa -12 + ^ r6: .cfa -8 + ^
STACK CFI INIT 79c38 110 .cfa: sp 0 + .ra: lr
STACK CFI 79c3c .cfa: sp 24 +
STACK CFI 79c40 .ra: .cfa -4 + ^ r4: .cfa -24 + ^ r5: .cfa -20 + ^ r6: .cfa -16 + ^ r7: .cfa -12 + ^ r8: .cfa -8 + ^
STACK CFI 79c44 .cfa: sp 48 +
STACK CFI INIT 79d50 5c .cfa: sp 0 + .ra: lr
STACK CFI INIT 79db0 1d0 .cfa: sp 0 + .ra: lr
STACK CFI 79db8 .cfa: sp 8 +
STACK CFI 79dc0 r4: .cfa -8 + ^ r5: .cfa -4 + ^
STACK CFI INIT 79f80 1fc .cfa: sp 0 + .ra: lr
STACK CFI 79f84 .cfa: sp 12 +
STACK CFI 79f88 r4: .cfa -12 + ^ r5: .cfa -8 + ^ r6: .cfa -4 + ^
STACK CFI INIT 7a17c 16c .cfa: sp 0 + .ra: lr
STACK CFI 7a188 .cfa: sp 8 +
STACK CFI 7a190 r4: .cfa -8 + ^ r5: .cfa -4 + ^
STACK CFI INIT 7a2e8 260 .cfa: sp 0 + .ra: lr
STACK CFI 7a2f0 .cfa: sp 12 +
STACK CFI 7a2f8 r4: .cfa -12 + ^ r5: .cfa -8 + ^ r6: .cfa -4 + ^
STACK CFI INIT 7a548 48 .cfa: sp 0 + .ra: lr
STACK CFI 7a54c .cfa: sp 16 +
STACK CFI 7a550 .ra: .cfa -4 + ^ r4: .cfa -16 + ^ r5: .cfa -12 + ^ r6: .cfa -8 + ^
STACK CFI INIT 7a590 4c .cfa: sp 0 + .ra: lr
STACK CFI 7a594 .cfa: sp 4 +
STACK CFI 7a5a0 r4: .cfa -4 + ^
STACK CFI INIT 7a5dc 68 .cfa: sp 0 + .ra: lr
STACK CFI 7a5e4 .cfa: sp 8 +
STACK CFI 7a5e8 .ra: .cfa -4 + ^ r3: .cfa -8 + ^
STACK CFI INIT 7a644 44 .cfa: sp 0 + .ra: lr
STACK CFI 7a648 .cfa: sp 8 + .ra: .cfa -4 + ^ r3: .cfa -8 + ^
STACK CFI INIT 7a688 250 .cfa: sp 0 + .ra: lr
STACK CFI 7a68c .cfa: sp 16 +
STACK CFI 7a690 .ra: .cfa -4 + ^ r4: .cfa -16 + ^ r5: .cfa -12 + ^ r6: .cfa -8 + ^
STACK CFI INIT 7a8d8 6c .cfa: sp 0 + .ra: lr
STACK CFI 7a8dc .cfa: sp 8 +
STACK CFI 7a8ec r4: .cfa -8 + ^ r5: .cfa -4 + ^
STACK CFI INIT 7a944 120 .cfa: sp 0 + .ra: lr
STACK CFI 7a94c .cfa: sp 28 +
STACK CFI 7a950 r10: .cfa -4 + ^ r4: .cfa -28 + ^ r5: .cfa -24 + ^ r6: .cfa -20 + ^ r7: .cfa -16 + ^ r8: .cfa -12 + ^ r9: .cfa -8 + ^
STACK CFI INIT 7aa64 504 .cfa: sp 0 + .ra: lr
STACK CFI 7aa68 .cfa: sp 36 +
STACK CFI 7aa6c .cfa: sp 1092 +
STACK CFI 7aa70 .cfa: sp 1096 +
STACK CFI 7aa74 .ra: .cfa -4 + ^ r10: .cfa -12 + ^ r11: .cfa -8 + ^ r4: .cfa -36 + ^ r5: .cfa -32 + ^ r6: .cfa -28 + ^ r7: .cfa -24 + ^ r8: .cfa -20 + ^ r9: .cfa -16 + ^
STACK CFI INIT 7af68 4b8 .cfa: sp 0 + .ra: lr
STACK CFI 7af6c .cfa: sp 36 +
STACK CFI 7af74 .cfa: sp 72 +
STACK CFI 7af7c .ra: .cfa -4 + ^ r10: .cfa -12 + ^ r11: .cfa -8 + ^ r4: .cfa -36 + ^ r5: .cfa -32 + ^ r6: .cfa -28 + ^ r7: .cfa -24 + ^ r8: .cfa -20 + ^ r9: .cfa -16 + ^
STACK CFI INIT 7b420 c4 .cfa: sp 0 + .ra: lr
STACK CFI 7b424 .cfa: sp 16 +
STACK CFI 7b428 .ra: .cfa -4 + ^ r3: .cfa -16 + ^ r4: .cfa -12 + ^ r5: .cfa -8 + ^
STACK CFI INIT 7b4e4 6c .cfa: sp 0 + .ra: lr
STACK CFI 7b4e8 .cfa: sp 16 +
STACK CFI 7b4ec .ra: .cfa -4 + ^ r4: .cfa -16 + ^ r5: .cfa -12 + ^ r6: .cfa -8 + ^
STACK CFI INIT 7b550 28 .cfa: sp 0 + .ra: lr
STACK CFI 7b554 .cfa: sp 8 +
STACK CFI 7b558 .ra: .cfa -4 + ^ r4: .cfa -8 + ^
STACK CFI INIT 7b578 34c .cfa: sp 0 + .ra: lr
STACK CFI 7b580 .cfa: sp 12 +
STACK CFI 7b58c r4: .cfa -12 + ^ r5: .cfa -8 + ^ r6: .cfa -4 + ^
STACK CFI INIT 7b8c4 440 .cfa: sp 0 + .ra: lr
STACK CFI 7b8cc .cfa: sp 32 +
STACK CFI 7b8d4 .cfa: sp 48 +
STACK CFI 7b8dc r10: .cfa -8 + ^ r11: .cfa -4 + ^ r4: .cfa -32 + ^ r5: .cfa -28 + ^ r6: .cfa -24 + ^ r7: .cfa -20 + ^ r8: .cfa -16 + ^ r9: .cfa -12 + ^
STACK CFI INIT 7bd10 340 .cfa: sp 0 + .ra: lr
STACK CFI 7bd20 .cfa: sp 12 + .ra: .cfa -4 + ^ r4: .cfa -8 + ^
STACK CFI 7bd4c .cfa: sp 28 + r5: .cfa -28 + ^ r6: .cfa -24 + ^ r7: .cfa -20 + ^ r8: .cfa -16 + ^
STACK CFI 7bde0 .cfa: sp 12 + r5: r5 r6: r6 r7: r7 r8: r8
STACK CFI 7be00 r5: r5 r6: r6 r7: r7 r8: r8
STACK CFI 7be4c .cfa: sp 32 + r5: .cfa -32 + ^ r6: .cfa -28 + ^ r7: .cfa -24 + ^ r8: .cfa -20 + ^ r9: .cfa -16 + ^
STACK CFI 7bec8 .cfa: sp 12 + r5: r5 r6: r6 r7: r7 r8: r8 r9: r9
STACK CFI 7befc .cfa: sp 32 + r5: .cfa -32 + ^ r6: .cfa -28 + ^ r7: .cfa -24 + ^ r8: .cfa -20 + ^ r9: .cfa -16 + ^
STACK CFI 7bf78 .cfa: sp 12 + r5: r5 r6: r6 r7: r7 r8: r8 r9: r9
STACK CFI 7bfac .cfa: sp 32 + r5: .cfa -32 + ^ r6: .cfa -28 + ^ r7: .cfa -24 + ^ r8: .cfa -20 + ^ r9: .cfa -16 + ^
STACK CFI 7c028 .cfa: sp 12 + r5: r5 r6: r6 r7: r7 r8: r8 r9: r9
STACK CFI INIT 7c050 1c4 .cfa: sp 0 + .ra: lr
STACK CFI 7c058 .cfa: sp 8 +
STACK CFI 7c060 r4: .cfa -8 + ^ r5: .cfa -4 + ^
STACK CFI INIT 7c214 13c .cfa: sp 0 + .ra: lr
STACK CFI 7c21c .cfa: sp 24 +
STACK CFI 7c220 .ra: .cfa -4 + ^ r3: .cfa -24 + ^ r4: .cfa -20 + ^ r5: .cfa -16 + ^ r6: .cfa -12 + ^ r7: .cfa -8 + ^
STACK CFI INIT 7c350 254 .cfa: sp 0 + .ra: lr
STACK CFI 7c35c .cfa: sp 24 +
STACK CFI 7c360 .ra: .cfa -4 + ^ r4: .cfa -24 + ^ r5: .cfa -20 + ^ r6: .cfa -16 + ^ r7: .cfa -12 + ^ r8: .cfa -8 + ^
STACK CFI INIT 7c5a4 1a8 .cfa: sp 0 + .ra: lr
STACK CFI 7c5ac .cfa: sp 8 +
STACK CFI 7c5b4 r4: .cfa -8 + ^ r5: .cfa -4 + ^
STACK CFI INIT 7c74c 54 .cfa: sp 0 + .ra: lr
STACK CFI INIT 7c7a0 74 .cfa: sp 0 + .ra: lr
STACK CFI 7c7ac .cfa: sp 8 +
STACK CFI 7c7b8 r4: .cfa -8 + ^ r5: .cfa -4 + ^
STACK CFI INIT 7c814 24 .cfa: sp 0 + .ra: lr
STACK CFI INIT 7c838 274 .cfa: sp 0 + .ra: lr
STACK CFI 7c840 .cfa: sp 8 +
STACK CFI 7c844 r4: .cfa -8 + ^ r5: .cfa -4 + ^
STACK CFI INIT 7caac 58 .cfa: sp 0 + .ra: lr
STACK CFI 7cab0 .cfa: sp 8 +
STACK CFI 7cab8 .ra: .cfa -4 + ^ r4: .cfa -8 + ^
STACK CFI INIT 7cb04 ec .cfa: sp 0 + .ra: lr
STACK CFI 7cb08 .cfa: sp 12 +
STACK CFI 7cb10 .ra: .cfa -4 + ^ r4: .cfa -12 + ^ r5: .cfa -8 + ^
STACK CFI INIT 7cbf0 40 .cfa: sp 0 + .ra: lr
STACK CFI 7cbf8 .cfa: sp 8 +
STACK CFI 7cc00 r4: .cfa -8 + ^ r5: .cfa -4 + ^
STACK CFI INIT 7cc30 a8 .cfa: sp 0 + .ra: lr
STACK CFI 7cc3c .cfa: sp 8 +
STACK CFI 7cc44 r4: .cfa -8 + ^ r5: .cfa -4 + ^
STACK CFI INIT 7ccd8 6c .cfa: sp 0 + .ra: lr
STACK CFI 7cce0 .cfa: sp 4 +
STACK CFI 7cce8 r4: .cfa -4 + ^
STACK CFI INIT 7cd44 128 .cfa: sp 0 + .ra: lr
STACK CFI 7cd48 .cfa: sp 4 +
STACK CFI 7cd4c r4: .cfa -4 + ^
STACK CFI INIT 7ce6c 100 .cfa: sp 0 + .ra: lr
STACK CFI 7ce80 .cfa: sp 24 +
STACK CFI 7ce88 r10: .cfa -4 + ^ r4: .cfa -24 + ^ r5: .cfa -20 + ^ r6: .cfa -16 + ^ r7: .cfa -12 + ^ r8: .cfa -8 + ^
STACK CFI INIT 7cf6c 13c .cfa: sp 0 + .ra: lr
STACK CFI INIT 7d0a8 fc .cfa: sp 0 + .ra: lr
STACK CFI 7d0bc .cfa: sp 16 +
STACK CFI 7d0c4 r4: .cfa -16 + ^ r5: .cfa -12 + ^ r6: .cfa -8 + ^ r7: .cfa -4 + ^
STACK CFI INIT 7d1a4 8c .cfa: sp 0 + .ra: lr
STACK CFI 7d1a8 .cfa: sp 16 +
STACK CFI 7d1ac .ra: .cfa -4 + ^ r3: .cfa -16 + ^ r4: .cfa -12 + ^ r5: .cfa -8 + ^
STACK CFI INIT 7d230 3d8 .cfa: sp 0 + .ra: lr
STACK CFI 7d23c .cfa: sp 36 +
STACK CFI 7d240 .ra: .cfa -4 + ^ r10: .cfa -12 + ^ r11: .cfa -8 + ^ r4: .cfa -36 + ^ r5: .cfa -32 + ^ r6: .cfa -28 + ^ r7: .cfa -24 + ^ r8: .cfa -20 + ^ r9: .cfa -16 + ^
STACK CFI 7d254 .cfa: sp 56 +
STACK CFI INIT 7d608 a90 .cfa: sp 0 + .ra: lr
STACK CFI 7d60c .cfa: sp 36 +
STACK CFI 7d610 .cfa: sp 1092 +
STACK CFI 7d614 .cfa: sp 1104 +
STACK CFI 7d61c .ra: .cfa -4 + ^ r10: .cfa -12 + ^ r11: .cfa -8 + ^ r4: .cfa -36 + ^ r5: .cfa -32 + ^ r6: .cfa -28 + ^ r7: .cfa -24 + ^ r8: .cfa -20 + ^ r9: .cfa -16 + ^
STACK CFI INIT 7e098 b70 .cfa: sp 0 + .ra: lr
STACK CFI 7e09c .cfa: sp 36 +
STACK CFI 7e0a4 .cfa: sp 88 +
STACK CFI 7e0ac .ra: .cfa -4 + ^ r10: .cfa -12 + ^ r11: .cfa -8 + ^ r4: .cfa -36 + ^ r5: .cfa -32 + ^ r6: .cfa -28 + ^ r7: .cfa -24 + ^ r8: .cfa -20 + ^ r9: .cfa -16 + ^
STACK CFI INIT 7ec08 b0 .cfa: sp 0 + .ra: lr
STACK CFI 7ec14 .cfa: sp 4 +
STACK CFI 7ec18 r4: .cfa -4 + ^
STACK CFI INIT 7ecb8 188 .cfa: sp 0 + .ra: lr
STACK CFI 7ecbc .cfa: sp 28 +
STACK CFI 7ecc0 .ra: .cfa -4 + ^ r10: .cfa -8 + ^ r4: .cfa -28 + ^ r5: .cfa -24 + ^ r6: .cfa -20 + ^ r7: .cfa -16 + ^ r8: .cfa -12 + ^
STACK CFI 7ecc4 .cfa: sp 40 +
STACK CFI INIT 7ee40 70 .cfa: sp 0 + .ra: lr
STACK CFI INIT 7eeb0 120 .cfa: sp 0 + .ra: lr
STACK CFI 7eeb8 .cfa: sp 28 +
STACK CFI 7eebc r10: .cfa -4 + ^ r4: .cfa -28 + ^ r5: .cfa -24 + ^ r6: .cfa -20 + ^ r7: .cfa -16 + ^ r8: .cfa -12 + ^ r9: .cfa -8 + ^
STACK CFI INIT 7efd0 4dc .cfa: sp 0 + .ra: lr
STACK CFI 7efd4 .cfa: sp 36 +
STACK CFI 7efd8 .cfa: sp 1092 +
STACK CFI 7efdc .cfa: sp 1096 +
STACK CFI 7efe0 .ra: .cfa -4 + ^ r10: .cfa -12 + ^ r11: .cfa -8 + ^ r4: .cfa -36 + ^ r5: .cfa -32 + ^ r6: .cfa -28 + ^ r7: .cfa -24 + ^ r8: .cfa -20 + ^ r9: .cfa -16 + ^
STACK CFI INIT 7f4ac 434 .cfa: sp 0 + .ra: lr
STACK CFI 7f4b0 .cfa: sp 36 +
STACK CFI 7f4b4 .ra: .cfa -4 + ^ r10: .cfa -12 + ^ r11: .cfa -8 + ^ r4: .cfa -36 + ^ r5: .cfa -32 + ^ r6: .cfa -28 + ^ r7: .cfa -24 + ^ r8: .cfa -20 + ^ r9: .cfa -16 + ^
STACK CFI 7f4bc .cfa: sp 72 +
STACK CFI INIT 7f8e0 d0 .cfa: sp 0 + .ra: lr
STACK CFI 7f8e8 .cfa: sp 4 +
STACK CFI 7f8f4 r4: .cfa -4 + ^
STACK CFI INIT 7f9b0 110 .cfa: sp 0 + .ra: lr
STACK CFI 7f9b8 .cfa: sp 12 +
STACK CFI 7f9c0 r4: .cfa -12 + ^ r5: .cfa -8 + ^ r6: .cfa -4 + ^
STACK CFI INIT 7fac0 5c .cfa: sp 0 + .ra: lr
STACK CFI 7fac4 .cfa: sp 32 +
STACK CFI 7fac8 .ra: .cfa -4 + ^ r10: .cfa -8 + ^ r3: .cfa -32 + ^ r4: .cfa -28 + ^ r5: .cfa -24 + ^ r6: .cfa -20 + ^ r7: .cfa -16 + ^ r8: .cfa -12 + ^
STACK CFI INIT 7fb1c 30 .cfa: sp 0 + .ra: lr
STACK CFI 7fb20 .cfa: sp 16 +
STACK CFI 7fb24 .ra: .cfa -4 + ^ r4: .cfa -16 + ^ r5: .cfa -12 + ^ r6: .cfa -8 + ^
STACK CFI INIT 7fb4c 40 .cfa: sp 0 + .ra: lr
STACK CFI 7fb50 .cfa: sp 16 +
STACK CFI 7fb54 .ra: .cfa -4 + ^ r4: .cfa -16 + ^ r5: .cfa -12 + ^ r6: .cfa -8 + ^
STACK CFI INIT 7fb8c a8 .cfa: sp 0 + .ra: lr
STACK CFI 7fb90 .cfa: sp 32 +
STACK CFI 7fb94 .ra: .cfa -4 + ^ r10: .cfa -8 + ^ r3: .cfa -32 + ^ r4: .cfa -28 + ^ r5: .cfa -24 + ^ r6: .cfa -20 + ^ r7: .cfa -16 + ^ r8: .cfa -12 + ^
STACK CFI INIT 7fc34 d4 .cfa: sp 0 + .ra: lr
STACK CFI 7fc38 .cfa: sp 24 +
STACK CFI 7fc3c .ra: .cfa -4 + ^ r4: .cfa -24 + ^ r5: .cfa -20 + ^ r6: .cfa -16 + ^ r7: .cfa -12 + ^ r8: .cfa -8 + ^
STACK CFI INIT 7fd08 48 .cfa: sp 0 + .ra: lr
STACK CFI 7fd10 .cfa: sp 8 +
STACK CFI 7fd14 .ra: .cfa -4 + ^ r4: .cfa -8 + ^
STACK CFI INIT 7fd50 60 .cfa: sp 0 + .ra: lr
STACK CFI 7fd54 .cfa: sp 16 +
STACK CFI 7fd58 .ra: .cfa -4 + ^ r4: .cfa -16 + ^ r5: .cfa -12 + ^ r6: .cfa -8 + ^
STACK CFI INIT 7fdb0 44 .cfa: sp 0 + .ra: lr
STACK CFI 7fdb4 .cfa: sp 16 +
STACK CFI 7fdb8 .ra: .cfa -4 + ^ r4: .cfa -16 + ^ r5: .cfa -12 + ^ r6: .cfa -8 + ^
STACK CFI INIT 7fdf4 e0 .cfa: sp 0 + .ra: lr
STACK CFI 7fdf8 .cfa: sp 36 +
STACK CFI 7fdfc .ra: .cfa -4 + ^ r10: .cfa -12 + ^ r11: .cfa -8 + ^ r4: .cfa -36 + ^ r5: .cfa -32 + ^ r6: .cfa -28 + ^ r7: .cfa -24 + ^ r8: .cfa -20 + ^ r9: .cfa -16 + ^
STACK CFI 7fe00 .cfa: sp 48 +
STACK CFI INIT 7fed4 40 .cfa: sp 0 + .ra: lr
STACK CFI 7fed8 .cfa: sp 16 +
STACK CFI 7fedc .ra: .cfa -4 + ^ r4: .cfa -16 + ^ r5: .cfa -12 + ^ r6: .cfa -8 + ^
STACK CFI INIT 7ff14 bc .cfa: sp 0 + .ra: lr
STACK CFI 7ff18 .cfa: sp 24 +
STACK CFI 7ff1c .ra: .cfa -4 + ^ r4: .cfa -24 + ^ r5: .cfa -20 + ^ r6: .cfa -16 + ^ r7: .cfa -12 + ^ r8: .cfa -8 + ^
STACK CFI INIT 7ffd0 68 .cfa: sp 0 + .ra: lr
STACK CFI 7ffd4 .cfa: sp 32 +
STACK CFI 7ffd8 .ra: .cfa -4 + ^ r10: .cfa -8 + ^ r3: .cfa -32 + ^ r4: .cfa -28 + ^ r5: .cfa -24 + ^ r6: .cfa -20 + ^ r7: .cfa -16 + ^ r8: .cfa -12 + ^
STACK CFI INIT 80038 2b0 .cfa: sp 0 + .ra: lr
STACK CFI 8003c .cfa: sp 36 +
STACK CFI 80040 .ra: .cfa -4 + ^ r10: .cfa -12 + ^ r11: .cfa -8 + ^ r4: .cfa -36 + ^ r5: .cfa -32 + ^ r6: .cfa -28 + ^ r7: .cfa -24 + ^ r8: .cfa -20 + ^ r9: .cfa -16 + ^
STACK CFI 80044 .cfa: sp 80 +
STACK CFI INIT 802e8 20 .cfa: sp 0 + .ra: lr
STACK CFI 802ec .cfa: sp 8 +
STACK CFI 802f4 .ra: .cfa -4 + ^ r4: .cfa -8 + ^
STACK CFI INIT 80308 1038 .cfa: sp 0 + .ra: lr
STACK CFI 8030c .cfa: sp 36 +
STACK CFI 80310 .cfa: r11 4 + .ra: .cfa -4 + ^ r10: .cfa -12 + ^ r11: .cfa -8 + ^ r4: .cfa -36 + ^ r5: .cfa -32 + ^ r6: .cfa -28 + ^ r7: .cfa -24 + ^ r8: .cfa -20 + ^ r9: .cfa -16 + ^
STACK CFI INIT 81340 118 .cfa: sp 0 + .ra: lr
STACK CFI 81348 .cfa: sp 12 +
STACK CFI 81358 r4: .cfa -12 + ^ r5: .cfa -8 + ^ r6: .cfa -4 + ^
STACK CFI INIT 81458 ec0 .cfa: sp 0 + .ra: lr
STACK CFI 8145c .cfa: sp 36 +
STACK CFI 81460 .cfa: r11 4 + .ra: .cfa -4 + ^ r10: .cfa -12 + ^ r11: .cfa -8 + ^ r4: .cfa -36 + ^ r5: .cfa -32 + ^ r6: .cfa -28 + ^ r7: .cfa -24 + ^ r8: .cfa -20 + ^ r9: .cfa -16 + ^
STACK CFI INIT 82318 e4 .cfa: sp 0 + .ra: lr
STACK CFI 8231c .cfa: sp 12 +
STACK CFI 82320 .cfa: sp 24 +
STACK CFI 82324 .ra: .cfa -4 + ^ r4: .cfa -12 + ^ r5: .cfa -8 + ^
STACK CFI INIT 823fc ec .cfa: sp 0 + .ra: lr
STACK CFI 82400 .cfa: sp 8 +
STACK CFI 82404 .cfa: sp 24 +
STACK CFI 8240c .ra: .cfa -4 + ^ r4: .cfa -8 + ^
STACK CFI INIT 824e8 d0 .cfa: sp 0 + .ra: lr
STACK CFI 824ec .cfa: sp 12 +
STACK CFI 824f0 .cfa: sp 32 +
STACK CFI 824f4 .ra: .cfa -4 + ^ r4: .cfa -12 + ^ r5: .cfa -8 + ^
STACK CFI INIT 825b8 44 .cfa: sp 0 + .ra: lr
STACK CFI INIT 825fc 58 .cfa: sp 0 + .ra: lr
STACK CFI INIT 82654 70 .cfa: sp 0 + .ra: lr
STACK CFI 82658 .cfa: sp 4 +
STACK CFI 82668 r4: .cfa -4 + ^
STACK CFI INIT 826c4 30 .cfa: sp 0 + .ra: lr
STACK CFI INIT 826f4 28 .cfa: sp 0 + .ra: lr
STACK CFI INIT 8271c 38 .cfa: sp 0 + .ra: lr
STACK CFI 82720 .cfa: sp 4 +
STACK CFI 82724 r4: .cfa -4 + ^
STACK CFI INIT 82754 54 .cfa: sp 0 + .ra: lr
STACK CFI INIT 827a8 64 .cfa: sp 0 + .ra: lr
STACK CFI 827ac .cfa: sp 4 +
STACK CFI 827b8 r4: .cfa -4 + ^
STACK CFI INIT 8280c 7c .cfa: sp 0 + .ra: lr
STACK CFI 82818 .cfa: sp 4 +
STACK CFI 8281c r4: .cfa -4 + ^
STACK CFI INIT 82888 38 .cfa: sp 0 + .ra: lr
STACK CFI 8288c .cfa: sp 16 +
STACK CFI 82890 .ra: .cfa -4 + ^ r3: .cfa -16 + ^ r4: .cfa -12 + ^ r5: .cfa -8 + ^
STACK CFI INIT 828c0 7c .cfa: sp 0 + .ra: lr
STACK CFI 828c8 .cfa: sp 8 +
STACK CFI 828d0 r4: .cfa -8 + ^ r5: .cfa -4 + ^
STACK CFI INIT 8293c 8c .cfa: sp 0 + .ra: lr
STACK CFI 82948 .cfa: sp 12 +
STACK CFI 82950 r4: .cfa -12 + ^ r5: .cfa -8 + ^ r6: .cfa -4 + ^
STACK CFI INIT 829c8 2cc .cfa: sp 0 + .ra: lr
STACK CFI 829d0 .cfa: sp 16 +
STACK CFI 829dc r4: .cfa -16 + ^ r5: .cfa -12 + ^ r6: .cfa -8 + ^ r7: .cfa -4 + ^
STACK CFI INIT 82c94 bc .cfa: sp 0 + .ra: lr
STACK CFI 82c9c .cfa: sp 16 +
STACK CFI 82ca0 .ra: .cfa -4 + ^ r4: .cfa -16 + ^ r5: .cfa -12 + ^ r6: .cfa -8 + ^
STACK CFI INIT 117354 24 .cfa: sp 0 + .ra: lr
STACK CFI 11735c .cfa: sp 4 +
STACK CFI 117360 .ra: .cfa -4 + ^
STACK CFI INIT 82d50 40 .cfa: sp 0 + .ra: lr
STACK CFI 82d54 .cfa: sp 16 +
STACK CFI 82d58 .ra: .cfa -4 + ^ r3: .cfa -16 + ^ r4: .cfa -12 + ^ r5: .cfa -8 + ^
STACK CFI INIT 82d90 a8 .cfa: sp 0 + .ra: lr
STACK CFI 82d94 .cfa: sp 24 +
STACK CFI 82d98 .ra: .cfa -4 + ^ r4: .cfa -24 + ^ r5: .cfa -20 + ^ r6: .cfa -16 + ^ r7: .cfa -12 + ^ r8: .cfa -8 + ^
STACK CFI INIT 82e38 198 .cfa: sp 0 + .ra: lr
STACK CFI 82e3c .cfa: sp 24 +
STACK CFI 82e44 r10: .cfa -4 + ^ r4: .cfa -24 + ^ r5: .cfa -20 + ^ r6: .cfa -16 + ^ r7: .cfa -12 + ^ r8: .cfa -8 + ^
STACK CFI INIT 82fd0 48 .cfa: sp 0 + .ra: lr
STACK CFI 82fd4 .cfa: sp 8 + .ra: .cfa -4 + ^ r3: .cfa -8 + ^
STACK CFI INIT 83018 30 .cfa: sp 0 + .ra: lr
STACK CFI 8301c .cfa: sp 16 +
STACK CFI 83020 .ra: .cfa -4 + ^ r4: .cfa -16 + ^ r5: .cfa -12 + ^ r6: .cfa -8 + ^
STACK CFI INIT 83048 cc .cfa: sp 0 + .ra: lr
STACK CFI 8304c .cfa: sp 36 +
STACK CFI 83050 .ra: .cfa -4 + ^ r10: .cfa -12 + ^ r11: .cfa -8 + ^ r4: .cfa -36 + ^ r5: .cfa -32 + ^ r6: .cfa -28 + ^ r7: .cfa -24 + ^ r8: .cfa -20 + ^ r9: .cfa -16 + ^
STACK CFI 83054 .cfa: sp 48 +
STACK CFI INIT 83114 cc .cfa: sp 0 + .ra: lr
STACK CFI 83118 .cfa: sp 32 +
STACK CFI 8311c .ra: .cfa -4 + ^ r10: .cfa -8 + ^ r4: .cfa -32 + ^ r5: .cfa -28 + ^ r6: .cfa -24 + ^ r7: .cfa -20 + ^ r8: .cfa -16 + ^ r9: .cfa -12 + ^
STACK CFI INIT 831e0 74 .cfa: sp 0 + .ra: lr
STACK CFI 831e4 .cfa: sp 24 +
STACK CFI 831e8 .ra: .cfa -4 + ^ r4: .cfa -24 + ^ r5: .cfa -20 + ^ r6: .cfa -16 + ^ r7: .cfa -12 + ^ r8: .cfa -8 + ^
STACK CFI INIT 83260 308 .cfa: sp 0 + .ra: lr
STACK CFI 83264 .cfa: sp 12 + .ra: .cfa -4 + ^ r4: .cfa -8 + ^
STACK CFI 83268 .cfa: sp 40 +
STACK CFI 832ac r10: .cfa -20 + ^ r11: .cfa -16 + ^ r5: .cfa -40 + ^ r6: .cfa -36 + ^ r7: .cfa -32 + ^ r8: .cfa -28 + ^ r9: .cfa -24 + ^
STACK CFI 8334c .cfa: sp 12 + r10: r10 r11: r11 r5: r5 r6: r6 r7: r7 r8: r8 r9: r9
STACK CFI 83350 .cfa: sp 0 + .ra: .ra r4: r4
STACK CFI 83360 r10: .cfa 20 + ^ r11: .cfa 24 + ^ r5: .cfa 0 + ^ r6: .cfa 4 + ^ r7: .cfa 8 + ^ r8: .cfa 12 + ^ r9: .cfa 16 + ^
STACK CFI 83540 r10: r10 r11: r11 r5: r5 r6: r6 r7: r7 r8: r8 r9: r9
STACK CFI 83560 .cfa: sp -28 +
STACK CFI 83564 .cfa: sp -40 + .ra: .ra r4: r4
STACK CFI INIT 83570 8 .cfa: sp 0 + .ra: lr
STACK CFI INIT 83578 d0 .cfa: sp 0 + .ra: lr
STACK CFI 83580 .cfa: sp 4 +
STACK CFI 83588 r4: .cfa -4 + ^
STACK CFI INIT 83648 28 .cfa: sp 0 + .ra: lr
STACK CFI INIT 83670 28 .cfa: sp 0 + .ra: lr
STACK CFI INIT 83698 28 .cfa: sp 0 + .ra: lr
STACK CFI INIT 836c0 20 .cfa: sp 0 + .ra: lr
STACK CFI INIT 836e0 50 .cfa: sp 0 + .ra: lr
STACK CFI 836e8 .cfa: sp 16 +
STACK CFI 836f0 .ra: .cfa -4 + ^ r4: .cfa -16 + ^ r5: .cfa -12 + ^ r6: .cfa -8 + ^
STACK CFI INIT 83730 34 .cfa: sp 0 + .ra: lr
STACK CFI 83734 .cfa: sp 16 +
STACK CFI 83738 .ra: .cfa -4 + ^ r4: .cfa -16 + ^ r5: .cfa -12 + ^ r6: .cfa -8 + ^
STACK CFI INIT 83764 94 .cfa: sp 0 + .ra: lr
STACK CFI INIT 837f8 1fc .cfa: sp 0 + .ra: lr
STACK CFI 837fc .cfa: sp 12 +
STACK CFI 83800 r4: .cfa -12 + ^ r5: .cfa -8 + ^ r6: .cfa -4 + ^
STACK CFI INIT 839f4 16c .cfa: sp 0 + .ra: lr
STACK CFI 83a00 .cfa: sp 8 +
STACK CFI 83a08 r4: .cfa -8 + ^ r5: .cfa -4 + ^
STACK CFI INIT 83b60 260 .cfa: sp 0 + .ra: lr
STACK CFI 83b68 .cfa: sp 12 +
STACK CFI 83b70 r4: .cfa -12 + ^ r5: .cfa -8 + ^ r6: .cfa -4 + ^
STACK CFI INIT 83dc0 58 .cfa: sp 0 + .ra: lr
STACK CFI 83dc4 .cfa: sp 16 +
STACK CFI 83dc8 .ra: .cfa -4 + ^ r3: .cfa -16 + ^ r4: .cfa -12 + ^ r5: .cfa -8 + ^
STACK CFI INIT 83e18 24 .cfa: sp 0 + .ra: lr
STACK CFI INIT 83e3c 6c .cfa: sp 0 + .ra: lr
STACK CFI 83e44 .cfa: sp 8 +
STACK CFI 83e50 r4: .cfa -8 + ^ r5: .cfa -4 + ^
STACK CFI INIT 83ea8 90 .cfa: sp 0 + .ra: lr
STACK CFI 83eac .cfa: sp 16 +
STACK CFI 83eb0 .ra: .cfa -4 + ^ r4: .cfa -16 + ^ r5: .cfa -12 + ^ r6: .cfa -8 + ^
STACK CFI INIT 83f38 164 .cfa: sp 0 + .ra: lr
STACK CFI 83f40 .cfa: sp 32 +
STACK CFI 83f48 .cfa: sp 40 +
STACK CFI 83f4c r10: .cfa -8 + ^ r11: .cfa -4 + ^ r4: .cfa -32 + ^ r5: .cfa -28 + ^ r6: .cfa -24 + ^ r7: .cfa -20 + ^ r8: .cfa -16 + ^ r9: .cfa -12 + ^
STACK CFI INIT 8409c 154 .cfa: sp 0 + .ra: lr
STACK CFI 840a4 .cfa: sp 4 +
STACK CFI 840a8 r4: .cfa -4 + ^
STACK CFI INIT 841f0 180 .cfa: sp 0 + .ra: lr
STACK CFI 841f8 .cfa: sp 4 +
STACK CFI 841fc r4: .cfa -4 + ^
STACK CFI INIT 84370 8 .cfa: sp 0 + .ra: lr
STACK CFI INIT 84378 24 .cfa: sp 0 + .ra: lr
STACK CFI INIT 8439c 26c .cfa: sp 0 + .ra: lr
STACK CFI 843a4 .cfa: sp 8 +
STACK CFI 843a8 r4: .cfa -8 + ^ r5: .cfa -4 + ^
STACK CFI INIT 84608 8 .cfa: sp 0 + .ra: lr
STACK CFI INIT 84610 14c .cfa: sp 0 + .ra: lr
STACK CFI 84620 .cfa: sp 20 +
STACK CFI 84624 .ra: .cfa -4 + ^ r4: .cfa -20 + ^ r5: .cfa -16 + ^ r6: .cfa -12 + ^ r7: .cfa -8 + ^
STACK CFI 84628 .cfa: sp 96 +
STACK CFI INIT 8475c 140 .cfa: sp 0 + .ra: lr
STACK CFI 84764 .cfa: sp 24 +
STACK CFI 84768 .ra: .cfa -4 + ^ r4: .cfa -24 + ^ r5: .cfa -20 + ^ r6: .cfa -16 + ^ r7: .cfa -12 + ^ r8: .cfa -8 + ^
STACK CFI 8476c .cfa: sp 104 +
STACK CFI INIT 8489c 20 .cfa: sp 0 + .ra: lr
STACK CFI INIT 848bc 2c .cfa: sp 0 + .ra: lr
STACK CFI INIT 848e8 220 .cfa: sp 0 + .ra: lr
STACK CFI 848ec .cfa: sp 24 +
STACK CFI 848f0 .ra: .cfa -4 + ^ r4: .cfa -24 + ^ r5: .cfa -20 + ^ r6: .cfa -16 + ^ r7: .cfa -12 + ^ r8: .cfa -8 + ^
STACK CFI 848f4 .cfa: sp 88 +
STACK CFI INIT 84b08 21c .cfa: sp 0 + .ra: lr
STACK CFI 84b0c .cfa: sp 24 +
STACK CFI 84b14 .cfa: r11 4 + .ra: .cfa -4 + ^ r11: .cfa -8 + ^ r4: .cfa -24 + ^ r5: .cfa -20 + ^ r6: .cfa -16 + ^ r7: .cfa -12 + ^
STACK CFI INIT 84d24 4c .cfa: sp 0 + .ra: lr
STACK CFI 84d2c .cfa: sp 8 +
STACK CFI 84d30 .ra: .cfa -4 + ^ r4: .cfa -8 + ^
STACK CFI 84d34 .cfa: sp 16 +
STACK CFI INIT 84d70 308 .cfa: sp 0 + .ra: lr
STACK CFI 84d74 .cfa: sp 36 +
STACK CFI 84d7c .cfa: sp 376 +
STACK CFI 84d80 .ra: .cfa -4 + ^ r10: .cfa -12 + ^ r11: .cfa -8 + ^ r4: .cfa -36 + ^ r5: .cfa -32 + ^ r6: .cfa -28 + ^ r7: .cfa -24 + ^ r8: .cfa -20 + ^ r9: .cfa -16 + ^
STACK CFI INIT 85078 2f0 .cfa: sp 0 + .ra: lr
STACK CFI 8507c .cfa: sp 36 +
STACK CFI 85080 .cfa: sp 368 +
STACK CFI 85088 .ra: .cfa -4 + ^ r10: .cfa -12 + ^ r11: .cfa -8 + ^ r4: .cfa -36 + ^ r5: .cfa -32 + ^ r6: .cfa -28 + ^ r7: .cfa -24 + ^ r8: .cfa -20 + ^ r9: .cfa -16 + ^
STACK CFI INIT 85368 2d8 .cfa: sp 0 + .ra: lr
STACK CFI 8536c .cfa: sp 36 +
STACK CFI 85370 .cfa: sp 368 +
STACK CFI 85378 .ra: .cfa -4 + ^ r10: .cfa -12 + ^ r11: .cfa -8 + ^ r4: .cfa -36 + ^ r5: .cfa -32 + ^ r6: .cfa -28 + ^ r7: .cfa -24 + ^ r8: .cfa -20 + ^ r9: .cfa -16 + ^
STACK CFI INIT 85640 1f0 .cfa: sp 0 + .ra: lr
STACK CFI INIT 85830 38 .cfa: sp 0 + .ra: lr
STACK CFI INIT 85868 34 .cfa: sp 0 + .ra: lr
STACK CFI 8586c .cfa: sp 12 +
STACK CFI 85870 .ra: .cfa -4 + ^ r4: .cfa -12 + ^ r5: .cfa -8 + ^
STACK CFI 85884 .cfa: sp 24 +
STACK CFI INIT 8589c 38 .cfa: sp 0 + .ra: lr
STACK CFI 858a0 .cfa: sp 8 +
STACK CFI 858a4 .ra: .cfa -4 + ^ r4: .cfa -8 + ^
STACK CFI 858ac .cfa: sp 16 +
STACK CFI INIT 858d4 34 .cfa: sp 0 + .ra: lr
STACK CFI 858d8 .cfa: sp 12 +
STACK CFI 858dc .ra: .cfa -4 + ^ r4: .cfa -12 + ^ r5: .cfa -8 + ^
STACK CFI 858f0 .cfa: sp 24 +
STACK CFI INIT 85908 38 .cfa: sp 0 + .ra: lr
STACK CFI 8590c .cfa: sp 8 +
STACK CFI 85910 .ra: .cfa -4 + ^ r4: .cfa -8 + ^
STACK CFI 85918 .cfa: sp 16 +
STACK CFI INIT 85940 34 .cfa: sp 0 + .ra: lr
STACK CFI 85944 .cfa: sp 12 +
STACK CFI 85948 .ra: .cfa -4 + ^ r4: .cfa -12 + ^ r5: .cfa -8 + ^
STACK CFI 8595c .cfa: sp 24 +
STACK CFI INIT 85974 38 .cfa: sp 0 + .ra: lr
STACK CFI 85978 .cfa: sp 8 +
STACK CFI 8597c .ra: .cfa -4 + ^ r4: .cfa -8 + ^
STACK CFI 85984 .cfa: sp 16 +
STACK CFI INIT 859ac 34 .cfa: sp 0 + .ra: lr
STACK CFI 859b0 .cfa: sp 12 +
STACK CFI 859b4 .ra: .cfa -4 + ^ r4: .cfa -12 + ^ r5: .cfa -8 + ^
STACK CFI 859c8 .cfa: sp 24 +
STACK CFI INIT 859e0 38 .cfa: sp 0 + .ra: lr
STACK CFI 859e4 .cfa: sp 8 +
STACK CFI 859e8 .ra: .cfa -4 + ^ r4: .cfa -8 + ^
STACK CFI 859f0 .cfa: sp 16 +
STACK CFI INIT 85a18 28 .cfa: sp 0 + .ra: lr
STACK CFI 85a1c .cfa: sp 8 +
STACK CFI 85a20 .ra: .cfa -4 + ^ r4: .cfa -8 + ^
STACK CFI INIT 85a40 2c .cfa: sp 0 + .ra: lr
STACK CFI 85a44 .cfa: sp 8 +
STACK CFI 85a48 .ra: .cfa -4 + ^ r4: .cfa -8 + ^
STACK CFI INIT 85a6c 28 .cfa: sp 0 + .ra: lr
STACK CFI 85a70 .cfa: sp 8 +
STACK CFI 85a74 .ra: .cfa -4 + ^ r4: .cfa -8 + ^
STACK CFI INIT 85a94 2c .cfa: sp 0 + .ra: lr
STACK CFI 85a98 .cfa: sp 8 +
STACK CFI 85a9c .ra: .cfa -4 + ^ r4: .cfa -8 + ^
STACK CFI INIT 85ac0 28 .cfa: sp 0 + .ra: lr
STACK CFI 85ac4 .cfa: sp 8 +
STACK CFI 85ac8 .ra: .cfa -4 + ^ r4: .cfa -8 + ^
STACK CFI INIT 85ae8 2c .cfa: sp 0 + .ra: lr
STACK CFI 85aec .cfa: sp 8 +
STACK CFI 85af0 .ra: .cfa -4 + ^ r4: .cfa -8 + ^
STACK CFI INIT 85b14 584 .cfa: sp 0 + .ra: lr
STACK CFI 85b18 .cfa: sp 36 +
STACK CFI 85b1c .cfa: sp 80 +
STACK CFI 85b20 .ra: .cfa -4 + ^ r10: .cfa -12 + ^ r11: .cfa -8 + ^ r4: .cfa -36 + ^ r5: .cfa -32 + ^ r6: .cfa -28 + ^ r7: .cfa -24 + ^ r8: .cfa -20 + ^ r9: .cfa -16 + ^
STACK CFI INIT 86098 1c .cfa: sp 0 + .ra: lr
STACK CFI 8609c .cfa: sp 4 +
STACK CFI 860a0 .cfa: sp 16 +
STACK CFI 860a8 .ra: .cfa -4 + ^
STACK CFI INIT 860b4 560 .cfa: sp 0 + .ra: lr
STACK CFI 860b8 .cfa: sp 36 +
STACK CFI 860bc .cfa: sp 80 +
STACK CFI 860c0 .ra: .cfa -4 + ^ r10: .cfa -12 + ^ r11: .cfa -8 + ^ r4: .cfa -36 + ^ r5: .cfa -32 + ^ r6: .cfa -28 + ^ r7: .cfa -24 + ^ r8: .cfa -20 + ^ r9: .cfa -16 + ^
STACK CFI INIT 86614 1c .cfa: sp 0 + .ra: lr
STACK CFI 86618 .cfa: sp 4 +
STACK CFI 8661c .cfa: sp 16 +
STACK CFI 86624 .ra: .cfa -4 + ^
STACK CFI INIT 86630 8ac .cfa: sp 0 + .ra: lr
STACK CFI 86634 .cfa: sp 36 +
STACK CFI 86638 .cfa: sp 112 +
STACK CFI 8663c .ra: .cfa -4 + ^ r10: .cfa -12 + ^ r11: .cfa -8 + ^ r4: .cfa -36 + ^ r5: .cfa -32 + ^ r6: .cfa -28 + ^ r7: .cfa -24 + ^ r8: .cfa -20 + ^ r9: .cfa -16 + ^
STACK CFI INIT 86edc 1c .cfa: sp 0 + .ra: lr
STACK CFI 86ee0 .cfa: sp 4 +
STACK CFI 86ee4 .cfa: sp 16 +
STACK CFI 86eec .ra: .cfa -4 + ^
STACK CFI INIT 86ef8 894 .cfa: sp 0 + .ra: lr
STACK CFI 86efc .cfa: sp 36 +
STACK CFI 86f00 .cfa: sp 104 +
STACK CFI 86f04 .ra: .cfa -4 + ^ r10: .cfa -12 + ^ r11: .cfa -8 + ^ r4: .cfa -36 + ^ r5: .cfa -32 + ^ r6: .cfa -28 + ^ r7: .cfa -24 + ^ r8: .cfa -20 + ^ r9: .cfa -16 + ^
STACK CFI INIT 8778c 1c .cfa: sp 0 + .ra: lr
STACK CFI 87790 .cfa: sp 4 +
STACK CFI 87794 .cfa: sp 16 +
STACK CFI 8779c .ra: .cfa -4 + ^
STACK CFI INIT 877a8 298 .cfa: sp 0 + .ra: lr
STACK CFI 877ac .cfa: sp 40 +
STACK CFI 877b0 .ra: .cfa -4 + ^ r10: .cfa -12 + ^ r11: .cfa -8 + ^ r3: .cfa -40 + ^ r4: .cfa -36 + ^ r5: .cfa -32 + ^ r6: .cfa -28 + ^ r7: .cfa -24 + ^ r8: .cfa -20 + ^ r9: .cfa -16 + ^
STACK CFI INIT 87a40 200 .cfa: sp 0 + .ra: lr
STACK CFI 87a44 .cfa: sp 32 +
STACK CFI 87a48 .ra: .cfa -4 + ^ r10: .cfa -8 + ^ r4: .cfa -32 + ^ r5: .cfa -28 + ^ r6: .cfa -24 + ^ r7: .cfa -20 + ^ r8: .cfa -16 + ^ r9: .cfa -12 + ^
STACK CFI INIT 87c40 1fd0 .cfa: sp 0 + .ra: lr
STACK CFI 87c44 .cfa: sp 36 +
STACK CFI 87c4c .cfa: sp 432 +
STACK CFI 87c50 .ra: .cfa -4 + ^ r10: .cfa -12 + ^ r11: .cfa -8 + ^ r4: .cfa -36 + ^ r5: .cfa -32 + ^ r6: .cfa -28 + ^ r7: .cfa -24 + ^ r8: .cfa -20 + ^ r9: .cfa -16 + ^
STACK CFI INIT 89c10 c .cfa: sp 0 + .ra: lr
STACK CFI INIT 89c1c 4 .cfa: sp 0 + .ra: lr
STACK CFI INIT 89c20 c .cfa: sp 0 + .ra: lr
STACK CFI INIT 89c2c 298 .cfa: sp 0 + .ra: lr
STACK CFI 89c30 .cfa: sp 40 +
STACK CFI 89c34 .ra: .cfa -4 + ^ r10: .cfa -12 + ^ r11: .cfa -8 + ^ r3: .cfa -40 + ^ r4: .cfa -36 + ^ r5: .cfa -32 + ^ r6: .cfa -28 + ^ r7: .cfa -24 + ^ r8: .cfa -20 + ^ r9: .cfa -16 + ^
STACK CFI INIT 89ec4 160 .cfa: sp 0 + .ra: lr
STACK CFI 89ec8 .cfa: sp 32 +
STACK CFI 89ed0 .ra: .cfa -4 + ^ r10: .cfa -8 + ^ r4: .cfa -32 + ^ r5: .cfa -28 + ^ r6: .cfa -24 + ^ r7: .cfa -20 + ^ r8: .cfa -16 + ^ r9: .cfa -12 + ^
STACK CFI INIT 8a024 1db4 .cfa: sp 0 + .ra: lr
STACK CFI 8a028 .cfa: sp 36 +
STACK CFI 8a030 .cfa: sp 184 +
STACK CFI 8a034 .ra: .cfa -4 + ^ r10: .cfa -12 + ^ r11: .cfa -8 + ^ r4: .cfa -36 + ^ r5: .cfa -32 + ^ r6: .cfa -28 + ^ r7: .cfa -24 + ^ r8: .cfa -20 + ^ r9: .cfa -16 + ^
STACK CFI INIT 8bdd8 c .cfa: sp 0 + .ra: lr
STACK CFI INIT 8bde4 28 .cfa: sp 0 + .ra: lr
STACK CFI 8bdf0 .cfa: sp 4 +
STACK CFI 8bdf8 .ra: .cfa -4 + ^
STACK CFI INIT 8be0c 28 .cfa: sp 0 + .ra: lr
STACK CFI 8be10 .cfa: sp 8 +
STACK CFI 8be14 .ra: .cfa -4 + ^ r4: .cfa -8 + ^
STACK CFI INIT 8be34 90 .cfa: sp 0 + .ra: lr
STACK CFI 8be38 .cfa: sp 4 +
STACK CFI 8be3c .ra: .cfa -4 + ^
STACK CFI INIT 8bec4 190 .cfa: sp 0 + .ra: lr
STACK CFI 8bed0 .cfa: sp 28 +
STACK CFI 8bed8 .ra: .cfa -4 + ^ r10: .cfa -8 + ^ r4: .cfa -28 + ^ r5: .cfa -24 + ^ r6: .cfa -20 + ^ r7: .cfa -16 + ^ r8: .cfa -12 + ^
STACK CFI INIT 8c054 dbc .cfa: sp 0 + .ra: lr
STACK CFI 8c058 .cfa: sp 36 +
STACK CFI 8c05c .cfa: r11 4 + .ra: .cfa -4 + ^ r10: .cfa -12 + ^ r11: .cfa -8 + ^ r4: .cfa -36 + ^ r5: .cfa -32 + ^ r6: .cfa -28 + ^ r7: .cfa -24 + ^ r8: .cfa -20 + ^ r9: .cfa -16 + ^
STACK CFI INIT 8ce10 b18 .cfa: sp 0 + .ra: lr
STACK CFI 8ce14 .cfa: sp 36 +
STACK CFI 8ce18 .cfa: r11 4 + .ra: .cfa -4 + ^ r10: .cfa -12 + ^ r11: .cfa -8 + ^ r4: .cfa -36 + ^ r5: .cfa -32 + ^ r6: .cfa -28 + ^ r7: .cfa -24 + ^ r8: .cfa -20 + ^ r9: .cfa -16 + ^
STACK CFI INIT 8d928 4c .cfa: sp 0 + .ra: lr
STACK CFI 8d930 .cfa: sp 16 +
STACK CFI 8d934 .ra: .cfa -4 + ^ r4: .cfa -16 + ^ r5: .cfa -12 + ^ r6: .cfa -8 + ^
STACK CFI INIT 8d974 110 .cfa: sp 0 + .ra: lr
STACK CFI 8d980 .cfa: sp 32 +
STACK CFI 8d984 .ra: .cfa -4 + ^ r10: .cfa -8 + ^ r3: .cfa -32 + ^ r4: .cfa -28 + ^ r5: .cfa -24 + ^ r6: .cfa -20 + ^ r7: .cfa -16 + ^ r8: .cfa -12 + ^
STACK CFI INIT 8da84 54 .cfa: sp 0 + .ra: lr
STACK CFI 8da8c .cfa: sp 24 +
STACK CFI 8da90 .ra: .cfa -4 + ^ r3: .cfa -24 + ^ r4: .cfa -20 + ^ r5: .cfa -16 + ^ r6: .cfa -12 + ^ r7: .cfa -8 + ^
STACK CFI INIT 8dad8 134 .cfa: sp 0 + .ra: lr
STACK CFI 8dae4 .cfa: sp 32 +
STACK CFI 8daec .ra: .cfa -4 + ^ r10: .cfa -8 + ^ r4: .cfa -32 + ^ r5: .cfa -28 + ^ r6: .cfa -24 + ^ r7: .cfa -20 + ^ r8: .cfa -16 + ^ r9: .cfa -12 + ^
STACK CFI INIT 8dc0c 3c .cfa: sp 0 + .ra: lr
STACK CFI 8dc10 .cfa: sp 8 +
STACK CFI 8dc14 .ra: .cfa -4 + ^ r4: .cfa -8 + ^
STACK CFI INIT 8dc48 58 .cfa: sp 0 + .ra: lr
STACK CFI 8dc4c .cfa: sp 16 +
STACK CFI 8dc50 .cfa: sp 32 +
STACK CFI 8dc54 .ra: .cfa -4 + ^ r4: .cfa -16 + ^ r5: .cfa -12 + ^ r6: .cfa -8 + ^
STACK CFI INIT 8dca0 220 .cfa: sp 0 + .ra: lr
STACK CFI 8dca4 .cfa: sp 32 +
STACK CFI 8dca8 .ra: .cfa -4 + ^ r10: .cfa -12 + ^ r11: .cfa -8 + ^ r4: .cfa -32 + ^ r5: .cfa -28 + ^ r6: .cfa -24 + ^ r7: .cfa -20 + ^ r8: .cfa -16 + ^
STACK CFI 8dcb0 .cfa: r11 4 +
STACK CFI INIT 8dec0 98 .cfa: sp 0 + .ra: lr
STACK CFI 8dec4 .cfa: sp 16 +
STACK CFI 8dec8 .ra: .cfa -4 + ^ r3: .cfa -16 + ^ r4: .cfa -12 + ^ r5: .cfa -8 + ^
STACK CFI INIT 8df58 80 .cfa: sp 0 + .ra: lr
STACK CFI 8df5c .cfa: sp 16 +
STACK CFI 8df60 .ra: .cfa -4 + ^ r4: .cfa -16 + ^ r5: .cfa -12 + ^ r6: .cfa -8 + ^
STACK CFI INIT 8dfd8 3ac .cfa: sp 0 + .ra: lr
STACK CFI 8dfdc .cfa: sp 36 +
STACK CFI 8dfe0 .cfa: sp 376 +
STACK CFI 8dfe8 .ra: .cfa -4 + ^ r10: .cfa -12 + ^ r11: .cfa -8 + ^ r4: .cfa -36 + ^ r5: .cfa -32 + ^ r6: .cfa -28 + ^ r7: .cfa -24 + ^ r8: .cfa -20 + ^ r9: .cfa -16 + ^
STACK CFI INIT 8e384 30 .cfa: sp 0 + .ra: lr
STACK CFI 8e388 .cfa: sp 12 +
STACK CFI 8e38c .cfa: sp 16 +
STACK CFI 8e390 .cfa: sp 24 +
STACK CFI 8e394 .ra: .cfa -16 + ^ r1: .cfa -12 + ^ r2: .cfa -8 + ^ r3: .cfa -4 + ^
STACK CFI INIT 8e3b4 88 .cfa: sp 0 + .ra: lr
STACK CFI 8e3bc .cfa: sp 20 +
STACK CFI 8e3c0 .ra: .cfa -4 + ^ r4: .cfa -20 + ^ r5: .cfa -16 + ^ r6: .cfa -12 + ^ r7: .cfa -8 + ^
STACK CFI 8e3c4 .cfa: sp 392 +
STACK CFI INIT 8e43c 22c .cfa: sp 0 + .ra: lr
STACK CFI 8e440 .cfa: sp 16 +
STACK CFI 8e444 r0: .cfa -16 + ^ r1: .cfa -12 + ^ r2: .cfa -8 + ^ r3: .cfa -4 + ^
STACK CFI 8e450 .cfa: sp 40 +
STACK CFI 8e454 .ra: .cfa -20 + ^ r4: .cfa -40 + ^ r5: .cfa -36 + ^ r6: .cfa -32 + ^ r7: .cfa -28 + ^ r8: .cfa -24 + ^
STACK CFI 8e458 .cfa: sp 48 +
STACK CFI INIT 8e668 218 .cfa: sp 0 + .ra: lr
STACK CFI 8e678 .cfa: sp 32 +
STACK CFI 8e67c .ra: .cfa -4 + ^ r10: .cfa -8 + ^ r4: .cfa -32 + ^ r5: .cfa -28 + ^ r6: .cfa -24 + ^ r7: .cfa -20 + ^ r8: .cfa -16 + ^ r9: .cfa -12 + ^
STACK CFI INIT 8e880 208 .cfa: sp 0 + .ra: lr
STACK CFI 8e884 .cfa: sp 12 +
STACK CFI 8e888 .cfa: sp 36 +
STACK CFI 8e88c .ra: .cfa -16 + ^ r1: .cfa -12 + ^ r2: .cfa -8 + ^ r3: .cfa -4 + ^ r4: .cfa -36 + ^ r5: .cfa -32 + ^ r6: .cfa -28 + ^ r7: .cfa -24 + ^ r8: .cfa -20 + ^
STACK CFI 8e890 .cfa: sp 48 +
STACK CFI INIT 8ea88 1f4 .cfa: sp 0 + .ra: lr
STACK CFI 8ea8c .cfa: sp 32 +
STACK CFI 8ea90 .ra: .cfa -4 + ^ r10: .cfa -8 + ^ r3: .cfa -32 + ^ r4: .cfa -28 + ^ r5: .cfa -24 + ^ r6: .cfa -20 + ^ r7: .cfa -16 + ^ r8: .cfa -12 + ^
STACK CFI INIT 8ec7c 3c4 .cfa: sp 0 + .ra: lr
STACK CFI 8ec80 .cfa: sp 32 +
STACK CFI 8ec84 r10: .cfa -8 + ^ r11: .cfa -4 + ^ r4: .cfa -32 + ^ r5: .cfa -28 + ^ r6: .cfa -24 + ^ r7: .cfa -20 + ^ r8: .cfa -16 + ^ r9: .cfa -12 + ^
STACK CFI 8eca4 .cfa: sp 48 +
STACK CFI INIT 8f040 124 .cfa: sp 0 + .ra: lr
STACK CFI 8f044 .cfa: sp 16 +
STACK CFI 8f048 .ra: .cfa -4 + ^ r4: .cfa -16 + ^ r5: .cfa -12 + ^ r6: .cfa -8 + ^
STACK CFI 8f04c .cfa: sp 40 +
STACK CFI INIT 8f164 8 .cfa: sp 0 + .ra: lr
STACK CFI INIT 8f16c 14 .cfa: sp 0 + .ra: lr
STACK CFI INIT 8f180 70 .cfa: sp 0 + .ra: lr
STACK CFI 8f184 .cfa: sp 8 +
STACK CFI 8f18c .cfa: sp 24 + .ra: .cfa -4 + ^ r4: .cfa -8 + ^
STACK CFI INIT 8f1f0 10 .cfa: sp 0 + .ra: lr
STACK CFI 8f1f4 .cfa: sp 8 + .ra: .cfa -4 + ^ r4: .cfa -8 + ^
STACK CFI INIT 8f200 24 .cfa: sp 0 + .ra: lr
STACK CFI 8f204 .cfa: sp 8 +
STACK CFI 8f208 .cfa: sp 56 +
STACK CFI 8f20c .ra: .cfa -4 + ^ r4: .cfa -8 + ^
STACK CFI INIT 8f224 34 .cfa: sp 0 + .ra: lr
STACK CFI 8f228 .cfa: sp 16 +
STACK CFI 8f22c .ra: .cfa -4 + ^ r4: .cfa -16 + ^ r5: .cfa -12 + ^ r6: .cfa -8 + ^
STACK CFI INIT 8f258 c .cfa: sp 0 + .ra: lr
STACK CFI INIT 8f264 14 .cfa: sp 0 + .ra: lr
STACK CFI INIT 8f278 c .cfa: sp 0 + .ra: lr
STACK CFI INIT 8f284 14 .cfa: sp 0 + .ra: lr
STACK CFI INIT 8f298 c8 .cfa: sp 0 + .ra: lr
STACK CFI 8f29c .cfa: sp 32 +
STACK CFI 8f2a0 .ra: .cfa -4 + ^ r10: .cfa -8 + ^ r3: .cfa -32 + ^ r4: .cfa -28 + ^ r5: .cfa -24 + ^ r6: .cfa -20 + ^ r7: .cfa -16 + ^ r8: .cfa -12 + ^
STACK CFI INIT 8f360 12c .cfa: sp 0 + .ra: lr
STACK CFI 8f364 .cfa: sp 32 +
STACK CFI 8f36c r10: .cfa -8 + ^ r11: .cfa -4 + ^ r4: .cfa -32 + ^ r5: .cfa -28 + ^ r6: .cfa -24 + ^ r7: .cfa -20 + ^ r8: .cfa -16 + ^ r9: .cfa -12 + ^
STACK CFI INIT 8f48c 998 .cfa: sp 0 + .ra: lr
STACK CFI 8f490 .cfa: sp 36 +
STACK CFI 8f494 .ra: .cfa -4 + ^ r10: .cfa -12 + ^ r11: .cfa -8 + ^ r4: .cfa -36 + ^ r5: .cfa -32 + ^ r6: .cfa -28 + ^ r7: .cfa -24 + ^ r8: .cfa -20 + ^ r9: .cfa -16 + ^
STACK CFI 8f4c8 .cfa: sp 208 +
STACK CFI INIT 8fe24 30 .cfa: sp 0 + .ra: lr
STACK CFI 8fe28 .cfa: sp 8 +
STACK CFI 8fe2c .ra: .cfa -4 + ^ r4: .cfa -8 + ^
STACK CFI INIT 8fe54 34 .cfa: sp 0 + .ra: lr
STACK CFI 8fe58 .cfa: sp 8 +
STACK CFI 8fe5c .cfa: sp 16 +
STACK CFI 8fe60 .ra: .cfa -4 + ^ r4: .cfa -8 + ^
STACK CFI INIT 8fe90 1c .cfa: sp 0 + .ra: lr
STACK CFI 8fe94 r7: r12
STACK CFI 8fea0 r7: r7
STACK CFI INIT 8feb0 1c .cfa: sp 0 + .ra: lr
STACK CFI 8feb4 r7: r12
STACK CFI 8fec0 r7: r7
STACK CFI INIT 8fed0 178 .cfa: sp 0 + .ra: lr
STACK CFI 8fed4 .cfa: sp 28 +
STACK CFI 8fed8 .ra: .cfa -4 + ^ r10: .cfa -8 + ^ r4: .cfa -28 + ^ r5: .cfa -24 + ^ r6: .cfa -20 + ^ r7: .cfa -16 + ^ r8: .cfa -12 + ^
STACK CFI 8fedc .cfa: sp 160 +
STACK CFI INIT 90048 2c .cfa: sp 0 + .ra: lr
STACK CFI INIT 90074 2e0 .cfa: sp 0 + .ra: lr
STACK CFI 9007c .cfa: sp 24 +
STACK CFI 90080 r10: .cfa -4 + ^ r4: .cfa -24 + ^ r5: .cfa -20 + ^ r6: .cfa -16 + ^ r7: .cfa -12 + ^ r8: .cfa -8 + ^
STACK CFI INIT 116dac 54 .cfa: sp 0 + .ra: lr
STACK CFI 116db0 .cfa: sp 16 +
STACK CFI 116db4 .ra: .cfa -4 + ^ r3: .cfa -16 + ^ r4: .cfa -12 + ^ r5: .cfa -8 + ^
STACK CFI INIT 90354 b4 .cfa: sp 0 + .ra: lr
STACK CFI 9035c .cfa: sp 16 +
STACK CFI 90364 .ra: .cfa -4 + ^ r3: .cfa -16 + ^ r4: .cfa -12 + ^ r5: .cfa -8 + ^
STACK CFI INIT 90408 b8 .cfa: sp 0 + .ra: lr
STACK CFI 9040c .cfa: sp 24 +
STACK CFI 90410 .ra: .cfa -4 + ^ r4: .cfa -24 + ^ r5: .cfa -20 + ^ r6: .cfa -16 + ^ r7: .cfa -12 + ^ r8: .cfa -8 + ^
STACK CFI INIT 904c0 9d8 .cfa: sp 0 + .ra: lr
STACK CFI 904c4 .cfa: sp 36 +
STACK CFI 904c8 .ra: .cfa -4 + ^ r10: .cfa -12 + ^ r11: .cfa -8 + ^ r4: .cfa -36 + ^ r5: .cfa -32 + ^ r6: .cfa -28 + ^ r7: .cfa -24 + ^ r8: .cfa -20 + ^ r9: .cfa -16 + ^
STACK CFI 904d0 .cfa: r11 4 +
STACK CFI INIT 90e98 1c0 .cfa: sp 0 + .ra: lr
STACK CFI 90e9c .cfa: sp 24 +
STACK CFI 90ea0 .ra: .cfa -4 + ^ r4: .cfa -24 + ^ r5: .cfa -20 + ^ r6: .cfa -16 + ^ r7: .cfa -12 + ^ r8: .cfa -8 + ^
STACK CFI INIT 91058 e8 .cfa: sp 0 + .ra: lr
STACK CFI 91060 .cfa: sp 24 +
STACK CFI 91070 .ra: .cfa -4 + ^ r3: .cfa -24 + ^ r4: .cfa -20 + ^ r5: .cfa -16 + ^ r6: .cfa -12 + ^ r7: .cfa -8 + ^
STACK CFI INIT 91140 d0 .cfa: sp 0 + .ra: lr
STACK CFI 91144 .cfa: sp 24 +
STACK CFI 91148 .ra: .cfa -4 + ^ r4: .cfa -24 + ^ r5: .cfa -20 + ^ r6: .cfa -16 + ^ r7: .cfa -12 + ^ r8: .cfa -8 + ^
STACK CFI INIT 91210 128 .cfa: sp 0 + .ra: lr
STACK CFI 91218 .cfa: sp 24 +
STACK CFI 9121c .ra: .cfa -4 + ^ r3: .cfa -24 + ^ r4: .cfa -20 + ^ r5: .cfa -16 + ^ r6: .cfa -12 + ^ r7: .cfa -8 + ^
STACK CFI INIT 91338 204 .cfa: sp 0 + .ra: lr
STACK CFI 9133c .cfa: sp 24 +
STACK CFI 91340 .ra: .cfa -4 + ^ r4: .cfa -24 + ^ r5: .cfa -20 + ^ r6: .cfa -16 + ^ r7: .cfa -12 + ^ r8: .cfa -8 + ^
STACK CFI 91344 .cfa: sp 40 +
STACK CFI INIT 9153c 6c .cfa: sp 0 + .ra: lr
STACK CFI 91544 .cfa: sp 4 +
STACK CFI 91548 r4: .cfa -4 + ^
STACK CFI INIT 915a8 1390 .cfa: sp 0 + .ra: lr
STACK CFI 915ac .cfa: sp 36 +
STACK CFI 915b0 .ra: .cfa -4 + ^ r10: .cfa -12 + ^ r11: .cfa -8 + ^ r4: .cfa -36 + ^ r5: .cfa -32 + ^ r6: .cfa -28 + ^ r7: .cfa -24 + ^ r8: .cfa -20 + ^ r9: .cfa -16 + ^
STACK CFI 915b4 .cfa: r11 4 +
STACK CFI INIT 92938 27c .cfa: sp 0 + .ra: lr
STACK CFI 9293c .cfa: sp 36 +
STACK CFI 92940 .ra: .cfa -4 + ^ r10: .cfa -12 + ^ r11: .cfa -8 + ^ r4: .cfa -36 + ^ r5: .cfa -32 + ^ r6: .cfa -28 + ^ r7: .cfa -24 + ^ r8: .cfa -20 + ^ r9: .cfa -16 + ^
STACK CFI 92944 .cfa: sp 64 +
STACK CFI INIT 92bb4 700 .cfa: sp 0 + .ra: lr
STACK CFI 92bb8 .cfa: sp 36 +
STACK CFI 92bbc .ra: .cfa -4 + ^ r10: .cfa -12 + ^ r11: .cfa -8 + ^ r4: .cfa -36 + ^ r5: .cfa -32 + ^ r6: .cfa -28 + ^ r7: .cfa -24 + ^ r8: .cfa -20 + ^ r9: .cfa -16 + ^
STACK CFI 92bc0 .cfa: sp 56 +
STACK CFI INIT 932c0 1c .cfa: sp 0 + .ra: lr
STACK CFI 932c4 r7: r12
STACK CFI 932d0 r7: r7
STACK CFI INIT 932e0 1c .cfa: sp 0 + .ra: lr
STACK CFI 932e4 r7: r12
STACK CFI 932f0 r7: r7
STACK CFI INIT 93300 54 .cfa: sp 0 + .ra: lr
STACK CFI 93308 .cfa: sp 4 +
STACK CFI 9330c .cfa: sp 16 +
STACK CFI 93310 .ra: .cfa -4 + ^
STACK CFI INIT 93354 64 .cfa: sp 0 + .ra: lr
STACK CFI INIT 933b8 24 .cfa: sp 0 + .ra: lr
STACK CFI INIT 933dc 84 .cfa: sp 0 + .ra: lr
STACK CFI 933e0 .cfa: sp 8 +
STACK CFI 933e4 .cfa: sp 24 +
STACK CFI 933e8 .ra: .cfa -4 + ^ r4: .cfa -8 + ^
STACK CFI INIT 93460 49c .cfa: sp 0 + .ra: lr
STACK CFI 93464 .cfa: sp 32 +
STACK CFI 93468 .ra: .cfa -4 + ^ r10: .cfa -8 + ^ r4: .cfa -32 + ^ r5: .cfa -28 + ^ r6: .cfa -24 + ^ r7: .cfa -20 + ^ r8: .cfa -16 + ^ r9: .cfa -12 + ^
STACK CFI 93470 .cfa: sp 240 +
STACK CFI INIT 938fc 4c .cfa: sp 0 + .ra: lr
STACK CFI 93900 .cfa: sp 16 +
STACK CFI 93904 .ra: .cfa -4 + ^ r3: .cfa -16 + ^ r4: .cfa -12 + ^ r5: .cfa -8 + ^
STACK CFI INIT 93948 38 .cfa: sp 0 + .ra: lr
STACK CFI 9394c .cfa: sp 8 +
STACK CFI 93950 .ra: .cfa -4 + ^ r4: .cfa -8 + ^
STACK CFI 93958 .cfa: sp 16 +
STACK CFI INIT 93980 e8 .cfa: sp 0 + .ra: lr
STACK CFI 93988 .cfa: sp 24 +
STACK CFI 9398c r10: .cfa -4 + ^ r4: .cfa -24 + ^ r5: .cfa -20 + ^ r6: .cfa -16 + ^ r7: .cfa -12 + ^ r8: .cfa -8 + ^
STACK CFI INIT 93a68 3124 .cfa: sp 0 + .ra: lr
STACK CFI 93a6c .cfa: sp 36 +
STACK CFI 93a70 .cfa: sp 168 +
STACK CFI 93a74 .ra: .cfa -4 + ^ r10: .cfa -12 + ^ r11: .cfa -8 + ^ r4: .cfa -36 + ^ r5: .cfa -32 + ^ r6: .cfa -28 + ^ r7: .cfa -24 + ^ r8: .cfa -20 + ^ r9: .cfa -16 + ^
STACK CFI INIT 96b8c 1c .cfa: sp 0 + .ra: lr
STACK CFI 96b90 .cfa: sp 4 +
STACK CFI 96b94 .cfa: sp 16 +
STACK CFI 96b9c .ra: .cfa -4 + ^
STACK CFI INIT 96ba8 34 .cfa: sp 0 + .ra: lr
STACK CFI 96bac .cfa: sp 12 +
STACK CFI 96bb0 .ra: .cfa -4 + ^ r4: .cfa -12 + ^ r5: .cfa -8 + ^
STACK CFI 96bc4 .cfa: sp 24 +
STACK CFI INIT 96bdc 1fd4 .cfa: sp 0 + .ra: lr
STACK CFI 96be0 .cfa: sp 36 +
STACK CFI 96be4 .cfa: sp 176 +
STACK CFI 96bf0 .ra: .cfa -4 + ^ r10: .cfa -12 + ^ r11: .cfa -8 + ^ r4: .cfa -36 + ^ r5: .cfa -32 + ^ r6: .cfa -28 + ^ r7: .cfa -24 + ^ r8: .cfa -20 + ^ r9: .cfa -16 + ^
STACK CFI INIT 98bb0 28 .cfa: sp 0 + .ra: lr
STACK CFI 98bb4 .cfa: sp 4 +
STACK CFI 98bb8 .cfa: sp 24 +
STACK CFI 98bc0 .ra: .cfa -4 + ^
STACK CFI INIT 98bd8 34 .cfa: sp 0 + .ra: lr
STACK CFI 98bdc .cfa: sp 12 +
STACK CFI 98be0 .ra: .cfa -4 + ^ r4: .cfa -12 + ^ r5: .cfa -8 + ^
STACK CFI 98bf4 .cfa: sp 24 +
STACK CFI INIT 98c0c 94 .cfa: sp 0 + .ra: lr
STACK CFI 98c14 .cfa: sp 32 +
STACK CFI 98c18 .ra: .cfa -4 + ^ r10: .cfa -8 + ^ r3: .cfa -32 + ^ r4: .cfa -28 + ^ r5: .cfa -24 + ^ r6: .cfa -20 + ^ r7: .cfa -16 + ^ r8: .cfa -12 + ^
STACK CFI INIT 98ca0 94 .cfa: sp 0 + .ra: lr
STACK CFI 98ca8 .cfa: sp 32 +
STACK CFI 98cac .ra: .cfa -4 + ^ r10: .cfa -8 + ^ r3: .cfa -32 + ^ r4: .cfa -28 + ^ r5: .cfa -24 + ^ r6: .cfa -20 + ^ r7: .cfa -16 + ^ r8: .cfa -12 + ^
STACK CFI INIT 98d34 1b18 .cfa: sp 0 + .ra: lr
STACK CFI 98d38 .cfa: sp 36 +
STACK CFI 98d3c .cfa: r11 4 + .ra: .cfa -4 + ^ r10: .cfa -12 + ^ r11: .cfa -8 + ^ r4: .cfa -36 + ^ r5: .cfa -32 + ^ r6: .cfa -28 + ^ r7: .cfa -24 + ^ r8: .cfa -20 + ^ r9: .cfa -16 + ^
STACK CFI INIT 9a84c 28 .cfa: sp 0 + .ra: lr
STACK CFI 9a850 .cfa: sp 4 +
STACK CFI 9a854 .cfa: sp 24 +
STACK CFI 9a85c .ra: .cfa -4 + ^
STACK CFI INIT 9a874 d8 .cfa: sp 0 + .ra: lr
STACK CFI 9a878 .cfa: sp 24 +
STACK CFI 9a87c .ra: .cfa -4 + ^ r3: .cfa -24 + ^ r4: .cfa -20 + ^ r5: .cfa -16 + ^ r6: .cfa -12 + ^ r7: .cfa -8 + ^
STACK CFI INIT 9a94c fc .cfa: sp 0 + .ra: lr
STACK CFI 9a954 .cfa: sp 8 +
STACK CFI 9a958 .ra: .cfa -4 + ^ r4: .cfa -8 + ^
STACK CFI 9a95c .cfa: sp 16 +
STACK CFI INIT 9aa48 19c .cfa: sp 0 + .ra: lr
STACK CFI 9aa50 .cfa: sp 28 +
STACK CFI 9aa54 .ra: .cfa -4 + ^ r10: .cfa -8 + ^ r4: .cfa -28 + ^ r5: .cfa -24 + ^ r6: .cfa -20 + ^ r7: .cfa -16 + ^ r8: .cfa -12 + ^
STACK CFI 9aa58 .cfa: sp 40 +
STACK CFI INIT 9abe4 180 .cfa: sp 0 + .ra: lr
STACK CFI 9abe8 .cfa: sp 36 +
STACK CFI 9abec .ra: .cfa -4 + ^ r10: .cfa -12 + ^ r11: .cfa -8 + ^ r4: .cfa -36 + ^ r5: .cfa -32 + ^ r6: .cfa -28 + ^ r7: .cfa -24 + ^ r8: .cfa -20 + ^ r9: .cfa -16 + ^
STACK CFI 9abf4 .cfa: sp 48 +
STACK CFI INIT 9ad64 250 .cfa: sp 0 + .ra: lr
STACK CFI 9ad68 .cfa: sp 40 +
STACK CFI 9ad6c .ra: .cfa -4 + ^ r10: .cfa -12 + ^ r11: .cfa -8 + ^ r3: .cfa -40 + ^ r4: .cfa -36 + ^ r5: .cfa -32 + ^ r6: .cfa -28 + ^ r7: .cfa -24 + ^ r8: .cfa -20 + ^ r9: .cfa -16 + ^
STACK CFI INIT 9afb4 3c8 .cfa: sp 0 + .ra: lr
STACK CFI 9afb8 .cfa: sp 24 +
STACK CFI 9afc0 .ra: .cfa -4 + ^ r4: .cfa -24 + ^ r5: .cfa -20 + ^ r6: .cfa -16 + ^ r7: .cfa -12 + ^ r8: .cfa -8 + ^
STACK CFI INIT 9b37c 50 .cfa: sp 0 + .ra: lr
STACK CFI 9b380 .cfa: sp 16 +
STACK CFI 9b384 .ra: .cfa -4 + ^ r3: .cfa -16 + ^ r4: .cfa -12 + ^ r5: .cfa -8 + ^
STACK CFI INIT 9b3cc 44 .cfa: sp 0 + .ra: lr
STACK CFI 9b3d0 .cfa: sp 8 +
STACK CFI 9b3d4 .ra: .cfa -4 + ^ r4: .cfa -8 + ^
STACK CFI INIT 9b410 4c .cfa: sp 0 + .ra: lr
STACK CFI 9b414 .cfa: sp 8 +
STACK CFI 9b418 .cfa: sp 136 +
STACK CFI 9b41c .ra: .cfa -4 + ^ r4: .cfa -8 + ^
STACK CFI INIT 9b45c 11c .cfa: sp 0 + .ra: lr
STACK CFI 9b460 .cfa: sp 24 +
STACK CFI 9b464 .ra: .cfa -4 + ^ r3: .cfa -24 + ^ r4: .cfa -20 + ^ r5: .cfa -16 + ^ r6: .cfa -12 + ^ r7: .cfa -8 + ^
STACK CFI INIT 9b578 8c .cfa: sp 0 + .ra: lr
STACK CFI 9b57c .cfa: sp 8 +
STACK CFI 9b588 .ra: .cfa -4 + ^ r7: .cfa -8 + ^
STACK CFI INIT 9b604 74 .cfa: sp 0 + .ra: lr
STACK CFI 9b608 .cfa: sp 16 +
STACK CFI 9b60c .ra: .cfa -4 + ^ r3: .cfa -16 + ^ r4: .cfa -12 + ^ r7: .cfa -8 + ^
STACK CFI INIT 9b678 170 .cfa: sp 0 + .ra: lr
STACK CFI 9b67c .cfa: sp 24 +
STACK CFI 9b680 .ra: .cfa -4 + ^ r4: .cfa -24 + ^ r5: .cfa -20 + ^ r6: .cfa -16 + ^ r7: .cfa -12 + ^ r8: .cfa -8 + ^
STACK CFI INIT 9b7e8 1c4 .cfa: sp 0 + .ra: lr
STACK CFI 9b7ec .cfa: sp 40 +
STACK CFI 9b7f0 .ra: .cfa -4 + ^ r10: .cfa -12 + ^ r11: .cfa -8 + ^ r3: .cfa -40 + ^ r4: .cfa -36 + ^ r5: .cfa -32 + ^ r6: .cfa -28 + ^ r7: .cfa -24 + ^ r8: .cfa -20 + ^ r9: .cfa -16 + ^
STACK CFI INIT 9b9ac d8 .cfa: sp 0 + .ra: lr
STACK CFI 9b9b0 .cfa: sp 24 +
STACK CFI 9b9b4 .ra: .cfa -4 + ^ r3: .cfa -24 + ^ r4: .cfa -20 + ^ r5: .cfa -16 + ^ r6: .cfa -12 + ^ r7: .cfa -8 + ^
STACK CFI INIT 9ba84 dc .cfa: sp 0 + .ra: lr
STACK CFI 9ba88 .cfa: sp 24 +
STACK CFI 9ba8c .ra: .cfa -4 + ^ r3: .cfa -24 + ^ r4: .cfa -20 + ^ r5: .cfa -16 + ^ r6: .cfa -12 + ^ r7: .cfa -8 + ^
STACK CFI INIT 9bb60 8 .cfa: sp 0 + .ra: lr
STACK CFI INIT 9bb68 4c .cfa: sp 0 + .ra: lr
STACK CFI 9bb70 .cfa: sp 24 +
STACK CFI 9bb78 .ra: .cfa -4 + ^ r4: .cfa -24 + ^ r5: .cfa -20 + ^ r6: .cfa -16 + ^ r7: .cfa -12 + ^ r8: .cfa -8 + ^
STACK CFI INIT 9bbb4 1f4 .cfa: sp 0 + .ra: lr
STACK CFI 9bbb8 .cfa: sp 36 +
STACK CFI 9bbbc .cfa: sp 72 +
STACK CFI 9bbc4 .ra: .cfa -4 + ^ r10: .cfa -12 + ^ r11: .cfa -8 + ^ r4: .cfa -36 + ^ r5: .cfa -32 + ^ r6: .cfa -28 + ^ r7: .cfa -24 + ^ r8: .cfa -20 + ^ r9: .cfa -16 + ^
STACK CFI INIT 9bda8 14 .cfa: sp 0 + .ra: lr
STACK CFI INIT 9bdbc 14 .cfa: sp 0 + .ra: lr
STACK CFI INIT 9bdd0 94 .cfa: sp 0 + .ra: lr
STACK CFI 9bdd4 .cfa: sp 24 +
STACK CFI 9bddc .ra: .cfa -4 + ^ r4: .cfa -24 + ^ r5: .cfa -20 + ^ r6: .cfa -16 + ^ r7: .cfa -12 + ^ r8: .cfa -8 + ^
STACK CFI INIT 9be64 40 .cfa: sp 0 + .ra: lr
STACK CFI 9be68 .cfa: sp 8 +
STACK CFI 9be6c .ra: .cfa -4 + ^ r7: .cfa -8 + ^
STACK CFI INIT 9bea4 8 .cfa: sp 0 + .ra: lr
STACK CFI INIT 9beac 170 .cfa: sp 0 + .ra: lr
STACK CFI 9beb0 .cfa: sp 24 +
STACK CFI 9beb4 .ra: .cfa -4 + ^ r4: .cfa -24 + ^ r5: .cfa -20 + ^ r6: .cfa -16 + ^ r7: .cfa -12 + ^ r8: .cfa -8 + ^
STACK CFI INIT 9c01c 1c4 .cfa: sp 0 + .ra: lr
STACK CFI 9c020 .cfa: sp 40 +
STACK CFI 9c024 .ra: .cfa -4 + ^ r10: .cfa -12 + ^ r11: .cfa -8 + ^ r3: .cfa -40 + ^ r4: .cfa -36 + ^ r5: .cfa -32 + ^ r6: .cfa -28 + ^ r7: .cfa -24 + ^ r8: .cfa -20 + ^ r9: .cfa -16 + ^
STACK CFI INIT 9c1e0 4c .cfa: sp 0 + .ra: lr
STACK CFI 9c1e8 .cfa: sp 24 +
STACK CFI 9c1f0 .ra: .cfa -4 + ^ r4: .cfa -24 + ^ r5: .cfa -20 + ^ r6: .cfa -16 + ^ r7: .cfa -12 + ^ r8: .cfa -8 + ^
STACK CFI INIT 9c22c 1f4 .cfa: sp 0 + .ra: lr
STACK CFI 9c230 .cfa: sp 36 +
STACK CFI 9c234 .cfa: sp 72 +
STACK CFI 9c23c .ra: .cfa -4 + ^ r10: .cfa -12 + ^ r11: .cfa -8 + ^ r4: .cfa -36 + ^ r5: .cfa -32 + ^ r6: .cfa -28 + ^ r7: .cfa -24 + ^ r8: .cfa -20 + ^ r9: .cfa -16 + ^
STACK CFI INIT 9c420 14 .cfa: sp 0 + .ra: lr
STACK CFI INIT 9c434 14 .cfa: sp 0 + .ra: lr
STACK CFI INIT 9c448 b4 .cfa: sp 0 + .ra: lr
STACK CFI 9c44c .cfa: sp 8 +
STACK CFI 9c450 .ra: .cfa -4 + ^ r4: .cfa -8 + ^
STACK CFI 9c454 .cfa: sp 112 +
STACK CFI INIT 9c4fc 40 .cfa: sp 0 + .ra: lr
STACK CFI 9c500 .cfa: sp 24 +
STACK CFI 9c504 .ra: .cfa -4 + ^ r4: .cfa -24 + ^ r5: .cfa -20 + ^ r6: .cfa -16 + ^ r7: .cfa -12 + ^ r8: .cfa -8 + ^
STACK CFI INIT 9c53c 54 .cfa: sp 0 + .ra: lr
STACK CFI 9c540 .cfa: sp 28 +
STACK CFI 9c544 .ra: .cfa -4 + ^ r4: .cfa -28 + ^ r5: .cfa -24 + ^ r6: .cfa -20 + ^ r7: .cfa -16 + ^ r8: .cfa -12 + ^ r9: .cfa -8 + ^
STACK CFI 9c548 .cfa: sp 40 +
STACK CFI INIT 9c590 238 .cfa: sp 0 + .ra: lr
STACK CFI 9c594 .cfa: sp 24 +
STACK CFI 9c598 .cfa: sp 48 +
STACK CFI 9c5a0 .ra: .cfa -4 + ^ r4: .cfa -24 + ^ r5: .cfa -20 + ^ r6: .cfa -16 + ^ r7: .cfa -12 + ^ r8: .cfa -8 + ^
STACK CFI INIT 9c7c8 30c .cfa: sp 0 + .ra: lr
STACK CFI 9c7cc .cfa: sp 36 +
STACK CFI 9c7d0 .cfa: r11 4 + .ra: .cfa -4 + ^ r10: .cfa -12 + ^ r11: .cfa -8 + ^ r4: .cfa -36 + ^ r5: .cfa -32 + ^ r6: .cfa -28 + ^ r7: .cfa -24 + ^ r8: .cfa -20 + ^ r9: .cfa -16 + ^
STACK CFI INIT 9cad4 2d4 .cfa: sp 0 + .ra: lr
STACK CFI 9cad8 .cfa: sp 36 +
STACK CFI 9cadc .cfa: sp 72 +
STACK CFI 9cae8 .ra: .cfa -4 + ^ r10: .cfa -12 + ^ r11: .cfa -8 + ^ r4: .cfa -36 + ^ r5: .cfa -32 + ^ r6: .cfa -28 + ^ r7: .cfa -24 + ^ r8: .cfa -20 + ^ r9: .cfa -16 + ^
STACK CFI INIT 9cda8 a8 .cfa: sp 0 + .ra: lr
STACK CFI 9cdac .cfa: sp 20 +
STACK CFI 9cdb0 .ra: .cfa -4 + ^ r4: .cfa -20 + ^ r5: .cfa -16 + ^ r6: .cfa -12 + ^ r7: .cfa -8 + ^
STACK CFI 9cdb8 .cfa: sp 40 +
STACK CFI INIT 9ce50 c4 .cfa: sp 0 + .ra: lr
STACK CFI 9ce54 .cfa: sp 16 +
STACK CFI 9ce58 .ra: .cfa -4 + ^ r4: .cfa -16 + ^ r5: .cfa -12 + ^ r6: .cfa -8 + ^
STACK CFI 9ce5c .cfa: sp 32 +
STACK CFI INIT 9cf14 40 .cfa: sp 0 + .ra: lr
STACK CFI 9cf18 .cfa: sp 8 +
STACK CFI 9cf1c .ra: .cfa -4 + ^ r7: .cfa -8 + ^
STACK CFI INIT 9cf54 134 .cfa: sp 0 + .ra: lr
STACK CFI 9cf58 .cfa: sp 28 +
STACK CFI 9cf5c .ra: .cfa -4 + ^ r10: .cfa -8 + ^ r4: .cfa -28 + ^ r5: .cfa -24 + ^ r6: .cfa -20 + ^ r7: .cfa -16 + ^ r8: .cfa -12 + ^
STACK CFI 9cf60 .cfa: sp 40 +
STACK CFI INIT 9d088 1f0 .cfa: sp 0 + .ra: lr
STACK CFI 9d08c .cfa: sp 20 +
STACK CFI 9d090 .ra: .cfa -4 + ^ r4: .cfa -20 + ^ r5: .cfa -16 + ^ r6: .cfa -12 + ^ r7: .cfa -8 + ^
STACK CFI 9d094 .cfa: sp 48 +
STACK CFI INIT 9d278 1f0 .cfa: sp 0 + .ra: lr
STACK CFI 9d27c .cfa: sp 20 +
STACK CFI 9d280 .ra: .cfa -4 + ^ r4: .cfa -20 + ^ r5: .cfa -16 + ^ r6: .cfa -12 + ^ r7: .cfa -8 + ^
STACK CFI 9d284 .cfa: sp 48 +
STACK CFI INIT 9d468 3ac .cfa: sp 0 + .ra: lr
STACK CFI 9d46c .cfa: sp 24 +
STACK CFI 9d470 .ra: .cfa -4 + ^ r4: .cfa -24 + ^ r5: .cfa -20 + ^ r6: .cfa -16 + ^ r7: .cfa -12 + ^ r8: .cfa -8 + ^
STACK CFI 9d474 .cfa: sp 32 +
STACK CFI INIT 9d814 138 .cfa: sp 0 + .ra: lr
STACK CFI 9d818 .cfa: sp 24 +
STACK CFI 9d81c .ra: .cfa -4 + ^ r4: .cfa -24 + ^ r5: .cfa -20 + ^ r6: .cfa -16 + ^ r7: .cfa -12 + ^ r8: .cfa -8 + ^
STACK CFI 9d820 .cfa: sp 40 +
STACK CFI INIT 9d94c 138 .cfa: sp 0 + .ra: lr
STACK CFI 9d950 .cfa: sp 24 +
STACK CFI 9d954 .ra: .cfa -4 + ^ r4: .cfa -24 + ^ r5: .cfa -20 + ^ r6: .cfa -16 + ^ r7: .cfa -12 + ^ r8: .cfa -8 + ^
STACK CFI 9d958 .cfa: sp 32 +
STACK CFI INIT 9da84 170 .cfa: sp 0 + .ra: lr
STACK CFI 9da88 .cfa: sp 28 +
STACK CFI 9da8c .ra: .cfa -4 + ^ r10: .cfa -8 + ^ r4: .cfa -28 + ^ r5: .cfa -24 + ^ r6: .cfa -20 + ^ r7: .cfa -16 + ^ r8: .cfa -12 + ^
STACK CFI 9da9c .cfa: sp 72 +
STACK CFI INIT 9dbf4 228 .cfa: sp 0 + .ra: lr
STACK CFI 9dbf8 .cfa: sp 36 +
STACK CFI 9dbfc .ra: .cfa -4 + ^ r10: .cfa -12 + ^ r11: .cfa -8 + ^ r4: .cfa -36 + ^ r5: .cfa -32 + ^ r6: .cfa -28 + ^ r7: .cfa -24 + ^ r8: .cfa -20 + ^ r9: .cfa -16 + ^
STACK CFI 9dc04 .cfa: sp 64 +
STACK CFI INIT 9de1c 228 .cfa: sp 0 + .ra: lr
STACK CFI 9de20 .cfa: sp 36 +
STACK CFI 9de24 .ra: .cfa -4 + ^ r10: .cfa -12 + ^ r11: .cfa -8 + ^ r4: .cfa -36 + ^ r5: .cfa -32 + ^ r6: .cfa -28 + ^ r7: .cfa -24 + ^ r8: .cfa -20 + ^ r9: .cfa -16 + ^
STACK CFI 9de2c .cfa: sp 64 +
STACK CFI INIT 9e044 320 .cfa: sp 0 + .ra: lr
STACK CFI 9e048 .cfa: sp 36 +
STACK CFI 9e04c .ra: .cfa -4 + ^ r10: .cfa -12 + ^ r11: .cfa -8 + ^ r4: .cfa -36 + ^ r5: .cfa -32 + ^ r6: .cfa -28 + ^ r7: .cfa -24 + ^ r8: .cfa -20 + ^ r9: .cfa -16 + ^
STACK CFI 9e068 .cfa: sp 64 +
STACK CFI INIT 9e364 360 .cfa: sp 0 + .ra: lr
STACK CFI 9e368 .cfa: sp 36 +
STACK CFI 9e36c .ra: .cfa -4 + ^ r10: .cfa -12 + ^ r11: .cfa -8 + ^ r4: .cfa -36 + ^ r5: .cfa -32 + ^ r6: .cfa -28 + ^ r7: .cfa -24 + ^ r8: .cfa -20 + ^ r9: .cfa -16 + ^
STACK CFI 9e370 .cfa: sp 48 +
STACK CFI INIT 9e6c4 23c .cfa: sp 0 + .ra: lr
STACK CFI 9e6c8 .cfa: sp 24 +
STACK CFI 9e6cc .cfa: sp 48 +
STACK CFI 9e6d4 .ra: .cfa -4 + ^ r4: .cfa -24 + ^ r5: .cfa -20 + ^ r6: .cfa -16 + ^ r7: .cfa -12 + ^ r8: .cfa -8 + ^
STACK CFI INIT 9e900 d4 .cfa: sp 0 + .ra: lr
STACK CFI 9e904 .cfa: sp 16 +
STACK CFI 9e908 .ra: .cfa -4 + ^ r11: .cfa -8 + ^ r4: .cfa -16 + ^ r5: .cfa -12 + ^
STACK CFI 9e90c .cfa: r11 4 +
STACK CFI INIT 9e9d4 19c .cfa: sp 0 + .ra: lr
STACK CFI 9e9e0 .cfa: sp 16 +
STACK CFI 9e9e4 .cfa: sp 40 +
STACK CFI 9e9e8 .ra: .cfa -4 + ^ r4: .cfa -16 + ^ r5: .cfa -12 + ^ r6: .cfa -8 + ^
STACK CFI INIT 9eb70 134 .cfa: sp 0 + .ra: lr
STACK CFI 9eb74 .cfa: sp 28 +
STACK CFI 9eb78 .ra: .cfa -4 + ^ r10: .cfa -8 + ^ r4: .cfa -28 + ^ r5: .cfa -24 + ^ r6: .cfa -20 + ^ r7: .cfa -16 + ^ r8: .cfa -12 + ^
STACK CFI 9eb7c .cfa: sp 40 +
STACK CFI INIT 9eca4 1f0 .cfa: sp 0 + .ra: lr
STACK CFI 9eca8 .cfa: sp 20 +
STACK CFI 9ecac .ra: .cfa -4 + ^ r4: .cfa -20 + ^ r5: .cfa -16 + ^ r6: .cfa -12 + ^ r7: .cfa -8 + ^
STACK CFI 9ecb0 .cfa: sp 48 +
STACK CFI INIT 9ee94 1f0 .cfa: sp 0 + .ra: lr
STACK CFI 9ee98 .cfa: sp 20 +
STACK CFI 9ee9c .ra: .cfa -4 + ^ r4: .cfa -20 + ^ r5: .cfa -16 + ^ r6: .cfa -12 + ^ r7: .cfa -8 + ^
STACK CFI 9eea0 .cfa: sp 48 +
STACK CFI INIT 9f084 138 .cfa: sp 0 + .ra: lr
STACK CFI 9f088 .cfa: sp 24 +
STACK CFI 9f08c .ra: .cfa -4 + ^ r4: .cfa -24 + ^ r5: .cfa -20 + ^ r6: .cfa -16 + ^ r7: .cfa -12 + ^ r8: .cfa -8 + ^
STACK CFI 9f090 .cfa: sp 40 +
STACK CFI INIT 9f1bc 138 .cfa: sp 0 + .ra: lr
STACK CFI 9f1c0 .cfa: sp 24 +
STACK CFI 9f1c4 .ra: .cfa -4 + ^ r4: .cfa -24 + ^ r5: .cfa -20 + ^ r6: .cfa -16 + ^ r7: .cfa -12 + ^ r8: .cfa -8 + ^
STACK CFI 9f1c8 .cfa: sp 32 +
STACK CFI INIT 9f2f4 170 .cfa: sp 0 + .ra: lr
STACK CFI 9f2f8 .cfa: sp 28 +
STACK CFI 9f2fc .ra: .cfa -4 + ^ r10: .cfa -8 + ^ r4: .cfa -28 + ^ r5: .cfa -24 + ^ r6: .cfa -20 + ^ r7: .cfa -16 + ^ r8: .cfa -12 + ^
STACK CFI 9f30c .cfa: sp 72 +
STACK CFI INIT 9f464 228 .cfa: sp 0 + .ra: lr
STACK CFI 9f468 .cfa: sp 36 +
STACK CFI 9f46c .ra: .cfa -4 + ^ r10: .cfa -12 + ^ r11: .cfa -8 + ^ r4: .cfa -36 + ^ r5: .cfa -32 + ^ r6: .cfa -28 + ^ r7: .cfa -24 + ^ r8: .cfa -20 + ^ r9: .cfa -16 + ^
STACK CFI 9f474 .cfa: sp 64 +
STACK CFI INIT 9f68c 228 .cfa: sp 0 + .ra: lr
STACK CFI 9f690 .cfa: sp 36 +
STACK CFI 9f694 .ra: .cfa -4 + ^ r10: .cfa -12 + ^ r11: .cfa -8 + ^ r4: .cfa -36 + ^ r5: .cfa -32 + ^ r6: .cfa -28 + ^ r7: .cfa -24 + ^ r8: .cfa -20 + ^ r9: .cfa -16 + ^
STACK CFI 9f69c .cfa: sp 64 +
STACK CFI INIT 9f8b4 274 .cfa: sp 0 + .ra: lr
STACK CFI 9f8b8 .cfa: sp 20 +
STACK CFI 9f8bc .ra: .cfa -4 + ^ r4: .cfa -20 + ^ r5: .cfa -16 + ^ r6: .cfa -12 + ^ r7: .cfa -8 + ^
STACK CFI 9f8c0 .cfa: sp 32 +
STACK CFI INIT 9fb28 350 .cfa: sp 0 + .ra: lr
STACK CFI 9fb2c .cfa: sp 36 +
STACK CFI 9fb30 .ra: .cfa -4 + ^ r10: .cfa -12 + ^ r11: .cfa -8 + ^ r4: .cfa -36 + ^ r5: .cfa -32 + ^ r6: .cfa -28 + ^ r7: .cfa -24 + ^ r8: .cfa -20 + ^ r9: .cfa -16 + ^
STACK CFI 9fb34 .cfa: sp 48 +
STACK CFI INIT 9fe80 1c .cfa: sp 0 + .ra: lr
STACK CFI 9fe84 r7: r12
STACK CFI 9fe90 r7: r7
STACK CFI INIT 9fea0 54 .cfa: sp 0 + .ra: lr
STACK CFI 9fea4 .cfa: sp 4 +
STACK CFI 9feac r7: .cfa -4 + ^
STACK CFI INIT 9fef4 cc .cfa: sp 0 + .ra: lr
STACK CFI 9fefc .cfa: sp 12 +
STACK CFI 9ff08 .cfa: sp 24 +
STACK CFI 9ff10 .ra: .cfa -4 + ^ r4: .cfa -12 + ^ r7: .cfa -8 + ^
STACK CFI INIT 9ffc0 c8 .cfa: sp 0 + .ra: lr
STACK CFI 9ffc8 .cfa: sp 20 +
STACK CFI 9ffd4 .cfa: sp 32 +
STACK CFI 9ffd8 .ra: .cfa -4 + ^ r4: .cfa -20 + ^ r5: .cfa -16 + ^ r6: .cfa -12 + ^ r7: .cfa -8 + ^
STACK CFI INIT a0088 24 .cfa: sp 0 + .ra: lr
STACK CFI a0090 .cfa: sp 4 +
STACK CFI a0094 r4: .cfa -4 + ^
STACK CFI INIT a00b0 1c .cfa: sp 0 + .ra: lr
STACK CFI a00b4 r7: r12
STACK CFI a00c0 r7: r7
STACK CFI INIT a00d0 d0 .cfa: sp 0 + .ra: lr
STACK CFI a00d4 .cfa: sp 28 +
STACK CFI a00d8 .ra: .cfa -4 + ^ r10: .cfa -8 + ^ r4: .cfa -28 + ^ r5: .cfa -24 + ^ r6: .cfa -20 + ^ r7: .cfa -16 + ^ r8: .cfa -12 + ^
STACK CFI a00dc .cfa: sp 40 +
STACK CFI INIT a01a0 70 .cfa: sp 0 + .ra: lr
STACK CFI a01a4 .cfa: sp 8 +
STACK CFI a01a8 .ra: .cfa -4 + ^ r4: .cfa -8 + ^
STACK CFI a01ac .cfa: sp 40 +
STACK CFI INIT a0210 248 .cfa: sp 0 + .ra: lr
STACK CFI a0214 .cfa: sp 24 +
STACK CFI a0218 .ra: .cfa -4 + ^ r4: .cfa -24 + ^ r5: .cfa -20 + ^ r6: .cfa -16 + ^ r7: .cfa -12 + ^ r8: .cfa -8 + ^
STACK CFI a021c .cfa: sp 432 +
STACK CFI INIT a0464 18 .cfa: sp 0 + .ra: lr
STACK CFI a0468 r7: r12
STACK CFI a0474 r7: r7
STACK CFI INIT a0480 60 .cfa: sp 0 + .ra: lr
STACK CFI a0494 r7: r12
STACK CFI a04a0 r7: r7
STACK CFI a04ac r7: r7
STACK CFI a04b0 .cfa: sp 8 + .ra: .cfa -4 + ^ r7: .cfa -8 + ^
STACK CFI a04d4 .cfa: sp 0 + .ra: .ra r7: r7
STACK CFI INIT a04e4 18 .cfa: sp 0 + .ra: lr
STACK CFI a04e8 r7: r12
STACK CFI a04f4 r7: r7
STACK CFI INIT a0500 64 .cfa: sp 0 + .ra: lr
STACK CFI a0514 r7: r12
STACK CFI a0520 r7: r7
STACK CFI a052c r7: r7
STACK CFI a0530 .cfa: sp 16 + .ra: .cfa -4 + ^ r7: .cfa -8 + ^
STACK CFI a053c .cfa: sp 8 +
STACK CFI a0558 .cfa: sp 0 + .ra: .ra r7: r7
STACK CFI INIT a0570 36c .cfa: sp 0 + .ra: lr
STACK CFI a0574 .cfa: sp 40 +
STACK CFI a0578 .ra: .cfa -4 + ^ r10: .cfa -12 + ^ r11: .cfa -8 + ^ r3: .cfa -40 + ^ r4: .cfa -36 + ^ r5: .cfa -32 + ^ r6: .cfa -28 + ^ r7: .cfa -24 + ^ r8: .cfa -20 + ^ r9: .cfa -16 + ^
STACK CFI a0580 .cfa: r11 4 +
STACK CFI INIT a08e0 4c .cfa: sp 0 + .ra: lr
STACK CFI a08e4 .cfa: sp 4 + .ra: .cfa -4 + ^
STACK CFI a08f4 .cfa: sp 0 + .ra: .ra
STACK CFI a090c r7: r12
STACK CFI a0918 r7: r7
STACK CFI INIT a0930 74 .cfa: sp 0 + .ra: lr
STACK CFI a0934 .cfa: sp 8 +
STACK CFI a0944 .ra: .cfa -4 + ^ r7: .cfa -8 + ^
STACK CFI INIT a09a4 40 .cfa: sp 0 + .ra: lr
STACK CFI a09a8 .cfa: sp 8 +
STACK CFI a09ac .ra: .cfa -4 + ^ r7: .cfa -8 + ^
STACK CFI INIT a09e4 e0 .cfa: sp 0 + .ra: lr
STACK CFI a09f4 .cfa: sp 12 +
STACK CFI a09f8 .ra: .cfa -4 + ^ r4: .cfa -12 + ^ r5: .cfa -8 + ^
STACK CFI a09fc .cfa: sp 136 +
STACK CFI INIT a0ac4 20 .cfa: sp 0 + .ra: lr
STACK CFI INIT a0ae4 184 .cfa: sp 0 + .ra: lr
STACK CFI a0ae8 .cfa: sp 12 +
STACK CFI a0aec .cfa: sp 44 +
STACK CFI a0af0 .cfa: sp 4140 +
STACK CFI a0af4 .cfa: sp 4152 +
STACK CFI a0af8 .ra: .cfa -16 + ^ r1: .cfa -12 + ^ r10: .cfa -20 + ^ r2: .cfa -8 + ^ r3: .cfa -4 + ^ r4: .cfa -44 + ^ r5: .cfa -40 + ^ r6: .cfa -36 + ^ r7: .cfa -32 + ^ r8: .cfa -28 + ^ r9: .cfa -24 + ^
STACK CFI INIT a0c68 18c .cfa: sp 0 + .ra: lr
STACK CFI a0c6c .cfa: sp 12 +
STACK CFI a0c70 .cfa: sp 48 +
STACK CFI a0c74 .cfa: sp 4144 +
STACK CFI a0c78 .cfa: sp 4152 +
STACK CFI a0c7c .ra: .cfa -16 + ^ r1: .cfa -12 + ^ r10: .cfa -24 + ^ r11: .cfa -20 + ^ r2: .cfa -8 + ^ r3: .cfa -4 + ^ r4: .cfa -48 + ^ r5: .cfa -44 + ^ r6: .cfa -40 + ^ r7: .cfa -36 + ^ r8: .cfa -32 + ^ r9: .cfa -28 + ^
STACK CFI INIT a0df4 20 .cfa: sp 0 + .ra: lr
STACK CFI INIT a0e14 164 .cfa: sp 0 + .ra: lr
STACK CFI a0e18 .cfa: sp 12 +
STACK CFI a0e1c .cfa: sp 44 +
STACK CFI a0e20 .cfa: sp 4140 +
STACK CFI a0e24 .cfa: sp 4152 +
STACK CFI a0e28 .ra: .cfa -16 + ^ r1: .cfa -12 + ^ r10: .cfa -20 + ^ r2: .cfa -8 + ^ r3: .cfa -4 + ^ r4: .cfa -44 + ^ r5: .cfa -40 + ^ r6: .cfa -36 + ^ r7: .cfa -32 + ^ r8: .cfa -28 + ^ r9: .cfa -24 + ^
STACK CFI INIT a0f78 4c0 .cfa: sp 0 + .ra: lr
STACK CFI a0f7c .cfa: sp 36 +
STACK CFI a0f80 .cfa: r11 4 + .ra: .cfa -4 + ^ r10: .cfa -12 + ^ r11: .cfa -8 + ^ r4: .cfa -36 + ^ r5: .cfa -32 + ^ r6: .cfa -28 + ^ r7: .cfa -24 + ^ r8: .cfa -20 + ^ r9: .cfa -16 + ^
STACK CFI INIT a1438 4c .cfa: sp 0 + .ra: lr
STACK CFI a143c .cfa: sp 8 +
STACK CFI a1440 .ra: .cfa -4 + ^ r7: .cfa -8 + ^
STACK CFI INIT a1490 14 .cfa: sp 0 + .ra: lr
STACK CFI a1494 r7: r12
STACK CFI a14a0 r7: r7
STACK CFI INIT a14b0 14 .cfa: sp 0 + .ra: lr
STACK CFI a14b4 .cfa: sp 4 +
STACK CFI a14b8 r7: .cfa -4 + ^
STACK CFI INIT a14c4 14 .cfa: sp 0 + .ra: lr
STACK CFI a14c8 .cfa: sp 4 +
STACK CFI a14cc r7: .cfa -4 + ^
STACK CFI INIT a14d8 14 .cfa: sp 0 + .ra: lr
STACK CFI a14dc .cfa: sp 4 +
STACK CFI a14e0 r7: .cfa -4 + ^
STACK CFI INIT a14ec 14 .cfa: sp 0 + .ra: lr
STACK CFI a14f0 .cfa: sp 4 +
STACK CFI a14f4 r7: .cfa -4 + ^
STACK CFI INIT a1500 40 .cfa: sp 0 + .ra: lr
STACK CFI a1504 .cfa: sp 8 +
STACK CFI a1508 .ra: .cfa -4 + ^ r7: .cfa -8 + ^
STACK CFI INIT a1540 84 .cfa: sp 0 + .ra: lr
STACK CFI a1548 .cfa: sp 8 +
STACK CFI a1554 .cfa: sp 32 +
STACK CFI a1558 .ra: .cfa -4 + ^ r7: .cfa -8 + ^
STACK CFI INIT a15c4 84 .cfa: sp 0 + .ra: lr
STACK CFI a15cc .cfa: sp 8 +
STACK CFI a15d8 .cfa: sp 32 +
STACK CFI a15dc .ra: .cfa -4 + ^ r7: .cfa -8 + ^
STACK CFI INIT a1648 a8 .cfa: sp 0 + .ra: lr
STACK CFI a164c .cfa: sp 24 +
STACK CFI a1650 .ra: .cfa -4 + ^ r11: .cfa -8 + ^ r3: .cfa -24 + ^ r4: .cfa -20 + ^ r5: .cfa -16 + ^ r6: .cfa -12 + ^
STACK CFI a1654 .cfa: r11 4 +
STACK CFI INIT a16f0 1c .cfa: sp 0 + .ra: lr
STACK CFI a16f4 r7: r12
STACK CFI a1700 r7: r7
STACK CFI INIT a1710 1c .cfa: sp 0 + .ra: lr
STACK CFI a1714 r7: r12
STACK CFI a1720 r7: r7
STACK CFI INIT a1730 14 .cfa: sp 0 + .ra: lr
STACK CFI a1734 r7: r12
STACK CFI a1740 r7: r7
STACK CFI INIT a1750 4 .cfa: sp 0 + .ra: lr
STACK CFI INIT a1754 c .cfa: sp 0 + .ra: lr
STACK CFI INIT a1760 1c .cfa: sp 0 + .ra: lr
STACK CFI a1764 r7: r12
STACK CFI a1770 r7: r7
STACK CFI INIT a1780 1c .cfa: sp 0 + .ra: lr
STACK CFI a1784 r7: r12
STACK CFI a1790 r7: r7
STACK CFI INIT a17a0 40 .cfa: sp 0 + .ra: lr
STACK CFI a17a4 .cfa: sp 8 +
STACK CFI a17a8 .ra: .cfa -4 + ^ r7: .cfa -8 + ^
STACK CFI INIT a17e0 40 .cfa: sp 0 + .ra: lr
STACK CFI a17e4 .cfa: sp 8 +
STACK CFI a17e8 .ra: .cfa -4 + ^ r7: .cfa -8 + ^
STACK CFI INIT a1820 90 .cfa: sp 0 + .ra: lr
STACK CFI a1828 .cfa: sp 12 +
STACK CFI a1834 .cfa: sp 40 +
STACK CFI a1838 .ra: .cfa -4 + ^ r4: .cfa -12 + ^ r7: .cfa -8 + ^
STACK CFI INIT a18b0 90 .cfa: sp 0 + .ra: lr
STACK CFI a18b8 .cfa: sp 12 +
STACK CFI a18c4 .cfa: sp 40 +
STACK CFI a18c8 .ra: .cfa -4 + ^ r4: .cfa -12 + ^ r7: .cfa -8 + ^
STACK CFI INIT a1940 134 .cfa: sp 0 + .ra: lr
STACK CFI a1948 .cfa: sp 4 +
STACK CFI a194c .ra: .cfa -4 + ^
STACK CFI INIT a1a74 fc .cfa: sp 0 + .ra: lr
STACK CFI a1a7c .cfa: sp 4 +
STACK CFI a1a80 .ra: .cfa -4 + ^
STACK CFI INIT a1b70 f0 .cfa: sp 0 + .ra: lr
STACK CFI a1b78 .cfa: sp 4 +
STACK CFI a1b7c .ra: .cfa -4 + ^
STACK CFI INIT a1c60 114 .cfa: sp 0 + .ra: lr
STACK CFI a1c68 .cfa: sp 12 +
STACK CFI a1c6c .cfa: sp 24 +
STACK CFI a1c70 .ra: .cfa -4 + ^ r4: .cfa -12 + ^ r7: .cfa -8 + ^
STACK CFI INIT a1d74 25c .cfa: sp 0 + .ra: lr
STACK CFI a1d78 .cfa: sp 12 +
STACK CFI a1d80 .cfa: sp 344 +
STACK CFI a1d8c .ra: .cfa -4 + ^ r4: .cfa -12 + ^ r5: .cfa -8 + ^
STACK CFI INIT a1fd0 9dc .cfa: sp 0 + .ra: lr
STACK CFI a1fdc .cfa: sp 20 +
STACK CFI a1fe4 .cfa: sp 72 +
STACK CFI a1fe8 .ra: .cfa -4 + ^ r4: .cfa -20 + ^ r5: .cfa -16 + ^ r6: .cfa -12 + ^ r7: .cfa -8 + ^
STACK CFI INIT a29ac 27c .cfa: sp 0 + .ra: lr
STACK CFI a29b0 .cfa: sp 12 +
STACK CFI a29b8 .cfa: sp 344 +
STACK CFI a29c4 .ra: .cfa -4 + ^ r4: .cfa -12 + ^ r5: .cfa -8 + ^
STACK CFI INIT a2c28 88 .cfa: sp 0 + .ra: lr
STACK CFI INIT a2cb0 23c .cfa: sp 0 + .ra: lr
STACK CFI a2cb4 .cfa: sp 36 +
STACK CFI a2cb8 .cfa: sp 56 +
STACK CFI a2cbc .ra: .cfa -4 + ^ r10: .cfa -12 + ^ r11: .cfa -8 + ^ r4: .cfa -36 + ^ r5: .cfa -32 + ^ r6: .cfa -28 + ^ r7: .cfa -24 + ^ r8: .cfa -20 + ^ r9: .cfa -16 + ^
STACK CFI INIT a2eec 34 .cfa: sp 0 + .ra: lr
STACK CFI INIT a2f20 80 .cfa: sp 0 + .ra: lr
STACK CFI a2f24 .cfa: sp 32 +
STACK CFI a2f28 .cfa: r11 4 + .ra: .cfa -4 + ^ r10: .cfa -12 + ^ r11: .cfa -8 + ^ r4: .cfa -32 + ^ r5: .cfa -28 + ^ r6: .cfa -24 + ^ r7: .cfa -20 + ^ r8: .cfa -16 + ^
STACK CFI INIT a2fa0 60 .cfa: sp 0 + .ra: lr
STACK CFI a2fa4 .cfa: sp 16 +
STACK CFI a2fa8 .ra: .cfa -4 + ^ r3: .cfa -16 + ^ r4: .cfa -12 + ^ r5: .cfa -8 + ^
STACK CFI INIT a3000 94 .cfa: sp 0 + .ra: lr
STACK CFI INIT a3094 6e0 .cfa: sp 0 + .ra: lr
STACK CFI a3098 .cfa: sp 36 +
STACK CFI a309c .cfa: r11 4 + .ra: .cfa -4 + ^ r10: .cfa -12 + ^ r11: .cfa -8 + ^ r4: .cfa -36 + ^ r5: .cfa -32 + ^ r6: .cfa -28 + ^ r7: .cfa -24 + ^ r8: .cfa -20 + ^ r9: .cfa -16 + ^
STACK CFI INIT a3774 11c4 .cfa: sp 0 + .ra: lr
STACK CFI a3778 .cfa: sp 36 +
STACK CFI a3784 .cfa: r11 4 + .ra: .cfa -4 + ^ r10: .cfa -12 + ^ r11: .cfa -8 + ^ r4: .cfa -36 + ^ r5: .cfa -32 + ^ r6: .cfa -28 + ^ r7: .cfa -24 + ^ r8: .cfa -20 + ^ r9: .cfa -16 + ^
STACK CFI INIT a4938 18 .cfa: sp 0 + .ra: lr
STACK CFI a493c .cfa: sp 8 + .ra: .cfa -4 + ^ r3: .cfa -8 + ^
STACK CFI INIT a4950 88 .cfa: sp 0 + .ra: lr
STACK CFI INIT a49d8 23c .cfa: sp 0 + .ra: lr
STACK CFI a49dc .cfa: sp 36 +
STACK CFI a49e0 .cfa: sp 56 +
STACK CFI a49e4 .ra: .cfa -4 + ^ r10: .cfa -12 + ^ r11: .cfa -8 + ^ r4: .cfa -36 + ^ r5: .cfa -32 + ^ r6: .cfa -28 + ^ r7: .cfa -24 + ^ r8: .cfa -20 + ^ r9: .cfa -16 + ^
STACK CFI INIT a4c14 34 .cfa: sp 0 + .ra: lr
STACK CFI INIT a4c48 80 .cfa: sp 0 + .ra: lr
STACK CFI a4c4c .cfa: sp 32 +
STACK CFI a4c50 .cfa: r11 4 + .ra: .cfa -4 + ^ r10: .cfa -12 + ^ r11: .cfa -8 + ^ r4: .cfa -32 + ^ r5: .cfa -28 + ^ r6: .cfa -24 + ^ r7: .cfa -20 + ^ r8: .cfa -16 + ^
STACK CFI INIT a4cc8 6a8 .cfa: sp 0 + .ra: lr
STACK CFI a4ccc .cfa: sp 36 +
STACK CFI a4cd0 .cfa: r11 4 + .ra: .cfa -4 + ^ r10: .cfa -12 + ^ r11: .cfa -8 + ^ r4: .cfa -36 + ^ r5: .cfa -32 + ^ r6: .cfa -28 + ^ r7: .cfa -24 + ^ r8: .cfa -20 + ^ r9: .cfa -16 + ^
STACK CFI INIT a5370 60 .cfa: sp 0 + .ra: lr
STACK CFI a5374 .cfa: sp 16 +
STACK CFI a5378 .ra: .cfa -4 + ^ r3: .cfa -16 + ^ r4: .cfa -12 + ^ r5: .cfa -8 + ^
STACK CFI INIT a53d0 11cc .cfa: sp 0 + .ra: lr
STACK CFI a53d4 .cfa: sp 36 +
STACK CFI a53e0 .cfa: r11 4 + .ra: .cfa -4 + ^ r10: .cfa -12 + ^ r11: .cfa -8 + ^ r4: .cfa -36 + ^ r5: .cfa -32 + ^ r6: .cfa -28 + ^ r7: .cfa -24 + ^ r8: .cfa -20 + ^ r9: .cfa -16 + ^
STACK CFI INIT a659c 120 .cfa: sp 0 + .ra: lr
STACK CFI a65a0 .cfa: sp 24 +
STACK CFI a65a4 .ra: .cfa -4 + ^ r4: .cfa -24 + ^ r5: .cfa -20 + ^ r6: .cfa -16 + ^ r7: .cfa -12 + ^ r8: .cfa -8 + ^
STACK CFI INIT a66bc 120 .cfa: sp 0 + .ra: lr
STACK CFI a66c0 .cfa: sp 24 +
STACK CFI a66c4 .ra: .cfa -4 + ^ r4: .cfa -24 + ^ r5: .cfa -20 + ^ r6: .cfa -16 + ^ r7: .cfa -12 + ^ r8: .cfa -8 + ^
STACK CFI INIT a67dc 70c .cfa: sp 0 + .ra: lr
STACK CFI a67e0 .cfa: sp 36 +
STACK CFI a67e4 .cfa: r11 4 + .ra: .cfa -4 + ^ r10: .cfa -12 + ^ r11: .cfa -8 + ^ r4: .cfa -36 + ^ r5: .cfa -32 + ^ r6: .cfa -28 + ^ r7: .cfa -24 + ^ r8: .cfa -20 + ^ r9: .cfa -16 + ^
STACK CFI INIT a6ee8 1ca0 .cfa: sp 0 + .ra: lr
STACK CFI a6eec .cfa: sp 36 +
STACK CFI a6ef0 .cfa: r11 4 + .ra: .cfa -4 + ^ r10: .cfa -12 + ^ r11: .cfa -8 + ^ r4: .cfa -36 + ^ r5: .cfa -32 + ^ r6: .cfa -28 + ^ r7: .cfa -24 + ^ r8: .cfa -20 + ^ r9: .cfa -16 + ^
STACK CFI INIT a8b88 6ec .cfa: sp 0 + .ra: lr
STACK CFI a8b8c .cfa: sp 36 +
STACK CFI a8b90 .cfa: r11 4 + .ra: .cfa -4 + ^ r10: .cfa -12 + ^ r11: .cfa -8 + ^ r4: .cfa -36 + ^ r5: .cfa -32 + ^ r6: .cfa -28 + ^ r7: .cfa -24 + ^ r8: .cfa -20 + ^ r9: .cfa -16 + ^
STACK CFI INIT a9274 1b00 .cfa: sp 0 + .ra: lr
STACK CFI a9278 .cfa: sp 36 +
STACK CFI a927c .ra: .cfa -4 + ^ r10: .cfa -12 + ^ r11: .cfa -8 + ^ r4: .cfa -36 + ^ r5: .cfa -32 + ^ r6: .cfa -28 + ^ r7: .cfa -24 + ^ r8: .cfa -20 + ^ r9: .cfa -16 + ^
STACK CFI a9290 .cfa: sp 2180 +
STACK CFI a9298 .cfa: sp 2192 +
STACK CFI INIT aad74 2b0 .cfa: sp 0 + .ra: lr
STACK CFI aad78 .cfa: sp 28 +
STACK CFI aad7c .cfa: r11 4 + .ra: .cfa -4 + ^ r11: .cfa -8 + ^ r4: .cfa -28 + ^ r5: .cfa -24 + ^ r6: .cfa -20 + ^ r7: .cfa -16 + ^ r8: .cfa -12 + ^
STACK CFI INIT ab024 2c0 .cfa: sp 0 + .ra: lr
STACK CFI ab02c .cfa: sp 20 +
STACK CFI ab034 .cfa: sp 112 +
STACK CFI ab038 .ra: .cfa -4 + ^ r4: .cfa -20 + ^ r5: .cfa -16 + ^ r6: .cfa -12 + ^ r7: .cfa -8 + ^
STACK CFI INIT ab2e4 1d8 .cfa: sp 0 + .ra: lr
STACK CFI ab2e8 .cfa: sp 32 +
STACK CFI ab2ec .cfa: sp 48 +
STACK CFI ab2fc r10: .cfa -8 + ^ r11: .cfa -4 + ^ r4: .cfa -32 + ^ r5: .cfa -28 + ^ r6: .cfa -24 + ^ r7: .cfa -20 + ^ r8: .cfa -16 + ^ r9: .cfa -12 + ^
STACK CFI INIT ab4bc 1084 .cfa: sp 0 + .ra: lr
STACK CFI ab4c0 .cfa: sp 36 +
STACK CFI ab4c4 .cfa: sp 112 +
STACK CFI ab4cc .ra: .cfa -4 + ^ r10: .cfa -12 + ^ r11: .cfa -8 + ^ r4: .cfa -36 + ^ r5: .cfa -32 + ^ r6: .cfa -28 + ^ r7: .cfa -24 + ^ r8: .cfa -20 + ^ r9: .cfa -16 + ^
STACK CFI INIT ac540 a0 .cfa: sp 0 + .ra: lr
STACK CFI ac544 .cfa: sp 16 +
STACK CFI ac548 .ra: .cfa -4 + ^ r4: .cfa -16 + ^ r5: .cfa -12 + ^ r6: .cfa -8 + ^
STACK CFI ac570 .cfa: sp 32 +
STACK CFI INIT ac5e0 28 .cfa: sp 0 + .ra: lr
STACK CFI ac5e8 .cfa: sp 4 +
STACK CFI ac5f0 .cfa: sp 24 +
STACK CFI ac5fc .ra: .cfa -4 + ^
STACK CFI INIT ac608 2c .cfa: sp 0 + .ra: lr
STACK CFI ac60c .cfa: sp 4 +
STACK CFI ac610 .ra: .cfa -4 + ^
STACK CFI ac614 .cfa: sp 24 +
STACK CFI INIT ac634 28 .cfa: sp 0 + .ra: lr
STACK CFI ac638 .cfa: sp 4 +
STACK CFI ac63c .cfa: sp 24 +
STACK CFI ac644 .ra: .cfa -4 + ^
STACK CFI INIT ac65c 2c .cfa: sp 0 + .ra: lr
STACK CFI ac660 .cfa: sp 4 +
STACK CFI ac664 .cfa: sp 24 +
STACK CFI ac668 .ra: .cfa -4 + ^
STACK CFI INIT ac688 2c .cfa: sp 0 + .ra: lr
STACK CFI ac68c .cfa: sp 4 +
STACK CFI ac690 .cfa: sp 24 +
STACK CFI ac69c .ra: .cfa -4 + ^
STACK CFI INIT ac6b4 34 .cfa: sp 0 + .ra: lr
STACK CFI ac6b8 .cfa: sp 4 +
STACK CFI ac6bc .cfa: sp 24 +
STACK CFI ac6c0 .ra: .cfa -4 + ^
STACK CFI INIT ac6f0 1c .cfa: sp 0 + .ra: lr
STACK CFI ac6f4 r7: r12
STACK CFI ac700 r7: r7
STACK CFI INIT ac710 1c .cfa: sp 0 + .ra: lr
STACK CFI ac714 r7: r12
STACK CFI ac720 r7: r7
STACK CFI INIT ac730 1c .cfa: sp 0 + .ra: lr
STACK CFI ac734 r7: r12
STACK CFI ac740 r7: r7
STACK CFI INIT ac750 1c .cfa: sp 0 + .ra: lr
STACK CFI ac754 r7: r12
STACK CFI ac760 r7: r7
STACK CFI INIT ac770 1c .cfa: sp 0 + .ra: lr
STACK CFI ac774 r7: r12
STACK CFI ac780 r7: r7
STACK CFI INIT ac790 1c .cfa: sp 0 + .ra: lr
STACK CFI ac794 r7: r12
STACK CFI ac7a0 r7: r7
STACK CFI INIT ac7b0 1c .cfa: sp 0 + .ra: lr
STACK CFI ac7b4 r7: r12
STACK CFI ac7c0 r7: r7
STACK CFI INIT ac7d0 1c .cfa: sp 0 + .ra: lr
STACK CFI ac7d4 r7: r12
STACK CFI ac7e0 r7: r7
STACK CFI INIT ac7f0 5c .cfa: sp 0 + .ra: lr
STACK CFI ac7f8 .cfa: sp 8 +
STACK CFI ac804 .ra: .cfa -4 + ^ r7: .cfa -8 + ^
STACK CFI INIT ac84c 1a4 .cfa: sp 0 + .ra: lr
STACK CFI ac854 .cfa: sp 32 +
STACK CFI ac860 .cfa: r11 4 + .ra: .cfa -4 + ^ r10: .cfa -12 + ^ r11: .cfa -8 + ^ r4: .cfa -32 + ^ r5: .cfa -28 + ^ r6: .cfa -24 + ^ r7: .cfa -20 + ^ r8: .cfa -16 + ^
STACK CFI INIT ac9f0 dc .cfa: sp 0 + .ra: lr
STACK CFI ac9f8 .cfa: sp 24 +
STACK CFI aca04 .cfa: sp 32 +
STACK CFI aca08 .ra: .cfa -4 + ^ r4: .cfa -24 + ^ r5: .cfa -20 + ^ r6: .cfa -16 + ^ r7: .cfa -12 + ^ r8: .cfa -8 + ^
STACK CFI INIT acacc dc .cfa: sp 0 + .ra: lr
STACK CFI acad4 .cfa: sp 24 +
STACK CFI acae0 .cfa: sp 32 +
STACK CFI acae4 .ra: .cfa -4 + ^ r4: .cfa -24 + ^ r5: .cfa -20 + ^ r6: .cfa -16 + ^ r7: .cfa -12 + ^ r8: .cfa -8 + ^
STACK CFI INIT acba8 d0 .cfa: sp 0 + .ra: lr
STACK CFI acbb0 .cfa: sp 28 +
STACK CFI acbb8 .cfa: sp 40 +
STACK CFI acbc0 .ra: .cfa -4 + ^ r10: .cfa -8 + ^ r4: .cfa -28 + ^ r5: .cfa -24 + ^ r6: .cfa -20 + ^ r7: .cfa -16 + ^ r8: .cfa -12 + ^
STACK CFI INIT acc78 d0 .cfa: sp 0 + .ra: lr
STACK CFI acc80 .cfa: sp 28 +
STACK CFI acc88 .cfa: sp 40 +
STACK CFI acc90 .ra: .cfa -4 + ^ r10: .cfa -8 + ^ r4: .cfa -28 + ^ r5: .cfa -24 + ^ r6: .cfa -20 + ^ r7: .cfa -16 + ^ r8: .cfa -12 + ^
STACK CFI INIT acd48 24 .cfa: sp 0 + .ra: lr
STACK CFI acd50 .cfa: sp 4 +
STACK CFI acd58 r7: .cfa -4 + ^
STACK CFI INIT acd6c 28 .cfa: sp 0 + .ra: lr
STACK CFI acd70 .cfa: sp 4 +
STACK CFI acd74 .cfa: sp 16 +
STACK CFI acd7c .ra: .cfa -4 + ^
STACK CFI INIT acd94 230 .cfa: sp 0 + .ra: lr
STACK CFI acd9c .cfa: sp 24 +
STACK CFI acda0 r10: .cfa -4 + ^ r4: .cfa -24 + ^ r5: .cfa -20 + ^ r6: .cfa -16 + ^ r7: .cfa -12 + ^ r8: .cfa -8 + ^
STACK CFI INIT acfc4 10 .cfa: sp 0 + .ra: lr
STACK CFI INIT acfd4 4 .cfa: sp 0 + .ra: lr
STACK CFI INIT acfd8 ec .cfa: sp 0 + .ra: lr
STACK CFI INIT ad0c4 20 .cfa: sp 0 + .ra: lr
STACK CFI INIT ad0e4 24 .cfa: sp 0 + .ra: lr
STACK CFI INIT 116e00 94 .cfa: sp 0 + .ra: lr
STACK CFI 116e1c .cfa: sp 8 +
STACK CFI 116e20 .ra: .cfa -4 + ^ r4: .cfa -8 + ^
STACK CFI INIT ad108 24 .cfa: sp 0 + .ra: lr
STACK CFI ad110 .cfa: sp 8 +
STACK CFI ad114 .ra: .cfa -4 + ^ r4: .cfa -8 + ^
STACK CFI INIT ad12c 24 .cfa: sp 0 + .ra: lr
STACK CFI ad134 .cfa: sp 8 +
STACK CFI ad138 .ra: .cfa -4 + ^ r4: .cfa -8 + ^
STACK CFI INIT ad150 10 .cfa: sp 0 + .ra: lr
STACK CFI INIT ad160 138 .cfa: sp 0 + .ra: lr
STACK CFI ad168 .cfa: sp 24 +
STACK CFI ad170 .cfa: sp 56 +
STACK CFI ad178 r10: .cfa -4 + ^ r4: .cfa -24 + ^ r5: .cfa -20 + ^ r6: .cfa -16 + ^ r7: .cfa -12 + ^ r8: .cfa -8 + ^
STACK CFI INIT ad298 18 .cfa: sp 0 + .ra: lr
STACK CFI INIT ad2b0 738 .cfa: sp 0 + .ra: lr
STACK CFI ad2b4 .cfa: sp 36 +
STACK CFI ad2b8 .ra: .cfa -4 + ^ r10: .cfa -12 + ^ r11: .cfa -8 + ^ r4: .cfa -36 + ^ r5: .cfa -32 + ^ r6: .cfa -28 + ^ r7: .cfa -24 + ^ r8: .cfa -20 + ^ r9: .cfa -16 + ^
STACK CFI ad2d8 .cfa: sp 96 +
STACK CFI INIT ad9e8 dd0 .cfa: sp 0 + .ra: lr
STACK CFI ad9f4 .cfa: sp 36 +
STACK CFI ad9fc .cfa: sp 232 +
STACK CFI ada00 .ra: .cfa -4 + ^ r10: .cfa -12 + ^ r11: .cfa -8 + ^ r4: .cfa -36 + ^ r5: .cfa -32 + ^ r6: .cfa -28 + ^ r7: .cfa -24 + ^ r8: .cfa -20 + ^ r9: .cfa -16 + ^
STACK CFI INIT ae7b8 a4 .cfa: sp 0 + .ra: lr
STACK CFI ae7bc .cfa: sp 36 +
STACK CFI ae7c0 .cfa: r11 4 + .ra: .cfa -4 + ^ r10: .cfa -12 + ^ r11: .cfa -8 + ^ r4: .cfa -36 + ^ r5: .cfa -32 + ^ r6: .cfa -28 + ^ r7: .cfa -24 + ^ r8: .cfa -20 + ^ r9: .cfa -16 + ^
STACK CFI INIT ae85c 18e0 .cfa: sp 0 + .ra: lr
STACK CFI ae860 .cfa: sp 36 +
STACK CFI ae864 .ra: .cfa -4 + ^ r10: .cfa -12 + ^ r11: .cfa -8 + ^ r4: .cfa -36 + ^ r5: .cfa -32 + ^ r6: .cfa -28 + ^ r7: .cfa -24 + ^ r8: .cfa -20 + ^ r9: .cfa -16 + ^
STACK CFI ae868 .cfa: r11 4 +
STACK CFI INIT b013c 30 .cfa: sp 0 + .ra: lr
STACK CFI b0140 .cfa: sp 16 +
STACK CFI b0144 .ra: .cfa -4 + ^ r3: .cfa -16 + ^ r4: .cfa -12 + ^ r5: .cfa -8 + ^
STACK CFI INIT b016c 954 .cfa: sp 0 + .ra: lr
STACK CFI b0170 .cfa: sp 36 +
STACK CFI b0178 .cfa: r11 4 + .ra: .cfa -4 + ^ r10: .cfa -12 + ^ r11: .cfa -8 + ^ r4: .cfa -36 + ^ r5: .cfa -32 + ^ r6: .cfa -28 + ^ r7: .cfa -24 + ^ r8: .cfa -20 + ^ r9: .cfa -16 + ^
STACK CFI INIT b0ac0 1a4 .cfa: sp 0 + .ra: lr
STACK CFI INIT b0c64 a4 .cfa: sp 0 + .ra: lr
STACK CFI INIT b0d08 64 .cfa: sp 0 + .ra: lr
STACK CFI INIT b0d6c 180 .cfa: sp 0 + .ra: lr
STACK CFI b0d78 .cfa: sp 4 +
STACK CFI b0d84 r4: .cfa -4 + ^
STACK CFI INIT b0eec 28 .cfa: sp 0 + .ra: lr
STACK CFI INIT b0f14 208 .cfa: sp 0 + .ra: lr
STACK CFI b0f18 .cfa: sp 36 +
STACK CFI b0f1c .cfa: sp 80 +
STACK CFI b0f20 .ra: .cfa -4 + ^ r10: .cfa -12 + ^ r11: .cfa -8 + ^ r4: .cfa -36 + ^ r5: .cfa -32 + ^ r6: .cfa -28 + ^ r7: .cfa -24 + ^ r8: .cfa -20 + ^ r9: .cfa -16 + ^
STACK CFI INIT b111c 78 .cfa: sp 0 + .ra: lr
STACK CFI b1128 .cfa: sp 8 +
STACK CFI b1130 r4: .cfa -8 + ^ r5: .cfa -4 + ^
STACK CFI INIT b1194 88 .cfa: sp 0 + .ra: lr
STACK CFI b1198 .cfa: sp 16 +
STACK CFI b119c .ra: .cfa -4 + ^ r4: .cfa -16 + ^ r5: .cfa -12 + ^ r6: .cfa -8 + ^
STACK CFI INIT b121c 84 .cfa: sp 0 + .ra: lr
STACK CFI b1220 .cfa: sp 16 +
STACK CFI b1224 .ra: .cfa -4 + ^ r4: .cfa -16 + ^ r5: .cfa -12 + ^ r6: .cfa -8 + ^
STACK CFI INIT b12a0 2c .cfa: sp 0 + .ra: lr
STACK CFI b12a8 .cfa: sp 8 +
STACK CFI b12ac .ra: .cfa -4 + ^ r4: .cfa -8 + ^
STACK CFI INIT b12cc 44 .cfa: sp 0 + .ra: lr
STACK CFI b12d0 .cfa: sp 16 +
STACK CFI b12d4 .ra: .cfa -4 + ^ r3: .cfa -16 + ^ r4: .cfa -12 + ^ r5: .cfa -8 + ^
STACK CFI INIT b1310 5c .cfa: sp 0 + .ra: lr
STACK CFI b1314 .cfa: sp 8 +
STACK CFI b1318 .ra: .cfa -4 + ^ r4: .cfa -8 + ^
STACK CFI INIT b136c a4 .cfa: sp 0 + .ra: lr
STACK CFI b1374 .cfa: sp 24 +
STACK CFI b137c .ra: .cfa -4 + ^ r4: .cfa -24 + ^ r5: .cfa -20 + ^ r6: .cfa -16 + ^ r7: .cfa -12 + ^ r8: .cfa -8 + ^
STACK CFI INIT b1410 64 .cfa: sp 0 + .ra: lr
STACK CFI b1414 .cfa: sp 16 +
STACK CFI b1418 .ra: .cfa -4 + ^ r4: .cfa -16 + ^ r5: .cfa -12 + ^ r6: .cfa -8 + ^
STACK CFI INIT b1474 30 .cfa: sp 0 + .ra: lr
STACK CFI b1478 .cfa: sp 8 +
STACK CFI b147c .ra: .cfa -4 + ^ r4: .cfa -8 + ^
STACK CFI INIT b14a4 44 .cfa: sp 0 + .ra: lr
STACK CFI b14a8 .cfa: sp 8 +
STACK CFI b14ac .ra: .cfa -4 + ^ r4: .cfa -8 + ^
STACK CFI INIT b14e8 30 .cfa: sp 0 + .ra: lr
STACK CFI INIT b1518 14 .cfa: sp 0 + .ra: lr
STACK CFI b1520 .cfa: sp 8 + .ra: .cfa -4 + ^ r3: .cfa -8 + ^
STACK CFI INIT b152c 190 .cfa: sp 0 + .ra: lr
STACK CFI b1530 .cfa: sp 24 +
STACK CFI b1534 .ra: .cfa -4 + ^ r4: .cfa -24 + ^ r5: .cfa -20 + ^ r6: .cfa -16 + ^ r7: .cfa -12 + ^ r8: .cfa -8 + ^
STACK CFI INIT b16bc 250 .cfa: sp 0 + .ra: lr
STACK CFI b16c0 .cfa: sp 24 +
STACK CFI b16d8 .ra: .cfa -4 + ^ r4: .cfa -24 + ^ r5: .cfa -20 + ^ r6: .cfa -16 + ^ r7: .cfa -12 + ^ r8: .cfa -8 + ^
STACK CFI INIT b190c a0 .cfa: sp 0 + .ra: lr
STACK CFI b1914 .cfa: sp 16 +
STACK CFI b191c .ra: .cfa -4 + ^ r4: .cfa -16 + ^ r5: .cfa -12 + ^ r6: .cfa -8 + ^
STACK CFI INIT b19ac 124 .cfa: sp 0 + .ra: lr
STACK CFI b19b4 .cfa: sp 24 +
STACK CFI b19bc .ra: .cfa -4 + ^ r4: .cfa -24 + ^ r5: .cfa -20 + ^ r6: .cfa -16 + ^ r7: .cfa -12 + ^ r8: .cfa -8 + ^
STACK CFI INIT b1ad0 19c .cfa: sp 0 + .ra: lr
STACK CFI b1ad4 .cfa: sp 24 +
STACK CFI b1ad8 .ra: .cfa -4 + ^ r4: .cfa -24 + ^ r5: .cfa -20 + ^ r6: .cfa -16 + ^ r7: .cfa -12 + ^ r8: .cfa -8 + ^
STACK CFI INIT b1c6c 134 .cfa: sp 0 + .ra: lr
STACK CFI b1c70 .cfa: sp 16 +
STACK CFI b1c74 .ra: .cfa -4 + ^ r3: .cfa -16 + ^ r4: .cfa -12 + ^ r5: .cfa -8 + ^
STACK CFI INIT b1da0 1f0 .cfa: sp 0 + .ra: lr
STACK CFI b1da4 .cfa: sp 36 +
STACK CFI b1dac .ra: .cfa -4 + ^ r10: .cfa -12 + ^ r11: .cfa -8 + ^ r4: .cfa -36 + ^ r5: .cfa -32 + ^ r6: .cfa -28 + ^ r7: .cfa -24 + ^ r8: .cfa -20 + ^ r9: .cfa -16 + ^
STACK CFI b1db0 .cfa: sp 48 +
STACK CFI INIT b1f90 a8 .cfa: sp 0 + .ra: lr
STACK CFI b1f94 .cfa: sp 24 +
STACK CFI b1f98 .ra: .cfa -4 + ^ r3: .cfa -24 + ^ r4: .cfa -20 + ^ r5: .cfa -16 + ^ r6: .cfa -12 + ^ r7: .cfa -8 + ^
STACK CFI INIT b2038 2d8 .cfa: sp 0 + .ra: lr
STACK CFI b203c .cfa: sp 36 +
STACK CFI b2040 .cfa: sp 56 +
STACK CFI b2044 .ra: .cfa -4 + ^ r10: .cfa -12 + ^ r11: .cfa -8 + ^ r4: .cfa -36 + ^ r5: .cfa -32 + ^ r6: .cfa -28 + ^ r7: .cfa -24 + ^ r8: .cfa -20 + ^ r9: .cfa -16 + ^
STACK CFI INIT b2310 214 .cfa: sp 0 + .ra: lr
STACK CFI b2314 .cfa: sp 36 +
STACK CFI b2318 .ra: .cfa -4 + ^ r10: .cfa -12 + ^ r11: .cfa -8 + ^ r4: .cfa -36 + ^ r5: .cfa -32 + ^ r6: .cfa -28 + ^ r7: .cfa -24 + ^ r8: .cfa -20 + ^ r9: .cfa -16 + ^
STACK CFI b232c .cfa: sp 88 +
STACK CFI INIT b2524 98 .cfa: sp 0 + .ra: lr
STACK CFI b2528 .cfa: sp 16 +
STACK CFI b252c .ra: .cfa -4 + ^ r3: .cfa -16 + ^ r4: .cfa -12 + ^ r5: .cfa -8 + ^
STACK CFI INIT b25bc 208 .cfa: sp 0 + .ra: lr
STACK CFI b25c4 .cfa: sp 28 +
STACK CFI b25cc .cfa: sp 64 +
STACK CFI b25d0 .ra: .cfa -4 + ^ r10: .cfa -8 + ^ r4: .cfa -28 + ^ r5: .cfa -24 + ^ r6: .cfa -20 + ^ r7: .cfa -16 + ^ r8: .cfa -12 + ^
STACK CFI INIT b27c4 12c .cfa: sp 0 + .ra: lr
STACK CFI b27cc .cfa: sp 16 +
STACK CFI b27d0 .ra: .cfa -4 + ^ r3: .cfa -16 + ^ r4: .cfa -12 + ^ r5: .cfa -8 + ^
STACK CFI INIT b28f0 134 .cfa: sp 0 + .ra: lr
STACK CFI b28f4 .cfa: sp 8 +
STACK CFI b2910 .ra: .cfa -4 + ^ r4: .cfa -8 + ^
STACK CFI INIT b2a24 5f4 .cfa: sp 0 + .ra: lr
STACK CFI b2a2c .cfa: sp 36 +
STACK CFI b2a34 .cfa: sp 88 +
STACK CFI b2a38 .ra: .cfa -4 + ^ r10: .cfa -12 + ^ r11: .cfa -8 + ^ r4: .cfa -36 + ^ r5: .cfa -32 + ^ r6: .cfa -28 + ^ r7: .cfa -24 + ^ r8: .cfa -20 + ^ r9: .cfa -16 + ^
STACK CFI INIT b3018 158 .cfa: sp 0 + .ra: lr
STACK CFI b301c .cfa: sp 36 +
STACK CFI b3024 .ra: .cfa -4 + ^ r10: .cfa -12 + ^ r11: .cfa -8 + ^ r4: .cfa -36 + ^ r5: .cfa -32 + ^ r6: .cfa -28 + ^ r7: .cfa -24 + ^ r8: .cfa -20 + ^ r9: .cfa -16 + ^
STACK CFI b3038 .cfa: sp 48 +
STACK CFI INIT b3170 788 .cfa: sp 0 + .ra: lr
STACK CFI b3174 .cfa: sp 36 +
STACK CFI b3178 .ra: .cfa -4 + ^ r10: .cfa -12 + ^ r11: .cfa -8 + ^ r4: .cfa -36 + ^ r5: .cfa -32 + ^ r6: .cfa -28 + ^ r7: .cfa -24 + ^ r8: .cfa -20 + ^ r9: .cfa -16 + ^
STACK CFI b317c .cfa: sp 72 +
STACK CFI INIT b38f8 16c .cfa: sp 0 + .ra: lr
STACK CFI b3900 .cfa: sp 24 +
STACK CFI b3908 .ra: .cfa -4 + ^ r4: .cfa -24 + ^ r5: .cfa -20 + ^ r6: .cfa -16 + ^ r7: .cfa -12 + ^ r8: .cfa -8 + ^
STACK CFI INIT b3a64 84 .cfa: sp 0 + .ra: lr
STACK CFI b3a6c .cfa: sp 16 +
STACK CFI b3a74 .ra: .cfa -4 + ^ r4: .cfa -16 + ^ r5: .cfa -12 + ^ r6: .cfa -8 + ^
STACK CFI INIT b3ae8 7c .cfa: sp 0 + .ra: lr
STACK CFI b3af0 .cfa: sp 4 +
STACK CFI b3af4 r4: .cfa -4 + ^
STACK CFI INIT b3b64 10c .cfa: sp 0 + .ra: lr
STACK CFI b3b68 .cfa: sp 28 +
STACK CFI b3b6c .cfa: sp 40 +
STACK CFI b3b70 .ra: .cfa -4 + ^ r10: .cfa -8 + ^ r4: .cfa -28 + ^ r5: .cfa -24 + ^ r6: .cfa -20 + ^ r7: .cfa -16 + ^ r8: .cfa -12 + ^
STACK CFI INIT b3c70 198 .cfa: sp 0 + .ra: lr
STACK CFI b3c74 .cfa: sp 36 +
STACK CFI b3c78 .cfa: sp 72 +
STACK CFI b3c7c .ra: .cfa -4 + ^ r10: .cfa -12 + ^ r11: .cfa -8 + ^ r4: .cfa -36 + ^ r5: .cfa -32 + ^ r6: .cfa -28 + ^ r7: .cfa -24 + ^ r8: .cfa -20 + ^ r9: .cfa -16 + ^
STACK CFI INIT b3e08 48 .cfa: sp 0 + .ra: lr
STACK CFI INIT b3e50 9c .cfa: sp 0 + .ra: lr
STACK CFI b3e54 .cfa: sp 12 +
STACK CFI b3e5c r4: .cfa -12 + ^ r5: .cfa -8 + ^ r6: .cfa -4 + ^
STACK CFI INIT b3eec ec .cfa: sp 0 + .ra: lr
STACK CFI b3ef0 .cfa: sp 36 +
STACK CFI b3ef4 .ra: .cfa -4 + ^ r10: .cfa -12 + ^ r11: .cfa -8 + ^ r4: .cfa -36 + ^ r5: .cfa -32 + ^ r6: .cfa -28 + ^ r7: .cfa -24 + ^ r8: .cfa -20 + ^ r9: .cfa -16 + ^
STACK CFI b3ef8 .cfa: sp 56 +
STACK CFI INIT b3fd8 2c8 .cfa: sp 0 + .ra: lr
STACK CFI b3fe0 .cfa: sp 36 +
STACK CFI b3fe8 .cfa: sp 48 +
STACK CFI b3fec .ra: .cfa -4 + ^ r10: .cfa -12 + ^ r11: .cfa -8 + ^ r4: .cfa -36 + ^ r5: .cfa -32 + ^ r6: .cfa -28 + ^ r7: .cfa -24 + ^ r8: .cfa -20 + ^ r9: .cfa -16 + ^
STACK CFI INIT b42a0 c0 .cfa: sp 0 + .ra: lr
STACK CFI b42a8 .cfa: sp 20 +
STACK CFI b42b0 .cfa: sp 40 +
STACK CFI b42b4 .ra: .cfa -4 + ^ r4: .cfa -20 + ^ r5: .cfa -16 + ^ r6: .cfa -12 + ^ r7: .cfa -8 + ^
STACK CFI INIT b4360 b0 .cfa: sp 0 + .ra: lr
STACK CFI b4364 .cfa: sp 24 +
STACK CFI b4368 .ra: .cfa -4 + ^ r4: .cfa -24 + ^ r5: .cfa -20 + ^ r6: .cfa -16 + ^ r7: .cfa -12 + ^ r8: .cfa -8 + ^
STACK CFI b436c .cfa: sp 40 +
STACK CFI INIT b4410 3c .cfa: sp 0 + .ra: lr
STACK CFI b4414 .cfa: sp 8 +
STACK CFI b441c .cfa: sp 24 +
STACK CFI b4420 .ra: .cfa -4 + ^ r4: .cfa -8 + ^
STACK CFI INIT b444c 184 .cfa: sp 0 + .ra: lr
STACK CFI b4450 .cfa: sp 32 +
STACK CFI b4454 .ra: .cfa -4 + ^ r10: .cfa -8 + ^ r4: .cfa -32 + ^ r5: .cfa -28 + ^ r6: .cfa -24 + ^ r7: .cfa -20 + ^ r8: .cfa -16 + ^ r9: .cfa -12 + ^
STACK CFI INIT b45d0 8c .cfa: sp 0 + .ra: lr
STACK CFI b45d8 .cfa: sp 12 +
STACK CFI b45e0 .cfa: sp 24 +
STACK CFI b45e8 .ra: .cfa -4 + ^ r4: .cfa -12 + ^ r5: .cfa -8 + ^
STACK CFI INIT b465c 4c .cfa: sp 0 + .ra: lr
STACK CFI b4660 .cfa: sp 16 +
STACK CFI b4664 .ra: .cfa -4 + ^ r3: .cfa -16 + ^ r4: .cfa -12 + ^ r5: .cfa -8 + ^
STACK CFI INIT b46a8 b0 .cfa: sp 0 + .ra: lr
STACK CFI b46b0 .cfa: sp 16 +
STACK CFI b46bc .ra: .cfa -4 + ^ r4: .cfa -16 + ^ r5: .cfa -12 + ^ r6: .cfa -8 + ^
STACK CFI INIT b4758 23c .cfa: sp 0 + .ra: lr
STACK CFI b475c .cfa: sp 36 +
STACK CFI b4760 .ra: .cfa -4 + ^ r10: .cfa -12 + ^ r11: .cfa -8 + ^ r4: .cfa -36 + ^ r5: .cfa -32 + ^ r6: .cfa -28 + ^ r7: .cfa -24 + ^ r8: .cfa -20 + ^ r9: .cfa -16 + ^
STACK CFI b4764 .cfa: sp 56 +
STACK CFI INIT b4994 20c .cfa: sp 0 + .ra: lr
STACK CFI b4998 .cfa: sp 36 +
STACK CFI b499c .ra: .cfa -4 + ^ r10: .cfa -12 + ^ r11: .cfa -8 + ^ r4: .cfa -36 + ^ r5: .cfa -32 + ^ r6: .cfa -28 + ^ r7: .cfa -24 + ^ r8: .cfa -20 + ^ r9: .cfa -16 + ^
STACK CFI b49a8 .cfa: sp 80 +
STACK CFI INIT b4ba0 7c .cfa: sp 0 + .ra: lr
STACK CFI b4ba4 .cfa: sp 16 +
STACK CFI b4ba8 .ra: .cfa -4 + ^ r4: .cfa -16 + ^ r5: .cfa -12 + ^ r6: .cfa -8 + ^
STACK CFI INIT b4c1c 190 .cfa: sp 0 + .ra: lr
STACK CFI b4c20 .cfa: sp 36 +
STACK CFI b4c24 .ra: .cfa -4 + ^ r10: .cfa -12 + ^ r11: .cfa -8 + ^ r4: .cfa -36 + ^ r5: .cfa -32 + ^ r6: .cfa -28 + ^ r7: .cfa -24 + ^ r8: .cfa -20 + ^ r9: .cfa -16 + ^
STACK CFI b4c28 .cfa: sp 40 +
STACK CFI INIT b4dac 3d4 .cfa: sp 0 + .ra: lr
STACK CFI b4db0 .cfa: sp 36 +
STACK CFI b4db4 .ra: .cfa -4 + ^ r10: .cfa -12 + ^ r11: .cfa -8 + ^ r4: .cfa -36 + ^ r5: .cfa -32 + ^ r6: .cfa -28 + ^ r7: .cfa -24 + ^ r8: .cfa -20 + ^ r9: .cfa -16 + ^
STACK CFI b4dbc .cfa: sp 72 +
STACK CFI INIT b5180 4bc .cfa: sp 0 + .ra: lr
STACK CFI b5188 .cfa: sp 36 +
STACK CFI b5190 .cfa: sp 56 +
STACK CFI b5198 .ra: .cfa -4 + ^ r10: .cfa -12 + ^ r11: .cfa -8 + ^ r4: .cfa -36 + ^ r5: .cfa -32 + ^ r6: .cfa -28 + ^ r7: .cfa -24 + ^ r8: .cfa -20 + ^ r9: .cfa -16 + ^
STACK CFI INIT b563c 230 .cfa: sp 0 + .ra: lr
STACK CFI b5640 .cfa: sp 28 +
STACK CFI b5644 .ra: .cfa -4 + ^ r10: .cfa -8 + ^ r4: .cfa -28 + ^ r5: .cfa -24 + ^ r6: .cfa -20 + ^ r7: .cfa -16 + ^ r8: .cfa -12 + ^
STACK CFI b5648 .cfa: sp 48 +
STACK CFI INIT b586c 224 .cfa: sp 0 + .ra: lr
STACK CFI b5870 .cfa: sp 36 +
STACK CFI b5874 .ra: .cfa -4 + ^ r10: .cfa -12 + ^ r11: .cfa -8 + ^ r4: .cfa -36 + ^ r5: .cfa -32 + ^ r6: .cfa -28 + ^ r7: .cfa -24 + ^ r8: .cfa -20 + ^ r9: .cfa -16 + ^
STACK CFI b5878 .cfa: sp 72 +
STACK CFI INIT b5a90 10d8 .cfa: sp 0 + .ra: lr
STACK CFI b5a94 .cfa: sp 36 +
STACK CFI b5a98 .cfa: r11 4 + .ra: .cfa -4 + ^ r10: .cfa -12 + ^ r11: .cfa -8 + ^ r4: .cfa -36 + ^ r5: .cfa -32 + ^ r6: .cfa -28 + ^ r7: .cfa -24 + ^ r8: .cfa -20 + ^ r9: .cfa -16 + ^
STACK CFI INIT b6b68 1ec .cfa: sp 0 + .ra: lr
STACK CFI b6b6c .cfa: sp 32 +
STACK CFI b6b70 .ra: .cfa -4 + ^ r10: .cfa -8 + ^ r3: .cfa -32 + ^ r4: .cfa -28 + ^ r5: .cfa -24 + ^ r6: .cfa -20 + ^ r7: .cfa -16 + ^ r8: .cfa -12 + ^
STACK CFI INIT b6d54 f8 .cfa: sp 0 + .ra: lr
STACK CFI b6d58 .cfa: sp 36 +
STACK CFI b6d5c .ra: .cfa -4 + ^ r10: .cfa -12 + ^ r11: .cfa -8 + ^ r4: .cfa -36 + ^ r5: .cfa -32 + ^ r6: .cfa -28 + ^ r7: .cfa -24 + ^ r8: .cfa -20 + ^ r9: .cfa -16 + ^
STACK CFI b6d64 .cfa: sp 48 +
STACK CFI INIT b6e4c e1c .cfa: sp 0 + .ra: lr
STACK CFI b6e50 .cfa: sp 36 +
STACK CFI b6e54 .cfa: sp 96 +
STACK CFI b6e70 .ra: .cfa -4 + ^ r10: .cfa -12 + ^ r11: .cfa -8 + ^ r4: .cfa -36 + ^ r5: .cfa -32 + ^ r6: .cfa -28 + ^ r7: .cfa -24 + ^ r8: .cfa -20 + ^ r9: .cfa -16 + ^
STACK CFI INIT b7c68 5d0 .cfa: sp 0 + .ra: lr
STACK CFI b7c6c .cfa: sp 36 +
STACK CFI b7c70 .cfa: sp 128 +
STACK CFI b7c78 .ra: .cfa -4 + ^ r10: .cfa -12 + ^ r11: .cfa -8 + ^ r4: .cfa -36 + ^ r5: .cfa -32 + ^ r6: .cfa -28 + ^ r7: .cfa -24 + ^ r8: .cfa -20 + ^ r9: .cfa -16 + ^
STACK CFI INIT b8238 16c .cfa: sp 0 + .ra: lr
STACK CFI b823c .cfa: sp 36 +
STACK CFI b8240 .ra: .cfa -4 + ^ r10: .cfa -12 + ^ r11: .cfa -8 + ^ r4: .cfa -36 + ^ r5: .cfa -32 + ^ r6: .cfa -28 + ^ r7: .cfa -24 + ^ r8: .cfa -20 + ^ r9: .cfa -16 + ^
STACK CFI b8248 .cfa: sp 64 +
STACK CFI INIT b83a4 76c .cfa: sp 0 + .ra: lr
STACK CFI b83a8 .cfa: sp 36 +
STACK CFI b83ac .ra: .cfa -4 + ^ r10: .cfa -12 + ^ r11: .cfa -8 + ^ r4: .cfa -36 + ^ r5: .cfa -32 + ^ r6: .cfa -28 + ^ r7: .cfa -24 + ^ r8: .cfa -20 + ^ r9: .cfa -16 + ^
STACK CFI b83b0 .cfa: sp 128 +
STACK CFI INIT b8b10 174 .cfa: sp 0 + .ra: lr
STACK CFI b8b14 .cfa: sp 32 +
STACK CFI b8b1c .ra: .cfa -4 + ^ r10: .cfa -8 + ^ r4: .cfa -32 + ^ r5: .cfa -28 + ^ r6: .cfa -24 + ^ r7: .cfa -20 + ^ r8: .cfa -16 + ^ r9: .cfa -12 + ^
STACK CFI b8b20 .cfa: sp 48 +
STACK CFI INIT b8c84 7fc .cfa: sp 0 + .ra: lr
STACK CFI b8c88 .cfa: sp 36 +
STACK CFI b8c8c .ra: .cfa -4 + ^ r10: .cfa -12 + ^ r11: .cfa -8 + ^ r4: .cfa -36 + ^ r5: .cfa -32 + ^ r6: .cfa -28 + ^ r7: .cfa -24 + ^ r8: .cfa -20 + ^ r9: .cfa -16 + ^
STACK CFI b8c90 .cfa: sp 152 +
STACK CFI INIT b9480 2a8 .cfa: sp 0 + .ra: lr
STACK CFI b9484 .cfa: sp 36 +
STACK CFI b9488 .cfa: sp 96 +
STACK CFI b948c .ra: .cfa -4 + ^ r10: .cfa -12 + ^ r11: .cfa -8 + ^ r4: .cfa -36 + ^ r5: .cfa -32 + ^ r6: .cfa -28 + ^ r7: .cfa -24 + ^ r8: .cfa -20 + ^ r9: .cfa -16 + ^
STACK CFI INIT b9728 824 .cfa: sp 0 + .ra: lr
STACK CFI b972c .cfa: sp 36 +
STACK CFI b9730 .cfa: r11 4 + .ra: .cfa -4 + ^ r10: .cfa -12 + ^ r11: .cfa -8 + ^ r4: .cfa -36 + ^ r5: .cfa -32 + ^ r6: .cfa -28 + ^ r7: .cfa -24 + ^ r8: .cfa -20 + ^ r9: .cfa -16 + ^
STACK CFI INIT b9f4c 17d0 .cfa: sp 0 + .ra: lr
STACK CFI b9f50 .cfa: sp 36 +
STACK CFI b9f54 .cfa: sp 344 +
STACK CFI b9f5c .ra: .cfa -4 + ^ r10: .cfa -12 + ^ r11: .cfa -8 + ^ r4: .cfa -36 + ^ r5: .cfa -32 + ^ r6: .cfa -28 + ^ r7: .cfa -24 + ^ r8: .cfa -20 + ^ r9: .cfa -16 + ^
STACK CFI INIT bb71c 1174 .cfa: sp 0 + .ra: lr
STACK CFI bb720 .cfa: sp 32 +
STACK CFI bb724 .ra: .cfa -4 + ^ r10: .cfa -8 + ^ r4: .cfa -32 + ^ r5: .cfa -28 + ^ r6: .cfa -24 + ^ r7: .cfa -20 + ^ r8: .cfa -16 + ^ r9: .cfa -12 + ^
STACK CFI INIT bc890 298 .cfa: sp 0 + .ra: lr
STACK CFI bc894 .cfa: sp 36 +
STACK CFI bc898 .ra: .cfa -4 + ^ r10: .cfa -12 + ^ r11: .cfa -8 + ^ r4: .cfa -36 + ^ r5: .cfa -32 + ^ r6: .cfa -28 + ^ r7: .cfa -24 + ^ r8: .cfa -20 + ^ r9: .cfa -16 + ^
STACK CFI bc89c .cfa: sp 72 +
STACK CFI INIT bcb28 63c .cfa: sp 0 + .ra: lr
STACK CFI bcb2c .cfa: sp 36 +
STACK CFI bcb30 .cfa: r11 4 + .ra: .cfa -4 + ^ r10: .cfa -12 + ^ r11: .cfa -8 + ^ r4: .cfa -36 + ^ r5: .cfa -32 + ^ r6: .cfa -28 + ^ r7: .cfa -24 + ^ r8: .cfa -20 + ^ r9: .cfa -16 + ^
STACK CFI INIT bd164 9f4 .cfa: sp 0 + .ra: lr
STACK CFI bd168 .cfa: sp 24 +
STACK CFI bd170 .ra: .cfa -4 + ^ r4: .cfa -24 + ^ r5: .cfa -20 + ^ r6: .cfa -16 + ^ r7: .cfa -12 + ^ r8: .cfa -8 + ^
STACK CFI bd188 .cfa: sp 32 +
STACK CFI INIT bdb58 1c .cfa: sp 0 + .ra: lr
STACK CFI bdb5c .cfa: sp 16 +
STACK CFI bdb60 .ra: .cfa -4 + ^ r3: .cfa -16 + ^ r4: .cfa -12 + ^ r5: .cfa -8 + ^
STACK CFI INIT bdb74 d8 .cfa: sp 0 + .ra: lr
STACK CFI bdb78 .cfa: sp 24 +
STACK CFI bdb7c .ra: .cfa -4 + ^ r4: .cfa -24 + ^ r5: .cfa -20 + ^ r6: .cfa -16 + ^ r7: .cfa -12 + ^ r8: .cfa -8 + ^
STACK CFI INIT bdc4c 20cc .cfa: sp 0 + .ra: lr
STACK CFI bdc50 .cfa: sp 36 +
STACK CFI bdc54 .ra: .cfa -4 + ^ r10: .cfa -12 + ^ r11: .cfa -8 + ^ r4: .cfa -36 + ^ r5: .cfa -32 + ^ r6: .cfa -28 + ^ r7: .cfa -24 + ^ r8: .cfa -20 + ^ r9: .cfa -16 + ^
STACK CFI bdc58 .cfa: sp 272 +
STACK CFI INIT bfd18 118 .cfa: sp 0 + .ra: lr
STACK CFI bfd1c .cfa: sp 36 +
STACK CFI bfd20 .cfa: sp 48 +
STACK CFI bfd24 .ra: .cfa -4 + ^ r10: .cfa -12 + ^ r11: .cfa -8 + ^ r4: .cfa -36 + ^ r5: .cfa -32 + ^ r6: .cfa -28 + ^ r7: .cfa -24 + ^ r8: .cfa -20 + ^ r9: .cfa -16 + ^
STACK CFI INIT bfe30 11c .cfa: sp 0 + .ra: lr
STACK CFI bfe34 .cfa: sp 36 +
STACK CFI bfe38 .cfa: sp 56 +
STACK CFI bfe3c .ra: .cfa -4 + ^ r10: .cfa -12 + ^ r11: .cfa -8 + ^ r4: .cfa -36 + ^ r5: .cfa -32 + ^ r6: .cfa -28 + ^ r7: .cfa -24 + ^ r8: .cfa -20 + ^ r9: .cfa -16 + ^
STACK CFI INIT bff4c e80 .cfa: sp 0 + .ra: lr
STACK CFI bff50 .cfa: sp 36 +
STACK CFI bff54 .cfa: sp 192 +
STACK CFI bff60 .ra: .cfa -4 + ^ r10: .cfa -12 + ^ r11: .cfa -8 + ^ r4: .cfa -36 + ^ r5: .cfa -32 + ^ r6: .cfa -28 + ^ r7: .cfa -24 + ^ r8: .cfa -20 + ^ r9: .cfa -16 + ^
STACK CFI INIT c0dcc 94 .cfa: sp 0 + .ra: lr
STACK CFI c0dd4 .cfa: sp 16 +
STACK CFI c0dd8 .ra: .cfa -4 + ^ r4: .cfa -16 + ^ r5: .cfa -12 + ^ r6: .cfa -8 + ^
STACK CFI INIT c0e60 28 .cfa: sp 0 + .ra: lr
STACK CFI INIT c0e88 b8 .cfa: sp 0 + .ra: lr
STACK CFI c0e8c .cfa: sp 16 +
STACK CFI c0e90 .ra: .cfa -4 + ^ r4: .cfa -16 + ^ r5: .cfa -12 + ^ r6: .cfa -8 + ^
STACK CFI INIT c0f40 508 .cfa: sp 0 + .ra: lr
STACK CFI c0f48 .cfa: sp 36 +
STACK CFI c0f4c .ra: .cfa -4 + ^ r10: .cfa -12 + ^ r11: .cfa -8 + ^ r4: .cfa -36 + ^ r5: .cfa -32 + ^ r6: .cfa -28 + ^ r7: .cfa -24 + ^ r8: .cfa -20 + ^ r9: .cfa -16 + ^
STACK CFI c0f58 .cfa: sp 88 +
STACK CFI INIT c1448 f4 .cfa: sp 0 + .ra: lr
STACK CFI c144c .cfa: sp 36 +
STACK CFI c1450 .cfa: sp 72 +
STACK CFI c1454 .ra: .cfa -4 + ^ r10: .cfa -12 + ^ r11: .cfa -8 + ^ r4: .cfa -36 + ^ r5: .cfa -32 + ^ r6: .cfa -28 + ^ r7: .cfa -24 + ^ r8: .cfa -20 + ^ r9: .cfa -16 + ^
STACK CFI INIT c153c f4 .cfa: sp 0 + .ra: lr
STACK CFI c1540 .cfa: sp 24 +
STACK CFI c1548 .ra: .cfa -4 + ^ r4: .cfa -24 + ^ r5: .cfa -20 + ^ r6: .cfa -16 + ^ r7: .cfa -12 + ^ r8: .cfa -8 + ^
STACK CFI INIT c1630 98 .cfa: sp 0 + .ra: lr
STACK CFI c1638 .cfa: sp 24 +
STACK CFI c163c .ra: .cfa -4 + ^ r3: .cfa -24 + ^ r4: .cfa -20 + ^ r5: .cfa -16 + ^ r6: .cfa -12 + ^ r7: .cfa -8 + ^
STACK CFI INIT c16c8 40 .cfa: sp 0 + .ra: lr
STACK CFI c16cc .cfa: sp 16 +
STACK CFI c16d0 .ra: .cfa -4 + ^ r3: .cfa -16 + ^ r4: .cfa -12 + ^ r5: .cfa -8 + ^
STACK CFI INIT 116e94 10 .cfa: sp 0 + .ra: lr
STACK CFI INIT c1708 184 .cfa: sp 0 + .ra: lr
STACK CFI c170c .cfa: sp 24 +
STACK CFI c1710 .ra: .cfa -4 + ^ r4: .cfa -24 + ^ r5: .cfa -20 + ^ r6: .cfa -16 + ^ r7: .cfa -12 + ^ r8: .cfa -8 + ^
STACK CFI INIT c188c 188 .cfa: sp 0 + .ra: lr
STACK CFI c1890 .cfa: sp 36 +
STACK CFI c1894 .cfa: sp 72 +
STACK CFI c1898 .ra: .cfa -4 + ^ r10: .cfa -12 + ^ r11: .cfa -8 + ^ r4: .cfa -36 + ^ r5: .cfa -32 + ^ r6: .cfa -28 + ^ r7: .cfa -24 + ^ r8: .cfa -20 + ^ r9: .cfa -16 + ^
STACK CFI INIT c1a14 2c .cfa: sp 0 + .ra: lr
STACK CFI c1a18 .cfa: sp 4 +
STACK CFI c1a20 .cfa: sp 24 +
STACK CFI c1a28 .ra: .cfa -4 + ^
STACK CFI INIT c1a40 2c .cfa: sp 0 + .ra: lr
STACK CFI c1a44 .cfa: sp 4 +
STACK CFI c1a48 .cfa: sp 24 +
STACK CFI c1a54 .ra: .cfa -4 + ^
STACK CFI INIT c1a6c 44 .cfa: sp 0 + .ra: lr
STACK CFI c1a70 .cfa: sp 4 +
STACK CFI c1a74 .cfa: sp 32 +
STACK CFI c1a78 .ra: .cfa -4 + ^
STACK CFI INIT c1ab0 44 .cfa: sp 0 + .ra: lr
STACK CFI c1ab4 .cfa: sp 4 +
STACK CFI c1ab8 .cfa: sp 32 +
STACK CFI c1abc .ra: .cfa -4 + ^
STACK CFI INIT c1af4 48 .cfa: sp 0 + .ra: lr
STACK CFI INIT c1b3c 3c .cfa: sp 0 + .ra: lr
STACK CFI c1b4c .cfa: sp 4 +
STACK CFI c1b54 .cfa: sp 16 +
STACK CFI c1b60 .ra: .cfa -4 + ^
STACK CFI INIT c1b78 38 .cfa: sp 0 + .ra: lr
STACK CFI c1b7c .cfa: sp 16 +
STACK CFI c1b80 .ra: .cfa -4 + ^ r3: .cfa -16 + ^ r4: .cfa -12 + ^ r5: .cfa -8 + ^
STACK CFI INIT c1bb0 18 .cfa: sp 0 + .ra: lr
STACK CFI c1bb4 .cfa: sp 8 +
STACK CFI c1bbc .ra: .cfa -4 + ^ r3: .cfa -8 + ^
STACK CFI INIT c1bc8 14 .cfa: sp 0 + .ra: lr
STACK CFI c1bcc .cfa: sp 8 +
STACK CFI c1bd0 .ra: .cfa -4 + ^ r3: .cfa -8 + ^
STACK CFI INIT c1bdc 78 .cfa: sp 0 + .ra: lr
STACK CFI c1be0 .cfa: sp 16 +
STACK CFI c1be4 .ra: .cfa -4 + ^ r3: .cfa -16 + ^ r4: .cfa -12 + ^ r5: .cfa -8 + ^
STACK CFI INIT c1c54 8c .cfa: sp 0 + .ra: lr
STACK CFI c1c58 .cfa: sp 24 +
STACK CFI c1c5c .ra: .cfa -4 + ^ r3: .cfa -24 + ^ r4: .cfa -20 + ^ r5: .cfa -16 + ^ r6: .cfa -12 + ^ r7: .cfa -8 + ^
STACK CFI INIT c1ce0 84 .cfa: sp 0 + .ra: lr
STACK CFI c1ce4 .cfa: sp 16 +
STACK CFI c1ce8 .ra: .cfa -4 + ^ r4: .cfa -16 + ^ r5: .cfa -12 + ^ r6: .cfa -8 + ^
STACK CFI INIT c1d64 18 .cfa: sp 0 + .ra: lr
STACK CFI c1d68 .cfa: sp 8 +
STACK CFI c1d70 .ra: .cfa -4 + ^ r3: .cfa -8 + ^
STACK CFI INIT c1d7c 8 .cfa: sp 0 + .ra: lr
STACK CFI INIT c1d84 20 .cfa: sp 0 + .ra: lr
STACK CFI c1d88 .cfa: sp 8 +
STACK CFI c1d8c .ra: .cfa -4 + ^ r3: .cfa -8 + ^
STACK CFI INIT c1da4 18 .cfa: sp 0 + .ra: lr
STACK CFI c1da8 .cfa: sp 8 +
STACK CFI c1db0 .ra: .cfa -4 + ^ r3: .cfa -8 + ^
STACK CFI INIT c1dbc 10 .cfa: sp 0 + .ra: lr
STACK CFI INIT c1dcc 14 .cfa: sp 0 + .ra: lr
STACK CFI INIT c1de0 10 .cfa: sp 0 + .ra: lr
STACK CFI INIT c1df0 c .cfa: sp 0 + .ra: lr
STACK CFI INIT c1dfc 2c .cfa: sp 0 + .ra: lr
STACK CFI c1e00 .cfa: sp 4 +
STACK CFI c1e04 .cfa: sp 24 +
STACK CFI c1e10 .ra: .cfa -4 + ^
STACK CFI INIT c1e28 2c .cfa: sp 0 + .ra: lr
STACK CFI c1e2c .cfa: sp 4 +
STACK CFI c1e30 .cfa: sp 24 +
STACK CFI c1e3c .ra: .cfa -4 + ^
STACK CFI INIT c1e54 cc .cfa: sp 0 + .ra: lr
STACK CFI c1e58 .cfa: sp 16 +
STACK CFI c1e60 .cfa: r11 4 + .ra: .cfa -4 + ^ r11: .cfa -8 + ^ r4: .cfa -16 + ^ r5: .cfa -12 + ^
STACK CFI INIT c1f20 600 .cfa: sp 0 + .ra: lr
STACK CFI c1f24 .cfa: sp 36 +
STACK CFI c1f2c .cfa: r11 4 + .ra: .cfa -4 + ^ r10: .cfa -12 + ^ r11: .cfa -8 + ^ r4: .cfa -36 + ^ r5: .cfa -32 + ^ r6: .cfa -28 + ^ r7: .cfa -24 + ^ r8: .cfa -20 + ^ r9: .cfa -16 + ^
STACK CFI INIT c2520 20 .cfa: sp 0 + .ra: lr
STACK CFI c2524 .cfa: sp 8 +
STACK CFI c2528 .ra: .cfa -4 + ^ r3: .cfa -8 + ^
STACK CFI INIT c2540 10 .cfa: sp 0 + .ra: lr
STACK CFI INIT c2550 10 .cfa: sp 0 + .ra: lr
STACK CFI INIT c2560 18 .cfa: sp 0 + .ra: lr
STACK CFI c2564 .cfa: sp 8 +
STACK CFI c256c .ra: .cfa -4 + ^ r3: .cfa -8 + ^
STACK CFI INIT c2578 14 .cfa: sp 0 + .ra: lr
STACK CFI INIT c258c 10 .cfa: sp 0 + .ra: lr
STACK CFI INIT c259c e4 .cfa: sp 0 + .ra: lr
STACK CFI c25a0 .cfa: sp 16 +
STACK CFI c25a4 .cfa: sp 1296 +
STACK CFI c25a8 .cfa: sp 1304 +
STACK CFI c25b8 .ra: .cfa -4 + ^ r4: .cfa -16 + ^ r5: .cfa -12 + ^ r6: .cfa -8 + ^
STACK CFI INIT c2680 1f0 .cfa: sp 0 + .ra: lr
STACK CFI c2684 .cfa: sp 28 +
STACK CFI c2688 .cfa: sp 1308 +
STACK CFI c268c .cfa: sp 1320 +
STACK CFI c2694 .ra: .cfa -4 + ^ r10: .cfa -8 + ^ r4: .cfa -28 + ^ r5: .cfa -24 + ^ r6: .cfa -20 + ^ r7: .cfa -16 + ^ r8: .cfa -12 + ^
STACK CFI INIT c2870 b8 .cfa: sp 0 + .ra: lr
STACK CFI c2874 .cfa: sp 24 +
STACK CFI c287c .ra: .cfa -4 + ^ r3: .cfa -24 + ^ r4: .cfa -20 + ^ r5: .cfa -16 + ^ r6: .cfa -12 + ^ r7: .cfa -8 + ^
STACK CFI INIT c2928 5c .cfa: sp 0 + .ra: lr
STACK CFI c292c .cfa: sp 16 +
STACK CFI c2930 .ra: .cfa -4 + ^ r3: .cfa -16 + ^ r4: .cfa -12 + ^ r5: .cfa -8 + ^
STACK CFI INIT c2984 f0 .cfa: sp 0 + .ra: lr
STACK CFI c2988 .cfa: sp 24 +
STACK CFI c298c .ra: .cfa -4 + ^ r4: .cfa -24 + ^ r5: .cfa -20 + ^ r6: .cfa -16 + ^ r7: .cfa -12 + ^ r8: .cfa -8 + ^
STACK CFI INIT c2a74 e0 .cfa: sp 0 + .ra: lr
STACK CFI c2a78 .cfa: sp 24 +
STACK CFI c2a7c .ra: .cfa -4 + ^ r4: .cfa -24 + ^ r5: .cfa -20 + ^ r6: .cfa -16 + ^ r7: .cfa -12 + ^ r8: .cfa -8 + ^
STACK CFI INIT c2b54 160 .cfa: sp 0 + .ra: lr
STACK CFI c2b58 .cfa: sp 32 +
STACK CFI c2b5c .ra: .cfa -4 + ^ r10: .cfa -8 + ^ r3: .cfa -32 + ^ r4: .cfa -28 + ^ r5: .cfa -24 + ^ r6: .cfa -20 + ^ r7: .cfa -16 + ^ r8: .cfa -12 + ^
STACK CFI INIT c2cb4 150 .cfa: sp 0 + .ra: lr
STACK CFI c2cb8 .cfa: sp 28 +
STACK CFI c2cbc .cfa: sp 40 +
STACK CFI c2cc0 .ra: .cfa -4 + ^ r10: .cfa -8 + ^ r4: .cfa -28 + ^ r5: .cfa -24 + ^ r6: .cfa -20 + ^ r7: .cfa -16 + ^ r8: .cfa -12 + ^
STACK CFI INIT c2e04 158 .cfa: sp 0 + .ra: lr
STACK CFI c2e08 .cfa: sp 28 +
STACK CFI c2e0c .cfa: sp 48 +
STACK CFI c2e10 .ra: .cfa -4 + ^ r10: .cfa -8 + ^ r4: .cfa -28 + ^ r5: .cfa -24 + ^ r6: .cfa -20 + ^ r7: .cfa -16 + ^ r8: .cfa -12 + ^
STACK CFI INIT c2f5c 70 .cfa: sp 0 + .ra: lr
STACK CFI c2f60 .cfa: sp 20 +
STACK CFI c2f64 .ra: .cfa -4 + ^ r4: .cfa -20 + ^ r5: .cfa -16 + ^ r6: .cfa -12 + ^ r7: .cfa -8 + ^
STACK CFI c2f68 .cfa: sp 32 +
STACK CFI INIT c2fcc a8 .cfa: sp 0 + .ra: lr
STACK CFI c2fd0 .cfa: sp 16 +
STACK CFI c2fd4 .ra: .cfa -4 + ^ r4: .cfa -16 + ^ r5: .cfa -12 + ^ r6: .cfa -8 + ^
STACK CFI INIT c3074 a0c .cfa: sp 0 + .ra: lr
STACK CFI c3078 .cfa: sp 36 +
STACK CFI c3080 .cfa: sp 344 +
STACK CFI c309c .ra: .cfa -4 + ^ r10: .cfa -12 + ^ r11: .cfa -8 + ^ r4: .cfa -36 + ^ r5: .cfa -32 + ^ r6: .cfa -28 + ^ r7: .cfa -24 + ^ r8: .cfa -20 + ^ r9: .cfa -16 + ^
STACK CFI INIT c3a80 158 .cfa: sp 0 + .ra: lr
STACK CFI c3a84 .cfa: sp 32 +
STACK CFI c3a88 .cfa: sp 64 +
STACK CFI c3a8c .ra: .cfa -4 + ^ r10: .cfa -8 + ^ r4: .cfa -32 + ^ r5: .cfa -28 + ^ r6: .cfa -24 + ^ r7: .cfa -20 + ^ r8: .cfa -16 + ^ r9: .cfa -12 + ^
STACK CFI INIT c3bd8 344 .cfa: sp 0 + .ra: lr
STACK CFI c3bdc .cfa: sp 36 +
STACK CFI c3be0 .cfa: r11 4 + .ra: .cfa -4 + ^ r10: .cfa -12 + ^ r11: .cfa -8 + ^ r4: .cfa -36 + ^ r5: .cfa -32 + ^ r6: .cfa -28 + ^ r7: .cfa -24 + ^ r8: .cfa -20 + ^ r9: .cfa -16 + ^
STACK CFI INIT c3f1c 1798 .cfa: sp 0 + .ra: lr
STACK CFI c3f20 .cfa: sp 36 +
STACK CFI c3f24 .cfa: sp 176 +
STACK CFI c3f28 .ra: .cfa -4 + ^ r10: .cfa -12 + ^ r11: .cfa -8 + ^ r4: .cfa -36 + ^ r5: .cfa -32 + ^ r6: .cfa -28 + ^ r7: .cfa -24 + ^ r8: .cfa -20 + ^ r9: .cfa -16 + ^
STACK CFI INIT c56b4 318 .cfa: sp 0 + .ra: lr
STACK CFI c56b8 .cfa: sp 36 +
STACK CFI c56bc .cfa: sp 112 +
STACK CFI c56c0 .ra: .cfa -4 + ^ r10: .cfa -12 + ^ r11: .cfa -8 + ^ r4: .cfa -36 + ^ r5: .cfa -32 + ^ r6: .cfa -28 + ^ r7: .cfa -24 + ^ r8: .cfa -20 + ^ r9: .cfa -16 + ^
STACK CFI INIT c59cc 54 .cfa: sp 0 + .ra: lr
STACK CFI c59d0 .cfa: sp 16 +
STACK CFI c59d4 .ra: .cfa -4 + ^ r3: .cfa -16 + ^ r4: .cfa -12 + ^ r5: .cfa -8 + ^
STACK CFI INIT c5a20 a08 .cfa: sp 0 + .ra: lr
STACK CFI c5a24 .cfa: sp 36 +
STACK CFI c5a28 .ra: .cfa -4 + ^ r10: .cfa -12 + ^ r11: .cfa -8 + ^ r4: .cfa -36 + ^ r5: .cfa -32 + ^ r6: .cfa -28 + ^ r7: .cfa -24 + ^ r8: .cfa -20 + ^ r9: .cfa -16 + ^
STACK CFI c5a38 .cfa: sp 176 +
STACK CFI INIT c6428 24 .cfa: sp 0 + .ra: lr
STACK CFI c6430 .cfa: sp 4 +
STACK CFI c6438 .ra: .cfa -4 + ^
STACK CFI INIT c6450 14 .cfa: sp 0 + .ra: lr
STACK CFI c6454 r7: r12
STACK CFI c6460 r7: r7
STACK CFI INIT c6470 58 .cfa: sp 0 + .ra: lr
STACK CFI c6474 .cfa: sp 8 +
STACK CFI c647c .cfa: sp 16 +
STACK CFI c6488 .ra: .cfa -4 + ^ r7: .cfa -8 + ^
STACK CFI INIT c64c8 3c .cfa: sp 0 + .ra: lr
STACK CFI c64d0 .cfa: sp 4 +
STACK CFI c64d4 .cfa: sp 24 +
STACK CFI c64d8 .ra: .cfa -4 + ^
STACK CFI INIT c6504 38 .cfa: sp 0 + .ra: lr
STACK CFI c6508 .cfa: sp 12 +
STACK CFI c650c .cfa: sp 24 +
STACK CFI c6518 .ra: .cfa -4 + ^ r4: .cfa -12 + ^ r5: .cfa -8 + ^
STACK CFI INIT c653c 40 .cfa: sp 0 + .ra: lr
STACK CFI c6540 .cfa: sp 12 +
STACK CFI c6544 .ra: .cfa -4 + ^ r4: .cfa -12 + ^ r5: .cfa -8 + ^
STACK CFI c6548 .cfa: sp 32 +
STACK CFI INIT c657c b0 .cfa: sp 0 + .ra: lr
STACK CFI c6584 .cfa: sp 8 +
STACK CFI c658c .cfa: sp 112 +
STACK CFI c6590 .ra: .cfa -4 + ^ r7: .cfa -8 + ^
STACK CFI INIT c662c b0 .cfa: sp 0 + .ra: lr
STACK CFI c6634 .cfa: sp 8 +
STACK CFI c663c .cfa: sp 112 +
STACK CFI c6640 .ra: .cfa -4 + ^ r7: .cfa -8 + ^
STACK CFI INIT c66dc b0 .cfa: sp 0 + .ra: lr
STACK CFI c66e4 .cfa: sp 8 +
STACK CFI c66ec .cfa: sp 112 +
STACK CFI c66f0 .ra: .cfa -4 + ^ r7: .cfa -8 + ^
STACK CFI INIT c678c 48 .cfa: sp 0 + .ra: lr
STACK CFI c6790 .cfa: sp 8 +
STACK CFI c6798 .ra: .cfa -4 + ^ r7: .cfa -8 + ^
STACK CFI INIT c67d4 48 .cfa: sp 0 + .ra: lr
STACK CFI c67d8 .cfa: sp 8 +
STACK CFI c67e0 .ra: .cfa -4 + ^ r7: .cfa -8 + ^
STACK CFI INIT c681c 48 .cfa: sp 0 + .ra: lr
STACK CFI c6820 .cfa: sp 8 +
STACK CFI c6828 .ra: .cfa -4 + ^ r7: .cfa -8 + ^
STACK CFI INIT c6864 ac .cfa: sp 0 + .ra: lr
STACK CFI c686c .cfa: sp 20 +
STACK CFI c6870 .ra: .cfa -4 + ^ r4: .cfa -20 + ^ r5: .cfa -16 + ^ r6: .cfa -12 + ^ r7: .cfa -8 + ^
STACK CFI INIT c6910 1b0 .cfa: sp 0 + .ra: lr
STACK CFI c6914 .cfa: sp 28 +
STACK CFI c691c .cfa: r11 4 + .ra: .cfa -4 + ^ r11: .cfa -8 + ^ r4: .cfa -28 + ^ r5: .cfa -24 + ^ r6: .cfa -20 + ^ r7: .cfa -16 + ^ r8: .cfa -12 + ^
STACK CFI INIT c6ac0 1f8 .cfa: sp 0 + .ra: lr
STACK CFI c6ac8 .cfa: sp 36 +
STACK CFI c6acc .cfa: r11 4 + .ra: .cfa -4 + ^ r10: .cfa -12 + ^ r11: .cfa -8 + ^ r4: .cfa -36 + ^ r5: .cfa -32 + ^ r6: .cfa -28 + ^ r7: .cfa -24 + ^ r8: .cfa -20 + ^ r9: .cfa -16 + ^
STACK CFI INIT c6cb8 1b8 .cfa: sp 0 + .ra: lr
STACK CFI c6cbc .cfa: sp 32 +
STACK CFI c6cc0 .cfa: r11 4 + .ra: .cfa -4 + ^ r10: .cfa -12 + ^ r11: .cfa -8 + ^ r4: .cfa -32 + ^ r5: .cfa -28 + ^ r6: .cfa -24 + ^ r7: .cfa -20 + ^ r8: .cfa -16 + ^
STACK CFI INIT c6e70 1c .cfa: sp 0 + .ra: lr
STACK CFI c6e74 r7: r12
STACK CFI c6e80 r7: r7
STACK CFI INIT c6e90 1c .cfa: sp 0 + .ra: lr
STACK CFI c6e94 r7: r12
STACK CFI c6ea0 r7: r7
STACK CFI INIT c6eb0 4c .cfa: sp 0 + .ra: lr
STACK CFI c6eb4 .cfa: sp 8 +
STACK CFI c6ebc .ra: .cfa -4 + ^ r7: .cfa -8 + ^
STACK CFI INIT c6efc 4c .cfa: sp 0 + .ra: lr
STACK CFI c6f00 .cfa: sp 8 +
STACK CFI c6f08 .ra: .cfa -4 + ^ r7: .cfa -8 + ^
STACK CFI INIT c6f48 60 .cfa: sp 0 + .ra: lr
STACK CFI c6f4c .cfa: sp 16 +
STACK CFI c6f50 .cfa: sp 184 +
STACK CFI c6f54 .ra: .cfa -4 + ^ r4: .cfa -16 + ^ r5: .cfa -12 + ^ r6: .cfa -8 + ^
STACK CFI INIT c6fa8 60 .cfa: sp 0 + .ra: lr
STACK CFI c6fac .cfa: sp 16 +
STACK CFI c6fb0 .cfa: sp 184 +
STACK CFI c6fb4 .ra: .cfa -4 + ^ r4: .cfa -16 + ^ r5: .cfa -12 + ^ r6: .cfa -8 + ^
STACK CFI INIT c7008 5c .cfa: sp 0 + .ra: lr
STACK CFI c700c .cfa: sp 20 +
STACK CFI c7010 .cfa: sp 216 +
STACK CFI c7014 .ra: .cfa -4 + ^ r4: .cfa -20 + ^ r5: .cfa -16 + ^ r6: .cfa -12 + ^ r7: .cfa -8 + ^
STACK CFI INIT c7064 5c .cfa: sp 0 + .ra: lr
STACK CFI c7068 .cfa: sp 20 +
STACK CFI c706c .cfa: sp 216 +
STACK CFI c7070 .ra: .cfa -4 + ^ r4: .cfa -20 + ^ r5: .cfa -16 + ^ r6: .cfa -12 + ^ r7: .cfa -8 + ^
STACK CFI INIT c70c0 14 .cfa: sp 0 + .ra: lr
STACK CFI c70c4 r7: r12
STACK CFI c70d0 r7: r7
STACK CFI INIT c70e0 1c .cfa: sp 0 + .ra: lr
STACK CFI c70e4 r7: r12
STACK CFI c70f0 r7: r7
STACK CFI INIT c7100 1c .cfa: sp 0 + .ra: lr
STACK CFI c7104 r7: r12
STACK CFI c7110 r7: r7
STACK CFI INIT c7120 178 .cfa: sp 0 + .ra: lr
STACK CFI c7124 .cfa: sp 28 +
STACK CFI c712c .cfa: r11 4 + .ra: .cfa -4 + ^ r11: .cfa -8 + ^ r4: .cfa -28 + ^ r5: .cfa -24 + ^ r6: .cfa -20 + ^ r7: .cfa -16 + ^ r8: .cfa -12 + ^
STACK CFI INIT c72a0 1c .cfa: sp 0 + .ra: lr
STACK CFI c72a4 r7: r12
STACK CFI c72b0 r7: r7
STACK CFI INIT c72c0 120 .cfa: sp 0 + .ra: lr
STACK CFI c72c4 .cfa: sp 28 +
STACK CFI c72c8 .ra: .cfa -4 + ^ r11: .cfa -8 + ^ r4: .cfa -28 + ^ r5: .cfa -24 + ^ r6: .cfa -20 + ^ r7: .cfa -16 + ^ r8: .cfa -12 + ^
STACK CFI c72cc .cfa: r11 4 +
STACK CFI INIT c73e4 18 .cfa: sp 0 + .ra: lr
STACK CFI c73e8 r7: r12
STACK CFI c73f4 r7: r7
STACK CFI INIT c7400 64 .cfa: sp 0 + .ra: lr
STACK CFI c7414 r7: r12
STACK CFI c7420 r7: r7
STACK CFI c742c r7: r7
STACK CFI c7430 .cfa: sp 24 + .ra: .cfa -4 + ^ r7: .cfa -8 + ^
STACK CFI c743c .cfa: sp 8 +
STACK CFI c7458 .cfa: sp 0 + .ra: .ra r7: r7
STACK CFI INIT c7470 ec .cfa: sp 0 + .ra: lr
STACK CFI c7474 .cfa: sp 12 +
STACK CFI c7478 .cfa: sp 24 +
STACK CFI c747c .cfa: sp 40 +
STACK CFI c7480 .ra: .cfa -16 + ^ r1: .cfa -12 + ^ r2: .cfa -8 + ^ r3: .cfa -4 + ^ r4: .cfa -24 + ^ r7: .cfa -20 + ^
STACK CFI INIT c755c a0 .cfa: sp 0 + .ra: lr
STACK CFI c7564 .cfa: sp 8 +
STACK CFI c7568 .ra: .cfa -4 + ^ r4: .cfa -8 + ^
STACK CFI c756c .cfa: sp 112 +
STACK CFI INIT c75fc 130 .cfa: sp 0 + .ra: lr
STACK CFI c7600 .cfa: sp 32 +
STACK CFI c7604 .ra: .cfa -4 + ^ r10: .cfa -12 + ^ r11: .cfa -8 + ^ r4: .cfa -32 + ^ r5: .cfa -28 + ^ r6: .cfa -24 + ^ r7: .cfa -20 + ^ r8: .cfa -16 + ^
STACK CFI c7608 .cfa: r11 4 +
STACK CFI INIT c772c 90 .cfa: sp 0 + .ra: lr
STACK CFI c7730 .cfa: sp 8 +
STACK CFI c7734 .cfa: sp 20 +
STACK CFI c7738 .cfa: sp 48 +
STACK CFI c773c .ra: .cfa -12 + ^ r2: .cfa -8 + ^ r3: .cfa -4 + ^ r4: .cfa -20 + ^ r5: .cfa -16 + ^
STACK CFI INIT c77bc 24 .cfa: sp 0 + .ra: lr
STACK CFI c77c4 .cfa: sp 8 +
STACK CFI c77c8 .ra: .cfa -4 + ^ r4: .cfa -8 + ^
STACK CFI INIT c77e0 134 .cfa: sp 0 + .ra: lr
STACK CFI c77e4 .cfa: sp 32 +
STACK CFI c77e8 .ra: .cfa -4 + ^ r10: .cfa -12 + ^ r11: .cfa -8 + ^ r4: .cfa -32 + ^ r5: .cfa -28 + ^ r6: .cfa -24 + ^ r7: .cfa -20 + ^ r8: .cfa -16 + ^
STACK CFI c77ec .cfa: r11 4 +
STACK CFI INIT c7914 90 .cfa: sp 0 + .ra: lr
STACK CFI c7918 .cfa: sp 8 +
STACK CFI c791c .cfa: sp 20 +
STACK CFI c7920 .cfa: sp 48 +
STACK CFI c7924 .ra: .cfa -12 + ^ r2: .cfa -8 + ^ r3: .cfa -4 + ^ r4: .cfa -20 + ^ r5: .cfa -16 + ^
STACK CFI INIT c79a4 24 .cfa: sp 0 + .ra: lr
STACK CFI c79ac .cfa: sp 8 +
STACK CFI c79b0 .ra: .cfa -4 + ^ r4: .cfa -8 + ^
STACK CFI INIT c79d4 18 .cfa: sp 0 + .ra: lr
STACK CFI c79d8 r7: r12
STACK CFI c79e4 r7: r7
STACK CFI INIT c79f0 64 .cfa: sp 0 + .ra: lr
STACK CFI c7a04 r7: r12
STACK CFI c7a10 r7: r7
STACK CFI c7a1c r7: r7
STACK CFI c7a20 .cfa: sp 16 + .ra: .cfa -4 + ^ r7: .cfa -8 + ^
STACK CFI c7a2c .cfa: sp 8 +
STACK CFI c7a48 .cfa: sp 0 + .ra: .ra r7: r7
STACK CFI INIT c7a64 18 .cfa: sp 0 + .ra: lr
STACK CFI c7a68 r7: r12
STACK CFI c7a74 r7: r7
STACK CFI INIT c7a80 64 .cfa: sp 0 + .ra: lr
STACK CFI c7a94 r7: r12
STACK CFI c7aa0 r7: r7
STACK CFI c7aac r7: r7
STACK CFI c7ab0 .cfa: sp 24 + .ra: .cfa -4 + ^ r7: .cfa -8 + ^
STACK CFI c7abc .cfa: sp 8 +
STACK CFI c7ad8 .cfa: sp 0 + .ra: .ra r7: r7
STACK CFI INIT c7af4 18 .cfa: sp 0 + .ra: lr
STACK CFI c7af8 r7: r12
STACK CFI c7b04 r7: r7
STACK CFI INIT c7b10 64 .cfa: sp 0 + .ra: lr
STACK CFI c7b24 r7: r12
STACK CFI c7b30 r7: r7
STACK CFI c7b3c r7: r7
STACK CFI c7b40 .cfa: sp 24 + .ra: .cfa -4 + ^ r7: .cfa -8 + ^
STACK CFI c7b4c .cfa: sp 8 +
STACK CFI c7b68 .cfa: sp 0 + .ra: .ra r7: r7
STACK CFI INIT c7b80 1c .cfa: sp 0 + .ra: lr
STACK CFI c7b84 r7: r12
STACK CFI c7b90 r7: r7
STACK CFI INIT c7ba0 1c .cfa: sp 0 + .ra: lr
STACK CFI c7ba4 r7: r12
STACK CFI c7bb0 r7: r7
STACK CFI INIT c7bc0 114 .cfa: sp 0 + .ra: lr
STACK CFI c7bc4 .cfa: sp 20 +
STACK CFI c7bc8 .ra: .cfa -4 + ^ r4: .cfa -20 + ^ r5: .cfa -16 + ^ r6: .cfa -12 + ^ r7: .cfa -8 + ^
STACK CFI c7bcc .cfa: sp 128 +
STACK CFI INIT c7cd4 2a0 .cfa: sp 0 + .ra: lr
STACK CFI c7cd8 .cfa: sp 32 +
STACK CFI c7cdc .ra: .cfa -4 + ^ r10: .cfa -12 + ^ r11: .cfa -8 + ^ r4: .cfa -32 + ^ r5: .cfa -28 + ^ r6: .cfa -24 + ^ r7: .cfa -20 + ^ r8: .cfa -16 + ^
STACK CFI c7ce0 .cfa: r11 4 +
STACK CFI INIT c7f74 64 .cfa: sp 0 + .ra: lr
STACK CFI c7f78 .cfa: sp 12 +
STACK CFI c7f7c .cfa: sp 20 +
STACK CFI c7f80 .cfa: sp 32 +
STACK CFI c7f84 .ra: .cfa -16 + ^ r1: .cfa -12 + ^ r2: .cfa -8 + ^ r3: .cfa -4 + ^ r7: .cfa -20 + ^
STACK CFI INIT c7fd8 e8 .cfa: sp 0 + .ra: lr
STACK CFI c7fdc .cfa: sp 12 +
STACK CFI c7fe0 r1: .cfa -12 + ^ r2: .cfa -8 + ^ r3: .cfa -4 + ^
STACK CFI c7fe4 .cfa: sp 24 +
STACK CFI c7fec .cfa: sp 40 +
STACK CFI c7ff8 .ra: .cfa -16 + ^ r4: .cfa -24 + ^ r7: .cfa -20 + ^
STACK CFI INIT c80c0 1c .cfa: sp 0 + .ra: lr
STACK CFI c80c4 r7: r12
STACK CFI c80d0 r7: r7
STACK CFI INIT c80e0 fc .cfa: sp 0 + .ra: lr
STACK CFI c80e4 .cfa: sp 8 +
STACK CFI c80ec .cfa: sp 24 +
STACK CFI c80f0 .ra: .cfa -4 + ^ r4: .cfa -8 + ^
STACK CFI INIT c81dc 170 .cfa: sp 0 + .ra: lr
STACK CFI c81e0 .cfa: sp 12 +
STACK CFI c81e4 .cfa: sp 48 +
STACK CFI c81ec .ra: .cfa -4 + ^ r4: .cfa -12 + ^ r7: .cfa -8 + ^
STACK CFI INIT c8350 1c .cfa: sp 0 + .ra: lr
STACK CFI c8354 r7: r12
STACK CFI c8360 r7: r7
STACK CFI INIT c8370 1c .cfa: sp 0 + .ra: lr
STACK CFI c8374 r7: r12
STACK CFI c8380 r7: r7
STACK CFI INIT c8390 1c .cfa: sp 0 + .ra: lr
STACK CFI c8394 r7: r12
STACK CFI c83a0 r7: r7
STACK CFI INIT c83b0 1c .cfa: sp 0 + .ra: lr
STACK CFI c83b4 r7: r12
STACK CFI c83c0 r7: r7
STACK CFI INIT c83d0 1c .cfa: sp 0 + .ra: lr
STACK CFI c83d4 r7: r12
STACK CFI c83e0 r7: r7
STACK CFI INIT c83f4 18 .cfa: sp 0 + .ra: lr
STACK CFI c83f8 r7: r12
STACK CFI c8404 r7: r7
STACK CFI INIT c8410 64 .cfa: sp 0 + .ra: lr
STACK CFI c8424 r7: r12
STACK CFI c8430 r7: r7
STACK CFI c843c r7: r7
STACK CFI c8440 .cfa: sp 16 + .ra: .cfa -4 + ^ r7: .cfa -8 + ^
STACK CFI c844c .cfa: sp 8 +
STACK CFI c8468 .cfa: sp 0 + .ra: .ra r7: r7
STACK CFI INIT c8480 10 .cfa: sp 0 + .ra: lr
STACK CFI INIT c8490 1c .cfa: sp 0 + .ra: lr
STACK CFI c8494 r7: r12
STACK CFI c84a0 r7: r7
STACK CFI INIT c84b0 1c .cfa: sp 0 + .ra: lr
STACK CFI c84b4 r7: r12
STACK CFI c84c0 r7: r7
STACK CFI INIT c84d0 164 .cfa: sp 0 + .ra: lr
STACK CFI c84d4 .cfa: sp 20 +
STACK CFI c84d8 .ra: .cfa -4 + ^ r4: .cfa -20 + ^ r5: .cfa -16 + ^ r6: .cfa -12 + ^ r7: .cfa -8 + ^
STACK CFI c84dc .cfa: sp 32 +
STACK CFI INIT c8634 88 .cfa: sp 0 + .ra: lr
STACK CFI c8638 .cfa: sp 12 +
STACK CFI c863c .ra: .cfa -4 + ^ r4: .cfa -12 + ^ r5: .cfa -8 + ^
STACK CFI c8640 .cfa: sp 4108 +
STACK CFI c8644 .cfa: sp 4112 +
STACK CFI INIT c86bc a0 .cfa: sp 0 + .ra: lr
STACK CFI c86c4 .cfa: sp 16 +
STACK CFI c86cc .cfa: sp 224 + .ra: .cfa -4 + ^ r4: .cfa -16 + ^ r5: .cfa -12 + ^ r6: .cfa -8 + ^
STACK CFI INIT c875c 40 .cfa: sp 0 + .ra: lr
STACK CFI c8760 .cfa: sp 8 +
STACK CFI c8764 .ra: .cfa -4 + ^ r7: .cfa -8 + ^
STACK CFI INIT c879c 40 .cfa: sp 0 + .ra: lr
STACK CFI c87a0 .cfa: sp 8 +
STACK CFI c87a4 .ra: .cfa -4 + ^ r7: .cfa -8 + ^
STACK CFI INIT c87dc 40 .cfa: sp 0 + .ra: lr
STACK CFI c87e0 .cfa: sp 8 +
STACK CFI c87e4 .ra: .cfa -4 + ^ r7: .cfa -8 + ^
STACK CFI INIT c881c 178 .cfa: sp 0 + .ra: lr
STACK CFI c8820 .cfa: sp 36 +
STACK CFI c8824 .ra: .cfa -4 + ^ r10: .cfa -12 + ^ r11: .cfa -8 + ^ r4: .cfa -36 + ^ r5: .cfa -32 + ^ r6: .cfa -28 + ^ r7: .cfa -24 + ^ r8: .cfa -20 + ^ r9: .cfa -16 + ^
STACK CFI c8828 .cfa: r11 4 +
STACK CFI INIT 114120 268 .cfa: sp 0 + .ra: lr
STACK CFI 114124 .cfa: sp 36 +
STACK CFI 114128 .cfa: sp 184 +
STACK CFI 114130 .ra: .cfa -4 + ^ r10: .cfa -12 + ^ r11: .cfa -8 + ^ r4: .cfa -36 + ^ r5: .cfa -32 + ^ r6: .cfa -28 + ^ r7: .cfa -24 + ^ r8: .cfa -20 + ^ r9: .cfa -16 + ^
STACK CFI INIT c8994 260 .cfa: sp 0 + .ra: lr
STACK CFI c899c .cfa: sp 24 +
STACK CFI c89a0 .ra: .cfa -4 + ^ r4: .cfa -24 + ^ r5: .cfa -20 + ^ r6: .cfa -16 + ^ r7: .cfa -12 + ^ r8: .cfa -8 + ^
STACK CFI c89a4 .cfa: sp 344 +
STACK CFI INIT 114388 1d8 .cfa: sp 0 + .ra: lr
STACK CFI 11438c .cfa: sp 36 +
STACK CFI 114390 .cfa: sp 168 +
STACK CFI 11439c .ra: .cfa -4 + ^ r10: .cfa -12 + ^ r11: .cfa -8 + ^ r4: .cfa -36 + ^ r5: .cfa -32 + ^ r6: .cfa -28 + ^ r7: .cfa -24 + ^ r8: .cfa -20 + ^ r9: .cfa -16 + ^
STACK CFI INIT c8bf4 274 .cfa: sp 0 + .ra: lr
STACK CFI c8bf8 .cfa: sp 36 +
STACK CFI c8bfc .ra: .cfa -4 + ^ r10: .cfa -12 + ^ r11: .cfa -8 + ^ r4: .cfa -36 + ^ r5: .cfa -32 + ^ r6: .cfa -28 + ^ r7: .cfa -24 + ^ r8: .cfa -20 + ^ r9: .cfa -16 + ^
STACK CFI c8c0c .cfa: sp 360 +
STACK CFI INIT c8e68 20 .cfa: sp 0 + .ra: lr
STACK CFI c8e6c .cfa: sp 4 +
STACK CFI c8e70 .cfa: sp 72 +
STACK CFI c8e74 .ra: .cfa -4 + ^
STACK CFI INIT c8e90 1c .cfa: sp 0 + .ra: lr
STACK CFI c8e94 r7: r12
STACK CFI c8ea0 r7: r7
STACK CFI INIT c8eb0 1c4 .cfa: sp 0 + .ra: lr
STACK CFI c8eb4 .cfa: sp 36 +
STACK CFI c8eb8 .ra: .cfa -4 + ^ r10: .cfa -12 + ^ r11: .cfa -8 + ^ r4: .cfa -36 + ^ r5: .cfa -32 + ^ r6: .cfa -28 + ^ r7: .cfa -24 + ^ r8: .cfa -20 + ^ r9: .cfa -16 + ^
STACK CFI c8ebc .cfa: r11 4 +
STACK CFI INIT c9080 1c .cfa: sp 0 + .ra: lr
STACK CFI c9084 r7: r12
STACK CFI c9090 r7: r7
STACK CFI INIT c90a0 128 .cfa: sp 0 + .ra: lr
STACK CFI c90a8 .cfa: sp 28 +
STACK CFI c90ac .cfa: r11 4 + .ra: .cfa -4 + ^ r11: .cfa -8 + ^ r4: .cfa -28 + ^ r5: .cfa -24 + ^ r6: .cfa -20 + ^ r7: .cfa -16 + ^ r8: .cfa -12 + ^
STACK CFI INIT c91d0 1c .cfa: sp 0 + .ra: lr
STACK CFI c91d4 r7: r12
STACK CFI c91e0 r7: r7
STACK CFI INIT c91f0 12c .cfa: sp 0 + .ra: lr
STACK CFI c91f4 .cfa: sp 32 +
STACK CFI c91f8 .ra: .cfa -4 + ^ r10: .cfa -12 + ^ r11: .cfa -8 + ^ r4: .cfa -32 + ^ r5: .cfa -28 + ^ r6: .cfa -24 + ^ r7: .cfa -20 + ^ r8: .cfa -16 + ^
STACK CFI c91fc .cfa: r11 4 +
STACK CFI INIT c9320 1c .cfa: sp 0 + .ra: lr
STACK CFI c9324 r7: r12
STACK CFI c9330 r7: r7
STACK CFI INIT c9340 158 .cfa: sp 0 + .ra: lr
STACK CFI c9348 .cfa: sp 28 +
STACK CFI c934c .cfa: r11 4 + .ra: .cfa -4 + ^ r11: .cfa -8 + ^ r4: .cfa -28 + ^ r5: .cfa -24 + ^ r6: .cfa -20 + ^ r7: .cfa -16 + ^ r8: .cfa -12 + ^
STACK CFI INIT c94a0 1c .cfa: sp 0 + .ra: lr
STACK CFI c94a4 r7: r12
STACK CFI c94b0 r7: r7
STACK CFI INIT c94c0 c4 .cfa: sp 0 + .ra: lr
STACK CFI c94c4 .cfa: sp 20 +
STACK CFI c94c8 .ra: .cfa -4 + ^ r4: .cfa -20 + ^ r5: .cfa -16 + ^ r6: .cfa -12 + ^ r7: .cfa -8 + ^
STACK CFI c94cc .cfa: sp 32 +
STACK CFI INIT c9584 208 .cfa: sp 0 + .ra: lr
STACK CFI c9588 .cfa: sp 32 +
STACK CFI c958c .ra: .cfa -4 + ^ r10: .cfa -8 + ^ r4: .cfa -32 + ^ r5: .cfa -28 + ^ r6: .cfa -24 + ^ r7: .cfa -20 + ^ r8: .cfa -16 + ^ r9: .cfa -12 + ^
STACK CFI c9594 .cfa: sp 176 +
STACK CFI INIT c978c 2c .cfa: sp 0 + .ra: lr
STACK CFI c9790 .cfa: sp 12 +
STACK CFI c9794 .cfa: sp 32 +
STACK CFI c979c .ra: .cfa -4 + ^ r4: .cfa -12 + ^ r5: .cfa -8 + ^
STACK CFI INIT c97b8 3c .cfa: sp 0 + .ra: lr
STACK CFI c97bc .cfa: sp 12 +
STACK CFI c97c4 r4: .cfa -12 + ^ r5: .cfa -8 + ^ r7: .cfa -4 + ^
STACK CFI INIT c97f4 228 .cfa: sp 0 + .ra: lr
STACK CFI c97fc .cfa: sp 36 +
STACK CFI c9808 .cfa: sp 232 +
STACK CFI c9810 .ra: .cfa -4 + ^ r10: .cfa -12 + ^ r11: .cfa -8 + ^ r4: .cfa -36 + ^ r5: .cfa -32 + ^ r6: .cfa -28 + ^ r7: .cfa -24 + ^ r8: .cfa -20 + ^ r9: .cfa -16 + ^
STACK CFI INIT c9a1c 240 .cfa: sp 0 + .ra: lr
STACK CFI c9a24 .cfa: sp 36 +
STACK CFI c9a2c .ra: .cfa -4 + ^ r10: .cfa -12 + ^ r11: .cfa -8 + ^ r4: .cfa -36 + ^ r5: .cfa -32 + ^ r6: .cfa -28 + ^ r7: .cfa -24 + ^ r8: .cfa -20 + ^ r9: .cfa -16 + ^
STACK CFI c9a30 .cfa: sp 256 +
STACK CFI INIT c9c60 1c .cfa: sp 0 + .ra: lr
STACK CFI c9c64 r7: r12
STACK CFI c9c70 r7: r7
STACK CFI INIT c9c80 1c .cfa: sp 0 + .ra: lr
STACK CFI c9c84 r7: r12
STACK CFI c9c90 r7: r7
STACK CFI INIT c9ca0 68 .cfa: sp 0 + .ra: lr
STACK CFI c9ca8 .cfa: sp 8 +
STACK CFI c9cac .ra: .cfa -4 + ^ r7: .cfa -8 + ^
STACK CFI INIT c9d08 4c .cfa: sp 0 + .ra: lr
STACK CFI c9d14 .cfa: sp 8 +
STACK CFI c9d1c .ra: .cfa -4 + ^ r7: .cfa -8 + ^
STACK CFI INIT c9d54 24 .cfa: sp 0 + .ra: lr
STACK CFI c9d5c .cfa: sp 4 +
STACK CFI c9d64 .ra: .cfa -4 + ^
STACK CFI INIT c9d78 54 .cfa: sp 0 + .ra: lr
STACK CFI c9d88 .cfa: sp 8 +
STACK CFI c9da0 r4: .cfa -8 + ^ r5: .cfa -4 + ^
STACK CFI INIT c9dcc 5c .cfa: sp 0 + .ra: lr
STACK CFI c9dd0 .cfa: sp 24 +
STACK CFI c9dd4 .ra: .cfa -4 + ^ r3: .cfa -24 + ^ r4: .cfa -20 + ^ r5: .cfa -16 + ^ r6: .cfa -12 + ^ r7: .cfa -8 + ^
STACK CFI INIT c9e28 2d4 .cfa: sp 0 + .ra: lr
STACK CFI c9e2c .cfa: sp 28 +
STACK CFI c9e30 .ra: .cfa -4 + ^ r4: .cfa -28 + ^ r5: .cfa -24 + ^ r6: .cfa -20 + ^ r7: .cfa -16 + ^ r8: .cfa -12 + ^ r9: .cfa -8 + ^
STACK CFI c9e38 .cfa: sp 152 +
STACK CFI INIT ca0fc 718 .cfa: sp 0 + .ra: lr
STACK CFI ca100 .cfa: sp 36 +
STACK CFI ca108 .cfa: sp 80 +
STACK CFI ca128 .ra: .cfa -4 + ^ r10: .cfa -12 + ^ r11: .cfa -8 + ^ r4: .cfa -36 + ^ r5: .cfa -32 + ^ r6: .cfa -28 + ^ r7: .cfa -24 + ^ r8: .cfa -20 + ^ r9: .cfa -16 + ^
STACK CFI INIT ca814 5b8 .cfa: sp 0 + .ra: lr
STACK CFI ca818 .cfa: sp 36 +
STACK CFI ca81c .cfa: r11 4 + .ra: .cfa -4 + ^ r10: .cfa -12 + ^ r11: .cfa -8 + ^ r4: .cfa -36 + ^ r5: .cfa -32 + ^ r6: .cfa -28 + ^ r7: .cfa -24 + ^ r8: .cfa -20 + ^ r9: .cfa -16 + ^
STACK CFI INIT cadcc 2c .cfa: sp 0 + .ra: lr
STACK CFI cadd0 .cfa: sp 4 +
STACK CFI cadd8 .ra: .cfa -4 + ^
STACK CFI caddc .cfa: sp 16 +
STACK CFI INIT cadf8 54 .cfa: sp 0 + .ra: lr
STACK CFI cae04 .cfa: sp 4 +
STACK CFI cae0c .cfa: sp 16 +
STACK CFI cae10 .ra: .cfa -4 + ^
STACK CFI INIT cae4c 60 .cfa: sp 0 + .ra: lr
STACK CFI cae54 .cfa: sp 8 +
STACK CFI cae58 r4: .cfa -8 + ^ r5: .cfa -4 + ^
STACK CFI INIT caeac 5c .cfa: sp 0 + .ra: lr
STACK CFI caeb0 .cfa: sp 24 +
STACK CFI caeb4 .ra: .cfa -4 + ^ r3: .cfa -24 + ^ r4: .cfa -20 + ^ r5: .cfa -16 + ^ r6: .cfa -12 + ^ r7: .cfa -8 + ^
STACK CFI INIT caf08 2d4 .cfa: sp 0 + .ra: lr
STACK CFI caf0c .cfa: sp 28 +
STACK CFI caf10 .ra: .cfa -4 + ^ r4: .cfa -28 + ^ r5: .cfa -24 + ^ r6: .cfa -20 + ^ r7: .cfa -16 + ^ r8: .cfa -12 + ^ r9: .cfa -8 + ^
STACK CFI caf18 .cfa: sp 168 +
STACK CFI INIT cb1dc 718 .cfa: sp 0 + .ra: lr
STACK CFI cb1e0 .cfa: sp 36 +
STACK CFI cb1e8 .cfa: sp 80 +
STACK CFI cb208 .ra: .cfa -4 + ^ r10: .cfa -12 + ^ r11: .cfa -8 + ^ r4: .cfa -36 + ^ r5: .cfa -32 + ^ r6: .cfa -28 + ^ r7: .cfa -24 + ^ r8: .cfa -20 + ^ r9: .cfa -16 + ^
STACK CFI INIT cb8f4 5b8 .cfa: sp 0 + .ra: lr
STACK CFI cb8f8 .cfa: sp 36 +
STACK CFI cb8fc .cfa: r11 4 + .ra: .cfa -4 + ^ r10: .cfa -12 + ^ r11: .cfa -8 + ^ r4: .cfa -36 + ^ r5: .cfa -32 + ^ r6: .cfa -28 + ^ r7: .cfa -24 + ^ r8: .cfa -20 + ^ r9: .cfa -16 + ^
STACK CFI INIT cbeac 2c .cfa: sp 0 + .ra: lr
STACK CFI cbeb0 .cfa: sp 4 +
STACK CFI cbeb8 .ra: .cfa -4 + ^
STACK CFI cbebc .cfa: sp 16 +
STACK CFI INIT cbed8 54 .cfa: sp 0 + .ra: lr
STACK CFI cbee4 .cfa: sp 4 +
STACK CFI cbeec .cfa: sp 16 +
STACK CFI cbef0 .ra: .cfa -4 + ^
STACK CFI INIT cbf2c 24 .cfa: sp 0 + .ra: lr
STACK CFI cbf34 .cfa: sp 8 +
STACK CFI cbf38 .ra: .cfa -4 + ^ r4: .cfa -8 + ^
STACK CFI INIT cbf50 114 .cfa: sp 0 + .ra: lr
STACK CFI cbf54 .cfa: sp 24 +
STACK CFI cbf58 .ra: .cfa -4 + ^ r3: .cfa -24 + ^ r4: .cfa -20 + ^ r5: .cfa -16 + ^ r6: .cfa -12 + ^ r7: .cfa -8 + ^
STACK CFI INIT cc064 94 .cfa: sp 0 + .ra: lr
STACK CFI cc068 .cfa: sp 24 +
STACK CFI cc06c .ra: .cfa -4 + ^ r4: .cfa -24 + ^ r5: .cfa -20 + ^ r6: .cfa -16 + ^ r7: .cfa -12 + ^ r8: .cfa -8 + ^
STACK CFI INIT cc0f8 1a0 .cfa: sp 0 + .ra: lr
STACK CFI cc0fc .cfa: sp 20 +
STACK CFI cc104 .cfa: sp 112 +
STACK CFI cc10c .ra: .cfa -4 + ^ r4: .cfa -20 + ^ r5: .cfa -16 + ^ r6: .cfa -12 + ^ r7: .cfa -8 + ^
STACK CFI INIT cc298 120 .cfa: sp 0 + .ra: lr
STACK CFI cc2a0 .cfa: sp 20 +
STACK CFI cc2a4 .ra: .cfa -4 + ^ r4: .cfa -20 + ^ r5: .cfa -16 + ^ r6: .cfa -12 + ^ r7: .cfa -8 + ^
STACK CFI cc2a8 .cfa: sp 128 +
STACK CFI INIT cc3b8 730 .cfa: sp 0 + .ra: lr
STACK CFI cc3c0 .cfa: sp 36 +
STACK CFI cc3c4 .ra: .cfa -4 + ^ r10: .cfa -12 + ^ r11: .cfa -8 + ^ r4: .cfa -36 + ^ r5: .cfa -32 + ^ r6: .cfa -28 + ^ r7: .cfa -24 + ^ r8: .cfa -20 + ^ r9: .cfa -16 + ^
STACK CFI cc3c8 .cfa: sp 104 +
STACK CFI INIT ccae8 344 .cfa: sp 0 + .ra: lr
STACK CFI ccaec .cfa: sp 36 +
STACK CFI ccaf0 .ra: .cfa -4 + ^ r10: .cfa -12 + ^ r11: .cfa -8 + ^ r4: .cfa -36 + ^ r5: .cfa -32 + ^ r6: .cfa -28 + ^ r7: .cfa -24 + ^ r8: .cfa -20 + ^ r9: .cfa -16 + ^
STACK CFI ccaf4 .cfa: sp 56 +
STACK CFI INIT cce2c fc .cfa: sp 0 + .ra: lr
STACK CFI cce34 .cfa: sp 16 +
STACK CFI cce3c .ra: .cfa -4 + ^ r4: .cfa -16 + ^ r5: .cfa -12 + ^ r6: .cfa -8 + ^
STACK CFI INIT ccf28 52c .cfa: sp 0 + .ra: lr
STACK CFI ccf2c .cfa: sp 24 +
STACK CFI ccf30 .ra: .cfa -4 + ^ r4: .cfa -24 + ^ r5: .cfa -20 + ^ r6: .cfa -16 + ^ r7: .cfa -12 + ^ r8: .cfa -8 + ^
STACK CFI ccf34 .cfa: sp 32 +
STACK CFI INIT cd454 38 .cfa: sp 0 + .ra: lr
STACK CFI cd45c .cfa: sp 4 +
STACK CFI cd460 .ra: .cfa -4 + ^
STACK CFI INIT cd48c 148 .cfa: sp 0 + .ra: lr
STACK CFI cd498 .cfa: sp 20 +
STACK CFI cd4a0 .ra: .cfa -4 + ^ r4: .cfa -20 + ^ r5: .cfa -16 + ^ r6: .cfa -12 + ^ r7: .cfa -8 + ^
STACK CFI cd4a4 .cfa: sp 32 +
STACK CFI INIT cd5d4 e0 .cfa: sp 0 + .ra: lr
STACK CFI cd5dc .cfa: sp 36 +
STACK CFI cd5e0 .ra: .cfa -4 + ^ r10: .cfa -12 + ^ r11: .cfa -8 + ^ r4: .cfa -36 + ^ r5: .cfa -32 + ^ r6: .cfa -28 + ^ r7: .cfa -24 + ^ r8: .cfa -20 + ^ r9: .cfa -16 + ^
STACK CFI INIT cd6b4 16c .cfa: sp 0 + .ra: lr
STACK CFI cd6bc .cfa: sp 32 +
STACK CFI cd6c0 .ra: .cfa -4 + ^ r10: .cfa -8 + ^ r4: .cfa -32 + ^ r5: .cfa -28 + ^ r6: .cfa -24 + ^ r7: .cfa -20 + ^ r8: .cfa -16 + ^ r9: .cfa -12 + ^
STACK CFI INIT cd820 58c .cfa: sp 0 + .ra: lr
STACK CFI cd824 .cfa: sp 36 +
STACK CFI cd828 .ra: .cfa -4 + ^ r10: .cfa -12 + ^ r11: .cfa -8 + ^ r4: .cfa -36 + ^ r5: .cfa -32 + ^ r6: .cfa -28 + ^ r7: .cfa -24 + ^ r8: .cfa -20 + ^ r9: .cfa -16 + ^
STACK CFI cd82c .cfa: sp 1188 +
STACK CFI cd830 .cfa: sp 1200 +
STACK CFI INIT cddac 90 .cfa: sp 0 + .ra: lr
STACK CFI cddb0 .cfa: sp 40 +
STACK CFI cddb4 .ra: .cfa -4 + ^ r10: .cfa -12 + ^ r11: .cfa -8 + ^ r3: .cfa -40 + ^ r4: .cfa -36 + ^ r5: .cfa -32 + ^ r6: .cfa -28 + ^ r7: .cfa -24 + ^ r8: .cfa -20 + ^ r9: .cfa -16 + ^
STACK CFI INIT cde3c 90 .cfa: sp 0 + .ra: lr
STACK CFI cde40 .cfa: sp 32 +
STACK CFI cde44 .ra: .cfa -4 + ^ r10: .cfa -12 + ^ r11: .cfa -8 + ^ r4: .cfa -32 + ^ r5: .cfa -28 + ^ r6: .cfa -24 + ^ r7: .cfa -20 + ^ r8: .cfa -16 + ^
STACK CFI INIT cdecc 50 .cfa: sp 0 + .ra: lr
STACK CFI cded0 .cfa: sp 16 +
STACK CFI cded8 .ra: .cfa -4 + ^ r4: .cfa -16 + ^ r5: .cfa -12 + ^ r7: .cfa -8 + ^
STACK CFI INIT cdf1c 24 .cfa: sp 0 + .ra: lr
STACK CFI cdf24 .cfa: sp 8 +
STACK CFI cdf28 .ra: .cfa -4 + ^ r4: .cfa -8 + ^
STACK CFI INIT cdf40 24 .cfa: sp 0 + .ra: lr
STACK CFI cdf48 .cfa: sp 8 +
STACK CFI cdf4c .ra: .cfa -4 + ^ r4: .cfa -8 + ^
STACK CFI INIT cdf64 4c .cfa: sp 0 + .ra: lr
STACK CFI cdf68 .cfa: sp 16 +
STACK CFI cdf6c .ra: .cfa -4 + ^ r4: .cfa -16 + ^ r5: .cfa -12 + ^ r7: .cfa -8 + ^
STACK CFI INIT cdfb0 48 .cfa: sp 0 + .ra: lr
STACK CFI cdfb4 .cfa: sp 16 +
STACK CFI cdfb8 .ra: .cfa -4 + ^ r4: .cfa -16 + ^ r5: .cfa -12 + ^ r7: .cfa -8 + ^
STACK CFI INIT cdff8 14 .cfa: sp 0 + .ra: lr
STACK CFI INIT ce00c 20 .cfa: sp 0 + .ra: lr
STACK CFI INIT ce02c 68 .cfa: sp 0 + .ra: lr
STACK CFI ce03c .cfa: sp 4 +
STACK CFI ce044 .ra: .cfa -4 + ^
STACK CFI INIT ce094 94 .cfa: sp 0 + .ra: lr
STACK CFI ce0a4 .cfa: sp 4 +
STACK CFI ce0ac .ra: .cfa -4 + ^
STACK CFI INIT ce128 d4 .cfa: sp 0 + .ra: lr
STACK CFI ce130 .cfa: sp 16 +
STACK CFI ce138 .ra: .cfa -4 + ^ r4: .cfa -16 + ^ r5: .cfa -12 + ^ r6: .cfa -8 + ^
STACK CFI INIT ce1fc e4 .cfa: sp 0 + .ra: lr
STACK CFI ce204 .cfa: sp 20 +
STACK CFI ce208 .ra: .cfa -4 + ^ r4: .cfa -20 + ^ r5: .cfa -16 + ^ r6: .cfa -12 + ^ r7: .cfa -8 + ^
STACK CFI ce20c .cfa: sp 64 +
STACK CFI INIT ce2e0 e8 .cfa: sp 0 + .ra: lr
STACK CFI ce2e4 .cfa: sp 12 +
STACK CFI ce2e8 .cfa: sp 56 +
STACK CFI ce2f8 .ra: .cfa -4 + ^ r4: .cfa -12 + ^ r7: .cfa -8 + ^
STACK CFI INIT ce3c8 2c .cfa: sp 0 + .ra: lr
STACK CFI ce3cc .cfa: sp 4 +
STACK CFI ce3d0 .cfa: sp 16 +
STACK CFI ce3d8 .ra: .cfa -4 + ^
STACK CFI INIT ce3f4 24 .cfa: sp 0 + .ra: lr
STACK CFI ce3f8 .cfa: sp 4 +
STACK CFI ce3fc .cfa: sp 16 +
STACK CFI ce408 .ra: .cfa -4 + ^
STACK CFI INIT ce418 c8 .cfa: sp 0 + .ra: lr
STACK CFI ce420 .cfa: sp 12 +
STACK CFI ce42c .cfa: sp 24 +
STACK CFI ce430 .ra: .cfa -4 + ^ r4: .cfa -12 + ^ r7: .cfa -8 + ^
STACK CFI INIT ce4e0 10 .cfa: sp 0 + .ra: lr
STACK CFI INIT ce4f0 10 .cfa: sp 0 + .ra: lr
STACK CFI INIT ce500 3c .cfa: sp 0 + .ra: lr
STACK CFI INIT ce53c 4c .cfa: sp 0 + .ra: lr
STACK CFI INIT ce588 f0 .cfa: sp 0 + .ra: lr
STACK CFI ce58c .cfa: sp 20 +
STACK CFI ce590 .ra: .cfa -4 + ^ r4: .cfa -20 + ^ r5: .cfa -16 + ^ r6: .cfa -12 + ^ r7: .cfa -8 + ^
STACK CFI ce594 .cfa: sp 32 +
STACK CFI INIT ce678 40 .cfa: sp 0 + .ra: lr
STACK CFI ce67c .cfa: sp 8 +
STACK CFI ce680 .ra: .cfa -4 + ^ r7: .cfa -8 + ^
STACK CFI INIT ce6b8 40 .cfa: sp 0 + .ra: lr
STACK CFI ce6bc .cfa: sp 8 +
STACK CFI ce6c0 .ra: .cfa -4 + ^ r7: .cfa -8 + ^
STACK CFI INIT ce6f8 90 .cfa: sp 0 + .ra: lr
STACK CFI ce6fc .cfa: sp 8 +
STACK CFI ce700 .cfa: sp 16 +
STACK CFI ce704 .ra: .cfa -4 + ^ r4: .cfa -8 + ^
STACK CFI INIT ce788 58 .cfa: sp 0 + .ra: lr
STACK CFI ce790 .cfa: sp 12 +
STACK CFI ce794 .ra: .cfa -4 + ^ r4: .cfa -12 + ^ r5: .cfa -8 + ^
STACK CFI ce7a4 .cfa: sp 24 +
STACK CFI INIT ce7e0 1c .cfa: sp 0 + .ra: lr
STACK CFI ce7e4 r7: r12
STACK CFI ce7f0 r7: r7
STACK CFI INIT ce800 d0 .cfa: sp 0 + .ra: lr
STACK CFI ce804 .cfa: sp 16 +
STACK CFI ce808 .cfa: sp 24 +
STACK CFI ce80c .cfa: sp 40 +
STACK CFI ce810 .ra: .cfa -20 + ^ r0: .cfa -16 + ^ r1: .cfa -12 + ^ r2: .cfa -8 + ^ r3: .cfa -4 + ^ r4: .cfa -24 + ^
STACK CFI INIT ce8d0 68 .cfa: sp 0 + .ra: lr
STACK CFI ce8d4 .cfa: sp 12 +
STACK CFI ce8d8 .ra: .cfa -4 + ^ r4: .cfa -12 + ^ r5: .cfa -8 + ^
STACK CFI ce8e0 .cfa: sp 24 +
STACK CFI INIT ce938 cc .cfa: sp 0 + .ra: lr
STACK CFI ce93c .cfa: sp 12 +
STACK CFI ce940 .ra: .cfa -4 + ^ r4: .cfa -12 + ^ r5: .cfa -8 + ^
STACK CFI ce944 .cfa: sp 88 +
STACK CFI INIT cea04 3c .cfa: sp 0 + .ra: lr
STACK CFI cea08 .cfa: sp 8 +
STACK CFI cea0c .ra: .cfa -4 + ^ r4: .cfa -8 + ^
STACK CFI INIT cea40 40 .cfa: sp 0 + .ra: lr
STACK CFI cea44 .cfa: sp 8 +
STACK CFI cea48 .ra: .cfa -4 + ^ r7: .cfa -8 + ^
STACK CFI INIT cea80 1c .cfa: sp 0 + .ra: lr
STACK CFI cea84 r7: r12
STACK CFI cea90 r7: r7
STACK CFI INIT ceaa0 d4 .cfa: sp 0 + .ra: lr
STACK CFI ceaa4 .cfa: sp 16 +
STACK CFI ceaa8 .ra: .cfa -4 + ^ r4: .cfa -16 + ^ r5: .cfa -12 + ^ r6: .cfa -8 + ^
STACK CFI INIT ceb74 98 .cfa: sp 0 + .ra: lr
STACK CFI ceb7c .cfa: sp 8 +
STACK CFI ceb88 .ra: .cfa -4 + ^ r7: .cfa -8 + ^
STACK CFI INIT cec0c 9c .cfa: sp 0 + .ra: lr
STACK CFI cec1c .cfa: sp 16 +
STACK CFI cec20 .ra: .cfa -4 + ^ r4: .cfa -16 + ^ r5: .cfa -12 + ^ r6: .cfa -8 + ^
STACK CFI INIT ceca8 24 .cfa: sp 0 + .ra: lr
STACK CFI cecb0 .cfa: sp 4 +
STACK CFI cecb8 .ra: .cfa -4 + ^
STACK CFI INIT cecd0 1c .cfa: sp 0 + .ra: lr
STACK CFI cecd4 r7: r12
STACK CFI cece0 r7: r7
STACK CFI INIT cecf0 274 .cfa: sp 0 + .ra: lr
STACK CFI cecf4 .cfa: sp 36 +
STACK CFI cecf8 .ra: .cfa -4 + ^ r10: .cfa -12 + ^ r11: .cfa -8 + ^ r4: .cfa -36 + ^ r5: .cfa -32 + ^ r6: .cfa -28 + ^ r7: .cfa -24 + ^ r8: .cfa -20 + ^ r9: .cfa -16 + ^
STACK CFI cecfc .cfa: r11 4 +
STACK CFI INIT cef64 fc .cfa: sp 0 + .ra: lr
STACK CFI cef68 .cfa: sp 24 +
STACK CFI cef6c .ra: .cfa -4 + ^ r4: .cfa -24 + ^ r5: .cfa -20 + ^ r6: .cfa -16 + ^ r7: .cfa -12 + ^ r8: .cfa -8 + ^
STACK CFI INIT cf060 258 .cfa: sp 0 + .ra: lr
STACK CFI cf064 .cfa: sp 36 +
STACK CFI cf068 .ra: .cfa -4 + ^ r10: .cfa -12 + ^ r11: .cfa -8 + ^ r4: .cfa -36 + ^ r5: .cfa -32 + ^ r6: .cfa -28 + ^ r7: .cfa -24 + ^ r8: .cfa -20 + ^ r9: .cfa -16 + ^
STACK CFI cf06c .cfa: r11 4 +
STACK CFI INIT cf2b8 fc .cfa: sp 0 + .ra: lr
STACK CFI cf2bc .cfa: sp 24 +
STACK CFI cf2c0 .ra: .cfa -4 + ^ r4: .cfa -24 + ^ r5: .cfa -20 + ^ r6: .cfa -16 + ^ r7: .cfa -12 + ^ r8: .cfa -8 + ^
STACK CFI INIT cf3b4 274 .cfa: sp 0 + .ra: lr
STACK CFI cf3b8 .cfa: sp 36 +
STACK CFI cf3bc .ra: .cfa -4 + ^ r10: .cfa -12 + ^ r11: .cfa -8 + ^ r4: .cfa -36 + ^ r5: .cfa -32 + ^ r6: .cfa -28 + ^ r7: .cfa -24 + ^ r8: .cfa -20 + ^ r9: .cfa -16 + ^
STACK CFI cf3c0 .cfa: r11 4 +
STACK CFI INIT cf628 120 .cfa: sp 0 + .ra: lr
STACK CFI cf62c .cfa: sp 36 +
STACK CFI cf630 .ra: .cfa -4 + ^ r10: .cfa -12 + ^ r11: .cfa -8 + ^ r4: .cfa -36 + ^ r5: .cfa -32 + ^ r6: .cfa -28 + ^ r7: .cfa -24 + ^ r8: .cfa -20 + ^ r9: .cfa -16 + ^
STACK CFI cf634 .cfa: sp 40 +
STACK CFI INIT cf748 264 .cfa: sp 0 + .ra: lr
STACK CFI cf74c .cfa: sp 36 +
STACK CFI cf750 .ra: .cfa -4 + ^ r10: .cfa -12 + ^ r11: .cfa -8 + ^ r4: .cfa -36 + ^ r5: .cfa -32 + ^ r6: .cfa -28 + ^ r7: .cfa -24 + ^ r8: .cfa -20 + ^ r9: .cfa -16 + ^
STACK CFI cf754 .cfa: r11 4 +
STACK CFI INIT cf9ac 11c .cfa: sp 0 + .ra: lr
STACK CFI cf9b0 .cfa: sp 36 +
STACK CFI cf9b4 .ra: .cfa -4 + ^ r10: .cfa -12 + ^ r11: .cfa -8 + ^ r4: .cfa -36 + ^ r5: .cfa -32 + ^ r6: .cfa -28 + ^ r7: .cfa -24 + ^ r8: .cfa -20 + ^ r9: .cfa -16 + ^
STACK CFI cf9b8 .cfa: sp 40 +
STACK CFI INIT cfac8 1e0 .cfa: sp 0 + .ra: lr
STACK CFI cfacc .cfa: sp 36 +
STACK CFI cfad0 .ra: .cfa -4 + ^ r10: .cfa -12 + ^ r11: .cfa -8 + ^ r4: .cfa -36 + ^ r5: .cfa -32 + ^ r6: .cfa -28 + ^ r7: .cfa -24 + ^ r8: .cfa -20 + ^ r9: .cfa -16 + ^
STACK CFI cfad4 .cfa: r11 4 +
STACK CFI INIT cfca8 120 .cfa: sp 0 + .ra: lr
STACK CFI cfcac .cfa: sp 36 +
STACK CFI cfcb0 .ra: .cfa -4 + ^ r10: .cfa -12 + ^ r11: .cfa -8 + ^ r4: .cfa -36 + ^ r5: .cfa -32 + ^ r6: .cfa -28 + ^ r7: .cfa -24 + ^ r8: .cfa -20 + ^ r9: .cfa -16 + ^
STACK CFI cfcb4 .cfa: sp 40 +
STACK CFI INIT cfdc8 1e0 .cfa: sp 0 + .ra: lr
STACK CFI cfdcc .cfa: sp 36 +
STACK CFI cfdd0 .ra: .cfa -4 + ^ r10: .cfa -12 + ^ r11: .cfa -8 + ^ r4: .cfa -36 + ^ r5: .cfa -32 + ^ r6: .cfa -28 + ^ r7: .cfa -24 + ^ r8: .cfa -20 + ^ r9: .cfa -16 + ^
STACK CFI cfdd4 .cfa: r11 4 +
STACK CFI INIT cffa8 11c .cfa: sp 0 + .ra: lr
STACK CFI cffac .cfa: sp 36 +
STACK CFI cffb0 .ra: .cfa -4 + ^ r10: .cfa -12 + ^ r11: .cfa -8 + ^ r4: .cfa -36 + ^ r5: .cfa -32 + ^ r6: .cfa -28 + ^ r7: .cfa -24 + ^ r8: .cfa -20 + ^ r9: .cfa -16 + ^
STACK CFI cffb4 .cfa: sp 40 +
STACK CFI INIT d00c4 88 .cfa: sp 0 + .ra: lr
STACK CFI d00cc .cfa: sp 8 +
STACK CFI d00d8 .cfa: sp 32 +
STACK CFI d00dc .ra: .cfa -4 + ^ r7: .cfa -8 + ^
STACK CFI INIT d014c 88 .cfa: sp 0 + .ra: lr
STACK CFI d0154 .cfa: sp 8 +
STACK CFI d0160 .cfa: sp 32 +
STACK CFI d0164 .ra: .cfa -4 + ^ r7: .cfa -8 + ^
STACK CFI INIT d01d4 c4 .cfa: sp 0 + .ra: lr
STACK CFI d01dc .cfa: sp 12 +
STACK CFI d01e4 .cfa: sp 40 +
STACK CFI d01e8 .ra: .cfa -4 + ^ r4: .cfa -12 + ^ r7: .cfa -8 + ^
STACK CFI INIT d0298 c4 .cfa: sp 0 + .ra: lr
STACK CFI d02a0 .cfa: sp 12 +
STACK CFI d02a8 .cfa: sp 40 +
STACK CFI d02ac .ra: .cfa -4 + ^ r4: .cfa -12 + ^ r7: .cfa -8 + ^
STACK CFI INIT d035c 28 .cfa: sp 0 + .ra: lr
STACK CFI INIT d0384 28 .cfa: sp 0 + .ra: lr
STACK CFI d0388 .cfa: sp 4 +
STACK CFI d038c .cfa: sp 16 +
STACK CFI d0394 .ra: .cfa -4 + ^
STACK CFI INIT d03ac 84 .cfa: sp 0 + .ra: lr
STACK CFI d03b0 .cfa: sp 20 +
STACK CFI d03b4 .cfa: sp 416 +
STACK CFI d03b8 .ra: .cfa -4 + ^ r4: .cfa -20 + ^ r5: .cfa -16 + ^ r6: .cfa -12 + ^ r7: .cfa -8 + ^
STACK CFI INIT d0430 1c .cfa: sp 0 + .ra: lr
STACK CFI d0434 r7: r12
STACK CFI d0440 r7: r7
STACK CFI INIT d0450 58 .cfa: sp 0 + .ra: lr
STACK CFI d0454 .cfa: sp 12 +
STACK CFI d0458 .cfa: sp 408 +
STACK CFI d045c .ra: .cfa -4 + ^ r4: .cfa -12 + ^ r5: .cfa -8 + ^
STACK CFI INIT d04b0 1c .cfa: sp 0 + .ra: lr
STACK CFI d04b4 r7: r12
STACK CFI d04c0 r7: r7
STACK CFI INIT d04d4 24 .cfa: sp 0 + .ra: lr
STACK CFI d04d8 .cfa: sp 4 + r4: .cfa -4 + ^
STACK CFI d04e0 r7: r12
STACK CFI d04ec r7: r7
STACK CFI d04f0 .cfa: sp 0 + r4: r4
STACK CFI INIT d0500 74 .cfa: sp 0 + .ra: lr
STACK CFI d0510 .cfa: sp 4 + r4: .cfa -4 + ^
STACK CFI d051c r7: r12
STACK CFI d0528 r7: r7
STACK CFI d052c .cfa: sp 0 + r4: r4
STACK CFI d0538 .cfa: sp 4 + r4: .cfa -4 + ^ r7: r7
STACK CFI d053c .cfa: sp 32 + .ra: .cfa -8 + ^ r7: .cfa -12 + ^
STACK CFI d0548 .cfa: sp 16 +
STACK CFI d0564 .cfa: sp 4 + .ra: .ra r7: r7
STACK CFI d0568 .cfa: sp 0 + r4: r4
STACK CFI INIT d0580 1c0 .cfa: sp 0 + .ra: lr
STACK CFI d0584 .cfa: sp 36 +
STACK CFI d0588 .cfa: sp 208 +
STACK CFI d058c .ra: .cfa -4 + ^ r10: .cfa -12 + ^ r11: .cfa -8 + ^ r4: .cfa -36 + ^ r5: .cfa -32 + ^ r6: .cfa -28 + ^ r7: .cfa -24 + ^ r8: .cfa -20 + ^ r9: .cfa -16 + ^
STACK CFI INIT d0740 1c .cfa: sp 0 + .ra: lr
STACK CFI d0744 r7: r12
STACK CFI d0750 r7: r7
STACK CFI INIT d0760 1c .cfa: sp 0 + .ra: lr
STACK CFI d0764 r7: r12
STACK CFI d0770 r7: r7
STACK CFI INIT d0784 18 .cfa: sp 0 + .ra: lr
STACK CFI d0788 r7: r12
STACK CFI d0794 r7: r7
STACK CFI INIT d07a0 64 .cfa: sp 0 + .ra: lr
STACK CFI d07b4 r7: r12
STACK CFI d07c0 r7: r7
STACK CFI d07cc r7: r7
STACK CFI d07d0 .cfa: sp 16 + .ra: .cfa -4 + ^ r7: .cfa -8 + ^
STACK CFI d07dc .cfa: sp 8 +
STACK CFI d07f8 .cfa: sp 0 + .ra: .ra r7: r7
STACK CFI INIT d0810 1c .cfa: sp 0 + .ra: lr
STACK CFI d0814 r7: r12
STACK CFI d0820 r7: r7
STACK CFI INIT d0834 18 .cfa: sp 0 + .ra: lr
STACK CFI d0838 r7: r12
STACK CFI d0844 r7: r7
STACK CFI INIT d0850 64 .cfa: sp 0 + .ra: lr
STACK CFI d0864 r7: r12
STACK CFI d0870 r7: r7
STACK CFI d087c r7: r7
STACK CFI d0880 .cfa: sp 16 + .ra: .cfa -4 + ^ r7: .cfa -8 + ^
STACK CFI d088c .cfa: sp 8 +
STACK CFI d08a8 .cfa: sp 0 + .ra: .ra r7: r7
STACK CFI INIT d08c0 54 .cfa: sp 0 + .ra: lr
STACK CFI d08c4 .cfa: sp 8 +
STACK CFI d08d4 .ra: .cfa -4 + ^ r7: .cfa -8 + ^
STACK CFI INIT d0914 1a4 .cfa: sp 0 + .ra: lr
STACK CFI d091c .cfa: sp 28 +
STACK CFI d0920 .cfa: r11 4 + .ra: .cfa -4 + ^ r11: .cfa -8 + ^ r4: .cfa -28 + ^ r5: .cfa -24 + ^ r6: .cfa -20 + ^ r7: .cfa -16 + ^ r8: .cfa -12 + ^
STACK CFI INIT d0ab8 104 .cfa: sp 0 + .ra: lr
STACK CFI d0abc .cfa: sp 12 +
STACK CFI d0ac4 .cfa: sp 24 +
STACK CFI d0ae0 .ra: .cfa -4 + ^ r4: .cfa -12 + ^ r7: .cfa -8 + ^
STACK CFI INIT d0bc0 1c .cfa: sp 0 + .ra: lr
STACK CFI d0bc4 r7: r12
STACK CFI d0bd0 r7: r7
STACK CFI INIT d0be0 1c .cfa: sp 0 + .ra: lr
STACK CFI d0be4 r7: r12
STACK CFI d0bf0 r7: r7
STACK CFI INIT d0c00 1c .cfa: sp 0 + .ra: lr
STACK CFI d0c04 r7: r12
STACK CFI d0c10 r7: r7
STACK CFI INIT d0c20 2c .cfa: sp 0 + .ra: lr
STACK CFI d0c2c .cfa: sp 8 +
STACK CFI d0c34 .ra: .cfa -4 + ^ r4: .cfa -8 + ^
STACK CFI INIT d0c4c 10 .cfa: sp 0 + .ra: lr
STACK CFI INIT d0c5c 10 .cfa: sp 0 + .ra: lr
STACK CFI INIT d0c6c 28 .cfa: sp 0 + .ra: lr
STACK CFI d0c74 .cfa: sp 8 +
STACK CFI d0c80 .ra: .cfa -4 + ^ r4: .cfa -8 + ^
STACK CFI INIT d0c94 10 .cfa: sp 0 + .ra: lr
STACK CFI INIT d0ca4 10 .cfa: sp 0 + .ra: lr
STACK CFI INIT d0cb4 3c .cfa: sp 0 + .ra: lr
STACK CFI d0cbc .cfa: sp 4 +
STACK CFI d0cc0 .ra: .cfa -4 + ^
STACK CFI INIT d0cf0 3c .cfa: sp 0 + .ra: lr
STACK CFI d0cf8 .cfa: sp 4 +
STACK CFI d0cfc .ra: .cfa -4 + ^
STACK CFI INIT d0d2c 38 .cfa: sp 0 + .ra: lr
STACK CFI d0d34 .cfa: sp 4 +
STACK CFI d0d38 .ra: .cfa -4 + ^
STACK CFI INIT d0d64 3c .cfa: sp 0 + .ra: lr
STACK CFI d0d6c .cfa: sp 4 +
STACK CFI d0d70 .ra: .cfa -4 + ^
STACK CFI INIT d0da0 50 .cfa: sp 0 + .ra: lr
STACK CFI d0da4 .cfa: sp 4 +
STACK CFI d0dac .cfa: sp 40 +
STACK CFI d0dc8 .ra: .cfa -4 + ^
STACK CFI INIT d0df0 4c .cfa: sp 0 + .ra: lr
STACK CFI d0e0c .cfa: sp 4 +
STACK CFI d0e18 .cfa: sp 16 +
STACK CFI d0e28 .ra: .cfa -4 + ^
STACK CFI INIT d0e3c 4c .cfa: sp 0 + .ra: lr
STACK CFI d0e44 .cfa: sp 4 +
STACK CFI d0e48 .ra: .cfa -4 + ^
STACK CFI INIT d0e88 4c .cfa: sp 0 + .ra: lr
STACK CFI d0e90 .cfa: sp 4 +
STACK CFI d0e94 .ra: .cfa -4 + ^
STACK CFI INIT d0ed4 b8 .cfa: sp 0 + .ra: lr
STACK CFI d0ed8 .cfa: sp 16 +
STACK CFI d0edc .cfa: sp 24 +
STACK CFI d0ee0 .cfa: sp 32 +
STACK CFI d0ee8 .ra: .cfa -20 + ^ r0: .cfa -16 + ^ r1: .cfa -12 + ^ r2: .cfa -8 + ^ r3: .cfa -4 + ^ r7: .cfa -24 + ^
STACK CFI INIT d0f8c 20 .cfa: sp 0 + .ra: lr
STACK CFI d0f90 .cfa: sp 8 +
STACK CFI d0f94 .ra: .cfa -4 + ^ r3: .cfa -8 + ^
STACK CFI INIT d0fac b4 .cfa: sp 0 + .ra: lr
STACK CFI d0fb0 .cfa: sp 16 +
STACK CFI d0fb4 .ra: .cfa -4 + ^ r4: .cfa -16 + ^ r5: .cfa -12 + ^ r6: .cfa -8 + ^
STACK CFI INIT d1060 114 .cfa: sp 0 + .ra: lr
STACK CFI d1064 .cfa: sp 24 +
STACK CFI d1070 r10: .cfa -4 + ^ r4: .cfa -24 + ^ r5: .cfa -20 + ^ r6: .cfa -16 + ^ r7: .cfa -12 + ^ r8: .cfa -8 + ^
STACK CFI INIT d1174 70 .cfa: sp 0 + .ra: lr
STACK CFI d1178 .cfa: sp 24 +
STACK CFI d117c .ra: .cfa -4 + ^ r11: .cfa -8 + ^ r3: .cfa -24 + ^ r4: .cfa -20 + ^ r5: .cfa -16 + ^ r6: .cfa -12 + ^
STACK CFI d1180 .cfa: r11 4 +
STACK CFI INIT d11e4 18 .cfa: sp 0 + .ra: lr
STACK CFI d11ec .cfa: sp 8 +
STACK CFI d11f0 .ra: .cfa -4 + ^ r3: .cfa -8 + ^
STACK CFI INIT d11fc 480 .cfa: sp 0 + .ra: lr
STACK CFI d1200 .cfa: sp 32 +
STACK CFI d1204 .ra: .cfa -4 + ^ r10: .cfa -8 + ^ r4: .cfa -32 + ^ r5: .cfa -28 + ^ r6: .cfa -24 + ^ r7: .cfa -20 + ^ r8: .cfa -16 + ^ r9: .cfa -12 + ^
STACK CFI d1208 .cfa: sp 1056 +
STACK CFI INIT d167c 544 .cfa: sp 0 + .ra: lr
STACK CFI d1680 .cfa: sp 36 +
STACK CFI d1684 .cfa: r11 4 + .ra: .cfa -4 + ^ r10: .cfa -12 + ^ r11: .cfa -8 + ^ r4: .cfa -36 + ^ r5: .cfa -32 + ^ r6: .cfa -28 + ^ r7: .cfa -24 + ^ r8: .cfa -20 + ^ r9: .cfa -16 + ^
STACK CFI INIT d1bc0 8c .cfa: sp 0 + .ra: lr
STACK CFI d1bc4 .cfa: sp 16 +
STACK CFI d1bc8 .ra: .cfa -4 + ^ r4: .cfa -16 + ^ r5: .cfa -12 + ^ r6: .cfa -8 + ^
STACK CFI INIT d1c4c 44 .cfa: sp 0 + .ra: lr
STACK CFI d1c50 .cfa: sp 8 +
STACK CFI d1c54 .ra: .cfa -4 + ^ r7: .cfa -8 + ^
STACK CFI INIT d1c90 c8 .cfa: sp 0 + .ra: lr
STACK CFI d1c98 .cfa: sp 8 +
STACK CFI d1ca0 .cfa: sp 24 +
STACK CFI d1ca4 .ra: .cfa -4 + ^ r7: .cfa -8 + ^
STACK CFI INIT d1d58 20c .cfa: sp 0 + .ra: lr
STACK CFI d1d5c .cfa: sp 20 +
STACK CFI d1d60 .ra: .cfa -4 + ^ r4: .cfa -20 + ^ r5: .cfa -16 + ^ r6: .cfa -12 + ^ r7: .cfa -8 + ^
STACK CFI d1d64 .cfa: sp 72 +
STACK CFI INIT d1f64 178 .cfa: sp 0 + .ra: lr
STACK CFI d1f6c .cfa: sp 28 +
STACK CFI d1f70 .cfa: r11 4 + .ra: .cfa -4 + ^ r11: .cfa -8 + ^ r4: .cfa -28 + ^ r5: .cfa -24 + ^ r6: .cfa -20 + ^ r7: .cfa -16 + ^ r8: .cfa -12 + ^
STACK CFI INIT d20e0 1c .cfa: sp 0 + .ra: lr
STACK CFI d20e4 r7: r12
STACK CFI d20f0 r7: r7
STACK CFI INIT d2100 1c .cfa: sp 0 + .ra: lr
STACK CFI d2104 r7: r12
STACK CFI d2110 r7: r7
STACK CFI INIT d2120 44 .cfa: sp 0 + .ra: lr
STACK CFI d2124 .cfa: sp 8 +
STACK CFI d212c .ra: .cfa -4 + ^ r7: .cfa -8 + ^
STACK CFI INIT d2164 44 .cfa: sp 0 + .ra: lr
STACK CFI d2168 .cfa: sp 8 +
STACK CFI d2170 .ra: .cfa -4 + ^ r7: .cfa -8 + ^
STACK CFI INIT d21a8 2c .cfa: sp 0 + .ra: lr
STACK CFI INIT d21d4 18 .cfa: sp 0 + .ra: lr
STACK CFI INIT d21ec 110 .cfa: sp 0 + .ra: lr
STACK CFI INIT d22fc 68 .cfa: sp 0 + .ra: lr
STACK CFI d2300 .cfa: sp 8 +
STACK CFI d2304 .ra: .cfa -4 + ^ r4: .cfa -8 + ^
STACK CFI INIT d2364 4d8 .cfa: sp 0 + .ra: lr
STACK CFI d2368 .cfa: sp 24 +
STACK CFI d236c .ra: .cfa -4 + ^ r4: .cfa -24 + ^ r5: .cfa -20 + ^ r6: .cfa -16 + ^ r7: .cfa -12 + ^ r8: .cfa -8 + ^
STACK CFI INIT d283c 3c .cfa: sp 0 + .ra: lr
STACK CFI d2840 .cfa: sp 8 +
STACK CFI d2844 .ra: .cfa -4 + ^ r4: .cfa -8 + ^
STACK CFI INIT d2878 3c .cfa: sp 0 + .ra: lr
STACK CFI d287c .cfa: sp 16 +
STACK CFI d2880 .ra: .cfa -4 + ^ r3: .cfa -16 + ^ r4: .cfa -12 + ^ r5: .cfa -8 + ^
STACK CFI INIT d28b4 298 .cfa: sp 0 + .ra: lr
STACK CFI d28b8 .cfa: sp 36 +
STACK CFI d28bc .ra: .cfa -4 + ^ r10: .cfa -12 + ^ r11: .cfa -8 + ^ r4: .cfa -36 + ^ r5: .cfa -32 + ^ r6: .cfa -28 + ^ r7: .cfa -24 + ^ r8: .cfa -20 + ^ r9: .cfa -16 + ^
STACK CFI d28c0 .cfa: sp 144 +
STACK CFI INIT d2b4c 50 .cfa: sp 0 + .ra: lr
STACK CFI d2b50 .cfa: sp 8 +
STACK CFI d2b54 .ra: .cfa -4 + ^ r4: .cfa -8 + ^
STACK CFI INIT d2b9c 34 .cfa: sp 0 + .ra: lr
STACK CFI d2ba0 .cfa: sp 16 +
STACK CFI d2ba4 .ra: .cfa -4 + ^ r3: .cfa -16 + ^ r4: .cfa -12 + ^ r5: .cfa -8 + ^
STACK CFI INIT d2bd0 1c .cfa: sp 0 + .ra: lr
STACK CFI d2bd4 .cfa: sp 8 + .ra: .cfa -4 + ^ r3: .cfa -8 + ^
STACK CFI INIT d2bec c .cfa: sp 0 + .ra: lr
STACK CFI INIT d2bf8 1ec .cfa: sp 0 + .ra: lr
STACK CFI d2bfc .cfa: sp 28 +
STACK CFI d2c04 .ra: .cfa -4 + ^ r10: .cfa -8 + ^ r4: .cfa -28 + ^ r5: .cfa -24 + ^ r6: .cfa -20 + ^ r7: .cfa -16 + ^ r8: .cfa -12 + ^
STACK CFI d2c0c .cfa: sp 152 +
STACK CFI INIT d2de4 d4 .cfa: sp 0 + .ra: lr
STACK CFI d2de8 .cfa: sp 16 +
STACK CFI d2df0 .cfa: r11 4 + .ra: .cfa -4 + ^ r11: .cfa -8 + ^ r4: .cfa -16 + ^ r5: .cfa -12 + ^
STACK CFI INIT d2eb8 44 .cfa: sp 0 + .ra: lr
STACK CFI d2ebc .cfa: sp 16 +
STACK CFI d2ec0 .ra: .cfa -4 + ^ r3: .cfa -16 + ^ r4: .cfa -12 + ^ r5: .cfa -8 + ^
STACK CFI INIT d2efc 7c .cfa: sp 0 + .ra: lr
STACK CFI d2f00 .cfa: sp 20 +
STACK CFI d2f04 .ra: .cfa -4 + ^ r4: .cfa -20 + ^ r5: .cfa -16 + ^ r6: .cfa -12 + ^ r7: .cfa -8 + ^
STACK CFI INIT d2f78 378 .cfa: sp 0 + .ra: lr
STACK CFI d2f7c .cfa: sp 40 +
STACK CFI d2f80 .ra: .cfa -4 + ^ r10: .cfa -12 + ^ r11: .cfa -8 + ^ r3: .cfa -40 + ^ r4: .cfa -36 + ^ r5: .cfa -32 + ^ r6: .cfa -28 + ^ r7: .cfa -24 + ^ r8: .cfa -20 + ^ r9: .cfa -16 + ^
STACK CFI INIT d32f0 5f0 .cfa: sp 0 + .ra: lr
STACK CFI d32f4 .cfa: sp 36 +
STACK CFI d32f8 .ra: .cfa -4 + ^ r10: .cfa -12 + ^ r11: .cfa -8 + ^ r4: .cfa -36 + ^ r5: .cfa -32 + ^ r6: .cfa -28 + ^ r7: .cfa -24 + ^ r8: .cfa -20 + ^ r9: .cfa -16 + ^
STACK CFI d32fc .cfa: sp 168 +
STACK CFI INIT d38e0 30 .cfa: sp 0 + .ra: lr
STACK CFI d38e4 .cfa: sp 8 +
STACK CFI d38e8 .cfa: sp 12 +
STACK CFI d38ec .cfa: sp 24 +
STACK CFI d38f4 .ra: .cfa -12 + ^ r2: .cfa -8 + ^ r3: .cfa -4 + ^
STACK CFI INIT d3910 34 .cfa: sp 0 + .ra: lr
STACK CFI d3914 .cfa: sp 12 +
STACK CFI d3918 .cfa: sp 16 +
STACK CFI d391c .cfa: sp 24 +
STACK CFI d3924 .ra: .cfa -16 + ^ r1: .cfa -12 + ^ r2: .cfa -8 + ^ r3: .cfa -4 + ^
STACK CFI INIT d3944 14 .cfa: sp 0 + .ra: lr
STACK CFI INIT d3958 90 .cfa: sp 0 + .ra: lr
STACK CFI d395c .cfa: sp 24 +
STACK CFI d3960 .ra: .cfa -4 + ^ r4: .cfa -24 + ^ r5: .cfa -20 + ^ r6: .cfa -16 + ^ r7: .cfa -12 + ^ r8: .cfa -8 + ^
STACK CFI INIT d39e8 a0 .cfa: sp 0 + .ra: lr
STACK CFI d39f0 .cfa: sp 8 +
STACK CFI d3a00 .ra: .cfa -4 + ^ r4: .cfa -8 + ^
STACK CFI INIT d3a88 1c .cfa: sp 0 + .ra: lr
STACK CFI INIT d3ab0 30 .cfa: sp 0 + .ra: lr
STACK CFI d3ab8 .cfa: sp 16 + r4: .cfa -16 + ^ r5: .cfa -12 + ^ r6: .cfa -8 + ^ r7: .cfa -4 + ^
STACK CFI d3ad4 .cfa: sp 0 + r4: r4 r5: r5 r6: r6 r7: r7
STACK CFI INIT d3ae0 170 .cfa: sp 0 + .ra: lr
STACK CFI d3ae4 .cfa: sp 20 +
STACK CFI d3ae8 .cfa: sp 128 +
STACK CFI d3aec .ra: .cfa -4 + ^ r4: .cfa -20 + ^ r5: .cfa -16 + ^ r6: .cfa -12 + ^ r7: .cfa -8 + ^
STACK CFI INIT d3c50 48 .cfa: sp 0 + .ra: lr
STACK CFI d3c54 .cfa: sp 4 + r5: .cfa -4 + ^
STACK CFI d3c5c .cfa: sp 8 + r4: .cfa -8 + ^
STACK CFI d3c70 r7: r12
STACK CFI d3c7c r7: r7
STACK CFI d3c80 .cfa: sp 4 + r4: r4
STACK CFI d3c84 .cfa: sp 0 + r5: r5
STACK CFI d3c90 .cfa: sp 8 + r4: .cfa -8 + ^ r5: .cfa -4 + ^ r7: r7
STACK CFI INIT d3ca0 54 .cfa: sp 0 + .ra: lr
STACK CFI d3ca8 .cfa: sp 4 + r5: .cfa -4 + ^
STACK CFI d3cb0 .cfa: sp 8 + r4: .cfa -8 + ^
STACK CFI d3ccc r7: r12
STACK CFI d3cd8 r7: r7
STACK CFI d3ce0 .cfa: sp 0 + r4: r4 r5: r5
STACK CFI d3ce8 .cfa: sp 8 + r4: .cfa -8 + ^ r5: .cfa -4 + ^ r7: r7
STACK CFI d3cf0 .cfa: sp 0 + r4: r4 r5: r5
STACK CFI INIT d3d00 1c .cfa: sp 0 + .ra: lr
STACK CFI d3d04 r7: r12
STACK CFI d3d10 r7: r7
STACK CFI INIT d3d20 1c .cfa: sp 0 + .ra: lr
STACK CFI d3d24 r7: r12
STACK CFI d3d30 r7: r7
STACK CFI INIT d3d44 18 .cfa: sp 0 + .ra: lr
STACK CFI d3d48 r7: r12
STACK CFI d3d54 r7: r7
STACK CFI INIT d3d60 64 .cfa: sp 0 + .ra: lr
STACK CFI d3d74 r7: r12
STACK CFI d3d80 r7: r7
STACK CFI d3d8c r7: r7
STACK CFI d3d90 .cfa: sp 24 + .ra: .cfa -4 + ^ r7: .cfa -8 + ^
STACK CFI d3d9c .cfa: sp 8 +
STACK CFI d3db8 .cfa: sp 0 + .ra: .ra r7: r7
STACK CFI INIT d3dd0 1c .cfa: sp 0 + .ra: lr
STACK CFI d3dd4 r7: r12
STACK CFI d3de0 r7: r7
STACK CFI INIT d3df0 1c .cfa: sp 0 + .ra: lr
STACK CFI d3df4 r7: r12
STACK CFI d3e00 r7: r7
STACK CFI INIT d3e10 28 .cfa: sp 0 + .ra: lr
STACK CFI d3e14 .cfa: sp 4 + r4: .cfa -4 + ^
STACK CFI d3e1c r7: r12
STACK CFI d3e28 r7: r7
STACK CFI d3e2c .cfa: sp 0 + r4: r4
STACK CFI INIT d3e40 1c .cfa: sp 0 + .ra: lr
STACK CFI d3e44 r7: r12
STACK CFI d3e50 r7: r7
STACK CFI INIT d3e60 1c .cfa: sp 0 + .ra: lr
STACK CFI d3e64 r7: r12
STACK CFI d3e70 r7: r7
STACK CFI INIT d3e80 1c .cfa: sp 0 + .ra: lr
STACK CFI d3e84 r7: r12
STACK CFI d3e90 r7: r7
STACK CFI INIT d3ea0 1c .cfa: sp 0 + .ra: lr
STACK CFI d3ea4 r7: r12
STACK CFI d3eb0 r7: r7
STACK CFI INIT d3ec0 10 .cfa: sp 0 + .ra: lr
STACK CFI INIT d3ed0 38 .cfa: sp 0 + .ra: lr
STACK CFI d3ed4 .cfa: sp 4 +
STACK CFI d3ed8 .ra: .cfa -4 + ^
STACK CFI d3edc .cfa: sp 32 +
STACK CFI INIT d3f08 10 .cfa: sp 0 + .ra: lr
STACK CFI INIT d3f18 e4 .cfa: sp 0 + .ra: lr
STACK CFI d3f1c .cfa: sp 24 +
STACK CFI d3f20 .ra: .cfa -4 + ^ r3: .cfa -24 + ^ r4: .cfa -20 + ^ r5: .cfa -16 + ^ r6: .cfa -12 + ^ r7: .cfa -8 + ^
STACK CFI INIT d3ffc 3c .cfa: sp 0 + .ra: lr
STACK CFI d4000 .cfa: sp 8 +
STACK CFI d4004 .ra: .cfa -4 + ^ r4: .cfa -8 + ^
STACK CFI INIT d4038 22c .cfa: sp 0 + .ra: lr
STACK CFI d403c .cfa: sp 36 +
STACK CFI d4040 .cfa: sp 64 +
STACK CFI d4050 .ra: .cfa -4 + ^ r10: .cfa -12 + ^ r11: .cfa -8 + ^ r4: .cfa -36 + ^ r5: .cfa -32 + ^ r6: .cfa -28 + ^ r7: .cfa -24 + ^ r8: .cfa -20 + ^ r9: .cfa -16 + ^
STACK CFI INIT d4264 98 .cfa: sp 0 + .ra: lr
STACK CFI d426c .cfa: sp 16 +
STACK CFI d4274 .ra: .cfa -4 + ^ r4: .cfa -16 + ^ r5: .cfa -12 + ^ r6: .cfa -8 + ^
STACK CFI INIT d42fc 44 .cfa: sp 0 + .ra: lr
STACK CFI d4300 .cfa: sp 16 +
STACK CFI d4304 .ra: .cfa -4 + ^ r4: .cfa -16 + ^ r5: .cfa -12 + ^ r6: .cfa -8 + ^
STACK CFI INIT d4340 158 .cfa: sp 0 + .ra: lr
STACK CFI d4344 .cfa: sp 16 +
STACK CFI d4350 r4: .cfa -16 + ^ r5: .cfa -12 + ^ r6: .cfa -8 + ^ r7: .cfa -4 + ^
STACK CFI INIT d4498 134 .cfa: sp 0 + .ra: lr
STACK CFI d449c .cfa: sp 36 +
STACK CFI d44a0 .ra: .cfa -4 + ^ r10: .cfa -12 + ^ r11: .cfa -8 + ^ r4: .cfa -36 + ^ r5: .cfa -32 + ^ r6: .cfa -28 + ^ r7: .cfa -24 + ^ r8: .cfa -20 + ^ r9: .cfa -16 + ^
STACK CFI d44a4 .cfa: sp 56 +
STACK CFI INIT d45cc 64 .cfa: sp 0 + .ra: lr
STACK CFI d45d4 .cfa: sp 16 +
STACK CFI d45dc .ra: .cfa -4 + ^ r4: .cfa -16 + ^ r5: .cfa -12 + ^ r6: .cfa -8 + ^
STACK CFI INIT d4630 440 .cfa: sp 0 + .ra: lr
STACK CFI d4634 .cfa: sp 36 +
STACK CFI d4638 .cfa: r11 4 + .ra: .cfa -4 + ^ r10: .cfa -12 + ^ r11: .cfa -8 + ^ r4: .cfa -36 + ^ r5: .cfa -32 + ^ r6: .cfa -28 + ^ r7: .cfa -24 + ^ r8: .cfa -20 + ^ r9: .cfa -16 + ^
STACK CFI INIT d4a70 14 .cfa: sp 0 + .ra: lr
STACK CFI INIT d4a84 c .cfa: sp 0 + .ra: lr
STACK CFI INIT d4a90 94 .cfa: sp 0 + .ra: lr
STACK CFI d4a98 .cfa: sp 32 +
STACK CFI d4aa0 .ra: .cfa -4 + ^ r10: .cfa -8 + ^ r4: .cfa -32 + ^ r5: .cfa -28 + ^ r6: .cfa -24 + ^ r7: .cfa -20 + ^ r8: .cfa -16 + ^ r9: .cfa -12 + ^
STACK CFI INIT d4b24 78 .cfa: sp 0 + .ra: lr
STACK CFI d4b28 .cfa: sp 32 +
STACK CFI d4b2c .ra: .cfa -4 + ^ r10: .cfa -8 + ^ r3: .cfa -32 + ^ r4: .cfa -28 + ^ r5: .cfa -24 + ^ r6: .cfa -20 + ^ r7: .cfa -16 + ^ r8: .cfa -12 + ^
STACK CFI INIT d4b9c f4 .cfa: sp 0 + .ra: lr
STACK CFI d4ba0 .cfa: sp 36 +
STACK CFI d4ba4 .ra: .cfa -4 + ^ r10: .cfa -12 + ^ r11: .cfa -8 + ^ r4: .cfa -36 + ^ r5: .cfa -32 + ^ r6: .cfa -28 + ^ r7: .cfa -24 + ^ r8: .cfa -20 + ^ r9: .cfa -16 + ^
STACK CFI d4ba8 .cfa: r11 4 +
STACK CFI INIT d4c90 d0 .cfa: sp 0 + .ra: lr
STACK CFI d4c98 .cfa: sp 16 +
STACK CFI d4c9c .ra: .cfa -4 + ^ r4: .cfa -16 + ^ r5: .cfa -12 + ^ r6: .cfa -8 + ^
STACK CFI INIT d4d60 140 .cfa: sp 0 + .ra: lr
STACK CFI d4d68 .cfa: sp 24 +
STACK CFI d4d6c .ra: .cfa -4 + ^ r4: .cfa -24 + ^ r5: .cfa -20 + ^ r6: .cfa -16 + ^ r7: .cfa -12 + ^ r8: .cfa -8 + ^
STACK CFI INIT d4ea0 30 .cfa: sp 0 + .ra: lr
STACK CFI d4ea4 .cfa: sp 16 +
STACK CFI d4ea8 .cfa: sp 20 +
STACK CFI d4eac .cfa: sp 32 +
STACK CFI d4eb0 .ra: .cfa -20 + ^ r0: .cfa -16 + ^ r1: .cfa -12 + ^ r2: .cfa -8 + ^ r3: .cfa -4 + ^
STACK CFI INIT d4ed0 30 .cfa: sp 0 + .ra: lr
STACK CFI d4ed4 .cfa: sp 16 +
STACK CFI d4ed8 .cfa: sp 20 +
STACK CFI d4edc .cfa: sp 32 +
STACK CFI d4ee0 .ra: .cfa -20 + ^ r0: .cfa -16 + ^ r1: .cfa -12 + ^ r2: .cfa -8 + ^ r3: .cfa -4 + ^
STACK CFI INIT d4f00 1c .cfa: sp 0 + .ra: lr
STACK CFI d4f04 .cfa: sp 8 +
STACK CFI d4f08 .ra: .cfa -4 + ^ r4: .cfa -8 + ^
STACK CFI INIT d4f1c 1c .cfa: sp 0 + .ra: lr
STACK CFI d4f20 .cfa: sp 8 +
STACK CFI d4f24 .ra: .cfa -4 + ^ r4: .cfa -8 + ^
STACK CFI INIT d4f38 20 .cfa: sp 0 + .ra: lr
STACK CFI d4f3c .cfa: sp 12 +
STACK CFI d4f40 .cfa: sp 16 +
STACK CFI d4f44 .cfa: sp 24 +
STACK CFI d4f48 .ra: .cfa -16 + ^ r1: .cfa -12 + ^ r2: .cfa -8 + ^ r3: .cfa -4 + ^
STACK CFI INIT d4f58 20 .cfa: sp 0 + .ra: lr
STACK CFI d4f5c .cfa: sp 12 +
STACK CFI d4f60 .cfa: sp 16 +
STACK CFI d4f64 .cfa: sp 24 +
STACK CFI d4f68 .ra: .cfa -16 + ^ r1: .cfa -12 + ^ r2: .cfa -8 + ^ r3: .cfa -4 + ^
STACK CFI INIT d4f78 3c .cfa: sp 0 + .ra: lr
STACK CFI d4f7c .cfa: sp 4 +
STACK CFI d4f80 .cfa: sp 1028 +
STACK CFI d4f84 .cfa: sp 1032 +
STACK CFI d4f8c .ra: .cfa -4 + ^
STACK CFI INIT d4fb4 1ec .cfa: sp 0 + .ra: lr
STACK CFI d4fb8 .cfa: sp 36 +
STACK CFI d4fbc .ra: .cfa -4 + ^ r10: .cfa -12 + ^ r11: .cfa -8 + ^ r4: .cfa -36 + ^ r5: .cfa -32 + ^ r6: .cfa -28 + ^ r7: .cfa -24 + ^ r8: .cfa -20 + ^ r9: .cfa -16 + ^
STACK CFI d4fc0 .cfa: r11 4 +
STACK CFI INIT d51a0 10c .cfa: sp 0 + .ra: lr
STACK CFI d51a4 .cfa: sp 8 +
STACK CFI d51a8 .cfa: sp 24 +
STACK CFI d51ac .ra: .cfa -12 + ^ r2: .cfa -8 + ^ r3: .cfa -4 + ^ r4: .cfa -24 + ^ r5: .cfa -20 + ^ r6: .cfa -16 + ^
STACK CFI d51b8 .cfa: sp 32 +
STACK CFI INIT d52ac 1a0 .cfa: sp 0 + .ra: lr
STACK CFI d52b0 .cfa: sp 24 +
STACK CFI d52b4 .ra: .cfa -4 + ^ r4: .cfa -24 + ^ r5: .cfa -20 + ^ r6: .cfa -16 + ^ r7: .cfa -12 + ^ r8: .cfa -8 + ^
STACK CFI d52cc .cfa: sp 32 +
STACK CFI INIT d544c 7c .cfa: sp 0 + .ra: lr
STACK CFI d5450 .cfa: sp 16 +
STACK CFI d5458 .ra: .cfa -4 + ^ r4: .cfa -16 + ^ r5: .cfa -12 + ^ r7: .cfa -8 + ^
STACK CFI INIT d54c8 ec .cfa: sp 0 + .ra: lr
STACK CFI d54cc .cfa: sp 12 +
STACK CFI d54d0 .cfa: sp 8204 +
STACK CFI d54d4 .cfa: sp 8216 +
STACK CFI d54d8 .ra: .cfa -4 + ^ r4: .cfa -12 + ^ r5: .cfa -8 + ^
STACK CFI INIT d55b4 2b8 .cfa: sp 0 + .ra: lr
STACK CFI d55b8 .cfa: sp 36 +
STACK CFI d55bc .ra: .cfa -4 + ^ r10: .cfa -12 + ^ r11: .cfa -8 + ^ r4: .cfa -36 + ^ r5: .cfa -32 + ^ r6: .cfa -28 + ^ r7: .cfa -24 + ^ r8: .cfa -20 + ^ r9: .cfa -16 + ^
STACK CFI d55c4 .cfa: sp 56 +
STACK CFI INIT d586c 16c .cfa: sp 0 + .ra: lr
STACK CFI d5870 .cfa: sp 32 +
STACK CFI d5874 .cfa: r11 4 + .ra: .cfa -4 + ^ r10: .cfa -12 + ^ r11: .cfa -8 + ^ r4: .cfa -32 + ^ r5: .cfa -28 + ^ r6: .cfa -24 + ^ r7: .cfa -20 + ^ r8: .cfa -16 + ^
STACK CFI INIT d59d8 c8 .cfa: sp 0 + .ra: lr
STACK CFI d59e0 .cfa: sp 20 +
STACK CFI d59e8 .cfa: sp 32 + .ra: .cfa -4 + ^ r4: .cfa -20 + ^ r5: .cfa -16 + ^ r6: .cfa -12 + ^ r7: .cfa -8 + ^
STACK CFI INIT d5aa0 10 .cfa: sp 0 + .ra: lr
STACK CFI INIT d5ab0 10 .cfa: sp 0 + .ra: lr
STACK CFI INIT d5ac0 164 .cfa: sp 0 + .ra: lr
STACK CFI d5ac4 .cfa: sp 8 +
STACK CFI d5ac8 .ra: .cfa -4 + ^ r4: .cfa -8 + ^
STACK CFI INIT d5c24 180 .cfa: sp 0 + .ra: lr
STACK CFI d5c28 .cfa: sp 28 +
STACK CFI d5c2c .ra: .cfa -4 + ^ r10: .cfa -8 + ^ r4: .cfa -28 + ^ r5: .cfa -24 + ^ r6: .cfa -20 + ^ r7: .cfa -16 + ^ r8: .cfa -12 + ^
STACK CFI d5c38 .cfa: sp 104 +
STACK CFI INIT d5da4 28 .cfa: sp 0 + .ra: lr
STACK CFI INIT d5dd0 1c .cfa: sp 0 + .ra: lr
STACK CFI d5dd4 r7: r12
STACK CFI d5de0 r7: r7
STACK CFI INIT d5df0 1c .cfa: sp 0 + .ra: lr
STACK CFI d5df4 r7: r12
STACK CFI d5e00 r7: r7
STACK CFI INIT d5e10 1c .cfa: sp 0 + .ra: lr
STACK CFI d5e14 r7: r12
STACK CFI d5e20 r7: r7
STACK CFI INIT d5e30 28 .cfa: sp 0 + .ra: lr
STACK CFI d5e34 .cfa: sp 4 + r4: .cfa -4 + ^
STACK CFI d5e3c r7: r12
STACK CFI d5e48 r7: r7
STACK CFI d5e4c .cfa: sp 0 + r4: r4
STACK CFI INIT d5e60 1c .cfa: sp 0 + .ra: lr
STACK CFI d5e64 r7: r12
STACK CFI d5e70 r7: r7
STACK CFI INIT d5e80 1c .cfa: sp 0 + .ra: lr
STACK CFI d5e84 r7: r12
STACK CFI d5e90 r7: r7
STACK CFI INIT d5ea0 1c .cfa: sp 0 + .ra: lr
STACK CFI d5ea4 r7: r12
STACK CFI d5eb0 r7: r7
STACK CFI INIT d5ec0 1c .cfa: sp 0 + .ra: lr
STACK CFI d5ec4 r7: r12
STACK CFI d5ed0 r7: r7
STACK CFI INIT d5ee0 1c .cfa: sp 0 + .ra: lr
STACK CFI d5ee4 r7: r12
STACK CFI d5ef0 r7: r7
STACK CFI INIT d5f00 28 .cfa: sp 0 + .ra: lr
STACK CFI d5f04 .cfa: sp 4 + r4: .cfa -4 + ^
STACK CFI d5f0c r7: r12
STACK CFI d5f18 r7: r7
STACK CFI d5f1c .cfa: sp 0 + r4: r4
STACK CFI INIT d5f30 1c .cfa: sp 0 + .ra: lr
STACK CFI d5f34 r7: r12
STACK CFI d5f40 r7: r7
STACK CFI INIT d5f50 28 .cfa: sp 0 + .ra: lr
STACK CFI d5f54 .cfa: sp 4 + r4: .cfa -4 + ^
STACK CFI d5f5c r7: r12
STACK CFI d5f68 r7: r7
STACK CFI d5f6c .cfa: sp 0 + r4: r4
STACK CFI INIT d5f80 80 .cfa: sp 0 + .ra: lr
STACK CFI d5f84 .cfa: sp 12 +
STACK CFI d5f8c .cfa: sp 32 +
STACK CFI d5f90 .ra: .cfa -4 + ^ r4: .cfa -12 + ^ r5: .cfa -8 + ^
STACK CFI INIT d6000 78 .cfa: sp 0 + .ra: lr
STACK CFI d6004 .cfa: sp 12 +
STACK CFI d600c .cfa: sp 32 +
STACK CFI d6010 .ra: .cfa -4 + ^ r4: .cfa -12 + ^ r5: .cfa -8 + ^
STACK CFI INIT 116ea4 14 .cfa: sp 0 + .ra: lr
STACK CFI INIT d6078 98 .cfa: sp 0 + .ra: lr
STACK CFI d607c .cfa: sp 16 +
STACK CFI d6080 .ra: .cfa -4 + ^ r3: .cfa -16 + ^ r4: .cfa -12 + ^ r5: .cfa -8 + ^
STACK CFI INIT d6110 f8 .cfa: sp 0 + .ra: lr
STACK CFI d6114 .cfa: sp 24 +
STACK CFI d6118 .ra: .cfa -4 + ^ r3: .cfa -24 + ^ r4: .cfa -20 + ^ r5: .cfa -16 + ^ r6: .cfa -12 + ^ r7: .cfa -8 + ^
STACK CFI INIT d6208 18 .cfa: sp 0 + .ra: lr
STACK CFI d620c .cfa: sp 8 +
STACK CFI d6210 .ra: .cfa -4 + ^ r3: .cfa -8 + ^
STACK CFI INIT d6220 44 .cfa: sp 0 + .ra: lr
STACK CFI d6224 .cfa: sp 8 +
STACK CFI d6228 .ra: .cfa -4 + ^ r4: .cfa -8 + ^
STACK CFI INIT d6264 64 .cfa: sp 0 + .ra: lr
STACK CFI d6268 .cfa: sp 16 +
STACK CFI d626c .ra: .cfa -4 + ^ r4: .cfa -16 + ^ r5: .cfa -12 + ^ r6: .cfa -8 + ^
STACK CFI INIT d62c8 64 .cfa: sp 0 + .ra: lr
STACK CFI d62cc .cfa: sp 16 +
STACK CFI d62d0 .ra: .cfa -4 + ^ r4: .cfa -16 + ^ r5: .cfa -12 + ^ r6: .cfa -8 + ^
STACK CFI INIT d632c 2c .cfa: sp 0 + .ra: lr
STACK CFI d6330 .cfa: sp 8 +
STACK CFI d6334 .ra: .cfa -4 + ^ r4: .cfa -8 + ^
STACK CFI INIT d6358 4c .cfa: sp 0 + .ra: lr
STACK CFI d6360 .cfa: sp 4 +
STACK CFI d6364 .ra: .cfa -4 + ^
STACK CFI INIT d63a4 4c .cfa: sp 0 + .ra: lr
STACK CFI d63ac .cfa: sp 4 +
STACK CFI d63b0 .ra: .cfa -4 + ^
STACK CFI INIT d63f0 24 .cfa: sp 0 + .ra: lr
STACK CFI d63f8 .cfa: sp 4 +
STACK CFI d6400 .ra: .cfa -4 + ^
STACK CFI INIT d6414 a8 .cfa: sp 0 + .ra: lr
STACK CFI d6418 .cfa: sp 32 +
STACK CFI d641c .ra: .cfa -4 + ^ r10: .cfa -8 + ^ r4: .cfa -32 + ^ r5: .cfa -28 + ^ r6: .cfa -24 + ^ r7: .cfa -20 + ^ r8: .cfa -16 + ^ r9: .cfa -12 + ^
STACK CFI d6420 .cfa: sp 48 +
STACK CFI INIT d64bc 38 .cfa: sp 0 + .ra: lr
STACK CFI d64c4 .cfa: sp 8 +
STACK CFI d64c8 .ra: .cfa -4 + ^ r4: .cfa -8 + ^
STACK CFI d64cc .cfa: sp 24 +
STACK CFI INIT d64f4 38 .cfa: sp 0 + .ra: lr
STACK CFI d64f8 .cfa: sp 8 +
STACK CFI d64fc .cfa: sp 16 +
STACK CFI d6508 .ra: .cfa -4 + ^ r4: .cfa -8 + ^
STACK CFI INIT d652c 4c8 .cfa: sp 0 + .ra: lr
STACK CFI d6530 .cfa: sp 36 +
STACK CFI d6534 .cfa: sp 72 +
STACK CFI d6538 .ra: .cfa -4 + ^ r10: .cfa -12 + ^ r11: .cfa -8 + ^ r4: .cfa -36 + ^ r5: .cfa -32 + ^ r6: .cfa -28 + ^ r7: .cfa -24 + ^ r8: .cfa -20 + ^ r9: .cfa -16 + ^
STACK CFI INIT d69f4 310 .cfa: sp 0 + .ra: lr
STACK CFI d69f8 .cfa: sp 36 +
STACK CFI d69fc .cfa: sp 88 +
STACK CFI d6a00 .ra: .cfa -4 + ^ r10: .cfa -12 + ^ r11: .cfa -8 + ^ r4: .cfa -36 + ^ r5: .cfa -32 + ^ r6: .cfa -28 + ^ r7: .cfa -24 + ^ r8: .cfa -20 + ^ r9: .cfa -16 + ^
STACK CFI INIT d6d04 ac .cfa: sp 0 + .ra: lr
STACK CFI d6d08 .cfa: sp 32 +
STACK CFI d6d0c .ra: .cfa -4 + ^ r10: .cfa -8 + ^ r4: .cfa -32 + ^ r5: .cfa -28 + ^ r6: .cfa -24 + ^ r7: .cfa -20 + ^ r8: .cfa -16 + ^ r9: .cfa -12 + ^
STACK CFI d6d10 .cfa: sp 48 +
STACK CFI INIT d6db0 38 .cfa: sp 0 + .ra: lr
STACK CFI d6db8 .cfa: sp 8 +
STACK CFI d6dbc .ra: .cfa -4 + ^ r4: .cfa -8 + ^
STACK CFI d6dc0 .cfa: sp 24 +
STACK CFI INIT d6de8 38 .cfa: sp 0 + .ra: lr
STACK CFI d6dec .cfa: sp 8 +
STACK CFI d6df0 .cfa: sp 16 +
STACK CFI d6dfc .ra: .cfa -4 + ^ r4: .cfa -8 + ^
STACK CFI INIT d6e20 4c8 .cfa: sp 0 + .ra: lr
STACK CFI d6e24 .cfa: sp 36 +
STACK CFI d6e28 .cfa: sp 72 +
STACK CFI d6e2c .ra: .cfa -4 + ^ r10: .cfa -12 + ^ r11: .cfa -8 + ^ r4: .cfa -36 + ^ r5: .cfa -32 + ^ r6: .cfa -28 + ^ r7: .cfa -24 + ^ r8: .cfa -20 + ^ r9: .cfa -16 + ^
STACK CFI INIT d72e8 310 .cfa: sp 0 + .ra: lr
STACK CFI d72ec .cfa: sp 36 +
STACK CFI d72f0 .cfa: sp 88 +
STACK CFI d72f4 .ra: .cfa -4 + ^ r10: .cfa -12 + ^ r11: .cfa -8 + ^ r4: .cfa -36 + ^ r5: .cfa -32 + ^ r6: .cfa -28 + ^ r7: .cfa -24 + ^ r8: .cfa -20 + ^ r9: .cfa -16 + ^
STACK CFI INIT d75f8 84 .cfa: sp 0 + .ra: lr
STACK CFI d75fc .cfa: sp 16 +
STACK CFI d7600 .ra: .cfa -4 + ^ r4: .cfa -16 + ^ r5: .cfa -12 + ^ r6: .cfa -8 + ^
STACK CFI INIT d767c 2ac .cfa: sp 0 + .ra: lr
STACK CFI d7680 .cfa: sp 20 +
STACK CFI d7684 .ra: .cfa -4 + ^ r4: .cfa -20 + ^ r5: .cfa -16 + ^ r6: .cfa -12 + ^ r7: .cfa -8 + ^
STACK CFI d768c .cfa: sp 296 +
STACK CFI INIT d7928 10c .cfa: sp 0 + .ra: lr
STACK CFI d7930 .cfa: sp 16 +
STACK CFI d793c .cfa: sp 32 +
STACK CFI d7944 .ra: .cfa -4 + ^ r4: .cfa -16 + ^ r5: .cfa -12 + ^ r6: .cfa -8 + ^
STACK CFI INIT d7a34 48 .cfa: sp 0 + .ra: lr
STACK CFI d7a3c .cfa: sp 4 +
STACK CFI d7a40 .ra: .cfa -4 + ^
STACK CFI INIT d7a7c 20 .cfa: sp 0 + .ra: lr
STACK CFI INIT d7a9c 20 .cfa: sp 0 + .ra: lr
STACK CFI INIT d7abc 20 .cfa: sp 0 + .ra: lr
STACK CFI INIT d7adc 20 .cfa: sp 0 + .ra: lr
STACK CFI INIT d7afc 20 .cfa: sp 0 + .ra: lr
STACK CFI INIT d7b1c 20 .cfa: sp 0 + .ra: lr
STACK CFI INIT d7b3c 88 .cfa: sp 0 + .ra: lr
STACK CFI d7b40 .cfa: sp 16 +
STACK CFI d7b48 .cfa: sp 56 +
STACK CFI d7b4c .ra: .cfa -4 + ^ r4: .cfa -16 + ^ r5: .cfa -12 + ^ r7: .cfa -8 + ^
STACK CFI INIT d7bd0 38 .cfa: sp 0 + .ra: lr
STACK CFI d7bf4 .cfa: sp 8 + r4: .cfa -8 + ^ r7: .cfa -4 + ^
STACK CFI INIT d7c1c 40 .cfa: sp 0 + .ra: lr
STACK CFI INIT d7c60 68 .cfa: sp 0 + .ra: lr
STACK CFI d7c64 .cfa: sp 12 +
STACK CFI d7c68 .cfa: sp 24 +
STACK CFI d7c70 .ra: .cfa -4 + ^ r4: .cfa -12 + ^ r7: .cfa -8 + ^
STACK CFI INIT d7cc8 8 .cfa: sp 0 + .ra: lr
STACK CFI INIT d7cd0 1c .cfa: sp 0 + .ra: lr
STACK CFI d7cd4 r7: r12
STACK CFI d7ce0 r7: r7
STACK CFI INIT d7cf0 48 .cfa: sp 0 + .ra: lr
STACK CFI d7cf4 .cfa: sp 12 +
STACK CFI d7cfc .ra: .cfa -4 + ^ r4: .cfa -12 + ^ r7: .cfa -8 + ^
STACK CFI INIT d7d38 14 .cfa: sp 0 + .ra: lr
STACK CFI d7d3c .cfa: sp 4 +
STACK CFI d7d40 r7: .cfa -4 + ^
STACK CFI INIT d7d4c 14 .cfa: sp 0 + .ra: lr
STACK CFI d7d50 .cfa: sp 4 +
STACK CFI d7d54 r7: .cfa -4 + ^
STACK CFI INIT d7d60 14 .cfa: sp 0 + .ra: lr
STACK CFI INIT d7d74 18 .cfa: sp 0 + .ra: lr
STACK CFI INIT d7d8c 54 .cfa: sp 0 + .ra: lr
STACK CFI d7d90 .cfa: sp 16 +
STACK CFI d7d94 r4: .cfa -16 + ^ r5: .cfa -12 + ^ r6: .cfa -8 + ^ r7: .cfa -4 + ^
STACK CFI INIT d7de0 dc .cfa: sp 0 + .ra: lr
STACK CFI d7de4 .cfa: sp 28 +
STACK CFI d7de8 .ra: .cfa -4 + ^ r10: .cfa -8 + ^ r4: .cfa -28 + ^ r5: .cfa -24 + ^ r6: .cfa -20 + ^ r7: .cfa -16 + ^ r8: .cfa -12 + ^
STACK CFI d7dec .cfa: sp 40 +
STACK CFI INIT d7ebc a8 .cfa: sp 0 + .ra: lr
STACK CFI d7ec0 .cfa: sp 20 +
STACK CFI d7ec4 .ra: .cfa -4 + ^ r4: .cfa -20 + ^ r5: .cfa -16 + ^ r6: .cfa -12 + ^ r7: .cfa -8 + ^
STACK CFI INIT d7f64 9c .cfa: sp 0 + .ra: lr
STACK CFI d7f68 .cfa: sp 12 +
STACK CFI d7f74 .ra: .cfa -4 + ^ r4: .cfa -12 + ^ r7: .cfa -8 + ^
STACK CFI INIT d8000 1c .cfa: sp 0 + .ra: lr
STACK CFI d8004 .cfa: sp 8 +
STACK CFI d8008 .ra: .cfa -4 + ^ r3: .cfa -8 + ^
STACK CFI INIT d801c 30 .cfa: sp 0 + .ra: lr
STACK CFI d8020 .cfa: sp 4 +
STACK CFI d8024 .cfa: sp 16 +
STACK CFI d8034 .ra: .cfa -4 + ^
STACK CFI INIT d8050 1c .cfa: sp 0 + .ra: lr
STACK CFI d8054 r7: r12
STACK CFI d8060 r7: r7
STACK CFI INIT d8070 1c .cfa: sp 0 + .ra: lr
STACK CFI d8074 r7: r12
STACK CFI d8080 r7: r7
STACK CFI INIT d8090 1c .cfa: sp 0 + .ra: lr
STACK CFI d8094 r7: r12
STACK CFI d80a0 r7: r7
STACK CFI INIT d80b0 1c .cfa: sp 0 + .ra: lr
STACK CFI d80b4 r7: r12
STACK CFI d80c0 r7: r7
STACK CFI INIT d80d0 1c .cfa: sp 0 + .ra: lr
STACK CFI d80d4 r7: r12
STACK CFI d80e0 r7: r7
STACK CFI INIT d80f0 1c .cfa: sp 0 + .ra: lr
STACK CFI d80f4 r7: r12
STACK CFI d8100 r7: r7
STACK CFI INIT d8110 1c .cfa: sp 0 + .ra: lr
STACK CFI d8114 r7: r12
STACK CFI d8120 r7: r7
STACK CFI INIT d8130 1c .cfa: sp 0 + .ra: lr
STACK CFI d8134 r7: r12
STACK CFI d8140 r7: r7
STACK CFI INIT d8154 18 .cfa: sp 0 + .ra: lr
STACK CFI d8158 r7: r12
STACK CFI d8164 r7: r7
STACK CFI INIT d8170 64 .cfa: sp 0 + .ra: lr
STACK CFI d8184 r7: r12
STACK CFI d8190 r7: r7
STACK CFI d819c r7: r7
STACK CFI d81a0 .cfa: sp 24 + .ra: .cfa -4 + ^ r7: .cfa -8 + ^
STACK CFI d81ac .cfa: sp 8 +
STACK CFI d81c8 .cfa: sp 0 + .ra: .ra r7: r7
STACK CFI INIT d81e0 28 .cfa: sp 0 + .ra: lr
STACK CFI d81e4 .cfa: sp 4 + r4: .cfa -4 + ^
STACK CFI d81ec r7: r12
STACK CFI d81f8 r7: r7
STACK CFI d81fc .cfa: sp 0 + r4: r4
STACK CFI INIT d8210 1c .cfa: sp 0 + .ra: lr
STACK CFI d8214 r7: r12
STACK CFI d8220 r7: r7
STACK CFI INIT d8230 1c .cfa: sp 0 + .ra: lr
STACK CFI d8234 r7: r12
STACK CFI d8240 r7: r7
STACK CFI INIT d8250 1c .cfa: sp 0 + .ra: lr
STACK CFI d8254 r7: r12
STACK CFI d8260 r7: r7
STACK CFI INIT d8270 1c .cfa: sp 0 + .ra: lr
STACK CFI d8274 r7: r12
STACK CFI d8280 r7: r7
STACK CFI INIT d8290 1c .cfa: sp 0 + .ra: lr
STACK CFI d8294 r7: r12
STACK CFI d82a0 r7: r7
STACK CFI INIT d82b0 28 .cfa: sp 0 + .ra: lr
STACK CFI d82b4 .cfa: sp 4 + r4: .cfa -4 + ^
STACK CFI d82bc r7: r12
STACK CFI d82c8 r7: r7
STACK CFI d82cc .cfa: sp 0 + r4: r4
STACK CFI INIT d82e0 28 .cfa: sp 0 + .ra: lr
STACK CFI d82e4 .cfa: sp 4 + r4: .cfa -4 + ^
STACK CFI d82ec r7: r12
STACK CFI d82f8 r7: r7
STACK CFI d82fc .cfa: sp 0 + r4: r4
STACK CFI INIT d8310 1c .cfa: sp 0 + .ra: lr
STACK CFI d8314 r7: r12
STACK CFI d8320 r7: r7
STACK CFI INIT d8330 1c .cfa: sp 0 + .ra: lr
STACK CFI d8334 r7: r12
STACK CFI d8340 r7: r7
STACK CFI INIT d8350 1c .cfa: sp 0 + .ra: lr
STACK CFI d8354 r7: r12
STACK CFI d8360 r7: r7
STACK CFI INIT d8370 28 .cfa: sp 0 + .ra: lr
STACK CFI d8374 .cfa: sp 4 + r4: .cfa -4 + ^
STACK CFI d837c r7: r12
STACK CFI d8388 r7: r7
STACK CFI d838c .cfa: sp 0 + r4: r4
STACK CFI INIT d83a0 1c .cfa: sp 0 + .ra: lr
STACK CFI d83a4 r7: r12
STACK CFI d83b0 r7: r7
STACK CFI INIT d83c4 28 .cfa: sp 0 + .ra: lr
STACK CFI d83cc .cfa: sp 8 + r4: .cfa -8 + ^ r5: .cfa -4 + ^
STACK CFI d83d4 r7: r12
STACK CFI d83e0 r7: r7
STACK CFI d83e4 .cfa: sp 0 + r4: r4 r5: r5
STACK CFI INIT d83f0 78 .cfa: sp 0 + .ra: lr
STACK CFI d8404 .cfa: sp 8 + r4: .cfa -8 + ^ r5: .cfa -4 + ^
STACK CFI d8410 r7: r12
STACK CFI d841c r7: r7
STACK CFI d8420 .cfa: sp 0 + r4: r4 r5: r5
STACK CFI d842c .cfa: sp 8 + r4: .cfa -8 + ^ r5: .cfa -4 + ^ r7: r7
STACK CFI d8430 .cfa: sp 32 + .ra: .cfa -12 + ^ r7: .cfa -16 + ^
STACK CFI d843c .cfa: sp 16 +
STACK CFI d8458 .cfa: sp 8 + .ra: .ra r7: r7
STACK CFI d845c .cfa: sp 0 + r4: r4 r5: r5
STACK CFI INIT d8470 1c .cfa: sp 0 + .ra: lr
STACK CFI d8474 r7: r12
STACK CFI d8480 r7: r7
STACK CFI INIT d8494 18 .cfa: sp 0 + .ra: lr
STACK CFI d8498 r7: r12
STACK CFI d84a4 r7: r7
STACK CFI INIT d84b0 64 .cfa: sp 0 + .ra: lr
STACK CFI d84c4 r7: r12
STACK CFI d84d0 r7: r7
STACK CFI d84dc r7: r7
STACK CFI d84e0 .cfa: sp 24 + .ra: .cfa -4 + ^ r7: .cfa -8 + ^
STACK CFI d84ec .cfa: sp 8 +
STACK CFI d8508 .cfa: sp 0 + .ra: .ra r7: r7
STACK CFI INIT d8520 1c .cfa: sp 0 + .ra: lr
STACK CFI d8524 r7: r12
STACK CFI d8530 r7: r7
STACK CFI INIT d8540 1c .cfa: sp 0 + .ra: lr
STACK CFI d8544 r7: r12
STACK CFI d8550 r7: r7
STACK CFI INIT d8564 18 .cfa: sp 0 + .ra: lr
STACK CFI d8568 r7: r12
STACK CFI d8574 r7: r7
STACK CFI INIT d8580 64 .cfa: sp 0 + .ra: lr
STACK CFI d8594 r7: r12
STACK CFI d85a0 r7: r7
STACK CFI d85ac r7: r7
STACK CFI d85b0 .cfa: sp 24 + .ra: .cfa -4 + ^ r7: .cfa -8 + ^
STACK CFI d85bc .cfa: sp 8 +
STACK CFI d85d8 .cfa: sp 0 + .ra: .ra r7: r7
STACK CFI INIT d85f0 1c .cfa: sp 0 + .ra: lr
STACK CFI d85f4 r7: r12
STACK CFI d8600 r7: r7
STACK CFI INIT d8610 1c .cfa: sp 0 + .ra: lr
STACK CFI d8614 r7: r12
STACK CFI d8620 r7: r7
STACK CFI INIT d8630 1c .cfa: sp 0 + .ra: lr
STACK CFI d8634 r7: r12
STACK CFI d8640 r7: r7
STACK CFI INIT d8650 24 .cfa: sp 0 + .ra: lr
STACK CFI d8658 .cfa: sp 4 +
STACK CFI d8660 .ra: .cfa -4 + ^
STACK CFI INIT d8684 18 .cfa: sp 0 + .ra: lr
STACK CFI d8688 r7: r12
STACK CFI d8694 r7: r7
STACK CFI INIT d86a0 64 .cfa: sp 0 + .ra: lr
STACK CFI d86b4 r7: r12
STACK CFI d86c0 r7: r7
STACK CFI d86cc r7: r7
STACK CFI d86d0 .cfa: sp 24 + .ra: .cfa -4 + ^ r7: .cfa -8 + ^
STACK CFI d86dc .cfa: sp 8 +
STACK CFI d86f8 .cfa: sp 0 + .ra: .ra r7: r7
STACK CFI INIT d8710 1c .cfa: sp 0 + .ra: lr
STACK CFI d8714 r7: r12
STACK CFI d8720 r7: r7
STACK CFI INIT d8734 18 .cfa: sp 0 + .ra: lr
STACK CFI d8738 r7: r12
STACK CFI d8744 r7: r7
STACK CFI INIT d8750 64 .cfa: sp 0 + .ra: lr
STACK CFI d8764 r7: r12
STACK CFI d8770 r7: r7
STACK CFI d877c r7: r7
STACK CFI d8780 .cfa: sp 24 + .ra: .cfa -4 + ^ r7: .cfa -8 + ^
STACK CFI d878c .cfa: sp 8 +
STACK CFI d87a8 .cfa: sp 0 + .ra: .ra r7: r7
STACK CFI INIT d87c0 1c .cfa: sp 0 + .ra: lr
STACK CFI d87c4 r7: r12
STACK CFI d87d0 r7: r7
STACK CFI INIT d87e0 1c .cfa: sp 0 + .ra: lr
STACK CFI d87e4 r7: r12
STACK CFI d87f0 r7: r7
STACK CFI INIT d8800 28 .cfa: sp 0 + .ra: lr
STACK CFI d8804 .cfa: sp 4 + r4: .cfa -4 + ^
STACK CFI d880c r7: r12
STACK CFI d8818 r7: r7
STACK CFI d881c .cfa: sp 0 + r4: r4
STACK CFI INIT d8830 1c .cfa: sp 0 + .ra: lr
STACK CFI d8834 r7: r12
STACK CFI d8840 r7: r7
STACK CFI INIT d8854 18 .cfa: sp 0 + .ra: lr
STACK CFI d8858 r7: r12
STACK CFI d8864 r7: r7
STACK CFI INIT d8870 64 .cfa: sp 0 + .ra: lr
STACK CFI d8884 r7: r12
STACK CFI d8890 r7: r7
STACK CFI d889c r7: r7
STACK CFI d88a0 .cfa: sp 24 + .ra: .cfa -4 + ^ r7: .cfa -8 + ^
STACK CFI d88ac .cfa: sp 8 +
STACK CFI d88c8 .cfa: sp 0 + .ra: .ra r7: r7
STACK CFI INIT d88e4 28 .cfa: sp 0 + .ra: lr
STACK CFI d88ec .cfa: sp 8 + r4: .cfa -8 + ^ r5: .cfa -4 + ^
STACK CFI d88f4 r7: r12
STACK CFI d8900 r7: r7
STACK CFI d8904 .cfa: sp 0 + r4: r4 r5: r5
STACK CFI INIT d8910 78 .cfa: sp 0 + .ra: lr
STACK CFI d8924 .cfa: sp 8 + r4: .cfa -8 + ^ r5: .cfa -4 + ^
STACK CFI d8930 r7: r12
STACK CFI d893c r7: r7
STACK CFI d8940 .cfa: sp 0 + r4: r4 r5: r5
STACK CFI d894c .cfa: sp 8 + r4: .cfa -8 + ^ r5: .cfa -4 + ^ r7: r7
STACK CFI d8950 .cfa: sp 32 + .ra: .cfa -12 + ^ r7: .cfa -16 + ^
STACK CFI d895c .cfa: sp 16 +
STACK CFI d8978 .cfa: sp 8 + .ra: .ra r7: r7
STACK CFI d897c .cfa: sp 0 + r4: r4 r5: r5
STACK CFI INIT d8994 18 .cfa: sp 0 + .ra: lr
STACK CFI d8998 r7: r12
STACK CFI d89a4 r7: r7
STACK CFI INIT d89b0 64 .cfa: sp 0 + .ra: lr
STACK CFI d89c4 r7: r12
STACK CFI d89d0 r7: r7
STACK CFI d89dc r7: r7
STACK CFI d89e0 .cfa: sp 24 + .ra: .cfa -4 + ^ r7: .cfa -8 + ^
STACK CFI d89ec .cfa: sp 8 +
STACK CFI d8a08 .cfa: sp 0 + .ra: .ra r7: r7
STACK CFI INIT d8a24 18 .cfa: sp 0 + .ra: lr
STACK CFI d8a28 r7: r12
STACK CFI d8a34 r7: r7
STACK CFI INIT d8a40 64 .cfa: sp 0 + .ra: lr
STACK CFI d8a54 r7: r12
STACK CFI d8a60 r7: r7
STACK CFI d8a6c r7: r7
STACK CFI d8a70 .cfa: sp 24 + .ra: .cfa -4 + ^ r7: .cfa -8 + ^
STACK CFI d8a7c .cfa: sp 8 +
STACK CFI d8a98 .cfa: sp 0 + .ra: .ra r7: r7
STACK CFI INIT d8ab4 18 .cfa: sp 0 + .ra: lr
STACK CFI d8ab8 r7: r12
STACK CFI d8ac4 r7: r7
STACK CFI INIT d8ad0 64 .cfa: sp 0 + .ra: lr
STACK CFI d8ae4 r7: r12
STACK CFI d8af0 r7: r7
STACK CFI d8afc r7: r7
STACK CFI d8b00 .cfa: sp 24 + .ra: .cfa -4 + ^ r7: .cfa -8 + ^
STACK CFI d8b0c .cfa: sp 8 +
STACK CFI d8b28 .cfa: sp 0 + .ra: .ra r7: r7
STACK CFI INIT d8b44 28 .cfa: sp 0 + .ra: lr
STACK CFI d8b4c .cfa: sp 8 + r4: .cfa -8 + ^ r5: .cfa -4 + ^
STACK CFI d8b54 r7: r12
STACK CFI d8b60 r7: r7
STACK CFI d8b64 .cfa: sp 0 + r4: r4 r5: r5
STACK CFI INIT d8b70 78 .cfa: sp 0 + .ra: lr
STACK CFI d8b84 .cfa: sp 8 + r4: .cfa -8 + ^ r5: .cfa -4 + ^
STACK CFI d8b90 r7: r12
STACK CFI d8b9c r7: r7
STACK CFI d8ba0 .cfa: sp 0 + r4: r4 r5: r5
STACK CFI d8bac .cfa: sp 8 + r4: .cfa -8 + ^ r5: .cfa -4 + ^ r7: r7
STACK CFI d8bb0 .cfa: sp 32 + .ra: .cfa -12 + ^ r7: .cfa -16 + ^
STACK CFI d8bbc .cfa: sp 16 +
STACK CFI d8bd8 .cfa: sp 8 + .ra: .ra r7: r7
STACK CFI d8bdc .cfa: sp 0 + r4: r4 r5: r5
STACK CFI INIT d8bf0 28 .cfa: sp 0 + .ra: lr
STACK CFI d8bf4 .cfa: sp 4 + r4: .cfa -4 + ^
STACK CFI d8bfc r7: r12
STACK CFI d8c08 r7: r7
STACK CFI d8c0c .cfa: sp 0 + r4: r4
STACK CFI INIT d8c20 1c .cfa: sp 0 + .ra: lr
STACK CFI d8c24 r7: r12
STACK CFI d8c30 r7: r7
STACK CFI INIT d8c40 1c .cfa: sp 0 + .ra: lr
STACK CFI d8c44 r7: r12
STACK CFI d8c50 r7: r7
STACK CFI INIT d8c60 1c .cfa: sp 0 + .ra: lr
STACK CFI d8c64 r7: r12
STACK CFI d8c70 r7: r7
STACK CFI INIT d8c80 6c .cfa: sp 0 + .ra: lr
STACK CFI d8c84 .cfa: sp 16 +
STACK CFI d8c8c .ra: .cfa -4 + ^ r4: .cfa -16 + ^ r5: .cfa -12 + ^ r6: .cfa -8 + ^
STACK CFI d8c98 .cfa: sp 120 +
STACK CFI INIT d8cec cc0 .cfa: sp 0 + .ra: lr
STACK CFI d8cf4 .cfa: sp 24 +
STACK CFI d8d00 .ra: .cfa -4 + ^ r4: .cfa -24 + ^ r5: .cfa -20 + ^ r6: .cfa -16 + ^ r7: .cfa -12 + ^ r8: .cfa -8 + ^
STACK CFI d8d08 .cfa: sp 48 +
STACK CFI INIT d99ac 28 .cfa: sp 0 + .ra: lr
STACK CFI d99b0 .cfa: sp 4 +
STACK CFI d99b4 .cfa: sp 16 +
STACK CFI d99bc .ra: .cfa -4 + ^
STACK CFI INIT d99d4 24 .cfa: sp 0 + .ra: lr
STACK CFI d99dc .cfa: sp 4 +
STACK CFI d99e4 .ra: .cfa -4 + ^
STACK CFI INIT d99f8 5c .cfa: sp 0 + .ra: lr
STACK CFI INIT d9a54 30 .cfa: sp 0 + .ra: lr
STACK CFI INIT d9a84 40 .cfa: sp 0 + .ra: lr
STACK CFI d9a88 .cfa: sp 8 +
STACK CFI d9a90 .cfa: sp 112 +
STACK CFI d9a94 .ra: .cfa -4 + ^ r4: .cfa -8 + ^
STACK CFI INIT d9ad4 18 .cfa: sp 0 + .ra: lr
STACK CFI d9ad8 r7: r12
STACK CFI d9ae4 r7: r7
STACK CFI INIT d9af0 64 .cfa: sp 0 + .ra: lr
STACK CFI d9b04 r7: r12
STACK CFI d9b10 r7: r7
STACK CFI d9b1c r7: r7
STACK CFI d9b20 .cfa: sp 24 + .ra: .cfa -4 + ^ r7: .cfa -8 + ^
STACK CFI d9b2c .cfa: sp 8 +
STACK CFI d9b48 .cfa: sp 0 + .ra: .ra r7: r7
STACK CFI INIT d9b64 24 .cfa: sp 0 + .ra: lr
STACK CFI d9b68 .cfa: sp 4 + r4: .cfa -4 + ^
STACK CFI d9b70 r7: r12
STACK CFI d9b7c r7: r7
STACK CFI d9b80 .cfa: sp 0 + r4: r4
STACK CFI INIT d9b90 74 .cfa: sp 0 + .ra: lr
STACK CFI d9ba0 .cfa: sp 4 + r4: .cfa -4 + ^
STACK CFI d9bac r7: r12
STACK CFI d9bb8 r7: r7
STACK CFI d9bbc .cfa: sp 0 + r4: r4
STACK CFI d9bc8 .cfa: sp 4 + r4: .cfa -4 + ^ r7: r7
STACK CFI d9bcc .cfa: sp 32 + .ra: .cfa -8 + ^ r7: .cfa -12 + ^
STACK CFI d9bd8 .cfa: sp 16 +
STACK CFI d9bf4 .cfa: sp 4 + .ra: .ra r7: r7
STACK CFI d9bf8 .cfa: sp 0 + r4: r4
STACK CFI INIT d9c10 1c .cfa: sp 0 + .ra: lr
STACK CFI d9c14 r7: r12
STACK CFI d9c20 r7: r7
STACK CFI INIT d9c30 44 .cfa: sp 0 + .ra: lr
STACK CFI d9c34 .cfa: sp 8 +
STACK CFI d9c3c .ra: .cfa -4 + ^ r7: .cfa -8 + ^
STACK CFI INIT d9c80 1c .cfa: sp 0 + .ra: lr
STACK CFI d9c84 r7: r12
STACK CFI d9c90 r7: r7
STACK CFI INIT d9ca0 1c .cfa: sp 0 + .ra: lr
STACK CFI d9ca4 r7: r12
STACK CFI d9cb0 r7: r7
STACK CFI INIT d9cc0 68 .cfa: sp 0 + .ra: lr
STACK CFI d9cc4 .cfa: sp 8 +
STACK CFI d9cc8 .cfa: sp 16 +
STACK CFI d9ccc .cfa: sp 24 +
STACK CFI d9cd0 .ra: .cfa -12 + ^ r2: .cfa -8 + ^ r3: .cfa -4 + ^ r7: .cfa -16 + ^
STACK CFI INIT d9d30 1c .cfa: sp 0 + .ra: lr
STACK CFI d9d34 r7: r12
STACK CFI d9d40 r7: r7
STACK CFI INIT d9d50 1c .cfa: sp 0 + .ra: lr
STACK CFI d9d54 r7: r12
STACK CFI d9d60 r7: r7
STACK CFI INIT d9d70 1c .cfa: sp 0 + .ra: lr
STACK CFI d9d74 r7: r12
STACK CFI d9d80 r7: r7
STACK CFI INIT d9d90 1c .cfa: sp 0 + .ra: lr
STACK CFI d9d94 r7: r12
STACK CFI d9da0 r7: r7
STACK CFI INIT d9db0 44 .cfa: sp 0 + .ra: lr
STACK CFI d9db4 .cfa: sp 8 +
STACK CFI d9dbc .ra: .cfa -4 + ^ r7: .cfa -8 + ^
STACK CFI INIT d9df4 53c .cfa: sp 0 + .ra: lr
STACK CFI d9dfc .cfa: sp 36 +
STACK CFI d9e00 .cfa: r11 4 + .ra: .cfa -4 + ^ r10: .cfa -12 + ^ r11: .cfa -8 + ^ r4: .cfa -36 + ^ r5: .cfa -32 + ^ r6: .cfa -28 + ^ r7: .cfa -24 + ^ r8: .cfa -20 + ^ r9: .cfa -16 + ^
STACK CFI INIT da330 64 .cfa: sp 0 + .ra: lr
STACK CFI da334 .cfa: sp 8 +
STACK CFI da338 .ra: .cfa -4 + ^ r4: .cfa -8 + ^
STACK CFI INIT da394 1b4 .cfa: sp 0 + .ra: lr
STACK CFI da3a4 .cfa: sp 24 +
STACK CFI da3a8 .ra: .cfa -4 + ^ r4: .cfa -24 + ^ r5: .cfa -20 + ^ r6: .cfa -16 + ^ r7: .cfa -12 + ^ r8: .cfa -8 + ^
STACK CFI INIT da548 3c .cfa: sp 0 + .ra: lr
STACK CFI da550 .cfa: sp 8 +
STACK CFI da558 .ra: .cfa -4 + ^ r4: .cfa -8 + ^
STACK CFI INIT da584 3c .cfa: sp 0 + .ra: lr
STACK CFI da58c .cfa: sp 8 + .ra: .cfa -4 + ^ r4: .cfa -8 + ^
STACK CFI INIT da5c0 19c .cfa: sp 0 + .ra: lr
STACK CFI da5c4 .cfa: sp 24 +
STACK CFI da5c8 .ra: .cfa -4 + ^ r11: .cfa -8 + ^ r4: .cfa -24 + ^ r5: .cfa -20 + ^ r6: .cfa -16 + ^ r7: .cfa -12 + ^
STACK CFI da5d4 .cfa: r11 4 +
STACK CFI INIT da75c 50 .cfa: sp 0 + .ra: lr
STACK CFI INIT da7ac 190 .cfa: sp 0 + .ra: lr
STACK CFI da7b0 .cfa: sp 24 +
STACK CFI da7b4 .ra: .cfa -4 + ^ r4: .cfa -24 + ^ r5: .cfa -20 + ^ r6: .cfa -16 + ^ r7: .cfa -12 + ^ r8: .cfa -8 + ^
STACK CFI da7b8 .cfa: sp 184 +
STACK CFI INIT da93c 170 .cfa: sp 0 + .ra: lr
STACK CFI da940 .cfa: sp 24 +
STACK CFI da944 .ra: .cfa -4 + ^ r4: .cfa -24 + ^ r5: .cfa -20 + ^ r6: .cfa -16 + ^ r8: .cfa -12 + ^ r9: .cfa -8 + ^
STACK CFI INIT daaac 14 .cfa: sp 0 + .ra: lr
STACK CFI daab0 .cfa: sp 8 +
STACK CFI daab8 .ra: .cfa -4 + ^ r3: .cfa -8 + ^
STACK CFI INIT daac0 14 .cfa: sp 0 + .ra: lr
STACK CFI daac4 .cfa: sp 8 +
STACK CFI daacc .ra: .cfa -4 + ^ r3: .cfa -8 + ^
STACK CFI INIT daad4 28 .cfa: sp 0 + .ra: lr
STACK CFI INIT daafc 14c .cfa: sp 0 + .ra: lr
STACK CFI dab04 .cfa: sp 24 +
STACK CFI dab08 .ra: .cfa -4 + ^ r4: .cfa -24 + ^ r5: .cfa -20 + ^ r6: .cfa -16 + ^ r7: .cfa -12 + ^ r8: .cfa -8 + ^
STACK CFI dab0c .cfa: sp 32 +
STACK CFI INIT dac48 4c8 .cfa: sp 0 + .ra: lr
STACK CFI dac4c .cfa: sp 36 +
STACK CFI dac50 .ra: .cfa -4 + ^ r10: .cfa -12 + ^ r11: .cfa -8 + ^ r4: .cfa -36 + ^ r5: .cfa -32 + ^ r6: .cfa -28 + ^ r7: .cfa -24 + ^ r8: .cfa -20 + ^ r9: .cfa -16 + ^
STACK CFI dac54 .cfa: r11 4 +
STACK CFI INIT db110 20 .cfa: sp 0 + .ra: lr
STACK CFI INIT db130 18 .cfa: sp 0 + .ra: lr
STACK CFI db134 .cfa: sp 20 + .ra: .cfa -4 + ^ r0: .cfa -20 + ^ r1: .cfa -16 + ^ r2: .cfa -12 + ^ r3: .cfa -8 + ^
STACK CFI db144 .cfa: sp -4 + .ra: r12 r0: r0 r1: r1 r2: r2 r3: r3
STACK CFI INIT db150 1c .cfa: sp 0 + .ra: lr
STACK CFI db154 .cfa: sp 24 + .ra: .cfa -4 + ^ r0: .cfa -24 + ^ r1: .cfa -20 + ^ r11: .cfa -8 + ^ r2: .cfa -16 + ^ r3: .cfa -12 + ^
STACK CFI db168 .cfa: sp 0 + .ra: .ra r0: r0 r1: r1 r11: r11 r2: r2 r3: r3
STACK CFI INIT db170 8c .cfa: sp 0 + .ra: lr
STACK CFI db174 .cfa: sp 24 +
STACK CFI db178 .ra: .cfa -4 + ^ r3: .cfa -24 + ^ r4: .cfa -20 + ^ r5: .cfa -16 + ^ r6: .cfa -12 + ^ r7: .cfa -8 + ^
STACK CFI INIT db1fc 60 .cfa: sp 0 + .ra: lr
STACK CFI INIT db25c 60 .cfa: sp 0 + .ra: lr
STACK CFI INIT db2bc fc .cfa: sp 0 + .ra: lr
STACK CFI db2c4 .cfa: sp 4 +
STACK CFI db2cc .ra: .cfa -4 + ^
STACK CFI INIT db3b8 fc .cfa: sp 0 + .ra: lr
STACK CFI db3c0 .cfa: sp 4 +
STACK CFI db3c8 .ra: .cfa -4 + ^
STACK CFI INIT db4b4 fc .cfa: sp 0 + .ra: lr
STACK CFI db4bc .cfa: sp 4 +
STACK CFI db4c4 .ra: .cfa -4 + ^
STACK CFI INIT db5b0 fc .cfa: sp 0 + .ra: lr
STACK CFI db5b8 .cfa: sp 4 +
STACK CFI db5c0 .ra: .cfa -4 + ^
STACK CFI INIT db6ac b8 .cfa: sp 0 + .ra: lr
STACK CFI db6b4 .cfa: sp 4 +
STACK CFI db6bc .ra: .cfa -4 + ^
STACK CFI INIT db764 fc .cfa: sp 0 + .ra: lr
STACK CFI db76c .cfa: sp 4 +
STACK CFI db774 .ra: .cfa -4 + ^
STACK CFI INIT db860 fc .cfa: sp 0 + .ra: lr
STACK CFI db868 .cfa: sp 4 +
STACK CFI db870 .ra: .cfa -4 + ^
STACK CFI INIT db95c fc .cfa: sp 0 + .ra: lr
STACK CFI db964 .cfa: sp 4 +
STACK CFI db96c .ra: .cfa -4 + ^
STACK CFI INIT dba58 fc .cfa: sp 0 + .ra: lr
STACK CFI dba60 .cfa: sp 4 +
STACK CFI dba68 .ra: .cfa -4 + ^
STACK CFI INIT dbb54 fc .cfa: sp 0 + .ra: lr
STACK CFI dbb5c .cfa: sp 4 +
STACK CFI dbb64 .ra: .cfa -4 + ^
STACK CFI INIT dbc50 f4 .cfa: sp 0 + .ra: lr
STACK CFI dbc58 .cfa: sp 4 +
STACK CFI dbc60 .ra: .cfa -4 + ^
STACK CFI INIT dbd44 fc .cfa: sp 0 + .ra: lr
STACK CFI dbd4c .cfa: sp 4 +
STACK CFI dbd54 .ra: .cfa -4 + ^
STACK CFI INIT dbe40 8c .cfa: sp 0 + .ra: lr
STACK CFI dbe48 .cfa: sp 4 +
STACK CFI dbe54 .ra: .cfa -4 + ^
STACK CFI INIT dbecc 84 .cfa: sp 0 + .ra: lr
STACK CFI dbed4 .cfa: sp 4 +
STACK CFI dbee0 .ra: .cfa -4 + ^
STACK CFI INIT dbf50 88 .cfa: sp 0 + .ra: lr
STACK CFI dbf54 .cfa: sp 32 +
STACK CFI dbf58 .ra: .cfa -4 + ^ r10: .cfa -8 + ^ r3: .cfa -32 + ^ r4: .cfa -28 + ^ r5: .cfa -24 + ^ r6: .cfa -20 + ^ r7: .cfa -16 + ^ r8: .cfa -12 + ^
STACK CFI INIT dbfd8 74 .cfa: sp 0 + .ra: lr
STACK CFI INIT dc04c 90 .cfa: sp 0 + .ra: lr
STACK CFI INIT dc0dc 90 .cfa: sp 0 + .ra: lr
STACK CFI INIT dc16c 90 .cfa: sp 0 + .ra: lr
STACK CFI INIT dc1fc 90 .cfa: sp 0 + .ra: lr
STACK CFI INIT dc28c 94 .cfa: sp 0 + .ra: lr
STACK CFI INIT dc320 90 .cfa: sp 0 + .ra: lr
STACK CFI INIT dc3b0 90 .cfa: sp 0 + .ra: lr
STACK CFI INIT dc440 90 .cfa: sp 0 + .ra: lr
STACK CFI INIT dc4d0 90 .cfa: sp 0 + .ra: lr
STACK CFI INIT dc560 90 .cfa: sp 0 + .ra: lr
STACK CFI INIT dc5f0 90 .cfa: sp 0 + .ra: lr
STACK CFI INIT dc680 90 .cfa: sp 0 + .ra: lr
STACK CFI INIT dc710 68 .cfa: sp 0 + .ra: lr
STACK CFI INIT dc778 68 .cfa: sp 0 + .ra: lr
STACK CFI INIT dc7e0 78 .cfa: sp 0 + .ra: lr
STACK CFI dc7e4 .cfa: sp 32 +
STACK CFI dc7e8 .ra: .cfa -4 + ^ r10: .cfa -8 + ^ r3: .cfa -32 + ^ r4: .cfa -28 + ^ r5: .cfa -24 + ^ r6: .cfa -20 + ^ r7: .cfa -16 + ^ r8: .cfa -12 + ^
STACK CFI INIT dc858 74 .cfa: sp 0 + .ra: lr
STACK CFI INIT dc8cc 78 .cfa: sp 0 + .ra: lr
STACK CFI dc8d0 .cfa: sp 24 +
STACK CFI dc8d4 .ra: .cfa -4 + ^ r3: .cfa -24 + ^ r4: .cfa -20 + ^ r5: .cfa -16 + ^ r6: .cfa -12 + ^ r7: .cfa -8 + ^
STACK CFI INIT dc944 134 .cfa: sp 0 + .ra: lr
STACK CFI dc948 .cfa: sp 28 +
STACK CFI dc94c .ra: .cfa -4 + ^ r10: .cfa -8 + ^ r4: .cfa -28 + ^ r5: .cfa -24 + ^ r6: .cfa -20 + ^ r7: .cfa -16 + ^ r8: .cfa -12 + ^
STACK CFI dc950 .cfa: sp 40 +
STACK CFI INIT dca78 1f0 .cfa: sp 0 + .ra: lr
STACK CFI dca7c .cfa: sp 20 +
STACK CFI dca80 .ra: .cfa -4 + ^ r4: .cfa -20 + ^ r5: .cfa -16 + ^ r6: .cfa -12 + ^ r7: .cfa -8 + ^
STACK CFI dca84 .cfa: sp 48 +
STACK CFI INIT dcc68 230 .cfa: sp 0 + .ra: lr
STACK CFI dcc6c .cfa: sp 32 +
STACK CFI dcc70 .ra: .cfa -4 + ^ r10: .cfa -8 + ^ r4: .cfa -32 + ^ r5: .cfa -28 + ^ r6: .cfa -24 + ^ r7: .cfa -20 + ^ r8: .cfa -16 + ^ r9: .cfa -12 + ^
STACK CFI dcc74 .cfa: sp 56 +
STACK CFI INIT dce98 23c .cfa: sp 0 + .ra: lr
STACK CFI dce9c .cfa: sp 24 +
STACK CFI dcea0 .cfa: sp 48 +
STACK CFI dcea8 .ra: .cfa -4 + ^ r4: .cfa -24 + ^ r5: .cfa -20 + ^ r6: .cfa -16 + ^ r7: .cfa -12 + ^ r8: .cfa -8 + ^
STACK CFI INIT dd0d4 478 .cfa: sp 0 + .ra: lr
STACK CFI dd0d8 .cfa: sp 24 +
STACK CFI dd0dc .ra: .cfa -4 + ^ r4: .cfa -24 + ^ r5: .cfa -20 + ^ r6: .cfa -16 + ^ r7: .cfa -12 + ^ r8: .cfa -8 + ^
STACK CFI INIT dd54c 138 .cfa: sp 0 + .ra: lr
STACK CFI dd550 .cfa: sp 24 +
STACK CFI dd554 .ra: .cfa -4 + ^ r4: .cfa -24 + ^ r5: .cfa -20 + ^ r6: .cfa -16 + ^ r7: .cfa -12 + ^ r8: .cfa -8 + ^
STACK CFI dd558 .cfa: sp 40 +
STACK CFI INIT dd684 138 .cfa: sp 0 + .ra: lr
STACK CFI dd688 .cfa: sp 24 +
STACK CFI dd68c .ra: .cfa -4 + ^ r4: .cfa -24 + ^ r5: .cfa -20 + ^ r6: .cfa -16 + ^ r7: .cfa -12 + ^ r8: .cfa -8 + ^
STACK CFI dd690 .cfa: sp 32 +
STACK CFI INIT dd7bc 170 .cfa: sp 0 + .ra: lr
STACK CFI dd7c0 .cfa: sp 28 +
STACK CFI dd7c4 .ra: .cfa -4 + ^ r10: .cfa -8 + ^ r4: .cfa -28 + ^ r5: .cfa -24 + ^ r6: .cfa -20 + ^ r7: .cfa -16 + ^ r8: .cfa -12 + ^
STACK CFI dd7d4 .cfa: sp 72 +
STACK CFI INIT dd92c 1d0 .cfa: sp 0 + .ra: lr
STACK CFI dd930 .cfa: sp 36 +
STACK CFI dd934 .ra: .cfa -4 + ^ r10: .cfa -12 + ^ r11: .cfa -8 + ^ r4: .cfa -36 + ^ r5: .cfa -32 + ^ r6: .cfa -28 + ^ r7: .cfa -24 + ^ r8: .cfa -20 + ^ r9: .cfa -16 + ^
STACK CFI dd938 .cfa: sp 64 +
STACK CFI INIT ddafc 374 .cfa: sp 0 + .ra: lr
STACK CFI ddb00 .cfa: sp 20 +
STACK CFI ddb04 .ra: .cfa -4 + ^ r4: .cfa -20 + ^ r5: .cfa -16 + ^ r6: .cfa -12 + ^ r7: .cfa -8 + ^
STACK CFI ddb08 .cfa: sp 32 +
STACK CFI INIT dde70 98 .cfa: sp 0 + .ra: lr
STACK CFI dde74 .cfa: sp 24 +
STACK CFI dde78 .ra: .cfa -4 + ^ r4: .cfa -24 + ^ r5: .cfa -20 + ^ r6: .cfa -16 + ^ r7: .cfa -12 + ^ r8: .cfa -8 + ^
STACK CFI dde90 .cfa: sp 32 +
STACK CFI INIT ddf08 350 .cfa: sp 0 + .ra: lr
STACK CFI ddf0c .cfa: sp 36 +
STACK CFI ddf10 .ra: .cfa -4 + ^ r10: .cfa -12 + ^ r11: .cfa -8 + ^ r4: .cfa -36 + ^ r5: .cfa -32 + ^ r6: .cfa -28 + ^ r7: .cfa -24 + ^ r8: .cfa -20 + ^ r9: .cfa -16 + ^
STACK CFI ddf14 .cfa: sp 48 +
STACK CFI INIT de258 4 .cfa: sp 0 + .ra: lr
STACK CFI INIT de25c 5a4 .cfa: sp 0 + .ra: lr
STACK CFI de264 .cfa: sp 24 +
STACK CFI de270 .cfa: sp 576 +
STACK CFI de274 .ra: .cfa -4 + ^ r4: .cfa -24 + ^ r5: .cfa -20 + ^ r6: .cfa -16 + ^ r7: .cfa -12 + ^ r8: .cfa -8 + ^
STACK CFI INIT de800 104 .cfa: sp 0 + .ra: lr
STACK CFI de804 .cfa: sp 24 +
STACK CFI de808 .ra: .cfa -4 + ^ r4: .cfa -24 + ^ r5: .cfa -20 + ^ r6: .cfa -16 + ^ r7: .cfa -12 + ^ r8: .cfa -8 + ^
STACK CFI INIT de904 140 .cfa: sp 0 + .ra: lr
STACK CFI de908 .cfa: sp 28 +
STACK CFI de90c .ra: .cfa -4 + ^ r10: .cfa -8 + ^ r4: .cfa -28 + ^ r5: .cfa -24 + ^ r6: .cfa -20 + ^ r7: .cfa -16 + ^ r8: .cfa -12 + ^
STACK CFI de91c .cfa: sp 40 +
STACK CFI INIT dea44 1f0 .cfa: sp 0 + .ra: lr
STACK CFI dea48 .cfa: sp 20 +
STACK CFI dea4c .ra: .cfa -4 + ^ r4: .cfa -20 + ^ r5: .cfa -16 + ^ r6: .cfa -12 + ^ r7: .cfa -8 + ^
STACK CFI dea50 .cfa: sp 48 +
STACK CFI INIT dec34 230 .cfa: sp 0 + .ra: lr
STACK CFI dec38 .cfa: sp 32 +
STACK CFI dec3c .ra: .cfa -4 + ^ r10: .cfa -8 + ^ r4: .cfa -32 + ^ r5: .cfa -28 + ^ r6: .cfa -24 + ^ r7: .cfa -20 + ^ r8: .cfa -16 + ^ r9: .cfa -12 + ^
STACK CFI dec40 .cfa: sp 56 +
STACK CFI INIT dee64 23c .cfa: sp 0 + .ra: lr
STACK CFI dee68 .cfa: sp 24 +
STACK CFI dee6c .cfa: sp 48 +
STACK CFI dee74 .ra: .cfa -4 + ^ r4: .cfa -24 + ^ r5: .cfa -20 + ^ r6: .cfa -16 + ^ r7: .cfa -12 + ^ r8: .cfa -8 + ^
STACK CFI INIT df0a0 290 .cfa: sp 0 + .ra: lr
STACK CFI df0a4 .cfa: sp 32 +
STACK CFI df0a8 .ra: .cfa -4 + ^ r10: .cfa -8 + ^ r4: .cfa -32 + ^ r5: .cfa -28 + ^ r6: .cfa -24 + ^ r7: .cfa -20 + ^ r8: .cfa -16 + ^ r9: .cfa -12 + ^
STACK CFI INIT df330 138 .cfa: sp 0 + .ra: lr
STACK CFI df334 .cfa: sp 24 +
STACK CFI df338 .ra: .cfa -4 + ^ r4: .cfa -24 + ^ r5: .cfa -20 + ^ r6: .cfa -16 + ^ r7: .cfa -12 + ^ r8: .cfa -8 + ^
STACK CFI df33c .cfa: sp 40 +
STACK CFI INIT df468 138 .cfa: sp 0 + .ra: lr
STACK CFI df46c .cfa: sp 24 +
STACK CFI df470 .ra: .cfa -4 + ^ r4: .cfa -24 + ^ r5: .cfa -20 + ^ r6: .cfa -16 + ^ r7: .cfa -12 + ^ r8: .cfa -8 + ^
STACK CFI df474 .cfa: sp 32 +
STACK CFI INIT df5a0 170 .cfa: sp 0 + .ra: lr
STACK CFI df5a4 .cfa: sp 28 +
STACK CFI df5a8 .ra: .cfa -4 + ^ r10: .cfa -8 + ^ r4: .cfa -28 + ^ r5: .cfa -24 + ^ r6: .cfa -20 + ^ r7: .cfa -16 + ^ r8: .cfa -12 + ^
STACK CFI df5b8 .cfa: sp 72 +
STACK CFI INIT df710 1d0 .cfa: sp 0 + .ra: lr
STACK CFI df714 .cfa: sp 36 +
STACK CFI df718 .ra: .cfa -4 + ^ r10: .cfa -12 + ^ r11: .cfa -8 + ^ r4: .cfa -36 + ^ r5: .cfa -32 + ^ r6: .cfa -28 + ^ r7: .cfa -24 + ^ r8: .cfa -20 + ^ r9: .cfa -16 + ^
STACK CFI df71c .cfa: sp 64 +
STACK CFI INIT df8e0 414 .cfa: sp 0 + .ra: lr
STACK CFI df8e4 .cfa: sp 36 +
STACK CFI df8e8 .ra: .cfa -4 + ^ r10: .cfa -12 + ^ r11: .cfa -8 + ^ r4: .cfa -36 + ^ r5: .cfa -32 + ^ r6: .cfa -28 + ^ r7: .cfa -24 + ^ r8: .cfa -20 + ^ r9: .cfa -16 + ^
STACK CFI df900 .cfa: sp 64 +
STACK CFI INIT dfcf4 bc .cfa: sp 0 + .ra: lr
STACK CFI dfcf8 .cfa: sp 28 +
STACK CFI dfd00 .cfa: sp 40 +
STACK CFI dfd08 .ra: .cfa -4 + ^ r10: .cfa -8 + ^ r4: .cfa -28 + ^ r5: .cfa -24 + ^ r6: .cfa -20 + ^ r7: .cfa -16 + ^ r8: .cfa -12 + ^
STACK CFI INIT dfdb0 34c .cfa: sp 0 + .ra: lr
STACK CFI dfdb4 .cfa: sp 36 +
STACK CFI dfdb8 .ra: .cfa -4 + ^ r10: .cfa -12 + ^ r11: .cfa -8 + ^ r4: .cfa -36 + ^ r5: .cfa -32 + ^ r6: .cfa -28 + ^ r7: .cfa -24 + ^ r8: .cfa -20 + ^ r9: .cfa -16 + ^
STACK CFI dfdbc .cfa: sp 48 +
STACK CFI INIT e00fc 74 .cfa: sp 0 + .ra: lr
STACK CFI e0100 .cfa: sp 24 +
STACK CFI e0104 .ra: .cfa -4 + ^ r4: .cfa -24 + ^ r5: .cfa -20 + ^ r6: .cfa -16 + ^ r7: .cfa -12 + ^ r8: .cfa -8 + ^
STACK CFI INIT e0170 6fc .cfa: sp 0 + .ra: lr
STACK CFI e0174 .cfa: sp 36 +
STACK CFI e017c .ra: .cfa -4 + ^ r10: .cfa -12 + ^ r11: .cfa -8 + ^ r4: .cfa -36 + ^ r5: .cfa -32 + ^ r6: .cfa -28 + ^ r7: .cfa -24 + ^ r8: .cfa -20 + ^ r9: .cfa -16 + ^
STACK CFI e0190 .cfa: sp 64 +
STACK CFI INIT e086c 4c .cfa: sp 0 + .ra: lr
STACK CFI e0870 .cfa: sp 8 +
STACK CFI e0874 .ra: .cfa -4 + ^ r4: .cfa -8 + ^
STACK CFI INIT e08b8 c0 .cfa: sp 0 + .ra: lr
STACK CFI e08c4 .cfa: sp 16 +
STACK CFI e08c8 .ra: .cfa -4 + ^ r3: .cfa -16 + ^ r4: .cfa -12 + ^ r5: .cfa -8 + ^
STACK CFI INIT e0978 80 .cfa: sp 0 + .ra: lr
STACK CFI e097c .cfa: sp 12 +
STACK CFI e0980 .cfa: sp 32 +
STACK CFI e0984 .cfa: sp 40 +
STACK CFI e0988 .ra: .cfa -16 + ^ r1: .cfa -12 + ^ r2: .cfa -8 + ^ r3: .cfa -4 + ^ r4: .cfa -32 + ^ r5: .cfa -28 + ^ r6: .cfa -24 + ^ r7: .cfa -20 + ^
STACK CFI INIT e09f8 60 .cfa: sp 0 + .ra: lr
STACK CFI e0a04 .cfa: sp 16 +
STACK CFI e0a08 .ra: .cfa -4 + ^ r4: .cfa -16 + ^ r5: .cfa -12 + ^ r6: .cfa -8 + ^
STACK CFI INIT e0a58 44 .cfa: sp 0 + .ra: lr
STACK CFI e0a5c .cfa: sp 16 +
STACK CFI e0a60 .ra: .cfa -4 + ^ r4: .cfa -16 + ^ r5: .cfa -12 + ^ r6: .cfa -8 + ^
STACK CFI INIT e0a9c 48 .cfa: sp 0 + .ra: lr
STACK CFI e0aa0 .cfa: sp 16 +
STACK CFI e0aa8 .ra: .cfa -4 + ^ r3: .cfa -16 + ^ r4: .cfa -12 + ^ r5: .cfa -8 + ^
STACK CFI INIT e0ae4 34 .cfa: sp 0 + .ra: lr
STACK CFI e0ae8 .cfa: sp 16 +
STACK CFI e0af0 .ra: .cfa -4 + ^ r3: .cfa -16 + ^ r4: .cfa -12 + ^ r5: .cfa -8 + ^
STACK CFI INIT e0b18 34 .cfa: sp 0 + .ra: lr
STACK CFI e0b1c .cfa: sp 16 +
STACK CFI e0b24 .ra: .cfa -4 + ^ r3: .cfa -16 + ^ r4: .cfa -12 + ^ r5: .cfa -8 + ^
STACK CFI INIT e0b4c 34 .cfa: sp 0 + .ra: lr
STACK CFI e0b50 .cfa: sp 16 +
STACK CFI e0b58 .ra: .cfa -4 + ^ r3: .cfa -16 + ^ r4: .cfa -12 + ^ r5: .cfa -8 + ^
STACK CFI INIT e0b80 30 .cfa: sp 0 + .ra: lr
STACK CFI e0b98 .cfa: sp 8 +
STACK CFI e0b9c .ra: .cfa -4 + ^ r4: .cfa -8 + ^
STACK CFI INIT e0bb0 30 .cfa: sp 0 + .ra: lr
STACK CFI INIT e0be0 44 .cfa: sp 0 + .ra: lr
STACK CFI INIT e0c24 50 .cfa: sp 0 + .ra: lr
STACK CFI e0c28 .cfa: sp 16 +
STACK CFI e0c2c .ra: .cfa -4 + ^ r4: .cfa -16 + ^ r5: .cfa -12 + ^ r6: .cfa -8 + ^
STACK CFI INIT e0c74 128 .cfa: sp 0 + .ra: lr
STACK CFI e0c78 .cfa: sp 36 +
STACK CFI e0c7c .ra: .cfa -4 + ^ r10: .cfa -12 + ^ r11: .cfa -8 + ^ r4: .cfa -36 + ^ r5: .cfa -32 + ^ r6: .cfa -28 + ^ r7: .cfa -24 + ^ r8: .cfa -20 + ^ r9: .cfa -16 + ^
STACK CFI e0c98 .cfa: sp 48 +
STACK CFI INIT e0d9c 88 .cfa: sp 0 + .ra: lr
STACK CFI e0dac .cfa: sp 4 +
STACK CFI e0db0 .ra: .cfa -4 + ^
STACK CFI INIT e0e24 100 .cfa: sp 0 + .ra: lr
STACK CFI e0e28 .cfa: sp 24 +
STACK CFI e0e2c .ra: .cfa -4 + ^ r4: .cfa -24 + ^ r5: .cfa -20 + ^ r6: .cfa -16 + ^ r7: .cfa -12 + ^ r8: .cfa -8 + ^
STACK CFI INIT e0f24 ac .cfa: sp 0 + .ra: lr
STACK CFI e0f28 .cfa: sp 24 +
STACK CFI e0f30 .ra: .cfa -4 + ^ r3: .cfa -24 + ^ r4: .cfa -20 + ^ r5: .cfa -16 + ^ r6: .cfa -12 + ^ r7: .cfa -8 + ^
STACK CFI INIT e0fd0 294 .cfa: sp 0 + .ra: lr
STACK CFI e0fd4 .cfa: sp 36 +
STACK CFI e0fd8 .cfa: r11 4 + .ra: .cfa -4 + ^ r10: .cfa -12 + ^ r11: .cfa -8 + ^ r4: .cfa -36 + ^ r5: .cfa -32 + ^ r6: .cfa -28 + ^ r7: .cfa -24 + ^ r8: .cfa -20 + ^ r9: .cfa -16 + ^
STACK CFI INIT e1264 83c .cfa: sp 0 + .ra: lr
STACK CFI e1268 .cfa: sp 36 +
STACK CFI e126c .cfa: sp 80 +
STACK CFI e1280 .ra: .cfa -4 + ^ r10: .cfa -12 + ^ r11: .cfa -8 + ^ r4: .cfa -36 + ^ r5: .cfa -32 + ^ r6: .cfa -28 + ^ r7: .cfa -24 + ^ r8: .cfa -20 + ^ r9: .cfa -16 + ^
STACK CFI INIT e1aa0 3a4 .cfa: sp 0 + .ra: lr
STACK CFI e1aa4 .cfa: sp 28 +
STACK CFI e1aac .ra: .cfa -4 + ^ r10: .cfa -8 + ^ r4: .cfa -28 + ^ r5: .cfa -24 + ^ r6: .cfa -20 + ^ r7: .cfa -16 + ^ r8: .cfa -12 + ^
STACK CFI e1ab8 .cfa: sp 40 +
STACK CFI INIT e1e44 b8 .cfa: sp 0 + .ra: lr
STACK CFI e1e48 .cfa: sp 16 +
STACK CFI e1e4c .ra: .cfa -4 + ^ r3: .cfa -16 + ^ r4: .cfa -12 + ^ r5: .cfa -8 + ^
STACK CFI INIT e1efc bc .cfa: sp 0 + .ra: lr
STACK CFI e1f04 .cfa: sp 24 +
STACK CFI e1f0c .ra: .cfa -4 + ^ r3: .cfa -24 + ^ r4: .cfa -20 + ^ r5: .cfa -16 + ^ r6: .cfa -12 + ^ r7: .cfa -8 + ^
STACK CFI INIT e1fb8 d8 .cfa: sp 0 + .ra: lr
STACK CFI e1fbc .cfa: sp 24 +
STACK CFI e1fc4 .ra: .cfa -4 + ^ r3: .cfa -24 + ^ r4: .cfa -20 + ^ r5: .cfa -16 + ^ r6: .cfa -12 + ^ r7: .cfa -8 + ^
STACK CFI INIT e2090 4c .cfa: sp 0 + .ra: lr
STACK CFI e2094 .cfa: sp 16 +
STACK CFI e2098 .ra: .cfa -4 + ^ r4: .cfa -16 + ^ r5: .cfa -12 + ^ r6: .cfa -8 + ^
STACK CFI INIT e20dc 260 .cfa: sp 0 + .ra: lr
STACK CFI e20e0 .cfa: sp 36 +
STACK CFI e20e4 .ra: .cfa -4 + ^ r10: .cfa -12 + ^ r11: .cfa -8 + ^ r4: .cfa -36 + ^ r5: .cfa -32 + ^ r6: .cfa -28 + ^ r7: .cfa -24 + ^ r8: .cfa -20 + ^ r9: .cfa -16 + ^
STACK CFI e20ec .cfa: sp 72 +
STACK CFI INIT e233c 22c .cfa: sp 0 + .ra: lr
STACK CFI e2340 .cfa: sp 36 +
STACK CFI e2344 .ra: .cfa -4 + ^ r10: .cfa -12 + ^ r11: .cfa -8 + ^ r4: .cfa -36 + ^ r5: .cfa -32 + ^ r6: .cfa -28 + ^ r7: .cfa -24 + ^ r8: .cfa -20 + ^ r9: .cfa -16 + ^
STACK CFI e2348 .cfa: sp 48 +
STACK CFI INIT e2568 1a0 .cfa: sp 0 + .ra: lr
STACK CFI e2570 .cfa: sp 24 +
STACK CFI e2578 .ra: .cfa -4 + ^ r4: .cfa -24 + ^ r5: .cfa -20 + ^ r6: .cfa -16 + ^ r7: .cfa -12 + ^ r8: .cfa -8 + ^
STACK CFI INIT e2708 4ec .cfa: sp 0 + .ra: lr
STACK CFI e270c .cfa: sp 36 +
STACK CFI e2710 .ra: .cfa -4 + ^ r10: .cfa -12 + ^ r11: .cfa -8 + ^ r4: .cfa -36 + ^ r5: .cfa -32 + ^ r6: .cfa -28 + ^ r7: .cfa -24 + ^ r8: .cfa -20 + ^ r9: .cfa -16 + ^
STACK CFI e2714 .cfa: sp 72 +
STACK CFI INIT e2bf4 68 .cfa: sp 0 + .ra: lr
STACK CFI e2bf8 .cfa: sp 16 +
STACK CFI e2c00 .ra: .cfa -4 + ^ r4: .cfa -16 + ^ r5: .cfa -12 + ^ r6: .cfa -8 + ^
STACK CFI INIT e2c5c 58 .cfa: sp 0 + .ra: lr
STACK CFI e2c60 .cfa: sp 16 +
STACK CFI e2c64 .ra: .cfa -4 + ^ r3: .cfa -16 + ^ r4: .cfa -12 + ^ r5: .cfa -8 + ^
STACK CFI INIT e2cb4 e0 .cfa: sp 0 + .ra: lr
STACK CFI e2cb8 .cfa: sp 32 +
STACK CFI e2cbc .ra: .cfa -4 + ^ r10: .cfa -8 + ^ r3: .cfa -32 + ^ r4: .cfa -28 + ^ r5: .cfa -24 + ^ r6: .cfa -20 + ^ r7: .cfa -16 + ^ r8: .cfa -12 + ^
STACK CFI INIT e2d94 1a4 .cfa: sp 0 + .ra: lr
STACK CFI e2d98 .cfa: sp 4 +
STACK CFI e2d9c .cfa: sp 32 +
STACK CFI e2da0 .ra: .cfa -8 + ^ r10: .cfa -12 + ^ r3: .cfa -4 + ^ r4: .cfa -32 + ^ r5: .cfa -28 + ^ r6: .cfa -24 + ^ r7: .cfa -20 + ^ r8: .cfa -16 + ^
STACK CFI e2da4 .cfa: sp 240 +
STACK CFI INIT e2f38 1898 .cfa: sp 0 + .ra: lr
STACK CFI e2f3c .cfa: sp 36 +
STACK CFI e2f40 .ra: .cfa -4 + ^ r10: .cfa -12 + ^ r11: .cfa -8 + ^ r4: .cfa -36 + ^ r5: .cfa -32 + ^ r6: .cfa -28 + ^ r7: .cfa -24 + ^ r8: .cfa -20 + ^ r9: .cfa -16 + ^
STACK CFI e2f44 .cfa: r11 4 +
STACK CFI INIT e47d0 d0 .cfa: sp 0 + .ra: lr
STACK CFI e47d4 .cfa: sp 16 +
STACK CFI e47d8 .ra: .cfa -4 + ^ r4: .cfa -16 + ^ r5: .cfa -12 + ^ r6: .cfa -8 + ^
STACK CFI e47e4 .cfa: sp 24 +
STACK CFI INIT e48a0 e4 .cfa: sp 0 + .ra: lr
STACK CFI e48a4 .cfa: sp 12 +
STACK CFI e48a8 .cfa: sp 28 +
STACK CFI e48ac .ra: .cfa -16 + ^ r1: .cfa -12 + ^ r2: .cfa -8 + ^ r3: .cfa -4 + ^ r4: .cfa -28 + ^ r5: .cfa -24 + ^ r6: .cfa -20 + ^
STACK CFI e48b4 .cfa: sp 40 +
STACK CFI INIT e4984 2c .cfa: sp 0 + .ra: lr
STACK CFI e4988 .cfa: sp 4 +
STACK CFI e4990 .ra: .cfa -4 + ^
STACK CFI e4994 .cfa: sp 16 +
STACK CFI INIT e49b0 d8 .cfa: sp 0 + .ra: lr
STACK CFI e49b4 .cfa: sp 16 +
STACK CFI e49b8 .ra: .cfa -4 + ^ r3: .cfa -16 + ^ r4: .cfa -12 + ^ r5: .cfa -8 + ^
STACK CFI INIT e4a88 bc .cfa: sp 0 + .ra: lr
STACK CFI e4a94 .cfa: sp 8 +
STACK CFI e4a9c .ra: .cfa -4 + ^ r4: .cfa -8 + ^
STACK CFI INIT e4b44 14c .cfa: sp 0 + .ra: lr
STACK CFI e4b48 .cfa: sp 12 +
STACK CFI e4b4c .ra: .cfa -4 + ^ r4: .cfa -12 + ^ r5: .cfa -8 + ^
STACK CFI e4b54 .cfa: sp 24 +
STACK CFI INIT e4c90 300 .cfa: sp 0 + .ra: lr
STACK CFI e4c94 .cfa: sp 36 +
STACK CFI e4c98 .ra: .cfa -4 + ^ r10: .cfa -12 + ^ r11: .cfa -8 + ^ r4: .cfa -36 + ^ r5: .cfa -32 + ^ r6: .cfa -28 + ^ r7: .cfa -24 + ^ r8: .cfa -20 + ^ r9: .cfa -16 + ^
STACK CFI e4c9c .cfa: sp 64 +
STACK CFI INIT e4f90 dc0 .cfa: sp 0 + .ra: lr
STACK CFI e4f94 .cfa: sp 36 +
STACK CFI e4f98 .ra: .cfa -4 + ^ r10: .cfa -12 + ^ r11: .cfa -8 + ^ r4: .cfa -36 + ^ r5: .cfa -32 + ^ r6: .cfa -28 + ^ r7: .cfa -24 + ^ r8: .cfa -20 + ^ r9: .cfa -16 + ^
STACK CFI e4f9c .cfa: r11 4 +
STACK CFI INIT e5d50 54 .cfa: sp 0 + .ra: lr
STACK CFI INIT e5da4 28 .cfa: sp 0 + .ra: lr
STACK CFI INIT e5dcc 90 .cfa: sp 0 + .ra: lr
STACK CFI e5dd4 .cfa: sp 4 +
STACK CFI e5de0 .ra: .cfa -4 + ^
STACK CFI INIT e5e5c 44 .cfa: sp 0 + .ra: lr
STACK CFI INIT e5ea0 30 .cfa: sp 0 + .ra: lr
STACK CFI e5ea8 .cfa: sp 4 +
STACK CFI e5eac .ra: .cfa -4 + ^
STACK CFI INIT e5ed0 38 .cfa: sp 0 + .ra: lr
STACK CFI e5ed8 .cfa: sp 8 +
STACK CFI e5edc .ra: .cfa -4 + ^ r3: .cfa -8 + ^
STACK CFI INIT e5f08 34 .cfa: sp 0 + .ra: lr
STACK CFI e5f0c .cfa: sp 8 +
STACK CFI e5f10 .ra: .cfa -4 + ^ r3: .cfa -8 + ^
STACK CFI INIT e5f3c 38 .cfa: sp 0 + .ra: lr
STACK CFI e5f40 .cfa: sp 8 +
STACK CFI e5f44 .ra: .cfa -4 + ^ r3: .cfa -8 + ^
STACK CFI INIT e5f74 38 .cfa: sp 0 + .ra: lr
STACK CFI e5f78 .cfa: sp 8 +
STACK CFI e5f7c .ra: .cfa -4 + ^ r3: .cfa -8 + ^
STACK CFI INIT e5fac 38 .cfa: sp 0 + .ra: lr
STACK CFI e5fb0 .cfa: sp 8 +
STACK CFI e5fb4 .ra: .cfa -4 + ^ r3: .cfa -8 + ^
STACK CFI INIT e5fe4 38 .cfa: sp 0 + .ra: lr
STACK CFI e5fe8 .cfa: sp 8 +
STACK CFI e5fec .ra: .cfa -4 + ^ r3: .cfa -8 + ^
STACK CFI INIT e601c 38 .cfa: sp 0 + .ra: lr
STACK CFI e6020 .cfa: sp 8 +
STACK CFI e6024 .ra: .cfa -4 + ^ r3: .cfa -8 + ^
STACK CFI INIT e6054 38 .cfa: sp 0 + .ra: lr
STACK CFI e6058 .cfa: sp 8 +
STACK CFI e605c .ra: .cfa -4 + ^ r3: .cfa -8 + ^
STACK CFI INIT e608c 38 .cfa: sp 0 + .ra: lr
STACK CFI e6090 .cfa: sp 8 +
STACK CFI e6094 .ra: .cfa -4 + ^ r3: .cfa -8 + ^
STACK CFI INIT e60c4 38 .cfa: sp 0 + .ra: lr
STACK CFI e60c8 .cfa: sp 8 +
STACK CFI e60cc .ra: .cfa -4 + ^ r3: .cfa -8 + ^
STACK CFI INIT e60fc 38 .cfa: sp 0 + .ra: lr
STACK CFI e6100 .cfa: sp 8 +
STACK CFI e6104 .ra: .cfa -4 + ^ r3: .cfa -8 + ^
STACK CFI INIT e6134 38 .cfa: sp 0 + .ra: lr
STACK CFI e6138 .cfa: sp 8 +
STACK CFI e613c .ra: .cfa -4 + ^ r3: .cfa -8 + ^
STACK CFI INIT e616c 38 .cfa: sp 0 + .ra: lr
STACK CFI e6170 .cfa: sp 8 +
STACK CFI e6174 .ra: .cfa -4 + ^ r3: .cfa -8 + ^
STACK CFI INIT e61a4 38 .cfa: sp 0 + .ra: lr
STACK CFI e61a8 .cfa: sp 8 +
STACK CFI e61ac .ra: .cfa -4 + ^ r3: .cfa -8 + ^
STACK CFI INIT e61dc 38 .cfa: sp 0 + .ra: lr
STACK CFI e61e0 .cfa: sp 8 +
STACK CFI e61e4 .ra: .cfa -4 + ^ r3: .cfa -8 + ^
STACK CFI INIT e6214 38 .cfa: sp 0 + .ra: lr
STACK CFI e6218 .cfa: sp 8 +
STACK CFI e621c .ra: .cfa -4 + ^ r3: .cfa -8 + ^
STACK CFI INIT e624c 38 .cfa: sp 0 + .ra: lr
STACK CFI e6250 .cfa: sp 8 +
STACK CFI e6254 .ra: .cfa -4 + ^ r3: .cfa -8 + ^
STACK CFI INIT e6284 38 .cfa: sp 0 + .ra: lr
STACK CFI e6288 .cfa: sp 8 +
STACK CFI e628c .ra: .cfa -4 + ^ r3: .cfa -8 + ^
STACK CFI INIT e62bc 38 .cfa: sp 0 + .ra: lr
STACK CFI e62c0 .cfa: sp 8 +
STACK CFI e62c4 .ra: .cfa -4 + ^ r3: .cfa -8 + ^
STACK CFI INIT e62f4 38 .cfa: sp 0 + .ra: lr
STACK CFI e62f8 .cfa: sp 8 +
STACK CFI e62fc .ra: .cfa -4 + ^ r3: .cfa -8 + ^
STACK CFI INIT e632c 38 .cfa: sp 0 + .ra: lr
STACK CFI e6330 .cfa: sp 8 +
STACK CFI e6334 .ra: .cfa -4 + ^ r3: .cfa -8 + ^
STACK CFI INIT e6364 38 .cfa: sp 0 + .ra: lr
STACK CFI e6368 .cfa: sp 8 +
STACK CFI e636c .ra: .cfa -4 + ^ r3: .cfa -8 + ^
STACK CFI INIT e639c 38 .cfa: sp 0 + .ra: lr
STACK CFI e63a0 .cfa: sp 8 +
STACK CFI e63a4 .ra: .cfa -4 + ^ r3: .cfa -8 + ^
STACK CFI INIT e63d4 38 .cfa: sp 0 + .ra: lr
STACK CFI e63d8 .cfa: sp 8 +
STACK CFI e63dc .ra: .cfa -4 + ^ r3: .cfa -8 + ^
STACK CFI INIT e640c 38 .cfa: sp 0 + .ra: lr
STACK CFI e6410 .cfa: sp 8 +
STACK CFI e6414 .ra: .cfa -4 + ^ r3: .cfa -8 + ^
STACK CFI INIT e6444 38 .cfa: sp 0 + .ra: lr
STACK CFI e6448 .cfa: sp 8 +
STACK CFI e644c .ra: .cfa -4 + ^ r3: .cfa -8 + ^
STACK CFI INIT e647c 38 .cfa: sp 0 + .ra: lr
STACK CFI e6480 .cfa: sp 8 +
STACK CFI e6484 .ra: .cfa -4 + ^ r3: .cfa -8 + ^
STACK CFI INIT e64b4 38 .cfa: sp 0 + .ra: lr
STACK CFI e64b8 .cfa: sp 8 +
STACK CFI e64bc .ra: .cfa -4 + ^ r3: .cfa -8 + ^
STACK CFI INIT e64ec 30 .cfa: sp 0 + .ra: lr
STACK CFI e64f4 .cfa: sp 8 +
STACK CFI e6500 .ra: .cfa -4 + ^ r3: .cfa -8 + ^
STACK CFI INIT e651c 38 .cfa: sp 0 + .ra: lr
STACK CFI e6520 .cfa: sp 8 +
STACK CFI e6524 .ra: .cfa -4 + ^ r3: .cfa -8 + ^
STACK CFI INIT e6554 38 .cfa: sp 0 + .ra: lr
STACK CFI e6558 .cfa: sp 8 +
STACK CFI e655c .ra: .cfa -4 + ^ r3: .cfa -8 + ^
STACK CFI INIT 114560 40 .cfa: sp 0 + .ra: lr
STACK CFI 11456c .cfa: sp 8 +
STACK CFI 114578 .ra: .cfa -4 + ^ r7: .cfa -8 + ^
STACK CFI INIT e658c a0 .cfa: sp 0 + .ra: lr
STACK CFI e6590 .cfa: sp 20 +
STACK CFI e6594 .ra: .cfa -4 + ^ r4: .cfa -20 + ^ r5: .cfa -16 + ^ r6: .cfa -12 + ^ r7: .cfa -8 + ^
STACK CFI INIT e662c bc .cfa: sp 0 + .ra: lr
STACK CFI e6630 .cfa: sp 24 +
STACK CFI e6634 .ra: .cfa -4 + ^ r4: .cfa -24 + ^ r5: .cfa -20 + ^ r6: .cfa -16 + ^ r7: .cfa -12 + ^ r8: .cfa -8 + ^
STACK CFI INIT e66e8 98 .cfa: sp 0 + .ra: lr
STACK CFI e66f0 .cfa: sp 28 +
STACK CFI e66f4 .ra: .cfa -4 + ^ r10: .cfa -8 + ^ r4: .cfa -28 + ^ r5: .cfa -24 + ^ r6: .cfa -20 + ^ r7: .cfa -16 + ^ r8: .cfa -12 + ^
STACK CFI INIT e6780 20 .cfa: sp 0 + .ra: lr
STACK CFI e6784 .cfa: sp 8 +
STACK CFI e6788 .ra: .cfa -4 + ^ r3: .cfa -8 + ^
STACK CFI INIT 116eb8 118 .cfa: sp 0 + .ra: lr
STACK CFI 116ebc .cfa: sp 24 +
STACK CFI 116ec0 .ra: .cfa -4 + ^ r3: .cfa -24 + ^ r4: .cfa -20 + ^ r5: .cfa -16 + ^ r6: .cfa -12 + ^ r7: .cfa -8 + ^
STACK CFI INIT e67a0 54 .cfa: sp 0 + .ra: lr
STACK CFI e67a4 .cfa: sp 16 +
STACK CFI e67a8 .ra: .cfa -4 + ^ r4: .cfa -16 + ^ r5: .cfa -12 + ^ r6: .cfa -8 + ^
STACK CFI INIT e67f4 1b8 .cfa: sp 0 + .ra: lr
STACK CFI e67f8 .cfa: sp 32 +
STACK CFI e67fc .ra: .cfa -4 + ^ r10: .cfa -8 + ^ r4: .cfa -32 + ^ r5: .cfa -28 + ^ r6: .cfa -24 + ^ r7: .cfa -20 + ^ r8: .cfa -16 + ^ r9: .cfa -12 + ^
STACK CFI INIT e69ac 268 .cfa: sp 0 + .ra: lr
STACK CFI e69b0 .cfa: sp 32 +
STACK CFI e69b4 .ra: .cfa -4 + ^ r10: .cfa -12 + ^ r11: .cfa -8 + ^ r4: .cfa -32 + ^ r5: .cfa -28 + ^ r6: .cfa -24 + ^ r7: .cfa -20 + ^ r8: .cfa -16 + ^
STACK CFI e69b8 .cfa: r11 4 +
STACK CFI INIT 116fd0 30 .cfa: sp 0 + .ra: lr
STACK CFI 116fd8 .cfa: sp 8 +
STACK CFI 116fdc .ra: .cfa -4 + ^ r3: .cfa -8 + ^
STACK CFI INIT e6c14 8c .cfa: sp 0 + .ra: lr
STACK CFI e6c1c .cfa: sp 8 +
STACK CFI e6c20 .ra: .cfa -4 + ^ r4: .cfa -8 + ^
STACK CFI INIT e6ca0 80 .cfa: sp 0 + .ra: lr
STACK CFI INIT e6d20 b4 .cfa: sp 0 + .ra: lr
STACK CFI e6d28 .cfa: sp 20 +
STACK CFI e6d2c .cfa: sp 56 +
STACK CFI e6d30 .ra: .cfa -4 + ^ r4: .cfa -20 + ^ r5: .cfa -16 + ^ r6: .cfa -12 + ^ r7: .cfa -8 + ^
STACK CFI INIT e6dd4 190 .cfa: sp 0 + .ra: lr
STACK CFI e6dd8 .cfa: sp 32 +
STACK CFI e6ddc .cfa: sp 40 +
STACK CFI e6de0 .ra: .cfa -4 + ^ r10: .cfa -8 + ^ r4: .cfa -32 + ^ r5: .cfa -28 + ^ r6: .cfa -24 + ^ r7: .cfa -20 + ^ r8: .cfa -16 + ^ r9: .cfa -12 + ^
STACK CFI INIT e6f64 24 .cfa: sp 0 + .ra: lr
STACK CFI e6f68 .cfa: sp 4 +
STACK CFI e6f6c .cfa: sp 16 +
STACK CFI e6f70 .ra: .cfa -4 + ^
STACK CFI INIT e6f88 7c .cfa: sp 0 + .ra: lr
STACK CFI e6f8c .cfa: sp 16 +
STACK CFI e6f90 .ra: .cfa -4 + ^ r4: .cfa -16 + ^ r5: .cfa -12 + ^ r6: .cfa -8 + ^
STACK CFI e6f9c .cfa: sp 40 +
STACK CFI INIT e7004 6cc .cfa: sp 0 + .ra: lr
STACK CFI e700c .cfa: sp 36 +
STACK CFI e7010 .ra: .cfa -4 + ^ r10: .cfa -12 + ^ r11: .cfa -8 + ^ r4: .cfa -36 + ^ r5: .cfa -32 + ^ r6: .cfa -28 + ^ r7: .cfa -24 + ^ r8: .cfa -20 + ^ r9: .cfa -16 + ^
STACK CFI e7014 .cfa: sp 144 +
STACK CFI INIT e76d0 ec .cfa: sp 0 + .ra: lr
STACK CFI e76d4 .cfa: sp 20 +
STACK CFI e76d8 .cfa: sp 32 +
STACK CFI e76ec .ra: .cfa -4 + ^ r4: .cfa -20 + ^ r5: .cfa -16 + ^ r6: .cfa -12 + ^ r7: .cfa -8 + ^
STACK CFI INIT e77bc 310 .cfa: sp 0 + .ra: lr
STACK CFI e77c4 .cfa: sp 36 +
STACK CFI e77c8 .ra: .cfa -4 + ^ r10: .cfa -12 + ^ r11: .cfa -8 + ^ r4: .cfa -36 + ^ r5: .cfa -32 + ^ r6: .cfa -28 + ^ r7: .cfa -24 + ^ r8: .cfa -20 + ^ r9: .cfa -16 + ^
STACK CFI e77cc .cfa: sp 72 +
STACK CFI INIT e7acc 1fc .cfa: sp 0 + .ra: lr
STACK CFI e7ad0 .cfa: sp 36 +
STACK CFI e7ad4 .ra: .cfa -4 + ^ r10: .cfa -12 + ^ r11: .cfa -8 + ^ r4: .cfa -36 + ^ r5: .cfa -32 + ^ r6: .cfa -28 + ^ r7: .cfa -24 + ^ r8: .cfa -20 + ^ r9: .cfa -16 + ^
STACK CFI e7adc .cfa: sp 48 +
STACK CFI INIT e7cc8 bc .cfa: sp 0 + .ra: lr
STACK CFI e7cd0 .cfa: sp 16 +
STACK CFI e7cd4 r4: .cfa -16 + ^ r5: .cfa -12 + ^ r6: .cfa -8 + ^ r7: .cfa -4 + ^
STACK CFI INIT e7d84 314 .cfa: sp 0 + .ra: lr
STACK CFI e7d88 .cfa: sp 24 +
STACK CFI e7d8c .ra: .cfa -4 + ^ r4: .cfa -24 + ^ r5: .cfa -20 + ^ r6: .cfa -16 + ^ r7: .cfa -12 + ^ r8: .cfa -8 + ^
STACK CFI INIT e8098 14 .cfa: sp 0 + .ra: lr
STACK CFI e809c .cfa: sp 8 + .ra: .cfa -4 + ^ r3: .cfa -8 + ^
STACK CFI INIT e80ac b94 .cfa: sp 0 + .ra: lr
STACK CFI e80b0 .cfa: sp 36 +
STACK CFI e80b4 .ra: .cfa -4 + ^ r10: .cfa -12 + ^ r11: .cfa -8 + ^ r4: .cfa -36 + ^ r5: .cfa -32 + ^ r6: .cfa -28 + ^ r7: .cfa -24 + ^ r8: .cfa -20 + ^ r9: .cfa -16 + ^
STACK CFI e80b8 .cfa: r11 4 +
STACK CFI INIT e8c40 8 .cfa: sp 0 + .ra: lr
STACK CFI INIT e8c48 120 .cfa: sp 0 + .ra: lr
STACK CFI e8c4c .cfa: sp 16 +
STACK CFI e8c50 .ra: .cfa -4 + ^ r4: .cfa -16 + ^ r5: .cfa -12 + ^ r7: .cfa -8 + ^
STACK CFI INIT 117378 4c .cfa: sp 0 + .ra: lr
STACK CFI 117380 .cfa: sp 8 +
STACK CFI 117384 .ra: .cfa -4 + ^ r4: .cfa -8 + ^
STACK CFI INIT e8d68 8 .cfa: sp 0 + .ra: lr
STACK CFI INIT e8d70 b0 .cfa: sp 0 + .ra: lr
STACK CFI e8d74 .cfa: sp 16 +
STACK CFI e8d84 .ra: .cfa -4 + ^ r4: .cfa -16 + ^ r5: .cfa -12 + ^ r6: .cfa -8 + ^
STACK CFI INIT e8e20 78 .cfa: sp 0 + .ra: lr
STACK CFI e8e24 .cfa: sp 12 +
STACK CFI e8e2c .ra: .cfa -4 + ^ r4: .cfa -12 + ^ r5: .cfa -8 + ^
STACK CFI INIT e8e98 110 .cfa: sp 0 + .ra: lr
STACK CFI e8e9c .cfa: sp 24 +
STACK CFI e8ea0 .ra: .cfa -4 + ^ r4: .cfa -24 + ^ r5: .cfa -20 + ^ r6: .cfa -16 + ^ r7: .cfa -12 + ^ r8: .cfa -8 + ^
STACK CFI e8ea8 .cfa: sp 40 +
STACK CFI INIT e8fa8 19c .cfa: sp 0 + .ra: lr
STACK CFI e8fb8 .cfa: sp 28 +
STACK CFI e8fbc .ra: .cfa -4 + ^ r10: .cfa -8 + ^ r4: .cfa -28 + ^ r5: .cfa -24 + ^ r6: .cfa -20 + ^ r7: .cfa -16 + ^ r8: .cfa -12 + ^
STACK CFI e8fc0 .cfa: sp 48 +
STACK CFI INIT e9144 c8 .cfa: sp 0 + .ra: lr
STACK CFI e9148 .cfa: sp 24 +
STACK CFI e914c .ra: .cfa -4 + ^ r3: .cfa -24 + ^ r4: .cfa -20 + ^ r5: .cfa -16 + ^ r6: .cfa -12 + ^ r7: .cfa -8 + ^
STACK CFI INIT e920c 598 .cfa: sp 0 + .ra: lr
STACK CFI e921c .cfa: sp 36 +
STACK CFI e9220 .ra: .cfa -4 + ^ r10: .cfa -12 + ^ r11: .cfa -8 + ^ r4: .cfa -36 + ^ r5: .cfa -32 + ^ r6: .cfa -28 + ^ r7: .cfa -24 + ^ r8: .cfa -20 + ^ r9: .cfa -16 + ^
STACK CFI e9224 .cfa: sp 328 +
STACK CFI INIT e97a4 74 .cfa: sp 0 + .ra: lr
STACK CFI e97ac .cfa: sp 8 +
STACK CFI e97b8 .ra: .cfa -4 + ^ r4: .cfa -8 + ^
STACK CFI INIT e9818 3dc .cfa: sp 0 + .ra: lr
STACK CFI e981c .cfa: sp 36 +
STACK CFI e9820 .ra: .cfa -4 + ^ r10: .cfa -12 + ^ r11: .cfa -8 + ^ r4: .cfa -36 + ^ r5: .cfa -32 + ^ r6: .cfa -28 + ^ r7: .cfa -24 + ^ r8: .cfa -20 + ^ r9: .cfa -16 + ^
STACK CFI e9830 .cfa: sp 56 +
STACK CFI INIT e9bf4 144 .cfa: sp 0 + .ra: lr
STACK CFI e9bf8 .cfa: sp 32 +
STACK CFI e9bfc .ra: .cfa -4 + ^ r10: .cfa -8 + ^ r4: .cfa -32 + ^ r5: .cfa -28 + ^ r6: .cfa -24 + ^ r7: .cfa -20 + ^ r8: .cfa -16 + ^ r9: .cfa -12 + ^
STACK CFI INIT e9d38 64 .cfa: sp 0 + .ra: lr
STACK CFI e9d3c .cfa: sp 16 +
STACK CFI e9d40 .ra: .cfa -4 + ^ r3: .cfa -16 + ^ r4: .cfa -12 + ^ r5: .cfa -8 + ^
STACK CFI INIT e9d9c 1a8 .cfa: sp 0 + .ra: lr
STACK CFI e9da4 .cfa: sp 24 +
STACK CFI e9da8 .ra: .cfa -4 + ^ r4: .cfa -24 + ^ r5: .cfa -20 + ^ r6: .cfa -16 + ^ r7: .cfa -12 + ^ r8: .cfa -8 + ^
STACK CFI INIT e9f44 130 .cfa: sp 0 + .ra: lr
STACK CFI e9f4c .cfa: sp 16 +
STACK CFI e9f54 .cfa: sp 104 +
STACK CFI e9f58 .ra: .cfa -4 + ^ r4: .cfa -16 + ^ r5: .cfa -12 + ^ r6: .cfa -8 + ^
STACK CFI INIT ea074 1c .cfa: sp 0 + .ra: lr
STACK CFI ea07c .cfa: sp 4 +
STACK CFI ea080 .ra: .cfa -4 + ^
STACK CFI INIT ea090 8c .cfa: sp 0 + .ra: lr
STACK CFI ea094 .cfa: sp 20 +
STACK CFI ea098 .cfa: sp 152 +
STACK CFI ea09c .ra: .cfa -4 + ^ r4: .cfa -20 + ^ r5: .cfa -16 + ^ r6: .cfa -12 + ^ r7: .cfa -8 + ^
STACK CFI INIT 117000 f4 .cfa: sp 0 + .ra: lr
STACK CFI 117008 .cfa: sp 24 +
STACK CFI 117010 .ra: .cfa -4 + ^ r4: .cfa -24 + ^ r5: .cfa -20 + ^ r6: .cfa -16 + ^ r7: .cfa -12 + ^ r8: .cfa -8 + ^
STACK CFI INIT ea11c 1c .cfa: sp 0 + .ra: lr
STACK CFI INIT ea138 630 .cfa: sp 0 + .ra: lr
STACK CFI ea13c .cfa: sp 36 +
STACK CFI ea140 .ra: .cfa -4 + ^ r10: .cfa -12 + ^ r11: .cfa -8 + ^ r4: .cfa -36 + ^ r5: .cfa -32 + ^ r6: .cfa -28 + ^ r7: .cfa -24 + ^ r8: .cfa -20 + ^ r9: .cfa -16 + ^
STACK CFI ea144 .cfa: sp 72 +
STACK CFI INIT ea768 4c8 .cfa: sp 0 + .ra: lr
STACK CFI ea76c .cfa: sp 36 +
STACK CFI ea770 .ra: .cfa -4 + ^ r10: .cfa -12 + ^ r11: .cfa -8 + ^ r4: .cfa -36 + ^ r5: .cfa -32 + ^ r6: .cfa -28 + ^ r7: .cfa -24 + ^ r8: .cfa -20 + ^ r9: .cfa -16 + ^
STACK CFI ea784 .cfa: sp 72 +
STACK CFI INIT eac30 2c8 .cfa: sp 0 + .ra: lr
STACK CFI eac34 .cfa: sp 24 +
STACK CFI eac38 .ra: .cfa -4 + ^ r4: .cfa -24 + ^ r5: .cfa -20 + ^ r6: .cfa -16 + ^ r7: .cfa -12 + ^ r8: .cfa -8 + ^
STACK CFI INIT eaef8 35c .cfa: sp 0 + .ra: lr
STACK CFI eaefc .cfa: sp 36 +
STACK CFI eaf00 .ra: .cfa -4 + ^ r10: .cfa -12 + ^ r11: .cfa -8 + ^ r4: .cfa -36 + ^ r5: .cfa -32 + ^ r6: .cfa -28 + ^ r7: .cfa -24 + ^ r8: .cfa -20 + ^ r9: .cfa -16 + ^
STACK CFI eaf08 .cfa: r11 4 +
STACK CFI INIT eb254 118 .cfa: sp 0 + .ra: lr
STACK CFI eb258 .cfa: sp 24 +
STACK CFI eb25c .ra: .cfa -4 + ^ r4: .cfa -24 + ^ r5: .cfa -20 + ^ r6: .cfa -16 + ^ r7: .cfa -12 + ^ r8: .cfa -8 + ^
STACK CFI INIT 1145a0 2c .cfa: sp 0 + .ra: lr
STACK CFI 1145a4 .cfa: sp 4 +
STACK CFI 1145a8 .ra: .cfa -4 + ^
STACK CFI 1145ac .cfa: sp 16 +
STACK CFI INIT eb36c ac .cfa: sp 0 + .ra: lr
STACK CFI eb370 .cfa: sp 24 +
STACK CFI eb374 .ra: .cfa -4 + ^ r4: .cfa -24 + ^ r5: .cfa -20 + ^ r6: .cfa -16 + ^ r7: .cfa -12 + ^ r8: .cfa -8 + ^
STACK CFI INIT eb418 48 .cfa: sp 0 + .ra: lr
STACK CFI INIT eb460 108 .cfa: sp 0 + .ra: lr
STACK CFI eb464 .cfa: sp 36 +
STACK CFI eb468 .ra: .cfa -4 + ^ r10: .cfa -12 + ^ r11: .cfa -8 + ^ r4: .cfa -36 + ^ r5: .cfa -32 + ^ r6: .cfa -28 + ^ r7: .cfa -24 + ^ r8: .cfa -20 + ^ r9: .cfa -16 + ^
STACK CFI eb46c .cfa: sp 64 +
STACK CFI INIT eb568 94 .cfa: sp 0 + .ra: lr
STACK CFI eb56c .cfa: sp 24 +
STACK CFI eb570 .ra: .cfa -4 + ^ r4: .cfa -24 + ^ r5: .cfa -20 + ^ r6: .cfa -16 + ^ r7: .cfa -12 + ^ r8: .cfa -8 + ^
STACK CFI INIT eb5fc 11c .cfa: sp 0 + .ra: lr
STACK CFI eb600 .cfa: sp 32 +
STACK CFI eb604 .cfa: sp 48 +
STACK CFI eb608 .ra: .cfa -4 + ^ r10: .cfa -8 + ^ r4: .cfa -32 + ^ r5: .cfa -28 + ^ r6: .cfa -24 + ^ r7: .cfa -20 + ^ r8: .cfa -16 + ^ r9: .cfa -12 + ^
STACK CFI INIT eb718 e4 .cfa: sp 0 + .ra: lr
STACK CFI eb71c .cfa: sp 28 +
STACK CFI eb720 .cfa: sp 48 +
STACK CFI eb724 .ra: .cfa -4 + ^ r10: .cfa -8 + ^ r4: .cfa -28 + ^ r5: .cfa -24 + ^ r6: .cfa -20 + ^ r7: .cfa -16 + ^ r8: .cfa -12 + ^
STACK CFI INIT eb7fc 24c .cfa: sp 0 + .ra: lr
STACK CFI eb800 .cfa: sp 36 +
STACK CFI eb804 .cfa: sp 64 +
STACK CFI eb808 .ra: .cfa -4 + ^ r10: .cfa -12 + ^ r11: .cfa -8 + ^ r4: .cfa -36 + ^ r5: .cfa -32 + ^ r6: .cfa -28 + ^ r7: .cfa -24 + ^ r8: .cfa -20 + ^ r9: .cfa -16 + ^
STACK CFI INIT eba48 80 .cfa: sp 0 + .ra: lr
STACK CFI eba4c .cfa: sp 24 +
STACK CFI eba50 .ra: .cfa -4 + ^ r4: .cfa -24 + ^ r5: .cfa -20 + ^ r6: .cfa -16 + ^ r7: .cfa -12 + ^ r8: .cfa -8 + ^
STACK CFI INIT 1145cc c .cfa: sp 0 + .ra: lr
STACK CFI INIT ebac8 80 .cfa: sp 0 + .ra: lr
STACK CFI ebacc .cfa: sp 24 +
STACK CFI ebad0 .ra: .cfa -4 + ^ r4: .cfa -24 + ^ r5: .cfa -20 + ^ r6: .cfa -16 + ^ r7: .cfa -12 + ^ r8: .cfa -8 + ^
STACK CFI INIT 1145d8 c .cfa: sp 0 + .ra: lr
STACK CFI INIT ebb48 88 .cfa: sp 0 + .ra: lr
STACK CFI ebb4c .cfa: sp 24 +
STACK CFI ebb50 .ra: .cfa -4 + ^ r4: .cfa -24 + ^ r5: .cfa -20 + ^ r6: .cfa -16 + ^ r7: .cfa -12 + ^ r8: .cfa -8 + ^
STACK CFI INIT 1145e4 c .cfa: sp 0 + .ra: lr
STACK CFI INIT ebbd0 88 .cfa: sp 0 + .ra: lr
STACK CFI ebbd4 .cfa: sp 24 +
STACK CFI ebbd8 .ra: .cfa -4 + ^ r4: .cfa -24 + ^ r5: .cfa -20 + ^ r6: .cfa -16 + ^ r7: .cfa -12 + ^ r8: .cfa -8 + ^
STACK CFI INIT 1145f0 c .cfa: sp 0 + .ra: lr
STACK CFI INIT ebc58 78 .cfa: sp 0 + .ra: lr
STACK CFI ebc5c .cfa: sp 24 +
STACK CFI ebc60 .ra: .cfa -4 + ^ r4: .cfa -24 + ^ r5: .cfa -20 + ^ r6: .cfa -16 + ^ r7: .cfa -12 + ^ r8: .cfa -8 + ^
STACK CFI INIT 1145fc c .cfa: sp 0 + .ra: lr
STACK CFI INIT ebcd0 78 .cfa: sp 0 + .ra: lr
STACK CFI ebcd4 .cfa: sp 24 +
STACK CFI ebcd8 .ra: .cfa -4 + ^ r4: .cfa -24 + ^ r5: .cfa -20 + ^ r6: .cfa -16 + ^ r7: .cfa -12 + ^ r8: .cfa -8 + ^
STACK CFI INIT ebd48 80 .cfa: sp 0 + .ra: lr
STACK CFI ebd4c .cfa: sp 24 +
STACK CFI ebd50 .ra: .cfa -4 + ^ r4: .cfa -24 + ^ r5: .cfa -20 + ^ r6: .cfa -16 + ^ r7: .cfa -12 + ^ r8: .cfa -8 + ^
STACK CFI INIT 114608 c .cfa: sp 0 + .ra: lr
STACK CFI INIT ebdc8 80 .cfa: sp 0 + .ra: lr
STACK CFI ebdcc .cfa: sp 24 +
STACK CFI ebdd0 .ra: .cfa -4 + ^ r4: .cfa -24 + ^ r5: .cfa -20 + ^ r6: .cfa -16 + ^ r7: .cfa -12 + ^ r8: .cfa -8 + ^
STACK CFI INIT 114614 c .cfa: sp 0 + .ra: lr
STACK CFI INIT ebe48 78 .cfa: sp 0 + .ra: lr
STACK CFI ebe4c .cfa: sp 24 +
STACK CFI ebe50 .ra: .cfa -4 + ^ r4: .cfa -24 + ^ r5: .cfa -20 + ^ r6: .cfa -16 + ^ r7: .cfa -12 + ^ r8: .cfa -8 + ^
STACK CFI INIT 114620 c .cfa: sp 0 + .ra: lr
STACK CFI INIT ebec0 78 .cfa: sp 0 + .ra: lr
STACK CFI ebec4 .cfa: sp 24 +
STACK CFI ebec8 .ra: .cfa -4 + ^ r4: .cfa -24 + ^ r5: .cfa -20 + ^ r6: .cfa -16 + ^ r7: .cfa -12 + ^ r8: .cfa -8 + ^
STACK CFI INIT 11462c c .cfa: sp 0 + .ra: lr
STACK CFI INIT ebf38 78 .cfa: sp 0 + .ra: lr
STACK CFI ebf3c .cfa: sp 24 +
STACK CFI ebf40 .ra: .cfa -4 + ^ r4: .cfa -24 + ^ r5: .cfa -20 + ^ r6: .cfa -16 + ^ r7: .cfa -12 + ^ r8: .cfa -8 + ^
STACK CFI INIT 114638 c .cfa: sp 0 + .ra: lr
STACK CFI INIT ebfb0 80 .cfa: sp 0 + .ra: lr
STACK CFI ebfb4 .cfa: sp 24 +
STACK CFI ebfb8 .ra: .cfa -4 + ^ r4: .cfa -24 + ^ r5: .cfa -20 + ^ r6: .cfa -16 + ^ r7: .cfa -12 + ^ r8: .cfa -8 + ^
STACK CFI INIT 114644 c .cfa: sp 0 + .ra: lr
STACK CFI INIT ec030 78 .cfa: sp 0 + .ra: lr
STACK CFI ec034 .cfa: sp 24 +
STACK CFI ec038 .ra: .cfa -4 + ^ r4: .cfa -24 + ^ r5: .cfa -20 + ^ r6: .cfa -16 + ^ r7: .cfa -12 + ^ r8: .cfa -8 + ^
STACK CFI INIT 114650 c .cfa: sp 0 + .ra: lr
STACK CFI INIT ec0a8 72c .cfa: sp 0 + .ra: lr
STACK CFI ec0ac .cfa: sp 36 +
STACK CFI ec0b0 .ra: .cfa -4 + ^ r10: .cfa -12 + ^ r11: .cfa -8 + ^ r4: .cfa -36 + ^ r5: .cfa -32 + ^ r6: .cfa -28 + ^ r7: .cfa -24 + ^ r8: .cfa -20 + ^ r9: .cfa -16 + ^
STACK CFI ec0c0 .cfa: sp 56 +
STACK CFI INIT ec7d4 4 .cfa: sp 0 + .ra: lr
STACK CFI INIT ec7d8 144 .cfa: sp 0 + .ra: lr
STACK CFI ec7e0 .cfa: sp 24 +
STACK CFI ec7e4 .ra: .cfa -4 + ^ r4: .cfa -24 + ^ r5: .cfa -20 + ^ r6: .cfa -16 + ^ r7: .cfa -12 + ^ r8: .cfa -8 + ^
STACK CFI INIT ec91c 258 .cfa: sp 0 + .ra: lr
STACK CFI ec924 .cfa: sp 24 +
STACK CFI ec928 .ra: .cfa -4 + ^ r4: .cfa -24 + ^ r5: .cfa -20 + ^ r6: .cfa -16 + ^ r7: .cfa -12 + ^ r8: .cfa -8 + ^
STACK CFI INIT ecb74 148 .cfa: sp 0 + .ra: lr
STACK CFI ecb7c .cfa: sp 24 +
STACK CFI ecb80 .ra: .cfa -4 + ^ r3: .cfa -24 + ^ r4: .cfa -20 + ^ r5: .cfa -16 + ^ r6: .cfa -12 + ^ r7: .cfa -8 + ^
STACK CFI INIT eccbc 1b8 .cfa: sp 0 + .ra: lr
STACK CFI eccc4 .cfa: sp 24 +
STACK CFI eccc8 .ra: .cfa -4 + ^ r3: .cfa -24 + ^ r4: .cfa -20 + ^ r5: .cfa -16 + ^ r6: .cfa -12 + ^ r7: .cfa -8 + ^
STACK CFI INIT ece74 84 .cfa: sp 0 + .ra: lr
STACK CFI ece7c .cfa: sp 8 +
STACK CFI ece84 .ra: .cfa -4 + ^ r4: .cfa -8 + ^
STACK CFI INIT ecef8 d4 .cfa: sp 0 + .ra: lr
STACK CFI ecf00 .cfa: sp 8 +
STACK CFI ecf08 .ra: .cfa -4 + ^ r4: .cfa -8 + ^
STACK CFI INIT ecfcc f4 .cfa: sp 0 + .ra: lr
STACK CFI ecfd4 .cfa: sp 8 +
STACK CFI ecfdc .ra: .cfa -4 + ^ r4: .cfa -8 + ^
STACK CFI INIT ed0c0 2bc .cfa: sp 0 + .ra: lr
STACK CFI ed0c8 .cfa: sp 32 +
STACK CFI ed0cc .ra: .cfa -4 + ^ r10: .cfa -8 + ^ r3: .cfa -32 + ^ r4: .cfa -28 + ^ r5: .cfa -24 + ^ r6: .cfa -20 + ^ r7: .cfa -16 + ^ r8: .cfa -12 + ^
STACK CFI INIT ed37c 280 .cfa: sp 0 + .ra: lr
STACK CFI ed384 .cfa: sp 16 +
STACK CFI ed388 .ra: .cfa -4 + ^ r4: .cfa -16 + ^ r5: .cfa -12 + ^ r6: .cfa -8 + ^
STACK CFI INIT ed5fc 270 .cfa: sp 0 + .ra: lr
STACK CFI ed604 .cfa: sp 16 +
STACK CFI ed608 .ra: .cfa -4 + ^ r3: .cfa -16 + ^ r4: .cfa -12 + ^ r5: .cfa -8 + ^
STACK CFI INIT ed86c 30 .cfa: sp 0 + .ra: lr
STACK CFI ed870 .cfa: sp 4 +
STACK CFI ed874 .cfa: sp 8 +
STACK CFI ed878 .cfa: sp 24 +
STACK CFI ed880 .ra: .cfa -8 + ^ r3: .cfa -4 + ^
STACK CFI INIT ed89c 8 .cfa: sp 0 + .ra: lr
STACK CFI ed8a0 .cfa: sp 8 + .ra: .cfa -4 + ^ r3: .cfa -8 + ^
STACK CFI INIT ed8a4 9c .cfa: sp 0 + .ra: lr
STACK CFI ed8a8 .cfa: sp 24 +
STACK CFI ed8ac .ra: .cfa -4 + ^ r4: .cfa -24 + ^ r5: .cfa -20 + ^ r6: .cfa -16 + ^ r7: .cfa -12 + ^ r8: .cfa -8 + ^
STACK CFI ed8b0 .cfa: sp 200 +
STACK CFI INIT ed940 28 .cfa: sp 0 + .ra: lr
STACK CFI ed944 .cfa: sp 4 +
STACK CFI ed948 .cfa: sp 24 +
STACK CFI ed950 .ra: .cfa -4 + ^
STACK CFI INIT ed968 c0 .cfa: sp 0 + .ra: lr
STACK CFI ed970 .cfa: sp 24 +
STACK CFI ed974 .ra: .cfa -4 + ^ r4: .cfa -24 + ^ r5: .cfa -20 + ^ r6: .cfa -16 + ^ r7: .cfa -12 + ^ r8: .cfa -8 + ^
STACK CFI ed978 .cfa: sp 264 +
STACK CFI INIT eda28 23c .cfa: sp 0 + .ra: lr
STACK CFI eda2c .cfa: sp 12 +
STACK CFI eda30 r1: .cfa -12 + ^ r2: .cfa -8 + ^ r3: .cfa -4 + ^
STACK CFI eda3c .cfa: sp 40 +
STACK CFI eda40 .ra: .cfa -16 + ^ r10: .cfa -20 + ^ r4: .cfa -40 + ^ r5: .cfa -36 + ^ r6: .cfa -32 + ^ r7: .cfa -28 + ^ r8: .cfa -24 + ^
STACK CFI eda44 .cfa: sp 48 +
STACK CFI INIT edc64 214 .cfa: sp 0 + .ra: lr
STACK CFI edc68 .cfa: sp 8 +
STACK CFI edc6c .cfa: sp 32 +
STACK CFI edc70 .ra: .cfa -12 + ^ r2: .cfa -8 + ^ r3: .cfa -4 + ^ r4: .cfa -32 + ^ r5: .cfa -28 + ^ r6: .cfa -24 + ^ r7: .cfa -20 + ^ r8: .cfa -16 + ^
STACK CFI edc74 .cfa: sp 40 +
STACK CFI INIT ede78 228 .cfa: sp 0 + .ra: lr
STACK CFI ede7c .cfa: sp 40 +
STACK CFI ede80 .ra: .cfa -4 + ^ r10: .cfa -12 + ^ r11: .cfa -8 + ^ r3: .cfa -40 + ^ r4: .cfa -36 + ^ r5: .cfa -32 + ^ r6: .cfa -28 + ^ r7: .cfa -24 + ^ r8: .cfa -20 + ^ r9: .cfa -16 + ^
STACK CFI INIT ee0a0 200 .cfa: sp 0 + .ra: lr
STACK CFI ee0a4 .cfa: sp 32 +
STACK CFI ee0a8 .ra: .cfa -4 + ^ r10: .cfa -8 + ^ r4: .cfa -32 + ^ r5: .cfa -28 + ^ r6: .cfa -24 + ^ r7: .cfa -20 + ^ r8: .cfa -16 + ^ r9: .cfa -12 + ^
STACK CFI INIT ee2a0 2a0 .cfa: sp 0 + .ra: lr
STACK CFI ee2a4 .cfa: sp 28 +
STACK CFI ee2a8 .ra: .cfa -4 + ^ r10: .cfa -8 + ^ r4: .cfa -28 + ^ r5: .cfa -24 + ^ r6: .cfa -20 + ^ r7: .cfa -16 + ^ r8: .cfa -12 + ^
STACK CFI ee2ac .cfa: sp 40 +
STACK CFI INIT ee540 14 .cfa: sp 0 + .ra: lr
STACK CFI ee548 .cfa: sp 8 +
STACK CFI ee54c .ra: .cfa -4 + ^ r3: .cfa -8 + ^
STACK CFI INIT ee554 1d0 .cfa: sp 0 + .ra: lr
STACK CFI ee558 .cfa: sp 24 +
STACK CFI ee55c .ra: .cfa -4 + ^ r4: .cfa -24 + ^ r5: .cfa -20 + ^ r6: .cfa -16 + ^ r7: .cfa -12 + ^ r8: .cfa -8 + ^
STACK CFI ee56c .cfa: sp 40 +
STACK CFI INIT ee724 25c .cfa: sp 0 + .ra: lr
STACK CFI ee728 .cfa: sp 32 +
STACK CFI ee72c .ra: .cfa -4 + ^ r10: .cfa -8 + ^ r4: .cfa -32 + ^ r5: .cfa -28 + ^ r6: .cfa -24 + ^ r7: .cfa -20 + ^ r8: .cfa -16 + ^ r9: .cfa -12 + ^
STACK CFI ee730 .cfa: sp 40 +
STACK CFI INIT ee980 c8 .cfa: sp 0 + .ra: lr
STACK CFI ee988 .cfa: sp 20 +
STACK CFI ee98c .ra: .cfa -4 + ^ r4: .cfa -20 + ^ r5: .cfa -16 + ^ r6: .cfa -12 + ^ r7: .cfa -8 + ^
STACK CFI ee990 .cfa: sp 32 +
STACK CFI INIT eea48 4c .cfa: sp 0 + .ra: lr
STACK CFI eea50 .cfa: sp 8 +
STACK CFI eea54 .ra: .cfa -4 + ^ r7: .cfa -8 + ^
STACK CFI INIT eea94 1c .cfa: sp 0 + .ra: lr
STACK CFI eea98 .cfa: sp 8 +
STACK CFI eeaa4 .ra: .cfa -4 + ^ r4: .cfa -8 + ^
STACK CFI INIT eeab0 24 .cfa: sp 0 + .ra: lr
STACK CFI eeab4 .cfa: sp 16 +
STACK CFI eeabc .ra: .cfa -4 + ^ r4: .cfa -16 + ^ r5: .cfa -12 + ^ r6: .cfa -8 + ^
STACK CFI INIT eead4 1c .cfa: sp 0 + .ra: lr
STACK CFI eead8 .cfa: sp 8 +
STACK CFI eeae4 .ra: .cfa -4 + ^ r4: .cfa -8 + ^
STACK CFI INIT eeaf0 28 .cfa: sp 0 + .ra: lr
STACK CFI eeaf4 .cfa: sp 8 +
STACK CFI eeb04 .ra: .cfa -4 + ^ r4: .cfa -8 + ^
STACK CFI INIT eeb18 4c .cfa: sp 0 + .ra: lr
STACK CFI eeb20 .cfa: sp 8 +
STACK CFI eeb24 .ra: .cfa -4 + ^ r7: .cfa -8 + ^
STACK CFI INIT eeb64 1c .cfa: sp 0 + .ra: lr
STACK CFI eeb68 .cfa: sp 8 +
STACK CFI eeb74 .ra: .cfa -4 + ^ r4: .cfa -8 + ^
STACK CFI INIT eeb80 38 .cfa: sp 0 + .ra: lr
STACK CFI eeb84 .cfa: sp 8 + .ra: .cfa -4 + ^ r3: .cfa -8 + ^
STACK CFI INIT eebb8 18 .cfa: sp 0 + .ra: lr
STACK CFI eebc0 .cfa: sp 8 +
STACK CFI eebc4 .ra: .cfa -4 + ^ r4: .cfa -8 + ^
STACK CFI INIT eebd0 18 .cfa: sp 0 + .ra: lr
STACK CFI eebd8 .cfa: sp 8 +
STACK CFI eebdc .ra: .cfa -4 + ^ r4: .cfa -8 + ^
STACK CFI INIT eebe8 18 .cfa: sp 0 + .ra: lr
STACK CFI eebf0 .cfa: sp 8 +
STACK CFI eebf4 .ra: .cfa -4 + ^ r4: .cfa -8 + ^
STACK CFI INIT eec00 238 .cfa: sp 0 + .ra: lr
STACK CFI eec04 .cfa: sp 40 +
STACK CFI eec08 .ra: .cfa -4 + ^ r10: .cfa -12 + ^ r11: .cfa -8 + ^ r3: .cfa -40 + ^ r4: .cfa -36 + ^ r5: .cfa -32 + ^ r6: .cfa -28 + ^ r7: .cfa -24 + ^ r8: .cfa -20 + ^ r9: .cfa -16 + ^
STACK CFI INIT eee38 8c .cfa: sp 0 + .ra: lr
STACK CFI eee3c .cfa: sp 24 +
STACK CFI eee40 .ra: .cfa -4 + ^ r4: .cfa -24 + ^ r5: .cfa -20 + ^ r6: .cfa -16 + ^ r7: .cfa -12 + ^ r8: .cfa -8 + ^
STACK CFI INIT eeec4 18 .cfa: sp 0 + .ra: lr
STACK CFI eeecc .cfa: sp 8 +
STACK CFI eeed0 .ra: .cfa -4 + ^ r4: .cfa -8 + ^
STACK CFI INIT eeedc 40 .cfa: sp 0 + .ra: lr
STACK CFI eeee4 .cfa: sp 8 +
STACK CFI eeee8 .ra: .cfa -4 + ^ r4: .cfa -8 + ^
STACK CFI INIT eef1c 18 .cfa: sp 0 + .ra: lr
STACK CFI eef24 .cfa: sp 8 +
STACK CFI eef28 .ra: .cfa -4 + ^ r4: .cfa -8 + ^
STACK CFI INIT eef34 18 .cfa: sp 0 + .ra: lr
STACK CFI eef3c .cfa: sp 8 +
STACK CFI eef40 .ra: .cfa -4 + ^ r4: .cfa -8 + ^
STACK CFI INIT eef4c 18 .cfa: sp 0 + .ra: lr
STACK CFI eef54 .cfa: sp 8 +
STACK CFI eef58 .ra: .cfa -4 + ^ r4: .cfa -8 + ^
STACK CFI INIT eef64 30 .cfa: sp 0 + .ra: lr
STACK CFI eef68 .cfa: sp 8 +
STACK CFI eef6c .cfa: sp 12 +
STACK CFI eef70 .cfa: sp 24 +
STACK CFI eef78 .ra: .cfa -12 + ^ r2: .cfa -8 + ^ r3: .cfa -4 + ^
STACK CFI INIT eef94 164 .cfa: sp 0 + .ra: lr
STACK CFI eef98 .cfa: sp 28 +
STACK CFI eef9c .ra: .cfa -4 + ^ r10: .cfa -8 + ^ r4: .cfa -28 + ^ r5: .cfa -24 + ^ r6: .cfa -20 + ^ r7: .cfa -16 + ^ r8: .cfa -12 + ^
STACK CFI eefa0 .cfa: sp 208 +
STACK CFI INIT ef0f8 30 .cfa: sp 0 + .ra: lr
STACK CFI ef0fc .cfa: sp 8 +
STACK CFI ef100 .cfa: sp 12 +
STACK CFI ef104 .cfa: sp 24 +
STACK CFI ef10c .ra: .cfa -12 + ^ r2: .cfa -8 + ^ r3: .cfa -4 + ^
STACK CFI INIT ef128 d8 .cfa: sp 0 + .ra: lr
STACK CFI ef12c .cfa: sp 20 +
STACK CFI ef130 .ra: .cfa -4 + ^ r4: .cfa -20 + ^ r5: .cfa -16 + ^ r6: .cfa -12 + ^ r7: .cfa -8 + ^
STACK CFI ef134 .cfa: sp 384 +
STACK CFI INIT ef200 19c .cfa: sp 0 + .ra: lr
STACK CFI ef204 .cfa: sp 28 +
STACK CFI ef20c .cfa: sp 208 +
STACK CFI ef210 .ra: .cfa -4 + ^ r10: .cfa -8 + ^ r4: .cfa -28 + ^ r5: .cfa -24 + ^ r6: .cfa -20 + ^ r7: .cfa -16 + ^ r8: .cfa -12 + ^
STACK CFI INIT ef39c 30 .cfa: sp 0 + .ra: lr
STACK CFI ef3a0 .cfa: sp 8 +
STACK CFI ef3a4 .cfa: sp 12 +
STACK CFI ef3a8 .cfa: sp 24 +
STACK CFI ef3b0 .ra: .cfa -12 + ^ r2: .cfa -8 + ^ r3: .cfa -4 + ^
STACK CFI INIT ef3cc 44 .cfa: sp 0 + .ra: lr
STACK CFI ef3d0 .cfa: sp 16 +
STACK CFI ef3d4 .ra: .cfa -4 + ^ r3: .cfa -16 + ^ r4: .cfa -12 + ^ r5: .cfa -8 + ^
STACK CFI INIT ef410 d4 .cfa: sp 0 + .ra: lr
STACK CFI ef438 .cfa: sp 16 +
STACK CFI ef488 r10: r10
STACK CFI ef48c .cfa: sp 0 + r5: r5 r7: r7
STACK CFI ef490 .ra: .ra r10: r10 r11: r11 r4: r4 r5: r5 r6: r6 r7: r7 r8: r8 r9: r9 sp: sp
STACK CFI INIT ef4f0 14 .cfa: sp 0 + .ra: lr
STACK CFI ef4f8 .cfa: sp 8 +
STACK CFI ef4fc .ra: .cfa -4 + ^ r3: .cfa -8 + ^
STACK CFI INIT ef504 50 .cfa: sp 0 + .ra: lr
STACK CFI ef508 .cfa: sp 24 +
STACK CFI ef50c .ra: .cfa -4 + ^ r3: .cfa -24 + ^ r4: .cfa -20 + ^ r5: .cfa -16 + ^ r6: .cfa -12 + ^ r7: .cfa -8 + ^
STACK CFI INIT ef554 18 .cfa: sp 0 + .ra: lr
STACK CFI ef55c .cfa: sp 8 +
STACK CFI ef560 .ra: .cfa -4 + ^ r4: .cfa -8 + ^
STACK CFI INIT ef56c 78 .cfa: sp 0 + .ra: lr
STACK CFI ef570 .cfa: sp 20 +
STACK CFI ef574 .cfa: r11 4 + .ra: .cfa -4 + ^ r11: .cfa -8 + ^ r4: .cfa -20 + ^ r5: .cfa -16 + ^ r6: .cfa -12 + ^
STACK CFI INIT 1170f4 34 .cfa: sp 0 + .ra: lr
STACK CFI 1170f8 .cfa: sp 16 +
STACK CFI 1170fc .ra: .cfa -4 + ^ r11: .cfa -8 + ^ r4: .cfa -16 + ^ r5: .cfa -12 + ^
STACK CFI 11710c .cfa: r11 4 +
STACK CFI INIT ef5e4 6c .cfa: sp 0 + .ra: lr
STACK CFI ef5ec .cfa: sp 16 +
STACK CFI ef5f4 .cfa: r11 4 + .ra: .cfa -4 + ^ r11: .cfa -8 + ^ r3: .cfa -16 + ^ r4: .cfa -12 + ^
STACK CFI INIT ef650 108 .cfa: sp 0 + .ra: lr
STACK CFI ef654 .cfa: sp 16 +
STACK CFI ef65c .cfa: r11 4 + .ra: .cfa -4 + ^ r11: .cfa -8 + ^ r4: .cfa -16 + ^ r5: .cfa -12 + ^
STACK CFI INIT ef758 470 .cfa: sp 0 + .ra: lr
STACK CFI ef75c .cfa: sp 36 +
STACK CFI ef764 .ra: .cfa -4 + ^ r10: .cfa -12 + ^ r11: .cfa -8 + ^ r4: .cfa -36 + ^ r5: .cfa -32 + ^ r6: .cfa -28 + ^ r7: .cfa -24 + ^ r8: .cfa -20 + ^ r9: .cfa -16 + ^
STACK CFI ef768 .cfa: r11 4 +
STACK CFI INIT efbc8 29c .cfa: sp 0 + .ra: lr
STACK CFI efbcc .cfa: sp 36 +
STACK CFI efbd0 .ra: .cfa -4 + ^ r10: .cfa -12 + ^ r11: .cfa -8 + ^ r4: .cfa -36 + ^ r5: .cfa -32 + ^ r6: .cfa -28 + ^ r7: .cfa -24 + ^ r8: .cfa -20 + ^ r9: .cfa -16 + ^
STACK CFI efbd4 .cfa: sp 184 +
STACK CFI INIT efe64 23c .cfa: sp 0 + .ra: lr
STACK CFI efe68 .cfa: sp 12 +
STACK CFI efe6c r1: .cfa -12 + ^ r2: .cfa -8 + ^ r3: .cfa -4 + ^
STACK CFI efe78 .cfa: sp 40 +
STACK CFI efe7c .ra: .cfa -16 + ^ r10: .cfa -20 + ^ r4: .cfa -40 + ^ r5: .cfa -36 + ^ r6: .cfa -32 + ^ r7: .cfa -28 + ^ r8: .cfa -24 + ^
STACK CFI efe80 .cfa: sp 48 +
STACK CFI INIT f00a0 214 .cfa: sp 0 + .ra: lr
STACK CFI f00a4 .cfa: sp 8 +
STACK CFI f00a8 .cfa: sp 32 +
STACK CFI f00ac .ra: .cfa -12 + ^ r2: .cfa -8 + ^ r3: .cfa -4 + ^ r4: .cfa -32 + ^ r5: .cfa -28 + ^ r6: .cfa -24 + ^ r7: .cfa -20 + ^ r8: .cfa -16 + ^
STACK CFI f00b0 .cfa: sp 40 +
STACK CFI INIT f02b4 228 .cfa: sp 0 + .ra: lr
STACK CFI f02b8 .cfa: sp 40 +
STACK CFI f02bc .ra: .cfa -4 + ^ r10: .cfa -12 + ^ r11: .cfa -8 + ^ r3: .cfa -40 + ^ r4: .cfa -36 + ^ r5: .cfa -32 + ^ r6: .cfa -28 + ^ r7: .cfa -24 + ^ r8: .cfa -20 + ^ r9: .cfa -16 + ^
STACK CFI INIT f04dc 200 .cfa: sp 0 + .ra: lr
STACK CFI f04e0 .cfa: sp 32 +
STACK CFI f04e4 .ra: .cfa -4 + ^ r10: .cfa -8 + ^ r4: .cfa -32 + ^ r5: .cfa -28 + ^ r6: .cfa -24 + ^ r7: .cfa -20 + ^ r8: .cfa -16 + ^ r9: .cfa -12 + ^
STACK CFI INIT f06dc 25c .cfa: sp 0 + .ra: lr
STACK CFI f06e0 .cfa: sp 32 +
STACK CFI f06e4 .ra: .cfa -4 + ^ r10: .cfa -8 + ^ r4: .cfa -32 + ^ r5: .cfa -28 + ^ r6: .cfa -24 + ^ r7: .cfa -20 + ^ r8: .cfa -16 + ^ r9: .cfa -12 + ^
STACK CFI f06e8 .cfa: sp 40 +
STACK CFI INIT f0938 c8 .cfa: sp 0 + .ra: lr
STACK CFI f0940 .cfa: sp 20 +
STACK CFI f0944 .ra: .cfa -4 + ^ r4: .cfa -20 + ^ r5: .cfa -16 + ^ r6: .cfa -12 + ^ r7: .cfa -8 + ^
STACK CFI f0948 .cfa: sp 32 +
STACK CFI INIT f0a00 48 .cfa: sp 0 + .ra: lr
STACK CFI f0a04 .cfa: sp 8 +
STACK CFI f0a08 .ra: .cfa -4 + ^ r4: .cfa -8 + ^
STACK CFI INIT f0a48 70 .cfa: sp 0 + .ra: lr
STACK CFI f0a50 .cfa: sp 8 +
STACK CFI f0a58 .ra: .cfa -4 + ^ r4: .cfa -8 + ^
STACK CFI INIT f0ab8 1c .cfa: sp 0 + .ra: lr
STACK CFI f0ac0 .cfa: sp 8 +
STACK CFI f0ac4 .ra: .cfa -4 + ^ r4: .cfa -8 + ^
STACK CFI INIT f0ad4 1c .cfa: sp 0 + .ra: lr
STACK CFI f0adc .cfa: sp 8 +
STACK CFI f0ae0 .ra: .cfa -4 + ^ r4: .cfa -8 + ^
STACK CFI INIT f0af0 1c .cfa: sp 0 + .ra: lr
STACK CFI f0af8 .cfa: sp 8 +
STACK CFI f0afc .ra: .cfa -4 + ^ r4: .cfa -8 + ^
STACK CFI INIT f0b0c 78 .cfa: sp 0 + .ra: lr
STACK CFI f0b10 .cfa: sp 8 +
STACK CFI f0b14 .ra: .cfa -4 + ^ r3: .cfa -8 + ^
STACK CFI INIT f0b84 18 .cfa: sp 0 + .ra: lr
STACK CFI f0b8c .cfa: sp 8 +
STACK CFI f0b90 .ra: .cfa -4 + ^ r4: .cfa -8 + ^
STACK CFI INIT f0b9c d4 .cfa: sp 0 + .ra: lr
STACK CFI f0ba4 .cfa: sp 8 +
STACK CFI f0bac .ra: .cfa -4 + ^ r4: .cfa -8 + ^
STACK CFI INIT f0c70 2bc .cfa: sp 0 + .ra: lr
STACK CFI f0c78 .cfa: sp 32 +
STACK CFI f0c7c .ra: .cfa -4 + ^ r10: .cfa -8 + ^ r3: .cfa -32 + ^ r4: .cfa -28 + ^ r5: .cfa -24 + ^ r6: .cfa -20 + ^ r7: .cfa -16 + ^ r8: .cfa -12 + ^
STACK CFI INIT f0f2c 18 .cfa: sp 0 + .ra: lr
STACK CFI f0f34 .cfa: sp 8 +
STACK CFI f0f38 .ra: .cfa -4 + ^ r4: .cfa -8 + ^
STACK CFI INIT f0f44 18 .cfa: sp 0 + .ra: lr
STACK CFI f0f4c .cfa: sp 8 +
STACK CFI f0f50 .ra: .cfa -4 + ^ r4: .cfa -8 + ^
STACK CFI INIT f0f5c 28 .cfa: sp 0 + .ra: lr
STACK CFI f0f60 .cfa: sp 4 +
STACK CFI f0f64 .cfa: sp 24 +
STACK CFI f0f6c .ra: .cfa -4 + ^
STACK CFI INIT f0f84 cc .cfa: sp 0 + .ra: lr
STACK CFI f0f8c .cfa: sp 20 +
STACK CFI f0f90 .ra: .cfa -4 + ^ r4: .cfa -20 + ^ r5: .cfa -16 + ^ r6: .cfa -12 + ^ r7: .cfa -8 + ^
STACK CFI f0f94 .cfa: sp 648 +
STACK CFI INIT f1050 3c .cfa: sp 0 + .ra: lr
STACK CFI f1054 .cfa: sp 16 +
STACK CFI f1058 .ra: .cfa -4 + ^ r4: .cfa -16 + ^ r5: .cfa -12 + ^ r6: .cfa -8 + ^
STACK CFI INIT f108c 24 .cfa: sp 0 + .ra: lr
STACK CFI f1090 .cfa: sp 8 +
STACK CFI f1098 .ra: .cfa -4 + ^ r4: .cfa -8 + ^
STACK CFI INIT f10b0 24 .cfa: sp 0 + .ra: lr
STACK CFI f10b4 .cfa: sp 8 +
STACK CFI f10bc .ra: .cfa -4 + ^ r4: .cfa -8 + ^
STACK CFI INIT f10d4 1c .cfa: sp 0 + .ra: lr
STACK CFI f10d8 .cfa: sp 8 +
STACK CFI f10e4 .ra: .cfa -4 + ^ r4: .cfa -8 + ^
STACK CFI INIT f10f0 1c .cfa: sp 0 + .ra: lr
STACK CFI f10f4 .cfa: sp 8 +
STACK CFI f1100 .ra: .cfa -4 + ^ r4: .cfa -8 + ^
STACK CFI INIT f110c 38 .cfa: sp 0 + .ra: lr
STACK CFI f1110 .cfa: sp 4 +
STACK CFI f1118 .cfa: sp 24 +
STACK CFI f1120 .ra: .cfa -4 + ^
STACK CFI INIT f1144 38 .cfa: sp 0 + .ra: lr
STACK CFI f1148 .cfa: sp 4 +
STACK CFI f1150 .cfa: sp 24 +
STACK CFI f1158 .ra: .cfa -4 + ^
STACK CFI INIT 117128 2c .cfa: sp 0 + .ra: lr
STACK CFI 11712c .cfa: sp 8 +
STACK CFI 117130 .ra: .cfa -4 + ^ r4: .cfa -8 + ^
STACK CFI INIT f117c 174 .cfa: sp 0 + .ra: lr
STACK CFI f1184 .cfa: sp 24 +
STACK CFI f1194 .ra: .cfa -4 + ^ r3: .cfa -24 + ^ r4: .cfa -20 + ^ r5: .cfa -16 + ^ r6: .cfa -12 + ^ r7: .cfa -8 + ^
STACK CFI INIT f12f0 cc .cfa: sp 0 + .ra: lr
STACK CFI f12f4 .cfa: sp 24 +
STACK CFI f12f8 .ra: .cfa -4 + ^ r4: .cfa -24 + ^ r5: .cfa -20 + ^ r6: .cfa -16 + ^ r7: .cfa -12 + ^ r8: .cfa -8 + ^
STACK CFI INIT f13bc a8 .cfa: sp 0 + .ra: lr
STACK CFI f13c0 .cfa: sp 8 +
STACK CFI f13c8 .cfa: sp 24 +
STACK CFI f13d0 .ra: .cfa -4 + ^ r4: .cfa -8 + ^
STACK CFI INIT f1464 14 .cfa: sp 0 + .ra: lr
STACK CFI INIT f1478 10 .cfa: sp 0 + .ra: lr
STACK CFI INIT f1488 30 .cfa: sp 0 + .ra: lr
STACK CFI INIT f14b8 48 .cfa: sp 0 + .ra: lr
STACK CFI INIT f1500 2c .cfa: sp 0 + .ra: lr
STACK CFI INIT f152c 70 .cfa: sp 0 + .ra: lr
STACK CFI f1530 .cfa: sp 16 +
STACK CFI f1534 .cfa: sp 40 +
STACK CFI f1538 .ra: .cfa -4 + ^ r4: .cfa -16 + ^ r5: .cfa -12 + ^ r6: .cfa -8 + ^
STACK CFI INIT f159c 284 .cfa: sp 0 + .ra: lr
STACK CFI f15a8 .cfa: sp 36 +
STACK CFI f15b0 .cfa: sp 72 +
STACK CFI f15b4 .ra: .cfa -4 + ^ r10: .cfa -12 + ^ r11: .cfa -8 + ^ r4: .cfa -36 + ^ r5: .cfa -32 + ^ r6: .cfa -28 + ^ r7: .cfa -24 + ^ r8: .cfa -20 + ^ r9: .cfa -16 + ^
STACK CFI INIT f1820 1c .cfa: sp 0 + .ra: lr
STACK CFI f1828 .cfa: sp 4 +
STACK CFI f182c .ra: .cfa -4 + ^
STACK CFI INIT f183c 22c .cfa: sp 0 + .ra: lr
STACK CFI f1840 .cfa: sp 36 +
STACK CFI f1844 .ra: .cfa -4 + ^ r10: .cfa -12 + ^ r11: .cfa -8 + ^ r4: .cfa -36 + ^ r5: .cfa -32 + ^ r6: .cfa -28 + ^ r7: .cfa -24 + ^ r8: .cfa -20 + ^ r9: .cfa -16 + ^
STACK CFI f1848 .cfa: sp 64 +
STACK CFI INIT f1a68 324 .cfa: sp 0 + .ra: lr
STACK CFI f1a6c .cfa: sp 36 +
STACK CFI f1a70 .ra: .cfa -4 + ^ r10: .cfa -12 + ^ r11: .cfa -8 + ^ r4: .cfa -36 + ^ r5: .cfa -32 + ^ r6: .cfa -28 + ^ r7: .cfa -24 + ^ r8: .cfa -20 + ^ r9: .cfa -16 + ^
STACK CFI f1a74 .cfa: sp 72 +
STACK CFI INIT f1d8c 24c .cfa: sp 0 + .ra: lr
STACK CFI f1d90 .cfa: sp 24 +
STACK CFI f1d94 .ra: .cfa -4 + ^ r4: .cfa -24 + ^ r5: .cfa -20 + ^ r6: .cfa -16 + ^ r7: .cfa -12 + ^ r8: .cfa -8 + ^
STACK CFI f1d98 .cfa: sp 64 +
STACK CFI INIT f1fd8 254 .cfa: sp 0 + .ra: lr
STACK CFI f1fdc .cfa: sp 28 +
STACK CFI f1fe0 .ra: .cfa -4 + ^ r10: .cfa -8 + ^ r4: .cfa -28 + ^ r5: .cfa -24 + ^ r6: .cfa -20 + ^ r7: .cfa -16 + ^ r8: .cfa -12 + ^
STACK CFI f1fe4 .cfa: sp 72 +
STACK CFI INIT f222c 304 .cfa: sp 0 + .ra: lr
STACK CFI f2230 .cfa: sp 36 +
STACK CFI f2238 .cfa: sp 88 +
STACK CFI f223c .ra: .cfa -4 + ^ r10: .cfa -12 + ^ r11: .cfa -8 + ^ r4: .cfa -36 + ^ r5: .cfa -32 + ^ r6: .cfa -28 + ^ r7: .cfa -24 + ^ r8: .cfa -20 + ^ r9: .cfa -16 + ^
STACK CFI INIT f2530 2fc .cfa: sp 0 + .ra: lr
STACK CFI f2534 .cfa: sp 36 +
STACK CFI f2538 .cfa: sp 88 +
STACK CFI f2540 .ra: .cfa -4 + ^ r10: .cfa -12 + ^ r11: .cfa -8 + ^ r4: .cfa -36 + ^ r5: .cfa -32 + ^ r6: .cfa -28 + ^ r7: .cfa -24 + ^ r8: .cfa -20 + ^ r9: .cfa -16 + ^
STACK CFI INIT f282c 130 .cfa: sp 0 + .ra: lr
STACK CFI f2830 .cfa: sp 32 +
STACK CFI f2834 .ra: .cfa -4 + ^ r10: .cfa -8 + ^ r4: .cfa -32 + ^ r5: .cfa -28 + ^ r6: .cfa -24 + ^ r7: .cfa -20 + ^ r8: .cfa -16 + ^ r9: .cfa -12 + ^
STACK CFI f2838 .cfa: sp 40 +
STACK CFI INIT f295c 128 .cfa: sp 0 + .ra: lr
STACK CFI f2960 .cfa: sp 28 +
STACK CFI f2964 .ra: .cfa -4 + ^ r10: .cfa -8 + ^ r4: .cfa -28 + ^ r5: .cfa -24 + ^ r6: .cfa -20 + ^ r7: .cfa -16 + ^ r8: .cfa -12 + ^
STACK CFI f2968 .cfa: sp 48 +
STACK CFI INIT f2a84 120 .cfa: sp 0 + .ra: lr
STACK CFI f2a88 .cfa: sp 28 +
STACK CFI f2a8c .ra: .cfa -4 + ^ r10: .cfa -8 + ^ r4: .cfa -28 + ^ r5: .cfa -24 + ^ r6: .cfa -20 + ^ r7: .cfa -16 + ^ r8: .cfa -12 + ^
STACK CFI f2a90 .cfa: sp 40 +
STACK CFI INIT f2ba4 168 .cfa: sp 0 + .ra: lr
STACK CFI f2ba8 .cfa: sp 32 +
STACK CFI f2bac .ra: .cfa -4 + ^ r10: .cfa -8 + ^ r4: .cfa -32 + ^ r5: .cfa -28 + ^ r6: .cfa -24 + ^ r7: .cfa -20 + ^ r8: .cfa -16 + ^ r9: .cfa -12 + ^
STACK CFI f2bbc .cfa: sp 72 +
STACK CFI INIT f2d0c 22c .cfa: sp 0 + .ra: lr
STACK CFI f2d10 .cfa: sp 28 +
STACK CFI f2d14 .ra: .cfa -4 + ^ r10: .cfa -8 + ^ r4: .cfa -28 + ^ r5: .cfa -24 + ^ r6: .cfa -20 + ^ r7: .cfa -16 + ^ r8: .cfa -12 + ^
STACK CFI f2d18 .cfa: sp 64 +
STACK CFI INIT f2f38 23c .cfa: sp 0 + .ra: lr
STACK CFI f2f3c .cfa: sp 36 +
STACK CFI f2f40 .ra: .cfa -4 + ^ r10: .cfa -12 + ^ r11: .cfa -8 + ^ r4: .cfa -36 + ^ r5: .cfa -32 + ^ r6: .cfa -28 + ^ r7: .cfa -24 + ^ r8: .cfa -20 + ^ r9: .cfa -16 + ^
STACK CFI f2f44 .cfa: sp 72 +
STACK CFI INIT f3174 220 .cfa: sp 0 + .ra: lr
STACK CFI f3178 .cfa: sp 24 +
STACK CFI f317c .ra: .cfa -4 + ^ r4: .cfa -24 + ^ r5: .cfa -20 + ^ r6: .cfa -16 + ^ r7: .cfa -12 + ^ r8: .cfa -8 + ^
STACK CFI f3180 .cfa: sp 48 +
STACK CFI INIT f3394 130 .cfa: sp 0 + .ra: lr
STACK CFI f3398 .cfa: sp 32 +
STACK CFI f339c .ra: .cfa -4 + ^ r10: .cfa -8 + ^ r4: .cfa -32 + ^ r5: .cfa -28 + ^ r6: .cfa -24 + ^ r7: .cfa -20 + ^ r8: .cfa -16 + ^ r9: .cfa -12 + ^
STACK CFI f33a0 .cfa: sp 40 +
STACK CFI INIT f34c4 128 .cfa: sp 0 + .ra: lr
STACK CFI f34c8 .cfa: sp 28 +
STACK CFI f34cc .ra: .cfa -4 + ^ r10: .cfa -8 + ^ r4: .cfa -28 + ^ r5: .cfa -24 + ^ r6: .cfa -20 + ^ r7: .cfa -16 + ^ r8: .cfa -12 + ^
STACK CFI f34d0 .cfa: sp 48 +
STACK CFI INIT f35ec 120 .cfa: sp 0 + .ra: lr
STACK CFI f35f0 .cfa: sp 28 +
STACK CFI f35f4 .ra: .cfa -4 + ^ r10: .cfa -8 + ^ r4: .cfa -28 + ^ r5: .cfa -24 + ^ r6: .cfa -20 + ^ r7: .cfa -16 + ^ r8: .cfa -12 + ^
STACK CFI f35f8 .cfa: sp 40 +
STACK CFI INIT f370c 168 .cfa: sp 0 + .ra: lr
STACK CFI f3710 .cfa: sp 32 +
STACK CFI f3714 .ra: .cfa -4 + ^ r10: .cfa -8 + ^ r4: .cfa -32 + ^ r5: .cfa -28 + ^ r6: .cfa -24 + ^ r7: .cfa -20 + ^ r8: .cfa -16 + ^ r9: .cfa -12 + ^
STACK CFI f3724 .cfa: sp 72 +
STACK CFI INIT f3874 234 .cfa: sp 0 + .ra: lr
STACK CFI f3878 .cfa: sp 36 +
STACK CFI f387c .ra: .cfa -4 + ^ r10: .cfa -12 + ^ r11: .cfa -8 + ^ r4: .cfa -36 + ^ r5: .cfa -32 + ^ r6: .cfa -28 + ^ r7: .cfa -24 + ^ r8: .cfa -20 + ^ r9: .cfa -16 + ^
STACK CFI f3880 .cfa: sp 64 +
STACK CFI INIT f3aa8 1e4 .cfa: sp 0 + .ra: lr
STACK CFI f3aac .cfa: sp 20 +
STACK CFI f3ab0 .ra: .cfa -4 + ^ r4: .cfa -20 + ^ r5: .cfa -16 + ^ r6: .cfa -12 + ^ r7: .cfa -8 + ^
STACK CFI f3ab4 .cfa: sp 48 +
STACK CFI INIT f3c8c 1a0 .cfa: sp 0 + .ra: lr
STACK CFI f3c90 .cfa: sp 36 +
STACK CFI f3c94 .ra: .cfa -4 + ^ r10: .cfa -12 + ^ r11: .cfa -8 + ^ r4: .cfa -36 + ^ r5: .cfa -32 + ^ r6: .cfa -28 + ^ r7: .cfa -24 + ^ r8: .cfa -20 + ^ r9: .cfa -16 + ^
STACK CFI f3c98 .cfa: sp 56 +
STACK CFI INIT f3e2c 11c .cfa: sp 0 + .ra: lr
STACK CFI f3e30 .cfa: sp 32 +
STACK CFI f3e34 .ra: .cfa -4 + ^ r10: .cfa -8 + ^ r4: .cfa -32 + ^ r5: .cfa -28 + ^ r6: .cfa -24 + ^ r7: .cfa -20 + ^ r8: .cfa -16 + ^ r9: .cfa -12 + ^
STACK CFI f3e38 .cfa: sp 40 +
STACK CFI INIT f3f48 128 .cfa: sp 0 + .ra: lr
STACK CFI f3f4c .cfa: sp 28 +
STACK CFI f3f50 .ra: .cfa -4 + ^ r10: .cfa -8 + ^ r4: .cfa -28 + ^ r5: .cfa -24 + ^ r6: .cfa -20 + ^ r7: .cfa -16 + ^ r8: .cfa -12 + ^
STACK CFI f3f54 .cfa: sp 48 +
STACK CFI INIT f4070 120 .cfa: sp 0 + .ra: lr
STACK CFI f4074 .cfa: sp 28 +
STACK CFI f4078 .ra: .cfa -4 + ^ r10: .cfa -8 + ^ r4: .cfa -28 + ^ r5: .cfa -24 + ^ r6: .cfa -20 + ^ r7: .cfa -16 + ^ r8: .cfa -12 + ^
STACK CFI f407c .cfa: sp 40 +
STACK CFI INIT f4190 15c .cfa: sp 0 + .ra: lr
STACK CFI f4194 .cfa: sp 32 +
STACK CFI f4198 .ra: .cfa -4 + ^ r10: .cfa -8 + ^ r4: .cfa -32 + ^ r5: .cfa -28 + ^ r6: .cfa -24 + ^ r7: .cfa -20 + ^ r8: .cfa -16 + ^ r9: .cfa -12 + ^
STACK CFI f41a8 .cfa: sp 72 +
STACK CFI INIT f42ec 1e4 .cfa: sp 0 + .ra: lr
STACK CFI f42f0 .cfa: sp 20 +
STACK CFI f42f4 .ra: .cfa -4 + ^ r4: .cfa -20 + ^ r5: .cfa -16 + ^ r6: .cfa -12 + ^ r7: .cfa -8 + ^
STACK CFI f42f8 .cfa: sp 48 +
STACK CFI INIT f44d0 1a0 .cfa: sp 0 + .ra: lr
STACK CFI f44d4 .cfa: sp 36 +
STACK CFI f44d8 .ra: .cfa -4 + ^ r10: .cfa -12 + ^ r11: .cfa -8 + ^ r4: .cfa -36 + ^ r5: .cfa -32 + ^ r6: .cfa -28 + ^ r7: .cfa -24 + ^ r8: .cfa -20 + ^ r9: .cfa -16 + ^
STACK CFI f44dc .cfa: sp 56 +
STACK CFI INIT f4670 1f0 .cfa: sp 0 + .ra: lr
STACK CFI f4674 .cfa: sp 24 +
STACK CFI f4678 .ra: .cfa -4 + ^ r4: .cfa -24 + ^ r5: .cfa -20 + ^ r6: .cfa -16 + ^ r7: .cfa -12 + ^ r8: .cfa -8 + ^
STACK CFI f4684 .cfa: sp 48 +
STACK CFI INIT f4860 1f8 .cfa: sp 0 + .ra: lr
STACK CFI f4864 .cfa: sp 36 +
STACK CFI f4868 .ra: .cfa -4 + ^ r10: .cfa -12 + ^ r11: .cfa -8 + ^ r4: .cfa -36 + ^ r5: .cfa -32 + ^ r6: .cfa -28 + ^ r7: .cfa -24 + ^ r8: .cfa -20 + ^ r9: .cfa -16 + ^
STACK CFI f4870 .cfa: sp 56 +
STACK CFI INIT f4a58 1f0 .cfa: sp 0 + .ra: lr
STACK CFI f4a5c .cfa: sp 24 +
STACK CFI f4a60 .ra: .cfa -4 + ^ r4: .cfa -24 + ^ r5: .cfa -20 + ^ r6: .cfa -16 + ^ r7: .cfa -12 + ^ r8: .cfa -8 + ^
STACK CFI f4a6c .cfa: sp 48 +
STACK CFI INIT f4c48 1f8 .cfa: sp 0 + .ra: lr
STACK CFI f4c4c .cfa: sp 36 +
STACK CFI f4c50 .ra: .cfa -4 + ^ r10: .cfa -12 + ^ r11: .cfa -8 + ^ r4: .cfa -36 + ^ r5: .cfa -32 + ^ r6: .cfa -28 + ^ r7: .cfa -24 + ^ r8: .cfa -20 + ^ r9: .cfa -16 + ^
STACK CFI f4c58 .cfa: sp 56 +
STACK CFI INIT f4e40 11c .cfa: sp 0 + .ra: lr
STACK CFI f4e44 .cfa: sp 32 +
STACK CFI f4e48 .ra: .cfa -4 + ^ r10: .cfa -8 + ^ r4: .cfa -32 + ^ r5: .cfa -28 + ^ r6: .cfa -24 + ^ r7: .cfa -20 + ^ r8: .cfa -16 + ^ r9: .cfa -12 + ^
STACK CFI f4e4c .cfa: sp 40 +
STACK CFI INIT f4f5c 128 .cfa: sp 0 + .ra: lr
STACK CFI f4f60 .cfa: sp 28 +
STACK CFI f4f64 .ra: .cfa -4 + ^ r10: .cfa -8 + ^ r4: .cfa -28 + ^ r5: .cfa -24 + ^ r6: .cfa -20 + ^ r7: .cfa -16 + ^ r8: .cfa -12 + ^
STACK CFI f4f68 .cfa: sp 48 +
STACK CFI INIT f5084 120 .cfa: sp 0 + .ra: lr
STACK CFI f5088 .cfa: sp 28 +
STACK CFI f508c .ra: .cfa -4 + ^ r10: .cfa -8 + ^ r4: .cfa -28 + ^ r5: .cfa -24 + ^ r6: .cfa -20 + ^ r7: .cfa -16 + ^ r8: .cfa -12 + ^
STACK CFI f5090 .cfa: sp 40 +
STACK CFI INIT f51a4 15c .cfa: sp 0 + .ra: lr
STACK CFI f51a8 .cfa: sp 32 +
STACK CFI f51ac .ra: .cfa -4 + ^ r10: .cfa -8 + ^ r4: .cfa -32 + ^ r5: .cfa -28 + ^ r6: .cfa -24 + ^ r7: .cfa -20 + ^ r8: .cfa -16 + ^ r9: .cfa -12 + ^
STACK CFI f51bc .cfa: sp 72 +
STACK CFI INIT f5300 134 .cfa: sp 0 + .ra: lr
STACK CFI f5304 .cfa: sp 28 +
STACK CFI f5308 .ra: .cfa -4 + ^ r10: .cfa -8 + ^ r4: .cfa -28 + ^ r5: .cfa -24 + ^ r6: .cfa -20 + ^ r7: .cfa -16 + ^ r8: .cfa -12 + ^
STACK CFI f530c .cfa: sp 40 +
STACK CFI INIT f5434 1f0 .cfa: sp 0 + .ra: lr
STACK CFI f5438 .cfa: sp 20 +
STACK CFI f543c .ra: .cfa -4 + ^ r4: .cfa -20 + ^ r5: .cfa -16 + ^ r6: .cfa -12 + ^ r7: .cfa -8 + ^
STACK CFI f5440 .cfa: sp 48 +
STACK CFI INIT f5624 1f0 .cfa: sp 0 + .ra: lr
STACK CFI f5628 .cfa: sp 20 +
STACK CFI f562c .ra: .cfa -4 + ^ r4: .cfa -20 + ^ r5: .cfa -16 + ^ r6: .cfa -12 + ^ r7: .cfa -8 + ^
STACK CFI f5630 .cfa: sp 48 +
STACK CFI INIT f5814 128 .cfa: sp 0 + .ra: lr
STACK CFI f5818 .cfa: sp 28 +
STACK CFI f581c .ra: .cfa -4 + ^ r10: .cfa -8 + ^ r4: .cfa -28 + ^ r5: .cfa -24 + ^ r6: .cfa -20 + ^ r7: .cfa -16 + ^ r8: .cfa -12 + ^
STACK CFI f5820 .cfa: sp 48 +
STACK CFI INIT f593c 120 .cfa: sp 0 + .ra: lr
STACK CFI f5940 .cfa: sp 28 +
STACK CFI f5944 .ra: .cfa -4 + ^ r10: .cfa -8 + ^ r4: .cfa -28 + ^ r5: .cfa -24 + ^ r6: .cfa -20 + ^ r7: .cfa -16 + ^ r8: .cfa -12 + ^
STACK CFI f5948 .cfa: sp 40 +
STACK CFI INIT f5a5c 15c .cfa: sp 0 + .ra: lr
STACK CFI f5a60 .cfa: sp 32 +
STACK CFI f5a64 .ra: .cfa -4 + ^ r10: .cfa -8 + ^ r4: .cfa -32 + ^ r5: .cfa -28 + ^ r6: .cfa -24 + ^ r7: .cfa -20 + ^ r8: .cfa -16 + ^ r9: .cfa -12 + ^
STACK CFI f5a74 .cfa: sp 72 +
STACK CFI INIT f5bb8 1d0 .cfa: sp 0 + .ra: lr
STACK CFI f5bbc .cfa: sp 36 +
STACK CFI f5bc0 .ra: .cfa -4 + ^ r10: .cfa -12 + ^ r11: .cfa -8 + ^ r4: .cfa -36 + ^ r5: .cfa -32 + ^ r6: .cfa -28 + ^ r7: .cfa -24 + ^ r8: .cfa -20 + ^ r9: .cfa -16 + ^
STACK CFI f5bc4 .cfa: sp 64 +
STACK CFI INIT f5d88 1d0 .cfa: sp 0 + .ra: lr
STACK CFI f5d8c .cfa: sp 36 +
STACK CFI f5d90 .ra: .cfa -4 + ^ r10: .cfa -12 + ^ r11: .cfa -8 + ^ r4: .cfa -36 + ^ r5: .cfa -32 + ^ r6: .cfa -28 + ^ r7: .cfa -24 + ^ r8: .cfa -20 + ^ r9: .cfa -16 + ^
STACK CFI f5d94 .cfa: sp 64 +
STACK CFI INIT f5f58 10 .cfa: sp 0 + .ra: lr
STACK CFI INIT f5f68 5b4 .cfa: sp 0 + .ra: lr
STACK CFI f5f6c .cfa: sp 16 +
STACK CFI f5f70 .ra: .cfa -4 + ^ r4: .cfa -16 + ^ r5: .cfa -12 + ^ r6: .cfa -8 + ^
STACK CFI INIT f651c 140 .cfa: sp 0 + .ra: lr
STACK CFI f6520 .cfa: sp 36 +
STACK CFI f6524 .ra: .cfa -4 + ^ r10: .cfa -12 + ^ r11: .cfa -8 + ^ r4: .cfa -36 + ^ r5: .cfa -32 + ^ r6: .cfa -28 + ^ r7: .cfa -24 + ^ r8: .cfa -20 + ^ r9: .cfa -16 + ^
STACK CFI f6534 .cfa: sp 1092 +
STACK CFI f6538 .cfa: sp 1104 +
STACK CFI INIT f665c 6f4 .cfa: sp 0 + .ra: lr
STACK CFI f6660 .cfa: sp 20 +
STACK CFI f6664 .ra: .cfa -4 + ^ r4: .cfa -20 + ^ r5: .cfa -16 + ^ r6: .cfa -12 + ^ r7: .cfa -8 + ^
STACK CFI INIT f6d50 10 .cfa: sp 0 + .ra: lr
STACK CFI INIT f6d60 50 .cfa: sp 0 + .ra: lr
STACK CFI f6d64 .cfa: sp 16 +
STACK CFI f6d68 .ra: .cfa -4 + ^ r4: .cfa -16 + ^ r5: .cfa -12 + ^ r6: .cfa -8 + ^
STACK CFI f6d8c .cfa: sp 32 +
STACK CFI INIT f6db0 138 .cfa: sp 0 + .ra: lr
STACK CFI f6db4 .cfa: sp 36 +
STACK CFI f6db8 .ra: .cfa -4 + ^ r10: .cfa -12 + ^ r11: .cfa -8 + ^ r4: .cfa -36 + ^ r5: .cfa -32 + ^ r6: .cfa -28 + ^ r7: .cfa -24 + ^ r8: .cfa -20 + ^ r9: .cfa -16 + ^
STACK CFI f6dbc .cfa: sp 1092 +
STACK CFI f6dc0 .cfa: sp 1104 +
STACK CFI INIT f6ee8 40 .cfa: sp 0 + .ra: lr
STACK CFI f6eec .cfa: sp 8 +
STACK CFI f6ef0 .ra: .cfa -4 + ^ r4: .cfa -8 + ^
STACK CFI INIT f6f28 a4 .cfa: sp 0 + .ra: lr
STACK CFI f6f3c .cfa: sp 8 +
STACK CFI f6f44 .ra: .cfa -4 + ^ r4: .cfa -8 + ^
STACK CFI INIT f6fcc 17c .cfa: sp 0 + .ra: lr
STACK CFI f6fd0 .cfa: sp 36 +
STACK CFI f6fd4 .ra: .cfa -4 + ^ r10: .cfa -12 + ^ r11: .cfa -8 + ^ r4: .cfa -36 + ^ r5: .cfa -32 + ^ r6: .cfa -28 + ^ r7: .cfa -24 + ^ r8: .cfa -20 + ^ r9: .cfa -16 + ^
STACK CFI f6fd8 .cfa: sp 56 +
STACK CFI INIT f7148 58 .cfa: sp 0 + .ra: lr
STACK CFI f714c .cfa: sp 16 +
STACK CFI f7150 .ra: .cfa -4 + ^ r3: .cfa -16 + ^ r4: .cfa -12 + ^ r5: .cfa -8 + ^
STACK CFI INIT f71a0 3c .cfa: sp 0 + .ra: lr
STACK CFI f71a4 .cfa: sp 16 +
STACK CFI f71a8 .ra: .cfa -4 + ^ r4: .cfa -16 + ^ r5: .cfa -12 + ^ r6: .cfa -8 + ^
STACK CFI INIT f71dc e8 .cfa: sp 0 + .ra: lr
STACK CFI f71e0 .cfa: sp 24 +
STACK CFI f71e4 .ra: .cfa -4 + ^ r4: .cfa -24 + ^ r5: .cfa -20 + ^ r6: .cfa -16 + ^ r7: .cfa -12 + ^ r8: .cfa -8 + ^
STACK CFI INIT f72c4 1c .cfa: sp 0 + .ra: lr
STACK CFI f72c8 .cfa: sp 8 +
STACK CFI f72cc .ra: .cfa -4 + ^ r4: .cfa -8 + ^
STACK CFI INIT f72e0 d4 .cfa: sp 0 + .ra: lr
STACK CFI f72e8 .cfa: sp 24 +
STACK CFI f72f8 .ra: .cfa -4 + ^ r3: .cfa -24 + ^ r4: .cfa -20 + ^ r5: .cfa -16 + ^ r6: .cfa -12 + ^ r7: .cfa -8 + ^
STACK CFI INIT f73b4 1d4 .cfa: sp 0 + .ra: lr
STACK CFI f73b8 .cfa: sp 36 +
STACK CFI f73bc .ra: .cfa -4 + ^ r10: .cfa -12 + ^ r11: .cfa -8 + ^ r4: .cfa -36 + ^ r5: .cfa -32 + ^ r6: .cfa -28 + ^ r7: .cfa -24 + ^ r8: .cfa -20 + ^ r9: .cfa -16 + ^
STACK CFI f73c0 .cfa: sp 56 +
STACK CFI INIT f7588 128 .cfa: sp 0 + .ra: lr
STACK CFI f758c .cfa: sp 28 +
STACK CFI f7590 .ra: .cfa -4 + ^ r10: .cfa -8 + ^ r4: .cfa -28 + ^ r5: .cfa -24 + ^ r6: .cfa -20 + ^ r7: .cfa -16 + ^ r8: .cfa -12 + ^
STACK CFI f75a4 .cfa: sp 48 +
STACK CFI INIT f76b0 2f0 .cfa: sp 0 + .ra: lr
STACK CFI f76b4 .cfa: sp 36 +
STACK CFI f76b8 .cfa: sp 1140 +
STACK CFI f76bc .cfa: sp 1144 +
STACK CFI f76c4 .ra: .cfa -4 + ^ r10: .cfa -12 + ^ r11: .cfa -8 + ^ r4: .cfa -36 + ^ r5: .cfa -32 + ^ r6: .cfa -28 + ^ r7: .cfa -24 + ^ r8: .cfa -20 + ^ r9: .cfa -16 + ^
STACK CFI INIT f79a0 20 .cfa: sp 0 + .ra: lr
STACK CFI f79a4 .cfa: sp 8 +
STACK CFI f79a8 .ra: .cfa -4 + ^ r3: .cfa -8 + ^
STACK CFI INIT f79c0 d8 .cfa: sp 0 + .ra: lr
STACK CFI f79c4 .cfa: sp 20 +
STACK CFI f79c8 .ra: .cfa -4 + ^ r4: .cfa -20 + ^ r5: .cfa -16 + ^ r6: .cfa -12 + ^ r7: .cfa -8 + ^
STACK CFI f79d0 .cfa: sp 32 +
STACK CFI INIT f7a98 404 .cfa: sp 0 + .ra: lr
STACK CFI f7aa0 .cfa: sp 32 +
STACK CFI f7aa4 .cfa: r11 4 + .ra: .cfa -4 + ^ r10: .cfa -12 + ^ r11: .cfa -8 + ^ r4: .cfa -32 + ^ r5: .cfa -28 + ^ r6: .cfa -24 + ^ r7: .cfa -20 + ^ r8: .cfa -16 + ^
STACK CFI INIT f7e9c 72c .cfa: sp 0 + .ra: lr
STACK CFI f7ea0 .cfa: sp 36 +
STACK CFI f7ea4 .cfa: r11 4 + .ra: .cfa -4 + ^ r10: .cfa -12 + ^ r11: .cfa -8 + ^ r4: .cfa -36 + ^ r5: .cfa -32 + ^ r6: .cfa -28 + ^ r7: .cfa -24 + ^ r8: .cfa -20 + ^ r9: .cfa -16 + ^
STACK CFI INIT f85c8 ac .cfa: sp 0 + .ra: lr
STACK CFI f85cc .cfa: sp 16 +
STACK CFI f85d0 .cfa: sp 48 +
STACK CFI f85d4 .ra: .cfa -4 + ^ r4: .cfa -16 + ^ r5: .cfa -12 + ^ r7: .cfa -8 + ^
STACK CFI INIT f8674 3c .cfa: sp 0 + .ra: lr
STACK CFI f8678 .cfa: sp 16 +
STACK CFI f867c .ra: .cfa -4 + ^ r4: .cfa -16 + ^ r5: .cfa -12 + ^ r6: .cfa -8 + ^
STACK CFI INIT f86b0 2bc .cfa: sp 0 + .ra: lr
STACK CFI f86b4 .cfa: sp 32 +
STACK CFI f86b8 .cfa: sp 56 +
STACK CFI f86bc .ra: .cfa -4 + ^ r10: .cfa -8 + ^ r4: .cfa -32 + ^ r5: .cfa -28 + ^ r6: .cfa -24 + ^ r7: .cfa -20 + ^ r8: .cfa -16 + ^ r9: .cfa -12 + ^
STACK CFI INIT f896c a0 .cfa: sp 0 + .ra: lr
STACK CFI f8970 .cfa: sp 20 +
STACK CFI f8974 .cfa: sp 56 +
STACK CFI f8978 .ra: .cfa -4 + ^ r4: .cfa -20 + ^ r5: .cfa -16 + ^ r6: .cfa -12 + ^ r7: .cfa -8 + ^
STACK CFI INIT f8a0c c4 .cfa: sp 0 + .ra: lr
STACK CFI f8a10 .cfa: sp 16 +
STACK CFI f8a14 .ra: .cfa -4 + ^ r3: .cfa -16 + ^ r4: .cfa -12 + ^ r5: .cfa -8 + ^
STACK CFI INIT f8ad0 54 .cfa: sp 0 + .ra: lr
STACK CFI f8ad4 .cfa: sp 16 +
STACK CFI f8adc .ra: .cfa -4 + ^ r3: .cfa -16 + ^ r4: .cfa -12 + ^ r5: .cfa -8 + ^
STACK CFI INIT f8b24 348 .cfa: sp 0 + .ra: lr
STACK CFI f8b28 .cfa: sp 36 +
STACK CFI f8b2c .cfa: r11 4 + .ra: .cfa -4 + ^ r10: .cfa -12 + ^ r11: .cfa -8 + ^ r4: .cfa -36 + ^ r5: .cfa -32 + ^ r6: .cfa -28 + ^ r7: .cfa -24 + ^ r8: .cfa -20 + ^ r9: .cfa -16 + ^
STACK CFI INIT f8e6c 18 .cfa: sp 0 + .ra: lr
STACK CFI f8e70 .cfa: sp 4 +
STACK CFI f8e78 r7: .cfa -4 + ^
STACK CFI INIT f8e84 a4 .cfa: sp 0 + .ra: lr
STACK CFI f8e88 .cfa: sp 12 +
STACK CFI f8e90 .ra: .cfa -4 + ^ r4: .cfa -12 + ^ r5: .cfa -8 + ^
STACK CFI f8e94 .cfa: sp 32 +
STACK CFI INIT f8f28 b04 .cfa: sp 0 + .ra: lr
STACK CFI f8f2c .cfa: sp 36 +
STACK CFI f8f30 .ra: .cfa -4 + ^ r10: .cfa -12 + ^ r11: .cfa -8 + ^ r4: .cfa -36 + ^ r5: .cfa -32 + ^ r6: .cfa -28 + ^ r7: .cfa -24 + ^ r8: .cfa -20 + ^ r9: .cfa -16 + ^
STACK CFI f8f34 .cfa: r11 4 +
STACK CFI INIT f9a2c 4 .cfa: sp 0 + .ra: lr
STACK CFI INIT f9a30 110 .cfa: sp 0 + .ra: lr
STACK CFI f9a34 .cfa: sp 28 +
STACK CFI f9a38 .cfa: r11 4 + .ra: .cfa -4 + ^ r11: .cfa -8 + ^ r4: .cfa -28 + ^ r5: .cfa -24 + ^ r6: .cfa -20 + ^ r7: .cfa -16 + ^ r8: .cfa -12 + ^
STACK CFI INIT f9b40 108 .cfa: sp 0 + .ra: lr
STACK CFI f9b44 .cfa: sp 36 +
STACK CFI f9b48 .cfa: r11 4 + .ra: .cfa -4 + ^ r10: .cfa -12 + ^ r11: .cfa -8 + ^ r4: .cfa -36 + ^ r5: .cfa -32 + ^ r6: .cfa -28 + ^ r7: .cfa -24 + ^ r8: .cfa -20 + ^ r9: .cfa -16 + ^
STACK CFI INIT f9c48 1e4 .cfa: sp 0 + .ra: lr
STACK CFI f9c50 .cfa: sp 8 +
STACK CFI f9c60 .ra: .cfa -4 + ^ r4: .cfa -8 + ^
STACK CFI INIT f9e2c 148 .cfa: sp 0 + .ra: lr
STACK CFI f9e30 .cfa: sp 32 +
STACK CFI f9e34 .cfa: r11 4 + .ra: .cfa -4 + ^ r10: .cfa -12 + ^ r11: .cfa -8 + ^ r4: .cfa -32 + ^ r5: .cfa -28 + ^ r6: .cfa -24 + ^ r7: .cfa -20 + ^ r8: .cfa -16 + ^
STACK CFI INIT f9f74 114 .cfa: sp 0 + .ra: lr
STACK CFI f9f78 .cfa: sp 36 +
STACK CFI f9f7c .cfa: r11 4 + .ra: .cfa -4 + ^ r10: .cfa -12 + ^ r11: .cfa -8 + ^ r4: .cfa -36 + ^ r5: .cfa -32 + ^ r6: .cfa -28 + ^ r7: .cfa -24 + ^ r8: .cfa -20 + ^ r9: .cfa -16 + ^
STACK CFI INIT fa088 61c .cfa: sp 0 + .ra: lr
STACK CFI fa08c .cfa: sp 36 +
STACK CFI fa090 .cfa: sp 184 +
STACK CFI fa094 .ra: .cfa -4 + ^ r10: .cfa -12 + ^ r11: .cfa -8 + ^ r4: .cfa -36 + ^ r5: .cfa -32 + ^ r6: .cfa -28 + ^ r7: .cfa -24 + ^ r8: .cfa -20 + ^ r9: .cfa -16 + ^
STACK CFI INIT fa6a4 1ec .cfa: sp 0 + .ra: lr
STACK CFI fa6a8 .cfa: sp 20 +
STACK CFI fa6ac .ra: .cfa -4 + ^ r4: .cfa -20 + ^ r5: .cfa -16 + ^ r6: .cfa -12 + ^ r7: .cfa -8 + ^
STACK CFI fa6b0 .cfa: sp 128 +
STACK CFI INIT fa890 184 .cfa: sp 0 + .ra: lr
STACK CFI fa894 .cfa: sp 36 +
STACK CFI fa898 .ra: .cfa -4 + ^ r10: .cfa -12 + ^ r11: .cfa -8 + ^ r4: .cfa -36 + ^ r5: .cfa -32 + ^ r6: .cfa -28 + ^ r7: .cfa -24 + ^ r8: .cfa -20 + ^ r9: .cfa -16 + ^
STACK CFI fa89c .cfa: r11 4 +
STACK CFI INIT faa14 138 .cfa: sp 0 + .ra: lr
STACK CFI faa1c .cfa: sp 32 +
STACK CFI faa20 .ra: .cfa -4 + ^ r10: .cfa -8 + ^ r4: .cfa -32 + ^ r5: .cfa -28 + ^ r6: .cfa -24 + ^ r7: .cfa -20 + ^ r8: .cfa -16 + ^ r9: .cfa -12 + ^
STACK CFI faa24 .cfa: sp 160 +
STACK CFI INIT fab4c 9b0 .cfa: sp 0 + .ra: lr
STACK CFI fab50 .cfa: sp 36 +
STACK CFI fab54 .cfa: sp 568 +
STACK CFI fab5c .ra: .cfa -4 + ^ r10: .cfa -12 + ^ r11: .cfa -8 + ^ r4: .cfa -36 + ^ r5: .cfa -32 + ^ r6: .cfa -28 + ^ r7: .cfa -24 + ^ r8: .cfa -20 + ^ r9: .cfa -16 + ^
STACK CFI INIT fb4fc 2c .cfa: sp 0 + .ra: lr
STACK CFI fb500 .cfa: sp 4 +
STACK CFI fb504 .cfa: sp 24 +
STACK CFI fb510 .ra: .cfa -4 + ^
STACK CFI INIT fb528 8 .cfa: sp 0 + .ra: lr
STACK CFI INIT fb530 d0 .cfa: sp 0 + .ra: lr
STACK CFI fb534 .cfa: sp 24 +
STACK CFI fb538 .cfa: sp 72 +
STACK CFI fb53c .ra: .cfa -4 + ^ r4: .cfa -24 + ^ r5: .cfa -20 + ^ r6: .cfa -16 + ^ r7: .cfa -12 + ^ r8: .cfa -8 + ^
STACK CFI INIT fb600 1c .cfa: sp 0 + .ra: lr
STACK CFI fb604 .cfa: sp 4 +
STACK CFI fb60c .cfa: sp 16 +
STACK CFI fb610 .ra: .cfa -4 + ^
STACK CFI INIT fb61c a8 .cfa: sp 0 + .ra: lr
STACK CFI fb620 .cfa: sp 24 +
STACK CFI fb624 .cfa: sp 160 +
STACK CFI fb628 .ra: .cfa -4 + ^ r4: .cfa -24 + ^ r5: .cfa -20 + ^ r6: .cfa -16 + ^ r7: .cfa -12 + ^ r8: .cfa -8 + ^
STACK CFI INIT fb6c4 28 .cfa: sp 0 + .ra: lr
STACK CFI fb6c8 .cfa: sp 4 +
STACK CFI fb6cc .cfa: sp 24 +
STACK CFI fb6d0 .ra: .cfa -4 + ^
STACK CFI INIT fb6ec 5c .cfa: sp 0 + .ra: lr
STACK CFI fb6f0 .cfa: sp 8 +
STACK CFI fb6f4 .cfa: sp 32 +
STACK CFI fb6f8 .ra: .cfa -4 + ^ r4: .cfa -8 + ^
STACK CFI INIT fb748 4b4 .cfa: sp 0 + .ra: lr
STACK CFI fb74c .cfa: sp 36 +
STACK CFI fb750 .cfa: sp 464 +
STACK CFI fb75c .ra: .cfa -4 + ^ r10: .cfa -12 + ^ r11: .cfa -8 + ^ r4: .cfa -36 + ^ r5: .cfa -32 + ^ r6: .cfa -28 + ^ r7: .cfa -24 + ^ r8: .cfa -20 + ^ r9: .cfa -16 + ^
STACK CFI INIT fbbfc 2c .cfa: sp 0 + .ra: lr
STACK CFI fbc00 .cfa: sp 4 +
STACK CFI fbc04 .cfa: sp 24 +
STACK CFI fbc10 .ra: .cfa -4 + ^
STACK CFI INIT fbc28 2fc .cfa: sp 0 + .ra: lr
STACK CFI fbc30 .cfa: sp 16 +
STACK CFI fbc44 .ra: .cfa -4 + ^ r4: .cfa -16 + ^ r5: .cfa -12 + ^ r6: .cfa -8 + ^
STACK CFI INIT fbf24 410 .cfa: sp 0 + .ra: lr
STACK CFI fbf28 .cfa: sp 36 +
STACK CFI fbf2c .ra: .cfa -4 + ^ r10: .cfa -12 + ^ r11: .cfa -8 + ^ r4: .cfa -36 + ^ r5: .cfa -32 + ^ r6: .cfa -28 + ^ r7: .cfa -24 + ^ r8: .cfa -20 + ^ r9: .cfa -16 + ^
STACK CFI fbf30 .cfa: r11 4 +
STACK CFI INIT fc334 138 .cfa: sp 0 + .ra: lr
STACK CFI fc338 .cfa: sp 24 +
STACK CFI fc33c .ra: .cfa -4 + ^ r4: .cfa -24 + ^ r5: .cfa -20 + ^ r6: .cfa -16 + ^ r7: .cfa -12 + ^ r8: .cfa -8 + ^
STACK CFI fc340 .cfa: sp 40 +
STACK CFI INIT fc46c 138 .cfa: sp 0 + .ra: lr
STACK CFI fc470 .cfa: sp 24 +
STACK CFI fc474 .ra: .cfa -4 + ^ r4: .cfa -24 + ^ r5: .cfa -20 + ^ r6: .cfa -16 + ^ r7: .cfa -12 + ^ r8: .cfa -8 + ^
STACK CFI fc478 .cfa: sp 32 +
STACK CFI INIT fc5a4 170 .cfa: sp 0 + .ra: lr
STACK CFI fc5a8 .cfa: sp 28 +
STACK CFI fc5ac .ra: .cfa -4 + ^ r10: .cfa -8 + ^ r4: .cfa -28 + ^ r5: .cfa -24 + ^ r6: .cfa -20 + ^ r7: .cfa -16 + ^ r8: .cfa -12 + ^
STACK CFI fc5bc .cfa: sp 72 +
STACK CFI INIT fc714 134 .cfa: sp 0 + .ra: lr
STACK CFI fc718 .cfa: sp 28 +
STACK CFI fc71c .ra: .cfa -4 + ^ r10: .cfa -8 + ^ r4: .cfa -28 + ^ r5: .cfa -24 + ^ r6: .cfa -20 + ^ r7: .cfa -16 + ^ r8: .cfa -12 + ^
STACK CFI fc720 .cfa: sp 40 +
STACK CFI INIT fc848 1f0 .cfa: sp 0 + .ra: lr
STACK CFI fc84c .cfa: sp 20 +
STACK CFI fc850 .ra: .cfa -4 + ^ r4: .cfa -20 + ^ r5: .cfa -16 + ^ r6: .cfa -12 + ^ r7: .cfa -8 + ^
STACK CFI fc854 .cfa: sp 48 +
STACK CFI INIT fca38 1d0 .cfa: sp 0 + .ra: lr
STACK CFI fca3c .cfa: sp 36 +
STACK CFI fca40 .ra: .cfa -4 + ^ r10: .cfa -12 + ^ r11: .cfa -8 + ^ r4: .cfa -36 + ^ r5: .cfa -32 + ^ r6: .cfa -28 + ^ r7: .cfa -24 + ^ r8: .cfa -20 + ^ r9: .cfa -16 + ^
STACK CFI fca44 .cfa: sp 64 +
STACK CFI INIT fcc08 58 .cfa: sp 0 + .ra: lr
STACK CFI INIT fcc60 80 .cfa: sp 0 + .ra: lr
STACK CFI fcc64 .cfa: sp 16 +
STACK CFI fcc68 .ra: .cfa -4 + ^ r3: .cfa -16 + ^ r4: .cfa -12 + ^ r5: .cfa -8 + ^
STACK CFI INIT fcce0 d4 .cfa: sp 0 + .ra: lr
STACK CFI fccf0 .cfa: sp 16 +
STACK CFI fccf4 .ra: .cfa -4 + ^ r4: .cfa -16 + ^ r5: .cfa -12 + ^ r6: .cfa -8 + ^
STACK CFI INIT fcdb4 10 .cfa: sp 0 + .ra: lr
STACK CFI INIT fcdc4 34 .cfa: sp 0 + .ra: lr
STACK CFI INIT fcdf8 48 .cfa: sp 0 + .ra: lr
STACK CFI fcdfc .cfa: sp 16 +
STACK CFI fce00 .ra: .cfa -4 + ^ r3: .cfa -16 + ^ r4: .cfa -12 + ^ r5: .cfa -8 + ^
STACK CFI INIT fce40 4 .cfa: sp 0 + .ra: lr
STACK CFI INIT fce44 b8 .cfa: sp 0 + .ra: lr
STACK CFI fce4c .cfa: sp 16 +
STACK CFI fce54 .cfa: sp 24 +
STACK CFI fce58 .ra: .cfa -4 + ^ r4: .cfa -16 + ^ r5: .cfa -12 + ^ r6: .cfa -8 + ^
STACK CFI INIT fcefc d0 .cfa: sp 0 + .ra: lr
STACK CFI fcf04 .cfa: sp 24 +
STACK CFI fcf0c .cfa: sp 32 +
STACK CFI fcf10 .ra: .cfa -4 + ^ r4: .cfa -24 + ^ r5: .cfa -20 + ^ r6: .cfa -16 + ^ r7: .cfa -12 + ^ r8: .cfa -8 + ^
STACK CFI INIT fcfcc 3c .cfa: sp 0 + .ra: lr
STACK CFI INIT fd008 44 .cfa: sp 0 + .ra: lr
STACK CFI INIT fd04c d8 .cfa: sp 0 + .ra: lr
STACK CFI fd050 .cfa: sp 32 +
STACK CFI fd058 .cfa: sp 40 +
STACK CFI fd05c .ra: .cfa -4 + ^ r10: .cfa -8 + ^ r4: .cfa -32 + ^ r5: .cfa -28 + ^ r6: .cfa -24 + ^ r7: .cfa -20 + ^ r8: .cfa -16 + ^ r9: .cfa -12 + ^
STACK CFI INIT fd124 50 .cfa: sp 0 + .ra: lr
STACK CFI fd12c .cfa: sp 8 +
STACK CFI fd130 .ra: .cfa -4 + ^ r4: .cfa -8 + ^
STACK CFI INIT fd174 24 .cfa: sp 0 + .ra: lr
STACK CFI fd178 .cfa: sp 16 +
STACK CFI fd17c .ra: .cfa -4 + ^ r3: .cfa -16 + ^ r4: .cfa -12 + ^ r5: .cfa -8 + ^
STACK CFI INIT fd198 8c .cfa: sp 0 + .ra: lr
STACK CFI fd1a0 .cfa: sp 4 +
STACK CFI fd1a8 r4: .cfa -4 + ^
STACK CFI INIT fd224 9c .cfa: sp 0 + .ra: lr
STACK CFI fd228 .cfa: sp 12 +
STACK CFI fd230 r4: .cfa -12 + ^ r5: .cfa -8 + ^ r6: .cfa -4 + ^
STACK CFI INIT fd2c0 24 .cfa: sp 0 + .ra: lr
STACK CFI fd2c4 .cfa: sp 16 +
STACK CFI fd2c8 .ra: .cfa -4 + ^ r3: .cfa -16 + ^ r4: .cfa -12 + ^ r5: .cfa -8 + ^
STACK CFI INIT fd2e4 20 .cfa: sp 0 + .ra: lr
STACK CFI INIT fd304 50 .cfa: sp 0 + .ra: lr
STACK CFI fd308 .cfa: sp 16 +
STACK CFI fd30c .ra: .cfa -4 + ^ r4: .cfa -16 + ^ r5: .cfa -12 + ^ r6: .cfa -8 + ^
STACK CFI INIT fd354 4c .cfa: sp 0 + .ra: lr
STACK CFI fd358 .cfa: sp 8 +
STACK CFI fd35c .ra: .cfa -4 + ^ r4: .cfa -8 + ^
STACK CFI INIT fd3a0 1b4 .cfa: sp 0 + .ra: lr
STACK CFI fd3a4 .cfa: sp 36 +
STACK CFI fd3ac .ra: .cfa -4 + ^ r10: .cfa -12 + ^ r11: .cfa -8 + ^ r4: .cfa -36 + ^ r5: .cfa -32 + ^ r6: .cfa -28 + ^ r7: .cfa -24 + ^ r8: .cfa -20 + ^ r9: .cfa -16 + ^
STACK CFI fd3b4 .cfa: sp 64 +
STACK CFI INIT fd554 18 .cfa: sp 0 + .ra: lr
STACK CFI INIT fd56c 28 .cfa: sp 0 + .ra: lr
STACK CFI INIT fd594 568 .cfa: sp 0 + .ra: lr
STACK CFI fd598 .cfa: sp 36 +
STACK CFI fd59c .ra: .cfa -4 + ^ r10: .cfa -12 + ^ r11: .cfa -8 + ^ r4: .cfa -36 + ^ r5: .cfa -32 + ^ r6: .cfa -28 + ^ r7: .cfa -24 + ^ r8: .cfa -20 + ^ r9: .cfa -16 + ^
STACK CFI fd5a0 .cfa: r11 4 +
STACK CFI INIT fdafc cc .cfa: sp 0 + .ra: lr
STACK CFI fdb00 .cfa: sp 24 +
STACK CFI fdb04 .ra: .cfa -4 + ^ r4: .cfa -24 + ^ r5: .cfa -20 + ^ r6: .cfa -16 + ^ r7: .cfa -12 + ^ r8: .cfa -8 + ^
STACK CFI fdb08 .cfa: sp 48 +
STACK CFI INIT fdbc8 3b4 .cfa: sp 0 + .ra: lr
STACK CFI fdbcc .cfa: sp 36 +
STACK CFI fdbd0 .cfa: r11 4 + .ra: .cfa -4 + ^ r10: .cfa -12 + ^ r11: .cfa -8 + ^ r4: .cfa -36 + ^ r5: .cfa -32 + ^ r6: .cfa -28 + ^ r7: .cfa -24 + ^ r8: .cfa -20 + ^ r9: .cfa -16 + ^
STACK CFI INIT fdf7c 100 .cfa: sp 0 + .ra: lr
STACK CFI fdf80 .cfa: sp 24 +
STACK CFI fdf84 .ra: .cfa -4 + ^ r4: .cfa -24 + ^ r5: .cfa -20 + ^ r6: .cfa -16 + ^ r7: .cfa -12 + ^ r8: .cfa -8 + ^
STACK CFI fdf88 .cfa: sp 32 +
STACK CFI INIT fe07c 30 .cfa: sp 0 + .ra: lr
STACK CFI fe084 .cfa: sp 8 +
STACK CFI fe088 .ra: .cfa -4 + ^ r3: .cfa -8 + ^
STACK CFI INIT fe0ac 4 .cfa: sp 0 + .ra: lr
STACK CFI INIT fe0b0 8 .cfa: sp 0 + .ra: lr
STACK CFI INIT fe0b8 8 .cfa: sp 0 + .ra: lr
STACK CFI INIT fe0c0 4 .cfa: sp 0 + .ra: lr
STACK CFI INIT fe0c4 a0 .cfa: sp 0 + .ra: lr
STACK CFI fe0c8 .cfa: sp 12 +
STACK CFI fe0cc .ra: .cfa -4 + ^ r4: .cfa -12 + ^ r5: .cfa -8 + ^
STACK CFI fe0e4 .cfa: sp 40 +
STACK CFI INIT fe164 88 .cfa: sp 0 + .ra: lr
STACK CFI fe16c .cfa: sp 8 +
STACK CFI fe178 .ra: .cfa -4 + ^ r4: .cfa -8 + ^
STACK CFI INIT fe1ec 4 .cfa: sp 0 + .ra: lr
STACK CFI INIT fe1f0 24 .cfa: sp 0 + .ra: lr
STACK CFI fe1fc .cfa: sp 8 +
STACK CFI fe204 .ra: .cfa -4 + ^ r3: .cfa -8 + ^
STACK CFI INIT fe214 48 .cfa: sp 0 + .ra: lr
STACK CFI fe218 .cfa: sp 16 +
STACK CFI fe21c .ra: .cfa -4 + ^ r4: .cfa -16 + ^ r5: .cfa -12 + ^ r6: .cfa -8 + ^
STACK CFI INIT fe25c ac .cfa: sp 0 + .ra: lr
STACK CFI fe260 .cfa: sp 12 +
STACK CFI fe264 .ra: .cfa -4 + ^ r4: .cfa -12 + ^ r5: .cfa -8 + ^
STACK CFI fe268 .cfa: sp 40 +
STACK CFI INIT fe308 ec .cfa: sp 0 + .ra: lr
STACK CFI fe30c .cfa: sp 20 +
STACK CFI fe310 .ra: .cfa -4 + ^ r4: .cfa -20 + ^ r5: .cfa -16 + ^ r6: .cfa -12 + ^ r7: .cfa -8 + ^
STACK CFI fe31c .cfa: sp 80 +
STACK CFI INIT fe3f4 a8 .cfa: sp 0 + .ra: lr
STACK CFI fe3fc .cfa: sp 20 +
STACK CFI fe404 .cfa: sp 48 +
STACK CFI fe40c .ra: .cfa -4 + ^ r4: .cfa -20 + ^ r5: .cfa -16 + ^ r6: .cfa -12 + ^ r7: .cfa -8 + ^
STACK CFI INIT fe49c 18c .cfa: sp 0 + .ra: lr
STACK CFI fe4a0 .cfa: sp 36 +
STACK CFI fe4a4 .ra: .cfa -4 + ^ r10: .cfa -12 + ^ r11: .cfa -8 + ^ r4: .cfa -36 + ^ r5: .cfa -32 + ^ r6: .cfa -28 + ^ r7: .cfa -24 + ^ r8: .cfa -20 + ^ r9: .cfa -16 + ^
STACK CFI fe4a8 .cfa: sp 496 +
STACK CFI INIT fe628 138 .cfa: sp 0 + .ra: lr
STACK CFI fe62c .cfa: sp 32 +
STACK CFI fe630 .cfa: r11 4 + .ra: .cfa -4 + ^ r10: .cfa -12 + ^ r11: .cfa -8 + ^ r4: .cfa -32 + ^ r5: .cfa -28 + ^ r6: .cfa -24 + ^ r7: .cfa -20 + ^ r8: .cfa -16 + ^
STACK CFI INIT fe760 9c .cfa: sp 0 + .ra: lr
STACK CFI fe764 .cfa: sp 12 +
STACK CFI fe768 .cfa: sp 24 +
STACK CFI fe76c .ra: .cfa -4 + ^ r4: .cfa -12 + ^ r5: .cfa -8 + ^
STACK CFI INIT fe7fc 1dc .cfa: sp 0 + .ra: lr
STACK CFI fe800 .cfa: sp 36 +
STACK CFI fe804 .ra: .cfa -4 + ^ r10: .cfa -12 + ^ r11: .cfa -8 + ^ r4: .cfa -36 + ^ r5: .cfa -32 + ^ r6: .cfa -28 + ^ r7: .cfa -24 + ^ r8: .cfa -20 + ^ r9: .cfa -16 + ^
STACK CFI fe808 .cfa: sp 56 +
STACK CFI INIT fe9d8 290 .cfa: sp 0 + .ra: lr
STACK CFI fe9dc .cfa: sp 36 +
STACK CFI fe9e0 .cfa: r11 4 + .ra: .cfa -4 + ^ r10: .cfa -12 + ^ r11: .cfa -8 + ^ r4: .cfa -36 + ^ r5: .cfa -32 + ^ r6: .cfa -28 + ^ r7: .cfa -24 + ^ r8: .cfa -20 + ^ r9: .cfa -16 + ^
STACK CFI INIT 117154 14 .cfa: sp 0 + .ra: lr
STACK CFI 117158 .cfa: sp 8 + .ra: .cfa -4 + ^ r4: .cfa -8 + ^
STACK CFI INIT fec68 98 .cfa: sp 0 + .ra: lr
STACK CFI fec78 .cfa: sp 4 +
STACK CFI fec88 r4: .cfa -4 + ^
STACK CFI INIT fed00 304 .cfa: sp 0 + .ra: lr
STACK CFI fed04 .cfa: sp 20 +
STACK CFI fed08 .cfa: sp 1060 +
STACK CFI fed0c .cfa: sp 1072 +
STACK CFI fed10 .ra: .cfa -4 + ^ r4: .cfa -20 + ^ r5: .cfa -16 + ^ r6: .cfa -12 + ^ r7: .cfa -8 + ^
STACK CFI INIT ff004 24 .cfa: sp 0 + .ra: lr
STACK CFI ff008 .cfa: sp 8 + .ra: .cfa -4 + ^ r4: .cfa -8 + ^
STACK CFI INIT ff028 24 .cfa: sp 0 + .ra: lr
STACK CFI ff02c .cfa: sp 8 + .ra: .cfa -4 + ^ r4: .cfa -8 + ^
STACK CFI INIT ff04c e0 .cfa: sp 0 + .ra: lr
STACK CFI ff050 .cfa: sp 16 +
STACK CFI ff054 .cfa: sp 1056 +
STACK CFI ff058 .ra: .cfa -4 + ^ r4: .cfa -16 + ^ r5: .cfa -12 + ^ r6: .cfa -8 + ^
STACK CFI INIT ff12c 24 .cfa: sp 0 + .ra: lr
STACK CFI ff130 .cfa: sp 8 + .ra: .cfa -4 + ^ r4: .cfa -8 + ^
STACK CFI INIT ff150 4 .cfa: sp 0 + .ra: lr
STACK CFI INIT ff154 4 .cfa: sp 0 + .ra: lr
STACK CFI INIT ff158 8 .cfa: sp 0 + .ra: lr
STACK CFI INIT ff160 4 .cfa: sp 0 + .ra: lr
STACK CFI INIT ff164 38 .cfa: sp 0 + .ra: lr
STACK CFI ff168 .cfa: sp 16 +
STACK CFI ff16c .ra: .cfa -4 + ^ r3: .cfa -16 + ^ r4: .cfa -12 + ^ r5: .cfa -8 + ^
STACK CFI INIT ff19c 208 .cfa: sp 0 + .ra: lr
STACK CFI ff1a0 .cfa: sp 36 +
STACK CFI ff1a4 .cfa: sp 112 +
STACK CFI ff1a8 .ra: .cfa -4 + ^ r10: .cfa -12 + ^ r11: .cfa -8 + ^ r4: .cfa -36 + ^ r5: .cfa -32 + ^ r6: .cfa -28 + ^ r7: .cfa -24 + ^ r8: .cfa -20 + ^ r9: .cfa -16 + ^
STACK CFI INIT ff3a4 12c .cfa: sp 0 + .ra: lr
STACK CFI ff3a8 .cfa: sp 24 +
STACK CFI ff3ac .cfa: sp 72 +
STACK CFI ff3b0 .ra: .cfa -4 + ^ r4: .cfa -24 + ^ r5: .cfa -20 + ^ r6: .cfa -16 + ^ r7: .cfa -12 + ^ r8: .cfa -8 + ^
STACK CFI INIT ff4d0 280 .cfa: sp 0 + .ra: lr
STACK CFI ff4d4 .cfa: sp 36 +
STACK CFI ff4d8 .cfa: r11 4 + .ra: .cfa -4 + ^ r10: .cfa -12 + ^ r11: .cfa -8 + ^ r4: .cfa -36 + ^ r5: .cfa -32 + ^ r6: .cfa -28 + ^ r7: .cfa -24 + ^ r8: .cfa -20 + ^ r9: .cfa -16 + ^
STACK CFI INIT ff750 38 .cfa: sp 0 + .ra: lr
STACK CFI ff754 .cfa: sp 8 + .ra: .cfa -4 + ^ r4: .cfa -8 + ^
STACK CFI INIT ff788 18 .cfa: sp 0 + .ra: lr
STACK CFI INIT ff7a0 20 .cfa: sp 0 + .ra: lr
STACK CFI ff7a8 .cfa: sp 8 +
STACK CFI ff7ac .ra: .cfa -4 + ^ r3: .cfa -8 + ^
STACK CFI INIT ff7c0 4 .cfa: sp 0 + .ra: lr
STACK CFI INIT ff7c4 160 .cfa: sp 0 + .ra: lr
STACK CFI ff7cc .cfa: sp 4 +
STACK CFI ff7e0 r4: .cfa -4 + ^
STACK CFI INIT ff924 50 .cfa: sp 0 + .ra: lr
STACK CFI ff928 .cfa: sp 16 +
STACK CFI ff92c .ra: .cfa -4 + ^ r4: .cfa -16 + ^ r5: .cfa -12 + ^ r6: .cfa -8 + ^
STACK CFI INIT ff974 2ec .cfa: sp 0 + .ra: lr
STACK CFI ff978 .cfa: sp 36 +
STACK CFI ff97c .ra: .cfa -4 + ^ r10: .cfa -12 + ^ r11: .cfa -8 + ^ r4: .cfa -36 + ^ r5: .cfa -32 + ^ r6: .cfa -28 + ^ r7: .cfa -24 + ^ r8: .cfa -20 + ^ r9: .cfa -16 + ^
STACK CFI ff980 .cfa: sp 112 +
STACK CFI INIT ffc60 68 .cfa: sp 0 + .ra: lr
STACK CFI ffc64 .cfa: sp 24 +
STACK CFI ffc68 .ra: .cfa -4 + ^ r4: .cfa -24 + ^ r5: .cfa -20 + ^ r6: .cfa -16 + ^ r7: .cfa -12 + ^ r8: .cfa -8 + ^
STACK CFI INIT ffcc8 fc .cfa: sp 0 + .ra: lr
STACK CFI ffccc .cfa: sp 24 +
STACK CFI ffcd0 .ra: .cfa -4 + ^ r4: .cfa -24 + ^ r5: .cfa -20 + ^ r6: .cfa -16 + ^ r7: .cfa -12 + ^ r8: .cfa -8 + ^
STACK CFI ffcf4 .cfa: sp 32 +
STACK CFI INIT ffdc4 2b0 .cfa: sp 0 + .ra: lr
STACK CFI ffdc8 .cfa: sp 36 +
STACK CFI ffdcc .ra: .cfa -4 + ^ r10: .cfa -12 + ^ r11: .cfa -8 + ^ r4: .cfa -36 + ^ r5: .cfa -32 + ^ r6: .cfa -28 + ^ r7: .cfa -24 + ^ r8: .cfa -20 + ^ r9: .cfa -16 + ^
STACK CFI ffdd0 .cfa: sp 96 +
STACK CFI INIT 100074 18 .cfa: sp 0 + .ra: lr
STACK CFI INIT 10008c 20 .cfa: sp 0 + .ra: lr
STACK CFI 100094 .cfa: sp 8 +
STACK CFI 100098 .ra: .cfa -4 + ^ r3: .cfa -8 + ^
STACK CFI INIT 1000ac 4 .cfa: sp 0 + .ra: lr
STACK CFI INIT 1000b0 1a8 .cfa: sp 0 + .ra: lr
STACK CFI 1000b8 .cfa: sp 4 +
STACK CFI 1000cc r4: .cfa -4 + ^
STACK CFI INIT 100258 50 .cfa: sp 0 + .ra: lr
STACK CFI 10025c .cfa: sp 16 +
STACK CFI 100260 .ra: .cfa -4 + ^ r4: .cfa -16 + ^ r5: .cfa -12 + ^ r6: .cfa -8 + ^
STACK CFI INIT 1002a8 63c .cfa: sp 0 + .ra: lr
STACK CFI 1002ac .cfa: sp 36 +
STACK CFI 1002b0 .cfa: r11 4 + .ra: .cfa -4 + ^ r10: .cfa -12 + ^ r11: .cfa -8 + ^ r4: .cfa -36 + ^ r5: .cfa -32 + ^ r6: .cfa -28 + ^ r7: .cfa -24 + ^ r8: .cfa -20 + ^ r9: .cfa -16 + ^
STACK CFI INIT 1008e4 374 .cfa: sp 0 + .ra: lr
STACK CFI 1008e8 .cfa: sp 8 +
STACK CFI 1008ec .cfa: sp 44 +
STACK CFI 1008f0 .ra: .cfa -12 + ^ r10: .cfa -20 + ^ r11: .cfa -16 + ^ r4: .cfa -44 + ^ r5: .cfa -40 + ^ r6: .cfa -36 + ^ r7: .cfa -32 + ^ r8: .cfa -28 + ^ r9: .cfa -24 + ^
STACK CFI 1008f4 .cfa: sp 120 +
STACK CFI INIT 100c58 4c .cfa: sp 0 + .ra: lr
STACK CFI 100c5c .cfa: sp 8 +
STACK CFI 100c60 .cfa: sp 12 +
STACK CFI 100c64 .cfa: sp 40 +
STACK CFI 100c6c .ra: .cfa -12 + ^
STACK CFI INIT 100ca4 4c .cfa: sp 0 + .ra: lr
STACK CFI 100ca8 .cfa: sp 8 +
STACK CFI 100cac .cfa: sp 12 +
STACK CFI 100cb0 .cfa: sp 40 +
STACK CFI 100cb8 .ra: .cfa -12 + ^
STACK CFI INIT 100cf0 28 .cfa: sp 0 + .ra: lr
STACK CFI 100cf4 .cfa: sp 8 +
STACK CFI 100cf8 .ra: .cfa -4 + ^ r4: .cfa -8 + ^
STACK CFI INIT 100d18 bc .cfa: sp 0 + .ra: lr
STACK CFI 100d1c .cfa: sp 8 +
STACK CFI 100d20 .cfa: sp 16 +
STACK CFI 100d24 .ra: .cfa -4 + ^ r4: .cfa -8 + ^
STACK CFI INIT 100dd4 e4 .cfa: sp 0 + .ra: lr
STACK CFI 100dd8 .cfa: sp 36 +
STACK CFI 100ddc .cfa: r11 4 + .ra: .cfa -4 + ^ r10: .cfa -12 + ^ r11: .cfa -8 + ^ r4: .cfa -36 + ^ r5: .cfa -32 + ^ r6: .cfa -28 + ^ r7: .cfa -24 + ^ r8: .cfa -20 + ^ r9: .cfa -16 + ^
STACK CFI INIT 100eb8 cc .cfa: sp 0 + .ra: lr
STACK CFI 100ebc .cfa: sp 12 +
STACK CFI 100ec0 .cfa: sp 24 +
STACK CFI 100ec4 .ra: .cfa -4 + ^ r4: .cfa -12 + ^ r5: .cfa -8 + ^
STACK CFI INIT 100f84 134 .cfa: sp 0 + .ra: lr
STACK CFI 100f88 .cfa: sp 28 +
STACK CFI 100f8c .cfa: sp 88 +
STACK CFI 100f90 .ra: .cfa -4 + ^ r10: .cfa -8 + ^ r4: .cfa -28 + ^ r5: .cfa -24 + ^ r6: .cfa -20 + ^ r7: .cfa -16 + ^ r8: .cfa -12 + ^
STACK CFI INIT 1010b8 f0 .cfa: sp 0 + .ra: lr
STACK CFI 1010bc .cfa: sp 20 +
STACK CFI 1010c0 .cfa: sp 80 +
STACK CFI 1010c8 .ra: .cfa -4 + ^ r4: .cfa -20 + ^ r5: .cfa -16 + ^ r6: .cfa -12 + ^ r7: .cfa -8 + ^
STACK CFI INIT 1011a8 118 .cfa: sp 0 + .ra: lr
STACK CFI 1011b0 .cfa: sp 20 +
STACK CFI 1011b8 .cfa: sp 56 +
STACK CFI 1011bc .ra: .cfa -4 + ^ r4: .cfa -20 + ^ r5: .cfa -16 + ^ r6: .cfa -12 + ^ r7: .cfa -8 + ^
STACK CFI INIT 1012c0 84 .cfa: sp 0 + .ra: lr
STACK CFI 1012c4 .cfa: sp 12 +
STACK CFI 1012cc .cfa: sp 32 +
STACK CFI 1012d0 .ra: .cfa -4 + ^ r4: .cfa -12 + ^ r5: .cfa -8 + ^
STACK CFI INIT 101344 19c .cfa: sp 0 + .ra: lr
STACK CFI 101348 .cfa: sp 32 +
STACK CFI 101350 .cfa: sp 72 +
STACK CFI 101354 .ra: .cfa -4 + ^ r10: .cfa -8 + ^ r4: .cfa -32 + ^ r5: .cfa -28 + ^ r6: .cfa -24 + ^ r7: .cfa -20 + ^ r8: .cfa -16 + ^ r9: .cfa -12 + ^
STACK CFI INIT 1014e0 50 .cfa: sp 0 + .ra: lr
STACK CFI 1014e4 .cfa: sp 16 +
STACK CFI 1014e8 .ra: .cfa -4 + ^ r4: .cfa -16 + ^ r5: .cfa -12 + ^ r6: .cfa -8 + ^
STACK CFI INIT 101530 b8 .cfa: sp 0 + .ra: lr
STACK CFI 101538 .cfa: sp 20 +
STACK CFI 10153c .ra: .cfa -4 + ^ r4: .cfa -20 + ^ r5: .cfa -16 + ^ r6: .cfa -12 + ^ r7: .cfa -8 + ^
STACK CFI 10154c .cfa: sp 32 +
STACK CFI INIT 1015e8 10c .cfa: sp 0 + .ra: lr
STACK CFI 1015ec .cfa: sp 24 +
STACK CFI 1015f0 .ra: .cfa -4 + ^ r4: .cfa -24 + ^ r5: .cfa -20 + ^ r6: .cfa -16 + ^ r7: .cfa -12 + ^ r8: .cfa -8 + ^
STACK CFI 1015f4 .cfa: sp 88 +
STACK CFI INIT 1016f4 10c .cfa: sp 0 + .ra: lr
STACK CFI 1016f8 .cfa: sp 24 +
STACK CFI 1016fc .cfa: sp 32 +
STACK CFI 101700 .ra: .cfa -4 + ^ r4: .cfa -24 + ^ r5: .cfa -20 + ^ r6: .cfa -16 + ^ r7: .cfa -12 + ^ r8: .cfa -8 + ^
STACK CFI INIT 101800 70 .cfa: sp 0 + .ra: lr
STACK CFI 101804 .cfa: sp 12 +
STACK CFI 10180c .cfa: sp 24 +
STACK CFI 101814 .ra: .cfa -4 + ^ r4: .cfa -12 + ^ r5: .cfa -8 + ^
STACK CFI INIT 101870 744 .cfa: sp 0 + .ra: lr
STACK CFI 101874 .cfa: sp 36 +
STACK CFI 101878 .cfa: sp 10468 +
STACK CFI 10187c .cfa: sp 10520 +
STACK CFI 101880 .ra: .cfa -4 + ^ r10: .cfa -12 + ^ r11: .cfa -8 + ^ r4: .cfa -36 + ^ r5: .cfa -32 + ^ r6: .cfa -28 + ^ r7: .cfa -24 + ^ r8: .cfa -20 + ^ r9: .cfa -16 + ^
STACK CFI INIT 101fb4 30 .cfa: sp 0 + .ra: lr
STACK CFI 101fb8 .cfa: sp 16 +
STACK CFI 101fbc .ra: .cfa -4 + ^ r4: .cfa -16 + ^ r5: .cfa -12 + ^ r6: .cfa -8 + ^
STACK CFI INIT 101fe4 8 .cfa: sp 0 + .ra: lr
STACK CFI INIT 101fec 80 .cfa: sp 0 + .ra: lr
STACK CFI 101ff0 .cfa: sp 16 +
STACK CFI 101ff4 .ra: .cfa -4 + ^ r4: .cfa -16 + ^ r5: .cfa -12 + ^ r6: .cfa -8 + ^
STACK CFI INIT 10206c 68 .cfa: sp 0 + .ra: lr
STACK CFI 102070 .cfa: sp 16 +
STACK CFI 102074 .ra: .cfa -4 + ^ r4: .cfa -16 + ^ r5: .cfa -12 + ^ r6: .cfa -8 + ^
STACK CFI INIT 1020d4 70 .cfa: sp 0 + .ra: lr
STACK CFI 1020d8 .cfa: sp 12 +
STACK CFI 1020dc .cfa: sp 24 +
STACK CFI 1020e0 .ra: .cfa -4 + ^ r4: .cfa -12 + ^ r5: .cfa -8 + ^
STACK CFI INIT 102144 88 .cfa: sp 0 + .ra: lr
STACK CFI 102158 .cfa: sp 16 +
STACK CFI 10215c .ra: .cfa -4 + ^ r4: .cfa -16 + ^ r5: .cfa -12 + ^ r6: .cfa -8 + ^
STACK CFI INIT 1021cc 104 .cfa: sp 0 + .ra: lr
STACK CFI INIT 1022d0 50c .cfa: sp 0 + .ra: lr
STACK CFI 1022d4 .cfa: sp 24 +
STACK CFI 1022d8 .ra: .cfa -4 + ^ r4: .cfa -24 + ^ r5: .cfa -20 + ^ r6: .cfa -16 + ^ r7: .cfa -12 + ^ r8: .cfa -8 + ^
STACK CFI INIT 1027dc 28 .cfa: sp 0 + .ra: lr
STACK CFI 1027e8 .cfa: sp 4 +
STACK CFI 1027f4 .ra: .cfa -4 + ^
STACK CFI INIT 1173c4 9c .cfa: sp 0 + .ra: lr
STACK CFI 1173cc .cfa: sp 8 +
STACK CFI 1173d0 .ra: .cfa -4 + ^ r4: .cfa -8 + ^
STACK CFI INIT 102804 ec .cfa: sp 0 + .ra: lr
STACK CFI 10280c .cfa: sp 8 +
STACK CFI 102810 .ra: .cfa -4 + ^ r4: .cfa -8 + ^
STACK CFI INIT 1028f0 38 .cfa: sp 0 + .ra: lr
STACK CFI 1028f4 .cfa: sp 8 + .ra: .cfa -4 + ^ r4: .cfa -8 + ^
STACK CFI INIT 102928 3c .cfa: sp 0 + .ra: lr
STACK CFI 10292c .cfa: sp 8 + .ra: .cfa -4 + ^ r4: .cfa -8 + ^
STACK CFI INIT 102964 3c .cfa: sp 0 + .ra: lr
STACK CFI 102968 .cfa: sp 8 + .ra: .cfa -4 + ^ r4: .cfa -8 + ^
STACK CFI INIT 1029a0 3c .cfa: sp 0 + .ra: lr
STACK CFI 1029a4 .cfa: sp 8 + .ra: .cfa -4 + ^ r4: .cfa -8 + ^
STACK CFI INIT 1029dc 6c .cfa: sp 0 + .ra: lr
STACK CFI 1029e0 .cfa: sp 16 +
STACK CFI 1029e4 .ra: .cfa -4 + ^ r4: .cfa -16 + ^ r5: .cfa -12 + ^ r6: .cfa -8 + ^
STACK CFI INIT 102a48 158 .cfa: sp 0 + .ra: lr
STACK CFI 102a4c .cfa: sp 24 +
STACK CFI 102a50 .ra: .cfa -4 + ^ r3: .cfa -24 + ^ r4: .cfa -20 + ^ r5: .cfa -16 + ^ r6: .cfa -12 + ^ r7: .cfa -8 + ^
STACK CFI INIT 102ba0 b4 .cfa: sp 0 + .ra: lr
STACK CFI 102ba4 .cfa: sp 24 +
STACK CFI 102ba8 .ra: .cfa -4 + ^ r4: .cfa -24 + ^ r5: .cfa -20 + ^ r6: .cfa -16 + ^ r7: .cfa -12 + ^ r8: .cfa -8 + ^
STACK CFI INIT 102c54 b4 .cfa: sp 0 + .ra: lr
STACK CFI 102c58 .cfa: sp 28 +
STACK CFI 102c5c .ra: .cfa -4 + ^ r10: .cfa -8 + ^ r4: .cfa -28 + ^ r5: .cfa -24 + ^ r6: .cfa -20 + ^ r7: .cfa -16 + ^ r8: .cfa -12 + ^
STACK CFI 102c60 .cfa: sp 40 +
STACK CFI INIT 102d08 90 .cfa: sp 0 + .ra: lr
STACK CFI 102d0c .cfa: sp 16 +
STACK CFI 102d10 .cfa: sp 24 +
STACK CFI 102d18 .ra: .cfa -4 + ^ r4: .cfa -16 + ^ r5: .cfa -12 + ^ r6: .cfa -8 + ^
STACK CFI INIT 102d98 58 .cfa: sp 0 + .ra: lr
STACK CFI 102d9c .cfa: sp 16 +
STACK CFI 102da0 .ra: .cfa -4 + ^ r4: .cfa -16 + ^ r5: .cfa -12 + ^ r6: .cfa -8 + ^
STACK CFI 102db4 .cfa: sp 64 +
STACK CFI INIT 102df0 50 .cfa: sp 0 + .ra: lr
STACK CFI 102e00 .cfa: sp 4 +
STACK CFI 102e04 .cfa: sp 56 +
STACK CFI 102e0c .ra: .cfa -4 + ^
STACK CFI INIT 102e40 50 .cfa: sp 0 + .ra: lr
STACK CFI 102e50 .cfa: sp 4 +
STACK CFI 102e54 .cfa: sp 56 +
STACK CFI 102e5c .ra: .cfa -4 + ^
STACK CFI INIT 102e90 50 .cfa: sp 0 + .ra: lr
STACK CFI 102ea0 .cfa: sp 4 +
STACK CFI 102ea4 .cfa: sp 56 +
STACK CFI 102eac .ra: .cfa -4 + ^
STACK CFI INIT 102ee0 34 .cfa: sp 0 + .ra: lr
STACK CFI 102ee8 .cfa: sp 4 +
STACK CFI 102ef0 .cfa: sp 56 +
STACK CFI 102f08 .ra: .cfa -4 + ^
STACK CFI INIT 102f14 38 .cfa: sp 0 + .ra: lr
STACK CFI 102f1c .cfa: sp 4 +
STACK CFI 102f24 .cfa: sp 56 +
STACK CFI 102f40 .ra: .cfa -4 + ^
STACK CFI INIT 102f4c 4c .cfa: sp 0 + .ra: lr
STACK CFI 102f5c .cfa: sp 8 +
STACK CFI 102f60 .cfa: sp 56 +
STACK CFI 102f64 .ra: .cfa -4 + ^ r4: .cfa -8 + ^
STACK CFI INIT 102f98 60 .cfa: sp 0 + .ra: lr
STACK CFI 102f9c .cfa: sp 12 +
STACK CFI 102fa0 .ra: .cfa -4 + ^ r4: .cfa -12 + ^ r5: .cfa -8 + ^
STACK CFI 102fb4 .cfa: sp 64 +
STACK CFI INIT 102ff8 48 .cfa: sp 0 + .ra: lr
STACK CFI 102ffc .cfa: sp 4 +
STACK CFI 103000 .cfa: sp 136 +
STACK CFI 103018 .ra: .cfa -4 + ^
STACK CFI INIT 103040 70 .cfa: sp 0 + .ra: lr
STACK CFI 103044 .cfa: sp 32 +
STACK CFI 103048 .ra: .cfa -4 + ^ r10: .cfa -8 + ^ r3: .cfa -32 + ^ r4: .cfa -28 + ^ r5: .cfa -24 + ^ r6: .cfa -20 + ^ r7: .cfa -16 + ^ r8: .cfa -12 + ^
STACK CFI INIT 1030b0 94 .cfa: sp 0 + .ra: lr
STACK CFI 1030b4 .cfa: sp 32 +
STACK CFI 1030b8 .ra: .cfa -4 + ^ r10: .cfa -8 + ^ r3: .cfa -32 + ^ r4: .cfa -28 + ^ r5: .cfa -24 + ^ r6: .cfa -20 + ^ r7: .cfa -16 + ^ r8: .cfa -12 + ^
STACK CFI INIT 103144 1e4 .cfa: sp 0 + .ra: lr
STACK CFI 103148 .cfa: sp 20 +
STACK CFI 10314c .cfa: sp 1348 +
STACK CFI 103150 .cfa: sp 1352 +
STACK CFI 10315c .ra: .cfa -4 + ^ r4: .cfa -20 + ^ r5: .cfa -16 + ^ r6: .cfa -12 + ^ r7: .cfa -8 + ^
STACK CFI INIT 103328 28 .cfa: sp 0 + .ra: lr
STACK CFI 10332c .cfa: sp 8 + .ra: .cfa -4 + ^ r4: .cfa -8 + ^
STACK CFI INIT 103350 8 .cfa: sp 0 + .ra: lr
STACK CFI INIT 103358 6c .cfa: sp 0 + .ra: lr
STACK CFI 103360 .cfa: sp 8 +
STACK CFI 103368 .ra: .cfa -4 + ^ r4: .cfa -8 + ^
STACK CFI INIT 1033c4 268 .cfa: sp 0 + .ra: lr
STACK CFI 1033c8 .cfa: sp 32 +
STACK CFI 1033cc .ra: .cfa -4 + ^ r10: .cfa -8 + ^ r4: .cfa -32 + ^ r5: .cfa -28 + ^ r6: .cfa -24 + ^ r7: .cfa -20 + ^ r8: .cfa -16 + ^ r9: .cfa -12 + ^
STACK CFI 1033e8 .cfa: sp 56 +
STACK CFI INIT 10362c 8 .cfa: sp 0 + .ra: lr
STACK CFI INIT 103634 8 .cfa: sp 0 + .ra: lr
STACK CFI INIT 10363c 4 .cfa: sp 0 + .ra: lr
STACK CFI INIT 103640 48 .cfa: sp 0 + .ra: lr
STACK CFI 103644 .cfa: sp 16 +
STACK CFI 103648 .ra: .cfa -4 + ^ r3: .cfa -16 + ^ r4: .cfa -12 + ^ r5: .cfa -8 + ^
STACK CFI INIT 103688 30 .cfa: sp 0 + .ra: lr
STACK CFI 10368c .cfa: sp 16 +
STACK CFI 103690 .ra: .cfa -4 + ^ r3: .cfa -16 + ^ r4: .cfa -12 + ^ r5: .cfa -8 + ^
STACK CFI INIT 1036b8 7c .cfa: sp 0 + .ra: lr
STACK CFI 1036bc .cfa: sp 24 +
STACK CFI 1036c0 .ra: .cfa -4 + ^ r3: .cfa -24 + ^ r4: .cfa -20 + ^ r5: .cfa -16 + ^ r6: .cfa -12 + ^ r7: .cfa -8 + ^
STACK CFI INIT 103734 64 .cfa: sp 0 + .ra: lr
STACK CFI 103738 .cfa: sp 16 +
STACK CFI 10373c .ra: .cfa -4 + ^ r3: .cfa -16 + ^ r4: .cfa -12 + ^ r5: .cfa -8 + ^
STACK CFI INIT 103798 94 .cfa: sp 0 + .ra: lr
STACK CFI 10379c .cfa: sp 8 + .ra: .cfa -4 + ^ r4: .cfa -8 + ^
STACK CFI INIT 10382c 28 .cfa: sp 0 + .ra: lr
STACK CFI 103830 .cfa: sp 16 + .ra: .cfa -4 + ^ r3: .cfa -16 + ^ r4: .cfa -12 + ^ r5: .cfa -8 + ^
STACK CFI INIT 103854 1d4 .cfa: sp 0 + .ra: lr
STACK CFI 103858 .cfa: sp 36 +
STACK CFI 10385c .cfa: sp 40 + .ra: .cfa -4 + ^ r10: .cfa -12 + ^ r11: .cfa -8 + ^ r4: .cfa -36 + ^ r5: .cfa -32 + ^ r6: .cfa -28 + ^ r7: .cfa -24 + ^ r8: .cfa -20 + ^ r9: .cfa -16 + ^
STACK CFI INIT 103a28 218 .cfa: sp 0 + .ra: lr
STACK CFI 103a2c .cfa: sp 20 +
STACK CFI 103a30 .ra: .cfa -4 + ^ r4: .cfa -20 + ^ r5: .cfa -16 + ^ r6: .cfa -12 + ^ r7: .cfa -8 + ^
STACK CFI 103a34 .cfa: sp 8788 +
STACK CFI 103a38 .cfa: sp 8832 +
STACK CFI INIT 103c40 1d0 .cfa: sp 0 + .ra: lr
STACK CFI 103c44 .cfa: sp 24 +
STACK CFI 103c48 .ra: .cfa -4 + ^ r4: .cfa -24 + ^ r5: .cfa -20 + ^ r6: .cfa -16 + ^ r7: .cfa -12 + ^ r8: .cfa -8 + ^
STACK CFI 103c4c .cfa: sp 40 +
STACK CFI INIT 103e10 8 .cfa: sp 0 + .ra: lr
STACK CFI INIT 103e18 1c .cfa: sp 0 + .ra: lr
STACK CFI 103e20 .cfa: sp 8 +
STACK CFI 103e28 .ra: .cfa -4 + ^ r3: .cfa -8 + ^
STACK CFI INIT 103e34 20 .cfa: sp 0 + .ra: lr
STACK CFI 103e3c .cfa: sp 8 +
STACK CFI 103e40 .ra: .cfa -4 + ^ r3: .cfa -8 + ^
STACK CFI INIT 103e54 114 .cfa: sp 0 + .ra: lr
STACK CFI 103e58 .cfa: sp 28 +
STACK CFI 103e5c .ra: .cfa -4 + ^ r10: .cfa -8 + ^ r4: .cfa -28 + ^ r5: .cfa -24 + ^ r6: .cfa -20 + ^ r7: .cfa -16 + ^ r8: .cfa -12 + ^
STACK CFI 103e60 .cfa: sp 40 +
STACK CFI INIT 103f68 58 .cfa: sp 0 + .ra: lr
STACK CFI 103f6c .cfa: sp 16 +
STACK CFI 103f70 .ra: .cfa -4 + ^ r4: .cfa -16 + ^ r5: .cfa -12 + ^ r6: .cfa -8 + ^
STACK CFI INIT 103fc0 3c .cfa: sp 0 + .ra: lr
STACK CFI 103fc8 .cfa: sp 16 +
STACK CFI 103fd0 .ra: .cfa -4 + ^ r3: .cfa -16 + ^ r4: .cfa -12 + ^ r5: .cfa -8 + ^
STACK CFI INIT 103ffc 2c .cfa: sp 0 + .ra: lr
STACK CFI 104000 .cfa: sp 8 +
STACK CFI 104004 .ra: .cfa -4 + ^ r3: .cfa -8 + ^
STACK CFI INIT 104028 48 .cfa: sp 0 + .ra: lr
STACK CFI 10402c .cfa: sp 24 +
STACK CFI 104030 .ra: .cfa -4 + ^ r3: .cfa -24 + ^ r4: .cfa -20 + ^ r5: .cfa -16 + ^ r6: .cfa -12 + ^ r7: .cfa -8 + ^
STACK CFI INIT 104070 5c .cfa: sp 0 + .ra: lr
STACK CFI 104074 .cfa: sp 24 +
STACK CFI 104078 .ra: .cfa -4 + ^ r3: .cfa -24 + ^ r4: .cfa -20 + ^ r5: .cfa -16 + ^ r6: .cfa -12 + ^ r7: .cfa -8 + ^
STACK CFI INIT 1040cc b0 .cfa: sp 0 + .ra: lr
STACK CFI 1040d0 .cfa: sp 20 +
STACK CFI 1040d4 .ra: .cfa -4 + ^ r4: .cfa -20 + ^ r5: .cfa -16 + ^ r6: .cfa -12 + ^ r7: .cfa -8 + ^
STACK CFI 1040d8 .cfa: sp 32 +
STACK CFI INIT 10417c 8 .cfa: sp 0 + .ra: lr
STACK CFI 104180 .cfa: sp 8 + .ra: .cfa -4 + ^ r3: .cfa -8 + ^
STACK CFI INIT 104184 74 .cfa: sp 0 + .ra: lr
STACK CFI 104188 .cfa: sp 20 +
STACK CFI 10418c .ra: .cfa -4 + ^ r4: .cfa -20 + ^ r5: .cfa -16 + ^ r6: .cfa -12 + ^ r7: .cfa -8 + ^
STACK CFI 104190 .cfa: sp 48 +
STACK CFI INIT 1041f8 218 .cfa: sp 0 + .ra: lr
STACK CFI 1041fc .cfa: sp 28 +
STACK CFI 104204 .cfa: sp 56 +
STACK CFI 10420c .ra: .cfa -4 + ^ r10: .cfa -8 + ^ r4: .cfa -28 + ^ r5: .cfa -24 + ^ r6: .cfa -20 + ^ r7: .cfa -16 + ^ r8: .cfa -12 + ^
STACK CFI INIT 104410 4 .cfa: sp 0 + .ra: lr
STACK CFI INIT 104414 8 .cfa: sp 0 + .ra: lr
STACK CFI INIT 10441c 1c .cfa: sp 0 + .ra: lr
STACK CFI 104424 .cfa: sp 8 +
STACK CFI 10442c .ra: .cfa -4 + ^ r3: .cfa -8 + ^
STACK CFI INIT 104438 20 .cfa: sp 0 + .ra: lr
STACK CFI 104440 .cfa: sp 8 +
STACK CFI 104444 .ra: .cfa -4 + ^ r3: .cfa -8 + ^
STACK CFI INIT 104458 4c .cfa: sp 0 + .ra: lr
STACK CFI 10445c .cfa: sp 16 +
STACK CFI 104460 .ra: .cfa -4 + ^ r4: .cfa -16 + ^ r5: .cfa -12 + ^ r6: .cfa -8 + ^
STACK CFI INIT 1044a4 2d4 .cfa: sp 0 + .ra: lr
STACK CFI 1044a8 .cfa: sp 36 +
STACK CFI 1044ac .ra: .cfa -4 + ^ r10: .cfa -12 + ^ r11: .cfa -8 + ^ r4: .cfa -36 + ^ r5: .cfa -32 + ^ r6: .cfa -28 + ^ r7: .cfa -24 + ^ r8: .cfa -20 + ^ r9: .cfa -16 + ^
STACK CFI 1044b0 .cfa: sp 64 +
STACK CFI INIT 104778 2dc .cfa: sp 0 + .ra: lr
STACK CFI 10477c .cfa: sp 32 +
STACK CFI 104780 .ra: .cfa -4 + ^ r10: .cfa -8 + ^ r4: .cfa -32 + ^ r5: .cfa -28 + ^ r6: .cfa -24 + ^ r7: .cfa -20 + ^ r8: .cfa -16 + ^ r9: .cfa -12 + ^
STACK CFI 10479c .cfa: sp 40 +
STACK CFI INIT 104a54 278 .cfa: sp 0 + .ra: lr
STACK CFI 104a58 .cfa: sp 32 +
STACK CFI 104a60 .cfa: sp 64 +
STACK CFI 104a68 .ra: .cfa -4 + ^ r10: .cfa -8 + ^ r4: .cfa -32 + ^ r5: .cfa -28 + ^ r6: .cfa -24 + ^ r7: .cfa -20 + ^ r8: .cfa -16 + ^ r9: .cfa -12 + ^
STACK CFI INIT 104ccc 10 .cfa: sp 0 + .ra: lr
STACK CFI INIT 104cdc 18c .cfa: sp 0 + .ra: lr
STACK CFI 104ce0 .cfa: sp 24 +
STACK CFI 104ce4 .ra: .cfa -4 + ^ r3: .cfa -24 + ^ r4: .cfa -20 + ^ r5: .cfa -16 + ^ r6: .cfa -12 + ^ r7: .cfa -8 + ^
STACK CFI INIT 104e68 28 .cfa: sp 0 + .ra: lr
STACK CFI 104e6c .cfa: sp 4 +
STACK CFI 104e70 .cfa: sp 32 +
STACK CFI 104e84 .ra: .cfa -4 + ^
STACK CFI INIT 104e90 8 .cfa: sp 0 + .ra: lr
STACK CFI INIT 104e98 4 .cfa: sp 0 + .ra: lr
STACK CFI INIT 104e9c 4 .cfa: sp 0 + .ra: lr
STACK CFI INIT 104ea0 48 .cfa: sp 0 + .ra: lr
STACK CFI 104ea4 .cfa: sp 8 +
STACK CFI 104ea8 .ra: .cfa -4 + ^ r3: .cfa -8 + ^
STACK CFI INIT 104ee8 64 .cfa: sp 0 + .ra: lr
STACK CFI 104eec .cfa: sp 12 +
STACK CFI 104ef0 .ra: .cfa -4 + ^ r4: .cfa -12 + ^ r5: .cfa -8 + ^
STACK CFI 104ef4 .cfa: sp 24 +
STACK CFI INIT 104f4c d0 .cfa: sp 0 + .ra: lr
STACK CFI 104f50 .cfa: sp 16 +
STACK CFI 104f54 .ra: .cfa -4 + ^ r4: .cfa -16 + ^ r5: .cfa -12 + ^ r6: .cfa -8 + ^
STACK CFI 104f58 .cfa: sp 24 +
STACK CFI INIT 10501c d0 .cfa: sp 0 + .ra: lr
STACK CFI 105020 .cfa: sp 16 +
STACK CFI 105024 .ra: .cfa -4 + ^ r4: .cfa -16 + ^ r5: .cfa -12 + ^ r6: .cfa -8 + ^
STACK CFI 105028 .cfa: sp 24 +
STACK CFI INIT 1050ec 4 .cfa: sp 0 + .ra: lr
STACK CFI INIT 1050f0 4 .cfa: sp 0 + .ra: lr
STACK CFI INIT 1050f4 70 .cfa: sp 0 + .ra: lr
STACK CFI 1050f8 .cfa: sp 12 +
STACK CFI 1050fc .ra: .cfa -4 + ^ r4: .cfa -12 + ^ r5: .cfa -8 + ^
STACK CFI 105100 .cfa: sp 24 +
STACK CFI INIT 105164 70 .cfa: sp 0 + .ra: lr
STACK CFI 105168 .cfa: sp 12 +
STACK CFI 10516c .ra: .cfa -4 + ^ r4: .cfa -12 + ^ r5: .cfa -8 + ^
STACK CFI 105170 .cfa: sp 24 +
STACK CFI INIT 1051d4 34 .cfa: sp 0 + .ra: lr
STACK CFI 1051d8 .cfa: sp 8 +
STACK CFI 1051dc .cfa: sp 16 +
STACK CFI 1051e4 .ra: .cfa -4 + ^ r4: .cfa -8 + ^
STACK CFI INIT 105208 34 .cfa: sp 0 + .ra: lr
STACK CFI 10520c .cfa: sp 8 +
STACK CFI 105210 .cfa: sp 16 +
STACK CFI 105218 .ra: .cfa -4 + ^ r4: .cfa -8 + ^
STACK CFI INIT 10523c 84 .cfa: sp 0 + .ra: lr
STACK CFI 105240 .cfa: sp 12 +
STACK CFI 105244 .ra: .cfa -4 + ^ r4: .cfa -12 + ^ r5: .cfa -8 + ^
STACK CFI 105248 .cfa: sp 24 +
STACK CFI INIT 1052c0 4 .cfa: sp 0 + .ra: lr
STACK CFI INIT 1052c4 d0 .cfa: sp 0 + .ra: lr
STACK CFI 1052cc .cfa: sp 16 +
STACK CFI 1052d0 .ra: .cfa -4 + ^ r4: .cfa -16 + ^ r5: .cfa -12 + ^ r6: .cfa -8 + ^
STACK CFI INIT 105394 120 .cfa: sp 0 + .ra: lr
STACK CFI 105398 .cfa: sp 28 +
STACK CFI 10539c .ra: .cfa -4 + ^ r10: .cfa -8 + ^ r4: .cfa -28 + ^ r5: .cfa -24 + ^ r6: .cfa -20 + ^ r7: .cfa -16 + ^ r8: .cfa -12 + ^
STACK CFI 1053a0 .cfa: sp 40 +
STACK CFI INIT 1054b4 10 .cfa: sp 0 + .ra: lr
STACK CFI INIT 1054c4 9c .cfa: sp 0 + .ra: lr
STACK CFI 1054c8 .cfa: sp 24 +
STACK CFI 1054cc .ra: .cfa -4 + ^ r4: .cfa -24 + ^ r5: .cfa -20 + ^ r6: .cfa -16 + ^ r7: .cfa -12 + ^ r8: .cfa -8 + ^
STACK CFI INIT 105560 140 .cfa: sp 0 + .ra: lr
STACK CFI 105568 .cfa: sp 24 +
STACK CFI 105570 .cfa: sp 32 +
STACK CFI 105574 .ra: .cfa -4 + ^ r4: .cfa -24 + ^ r5: .cfa -20 + ^ r6: .cfa -16 + ^ r7: .cfa -12 + ^ r8: .cfa -8 + ^
STACK CFI INIT 1056a0 18 .cfa: sp 0 + .ra: lr
STACK CFI 1056a4 .cfa: sp 8 +
STACK CFI 1056a8 .ra: .cfa -4 + ^ r3: .cfa -8 + ^
STACK CFI INIT 1056b8 158 .cfa: sp 0 + .ra: lr
STACK CFI 1056bc .cfa: sp 40 +
STACK CFI 1056c0 .ra: .cfa -4 + ^ r10: .cfa -12 + ^ r11: .cfa -8 + ^ r3: .cfa -40 + ^ r4: .cfa -36 + ^ r5: .cfa -32 + ^ r6: .cfa -28 + ^ r7: .cfa -24 + ^ r8: .cfa -20 + ^ r9: .cfa -16 + ^
STACK CFI INIT 105810 a0 .cfa: sp 0 + .ra: lr
STACK CFI 105814 .cfa: sp 32 +
STACK CFI 105818 .ra: .cfa -4 + ^ r10: .cfa -8 + ^ r4: .cfa -32 + ^ r5: .cfa -28 + ^ r6: .cfa -24 + ^ r7: .cfa -20 + ^ r8: .cfa -16 + ^ r9: .cfa -12 + ^
STACK CFI INIT 1058b0 44 .cfa: sp 0 + .ra: lr
STACK CFI 1058b8 .cfa: sp 8 +
STACK CFI 1058c0 .ra: .cfa -4 + ^ r3: .cfa -8 + ^
STACK CFI INIT 1058f4 9c .cfa: sp 0 + .ra: lr
STACK CFI 1058f8 .cfa: sp 16 +
STACK CFI 1058fc .ra: .cfa -4 + ^ r3: .cfa -16 + ^ r4: .cfa -12 + ^ r5: .cfa -8 + ^
STACK CFI INIT 105990 4 .cfa: sp 0 + .ra: lr
STACK CFI INIT 105994 4c .cfa: sp 0 + .ra: lr
STACK CFI 1059a4 .cfa: sp 4 +
STACK CFI 1059ac r4: .cfa -4 + ^
STACK CFI INIT 1059e0 48 .cfa: sp 0 + .ra: lr
STACK CFI INIT 105a28 10 .cfa: sp 0 + .ra: lr
STACK CFI INIT 105a38 3c .cfa: sp 0 + .ra: lr
STACK CFI INIT 105a74 28 .cfa: sp 0 + .ra: lr
STACK CFI INIT 105a9c 4c .cfa: sp 0 + .ra: lr
STACK CFI 105aac .cfa: sp 4 +
STACK CFI 105ab4 r4: .cfa -4 + ^
STACK CFI INIT 105ae8 48 .cfa: sp 0 + .ra: lr
STACK CFI INIT 105b30 44 .cfa: sp 0 + .ra: lr
STACK CFI 105b34 .cfa: sp 16 +
STACK CFI 105b38 .ra: .cfa -4 + ^ r3: .cfa -16 + ^ r4: .cfa -12 + ^ r5: .cfa -8 + ^
STACK CFI INIT 105b74 48 .cfa: sp 0 + .ra: lr
STACK CFI 105b78 .cfa: sp 16 +
STACK CFI 105b7c .ra: .cfa -4 + ^ r3: .cfa -16 + ^ r4: .cfa -12 + ^ r5: .cfa -8 + ^
STACK CFI INIT 105bbc 24 .cfa: sp 0 + .ra: lr
STACK CFI INIT 105be0 74 .cfa: sp 0 + .ra: lr
STACK CFI 105be8 .cfa: sp 4 +
STACK CFI 105bf4 r4: .cfa -4 + ^
STACK CFI INIT 105c54 74 .cfa: sp 0 + .ra: lr
STACK CFI 105c58 .cfa: sp 16 +
STACK CFI 105c5c .ra: .cfa -4 + ^ r3: .cfa -16 + ^ r4: .cfa -12 + ^ r5: .cfa -8 + ^
STACK CFI INIT 105cc8 78 .cfa: sp 0 + .ra: lr
STACK CFI 105ccc .cfa: sp 16 +
STACK CFI 105cd0 .ra: .cfa -4 + ^ r3: .cfa -16 + ^ r4: .cfa -12 + ^ r5: .cfa -8 + ^
STACK CFI INIT 105d40 78 .cfa: sp 0 + .ra: lr
STACK CFI 105d44 .cfa: sp 16 +
STACK CFI 105d48 .ra: .cfa -4 + ^ r3: .cfa -16 + ^ r4: .cfa -12 + ^ r5: .cfa -8 + ^
STACK CFI INIT 105db8 a8 .cfa: sp 0 + .ra: lr
STACK CFI 105dbc .cfa: sp 24 +
STACK CFI 105dc0 .ra: .cfa -4 + ^ r4: .cfa -24 + ^ r5: .cfa -20 + ^ r6: .cfa -16 + ^ r7: .cfa -12 + ^ r8: .cfa -8 + ^
STACK CFI INIT 105e60 58 .cfa: sp 0 + .ra: lr
STACK CFI 105e64 .cfa: sp 8 +
STACK CFI 105e68 .cfa: sp 16 +
STACK CFI 105e74 .ra: .cfa -4 + ^ r4: .cfa -8 + ^
STACK CFI INIT 105eb8 90 .cfa: sp 0 + .ra: lr
STACK CFI 105ebc .cfa: sp 24 +
STACK CFI 105ec0 .ra: .cfa -4 + ^ r3: .cfa -24 + ^ r4: .cfa -20 + ^ r5: .cfa -16 + ^ r6: .cfa -12 + ^ r7: .cfa -8 + ^
STACK CFI INIT 105f48 94 .cfa: sp 0 + .ra: lr
STACK CFI 105f50 .cfa: sp 8 +
STACK CFI 105f58 .ra: .cfa -4 + ^ r4: .cfa -8 + ^
STACK CFI 105f60 .cfa: sp 16 +
STACK CFI INIT 105fdc 98 .cfa: sp 0 + .ra: lr
STACK CFI 105fe4 .cfa: sp 8 +
STACK CFI 105fec .ra: .cfa -4 + ^ r4: .cfa -8 + ^
STACK CFI 105ff4 .cfa: sp 16 +
STACK CFI INIT 106074 a8 .cfa: sp 0 + .ra: lr
STACK CFI 106078 .cfa: sp 24 +
STACK CFI 10607c .ra: .cfa -4 + ^ r4: .cfa -24 + ^ r5: .cfa -20 + ^ r6: .cfa -16 + ^ r7: .cfa -12 + ^ r8: .cfa -8 + ^
STACK CFI INIT 10611c 1c .cfa: sp 0 + .ra: lr
STACK CFI 106120 .cfa: sp 8 +
STACK CFI 106124 .ra: .cfa -4 + ^ r4: .cfa -8 + ^
STACK CFI INIT 106138 68 .cfa: sp 0 + .ra: lr
STACK CFI 10613c .cfa: sp 16 +
STACK CFI 106140 .ra: .cfa -4 + ^ r3: .cfa -16 + ^ r4: .cfa -12 + ^ r5: .cfa -8 + ^
STACK CFI INIT 1061a0 b4 .cfa: sp 0 + .ra: lr
STACK CFI 1061a4 .cfa: sp 16 +
STACK CFI 1061a8 .ra: .cfa -4 + ^ r4: .cfa -16 + ^ r5: .cfa -12 + ^ r6: .cfa -8 + ^
STACK CFI INIT 106254 14c .cfa: sp 0 + .ra: lr
STACK CFI 106258 .cfa: sp 36 +
STACK CFI 10625c .ra: .cfa -4 + ^ r10: .cfa -12 + ^ r11: .cfa -8 + ^ r4: .cfa -36 + ^ r5: .cfa -32 + ^ r6: .cfa -28 + ^ r7: .cfa -24 + ^ r8: .cfa -20 + ^ r9: .cfa -16 + ^
STACK CFI 106260 .cfa: sp 40 +
STACK CFI INIT 1063a0 e4 .cfa: sp 0 + .ra: lr
STACK CFI 1063a4 .cfa: sp 24 +
STACK CFI 1063a8 .ra: .cfa -4 + ^ r4: .cfa -24 + ^ r5: .cfa -20 + ^ r6: .cfa -16 + ^ r7: .cfa -12 + ^ r8: .cfa -8 + ^
STACK CFI INIT 106484 ec .cfa: sp 0 + .ra: lr
STACK CFI 106488 .cfa: sp 24 +
STACK CFI 10648c .ra: .cfa -4 + ^ r3: .cfa -24 + ^ r4: .cfa -20 + ^ r5: .cfa -16 + ^ r6: .cfa -12 + ^ r7: .cfa -8 + ^
STACK CFI INIT 106570 80 .cfa: sp 0 + .ra: lr
STACK CFI 106578 .cfa: sp 4 +
STACK CFI 106580 r4: .cfa -4 + ^
STACK CFI INIT 1065f0 e4 .cfa: sp 0 + .ra: lr
STACK CFI 1065f4 .cfa: sp 20 +
STACK CFI 1065f8 .ra: .cfa -4 + ^ r4: .cfa -20 + ^ r5: .cfa -16 + ^ r6: .cfa -12 + ^ r7: .cfa -8 + ^
STACK CFI 1065fc .cfa: sp 32 +
STACK CFI INIT 1066d4 6c .cfa: sp 0 + .ra: lr
STACK CFI 1066d8 .cfa: sp 20 +
STACK CFI 1066dc .ra: .cfa -4 + ^ r4: .cfa -20 + ^ r5: .cfa -16 + ^ r6: .cfa -12 + ^ r7: .cfa -8 + ^
STACK CFI 1066e0 .cfa: sp 32 +
STACK CFI INIT 106740 8 .cfa: sp 0 + .ra: lr
STACK CFI INIT 106748 48 .cfa: sp 0 + .ra: lr
STACK CFI 106758 .cfa: sp 4 +
STACK CFI 10675c .ra: .cfa -4 + ^
STACK CFI 106764 .cfa: sp 16 +
STACK CFI INIT 106790 3c .cfa: sp 0 + .ra: lr
STACK CFI 106798 .cfa: sp 8 +
STACK CFI 10679c .ra: .cfa -4 + ^ r3: .cfa -8 + ^
STACK CFI INIT 1067cc 48 .cfa: sp 0 + .ra: lr
STACK CFI 1067e0 .cfa: sp 4 +
STACK CFI 1067e4 .ra: .cfa -4 + ^
STACK CFI 1067e8 .cfa: sp 16 +
STACK CFI INIT 106814 48 .cfa: sp 0 + .ra: lr
STACK CFI 106818 .cfa: sp 8 +
STACK CFI 10681c .cfa: sp 16 +
STACK CFI 106828 .ra: .cfa -4 + ^ r4: .cfa -8 + ^
STACK CFI INIT 10685c 3c .cfa: sp 0 + .ra: lr
STACK CFI 106864 .cfa: sp 8 +
STACK CFI 106868 .ra: .cfa -4 + ^ r3: .cfa -8 + ^
STACK CFI INIT 106898 48 .cfa: sp 0 + .ra: lr
STACK CFI 10689c .cfa: sp 8 +
STACK CFI 1068a0 .cfa: sp 16 +
STACK CFI 1068ac .ra: .cfa -4 + ^ r4: .cfa -8 + ^
STACK CFI INIT 1068e0 8 .cfa: sp 0 + .ra: lr
STACK CFI INIT 1068e8 1c .cfa: sp 0 + .ra: lr
STACK CFI 1068ec .cfa: sp 8 +
STACK CFI 1068f4 .ra: .cfa -4 + ^ r3: .cfa -8 + ^
STACK CFI INIT 106904 8 .cfa: sp 0 + .ra: lr
STACK CFI INIT 10690c 28 .cfa: sp 0 + .ra: lr
STACK CFI INIT 106934 108 .cfa: sp 0 + .ra: lr
STACK CFI 106938 .cfa: sp 36 +
STACK CFI 10693c .ra: .cfa -4 + ^ r10: .cfa -12 + ^ r11: .cfa -8 + ^ r4: .cfa -36 + ^ r5: .cfa -32 + ^ r6: .cfa -28 + ^ r7: .cfa -24 + ^ r8: .cfa -20 + ^ r9: .cfa -16 + ^
STACK CFI 106940 .cfa: sp 56 +
STACK CFI INIT 106a3c 118 .cfa: sp 0 + .ra: lr
STACK CFI 106a40 .cfa: sp 36 +
STACK CFI 106a44 .ra: .cfa -4 + ^ r10: .cfa -12 + ^ r11: .cfa -8 + ^ r4: .cfa -36 + ^ r5: .cfa -32 + ^ r6: .cfa -28 + ^ r7: .cfa -24 + ^ r8: .cfa -20 + ^ r9: .cfa -16 + ^
STACK CFI 106a48 .cfa: sp 64 +
STACK CFI INIT 106b54 18 .cfa: sp 0 + .ra: lr
STACK CFI INIT 106b6c 18 .cfa: sp 0 + .ra: lr
STACK CFI INIT 106b84 8 .cfa: sp 0 + .ra: lr
STACK CFI INIT 106b8c 8 .cfa: sp 0 + .ra: lr
STACK CFI INIT 106b94 8 .cfa: sp 0 + .ra: lr
STACK CFI INIT 106b9c 18 .cfa: sp 0 + .ra: lr
STACK CFI INIT 106bb4 2c .cfa: sp 0 + .ra: lr
STACK CFI 106bb8 .cfa: sp 16 +
STACK CFI 106bbc .ra: .cfa -4 + ^ r3: .cfa -16 + ^ r4: .cfa -12 + ^ r5: .cfa -8 + ^
STACK CFI INIT 106be0 78 .cfa: sp 0 + .ra: lr
STACK CFI 106be4 .cfa: sp 16 +
STACK CFI 106be8 .ra: .cfa -4 + ^ r3: .cfa -16 + ^ r4: .cfa -12 + ^ r5: .cfa -8 + ^
STACK CFI INIT 106c58 d8 .cfa: sp 0 + .ra: lr
STACK CFI 106c5c .cfa: sp 12 +
STACK CFI 106c60 .ra: .cfa -4 + ^ r4: .cfa -12 + ^ r5: .cfa -8 + ^
STACK CFI 106c64 .cfa: sp 80 +
STACK CFI INIT 106d30 4 .cfa: sp 0 + .ra: lr
STACK CFI INIT 106d34 30 .cfa: sp 0 + .ra: lr
STACK CFI 106d38 .cfa: sp 16 +
STACK CFI 106d3c .ra: .cfa -4 + ^ r4: .cfa -16 + ^ r5: .cfa -12 + ^ r6: .cfa -8 + ^
STACK CFI INIT 106d64 b8 .cfa: sp 0 + .ra: lr
STACK CFI 106d6c .cfa: sp 8 +
STACK CFI 106d74 .cfa: sp 24 +
STACK CFI 106d78 .ra: .cfa -4 + ^ r4: .cfa -8 + ^
STACK CFI INIT 106e1c 2a0 .cfa: sp 0 + .ra: lr
STACK CFI 106e20 .cfa: sp 28 +
STACK CFI 106e24 .ra: .cfa -4 + ^ r10: .cfa -8 + ^ r4: .cfa -28 + ^ r5: .cfa -24 + ^ r6: .cfa -20 + ^ r7: .cfa -16 + ^ r8: .cfa -12 + ^
STACK CFI 106e28 .cfa: sp 80 +
STACK CFI INIT 1070bc f8 .cfa: sp 0 + .ra: lr
STACK CFI 1070c0 .cfa: sp 16 +
STACK CFI 1070c4 .ra: .cfa -4 + ^ r4: .cfa -16 + ^ r5: .cfa -12 + ^ r6: .cfa -8 + ^
STACK CFI 1070c8 .cfa: sp 40 +
STACK CFI INIT 1071b4 64 .cfa: sp 0 + .ra: lr
STACK CFI 1071b8 .cfa: sp 20 +
STACK CFI 1071bc .cfa: sp 1060 +
STACK CFI 1071c0 .cfa: sp 1064 +
STACK CFI 1071c4 .ra: .cfa -4 + ^ r4: .cfa -20 + ^ r5: .cfa -16 + ^ r6: .cfa -12 + ^ r7: .cfa -8 + ^
STACK CFI INIT 107218 1e4 .cfa: sp 0 + .ra: lr
STACK CFI 10721c .cfa: sp 36 +
STACK CFI 107220 .ra: .cfa -4 + ^ r10: .cfa -12 + ^ r11: .cfa -8 + ^ r4: .cfa -36 + ^ r5: .cfa -32 + ^ r6: .cfa -28 + ^ r7: .cfa -24 + ^ r8: .cfa -20 + ^ r9: .cfa -16 + ^
STACK CFI 107224 .cfa: sp 312 +
STACK CFI INIT 1073fc 9c .cfa: sp 0 + .ra: lr
STACK CFI 107400 .cfa: sp 16 +
STACK CFI 107404 .ra: .cfa -4 + ^ r3: .cfa -16 + ^ r4: .cfa -12 + ^ r5: .cfa -8 + ^
STACK CFI INIT 107498 38 .cfa: sp 0 + .ra: lr
STACK CFI 10749c .cfa: sp 16 +
STACK CFI 1074a4 .ra: .cfa -4 + ^ r3: .cfa -16 + ^ r4: .cfa -12 + ^ r5: .cfa -8 + ^
STACK CFI INIT 1074d0 28c .cfa: sp 0 + .ra: lr
STACK CFI 1074d4 .cfa: sp 16 +
STACK CFI 1074d8 .cfa: sp 160 +
STACK CFI 1074dc .ra: .cfa -4 + ^ r4: .cfa -16 + ^ r5: .cfa -12 + ^ r6: .cfa -8 + ^
STACK CFI INIT 10775c 230 .cfa: sp 0 + .ra: lr
STACK CFI 107760 .cfa: sp 32 +
STACK CFI 107768 .ra: .cfa -4 + ^ r10: .cfa -8 + ^ r4: .cfa -32 + ^ r5: .cfa -28 + ^ r6: .cfa -24 + ^ r7: .cfa -20 + ^ r8: .cfa -16 + ^ r9: .cfa -12 + ^
STACK CFI 107770 .cfa: sp 56 +
STACK CFI INIT 10798c 58 .cfa: sp 0 + .ra: lr
STACK CFI 107998 .cfa: sp 4 +
STACK CFI 10799c .cfa: sp 24 +
STACK CFI 1079b4 .ra: .cfa -4 + ^
STACK CFI INIT 1079e4 70 .cfa: sp 0 + .ra: lr
STACK CFI 1079e8 .cfa: sp 8 +
STACK CFI 1079ec .cfa: sp 120 +
STACK CFI 1079f0 .ra: .cfa -4 + ^ r4: .cfa -8 + ^
STACK CFI INIT 107a54 7c .cfa: sp 0 + .ra: lr
STACK CFI 107a58 .cfa: sp 8 +
STACK CFI 107a5c .cfa: sp 40 +
STACK CFI 107a64 .ra: .cfa -4 + ^ r4: .cfa -8 + ^
STACK CFI INIT 107ad0 7c .cfa: sp 0 + .ra: lr
STACK CFI 107ad4 .cfa: sp 8 +
STACK CFI 107ad8 .cfa: sp 40 +
STACK CFI 107ae0 .ra: .cfa -4 + ^ r4: .cfa -8 + ^
STACK CFI INIT 107b4c 88 .cfa: sp 0 + .ra: lr
STACK CFI 107b50 .cfa: sp 8 +
STACK CFI 107b54 .cfa: sp 48 +
STACK CFI 107b60 .ra: .cfa -4 + ^ r4: .cfa -8 + ^
STACK CFI INIT 107bd4 88 .cfa: sp 0 + .ra: lr
STACK CFI 107bd8 .cfa: sp 8 +
STACK CFI 107bdc .cfa: sp 48 +
STACK CFI 107be8 .ra: .cfa -4 + ^ r4: .cfa -8 + ^
STACK CFI INIT 107c5c 100 .cfa: sp 0 + .ra: lr
STACK CFI 107c60 .cfa: sp 32 +
STACK CFI 107c64 .ra: .cfa -4 + ^ r10: .cfa -8 + ^ r4: .cfa -32 + ^ r5: .cfa -28 + ^ r6: .cfa -24 + ^ r7: .cfa -20 + ^ r8: .cfa -16 + ^ r9: .cfa -12 + ^
STACK CFI 107c68 .cfa: sp 72 +
STACK CFI INIT 107d5c 5c .cfa: sp 0 + .ra: lr
STACK CFI 107d68 .cfa: sp 4 +
STACK CFI 107d6c .cfa: sp 24 +
STACK CFI 107d84 .ra: .cfa -4 + ^
STACK CFI INIT 107db8 6c .cfa: sp 0 + .ra: lr
STACK CFI 107dbc .cfa: sp 8 +
STACK CFI 107dc4 .ra: .cfa -4 + ^ r4: .cfa -8 + ^
STACK CFI 107dcc .cfa: sp 32 +
STACK CFI INIT 107e24 58 .cfa: sp 0 + .ra: lr
STACK CFI 107e28 .cfa: sp 8 + .ra: .cfa -4 + ^ r4: .cfa -8 + ^
STACK CFI INIT 107e7c 14 .cfa: sp 0 + .ra: lr
STACK CFI 107e80 .cfa: sp 8 + .ra: .cfa -4 + ^ r3: .cfa -8 + ^
STACK CFI INIT 107e90 18 .cfa: sp 0 + .ra: lr
STACK CFI 107e94 .cfa: sp 8 +
STACK CFI 107e98 .ra: .cfa -4 + ^ r3: .cfa -8 + ^
STACK CFI INIT 107ea8 18 .cfa: sp 0 + .ra: lr
STACK CFI 107eac .cfa: sp 8 +
STACK CFI 107eb0 .ra: .cfa -4 + ^ r3: .cfa -8 + ^
STACK CFI INIT 107ec0 30 .cfa: sp 0 + .ra: lr
STACK CFI 107ec4 .cfa: sp 16 +
STACK CFI 107ec8 .ra: .cfa -4 + ^ r3: .cfa -16 + ^ r4: .cfa -12 + ^ r5: .cfa -8 + ^
STACK CFI INIT 107ef0 44 .cfa: sp 0 + .ra: lr
STACK CFI 107ef4 .cfa: sp 16 +
STACK CFI 107ef8 .ra: .cfa -4 + ^ r3: .cfa -16 + ^ r4: .cfa -12 + ^ r5: .cfa -8 + ^
STACK CFI INIT 107f34 44 .cfa: sp 0 + .ra: lr
STACK CFI 107f38 .cfa: sp 16 +
STACK CFI 107f3c .ra: .cfa -4 + ^ r3: .cfa -16 + ^ r4: .cfa -12 + ^ r5: .cfa -8 + ^
STACK CFI INIT 107f78 70 .cfa: sp 0 + .ra: lr
STACK CFI 107f7c .cfa: sp 12 +
STACK CFI 107f80 .cfa: sp 24 +
STACK CFI 107f84 .ra: .cfa -4 + ^ r4: .cfa -12 + ^ r5: .cfa -8 + ^
STACK CFI INIT 107fe8 44 .cfa: sp 0 + .ra: lr
STACK CFI 107fec .cfa: sp 16 +
STACK CFI 107ff0 .ra: .cfa -4 + ^ r3: .cfa -16 + ^ r4: .cfa -12 + ^ r5: .cfa -8 + ^
STACK CFI INIT 10802c 44 .cfa: sp 0 + .ra: lr
STACK CFI 108030 .cfa: sp 16 +
STACK CFI 108034 .ra: .cfa -4 + ^ r3: .cfa -16 + ^ r4: .cfa -12 + ^ r5: .cfa -8 + ^
STACK CFI INIT 108070 44 .cfa: sp 0 + .ra: lr
STACK CFI 108074 .cfa: sp 16 +
STACK CFI 108078 .ra: .cfa -4 + ^ r3: .cfa -16 + ^ r4: .cfa -12 + ^ r5: .cfa -8 + ^
STACK CFI INIT 1080b4 c4 .cfa: sp 0 + .ra: lr
STACK CFI 1080b8 .cfa: sp 20 +
STACK CFI 1080bc .ra: .cfa -4 + ^ r4: .cfa -20 + ^ r5: .cfa -16 + ^ r6: .cfa -12 + ^ r7: .cfa -8 + ^
STACK CFI 1080c0 .cfa: sp 288 +
STACK CFI INIT 108178 150 .cfa: sp 0 + .ra: lr
STACK CFI 10817c .cfa: sp 24 +
STACK CFI 108180 .ra: .cfa -4 + ^ r4: .cfa -24 + ^ r5: .cfa -20 + ^ r6: .cfa -16 + ^ r7: .cfa -12 + ^ r8: .cfa -8 + ^
STACK CFI 108188 .cfa: sp 168 +
STACK CFI INIT 1082c8 34 .cfa: sp 0 + .ra: lr
STACK CFI 1082cc .cfa: sp 8 +
STACK CFI 1082d0 .ra: .cfa -4 + ^ r4: .cfa -8 + ^
STACK CFI INIT 1082fc 10c .cfa: sp 0 + .ra: lr
STACK CFI 108300 .cfa: sp 36 +
STACK CFI 108304 .ra: .cfa -4 + ^ r10: .cfa -12 + ^ r11: .cfa -8 + ^ r4: .cfa -36 + ^ r5: .cfa -32 + ^ r6: .cfa -28 + ^ r7: .cfa -24 + ^ r8: .cfa -20 + ^ r9: .cfa -16 + ^
STACK CFI 108308 .cfa: sp 64 +
STACK CFI INIT 108408 74 .cfa: sp 0 + .ra: lr
STACK CFI 10840c .cfa: sp 20 +
STACK CFI 108410 .cfa: sp 280 +
STACK CFI 108414 .ra: .cfa -4 + ^ r4: .cfa -20 + ^ r5: .cfa -16 + ^ r6: .cfa -12 + ^ r7: .cfa -8 + ^
STACK CFI INIT 10847c 19c .cfa: sp 0 + .ra: lr
STACK CFI 108480 .cfa: sp 24 +
STACK CFI 108484 .cfa: sp 40 +
STACK CFI 108488 .ra: .cfa -4 + ^ r4: .cfa -24 + ^ r5: .cfa -20 + ^ r6: .cfa -16 + ^ r7: .cfa -12 + ^ r8: .cfa -8 + ^
STACK CFI INIT 108618 24 .cfa: sp 0 + .ra: lr
STACK CFI 10861c .cfa: sp 16 +
STACK CFI 108620 .ra: .cfa -4 + ^ r4: .cfa -16 + ^ r5: .cfa -12 + ^ r6: .cfa -8 + ^
STACK CFI INIT 10863c 1a8 .cfa: sp 0 + .ra: lr
STACK CFI 108644 .cfa: sp 24 +
STACK CFI 108648 .ra: .cfa -4 + ^ r4: .cfa -24 + ^ r5: .cfa -20 + ^ r6: .cfa -16 + ^ r7: .cfa -12 + ^ r8: .cfa -8 + ^
STACK CFI 108650 .cfa: sp 64 +
STACK CFI INIT 1087e4 78c .cfa: sp 0 + .ra: lr
STACK CFI 1087e8 .cfa: sp 36 +
STACK CFI 1087ec .cfa: sp 1140 +
STACK CFI 1087f0 .cfa: sp 1152 +
STACK CFI 1087f4 .ra: .cfa -4 + ^ r10: .cfa -12 + ^ r11: .cfa -8 + ^ r4: .cfa -36 + ^ r5: .cfa -32 + ^ r6: .cfa -28 + ^ r7: .cfa -24 + ^ r8: .cfa -20 + ^ r9: .cfa -16 + ^
STACK CFI INIT 108f70 248 .cfa: sp 0 + .ra: lr
STACK CFI 108f74 .cfa: sp 36 +
STACK CFI 108f78 .ra: .cfa -4 + ^ r10: .cfa -12 + ^ r11: .cfa -8 + ^ r4: .cfa -36 + ^ r5: .cfa -32 + ^ r6: .cfa -28 + ^ r7: .cfa -24 + ^ r8: .cfa -20 + ^ r9: .cfa -16 + ^
STACK CFI 108f7c .cfa: sp 64 +
STACK CFI INIT 1091b8 18 .cfa: sp 0 + .ra: lr
STACK CFI INIT 1091d0 20 .cfa: sp 0 + .ra: lr
STACK CFI 1091d8 .cfa: sp 8 +
STACK CFI 1091dc .ra: .cfa -4 + ^ r3: .cfa -8 + ^
STACK CFI INIT 1091f0 4 .cfa: sp 0 + .ra: lr
STACK CFI INIT 1091f4 158 .cfa: sp 0 + .ra: lr
STACK CFI 1091fc .cfa: sp 8 +
STACK CFI 109200 .ra: .cfa -4 + ^ r3: .cfa -8 + ^
STACK CFI INIT 10934c 50 .cfa: sp 0 + .ra: lr
STACK CFI 109350 .cfa: sp 16 +
STACK CFI 109354 .ra: .cfa -4 + ^ r4: .cfa -16 + ^ r5: .cfa -12 + ^ r6: .cfa -8 + ^
STACK CFI INIT 10939c 2ec .cfa: sp 0 + .ra: lr
STACK CFI 1093a0 .cfa: sp 36 +
STACK CFI 1093a4 .ra: .cfa -4 + ^ r10: .cfa -12 + ^ r11: .cfa -8 + ^ r4: .cfa -36 + ^ r5: .cfa -32 + ^ r6: .cfa -28 + ^ r7: .cfa -24 + ^ r8: .cfa -20 + ^ r9: .cfa -16 + ^
STACK CFI 1093a8 .cfa: sp 112 +
STACK CFI INIT 109688 b4 .cfa: sp 0 + .ra: lr
STACK CFI 10968c .cfa: sp 28 +
STACK CFI 109690 .cfa: r11 4 + .ra: .cfa -4 + ^ r11: .cfa -8 + ^ r4: .cfa -28 + ^ r5: .cfa -24 + ^ r6: .cfa -20 + ^ r7: .cfa -16 + ^ r8: .cfa -12 + ^
STACK CFI INIT 10973c 68 .cfa: sp 0 + .ra: lr
STACK CFI 109740 .cfa: sp 24 +
STACK CFI 109744 .ra: .cfa -4 + ^ r4: .cfa -24 + ^ r5: .cfa -20 + ^ r6: .cfa -16 + ^ r7: .cfa -12 + ^ r8: .cfa -8 + ^
STACK CFI INIT 1097a4 1a0 .cfa: sp 0 + .ra: lr
STACK CFI 1097a8 .cfa: sp 24 +
STACK CFI 1097ac .ra: .cfa -4 + ^ r4: .cfa -24 + ^ r5: .cfa -20 + ^ r6: .cfa -16 + ^ r7: .cfa -12 + ^ r8: .cfa -8 + ^
STACK CFI 1097d0 .cfa: sp 80 +
STACK CFI INIT 109944 254 .cfa: sp 0 + .ra: lr
STACK CFI 109948 .cfa: sp 36 +
STACK CFI 10994c .ra: .cfa -4 + ^ r10: .cfa -12 + ^ r11: .cfa -8 + ^ r4: .cfa -36 + ^ r5: .cfa -32 + ^ r6: .cfa -28 + ^ r7: .cfa -24 + ^ r8: .cfa -20 + ^ r9: .cfa -16 + ^
STACK CFI 109950 .cfa: sp 96 +
STACK CFI INIT 109b98 8 .cfa: sp 0 + .ra: lr
STACK CFI INIT 109ba0 1c .cfa: sp 0 + .ra: lr
STACK CFI 109ba8 .cfa: sp 8 +
STACK CFI 109bb0 .ra: .cfa -4 + ^ r3: .cfa -8 + ^
STACK CFI INIT 109bbc 20 .cfa: sp 0 + .ra: lr
STACK CFI 109bc4 .cfa: sp 8 +
STACK CFI 109bc8 .ra: .cfa -4 + ^ r3: .cfa -8 + ^
STACK CFI INIT 109bdc 114 .cfa: sp 0 + .ra: lr
STACK CFI 109be0 .cfa: sp 28 +
STACK CFI 109be4 .ra: .cfa -4 + ^ r10: .cfa -8 + ^ r4: .cfa -28 + ^ r5: .cfa -24 + ^ r6: .cfa -20 + ^ r7: .cfa -16 + ^ r8: .cfa -12 + ^
STACK CFI 109be8 .cfa: sp 40 +
STACK CFI INIT 109cf0 58 .cfa: sp 0 + .ra: lr
STACK CFI 109cf4 .cfa: sp 16 +
STACK CFI 109cf8 .ra: .cfa -4 + ^ r4: .cfa -16 + ^ r5: .cfa -12 + ^ r6: .cfa -8 + ^
STACK CFI INIT 109d48 3c .cfa: sp 0 + .ra: lr
STACK CFI 109d50 .cfa: sp 16 +
STACK CFI 109d58 .ra: .cfa -4 + ^ r3: .cfa -16 + ^ r4: .cfa -12 + ^ r5: .cfa -8 + ^
STACK CFI INIT 109d84 2c .cfa: sp 0 + .ra: lr
STACK CFI 109d88 .cfa: sp 8 +
STACK CFI 109d8c .ra: .cfa -4 + ^ r3: .cfa -8 + ^
STACK CFI INIT 109db0 6c .cfa: sp 0 + .ra: lr
STACK CFI 109db4 .cfa: sp 24 +
STACK CFI 109db8 .ra: .cfa -4 + ^ r3: .cfa -24 + ^ r4: .cfa -20 + ^ r5: .cfa -16 + ^ r6: .cfa -12 + ^ r7: .cfa -8 + ^
STACK CFI INIT 109e1c fc .cfa: sp 0 + .ra: lr
STACK CFI 109e20 .cfa: sp 36 +
STACK CFI 109e28 .cfa: sp 96 +
STACK CFI 109e30 .ra: .cfa -4 + ^ r10: .cfa -12 + ^ r11: .cfa -8 + ^ r4: .cfa -36 + ^ r5: .cfa -32 + ^ r6: .cfa -28 + ^ r7: .cfa -24 + ^ r8: .cfa -20 + ^ r9: .cfa -16 + ^
STACK CFI INIT 109f18 148 .cfa: sp 0 + .ra: lr
STACK CFI 109f1c .cfa: sp 20 +
STACK CFI 109f20 .ra: .cfa -4 + ^ r4: .cfa -20 + ^ r5: .cfa -16 + ^ r6: .cfa -12 + ^ r7: .cfa -8 + ^
STACK CFI 109f24 .cfa: sp 80 +
STACK CFI INIT 10a060 8 .cfa: sp 0 + .ra: lr
STACK CFI 10a064 .cfa: sp 8 + .ra: .cfa -4 + ^ r3: .cfa -8 + ^
STACK CFI INIT 10a068 94 .cfa: sp 0 + .ra: lr
STACK CFI 10a06c .cfa: sp 16 +
STACK CFI 10a070 .ra: .cfa -4 + ^ r4: .cfa -16 + ^ r5: .cfa -12 + ^ r6: .cfa -8 + ^
STACK CFI 10a074 .cfa: sp 152 +
STACK CFI INIT 10a0fc 20c .cfa: sp 0 + .ra: lr
STACK CFI 10a100 .cfa: sp 28 +
STACK CFI 10a108 .cfa: sp 152 +
STACK CFI 10a10c .ra: .cfa -4 + ^ r10: .cfa -8 + ^ r4: .cfa -28 + ^ r5: .cfa -24 + ^ r6: .cfa -20 + ^ r7: .cfa -16 + ^ r8: .cfa -12 + ^
STACK CFI INIT 10a308 4 .cfa: sp 0 + .ra: lr
STACK CFI INIT 10a30c 12c .cfa: sp 0 + .ra: lr
STACK CFI 10a310 .cfa: sp 20 +
STACK CFI 10a314 .ra: .cfa -4 + ^ r4: .cfa -20 + ^ r5: .cfa -16 + ^ r6: .cfa -12 + ^ r7: .cfa -8 + ^
STACK CFI 10a318 .cfa: sp 40 +
STACK CFI INIT 10a438 cc .cfa: sp 0 + .ra: lr
STACK CFI 10a43c .cfa: sp 16 +
STACK CFI 10a440 .ra: .cfa -4 + ^ r4: .cfa -16 + ^ r5: .cfa -12 + ^ r6: .cfa -8 + ^
STACK CFI 10a444 .cfa: sp 24 +
STACK CFI INIT 10a504 cc .cfa: sp 0 + .ra: lr
STACK CFI 10a508 .cfa: sp 16 +
STACK CFI 10a50c .ra: .cfa -4 + ^ r4: .cfa -16 + ^ r5: .cfa -12 + ^ r6: .cfa -8 + ^
STACK CFI 10a510 .cfa: sp 24 +
STACK CFI INIT 10a5d0 44 .cfa: sp 0 + .ra: lr
STACK CFI 10a5d8 .cfa: sp 8 +
STACK CFI 10a5e0 .ra: .cfa -4 + ^ r3: .cfa -8 + ^
STACK CFI INIT 10a614 44 .cfa: sp 0 + .ra: lr
STACK CFI 10a61c .cfa: sp 8 +
STACK CFI 10a624 .ra: .cfa -4 + ^ r3: .cfa -8 + ^
STACK CFI INIT 10a658 70 .cfa: sp 0 + .ra: lr
STACK CFI 10a65c .cfa: sp 12 +
STACK CFI 10a660 .ra: .cfa -4 + ^ r4: .cfa -12 + ^ r5: .cfa -8 + ^
STACK CFI 10a664 .cfa: sp 24 +
STACK CFI INIT 10a6c8 70 .cfa: sp 0 + .ra: lr
STACK CFI 10a6cc .cfa: sp 12 +
STACK CFI 10a6d0 .ra: .cfa -4 + ^ r4: .cfa -12 + ^ r5: .cfa -8 + ^
STACK CFI 10a6d4 .cfa: sp 24 +
STACK CFI INIT 10a738 70 .cfa: sp 0 + .ra: lr
STACK CFI 10a73c .cfa: sp 12 +
STACK CFI 10a740 .ra: .cfa -4 + ^ r4: .cfa -12 + ^ r5: .cfa -8 + ^
STACK CFI 10a744 .cfa: sp 24 +
STACK CFI INIT 10a7a8 70 .cfa: sp 0 + .ra: lr
STACK CFI 10a7ac .cfa: sp 12 +
STACK CFI 10a7b0 .ra: .cfa -4 + ^ r4: .cfa -12 + ^ r5: .cfa -8 + ^
STACK CFI 10a7b4 .cfa: sp 24 +
STACK CFI INIT 10a818 d0 .cfa: sp 0 + .ra: lr
STACK CFI 10a820 .cfa: sp 20 +
STACK CFI 10a824 r4: .cfa -20 + ^ r5: .cfa -16 + ^ r6: .cfa -12 + ^ r7: .cfa -8 + ^ r8: .cfa -4 + ^
STACK CFI INIT 10a8e8 144 .cfa: sp 0 + .ra: lr
STACK CFI 10a8f0 .cfa: sp 36 +
STACK CFI 10a8f4 .cfa: sp 48 +
STACK CFI 10a8f8 .ra: .cfa -4 + ^ r10: .cfa -12 + ^ r11: .cfa -8 + ^ r4: .cfa -36 + ^ r5: .cfa -32 + ^ r6: .cfa -28 + ^ r7: .cfa -24 + ^ r8: .cfa -20 + ^ r9: .cfa -16 + ^
STACK CFI INIT 10aa2c 70 .cfa: sp 0 + .ra: lr
STACK CFI INIT 10aa9c a4 .cfa: sp 0 + .ra: lr
STACK CFI 10aaa0 .cfa: sp 24 +
STACK CFI 10aaa4 .cfa: sp 48 +
STACK CFI 10aaa8 .ra: .cfa -4 + ^ r4: .cfa -24 + ^ r5: .cfa -20 + ^ r6: .cfa -16 + ^ r7: .cfa -12 + ^ r8: .cfa -8 + ^
STACK CFI INIT 10ab40 a4 .cfa: sp 0 + .ra: lr
STACK CFI 10ab44 .cfa: sp 24 +
STACK CFI 10ab48 .cfa: sp 48 +
STACK CFI 10ab4c .ra: .cfa -4 + ^ r4: .cfa -24 + ^ r5: .cfa -20 + ^ r6: .cfa -16 + ^ r7: .cfa -12 + ^ r8: .cfa -8 + ^
STACK CFI INIT 10abe4 b0 .cfa: sp 0 + .ra: lr
STACK CFI 10abf8 .cfa: sp 8 +
STACK CFI 10ac00 .ra: .cfa -4 + ^ r4: .cfa -8 + ^
STACK CFI INIT 10ac94 104 .cfa: sp 0 + .ra: lr
STACK CFI 10ac98 .cfa: sp 36 +
STACK CFI 10ac9c .cfa: sp 120 +
STACK CFI 10aca0 .ra: .cfa -4 + ^ r10: .cfa -12 + ^ r11: .cfa -8 + ^ r4: .cfa -36 + ^ r5: .cfa -32 + ^ r6: .cfa -28 + ^ r7: .cfa -24 + ^ r8: .cfa -20 + ^ r9: .cfa -16 + ^
STACK CFI INIT 10ad98 24 .cfa: sp 0 + .ra: lr
STACK CFI 10ad9c .cfa: sp 4 +
STACK CFI 10ada0 .cfa: sp 64 +
STACK CFI 10ada4 .ra: .cfa -4 + ^
STACK CFI INIT 10adbc 1570 .cfa: sp 0 + .ra: lr
STACK CFI 10adc0 .cfa: sp 32 +
STACK CFI 10adc8 r10: .cfa -8 + ^ r11: .cfa -4 + ^ r4: .cfa -32 + ^ r5: .cfa -28 + ^ r6: .cfa -24 + ^ r7: .cfa -20 + ^ r8: .cfa -16 + ^ r9: .cfa -12 + ^
STACK CFI INIT 10c32c 5cc .cfa: sp 0 + .ra: lr
STACK CFI 10c330 .cfa: sp 36 +
STACK CFI 10c334 .cfa: sp 216 +
STACK CFI 10c340 .ra: .cfa -4 + ^ r10: .cfa -12 + ^ r11: .cfa -8 + ^ r4: .cfa -36 + ^ r5: .cfa -32 + ^ r6: .cfa -28 + ^ r7: .cfa -24 + ^ r8: .cfa -20 + ^ r9: .cfa -16 + ^
STACK CFI INIT 10c8f8 a8 .cfa: sp 0 + .ra: lr
STACK CFI INIT 10c9a0 128 .cfa: sp 0 + .ra: lr
STACK CFI INIT 117168 24 .cfa: sp 0 + .ra: lr
STACK CFI INIT 10cac8 434 .cfa: sp 0 + .ra: lr
STACK CFI 10cacc .cfa: sp 36 +
STACK CFI 10cad0 .ra: .cfa -4 + ^ r10: .cfa -12 + ^ r11: .cfa -8 + ^ r4: .cfa -36 + ^ r5: .cfa -32 + ^ r6: .cfa -28 + ^ r7: .cfa -24 + ^ r8: .cfa -20 + ^ r9: .cfa -16 + ^
STACK CFI 10cad8 .cfa: sp 128 +
STACK CFI INIT 10cefc 50 .cfa: sp 0 + .ra: lr
STACK CFI 10cf00 .cfa: sp 20 +
STACK CFI 10cf04 .ra: .cfa -4 + ^ r4: .cfa -20 + ^ r5: .cfa -16 + ^ r6: .cfa -12 + ^ r7: .cfa -8 + ^
STACK CFI 10cf08 .cfa: sp 40 +
STACK CFI INIT 10cf4c 58 .cfa: sp 0 + .ra: lr
STACK CFI 10cf50 .cfa: sp 16 +
STACK CFI 10cf54 .ra: .cfa -4 + ^ r4: .cfa -16 + ^ r5: .cfa -12 + ^ r6: .cfa -8 + ^
STACK CFI 10cf58 .cfa: sp 48 +
STACK CFI INIT 11718c 24 .cfa: sp 0 + .ra: lr
STACK CFI INIT 10cfa4 6fc .cfa: sp 0 + .ra: lr
STACK CFI 10cfa8 .cfa: sp 36 +
STACK CFI 10cfac .ra: .cfa -4 + ^ r10: .cfa -12 + ^ r11: .cfa -8 + ^ r4: .cfa -36 + ^ r5: .cfa -32 + ^ r6: .cfa -28 + ^ r7: .cfa -24 + ^ r8: .cfa -20 + ^ r9: .cfa -16 + ^
STACK CFI 10cfb4 .cfa: r11 4 +
STACK CFI INIT 10d6a0 48 .cfa: sp 0 + .ra: lr
STACK CFI 10d6a4 .cfa: sp 20 +
STACK CFI 10d6a8 .cfa: sp 40 +
STACK CFI 10d6ac .ra: .cfa -4 + ^ r4: .cfa -20 + ^ r5: .cfa -16 + ^ r6: .cfa -12 + ^ r7: .cfa -8 + ^
STACK CFI INIT 10d6e8 58 .cfa: sp 0 + .ra: lr
STACK CFI 10d6ec .cfa: sp 16 +
STACK CFI 10d6f0 .ra: .cfa -4 + ^ r4: .cfa -16 + ^ r5: .cfa -12 + ^ r6: .cfa -8 + ^
STACK CFI 10d6f4 .cfa: sp 48 +
STACK CFI INIT 1171b0 24 .cfa: sp 0 + .ra: lr
STACK CFI INIT 10d740 91c .cfa: sp 0 + .ra: lr
STACK CFI 10d744 .cfa: sp 36 +
STACK CFI 10d748 .ra: .cfa -4 + ^ r10: .cfa -12 + ^ r11: .cfa -8 + ^ r4: .cfa -36 + ^ r5: .cfa -32 + ^ r6: .cfa -28 + ^ r7: .cfa -24 + ^ r8: .cfa -20 + ^ r9: .cfa -16 + ^
STACK CFI 10d74c .cfa: r11 4 +
STACK CFI INIT 10e05c 74 .cfa: sp 0 + .ra: lr
STACK CFI 10e060 .cfa: sp 24 +
STACK CFI 10e064 .ra: .cfa -4 + ^ r4: .cfa -24 + ^ r5: .cfa -20 + ^ r6: .cfa -16 + ^ r7: .cfa -12 + ^ r8: .cfa -8 + ^
STACK CFI 10e06c .cfa: sp 40 +
STACK CFI INIT 10e0d0 5c .cfa: sp 0 + .ra: lr
STACK CFI 10e0d4 .cfa: sp 20 +
STACK CFI 10e0dc .cfa: sp 40 +
STACK CFI 10e0e0 .ra: .cfa -4 + ^ r4: .cfa -20 + ^ r5: .cfa -16 + ^ r6: .cfa -12 + ^ r7: .cfa -8 + ^
STACK CFI INIT 10e12c 58 .cfa: sp 0 + .ra: lr
STACK CFI 10e130 .cfa: sp 12 +
STACK CFI 10e13c r4: .cfa -12 + ^ r5: .cfa -8 + ^ r6: .cfa -4 + ^
STACK CFI INIT 10e184 4a0 .cfa: sp 0 + .ra: lr
STACK CFI 10e188 .cfa: sp 36 +
STACK CFI 10e18c .ra: .cfa -4 + ^ r10: .cfa -12 + ^ r11: .cfa -8 + ^ r4: .cfa -36 + ^ r5: .cfa -32 + ^ r6: .cfa -28 + ^ r7: .cfa -24 + ^ r8: .cfa -20 + ^ r9: .cfa -16 + ^
STACK CFI 10e190 .cfa: sp 120 +
STACK CFI INIT 10e624 3f4 .cfa: sp 0 + .ra: lr
STACK CFI 10e628 .cfa: sp 36 +
STACK CFI 10e62c .cfa: sp 88 +
STACK CFI 10e630 .ra: .cfa -4 + ^ r10: .cfa -12 + ^ r11: .cfa -8 + ^ r4: .cfa -36 + ^ r5: .cfa -32 + ^ r6: .cfa -28 + ^ r7: .cfa -24 + ^ r8: .cfa -20 + ^ r9: .cfa -16 + ^
STACK CFI INIT 1171d4 24 .cfa: sp 0 + .ra: lr
STACK CFI INIT 10ea18 74c .cfa: sp 0 + .ra: lr
STACK CFI 10ea1c .cfa: sp 36 +
STACK CFI 10ea20 .ra: .cfa -4 + ^ r10: .cfa -12 + ^ r11: .cfa -8 + ^ r4: .cfa -36 + ^ r5: .cfa -32 + ^ r6: .cfa -28 + ^ r7: .cfa -24 + ^ r8: .cfa -20 + ^ r9: .cfa -16 + ^
STACK CFI 10ea30 .cfa: r11 4 +
STACK CFI INIT 10f164 50 .cfa: sp 0 + .ra: lr
STACK CFI 10f168 .cfa: sp 20 +
STACK CFI 10f16c .cfa: sp 40 +
STACK CFI 10f170 .ra: .cfa -4 + ^ r4: .cfa -20 + ^ r5: .cfa -16 + ^ r6: .cfa -12 + ^ r7: .cfa -8 + ^
STACK CFI INIT 10f1b4 68 .cfa: sp 0 + .ra: lr
STACK CFI 10f1b8 .cfa: sp 16 +
STACK CFI 10f1bc .cfa: sp 48 +
STACK CFI 10f1c0 .ra: .cfa -4 + ^ r4: .cfa -16 + ^ r5: .cfa -12 + ^ r6: .cfa -8 + ^
STACK CFI INIT 10f21c 104 .cfa: sp 0 + .ra: lr
STACK CFI 10f220 .cfa: sp 20 +
STACK CFI 10f224 .ra: .cfa -4 + ^ r4: .cfa -20 + ^ r5: .cfa -16 + ^ r6: .cfa -12 + ^ r7: .cfa -8 + ^
STACK CFI 10f228 .cfa: sp 40 +
STACK CFI INIT 10f320 294 .cfa: sp 0 + .ra: lr
STACK CFI 10f324 .cfa: sp 36 +
STACK CFI 10f328 .ra: .cfa -4 + ^ r10: .cfa -12 + ^ r11: .cfa -8 + ^ r4: .cfa -36 + ^ r5: .cfa -32 + ^ r6: .cfa -28 + ^ r7: .cfa -24 + ^ r8: .cfa -20 + ^ r9: .cfa -16 + ^
STACK CFI 10f32c .cfa: r11 4 +
STACK CFI INIT 10f5b4 b0 .cfa: sp 0 + .ra: lr
STACK CFI 10f5b8 .cfa: sp 32 +
STACK CFI 10f5bc .ra: .cfa -4 + ^ r10: .cfa -8 + ^ r4: .cfa -32 + ^ r5: .cfa -28 + ^ r6: .cfa -24 + ^ r7: .cfa -20 + ^ r8: .cfa -16 + ^ r9: .cfa -12 + ^
STACK CFI INIT 10f664 1f0 .cfa: sp 0 + .ra: lr
STACK CFI 10f668 .cfa: sp 40 +
STACK CFI 10f66c .ra: .cfa -4 + ^ r10: .cfa -12 + ^ r11: .cfa -8 + ^ r3: .cfa -40 + ^ r4: .cfa -36 + ^ r5: .cfa -32 + ^ r6: .cfa -28 + ^ r7: .cfa -24 + ^ r8: .cfa -20 + ^ r9: .cfa -16 + ^
STACK CFI 10f670 .cfa: r11 4 +
STACK CFI INIT 10f854 58 .cfa: sp 0 + .ra: lr
STACK CFI 10f85c .cfa: sp 8 +
STACK CFI 10f864 .ra: .cfa -4 + ^ r4: .cfa -8 + ^
STACK CFI INIT 10f8ac 390 .cfa: sp 0 + .ra: lr
STACK CFI 10f8b0 .cfa: sp 36 +
STACK CFI 10f8b4 .cfa: r11 4 + .ra: .cfa -4 + ^ r10: .cfa -12 + ^ r11: .cfa -8 + ^ r4: .cfa -36 + ^ r5: .cfa -32 + ^ r6: .cfa -28 + ^ r7: .cfa -24 + ^ r8: .cfa -20 + ^ r9: .cfa -16 + ^
STACK CFI INIT 10fc3c 278 .cfa: sp 0 + .ra: lr
STACK CFI 10fc40 .cfa: sp 36 +
STACK CFI 10fc44 .ra: .cfa -4 + ^ r10: .cfa -12 + ^ r11: .cfa -8 + ^ r4: .cfa -36 + ^ r5: .cfa -32 + ^ r6: .cfa -28 + ^ r7: .cfa -24 + ^ r8: .cfa -20 + ^ r9: .cfa -16 + ^
STACK CFI 10fc48 .cfa: sp 72 +
STACK CFI INIT 10feb4 340 .cfa: sp 0 + .ra: lr
STACK CFI 10feb8 .cfa: sp 36 +
STACK CFI 10febc .cfa: sp 56 +
STACK CFI 10fec4 .ra: .cfa -4 + ^ r10: .cfa -12 + ^ r11: .cfa -8 + ^ r4: .cfa -36 + ^ r5: .cfa -32 + ^ r6: .cfa -28 + ^ r7: .cfa -24 + ^ r8: .cfa -20 + ^ r9: .cfa -16 + ^
STACK CFI INIT 1101f4 cc .cfa: sp 0 + .ra: lr
STACK CFI 1101f8 .cfa: sp 24 +
STACK CFI 110200 .ra: .cfa -4 + ^ r4: .cfa -24 + ^ r5: .cfa -20 + ^ r6: .cfa -16 + ^ r7: .cfa -12 + ^ r8: .cfa -8 + ^
STACK CFI INIT 1102c0 1c .cfa: sp 0 + .ra: lr
STACK CFI 1102c4 .cfa: sp 8 +
STACK CFI 1102c8 .ra: .cfa -4 + ^ r3: .cfa -8 + ^
STACK CFI INIT 1102dc 24 .cfa: sp 0 + .ra: lr
STACK CFI 1102e4 .cfa: sp 4 +
STACK CFI 1102ec .ra: .cfa -4 + ^
STACK CFI INIT 110300 24 .cfa: sp 0 + .ra: lr
STACK CFI 110308 .cfa: sp 4 +
STACK CFI 110310 .ra: .cfa -4 + ^
STACK CFI INIT 110324 24 .cfa: sp 0 + .ra: lr
STACK CFI 11032c .cfa: sp 4 +
STACK CFI 110334 .ra: .cfa -4 + ^
STACK CFI INIT 110348 24 .cfa: sp 0 + .ra: lr
STACK CFI 110350 .cfa: sp 4 +
STACK CFI 110358 .ra: .cfa -4 + ^
STACK CFI INIT 11036c 24 .cfa: sp 0 + .ra: lr
STACK CFI 110374 .cfa: sp 4 +
STACK CFI 11037c .ra: .cfa -4 + ^
STACK CFI INIT 110390 24 .cfa: sp 0 + .ra: lr
STACK CFI 110398 .cfa: sp 4 +
STACK CFI 1103a0 .ra: .cfa -4 + ^
STACK CFI INIT 1103b4 150 .cfa: sp 0 + .ra: lr
STACK CFI 1103b8 .cfa: sp 12 +
STACK CFI 1103bc .ra: .cfa -4 + ^ r4: .cfa -12 + ^ r5: .cfa -8 + ^
STACK CFI 1103c0 .cfa: sp 80 +
STACK CFI INIT 110504 d0 .cfa: sp 0 + .ra: lr
STACK CFI 11050c .cfa: sp 28 +
STACK CFI 110510 .cfa: sp 48 +
STACK CFI 11051c .ra: .cfa -4 + ^ r10: .cfa -8 + ^ r4: .cfa -28 + ^ r5: .cfa -24 + ^ r6: .cfa -20 + ^ r7: .cfa -16 + ^ r8: .cfa -12 + ^
STACK CFI INIT 1105d4 1c .cfa: sp 0 + .ra: lr
STACK CFI 1105d8 .cfa: sp 8 +
STACK CFI 1105dc .ra: .cfa -4 + ^ r4: .cfa -8 + ^
STACK CFI INIT 1105f0 4ec .cfa: sp 0 + .ra: lr
STACK CFI 1105f4 .cfa: sp 28 +
STACK CFI 1105f8 .cfa: r11 4 + .ra: .cfa -4 + ^ r11: .cfa -8 + ^ r4: .cfa -28 + ^ r5: .cfa -24 + ^ r6: .cfa -20 + ^ r7: .cfa -16 + ^ r8: .cfa -12 + ^
STACK CFI INIT 110adc 80 .cfa: sp 0 + .ra: lr
STACK CFI 110ae0 .cfa: sp 16 +
STACK CFI 110ae4 .ra: .cfa -4 + ^ r4: .cfa -16 + ^ r5: .cfa -12 + ^ r6: .cfa -8 + ^
STACK CFI 110ae8 .cfa: sp 24 +
STACK CFI INIT 110b5c 370 .cfa: sp 0 + .ra: lr
STACK CFI 110b60 .cfa: sp 28 +
STACK CFI 110b64 .ra: .cfa -4 + ^ r10: .cfa -8 + ^ r4: .cfa -28 + ^ r5: .cfa -24 + ^ r6: .cfa -20 + ^ r7: .cfa -16 + ^ r8: .cfa -12 + ^
STACK CFI 110b78 .cfa: sp 168 +
STACK CFI INIT 110ecc 2c .cfa: sp 0 + .ra: lr
STACK CFI 110ed0 .cfa: sp 8 +
STACK CFI 110ed4 .ra: .cfa -4 + ^ r4: .cfa -8 + ^
STACK CFI INIT 110ef8 58 .cfa: sp 0 + .ra: lr
STACK CFI 110efc .cfa: sp 8 +
STACK CFI 110f00 .ra: .cfa -4 + ^ r4: .cfa -8 + ^
STACK CFI 110f04 .cfa: sp 16 +
STACK CFI INIT 110f50 34 .cfa: sp 0 + .ra: lr
STACK CFI 110f54 .cfa: sp 8 +
STACK CFI 110f58 .ra: .cfa -4 + ^ r4: .cfa -8 + ^
STACK CFI INIT 110f84 58 .cfa: sp 0 + .ra: lr
STACK CFI 110f88 .cfa: sp 16 +
STACK CFI 110f8c .ra: .cfa -4 + ^ r4: .cfa -16 + ^ r5: .cfa -12 + ^ r6: .cfa -8 + ^
STACK CFI INIT 110fdc 60 .cfa: sp 0 + .ra: lr
STACK CFI 110fe0 .cfa: sp 24 +
STACK CFI 110fe4 .ra: .cfa -4 + ^ r3: .cfa -24 + ^ r4: .cfa -20 + ^ r5: .cfa -16 + ^ r6: .cfa -12 + ^ r7: .cfa -8 + ^
STACK CFI INIT 11103c 60 .cfa: sp 0 + .ra: lr
STACK CFI 111040 .cfa: sp 24 +
STACK CFI 111044 .ra: .cfa -4 + ^ r3: .cfa -24 + ^ r4: .cfa -20 + ^ r5: .cfa -16 + ^ r6: .cfa -12 + ^ r7: .cfa -8 + ^
STACK CFI INIT 11109c 44 .cfa: sp 0 + .ra: lr
STACK CFI 1110a0 .cfa: sp 16 +
STACK CFI 1110a4 .ra: .cfa -4 + ^ r3: .cfa -16 + ^ r4: .cfa -12 + ^ r5: .cfa -8 + ^
STACK CFI INIT 1110e0 4 .cfa: sp 0 + .ra: lr
STACK CFI INIT 1110e4 dc .cfa: sp 0 + .ra: lr
STACK CFI 1110e8 .cfa: sp 24 +
STACK CFI 1110ec .ra: .cfa -4 + ^ r3: .cfa -24 + ^ r4: .cfa -20 + ^ r5: .cfa -16 + ^ r6: .cfa -12 + ^ r7: .cfa -8 + ^
STACK CFI INIT 1111c0 f8 .cfa: sp 0 + .ra: lr
STACK CFI 1111c4 .cfa: sp 24 +
STACK CFI 1111c8 .ra: .cfa -4 + ^ r4: .cfa -24 + ^ r5: .cfa -20 + ^ r6: .cfa -16 + ^ r7: .cfa -12 + ^ r8: .cfa -8 + ^
STACK CFI INIT 1112b8 f0 .cfa: sp 0 + .ra: lr
STACK CFI 1112bc .cfa: sp 24 +
STACK CFI 1112c0 .ra: .cfa -4 + ^ r4: .cfa -24 + ^ r5: .cfa -20 + ^ r6: .cfa -16 + ^ r7: .cfa -12 + ^ r8: .cfa -8 + ^
STACK CFI INIT 1113a8 f0 .cfa: sp 0 + .ra: lr
STACK CFI 1113ac .cfa: sp 24 +
STACK CFI 1113b0 .ra: .cfa -4 + ^ r3: .cfa -24 + ^ r4: .cfa -20 + ^ r5: .cfa -16 + ^ r6: .cfa -12 + ^ r7: .cfa -8 + ^
STACK CFI INIT 111498 60 .cfa: sp 0 + .ra: lr
STACK CFI 11149c .cfa: sp 12 +
STACK CFI 1114a0 .ra: .cfa -4 + ^ r4: .cfa -12 + ^ r5: .cfa -8 + ^
STACK CFI 1114a4 .cfa: sp 24 +
STACK CFI INIT 1114f8 60 .cfa: sp 0 + .ra: lr
STACK CFI 1114fc .cfa: sp 12 +
STACK CFI 111500 .ra: .cfa -4 + ^ r4: .cfa -12 + ^ r5: .cfa -8 + ^
STACK CFI 111504 .cfa: sp 24 +
STACK CFI INIT 111558 170 .cfa: sp 0 + .ra: lr
STACK CFI 11155c .cfa: sp 32 +
STACK CFI 111560 .ra: .cfa -4 + ^ r10: .cfa -8 + ^ r3: .cfa -32 + ^ r4: .cfa -28 + ^ r5: .cfa -24 + ^ r6: .cfa -20 + ^ r7: .cfa -16 + ^ r8: .cfa -12 + ^
STACK CFI INIT 1116c8 100 .cfa: sp 0 + .ra: lr
STACK CFI 1116cc .cfa: sp 24 +
STACK CFI 1116d0 .ra: .cfa -4 + ^ r4: .cfa -24 + ^ r5: .cfa -20 + ^ r6: .cfa -16 + ^ r7: .cfa -12 + ^ r8: .cfa -8 + ^
STACK CFI INIT 1117c8 4 .cfa: sp 0 + .ra: lr
STACK CFI INIT 1117cc 218 .cfa: sp 0 + .ra: lr
STACK CFI 1117d0 .cfa: sp 28 +
STACK CFI 1117d4 .ra: .cfa -4 + ^ r4: .cfa -28 + ^ r5: .cfa -24 + ^ r6: .cfa -20 + ^ r7: .cfa -16 + ^ r8: .cfa -12 + ^ r9: .cfa -8 + ^
STACK CFI 1117d8 .cfa: sp 336 +
STACK CFI INIT 1119e4 60 .cfa: sp 0 + .ra: lr
STACK CFI 1119ec .cfa: sp 8 +
STACK CFI 1119fc .ra: .cfa -4 + ^ r7: .cfa -8 + ^
STACK CFI INIT 111a44 1fc .cfa: sp 0 + .ra: lr
STACK CFI 111a48 .cfa: sp 36 +
STACK CFI 111a4c .ra: .cfa -4 + ^ r10: .cfa -12 + ^ r11: .cfa -8 + ^ r4: .cfa -36 + ^ r5: .cfa -32 + ^ r6: .cfa -28 + ^ r7: .cfa -24 + ^ r8: .cfa -20 + ^ r9: .cfa -16 + ^
STACK CFI 111a50 .cfa: sp 336 +
STACK CFI INIT 111c40 2b8 .cfa: sp 0 + .ra: lr
STACK CFI 111c48 .cfa: sp 16 +
STACK CFI 111c54 .cfa: sp 24 +
STACK CFI 111c58 .ra: .cfa -4 + ^ r4: .cfa -16 + ^ r5: .cfa -12 + ^ r7: .cfa -8 + ^
STACK CFI INIT 111ef8 88 .cfa: sp 0 + .ra: lr
STACK CFI 111f00 .cfa: sp 8 +
STACK CFI 111f08 .ra: .cfa -4 + ^ r3: .cfa -8 + ^
STACK CFI INIT 111f80 264 .cfa: sp 0 + .ra: lr
STACK CFI 111f84 .cfa: sp 36 +
STACK CFI 111f88 .ra: .cfa -4 + ^ r10: .cfa -12 + ^ r11: .cfa -8 + ^ r4: .cfa -36 + ^ r5: .cfa -32 + ^ r6: .cfa -28 + ^ r7: .cfa -24 + ^ r8: .cfa -20 + ^ r9: .cfa -16 + ^
STACK CFI 111f8c .cfa: sp 336 +
STACK CFI INIT 1121e4 c8 .cfa: sp 0 + .ra: lr
STACK CFI 1121e8 .cfa: sp 28 +
STACK CFI 1121ec .ra: .cfa -4 + ^ r10: .cfa -8 + ^ r4: .cfa -28 + ^ r5: .cfa -24 + ^ r6: .cfa -20 + ^ r7: .cfa -16 + ^ r8: .cfa -12 + ^
STACK CFI 1121f4 .cfa: sp 40 +
STACK CFI INIT 1122ac 63c .cfa: sp 0 + .ra: lr
STACK CFI 1122b0 .cfa: sp 36 +
STACK CFI 1122b4 .ra: .cfa -4 + ^ r10: .cfa -12 + ^ r11: .cfa -8 + ^ r4: .cfa -36 + ^ r5: .cfa -32 + ^ r6: .cfa -28 + ^ r7: .cfa -24 + ^ r8: .cfa -20 + ^ r9: .cfa -16 + ^
STACK CFI 1122bc .cfa: sp 744 +
STACK CFI INIT 1128e8 274 .cfa: sp 0 + .ra: lr
STACK CFI 1128ec .cfa: sp 36 +
STACK CFI 1128f0 .ra: .cfa -4 + ^ r10: .cfa -12 + ^ r11: .cfa -8 + ^ r4: .cfa -36 + ^ r5: .cfa -32 + ^ r6: .cfa -28 + ^ r7: .cfa -24 + ^ r8: .cfa -20 + ^ r9: .cfa -16 + ^
STACK CFI 1128f4 .cfa: sp 352 +
STACK CFI INIT 112b5c 19c .cfa: sp 0 + .ra: lr
STACK CFI 112b60 .cfa: sp 24 +
STACK CFI 112b64 .ra: .cfa -4 + ^ r4: .cfa -24 + ^ r5: .cfa -20 + ^ r6: .cfa -16 + ^ r7: .cfa -12 + ^ r8: .cfa -8 + ^
STACK CFI INIT 112cf8 124 .cfa: sp 0 + .ra: lr
STACK CFI 112cfc .cfa: sp 16 +
STACK CFI 112d00 .ra: .cfa -4 + ^ r4: .cfa -16 + ^ r5: .cfa -12 + ^ r6: .cfa -8 + ^
STACK CFI INIT 112e1c 4 .cfa: sp 0 + .ra: lr
STACK CFI INIT 112e20 4 .cfa: sp 0 + .ra: lr
STACK CFI INIT 112e24 4 .cfa: sp 0 + .ra: lr
STACK CFI INIT 112e28 4 .cfa: sp 0 + .ra: lr
STACK CFI INIT 112e2c 4 .cfa: sp 0 + .ra: lr
STACK CFI INIT 112e30 4 .cfa: sp 0 + .ra: lr
STACK CFI INIT 112e34 4 .cfa: sp 0 + .ra: lr
STACK CFI INIT 112e38 4 .cfa: sp 0 + .ra: lr
STACK CFI INIT 112e3c 14 .cfa: sp 0 + .ra: lr
STACK CFI INIT 112e50 30 .cfa: sp 0 + .ra: lr
STACK CFI 112e60 .cfa: sp 8 +
STACK CFI 112e6c .ra: .cfa -4 + ^ r3: .cfa -8 + ^
STACK CFI INIT 112e80 1dc .cfa: sp 0 + .ra: lr
STACK CFI 112e84 .cfa: sp 36 +
STACK CFI 112e88 .ra: .cfa -4 + ^ r10: .cfa -12 + ^ r11: .cfa -8 + ^ r4: .cfa -36 + ^ r5: .cfa -32 + ^ r6: .cfa -28 + ^ r7: .cfa -24 + ^ r8: .cfa -20 + ^ r9: .cfa -16 + ^
STACK CFI 112e8c .cfa: sp 96 +
STACK CFI INIT 11305c e4 .cfa: sp 0 + .ra: lr
STACK CFI 113074 .cfa: sp 12 +
STACK CFI 113080 r4: .cfa -12 + ^ r5: .cfa -8 + ^ r6: .cfa -4 + ^
STACK CFI INIT 113140 4bc .cfa: sp 0 + .ra: lr
STACK CFI 113144 .cfa: sp 36 +
STACK CFI 113148 .ra: .cfa -4 + ^ r10: .cfa -12 + ^ r11: .cfa -8 + ^ r4: .cfa -36 + ^ r5: .cfa -32 + ^ r6: .cfa -28 + ^ r7: .cfa -24 + ^ r8: .cfa -20 + ^ r9: .cfa -16 + ^
STACK CFI 113158 .cfa: sp 56 +
STACK CFI INIT 1135fc 30 .cfa: sp 0 + .ra: lr
STACK CFI 113600 .cfa: sp 8 +
STACK CFI 113604 .ra: .cfa -4 + ^ r3: .cfa -8 + ^
STACK CFI INIT 11362c 48 .cfa: sp 0 + .ra: lr
STACK CFI 113630 .cfa: sp 8 +
STACK CFI 113634 .ra: .cfa -4 + ^ r3: .cfa -8 + ^
STACK CFI INIT 113674 7c .cfa: sp 0 + .ra: lr
STACK CFI 113678 .cfa: sp 8 +
STACK CFI 113680 .ra: .cfa -4 + ^ r4: .cfa -8 + ^
STACK CFI 113690 .cfa: sp 24 +
STACK CFI INIT 1136f0 60 .cfa: sp 0 + .ra: lr
STACK CFI 1136f4 .cfa: sp 8 +
STACK CFI 1136f8 .ra: .cfa -4 + ^ r4: .cfa -8 + ^
STACK CFI 113714 .cfa: sp 24 +
STACK CFI INIT 113750 28 .cfa: sp 0 + .ra: lr
STACK CFI 11375c .cfa: sp 8 +
STACK CFI 113760 .ra: .cfa -4 + ^ r3: .cfa -8 + ^
STACK CFI INIT 1171f8 d8 .cfa: sp 0 + .ra: lr
STACK CFI 1171fc .cfa: sp 32 +
STACK CFI 117200 .ra: .cfa -4 + ^ r10: .cfa -8 + ^ r3: .cfa -32 + ^ r4: .cfa -28 + ^ r5: .cfa -24 + ^ r6: .cfa -20 + ^ r7: .cfa -16 + ^ r8: .cfa -12 + ^
STACK CFI INIT 113778 78 .cfa: sp 0 + .ra: lr
STACK CFI 11377c .cfa: sp 8 +
STACK CFI 113780 .ra: .cfa -4 + ^ r4: .cfa -8 + ^
STACK CFI 113788 .cfa: sp 32 +
STACK CFI INIT 1137f0 54 .cfa: sp 0 + .ra: lr
STACK CFI 1137f4 .cfa: sp 8 +
STACK CFI 1137f8 .ra: .cfa -4 + ^ r4: .cfa -8 + ^
STACK CFI 1137fc .cfa: sp 24 +
STACK CFI INIT 113844 6c .cfa: sp 0 + .ra: lr
STACK CFI 113848 .cfa: sp 8 +
STACK CFI 11384c .ra: .cfa -4 + ^ r4: .cfa -8 + ^
STACK CFI 113850 .cfa: sp 24 +
STACK CFI INIT 1138b0 3c .cfa: sp 0 + .ra: lr
STACK CFI 1138b8 .cfa: sp 8 +
STACK CFI 1138c8 .ra: .cfa -4 + ^ r4: .cfa -8 + ^
STACK CFI INIT 1138ec 64 .cfa: sp 0 + .ra: lr
STACK CFI 1138f0 .cfa: sp 20 +
STACK CFI 1138f4 .ra: .cfa -4 + ^ r4: .cfa -20 + ^ r5: .cfa -16 + ^ r6: .cfa -12 + ^ r7: .cfa -8 + ^
STACK CFI 11390c .cfa: sp 40 +
STACK CFI INIT 113950 54c .cfa: sp 0 + .ra: lr
STACK CFI 113954 .cfa: sp 36 +
STACK CFI 113958 .ra: .cfa -4 + ^ r10: .cfa -12 + ^ r11: .cfa -8 + ^ r4: .cfa -36 + ^ r5: .cfa -32 + ^ r6: .cfa -28 + ^ r7: .cfa -24 + ^ r8: .cfa -20 + ^ r9: .cfa -16 + ^
STACK CFI 11395c .cfa: r11 4 +
