MODULE Linux arm F32A4D73CF62138724D704C4CA361A060 libidirectfbimageprovider_gif.so
FUNC b30 10 0 GetType
FUNC b40 10 0 GetImplementation
FUNC b50 60 0 IDirectFBImageProvider_GIF_GetImageDescription
FUNC bb0 10 0 SortColors
FUNC bc0 14 0 IDirectFBImageProvider_GIF_Destruct
FUNC bd4 38 0 Deallocate
FUNC c0c 30 0 Probe
FUNC c3c 454 0 FindColorKey
FUNC 1090 64 0 IDirectFBImageProvider_GIF_GetSurfaceDescription
FUNC 10f4 1f4 0 IDirectFBImageProvider_GIF_RenderTo
FUNC 12e8 68 0 Allocate
FUNC 1350 164 0 GetDataBlock
FUNC 14b4 32c 0 GetCode
FUNC 17e0 604 0 LWZReadByte
FUNC 1de4 119c 0 ReadGIF
FUNC 2f80 150 0 Construct
FUNC 30d0 10 0 IDirectFBImageProvider_GIF_ctor
FUNC 30e0 10 0 IDirectFBImageProvider_GIF_dtor
STACK CFI INIT b30 10 .cfa: sp 0 + .ra: lr
STACK CFI INIT b40 10 .cfa: sp 0 + .ra: lr
STACK CFI INIT b50 60 .cfa: sp 0 + .ra: lr
STACK CFI INIT bb0 10 .cfa: sp 0 + .ra: lr
STACK CFI INIT bc0 14 .cfa: sp 0 + .ra: lr
STACK CFI INIT bd4 38 .cfa: sp 0 + .ra: lr
STACK CFI bd8 .cfa: sp 16 +
STACK CFI bdc .ra: .cfa -4 + ^ r3: .cfa -16 + ^ r4: .cfa -12 + ^ r5: .cfa -8 + ^
STACK CFI INIT c0c 30 .cfa: sp 0 + .ra: lr
STACK CFI c14 .cfa: sp 8 +
STACK CFI c1c .ra: .cfa -4 + ^ r3: .cfa -8 + ^
STACK CFI INIT c3c 454 .cfa: sp 0 + .ra: lr
STACK CFI c44 .cfa: sp 36 +
STACK CFI c48 .ra: .cfa -4 + ^ r10: .cfa -12 + ^ r11: .cfa -8 + ^ r4: .cfa -36 + ^ r5: .cfa -32 + ^ r6: .cfa -28 + ^ r7: .cfa -24 + ^ r8: .cfa -20 + ^ r9: .cfa -16 + ^
STACK CFI c50 .cfa: sp 336 +
STACK CFI INIT 1090 64 .cfa: sp 0 + .ra: lr
STACK CFI 1098 .cfa: sp 8 +
STACK CFI 109c .ra: .cfa -4 + ^ r4: .cfa -8 + ^
STACK CFI INIT 10f4 1f4 .cfa: sp 0 + .ra: lr
STACK CFI 10fc .cfa: sp 24 +
STACK CFI 1100 .ra: .cfa -4 + ^ r4: .cfa -24 + ^ r5: .cfa -20 + ^ r6: .cfa -16 + ^ r7: .cfa -12 + ^ r8: .cfa -8 + ^
STACK CFI 1104 .cfa: sp 120 +
STACK CFI INIT 12e8 68 .cfa: sp 0 + .ra: lr
STACK CFI 12ec .cfa: sp 8 +
STACK CFI 12f4 .ra: .cfa -4 + ^ r4: .cfa -8 + ^
STACK CFI INIT 1350 164 .cfa: sp 0 + .ra: lr
STACK CFI 1354 .cfa: sp 20 +
STACK CFI 135c .cfa: sp 32 +
STACK CFI 1360 .ra: .cfa -4 + ^ r4: .cfa -20 + ^ r5: .cfa -16 + ^ r6: .cfa -12 + ^ r7: .cfa -8 + ^
STACK CFI INIT 14b4 32c .cfa: sp 0 + .ra: lr
STACK CFI 14c0 .cfa: sp 36 +
STACK CFI 14c8 .cfa: sp 48 +
STACK CFI 14cc .ra: .cfa -4 + ^ r10: .cfa -12 + ^ r11: .cfa -8 + ^ r4: .cfa -36 + ^ r5: .cfa -32 + ^ r6: .cfa -28 + ^ r7: .cfa -24 + ^ r8: .cfa -20 + ^ r9: .cfa -16 + ^
STACK CFI INIT 17e0 604 .cfa: sp 0 + .ra: lr
STACK CFI 17e4 .cfa: sp 36 +
STACK CFI 17e8 .ra: .cfa -4 + ^ r10: .cfa -12 + ^ r11: .cfa -8 + ^ r4: .cfa -36 + ^ r5: .cfa -32 + ^ r6: .cfa -28 + ^ r7: .cfa -24 + ^ r8: .cfa -20 + ^ r9: .cfa -16 + ^
STACK CFI 17f0 .cfa: sp 304 +
STACK CFI INIT 1de4 119c .cfa: sp 0 + .ra: lr
STACK CFI 1de8 .cfa: sp 36 +
STACK CFI 1dec .ra: .cfa -4 + ^ r10: .cfa -12 + ^ r11: .cfa -8 + ^ r4: .cfa -36 + ^ r5: .cfa -32 + ^ r6: .cfa -28 + ^ r7: .cfa -24 + ^ r8: .cfa -20 + ^ r9: .cfa -16 + ^
STACK CFI 1df0 .cfa: sp 1108 +
STACK CFI 1df4 .cfa: sp 1120 +
STACK CFI INIT 2f80 150 .cfa: sp 0 + .ra: lr
STACK CFI 2f84 .cfa: sp 16 +
STACK CFI 2f88 .cfa: sp 32 +
STACK CFI 2f8c .cfa: sp 48 +
STACK CFI 2f90 .ra: .cfa -20 + ^ r0: .cfa -16 + ^ r1: .cfa -12 + ^ r2: .cfa -8 + ^ r3: .cfa -4 + ^ r4: .cfa -32 + ^ r5: .cfa -28 + ^ r6: .cfa -24 + ^
STACK CFI INIT 30d0 10 .cfa: sp 0 + .ra: lr
STACK CFI INIT 30e0 10 .cfa: sp 0 + .ra: lr
