MODULE Linux arm DAF67081F5C6055656263C95F9F6354C0 libdirect-1.7.so.4.0.0
FUNC 6ea4 dc 0 Direct::StringBase<char>::PrintF(char const*, std::__va_list, unsigned int)
FUNC 6f80 3c 0 Direct::StringBase<char>::PrintF(char const*, ...)
FUNC 6fbc 6c 0 Direct::StringBase<char>::F(char const*, ...)
FUNC 7028 18 0 Direct::StringBase<char>::Clear()
FUNC 7040 38 0 Direct::D_String_NewEmpty
FUNC 7078 44 0 Direct::D_String_PrintF
FUNC 70bc 20 0 Direct::D_String_PrintV
FUNC 70dc c 0 Direct::D_String_Buffer
FUNC 70e8 10 0 Direct::D_String_Length
FUNC 70f8 90 0 Direct::D_String_Delete
FUNC 7188 164 0 Direct::StringBase<char>::GetTokens(Direct::StringBase<char> const&) const
FUNC 72ec b0 0 _GLOBAL__I_String.cpp
FUNC 739c 13c 0 Direct::StringBase<char>::CopyTLS()
FUNC 74d8 d0 0 Direct::D_String_PrintTLS
FUNC 75a8 4 0 Direct::D_String_CopyTLS
FUNC 75ac 170 0 Direct::TLSObject2<Direct::StringTLS, Direct::StringTLS, Direct::StringTLS>::destructor(void*)
FUNC 771c 298 0 std::vector<Direct::StringBase<char>, std::allocator<Direct::StringBase<char> > >::~vector
FUNC 79b4 2c 0 std::_List_base<Direct::StringTLS*, std::allocator<Direct::StringTLS*> >::_M_clear()
FUNC 79e0 284 0 std::_Destroy_aux<false>::__destroy<Direct::StringBase<char>*>
FUNC 7c64 884 0 std::vector<Direct::StringBase<char>, std::allocator<Direct::StringBase<char> > >::_M_insert_aux(__gnu_cxx::__normal_iterator<Direct::StringBase<char>*, std::vector<Direct::StringBase<char>, std::allocator<Direct::StringBase<char> > > >, Direct::StringBase<char> const&)
FUNC 84e8 7c 0 Direct::TLSObject2<Direct::StringTLS, Direct::StringTLS, Direct::StringTLS>::~TLSObject2
FUNC 8564 8 0 direct_clock_get_micros
FUNC 856c 1c 0 direct_clock_get_millis
FUNC 8588 8 0 direct_clock_get_abs_micros
FUNC 8590 1c 0 direct_clock_get_abs_millis
FUNC 85ac 34 0 config_option_hash
FUNC 85e0 4c 0 config_option_free
FUNC 862c 1c 0 config_option_compare
FUNC 8648 a8 0 config_option_value_add
FUNC 86f0 44 0 __D_conf_deinit
FUNC 8734 18bc 0 direct_config_set
FUNC 9ff0 11c 0 __D_conf_init
FUNC a10c 164 0 direct_config_get
FUNC a270 58 0 direct_config_get_int_value_with_default
FUNC a2c8 c 0 direct_config_get_int_value
FUNC a2d4 3c 0 direct_debug_log
FUNC a310 34 0 direct_debug_at
FUNC a344 5c 0 direct_debug_at_always
FUNC a3a0 110 0 direct_break
FUNC a4b0 ec 0 direct_assertion
FUNC a59c ec 0 direct_assumption
FUNC a688 b0 0 direct_atexit_handler
FUNC a738 14 0 __D_direct_init
FUNC a74c 24 0 __D_direct_deinit
FUNC a770 134 0 direct_cleanup_handler_add
FUNC a8a4 9c 0 direct_cleanup_handler_remove
FUNC a940 94 0 direct_initialize
FUNC a9d4 54 0 direct_shutdown
FUNC aa28 27c 0 DirectResult__init
FUNC aca4 10 0 DirectResult__deinit
FUNC acb4 24 0 direct_fastlz_compress
FUNC acd8 4 0 direct_fastlz_decompress
FUNC acdc 26c 0 direct_fastlz_compress_multi
FUNC af48 4c 0 direct_fifo_init
FUNC af94 38 0 direct_fifo_destroy
FUNC afcc 84 0 direct_fifo_push
FUNC b050 94 0 direct_fifo_pull
FUNC b0e4 14 0 direct_fifo_pop
FUNC b0f8 78 0 direct_fifo_wait
FUNC b170 84 0 direct_fifo_wait_timed
FUNC b1f4 10 0 direct_fifo_wakeup
FUNC b204 5c0 0 fastlz1_compress
FUNC b7c4 7d8 0 fastlz2_compress
FUNC bf9c 10 0 fastlz_compress
FUNC bfac e30 0 fastlz_decompress
FUNC cddc 38 0 fastlz_compress_level
FUNC ce14 24 0 direct_hash_init
FUNC ce38 6c 0 direct_hash_create
FUNC cea4 2c 0 direct_hash_deinit
FUNC ced0 18 0 direct_hash_destroy
FUNC cee8 8 0 direct_hash_count
FUNC cef0 378 0 direct_hash_insert
FUNC d268 120 0 direct_hash_remove
FUNC d388 88 0 direct_hash_lookup
FUNC d410 80 0 direct_hash_iterate
FUNC d490 38 0 __D_init_all
FUNC d4c8 38 0 __D_deinit_all
FUNC d500 10 0 __D_interface_init
FUNC d510 10 0 __D_interface_deinit
FUNC d520 4 0 workaround_func
FUNC d524 98 0 DirectRegisterInterface
FUNC d5bc 128 0 DirectUnregisterInterface
FUNC d6e4 1c 0 DirectProbeInterface
FUNC d700 cec 0 DirectGetInterface
FUNC e3ec 14 0 __D_interface_dbg_init
FUNC e400 14 0 __D_interface_dbg_deinit
FUNC e414 e0 0 direct_print_interface_leaks
FUNC e4f4 108 0 direct_dbg_interface_add
FUNC e5fc 224 0 direct_dbg_interface_remove
FUNC e820 3c 0 __D_log_init
FUNC e85c 30 0 __D_log_deinit
FUNC e88c b4 0 direct_log_create
FUNC e940 4c 0 direct_log_destroy
FUNC e98c 18 0 direct_log_set_default
FUNC e9a4 8 0 direct_log_lock
FUNC e9ac 8 0 direct_log_unlock
FUNC e9b4 1c 0 direct_log_default
FUNC e9d0 70 0 direct_log_flush
FUNC ea40 4c 0 direct_log_set_buffer
FUNC ea8c 19c 0 direct_log_debug_delay
FUNC ec28 144 0 direct_log_printf
FUNC ed6c 78 0 direct_log_write
FUNC ede4 18 0 __D_log_domain_init
FUNC edfc 14 0 __D_log_domain_deinit
FUNC ee10 1e8 0 direct_log_domain_configure
FUNC eff8 1b8 0 direct_log_domain_check
FUNC f1b0 1c4 0 direct_log_domain_check_level
FUNC f374 3ac 0 direct_log_domain_vprintf
FUNC f720 448 0 direct_log_domain_log
FUNC fb68 e8 0 direct_map_create
FUNC fc50 24 0 direct_map_destroy
FUNC fc74 278 0 direct_map_insert
FUNC feec 144 0 direct_map_remove
FUNC 10030 c8 0 direct_map_lookup
FUNC 100f8 98 0 direct_map_iterate
FUNC 10190 70 0 local_alloc_hash_iterator
FUNC 10200 10 0 __D_mem_init
FUNC 10210 10 0 __D_mem_deinit
FUNC 10220 a0 0 direct_print_memleaks
FUNC 102c0 c8 0 direct_dbg_malloc
FUNC 10388 d8 0 direct_dbg_calloc
FUNC 10460 14c 0 direct_dbg_strdup
FUNC 105ac fc 0 direct_dbg_free
FUNC 106a8 1e4 0 direct_dbg_realloc
FUNC 1088c 4 0 std_memcpy
FUNC 10890 2bc 0 direct_find_best_memcpy
FUNC 10b4c a8 0 direct_print_memcpy_routines
FUNC 10bf4 100 0 direct_messages_info
FUNC 10cf4 108 0 direct_messages_error
FUNC 10dfc a4 0 direct_messages_derror
FUNC 10ea0 a4 0 direct_messages_perror
FUNC 10f44 9c 0 direct_messages_dlerror
FUNC 10fe0 ac 0 direct_messages_once
FUNC 1108c 7c 0 direct_messages_unimplemented
FUNC 11108 ac 0 direct_messages_bug
FUNC 111b4 ac 0 direct_messages_warn
FUNC 11260 120 0 open_module
FUNC 11380 1f4 0 direct_modules_register
FUNC 11574 dc 0 direct_modules_unregister
FUNC 11650 2a0 0 direct_modules_explore_directory
FUNC 118f0 6c 0 direct_module_ref
FUNC 1195c 3c 0 direct_module_unref
FUNC 11998 d4 0 perf_iterate
FUNC 11a6c 74 0 __D_perf_init
FUNC 11ae0 6c 0 __D_perf_deinit
FUNC 11b4c 188 0 direct_perf_count
FUNC 11cd4 6c 0 direct_perf_dump_all
FUNC 11d40 80 0 direct_perf_dump_thread
FUNC 11dc0 4 0 direct_vsnprintf
FUNC 11dc4 30 0 direct_snprintf
FUNC 11df4 b0 0 direct_print
FUNC 11ea4 158 0 processor_thread
FUNC 11ffc 108 0 direct_processor_init
FUNC 12104 94 0 direct_processor_destroy
FUNC 12198 7c 0 direct_processor_allocate
FUNC 12214 7c 0 direct_processor_post
FUNC 12290 c 0 direct_processor_recycle
FUNC 1229c 10 0 __D_result_init
FUNC 122ac 10 0 __D_result_deinit
FUNC 122bc 9c 0 DirectResultTypeRegister
FUNC 12358 6c 0 DirectResultTypeUnregister
FUNC 123c4 ac 0 DirectResultString
FUNC 12470 84 0 direct_serial_wait
FUNC 124f4 70 0 direct_serial_notify
FUNC 12564 248 0 call_handlers
FUNC 127ac 2d0 0 show_ill
FUNC 12a7c 5d4 0 signal_handler
FUNC 13050 8ec 0 handle_signals
FUNC 1393c ab0 0 direct_signals_initialize
FUNC 143ec 6f0 0 direct_signals_shutdown
FUNC 14adc 28 0 direct_signals_block_all
FUNC 14b04 110 0 direct_signal_handler_add
FUNC 14c14 8c 0 direct_signal_handler_remove
FUNC 14ca0 5c 0 rmf_write_pheader
FUNC 14cfc 20c 0 sdp_free
FUNC 14f08 138 0 direct_stream_close
FUNC 15040 88 0 net_read
FUNC 150c8 d8 0 net_peek
FUNC 151a0 10c 0 net_wait
FUNC 152ac fc 0 pipe_wait
FUNC 153a8 2d4 0 net_connect
FUNC 1567c 3b4 0 rtp_read_packet
FUNC 15a30 208 0 parse_url
FUNC 15c38 180 0 net_open
FUNC 15db8 2c 0 file_seek
FUNC 15de4 12c 0 file_open
FUNC 15f10 84 0 file_read
FUNC 15f94 e0 0 file_peek
FUNC 16074 124 0 pipe_read
FUNC 16198 148 0 pipe_peek
FUNC 162e0 1fc 0 net_response
FUNC 164dc 1bc 0 net_command
FUNC 16698 128 0 http_seek
FUNC 167c0 1bc 0 ftp_open_pasv
FUNC 1697c 208 0 ftp_open
FUNC 16b84 130 0 ftp_seek
FUNC 16cb4 204 0 rvp_read_packet
FUNC 16eb8 10c 0 rtsp_read
FUNC 16fc4 cc 0 rtsp_peek
FUNC 17090 2f40 0 rtsp_session_open
FUNC 19fd0 d8c 0 http_open
FUNC 1ad5c 334 0 direct_stream_create
FUNC 1b090 10 0 direct_stream_dup
FUNC 1b0a0 8 0 direct_stream_fileno
FUNC 1b0a8 10 0 direct_stream_seekable
FUNC 1b0b8 10 0 direct_stream_remote
FUNC 1b0c8 8 0 direct_stream_mime
FUNC 1b0d0 8 0 direct_stream_offset
FUNC 1b0d8 14 0 direct_stream_length
FUNC 1b0ec 30 0 direct_stream_wait
FUNC 1b11c 5c 0 direct_stream_peek
FUNC 1b178 48 0 direct_stream_read
FUNC 1b1c0 48 0 direct_stream_seek
FUNC 1b208 2c 0 direct_stream_destroy
FUNC 1b234 bc 0 direct_futex_wait
FUNC 1b2f0 fc 0 direct_futex_wait_timed
FUNC 1b3ec 98 0 direct_futex_wake
FUNC 1b484 8 0 direct_trace_lookup_symbol
FUNC 1b48c 14 0 direct_trace_lookup_file
FUNC 1b4a0 4 0 direct_trace_print_stack
FUNC 1b4a4 4 0 direct_trace_print_stacks
FUNC 1b4a8 8 0 direct_trace_debug_indent
FUNC 1b4b0 8 0 direct_trace_get_caller
FUNC 1b4b8 8 0 direct_trace_copy_buffer
FUNC 1b4c0 4 0 direct_trace_free_buffer
FUNC 1b4c4 790 0 tree_node_destroy
FUNC 1bc54 314 0 tree_node_insert
FUNC 1bf68 c 0 direct_tree_new
FUNC 1bf74 b4 0 direct_tree_destroy
FUNC 1c028 4c 0 direct_tree_insert
FUNC 1c074 60 0 direct_tree_lookup
FUNC 1c0d4 10 0 __D_thread_init
FUNC 1c0e4 10 0 __D_thread_deinit
FUNC 1c0f4 ec 0 direct_thread_add_init_handler
FUNC 1c1e0 88 0 direct_thread_remove_init_handler
FUNC 1c268 58 0 __D_direct_thread_call_init_handlers
FUNC 1c2c0 148 0 direct_thread_wait
FUNC 1c408 58 0 direct_thread_notify
FUNC 1c460 8 0 direct_thread_lock
FUNC 1c468 8 0 direct_thread_unlock
FUNC 1c470 c 0 direct_thread_terminate
FUNC 1c47c 30 0 direct_thread_destroy
FUNC 1c4ac 8 0 direct_thread_get_tid
FUNC 1c4b4 8 0 direct_thread_is_canceled
FUNC 1c4bc 8 0 direct_thread_is_joined
FUNC 1c4c4 8 0 direct_thread_get_name
FUNC 1c4cc d4 0 direct_thread_type_name
FUNC 1c5a0 54 0 direct_thread_scheduler_name
FUNC 1c5f4 1a0 0 direct_thread_create
FUNC 1c794 58 0 direct_thread_policy_name
FUNC 1c7ec 37c 0 md5_hash
FUNC 1cb68 240 0 __D_util_init
FUNC 1cda8 4 0 __D_util_deinit
FUNC 1cdac 44 0 direct_strerror
FUNC 1cdf0 2c 0 errno2result
FUNC 1ce1c 30 0 direct_sscanf
FUNC 1ce4c 4 0 direct_strlen
FUNC 1ce50 154 0 direct_trim
FUNC 1cfa4 4 0 direct_strcmp
FUNC 1cfa8 4 0 direct_strtoul
FUNC 1cfac 6c 0 direct_strtok_r
FUNC 1d018 114 0 direct_snputs
FUNC 1d12c 288 0 direct_base64_encode
FUNC 1d3b4 398 0 direct_base64_decode
FUNC 1d74c 2bc 0 direct_md5_sum
FUNC 1da08 4 0 direct_bsearch
FUNC 1da0c 50 0 direct_uuid_generate
FUNC 1da5c 1ec 0 direct_clock_get_time
FUNC 1dc48 17c 0 direct_clock_set_time
FUNC 1ddc4 1d4 0 direct_clock_resolution
FUNC 1df98 4c 0 direct_clock_set_start
FUNC 1dfe4 138 0 direct_try_open
FUNC 1e11c 8c 0 direct_util_recursive_pthread_mutex_init
FUNC 1e1a8 44 0 direct_file_open
FUNC 1e1ec 3c 0 direct_file_read
FUNC 1e228 3c 0 direct_file_write
FUNC 1e264 30 0 direct_file_seek
FUNC 1e294 30 0 direct_file_seek_to
FUNC 1e2c4 54 0 direct_file_close
FUNC 1e318 64 0 direct_file_map
FUNC 1e37c 28 0 direct_file_unmap
FUNC 1e3a4 50 0 direct_file_get_info
FUNC 1e3f4 3c 0 direct_file_dup
FUNC 1e430 a8 0 direct_fgets
FUNC 1e4d8 84 0 direct_popen
FUNC 1e55c 2c 0 direct_pclose
FUNC 1e588 38 0 direct_readlink
FUNC 1e5c0 28 0 direct_access
FUNC 1e5e8 44 0 stderr_log_set_buffer
FUNC 1e62c 74 0 common_log_flush
FUNC 1e6a0 38 0 stderr_log_write
FUNC 1e6d8 34 0 common_log_write
FUNC 1e70c 430 0 parse_host_addr
FUNC 1eb3c 248 0 direct_log_init
FUNC 1ed84 14 0 direct_log_deinit
FUNC 1ed98 4 0 direct_malloc
FUNC 1ed9c 4 0 direct_calloc
FUNC 1eda0 4 0 direct_realloc
FUNC 1eda4 4 0 direct_strdup
FUNC 1eda8 4 0 direct_free
FUNC 1edac 24 0 direct_mutex_init
FUNC 1edd0 9c 0 direct_recursive_mutex_init
FUNC 1ee6c 20 0 direct_mutex_lock
FUNC 1ee8c 20 0 direct_mutex_unlock
FUNC 1eeac 20 0 direct_mutex_trylock
FUNC 1eecc 20 0 direct_mutex_deinit
FUNC 1eeec 28 0 direct_sigaction
FUNC 1ef14 8 0 direct_pagesize
FUNC 1ef1c 20 0 direct_page_align
FUNC 1ef3c 4 0 direct_getpid
FUNC 1ef40 1c 0 direct_gettid
FUNC 1ef5c 2c 0 direct_tgkill
FUNC 1ef88 158 0 direct_trap
FUNC 1f0e0 20 0 direct_kill
FUNC 1f100 38 0 direct_tkill
FUNC 1f138 4 0 direct_sync
FUNC 1f13c 20 0 direct_socketpair
FUNC 1f15c 10 0 direct_sigprocmask
FUNC 1f16c 4 0 direct_getuid
FUNC 1f170 4 0 direct_geteuid
FUNC 1f174 4 0 direct_getenv
FUNC 1f178 64 0 direct_futex
FUNC 1f1dc 14 0 init_once
FUNC 1f1f0 54 0 direct_thread_cleanup
FUNC 1f244 188 0 direct_thread_main
FUNC 1f3cc 2d8 0 direct_thread_init
FUNC 1f6a4 dc 0 direct_thread_deinit
FUNC 1f780 cc 0 direct_thread_self
FUNC 1f84c 60 0 direct_thread_self_name
FUNC 1f8ac 80 0 direct_thread_set_name
FUNC 1f92c 10 0 direct_thread_cancel
FUNC 1f93c 10 0 direct_thread_detach
FUNC 1f94c 10 0 direct_thread_testcancel
FUNC 1f95c 4c 0 direct_thread_join
FUNC 1f9a8 8 0 direct_thread_kill
FUNC 1f9b0 4 0 direct_thread_sleep
FUNC 1f9b4 4 0 direct_strcasecmp
FUNC 1f9b8 4 0 direct_strncasecmp
FUNC 1f9bc 4 0 direct_vsscanf
FUNC 1f9c0 4 0 direct_inet_ntop
STACK CFI INIT 75ac 170 .cfa: sp 0 + .ra: lr
STACK CFI 75b4 .cfa: sp 20 +
STACK CFI 75b8 .ra: .cfa -4 + ^ r4: .cfa -20 + ^ r5: .cfa -16 + ^ r6: .cfa -12 + ^ r7: .cfa -8 + ^
STACK CFI 75bc .cfa: sp 32 +
STACK CFI INIT 6ea4 dc .cfa: sp 0 + .ra: lr
STACK CFI 6ea8 .cfa: sp 32 +
STACK CFI 6eac .ra: .cfa -4 + ^ r10: .cfa -12 + ^ r11: .cfa -8 + ^ r4: .cfa -32 + ^ r5: .cfa -28 + ^ r6: .cfa -24 + ^ r7: .cfa -20 + ^ r8: .cfa -16 + ^
STACK CFI 6eb0 .cfa: r11 4 +
STACK CFI INIT 6f80 3c .cfa: sp 0 + .ra: lr
STACK CFI 6f84 .cfa: sp 12 +
STACK CFI 6f88 .cfa: sp 20 +
STACK CFI 6f8c .cfa: sp 32 +
STACK CFI 6f94 .ra: .cfa -16 + ^ r1: .cfa -12 + ^ r2: .cfa -8 + ^ r3: .cfa -4 + ^ r4: .cfa -20 + ^
STACK CFI INIT 6fbc 6c .cfa: sp 0 + .ra: lr
STACK CFI 6fc0 .cfa: sp 12 +
STACK CFI 6fc4 .cfa: sp 20 +
STACK CFI 6fc8 .ra: .cfa -16 + ^ r1: .cfa -12 + ^ r2: .cfa -8 + ^ r3: .cfa -4 + ^ r4: .cfa -20 + ^
STACK CFI 6fd8 .cfa: sp 32 +
STACK CFI INIT 7028 18 .cfa: sp 0 + .ra: lr
STACK CFI INIT 7040 38 .cfa: sp 0 + .ra: lr
STACK CFI 7044 .cfa: sp 8 +
STACK CFI 7048 .ra: .cfa -4 + ^ r4: .cfa -8 + ^
STACK CFI INIT 7078 44 .cfa: sp 0 + .ra: lr
STACK CFI 707c .cfa: sp 12 +
STACK CFI 7080 .cfa: sp 20 +
STACK CFI 7084 .cfa: sp 32 +
STACK CFI 708c .ra: .cfa -16 + ^ r1: .cfa -12 + ^ r2: .cfa -8 + ^ r3: .cfa -4 + ^ r4: .cfa -20 + ^
STACK CFI INIT 70bc 20 .cfa: sp 0 + .ra: lr
STACK CFI 70c0 .cfa: sp 8 +
STACK CFI 70c8 .ra: .cfa -4 + ^ r4: .cfa -8 + ^
STACK CFI INIT 70dc c .cfa: sp 0 + .ra: lr
STACK CFI INIT 70e8 10 .cfa: sp 0 + .ra: lr
STACK CFI INIT 70f8 90 .cfa: sp 0 + .ra: lr
STACK CFI 7100 .cfa: sp 12 +
STACK CFI 7104 .ra: .cfa -4 + ^ r4: .cfa -12 + ^ r5: .cfa -8 + ^
STACK CFI 7108 .cfa: sp 24 +
STACK CFI INIT 771c 298 .cfa: sp 0 + .ra: lr
STACK CFI 7720 .cfa: sp 28 +
STACK CFI 7730 .cfa: sp 40 +
STACK CFI 7734 .ra: .cfa -4 + ^ r10: .cfa -8 + ^ r4: .cfa -28 + ^ r5: .cfa -24 + ^ r6: .cfa -20 + ^ r7: .cfa -16 + ^ r8: .cfa -12 + ^
STACK CFI INIT 79b4 2c .cfa: sp 0 + .ra: lr
STACK CFI 79b8 .cfa: sp 16 +
STACK CFI 79bc .ra: .cfa -4 + ^ r3: .cfa -16 + ^ r4: .cfa -12 + ^ r5: .cfa -8 + ^
STACK CFI INIT 79e0 284 .cfa: sp 0 + .ra: lr
STACK CFI 79ec .cfa: sp 24 +
STACK CFI 79f4 .cfa: sp 32 +
STACK CFI 79f8 .ra: .cfa -4 + ^ r4: .cfa -24 + ^ r5: .cfa -20 + ^ r6: .cfa -16 + ^ r7: .cfa -12 + ^ r8: .cfa -8 + ^
STACK CFI INIT 7c64 884 .cfa: sp 0 + .ra: lr
STACK CFI 7c68 .cfa: sp 36 +
STACK CFI 7c70 .ra: .cfa -4 + ^ r10: .cfa -12 + ^ r11: .cfa -8 + ^ r4: .cfa -36 + ^ r5: .cfa -32 + ^ r6: .cfa -28 + ^ r7: .cfa -24 + ^ r8: .cfa -20 + ^ r9: .cfa -16 + ^
STACK CFI 7c78 .cfa: sp 72 +
STACK CFI INIT 7188 164 .cfa: sp 0 + .ra: lr
STACK CFI 7190 .cfa: sp 28 +
STACK CFI 7198 .ra: .cfa -4 + ^ r10: .cfa -8 + ^ r4: .cfa -28 + ^ r5: .cfa -24 + ^ r6: .cfa -20 + ^ r7: .cfa -16 + ^ r8: .cfa -12 + ^
STACK CFI 71ac .cfa: sp 48 +
STACK CFI INIT 72ec b0 .cfa: sp 0 + .ra: lr
STACK CFI 72f0 .cfa: sp 16 +
STACK CFI 72f4 .ra: .cfa -4 + ^ r4: .cfa -16 + ^ r5: .cfa -12 + ^ r6: .cfa -8 + ^
STACK CFI INIT 84e8 7c .cfa: sp 0 + .ra: lr
STACK CFI 84ec .cfa: sp 16 +
STACK CFI 84f0 .ra: .cfa -4 + ^ r4: .cfa -16 + ^ r5: .cfa -12 + ^ r6: .cfa -8 + ^
STACK CFI INIT 739c 13c .cfa: sp 0 + .ra: lr
STACK CFI 73a0 .cfa: sp 16 +
STACK CFI 73a4 .ra: .cfa -4 + ^ r4: .cfa -16 + ^ r5: .cfa -12 + ^ r6: .cfa -8 + ^
STACK CFI INIT 74d8 d0 .cfa: sp 0 + .ra: lr
STACK CFI 74dc .cfa: sp 16 +
STACK CFI 74e0 .cfa: sp 36 +
STACK CFI 74e4 .ra: .cfa -20 + ^ r0: .cfa -16 + ^ r1: .cfa -12 + ^ r2: .cfa -8 + ^ r3: .cfa -4 + ^ r4: .cfa -36 + ^ r5: .cfa -32 + ^ r6: .cfa -28 + ^ r7: .cfa -24 + ^
STACK CFI 74f4 .cfa: sp 56 +
STACK CFI INIT 75a8 4 .cfa: sp 0 + .ra: lr
STACK CFI INIT 8564 8 .cfa: sp 0 + .ra: lr
STACK CFI INIT 856c 1c .cfa: sp 0 + .ra: lr
STACK CFI 8570 .cfa: sp 8 +
STACK CFI 8574 .ra: .cfa -4 + ^ r3: .cfa -8 + ^
STACK CFI INIT 8588 8 .cfa: sp 0 + .ra: lr
STACK CFI INIT 8590 1c .cfa: sp 0 + .ra: lr
STACK CFI 8594 .cfa: sp 8 +
STACK CFI 8598 .ra: .cfa -4 + ^ r3: .cfa -8 + ^
STACK CFI INIT 85ac 34 .cfa: sp 0 + .ra: lr
STACK CFI INIT 85e0 4c .cfa: sp 0 + .ra: lr
STACK CFI 85e4 .cfa: sp 16 +
STACK CFI 85e8 .ra: .cfa -4 + ^ r4: .cfa -16 + ^ r5: .cfa -12 + ^ r6: .cfa -8 + ^
STACK CFI INIT 862c 1c .cfa: sp 0 + .ra: lr
STACK CFI 8630 .cfa: sp 8 +
STACK CFI 8638 .ra: .cfa -4 + ^ r3: .cfa -8 + ^
STACK CFI INIT 8648 a8 .cfa: sp 0 + .ra: lr
STACK CFI 864c .cfa: sp 16 +
STACK CFI 8650 .ra: .cfa -4 + ^ r4: .cfa -16 + ^ r5: .cfa -12 + ^ r6: .cfa -8 + ^
STACK CFI INIT 86f0 44 .cfa: sp 0 + .ra: lr
STACK CFI 86f4 .cfa: sp 8 +
STACK CFI 86f8 .ra: .cfa -4 + ^ r4: .cfa -8 + ^
STACK CFI INIT 8734 18bc .cfa: sp 0 + .ra: lr
STACK CFI 8738 .cfa: sp 36 +
STACK CFI 873c .ra: .cfa -4 + ^ r10: .cfa -12 + ^ r11: .cfa -8 + ^ r4: .cfa -36 + ^ r5: .cfa -32 + ^ r6: .cfa -28 + ^ r7: .cfa -24 + ^ r8: .cfa -20 + ^ r9: .cfa -16 + ^
STACK CFI 8744 .cfa: sp 320 +
STACK CFI INIT 9ff0 11c .cfa: sp 0 + .ra: lr
STACK CFI a000 .cfa: sp 24 +
STACK CFI a008 .ra: .cfa -4 + ^ r4: .cfa -24 + ^ r5: .cfa -20 + ^ r6: .cfa -16 + ^ r7: .cfa -12 + ^ r8: .cfa -8 + ^
STACK CFI a00c .cfa: sp 40 +
STACK CFI INIT a10c 164 .cfa: sp 0 + .ra: lr
STACK CFI a118 .cfa: sp 16 +
STACK CFI a120 .ra: .cfa -4 + ^ r4: .cfa -16 + ^ r5: .cfa -12 + ^ r6: .cfa -8 + ^
STACK CFI INIT a270 58 .cfa: sp 0 + .ra: lr
STACK CFI a27c .cfa: sp 16 +
STACK CFI a284 .ra: .cfa -4 + ^ r4: .cfa -16 + ^ r5: .cfa -12 + ^ r6: .cfa -8 + ^
STACK CFI INIT a2c8 c .cfa: sp 0 + .ra: lr
STACK CFI INIT a2d4 3c .cfa: sp 0 + .ra: lr
STACK CFI a2d8 .cfa: sp 8 +
STACK CFI a2dc .cfa: sp 12 +
STACK CFI a2e0 .cfa: sp 24 +
STACK CFI a2f4 .ra: .cfa -12 + ^ r2: .cfa -8 + ^ r3: .cfa -4 + ^
STACK CFI INIT a310 34 .cfa: sp 0 + .ra: lr
STACK CFI a314 .cfa: sp 12 +
STACK CFI a318 .cfa: sp 16 +
STACK CFI a31c .cfa: sp 24 +
STACK CFI a324 .ra: .cfa -16 + ^ r1: .cfa -12 + ^ r2: .cfa -8 + ^ r3: .cfa -4 + ^
STACK CFI INIT a344 5c .cfa: sp 0 + .ra: lr
STACK CFI a348 .cfa: sp 12 +
STACK CFI a34c r1: .cfa -12 + ^ r2: .cfa -8 + ^ r3: .cfa -4 + ^
STACK CFI a358 .cfa: sp 16 +
STACK CFI a360 .cfa: sp 24 +
STACK CFI a370 .ra: .cfa -16 + ^
STACK CFI INIT a3a0 110 .cfa: sp 0 + .ra: lr
STACK CFI a3a4 .cfa: sp 4 +
STACK CFI a3a8 .cfa: sp 36 +
STACK CFI a3ac .cfa: sp 608 +
STACK CFI a3b0 .ra: .cfa -8 + ^ r10: .cfa -12 + ^ r3: .cfa -4 + ^ r4: .cfa -36 + ^ r5: .cfa -32 + ^ r6: .cfa -28 + ^ r7: .cfa -24 + ^ r8: .cfa -20 + ^ r9: .cfa -16 + ^
STACK CFI INIT a4b0 ec .cfa: sp 0 + .ra: lr
STACK CFI a4b4 .cfa: sp 32 +
STACK CFI a4b8 .cfa: sp 80 +
STACK CFI a4bc .ra: .cfa -4 + ^ r10: .cfa -8 + ^ r4: .cfa -32 + ^ r5: .cfa -28 + ^ r6: .cfa -24 + ^ r7: .cfa -20 + ^ r8: .cfa -16 + ^ r9: .cfa -12 + ^
STACK CFI INIT a59c ec .cfa: sp 0 + .ra: lr
STACK CFI a5a0 .cfa: sp 32 +
STACK CFI a5a4 .cfa: sp 80 +
STACK CFI a5a8 .ra: .cfa -4 + ^ r10: .cfa -8 + ^ r4: .cfa -32 + ^ r5: .cfa -28 + ^ r6: .cfa -24 + ^ r7: .cfa -20 + ^ r8: .cfa -16 + ^ r9: .cfa -12 + ^
STACK CFI INIT a688 b0 .cfa: sp 0 + .ra: lr
STACK CFI a68c .cfa: sp 32 +
STACK CFI a690 .ra: .cfa -4 + ^ r10: .cfa -8 + ^ r3: .cfa -32 + ^ r4: .cfa -28 + ^ r5: .cfa -24 + ^ r6: .cfa -20 + ^ r7: .cfa -16 + ^ r8: .cfa -12 + ^
STACK CFI INIT a738 14 .cfa: sp 0 + .ra: lr
STACK CFI INIT a74c 24 .cfa: sp 0 + .ra: lr
STACK CFI a750 .cfa: sp 8 + .ra: .cfa -4 + ^ r4: .cfa -8 + ^
STACK CFI INIT a770 134 .cfa: sp 0 + .ra: lr
STACK CFI a774 .cfa: sp 24 +
STACK CFI a778 .ra: .cfa -4 + ^ r4: .cfa -24 + ^ r5: .cfa -20 + ^ r6: .cfa -16 + ^ r7: .cfa -12 + ^ r8: .cfa -8 + ^
STACK CFI INIT a8a4 9c .cfa: sp 0 + .ra: lr
STACK CFI a8a8 .cfa: sp 16 +
STACK CFI a8ac .ra: .cfa -4 + ^ r3: .cfa -16 + ^ r4: .cfa -12 + ^ r5: .cfa -8 + ^
STACK CFI INIT a940 94 .cfa: sp 0 + .ra: lr
STACK CFI a944 .cfa: sp 16 +
STACK CFI a948 .ra: .cfa -4 + ^ r3: .cfa -16 + ^ r4: .cfa -12 + ^ r5: .cfa -8 + ^
STACK CFI INIT a9d4 54 .cfa: sp 0 + .ra: lr
STACK CFI a9d8 .cfa: sp 8 +
STACK CFI a9dc .ra: .cfa -4 + ^ r4: .cfa -8 + ^
STACK CFI INIT aa28 27c .cfa: sp 0 + .ra: lr
STACK CFI INIT aca4 10 .cfa: sp 0 + .ra: lr
STACK CFI INIT acb4 24 .cfa: sp 0 + .ra: lr
STACK CFI acbc .cfa: sp 4 +
STACK CFI acc0 r4: .cfa -4 + ^
STACK CFI INIT acd8 4 .cfa: sp 0 + .ra: lr
STACK CFI INIT acdc 26c .cfa: sp 0 + .ra: lr
STACK CFI ace0 .cfa: sp 36 +
STACK CFI ace4 .ra: .cfa -4 + ^ r10: .cfa -12 + ^ r11: .cfa -8 + ^ r4: .cfa -36 + ^ r5: .cfa -32 + ^ r6: .cfa -28 + ^ r7: .cfa -24 + ^ r8: .cfa -20 + ^ r9: .cfa -16 + ^
STACK CFI ace8 .cfa: sp 56 +
STACK CFI INIT af48 4c .cfa: sp 0 + .ra: lr
STACK CFI af4c .cfa: sp 8 +
STACK CFI af54 .ra: .cfa -4 + ^ r4: .cfa -8 + ^
STACK CFI INIT af94 38 .cfa: sp 0 + .ra: lr
STACK CFI af98 .cfa: sp 8 +
STACK CFI af9c .ra: .cfa -4 + ^ r4: .cfa -8 + ^
STACK CFI INIT afcc 84 .cfa: sp 0 + .ra: lr
STACK CFI afd0 .cfa: sp 16 +
STACK CFI afd4 .ra: .cfa -4 + ^ r4: .cfa -16 + ^ r5: .cfa -12 + ^ r6: .cfa -8 + ^
STACK CFI INIT b050 94 .cfa: sp 0 + .ra: lr
STACK CFI b054 .cfa: sp 24 +
STACK CFI b058 .ra: .cfa -4 + ^ r3: .cfa -24 + ^ r4: .cfa -20 + ^ r5: .cfa -16 + ^ r6: .cfa -12 + ^ r7: .cfa -8 + ^
STACK CFI INIT b0e4 14 .cfa: sp 0 + .ra: lr
STACK CFI INIT b0f8 78 .cfa: sp 0 + .ra: lr
STACK CFI b0fc .cfa: sp 16 +
STACK CFI b100 .ra: .cfa -4 + ^ r4: .cfa -16 + ^ r5: .cfa -12 + ^ r6: .cfa -8 + ^
STACK CFI INIT b170 84 .cfa: sp 0 + .ra: lr
STACK CFI b174 .cfa: sp 24 +
STACK CFI b178 .ra: .cfa -4 + ^ r3: .cfa -24 + ^ r4: .cfa -20 + ^ r5: .cfa -16 + ^ r6: .cfa -12 + ^ r7: .cfa -8 + ^
STACK CFI INIT b1f4 10 .cfa: sp 0 + .ra: lr
STACK CFI INIT b204 5c0 .cfa: sp 0 + .ra: lr
STACK CFI b208 .cfa: sp 32 +
STACK CFI b20c .cfa: sp 32800 +
STACK CFI b210 .cfa: sp 32808 +
STACK CFI b218 r10: .cfa -8 + ^ r11: .cfa -4 + ^ r4: .cfa -32 + ^ r5: .cfa -28 + ^ r6: .cfa -24 + ^ r7: .cfa -20 + ^ r8: .cfa -16 + ^ r9: .cfa -12 + ^
STACK CFI INIT b7c4 7d8 .cfa: sp 0 + .ra: lr
STACK CFI b7c8 .cfa: sp 32 +
STACK CFI b7cc .cfa: sp 32800 +
STACK CFI b7d0 .cfa: sp 32824 +
STACK CFI b7f4 r10: .cfa -8 + ^ r11: .cfa -4 + ^ r4: .cfa -32 + ^ r5: .cfa -28 + ^ r6: .cfa -24 + ^ r7: .cfa -20 + ^ r8: .cfa -16 + ^ r9: .cfa -12 + ^
STACK CFI INIT bf9c 10 .cfa: sp 0 + .ra: lr
STACK CFI INIT bfac e30 .cfa: sp 0 + .ra: lr
STACK CFI bfb0 .cfa: sp 32 +
STACK CFI bfbc .cfa: sp 72 +
STACK CFI bfc0 r10: .cfa -8 + ^ r11: .cfa -4 + ^ r4: .cfa -32 + ^ r5: .cfa -28 + ^ r6: .cfa -24 + ^ r7: .cfa -20 + ^ r8: .cfa -16 + ^ r9: .cfa -12 + ^
STACK CFI INIT cddc 38 .cfa: sp 0 + .ra: lr
STACK CFI INIT ce14 24 .cfa: sp 0 + .ra: lr
STACK CFI INIT ce38 6c .cfa: sp 0 + .ra: lr
STACK CFI ce3c .cfa: sp 16 +
STACK CFI ce40 .ra: .cfa -4 + ^ r4: .cfa -16 + ^ r5: .cfa -12 + ^ r6: .cfa -8 + ^
STACK CFI INIT cea4 2c .cfa: sp 0 + .ra: lr
STACK CFI cea8 .cfa: sp 8 +
STACK CFI ceac .ra: .cfa -4 + ^ r4: .cfa -8 + ^
STACK CFI INIT ced0 18 .cfa: sp 0 + .ra: lr
STACK CFI ced4 .cfa: sp 8 +
STACK CFI ced8 .ra: .cfa -4 + ^ r4: .cfa -8 + ^
STACK CFI INIT cee8 8 .cfa: sp 0 + .ra: lr
STACK CFI INIT cef0 378 .cfa: sp 0 + .ra: lr
STACK CFI cef4 .cfa: sp 36 +
STACK CFI cef8 .ra: .cfa -4 + ^ r10: .cfa -12 + ^ r11: .cfa -8 + ^ r4: .cfa -36 + ^ r5: .cfa -32 + ^ r6: .cfa -28 + ^ r7: .cfa -24 + ^ r8: .cfa -20 + ^ r9: .cfa -16 + ^
STACK CFI cf04 .cfa: sp 56 +
STACK CFI INIT d268 120 .cfa: sp 0 + .ra: lr
STACK CFI d26c .cfa: sp 24 +
STACK CFI d270 .ra: .cfa -4 + ^ r4: .cfa -24 + ^ r5: .cfa -20 + ^ r6: .cfa -16 + ^ r7: .cfa -12 + ^ r8: .cfa -8 + ^
STACK CFI INIT d388 88 .cfa: sp 0 + .ra: lr
STACK CFI d38c .cfa: sp 16 +
STACK CFI d390 .ra: .cfa -4 + ^ r4: .cfa -16 + ^ r5: .cfa -12 + ^ r6: .cfa -8 + ^
STACK CFI INIT d410 80 .cfa: sp 0 + .ra: lr
STACK CFI d414 .cfa: sp 24 +
STACK CFI d418 .ra: .cfa -4 + ^ r3: .cfa -24 + ^ r4: .cfa -20 + ^ r5: .cfa -16 + ^ r6: .cfa -12 + ^ r7: .cfa -8 + ^
STACK CFI INIT d490 38 .cfa: sp 0 + .ra: lr
STACK CFI d494 .cfa: sp 8 + .ra: .cfa -4 + ^ r3: .cfa -8 + ^
STACK CFI INIT d4c8 38 .cfa: sp 0 + .ra: lr
STACK CFI d4cc .cfa: sp 8 + .ra: .cfa -4 + ^ r3: .cfa -8 + ^
STACK CFI INIT d500 10 .cfa: sp 0 + .ra: lr
STACK CFI INIT d510 10 .cfa: sp 0 + .ra: lr
STACK CFI INIT d520 4 .cfa: sp 0 + .ra: lr
STACK CFI INIT d524 98 .cfa: sp 0 + .ra: lr
STACK CFI d528 .cfa: sp 16 +
STACK CFI d530 .ra: .cfa -4 + ^ r4: .cfa -16 + ^ r5: .cfa -12 + ^ r6: .cfa -8 + ^
STACK CFI INIT d5bc 128 .cfa: sp 0 + .ra: lr
STACK CFI d5c4 .cfa: sp 16 +
STACK CFI d5c8 .ra: .cfa -4 + ^ r4: .cfa -16 + ^ r5: .cfa -12 + ^ r6: .cfa -8 + ^
STACK CFI INIT d6e4 1c .cfa: sp 0 + .ra: lr
STACK CFI d6e8 .cfa: sp 8 +
STACK CFI d6ec .ra: .cfa -4 + ^ r3: .cfa -8 + ^
STACK CFI INIT d700 cec .cfa: sp 0 + .ra: lr
STACK CFI d704 .cfa: sp 36 +
STACK CFI d708 .ra: .cfa -4 + ^ r10: .cfa -12 + ^ r11: .cfa -8 + ^ r4: .cfa -36 + ^ r5: .cfa -32 + ^ r6: .cfa -28 + ^ r7: .cfa -24 + ^ r8: .cfa -20 + ^ r9: .cfa -16 + ^
STACK CFI d710 .cfa: r11 4 +
STACK CFI INIT e3ec 14 .cfa: sp 0 + .ra: lr
STACK CFI INIT e400 14 .cfa: sp 0 + .ra: lr
STACK CFI INIT e414 e0 .cfa: sp 0 + .ra: lr
STACK CFI e418 .cfa: sp 28 +
STACK CFI e41c .ra: .cfa -4 + ^ r10: .cfa -8 + ^ r4: .cfa -28 + ^ r5: .cfa -24 + ^ r6: .cfa -20 + ^ r7: .cfa -16 + ^ r8: .cfa -12 + ^
STACK CFI e420 .cfa: sp 48 +
STACK CFI INIT e4f4 108 .cfa: sp 0 + .ra: lr
STACK CFI e4f8 .cfa: sp 36 +
STACK CFI e4fc .ra: .cfa -4 + ^ r10: .cfa -12 + ^ r11: .cfa -8 + ^ r4: .cfa -36 + ^ r5: .cfa -32 + ^ r6: .cfa -28 + ^ r7: .cfa -24 + ^ r8: .cfa -20 + ^ r9: .cfa -16 + ^
STACK CFI e500 .cfa: sp 48 +
STACK CFI INIT e5fc 224 .cfa: sp 0 + .ra: lr
STACK CFI e600 .cfa: sp 36 +
STACK CFI e604 .ra: .cfa -4 + ^ r10: .cfa -12 + ^ r11: .cfa -8 + ^ r4: .cfa -36 + ^ r5: .cfa -32 + ^ r6: .cfa -28 + ^ r7: .cfa -24 + ^ r8: .cfa -20 + ^ r9: .cfa -16 + ^
STACK CFI e608 .cfa: sp 48 +
STACK CFI INIT e820 3c .cfa: sp 0 + .ra: lr
STACK CFI e824 .cfa: sp 16 +
STACK CFI e828 .ra: .cfa -4 + ^ r3: .cfa -16 + ^ r4: .cfa -12 + ^ r5: .cfa -8 + ^
STACK CFI INIT e85c 30 .cfa: sp 0 + .ra: lr
STACK CFI e860 .cfa: sp 8 +
STACK CFI e864 .ra: .cfa -4 + ^ r4: .cfa -8 + ^
STACK CFI INIT e88c b4 .cfa: sp 0 + .ra: lr
STACK CFI e890 .cfa: sp 24 +
STACK CFI e894 .ra: .cfa -4 + ^ r4: .cfa -24 + ^ r5: .cfa -20 + ^ r6: .cfa -16 + ^ r7: .cfa -12 + ^ r8: .cfa -8 + ^
STACK CFI INIT e940 4c .cfa: sp 0 + .ra: lr
STACK CFI e944 .cfa: sp 16 +
STACK CFI e948 .ra: .cfa -4 + ^ r3: .cfa -16 + ^ r4: .cfa -12 + ^ r5: .cfa -8 + ^
STACK CFI INIT e98c 18 .cfa: sp 0 + .ra: lr
STACK CFI INIT e9a4 8 .cfa: sp 0 + .ra: lr
STACK CFI INIT e9ac 8 .cfa: sp 0 + .ra: lr
STACK CFI INIT e9b4 1c .cfa: sp 0 + .ra: lr
STACK CFI INIT e9d0 70 .cfa: sp 0 + .ra: lr
STACK CFI e9d8 .cfa: sp 8 +
STACK CFI e9dc .ra: .cfa -4 + ^ r4: .cfa -8 + ^
STACK CFI INIT ea40 4c .cfa: sp 0 + .ra: lr
STACK CFI ea48 .cfa: sp 4 +
STACK CFI ea4c .cfa: sp 16 +
STACK CFI ea50 .ra: .cfa -4 + ^
STACK CFI INIT ea8c 19c .cfa: sp 0 + .ra: lr
STACK CFI ea94 .cfa: sp 20 +
STACK CFI ea98 .ra: .cfa -4 + ^ r4: .cfa -20 + ^ r5: .cfa -16 + ^ r6: .cfa -12 + ^ r7: .cfa -8 + ^
STACK CFI ea9c .cfa: sp 32 +
STACK CFI INIT ec28 144 .cfa: sp 0 + .ra: lr
STACK CFI ec2c .cfa: sp 12 +
STACK CFI ec30 .cfa: sp 40 +
STACK CFI ec34 .cfa: sp 2040 +
STACK CFI ec38 .cfa: sp 2048 +
STACK CFI ec3c .ra: .cfa -16 + ^ r1: .cfa -12 + ^ r10: .cfa -20 + ^ r2: .cfa -8 + ^ r3: .cfa -4 + ^ r4: .cfa -40 + ^ r5: .cfa -36 + ^ r6: .cfa -32 + ^ r7: .cfa -28 + ^ r8: .cfa -24 + ^
STACK CFI INIT ed6c 78 .cfa: sp 0 + .ra: lr
STACK CFI ed74 .cfa: sp 16 +
STACK CFI ed78 .ra: .cfa -4 + ^ r3: .cfa -16 + ^ r4: .cfa -12 + ^ r5: .cfa -8 + ^
STACK CFI INIT ede4 18 .cfa: sp 0 + .ra: lr
STACK CFI INIT edfc 14 .cfa: sp 0 + .ra: lr
STACK CFI INIT ee10 1e8 .cfa: sp 0 + .ra: lr
STACK CFI ee14 .cfa: sp 32 +
STACK CFI ee18 .ra: .cfa -4 + ^ r10: .cfa -8 + ^ r4: .cfa -32 + ^ r5: .cfa -28 + ^ r6: .cfa -24 + ^ r7: .cfa -20 + ^ r8: .cfa -16 + ^ r9: .cfa -12 + ^
STACK CFI INIT eff8 1b8 .cfa: sp 0 + .ra: lr
STACK CFI f008 .cfa: sp 32 +
STACK CFI f00c .ra: .cfa -4 + ^ r10: .cfa -8 + ^ r4: .cfa -32 + ^ r5: .cfa -28 + ^ r6: .cfa -24 + ^ r7: .cfa -20 + ^ r8: .cfa -16 + ^ r9: .cfa -12 + ^
STACK CFI INIT f1b0 1c4 .cfa: sp 0 + .ra: lr
STACK CFI f1b4 .cfa: sp 40 +
STACK CFI f1b8 .ra: .cfa -4 + ^ r10: .cfa -12 + ^ r11: .cfa -8 + ^ r3: .cfa -40 + ^ r4: .cfa -36 + ^ r5: .cfa -32 + ^ r6: .cfa -28 + ^ r7: .cfa -24 + ^ r8: .cfa -20 + ^ r9: .cfa -16 + ^
STACK CFI INIT f374 3ac .cfa: sp 0 + .ra: lr
STACK CFI f37c .cfa: sp 36 +
STACK CFI f380 .ra: .cfa -4 + ^ r10: .cfa -12 + ^ r11: .cfa -8 + ^ r4: .cfa -36 + ^ r5: .cfa -32 + ^ r6: .cfa -28 + ^ r7: .cfa -24 + ^ r8: .cfa -20 + ^ r9: .cfa -16 + ^
STACK CFI f3a4 .cfa: sp 320 +
STACK CFI INIT f720 448 .cfa: sp 0 + .ra: lr
STACK CFI f728 .cfa: sp 36 +
STACK CFI f72c .ra: .cfa -4 + ^ r10: .cfa -12 + ^ r11: .cfa -8 + ^ r4: .cfa -36 + ^ r5: .cfa -32 + ^ r6: .cfa -28 + ^ r7: .cfa -24 + ^ r8: .cfa -20 + ^ r9: .cfa -16 + ^
STACK CFI f738 .cfa: sp 328 +
STACK CFI INIT fb68 e8 .cfa: sp 0 + .ra: lr
STACK CFI fb70 .cfa: sp 24 +
STACK CFI fb74 .ra: .cfa -4 + ^ r4: .cfa -24 + ^ r5: .cfa -20 + ^ r6: .cfa -16 + ^ r7: .cfa -12 + ^ r8: .cfa -8 + ^
STACK CFI INIT fc50 24 .cfa: sp 0 + .ra: lr
STACK CFI fc58 .cfa: sp 8 +
STACK CFI fc5c .ra: .cfa -4 + ^ r4: .cfa -8 + ^
STACK CFI INIT fc74 278 .cfa: sp 0 + .ra: lr
STACK CFI fc78 .cfa: sp 36 +
STACK CFI fc80 .ra: .cfa -4 + ^ r10: .cfa -12 + ^ r11: .cfa -8 + ^ r4: .cfa -36 + ^ r5: .cfa -32 + ^ r6: .cfa -28 + ^ r7: .cfa -24 + ^ r8: .cfa -20 + ^ r9: .cfa -16 + ^
STACK CFI fc8c .cfa: sp 56 +
STACK CFI INIT feec 144 .cfa: sp 0 + .ra: lr
STACK CFI fef0 .cfa: sp 32 +
STACK CFI fefc .ra: .cfa -4 + ^ r10: .cfa -8 + ^ r4: .cfa -32 + ^ r5: .cfa -28 + ^ r6: .cfa -24 + ^ r7: .cfa -20 + ^ r8: .cfa -16 + ^ r9: .cfa -12 + ^
STACK CFI INIT 10030 c8 .cfa: sp 0 + .ra: lr
STACK CFI 10034 .cfa: sp 32 +
STACK CFI 1003c .ra: .cfa -4 + ^ r10: .cfa -8 + ^ r3: .cfa -32 + ^ r4: .cfa -28 + ^ r5: .cfa -24 + ^ r6: .cfa -20 + ^ r7: .cfa -16 + ^ r8: .cfa -12 + ^
STACK CFI INIT 100f8 98 .cfa: sp 0 + .ra: lr
STACK CFI 100fc .cfa: sp 32 +
STACK CFI 10100 .ra: .cfa -4 + ^ r10: .cfa -8 + ^ r3: .cfa -32 + ^ r4: .cfa -28 + ^ r5: .cfa -24 + ^ r6: .cfa -20 + ^ r7: .cfa -16 + ^ r8: .cfa -12 + ^
STACK CFI INIT 10190 70 .cfa: sp 0 + .ra: lr
STACK CFI 10194 .cfa: sp 20 +
STACK CFI 10198 .ra: .cfa -4 + ^ r4: .cfa -20 + ^ r5: .cfa -16 + ^ r6: .cfa -12 + ^ r7: .cfa -8 + ^
STACK CFI 101a4 .cfa: sp 40 +
STACK CFI INIT 10200 10 .cfa: sp 0 + .ra: lr
STACK CFI INIT 10210 10 .cfa: sp 0 + .ra: lr
STACK CFI INIT 10220 a0 .cfa: sp 0 + .ra: lr
STACK CFI 10224 .cfa: sp 12 +
STACK CFI 1022c .ra: .cfa -4 + ^ r4: .cfa -12 + ^ r5: .cfa -8 + ^
STACK CFI 10230 .cfa: sp 24 +
STACK CFI INIT 102c0 c8 .cfa: sp 0 + .ra: lr
STACK CFI 102c8 .cfa: sp 32 +
STACK CFI 102cc .ra: .cfa -4 + ^ r10: .cfa -8 + ^ r3: .cfa -32 + ^ r4: .cfa -28 + ^ r5: .cfa -24 + ^ r6: .cfa -20 + ^ r7: .cfa -16 + ^ r8: .cfa -12 + ^
STACK CFI INIT 10388 d8 .cfa: sp 0 + .ra: lr
STACK CFI 10390 .cfa: sp 32 +
STACK CFI 10394 .ra: .cfa -4 + ^ r10: .cfa -8 + ^ r3: .cfa -32 + ^ r4: .cfa -28 + ^ r5: .cfa -24 + ^ r6: .cfa -20 + ^ r7: .cfa -16 + ^ r8: .cfa -12 + ^
STACK CFI INIT 10460 14c .cfa: sp 0 + .ra: lr
STACK CFI 10464 .cfa: sp 40 +
STACK CFI 10468 .ra: .cfa -4 + ^ r10: .cfa -12 + ^ r11: .cfa -8 + ^ r3: .cfa -40 + ^ r4: .cfa -36 + ^ r5: .cfa -32 + ^ r6: .cfa -28 + ^ r7: .cfa -24 + ^ r8: .cfa -20 + ^ r9: .cfa -16 + ^
STACK CFI INIT 105ac fc .cfa: sp 0 + .ra: lr
STACK CFI 105b0 .cfa: sp 28 +
STACK CFI 105b4 .cfa: sp 40 +
STACK CFI 105b8 .ra: .cfa -4 + ^ r10: .cfa -8 + ^ r4: .cfa -28 + ^ r5: .cfa -24 + ^ r6: .cfa -20 + ^ r7: .cfa -16 + ^ r8: .cfa -12 + ^
STACK CFI INIT 106a8 1e4 .cfa: sp 0 + .ra: lr
STACK CFI 106ac .cfa: sp 36 +
STACK CFI 106b0 .cfa: sp 64 +
STACK CFI 106b4 .ra: .cfa -4 + ^ r10: .cfa -12 + ^ r11: .cfa -8 + ^ r4: .cfa -36 + ^ r5: .cfa -32 + ^ r6: .cfa -28 + ^ r7: .cfa -24 + ^ r8: .cfa -20 + ^ r9: .cfa -16 + ^
STACK CFI INIT 1088c 4 .cfa: sp 0 + .ra: lr
STACK CFI INIT 10890 2bc .cfa: sp 0 + .ra: lr
STACK CFI 10894 .cfa: sp 36 +
STACK CFI 10898 .ra: .cfa -4 + ^ r10: .cfa -12 + ^ r11: .cfa -8 + ^ r4: .cfa -36 + ^ r5: .cfa -32 + ^ r6: .cfa -28 + ^ r7: .cfa -24 + ^ r8: .cfa -20 + ^ r9: .cfa -16 + ^
STACK CFI 108a8 .cfa: sp 64 +
STACK CFI INIT 10b4c a8 .cfa: sp 0 + .ra: lr
STACK CFI 10b50 .cfa: sp 20 +
STACK CFI 10b58 .ra: .cfa -4 + ^ r4: .cfa -20 + ^ r5: .cfa -16 + ^ r6: .cfa -12 + ^ r7: .cfa -8 + ^
STACK CFI 10b5c .cfa: sp 32 +
STACK CFI INIT 10bf4 100 .cfa: sp 0 + .ra: lr
STACK CFI 10bf8 .cfa: sp 16 +
STACK CFI 10bfc .cfa: sp 48 +
STACK CFI 10c00 .cfa: sp 568 +
STACK CFI 10c04 .ra: .cfa -20 + ^ r0: .cfa -16 + ^ r1: .cfa -12 + ^ r10: .cfa -24 + ^ r2: .cfa -8 + ^ r3: .cfa -4 + ^ r4: .cfa -48 + ^ r5: .cfa -44 + ^ r6: .cfa -40 + ^ r7: .cfa -36 + ^ r8: .cfa -32 + ^ r9: .cfa -28 + ^
STACK CFI INIT 10cf4 108 .cfa: sp 0 + .ra: lr
STACK CFI 10cf8 .cfa: sp 16 +
STACK CFI 10cfc .cfa: sp 48 +
STACK CFI 10d00 .cfa: sp 568 +
STACK CFI 10d04 .ra: .cfa -20 + ^ r0: .cfa -16 + ^ r1: .cfa -12 + ^ r10: .cfa -24 + ^ r2: .cfa -8 + ^ r3: .cfa -4 + ^ r4: .cfa -48 + ^ r5: .cfa -44 + ^ r6: .cfa -40 + ^ r7: .cfa -36 + ^ r8: .cfa -32 + ^ r9: .cfa -28 + ^
STACK CFI INIT 10dfc a4 .cfa: sp 0 + .ra: lr
STACK CFI 10e00 .cfa: sp 12 +
STACK CFI 10e04 .cfa: sp 24 +
STACK CFI 10e08 .cfa: sp 544 +
STACK CFI 10e0c .ra: .cfa -16 + ^ r1: .cfa -12 + ^ r2: .cfa -8 + ^ r3: .cfa -4 + ^ r4: .cfa -24 + ^ r5: .cfa -20 + ^
STACK CFI INIT 10ea0 a4 .cfa: sp 0 + .ra: lr
STACK CFI 10ea4 .cfa: sp 12 +
STACK CFI 10ea8 .cfa: sp 24 +
STACK CFI 10eac .cfa: sp 544 +
STACK CFI 10eb0 .ra: .cfa -16 + ^ r1: .cfa -12 + ^ r2: .cfa -8 + ^ r3: .cfa -4 + ^ r4: .cfa -24 + ^ r5: .cfa -20 + ^
STACK CFI INIT 10f44 9c .cfa: sp 0 + .ra: lr
STACK CFI 10f48 .cfa: sp 12 +
STACK CFI 10f4c .cfa: sp 24 +
STACK CFI 10f50 .cfa: sp 544 +
STACK CFI 10f54 .ra: .cfa -16 + ^ r1: .cfa -12 + ^ r2: .cfa -8 + ^ r3: .cfa -4 + ^ r4: .cfa -24 + ^ r5: .cfa -20 + ^
STACK CFI INIT 10fe0 ac .cfa: sp 0 + .ra: lr
STACK CFI 10fe4 .cfa: sp 4 +
STACK CFI 10fe8 .cfa: sp 24 +
STACK CFI 10fec .cfa: sp 552 +
STACK CFI 10ff0 .ra: .cfa -8 + ^ r3: .cfa -4 + ^ r4: .cfa -24 + ^ r5: .cfa -20 + ^ r6: .cfa -16 + ^ r7: .cfa -12 + ^
STACK CFI INIT 1108c 7c .cfa: sp 0 + .ra: lr
STACK CFI 11094 .cfa: sp 8 +
STACK CFI 11098 .cfa: sp 16 +
STACK CFI 110ac .ra: .cfa -4 + ^ r4: .cfa -8 + ^
STACK CFI INIT 11108 ac .cfa: sp 0 + .ra: lr
STACK CFI 1110c .cfa: sp 4 +
STACK CFI 11110 .cfa: sp 24 +
STACK CFI 11114 .cfa: sp 552 +
STACK CFI 11118 .ra: .cfa -8 + ^ r3: .cfa -4 + ^ r4: .cfa -24 + ^ r5: .cfa -20 + ^ r6: .cfa -16 + ^ r7: .cfa -12 + ^
STACK CFI INIT 111b4 ac .cfa: sp 0 + .ra: lr
STACK CFI 111b8 .cfa: sp 4 +
STACK CFI 111bc .cfa: sp 24 +
STACK CFI 111c0 .cfa: sp 552 +
STACK CFI 111c4 .ra: .cfa -8 + ^ r3: .cfa -4 + ^ r4: .cfa -24 + ^ r5: .cfa -20 + ^ r6: .cfa -16 + ^ r7: .cfa -12 + ^
STACK CFI INIT 11260 120 .cfa: sp 0 + .ra: lr
STACK CFI 11264 .cfa: sp 32 +
STACK CFI 11268 .cfa: r11 4 + .ra: .cfa -4 + ^ r10: .cfa -12 + ^ r11: .cfa -8 + ^ r4: .cfa -32 + ^ r5: .cfa -28 + ^ r6: .cfa -24 + ^ r7: .cfa -20 + ^ r8: .cfa -16 + ^
STACK CFI INIT 11380 1f4 .cfa: sp 0 + .ra: lr
STACK CFI 11384 .cfa: sp 36 +
STACK CFI 11388 .ra: .cfa -4 + ^ r10: .cfa -12 + ^ r11: .cfa -8 + ^ r4: .cfa -36 + ^ r5: .cfa -32 + ^ r6: .cfa -28 + ^ r7: .cfa -24 + ^ r8: .cfa -20 + ^ r9: .cfa -16 + ^
STACK CFI 11398 .cfa: sp 40 +
STACK CFI INIT 11574 dc .cfa: sp 0 + .ra: lr
STACK CFI 11578 .cfa: sp 24 +
STACK CFI 1157c .ra: .cfa -4 + ^ r4: .cfa -24 + ^ r5: .cfa -20 + ^ r6: .cfa -16 + ^ r7: .cfa -12 + ^ r8: .cfa -8 + ^
STACK CFI INIT 11650 2a0 .cfa: sp 0 + .ra: lr
STACK CFI 11654 .cfa: sp 36 +
STACK CFI 11658 .cfa: r11 4 + .ra: .cfa -4 + ^ r10: .cfa -12 + ^ r11: .cfa -8 + ^ r4: .cfa -36 + ^ r5: .cfa -32 + ^ r6: .cfa -28 + ^ r7: .cfa -24 + ^ r8: .cfa -20 + ^ r9: .cfa -16 + ^
STACK CFI INIT 118f0 6c .cfa: sp 0 + .ra: lr
STACK CFI 118f8 .cfa: sp 8 +
STACK CFI 11900 .ra: .cfa -4 + ^ r4: .cfa -8 + ^
STACK CFI INIT 1195c 3c .cfa: sp 0 + .ra: lr
STACK CFI INIT 11998 d4 .cfa: sp 0 + .ra: lr
STACK CFI 1199c .cfa: sp 36 +
STACK CFI 119a4 .cfa: sp 64 +
STACK CFI 119a8 .ra: .cfa -4 + ^ r10: .cfa -12 + ^ r11: .cfa -8 + ^ r4: .cfa -36 + ^ r5: .cfa -32 + ^ r6: .cfa -28 + ^ r7: .cfa -24 + ^ r8: .cfa -20 + ^ r9: .cfa -16 + ^
STACK CFI INIT 11a6c 74 .cfa: sp 0 + .ra: lr
STACK CFI 11a70 .cfa: sp 16 +
STACK CFI 11a74 .ra: .cfa -4 + ^ r4: .cfa -16 + ^ r5: .cfa -12 + ^ r6: .cfa -8 + ^
STACK CFI INIT 11ae0 6c .cfa: sp 0 + .ra: lr
STACK CFI 11ae4 .cfa: sp 16 +
STACK CFI 11ae8 .ra: .cfa -4 + ^ r4: .cfa -16 + ^ r5: .cfa -12 + ^ r6: .cfa -8 + ^
STACK CFI INIT 11b4c 188 .cfa: sp 0 + .ra: lr
STACK CFI 11b50 .cfa: sp 28 +
STACK CFI 11b54 .ra: .cfa -4 + ^ r10: .cfa -8 + ^ r4: .cfa -28 + ^ r5: .cfa -24 + ^ r6: .cfa -20 + ^ r7: .cfa -16 + ^ r8: .cfa -12 + ^
STACK CFI 11b64 .cfa: sp 40 +
STACK CFI INIT 11cd4 6c .cfa: sp 0 + .ra: lr
STACK CFI 11cd8 .cfa: sp 8 +
STACK CFI 11cdc .ra: .cfa -4 + ^ r4: .cfa -8 + ^
STACK CFI INIT 11d40 80 .cfa: sp 0 + .ra: lr
STACK CFI 11d44 .cfa: sp 24 +
STACK CFI 11d48 .ra: .cfa -4 + ^ r3: .cfa -24 + ^ r4: .cfa -20 + ^ r5: .cfa -16 + ^ r6: .cfa -12 + ^ r7: .cfa -8 + ^
STACK CFI INIT 11dc0 4 .cfa: sp 0 + .ra: lr
STACK CFI INIT 11dc4 30 .cfa: sp 0 + .ra: lr
STACK CFI 11dc8 .cfa: sp 8 +
STACK CFI 11dcc .cfa: sp 12 +
STACK CFI 11dd0 .cfa: sp 24 +
STACK CFI 11dd8 .ra: .cfa -12 + ^ r2: .cfa -8 + ^ r3: .cfa -4 + ^
STACK CFI INIT 11df4 b0 .cfa: sp 0 + .ra: lr
STACK CFI 11df8 .cfa: sp 24 +
STACK CFI 11dfc .cfa: sp 32 +
STACK CFI 11e00 .ra: .cfa -4 + ^ r4: .cfa -24 + ^ r5: .cfa -20 + ^ r6: .cfa -16 + ^ r7: .cfa -12 + ^ r8: .cfa -8 + ^
STACK CFI INIT 11ea4 158 .cfa: sp 0 + .ra: lr
STACK CFI 11ea8 .cfa: sp 40 +
STACK CFI 11eac .ra: .cfa -4 + ^ r10: .cfa -12 + ^ r11: .cfa -8 + ^ r3: .cfa -40 + ^ r4: .cfa -36 + ^ r5: .cfa -32 + ^ r6: .cfa -28 + ^ r7: .cfa -24 + ^ r8: .cfa -20 + ^ r9: .cfa -16 + ^
STACK CFI INIT 11ffc 108 .cfa: sp 0 + .ra: lr
STACK CFI 12000 .cfa: sp 24 +
STACK CFI 12004 .ra: .cfa -4 + ^ r3: .cfa -24 + ^ r4: .cfa -20 + ^ r5: .cfa -16 + ^ r6: .cfa -12 + ^ r7: .cfa -8 + ^
STACK CFI INIT 12104 94 .cfa: sp 0 + .ra: lr
STACK CFI 12108 .cfa: sp 16 +
STACK CFI 12110 .ra: .cfa -4 + ^ r4: .cfa -16 + ^ r5: .cfa -12 + ^ r6: .cfa -8 + ^
STACK CFI INIT 12198 7c .cfa: sp 0 + .ra: lr
STACK CFI 1219c .cfa: sp 16 +
STACK CFI 121a0 .ra: .cfa -4 + ^ r3: .cfa -16 + ^ r4: .cfa -12 + ^ r5: .cfa -8 + ^
STACK CFI INIT 12214 7c .cfa: sp 0 + .ra: lr
STACK CFI 1221c .cfa: sp 16 +
STACK CFI 12220 .ra: .cfa -4 + ^ r4: .cfa -16 + ^ r5: .cfa -12 + ^ r6: .cfa -8 + ^
STACK CFI INIT 12290 c .cfa: sp 0 + .ra: lr
STACK CFI INIT 1229c 10 .cfa: sp 0 + .ra: lr
STACK CFI INIT 122ac 10 .cfa: sp 0 + .ra: lr
STACK CFI INIT 122bc 9c .cfa: sp 0 + .ra: lr
STACK CFI 122c0 .cfa: sp 24 +
STACK CFI 122c4 .ra: .cfa -4 + ^ r3: .cfa -24 + ^ r4: .cfa -20 + ^ r5: .cfa -16 + ^ r6: .cfa -12 + ^ r7: .cfa -8 + ^
STACK CFI INIT 12358 6c .cfa: sp 0 + .ra: lr
STACK CFI 1235c .cfa: sp 16 +
STACK CFI 12360 .ra: .cfa -4 + ^ r3: .cfa -16 + ^ r4: .cfa -12 + ^ r5: .cfa -8 + ^
STACK CFI INIT 123c4 ac .cfa: sp 0 + .ra: lr
STACK CFI 123c8 .cfa: sp 16 +
STACK CFI 123cc .ra: .cfa -4 + ^ r4: .cfa -16 + ^ r5: .cfa -12 + ^ r6: .cfa -8 + ^
STACK CFI INIT 12470 84 .cfa: sp 0 + .ra: lr
STACK CFI 12474 .cfa: sp 24 +
STACK CFI 12478 .ra: .cfa -4 + ^ r4: .cfa -24 + ^ r5: .cfa -20 + ^ r6: .cfa -16 + ^ r7: .cfa -12 + ^ r8: .cfa -8 + ^
STACK CFI INIT 124f4 70 .cfa: sp 0 + .ra: lr
STACK CFI 12500 .cfa: sp 8 +
STACK CFI 12508 .ra: .cfa -4 + ^ r4: .cfa -8 + ^
STACK CFI INIT 12564 248 .cfa: sp 0 + .ra: lr
STACK CFI 12568 .cfa: sp 36 +
STACK CFI 1256c .ra: .cfa -4 + ^ r10: .cfa -12 + ^ r11: .cfa -8 + ^ r4: .cfa -36 + ^ r5: .cfa -32 + ^ r6: .cfa -28 + ^ r7: .cfa -24 + ^ r8: .cfa -20 + ^ r9: .cfa -16 + ^
STACK CFI 1257c .cfa: sp 72 +
STACK CFI INIT 127ac 2d0 .cfa: sp 0 + .ra: lr
STACK CFI 127b4 .cfa: sp 8 +
STACK CFI 127bc .cfa: sp 24 +
STACK CFI 127c8 .ra: .cfa -4 + ^ r4: .cfa -8 + ^
STACK CFI INIT 12a7c 5d4 .cfa: sp 0 + .ra: lr
STACK CFI 12a84 .cfa: sp 24 +
STACK CFI 12a8c .cfa: sp 192 +
STACK CFI 12a90 .ra: .cfa -4 + ^ r4: .cfa -24 + ^ r5: .cfa -20 + ^ r6: .cfa -16 + ^ r7: .cfa -12 + ^ r8: .cfa -8 + ^
STACK CFI INIT 13050 8ec .cfa: sp 0 + .ra: lr
STACK CFI 13054 .cfa: sp 24 +
STACK CFI 13058 .cfa: sp 440 +
STACK CFI 13060 .ra: .cfa -4 + ^ r4: .cfa -24 + ^ r5: .cfa -20 + ^ r6: .cfa -16 + ^ r7: .cfa -12 + ^ r8: .cfa -8 + ^
STACK CFI INIT 1393c ab0 .cfa: sp 0 + .ra: lr
STACK CFI 13940 .cfa: sp 16 +
STACK CFI 13944 .ra: .cfa -4 + ^ r4: .cfa -16 + ^ r5: .cfa -12 + ^ r6: .cfa -8 + ^
STACK CFI 13948 .cfa: sp 288 +
STACK CFI INIT 143ec 6f0 .cfa: sp 0 + .ra: lr
STACK CFI 143f8 .cfa: sp 16 +
STACK CFI 143fc .ra: .cfa -4 + ^ r3: .cfa -16 + ^ r4: .cfa -12 + ^ r5: .cfa -8 + ^
STACK CFI INIT 14adc 28 .cfa: sp 0 + .ra: lr
STACK CFI 14ae0 .cfa: sp 4 +
STACK CFI 14ae4 .cfa: sp 136 +
STACK CFI 14ae8 .ra: .cfa -4 + ^
STACK CFI INIT 14b04 110 .cfa: sp 0 + .ra: lr
STACK CFI 14b08 .cfa: sp 32 +
STACK CFI 14b0c .ra: .cfa -4 + ^ r10: .cfa -8 + ^ r3: .cfa -32 + ^ r4: .cfa -28 + ^ r5: .cfa -24 + ^ r6: .cfa -20 + ^ r7: .cfa -16 + ^ r8: .cfa -12 + ^
STACK CFI INIT 14c14 8c .cfa: sp 0 + .ra: lr
STACK CFI 14c18 .cfa: sp 16 +
STACK CFI 14c1c .ra: .cfa -4 + ^ r3: .cfa -16 + ^ r4: .cfa -12 + ^ r5: .cfa -8 + ^
STACK CFI INIT 14ca0 5c .cfa: sp 0 + .ra: lr
STACK CFI 14ca8 .cfa: sp 20 +
STACK CFI 14cb0 r4: .cfa -20 + ^ r5: .cfa -16 + ^ r6: .cfa -12 + ^ r7: .cfa -8 + ^ r8: .cfa -4 + ^
STACK CFI INIT 14cfc 20c .cfa: sp 0 + .ra: lr
STACK CFI 14d00 .cfa: sp 24 +
STACK CFI 14d04 .ra: .cfa -4 + ^ r4: .cfa -24 + ^ r5: .cfa -20 + ^ r6: .cfa -16 + ^ r7: .cfa -12 + ^ r8: .cfa -8 + ^
STACK CFI INIT 14f08 138 .cfa: sp 0 + .ra: lr
STACK CFI 14f0c .cfa: sp 16 +
STACK CFI 14f10 .ra: .cfa -4 + ^ r3: .cfa -16 + ^ r4: .cfa -12 + ^ r5: .cfa -8 + ^
STACK CFI INIT 15040 88 .cfa: sp 0 + .ra: lr
STACK CFI 15048 .cfa: sp 16 +
STACK CFI 15050 .ra: .cfa -4 + ^ r4: .cfa -16 + ^ r5: .cfa -12 + ^ r6: .cfa -8 + ^
STACK CFI INIT 150c8 d8 .cfa: sp 0 + .ra: lr
STACK CFI 150cc .cfa: sp 32 +
STACK CFI 150d0 .ra: .cfa -4 + ^ r10: .cfa -12 + ^ r11: .cfa -8 + ^ r4: .cfa -32 + ^ r5: .cfa -28 + ^ r6: .cfa -24 + ^ r7: .cfa -20 + ^ r8: .cfa -16 + ^
STACK CFI 150d4 .cfa: r11 4 +
STACK CFI INIT 151a0 10c .cfa: sp 0 + .ra: lr
STACK CFI 151a8 .cfa: sp 16 +
STACK CFI 151b0 .ra: .cfa -4 + ^ r4: .cfa -16 + ^ r5: .cfa -12 + ^ r6: .cfa -8 + ^
STACK CFI 151b4 .cfa: sp 152 +
STACK CFI INIT 152ac fc .cfa: sp 0 + .ra: lr
STACK CFI 152b4 .cfa: sp 16 +
STACK CFI 152bc .ra: .cfa -4 + ^ r4: .cfa -16 + ^ r5: .cfa -12 + ^ r6: .cfa -8 + ^
STACK CFI 152c0 .cfa: sp 152 +
STACK CFI INIT 153a8 2d4 .cfa: sp 0 + .ra: lr
STACK CFI 153ac .cfa: sp 36 +
STACK CFI 153b0 .ra: .cfa -4 + ^ r10: .cfa -12 + ^ r11: .cfa -8 + ^ r4: .cfa -36 + ^ r5: .cfa -32 + ^ r6: .cfa -28 + ^ r7: .cfa -24 + ^ r8: .cfa -20 + ^ r9: .cfa -16 + ^
STACK CFI 153b4 .cfa: sp 208 +
STACK CFI INIT 1567c 3b4 .cfa: sp 0 + .ra: lr
STACK CFI 15680 .cfa: sp 36 +
STACK CFI 15684 .ra: .cfa -4 + ^ r10: .cfa -12 + ^ r11: .cfa -8 + ^ r4: .cfa -36 + ^ r5: .cfa -32 + ^ r6: .cfa -28 + ^ r7: .cfa -24 + ^ r8: .cfa -20 + ^ r9: .cfa -16 + ^
STACK CFI 15688 .cfa: sp 56 +
STACK CFI INIT 15a30 208 .cfa: sp 0 + .ra: lr
STACK CFI 15a34 .cfa: sp 36 +
STACK CFI 15a38 .cfa: r11 4 + .ra: .cfa -4 + ^ r10: .cfa -12 + ^ r11: .cfa -8 + ^ r4: .cfa -36 + ^ r5: .cfa -32 + ^ r6: .cfa -28 + ^ r7: .cfa -24 + ^ r8: .cfa -20 + ^ r9: .cfa -16 + ^
STACK CFI INIT 15c38 180 .cfa: sp 0 + .ra: lr
STACK CFI 15c3c .cfa: sp 28 +
STACK CFI 15c40 .ra: .cfa -4 + ^ r10: .cfa -8 + ^ r4: .cfa -28 + ^ r5: .cfa -24 + ^ r6: .cfa -20 + ^ r7: .cfa -16 + ^ r8: .cfa -12 + ^
STACK CFI 15c44 .cfa: sp 88 +
STACK CFI INIT 15db8 2c .cfa: sp 0 + .ra: lr
STACK CFI 15dbc .cfa: sp 8 +
STACK CFI 15dc4 .ra: .cfa -4 + ^ r4: .cfa -8 + ^
STACK CFI INIT 15de4 12c .cfa: sp 0 + .ra: lr
STACK CFI 15dec .cfa: sp 12 +
STACK CFI 15df0 .ra: .cfa -4 + ^ r4: .cfa -12 + ^ r5: .cfa -8 + ^
STACK CFI 15df4 .cfa: sp 104 +
STACK CFI INIT 15f10 84 .cfa: sp 0 + .ra: lr
STACK CFI 15f18 .cfa: sp 16 +
STACK CFI 15f20 .ra: .cfa -4 + ^ r4: .cfa -16 + ^ r5: .cfa -12 + ^ r6: .cfa -8 + ^
STACK CFI INIT 15f94 e0 .cfa: sp 0 + .ra: lr
STACK CFI 15f98 .cfa: sp 24 +
STACK CFI 15f9c .ra: .cfa -4 + ^ r4: .cfa -24 + ^ r5: .cfa -20 + ^ r6: .cfa -16 + ^ r7: .cfa -12 + ^ r8: .cfa -8 + ^
STACK CFI INIT 16074 124 .cfa: sp 0 + .ra: lr
STACK CFI 16078 .cfa: sp 32 +
STACK CFI 1607c .ra: .cfa -4 + ^ r10: .cfa -8 + ^ r4: .cfa -32 + ^ r5: .cfa -28 + ^ r6: .cfa -24 + ^ r7: .cfa -20 + ^ r8: .cfa -16 + ^ r9: .cfa -12 + ^
STACK CFI INIT 16198 148 .cfa: sp 0 + .ra: lr
STACK CFI 1619c .cfa: sp 32 +
STACK CFI 161a0 .ra: .cfa -4 + ^ r10: .cfa -8 + ^ r4: .cfa -32 + ^ r5: .cfa -28 + ^ r6: .cfa -24 + ^ r7: .cfa -20 + ^ r8: .cfa -16 + ^ r9: .cfa -12 + ^
STACK CFI INIT 162e0 1fc .cfa: sp 0 + .ra: lr
STACK CFI 162e4 .cfa: sp 36 +
STACK CFI 162e8 .cfa: sp 192 +
STACK CFI 162ec .ra: .cfa -4 + ^ r10: .cfa -12 + ^ r11: .cfa -8 + ^ r4: .cfa -36 + ^ r5: .cfa -32 + ^ r6: .cfa -28 + ^ r7: .cfa -24 + ^ r8: .cfa -20 + ^ r9: .cfa -16 + ^
STACK CFI INIT 164dc 1bc .cfa: sp 0 + .ra: lr
STACK CFI 164e0 .cfa: sp 28 +
STACK CFI 164e4 .cfa: sp 192 +
STACK CFI 164e8 .ra: .cfa -4 + ^ r10: .cfa -8 + ^ r4: .cfa -28 + ^ r5: .cfa -24 + ^ r6: .cfa -20 + ^ r7: .cfa -16 + ^ r8: .cfa -12 + ^
STACK CFI INIT 16698 128 .cfa: sp 0 + .ra: lr
STACK CFI 1669c .cfa: sp 24 +
STACK CFI 166a0 .cfa: sp 1304 +
STACK CFI 166a4 .ra: .cfa -4 + ^ r4: .cfa -24 + ^ r5: .cfa -20 + ^ r6: .cfa -16 + ^ r7: .cfa -12 + ^ r8: .cfa -8 + ^
STACK CFI 166a8 .cfa: sp 1312 +
STACK CFI INIT 167c0 1bc .cfa: sp 0 + .ra: lr
STACK CFI 167c8 .cfa: sp 32 +
STACK CFI 167d0 .cfa: sp 112 +
STACK CFI 167d4 .ra: .cfa -4 + ^ r10: .cfa -8 + ^ r4: .cfa -32 + ^ r5: .cfa -28 + ^ r6: .cfa -24 + ^ r7: .cfa -20 + ^ r8: .cfa -16 + ^ r9: .cfa -12 + ^
STACK CFI INIT 1697c 208 .cfa: sp 0 + .ra: lr
STACK CFI 16984 .cfa: sp 16 +
STACK CFI 1698c .cfa: sp 536 +
STACK CFI 16998 .ra: .cfa -4 + ^ r4: .cfa -16 + ^ r5: .cfa -12 + ^ r6: .cfa -8 + ^
STACK CFI INIT 16b84 130 .cfa: sp 0 + .ra: lr
STACK CFI 16b88 .cfa: sp 24 +
STACK CFI 16b8c .ra: .cfa -4 + ^ r4: .cfa -24 + ^ r5: .cfa -20 + ^ r6: .cfa -16 + ^ r7: .cfa -12 + ^ r8: .cfa -8 + ^
STACK CFI 16b94 .cfa: sp 544 +
STACK CFI INIT 16cb4 204 .cfa: sp 0 + .ra: lr
STACK CFI 16cb8 .cfa: sp 36 +
STACK CFI 16cbc .ra: .cfa -4 + ^ r10: .cfa -12 + ^ r11: .cfa -8 + ^ r4: .cfa -36 + ^ r5: .cfa -32 + ^ r6: .cfa -28 + ^ r7: .cfa -24 + ^ r8: .cfa -20 + ^ r9: .cfa -16 + ^
STACK CFI 16cc0 .cfa: sp 64 +
STACK CFI INIT 16eb8 10c .cfa: sp 0 + .ra: lr
STACK CFI 16ebc .cfa: sp 36 +
STACK CFI 16ec0 .ra: .cfa -4 + ^ r10: .cfa -12 + ^ r11: .cfa -8 + ^ r4: .cfa -36 + ^ r5: .cfa -32 + ^ r6: .cfa -28 + ^ r7: .cfa -24 + ^ r8: .cfa -20 + ^ r9: .cfa -16 + ^
STACK CFI 16ec4 .cfa: sp 48 +
STACK CFI INIT 16fc4 cc .cfa: sp 0 + .ra: lr
STACK CFI 16fc8 .cfa: sp 32 +
STACK CFI 16fcc .ra: .cfa -4 + ^ r10: .cfa -8 + ^ r4: .cfa -32 + ^ r5: .cfa -28 + ^ r6: .cfa -24 + ^ r7: .cfa -20 + ^ r8: .cfa -16 + ^ r9: .cfa -12 + ^
STACK CFI INIT 17090 2f40 .cfa: sp 0 + .ra: lr
STACK CFI 17094 .cfa: sp 36 +
STACK CFI 17098 .cfa: sp 1892 +
STACK CFI 1709c .cfa: sp 1904 +
STACK CFI 170ac .ra: .cfa -4 + ^ r10: .cfa -12 + ^ r11: .cfa -8 + ^ r4: .cfa -36 + ^ r5: .cfa -32 + ^ r6: .cfa -28 + ^ r7: .cfa -24 + ^ r8: .cfa -20 + ^ r9: .cfa -16 + ^
STACK CFI INIT 19fd0 d8c .cfa: sp 0 + .ra: lr
STACK CFI 19fd4 .cfa: sp 36 +
STACK CFI 19fd8 .ra: .cfa -4 + ^ r10: .cfa -12 + ^ r11: .cfa -8 + ^ r4: .cfa -36 + ^ r5: .cfa -32 + ^ r6: .cfa -28 + ^ r7: .cfa -24 + ^ r8: .cfa -20 + ^ r9: .cfa -16 + ^
STACK CFI 19fdc .cfa: r11 4 +
STACK CFI INIT 1ad5c 334 .cfa: sp 0 + .ra: lr
STACK CFI 1ad60 .cfa: sp 24 +
STACK CFI 1ad64 .ra: .cfa -4 + ^ r3: .cfa -24 + ^ r4: .cfa -20 + ^ r5: .cfa -16 + ^ r6: .cfa -12 + ^ r7: .cfa -8 + ^
STACK CFI INIT 1b090 10 .cfa: sp 0 + .ra: lr
STACK CFI INIT 1b0a0 8 .cfa: sp 0 + .ra: lr
STACK CFI INIT 1b0a8 10 .cfa: sp 0 + .ra: lr
STACK CFI INIT 1b0b8 10 .cfa: sp 0 + .ra: lr
STACK CFI INIT 1b0c8 8 .cfa: sp 0 + .ra: lr
STACK CFI INIT 1b0d0 8 .cfa: sp 0 + .ra: lr
STACK CFI INIT 1b0d8 14 .cfa: sp 0 + .ra: lr
STACK CFI INIT 1b0ec 30 .cfa: sp 0 + .ra: lr
STACK CFI 1b0f0 .cfa: sp 8 +
STACK CFI 1b0f4 .ra: .cfa -4 + ^ r3: .cfa -8 + ^
STACK CFI INIT 1b11c 5c .cfa: sp 0 + .ra: lr
STACK CFI 1b124 .cfa: sp 8 +
STACK CFI 1b12c .cfa: sp 16 +
STACK CFI 1b130 .ra: .cfa -4 + ^ r4: .cfa -8 + ^
STACK CFI INIT 1b178 48 .cfa: sp 0 + .ra: lr
STACK CFI 1b180 .cfa: sp 8 +
STACK CFI 1b188 .ra: .cfa -4 + ^ r4: .cfa -8 + ^
STACK CFI INIT 1b1c0 48 .cfa: sp 0 + .ra: lr
STACK CFI 1b1c4 .cfa: sp 8 +
STACK CFI 1b1c8 .ra: .cfa -4 + ^ r3: .cfa -8 + ^
STACK CFI INIT 1b208 2c .cfa: sp 0 + .ra: lr
STACK CFI 1b210 .cfa: sp 8 +
STACK CFI 1b21c .ra: .cfa -4 + ^ r4: .cfa -8 + ^
STACK CFI INIT 1b234 bc .cfa: sp 0 + .ra: lr
STACK CFI 1b238 .cfa: sp 32 +
STACK CFI 1b23c .ra: .cfa -4 + ^ r10: .cfa -8 + ^ r4: .cfa -32 + ^ r5: .cfa -28 + ^ r6: .cfa -24 + ^ r7: .cfa -20 + ^ r8: .cfa -16 + ^ r9: .cfa -12 + ^
STACK CFI 1b24c .cfa: sp 40 +
STACK CFI INIT 1b2f0 fc .cfa: sp 0 + .ra: lr
STACK CFI 1b2f4 .cfa: sp 32 +
STACK CFI 1b2f8 .ra: .cfa -4 + ^ r10: .cfa -8 + ^ r4: .cfa -32 + ^ r5: .cfa -28 + ^ r6: .cfa -24 + ^ r7: .cfa -20 + ^ r8: .cfa -16 + ^ r9: .cfa -12 + ^
STACK CFI 1b308 .cfa: sp 48 +
STACK CFI INIT 1b3ec 98 .cfa: sp 0 + .ra: lr
STACK CFI 1b3f0 .cfa: sp 28 +
STACK CFI 1b3f4 .ra: .cfa -4 + ^ r10: .cfa -8 + ^ r4: .cfa -28 + ^ r5: .cfa -24 + ^ r6: .cfa -20 + ^ r7: .cfa -16 + ^ r8: .cfa -12 + ^
STACK CFI 1b3fc .cfa: sp 40 +
STACK CFI INIT 1b484 8 .cfa: sp 0 + .ra: lr
STACK CFI INIT 1b48c 14 .cfa: sp 0 + .ra: lr
STACK CFI INIT 1b4a0 4 .cfa: sp 0 + .ra: lr
STACK CFI INIT 1b4a4 4 .cfa: sp 0 + .ra: lr
STACK CFI INIT 1b4a8 8 .cfa: sp 0 + .ra: lr
STACK CFI INIT 1b4b0 8 .cfa: sp 0 + .ra: lr
STACK CFI INIT 1b4b8 8 .cfa: sp 0 + .ra: lr
STACK CFI INIT 1b4c0 4 .cfa: sp 0 + .ra: lr
STACK CFI INIT 1b4c4 790 .cfa: sp 0 + .ra: lr
STACK CFI 1b4c8 .cfa: sp 32 +
STACK CFI 1b4cc .ra: .cfa -4 + ^ r10: .cfa -8 + ^ r4: .cfa -32 + ^ r5: .cfa -28 + ^ r6: .cfa -24 + ^ r7: .cfa -20 + ^ r8: .cfa -16 + ^ r9: .cfa -12 + ^
STACK CFI INIT 1bc54 314 .cfa: sp 0 + .ra: lr
STACK CFI 1bc58 .cfa: sp 24 +
STACK CFI 1bc5c .ra: .cfa -4 + ^ r4: .cfa -24 + ^ r5: .cfa -20 + ^ r6: .cfa -16 + ^ r7: .cfa -12 + ^ r8: .cfa -8 + ^
STACK CFI 1bc60 .cfa: sp 32 +
STACK CFI INIT 1bf68 c .cfa: sp 0 + .ra: lr
STACK CFI INIT 1bf74 b4 .cfa: sp 0 + .ra: lr
STACK CFI 1bf78 .cfa: sp 16 +
STACK CFI 1bf7c .ra: .cfa -4 + ^ r4: .cfa -16 + ^ r5: .cfa -12 + ^ r6: .cfa -8 + ^
STACK CFI INIT 1c028 4c .cfa: sp 0 + .ra: lr
STACK CFI 1c030 .cfa: sp 8 +
STACK CFI 1c038 .ra: .cfa -4 + ^ r4: .cfa -8 + ^
STACK CFI 1c03c .cfa: sp 24 +
STACK CFI INIT 1c074 60 .cfa: sp 0 + .ra: lr
STACK CFI INIT 1c0d4 10 .cfa: sp 0 + .ra: lr
STACK CFI INIT 1c0e4 10 .cfa: sp 0 + .ra: lr
STACK CFI INIT 1c0f4 ec .cfa: sp 0 + .ra: lr
STACK CFI 1c0f8 .cfa: sp 24 +
STACK CFI 1c0fc .ra: .cfa -4 + ^ r3: .cfa -24 + ^ r4: .cfa -20 + ^ r5: .cfa -16 + ^ r6: .cfa -12 + ^ r7: .cfa -8 + ^
STACK CFI INIT 1c1e0 88 .cfa: sp 0 + .ra: lr
STACK CFI 1c1e4 .cfa: sp 16 +
STACK CFI 1c1e8 .ra: .cfa -4 + ^ r4: .cfa -16 + ^ r5: .cfa -12 + ^ r6: .cfa -8 + ^
STACK CFI INIT 1c268 58 .cfa: sp 0 + .ra: lr
STACK CFI 1c26c .cfa: sp 16 +
STACK CFI 1c270 .ra: .cfa -4 + ^ r4: .cfa -16 + ^ r5: .cfa -12 + ^ r6: .cfa -8 + ^
STACK CFI INIT 1c2c0 148 .cfa: sp 0 + .ra: lr
STACK CFI 1c2cc .cfa: sp 28 +
STACK CFI 1c2d0 .ra: .cfa -4 + ^ r10: .cfa -8 + ^ r4: .cfa -28 + ^ r5: .cfa -24 + ^ r6: .cfa -20 + ^ r7: .cfa -16 + ^ r8: .cfa -12 + ^
STACK CFI 1c2e8 .cfa: sp 48 +
STACK CFI INIT 1c408 58 .cfa: sp 0 + .ra: lr
STACK CFI 1c40c .cfa: sp 16 +
STACK CFI 1c410 .ra: .cfa -4 + ^ r4: .cfa -16 + ^ r5: .cfa -12 + ^ r6: .cfa -8 + ^
STACK CFI INIT 1c460 8 .cfa: sp 0 + .ra: lr
STACK CFI INIT 1c468 8 .cfa: sp 0 + .ra: lr
STACK CFI INIT 1c470 c .cfa: sp 0 + .ra: lr
STACK CFI INIT 1c47c 30 .cfa: sp 0 + .ra: lr
STACK CFI 1c480 .cfa: sp 16 +
STACK CFI 1c484 .ra: .cfa -4 + ^ r4: .cfa -16 + ^ r5: .cfa -12 + ^ r6: .cfa -8 + ^
STACK CFI INIT 1c4ac 8 .cfa: sp 0 + .ra: lr
STACK CFI INIT 1c4b4 8 .cfa: sp 0 + .ra: lr
STACK CFI INIT 1c4bc 8 .cfa: sp 0 + .ra: lr
STACK CFI INIT 1c4c4 8 .cfa: sp 0 + .ra: lr
STACK CFI INIT 1c4cc d4 .cfa: sp 0 + .ra: lr
STACK CFI INIT 1c5a0 54 .cfa: sp 0 + .ra: lr
STACK CFI INIT 1c5f4 1a0 .cfa: sp 0 + .ra: lr
STACK CFI 1c5f8 .cfa: sp 28 +
STACK CFI 1c5fc .ra: .cfa -4 + ^ r10: .cfa -8 + ^ r4: .cfa -28 + ^ r5: .cfa -24 + ^ r6: .cfa -20 + ^ r7: .cfa -16 + ^ r8: .cfa -12 + ^
STACK CFI 1c600 .cfa: sp 48 +
STACK CFI INIT 1c794 58 .cfa: sp 0 + .ra: lr
STACK CFI INIT 1c7ec 37c .cfa: sp 0 + .ra: lr
STACK CFI 1c7f0 .cfa: sp 32 +
STACK CFI 1c7f4 .cfa: sp 80 +
STACK CFI 1c7fc r10: .cfa -8 + ^ r11: .cfa -4 + ^ r4: .cfa -32 + ^ r5: .cfa -28 + ^ r6: .cfa -24 + ^ r7: .cfa -20 + ^ r8: .cfa -16 + ^ r9: .cfa -12 + ^
STACK CFI INIT 1cb68 240 .cfa: sp 0 + .ra: lr
STACK CFI INIT 1cda8 4 .cfa: sp 0 + .ra: lr
STACK CFI INIT 1cdac 44 .cfa: sp 0 + .ra: lr
STACK CFI INIT 1cdf0 2c .cfa: sp 0 + .ra: lr
STACK CFI INIT 1ce1c 30 .cfa: sp 0 + .ra: lr
STACK CFI 1ce20 .cfa: sp 12 +
STACK CFI 1ce24 .cfa: sp 16 +
STACK CFI 1ce28 .cfa: sp 24 +
STACK CFI 1ce2c .ra: .cfa -16 + ^ r1: .cfa -12 + ^ r2: .cfa -8 + ^ r3: .cfa -4 + ^
STACK CFI INIT 1ce4c 4 .cfa: sp 0 + .ra: lr
STACK CFI INIT 1ce50 154 .cfa: sp 0 + .ra: lr
STACK CFI 1ce54 .cfa: sp 16 +
STACK CFI 1ce58 .ra: .cfa -4 + ^ r4: .cfa -16 + ^ r5: .cfa -12 + ^ r6: .cfa -8 + ^
STACK CFI INIT 1cfa4 4 .cfa: sp 0 + .ra: lr
STACK CFI INIT 1cfa8 4 .cfa: sp 0 + .ra: lr
STACK CFI INIT 1cfac 6c .cfa: sp 0 + .ra: lr
STACK CFI 1cfb0 .cfa: sp 16 +
STACK CFI 1cfb4 .ra: .cfa -4 + ^ r4: .cfa -16 + ^ r5: .cfa -12 + ^ r6: .cfa -8 + ^
STACK CFI INIT 1d018 114 .cfa: sp 0 + .ra: lr
STACK CFI 1d020 .cfa: sp 12 +
STACK CFI 1d028 r4: .cfa -12 + ^ r5: .cfa -8 + ^ r6: .cfa -4 + ^
STACK CFI INIT 1d12c 288 .cfa: sp 0 + .ra: lr
STACK CFI 1d138 .cfa: sp 16 +
STACK CFI 1d13c .ra: .cfa -4 + ^ r4: .cfa -16 + ^ r5: .cfa -12 + ^ r6: .cfa -8 + ^
STACK CFI INIT 1d3b4 398 .cfa: sp 0 + .ra: lr
STACK CFI 1d3b8 .cfa: sp 36 +
STACK CFI 1d3bc .cfa: sp 312 +
STACK CFI 1d3c4 .ra: .cfa -4 + ^ r10: .cfa -12 + ^ r11: .cfa -8 + ^ r4: .cfa -36 + ^ r5: .cfa -32 + ^ r6: .cfa -28 + ^ r7: .cfa -24 + ^ r8: .cfa -20 + ^ r9: .cfa -16 + ^
STACK CFI INIT 1d74c 2bc .cfa: sp 0 + .ra: lr
STACK CFI 1d750 .cfa: sp 36 +
STACK CFI 1d754 .ra: .cfa -4 + ^ r10: .cfa -12 + ^ r11: .cfa -8 + ^ r4: .cfa -36 + ^ r5: .cfa -32 + ^ r6: .cfa -28 + ^ r7: .cfa -24 + ^ r8: .cfa -20 + ^ r9: .cfa -16 + ^
STACK CFI 1d768 .cfa: sp 120 +
STACK CFI INIT 1da08 4 .cfa: sp 0 + .ra: lr
STACK CFI INIT 1da0c 50 .cfa: sp 0 + .ra: lr
STACK CFI 1da10 .cfa: sp 32 +
STACK CFI 1da14 .ra: .cfa -4 + ^ r10: .cfa -8 + ^ r3: .cfa -32 + ^ r4: .cfa -28 + ^ r5: .cfa -24 + ^ r6: .cfa -20 + ^ r7: .cfa -16 + ^ r8: .cfa -12 + ^
STACK CFI INIT 1da5c 1ec .cfa: sp 0 + .ra: lr
STACK CFI 1da60 .cfa: sp 16 +
STACK CFI 1da64 .ra: .cfa -4 + ^ r4: .cfa -16 + ^ r5: .cfa -12 + ^ r6: .cfa -8 + ^
STACK CFI 1da6c .cfa: sp 32 +
STACK CFI INIT 1dc48 17c .cfa: sp 0 + .ra: lr
STACK CFI 1dc4c .cfa: sp 24 +
STACK CFI 1dc50 .ra: .cfa -4 + ^ r4: .cfa -24 + ^ r5: .cfa -20 + ^ r6: .cfa -16 + ^ r7: .cfa -12 + ^ r8: .cfa -8 + ^
STACK CFI 1dc58 .cfa: sp 40 +
STACK CFI INIT 1ddc4 1d4 .cfa: sp 0 + .ra: lr
STACK CFI 1ddc8 .cfa: sp 12 +
STACK CFI 1ddcc .ra: .cfa -4 + ^ r4: .cfa -12 + ^ r5: .cfa -8 + ^
STACK CFI 1ddd4 .cfa: sp 32 +
STACK CFI INIT 1df98 4c .cfa: sp 0 + .ra: lr
STACK CFI 1dfa4 .cfa: sp 16 +
STACK CFI 1dfac .ra: .cfa -4 + ^ r4: .cfa -16 + ^ r5: .cfa -12 + ^ r6: .cfa -8 + ^
STACK CFI INIT 1dfe4 138 .cfa: sp 0 + .ra: lr
STACK CFI 1dfe8 .cfa: sp 28 +
STACK CFI 1dfec .ra: .cfa -4 + ^ r10: .cfa -8 + ^ r4: .cfa -28 + ^ r5: .cfa -24 + ^ r6: .cfa -20 + ^ r7: .cfa -16 + ^ r8: .cfa -12 + ^
STACK CFI 1dff0 .cfa: sp 40 +
STACK CFI INIT 1e11c 8c .cfa: sp 0 + .ra: lr
STACK CFI 1e120 .cfa: sp 12 +
STACK CFI 1e124 .cfa: sp 24 +
STACK CFI 1e128 .ra: .cfa -4 + ^ r4: .cfa -12 + ^ r5: .cfa -8 + ^
STACK CFI INIT 1e1a8 44 .cfa: sp 0 + .ra: lr
STACK CFI 1e1ac .cfa: sp 16 +
STACK CFI 1e1b0 .ra: .cfa -4 + ^ r4: .cfa -16 + ^ r5: .cfa -12 + ^ r6: .cfa -8 + ^
STACK CFI INIT 1e1ec 3c .cfa: sp 0 + .ra: lr
STACK CFI 1e1f0 .cfa: sp 8 +
STACK CFI 1e1f8 .ra: .cfa -4 + ^ r4: .cfa -8 + ^
STACK CFI INIT 1e228 3c .cfa: sp 0 + .ra: lr
STACK CFI 1e22c .cfa: sp 8 +
STACK CFI 1e234 .ra: .cfa -4 + ^ r4: .cfa -8 + ^
STACK CFI INIT 1e264 30 .cfa: sp 0 + .ra: lr
STACK CFI 1e268 .cfa: sp 8 +
STACK CFI 1e270 .ra: .cfa -4 + ^ r4: .cfa -8 + ^
STACK CFI INIT 1e294 30 .cfa: sp 0 + .ra: lr
STACK CFI 1e298 .cfa: sp 8 +
STACK CFI 1e2a0 .ra: .cfa -4 + ^ r4: .cfa -8 + ^
STACK CFI INIT 1e2c4 54 .cfa: sp 0 + .ra: lr
STACK CFI 1e2c8 .cfa: sp 8 +
STACK CFI 1e2cc .ra: .cfa -4 + ^ r4: .cfa -8 + ^
STACK CFI INIT 1e318 64 .cfa: sp 0 + .ra: lr
STACK CFI 1e31c .cfa: sp 12 +
STACK CFI 1e320 .cfa: sp 24 +
STACK CFI 1e328 .ra: .cfa -4 + ^ r4: .cfa -12 + ^ r5: .cfa -8 + ^
STACK CFI INIT 1e37c 28 .cfa: sp 0 + .ra: lr
STACK CFI 1e384 .cfa: sp 8 +
STACK CFI 1e388 .ra: .cfa -4 + ^ r4: .cfa -8 + ^
STACK CFI INIT 1e3a4 50 .cfa: sp 0 + .ra: lr
STACK CFI 1e3ac .cfa: sp 8 +
STACK CFI 1e3b0 .cfa: sp 96 +
STACK CFI 1e3b4 .ra: .cfa -4 + ^ r4: .cfa -8 + ^
STACK CFI INIT 1e3f4 3c .cfa: sp 0 + .ra: lr
STACK CFI 1e3f8 .cfa: sp 16 +
STACK CFI 1e3fc .ra: .cfa -4 + ^ r4: .cfa -16 + ^ r5: .cfa -12 + ^ r6: .cfa -8 + ^
STACK CFI INIT 1e430 a8 .cfa: sp 0 + .ra: lr
STACK CFI 1e438 .cfa: sp 12 +
STACK CFI 1e440 .cfa: sp 24 +
STACK CFI 1e444 .ra: .cfa -4 + ^ r4: .cfa -12 + ^ r5: .cfa -8 + ^
STACK CFI INIT 1e4d8 84 .cfa: sp 0 + .ra: lr
STACK CFI 1e4e0 .cfa: sp 8 +
STACK CFI 1e4e4 .ra: .cfa -4 + ^ r4: .cfa -8 + ^
STACK CFI INIT 1e55c 2c .cfa: sp 0 + .ra: lr
STACK CFI 1e560 .cfa: sp 8 +
STACK CFI 1e564 .ra: .cfa -4 + ^ r4: .cfa -8 + ^
STACK CFI INIT 1e588 38 .cfa: sp 0 + .ra: lr
STACK CFI 1e58c .cfa: sp 8 +
STACK CFI 1e590 .ra: .cfa -4 + ^ r4: .cfa -8 + ^
STACK CFI INIT 1e5c0 28 .cfa: sp 0 + .ra: lr
STACK CFI 1e5c4 .cfa: sp 8 + .ra: .cfa -4 + ^ r4: .cfa -8 + ^
STACK CFI INIT 1e5e8 44 .cfa: sp 0 + .ra: lr
STACK CFI 1e5f8 .cfa: sp 8 +
STACK CFI 1e608 .ra: .cfa -4 + ^ r4: .cfa -8 + ^
STACK CFI INIT 1e62c 74 .cfa: sp 0 + .ra: lr
STACK CFI 1e630 .cfa: sp 16 +
STACK CFI 1e634 .ra: .cfa -4 + ^ r4: .cfa -16 + ^ r5: .cfa -12 + ^ r6: .cfa -8 + ^
STACK CFI INIT 1e6a0 38 .cfa: sp 0 + .ra: lr
STACK CFI 1e6b0 .cfa: sp 8 +
STACK CFI 1e6b4 .ra: .cfa -4 + ^ r3: .cfa -8 + ^
STACK CFI INIT 1e6d8 34 .cfa: sp 0 + .ra: lr
STACK CFI 1e6dc .cfa: sp 8 +
STACK CFI 1e6e0 .ra: .cfa -4 + ^ r3: .cfa -8 + ^
STACK CFI INIT 1e70c 430 .cfa: sp 0 + .ra: lr
STACK CFI 1e710 .cfa: sp 36 +
STACK CFI 1e714 .cfa: r11 4 + .ra: .cfa -4 + ^ r10: .cfa -12 + ^ r11: .cfa -8 + ^ r4: .cfa -36 + ^ r5: .cfa -32 + ^ r6: .cfa -28 + ^ r7: .cfa -24 + ^ r8: .cfa -20 + ^ r9: .cfa -16 + ^
STACK CFI INIT 1eb3c 248 .cfa: sp 0 + .ra: lr
STACK CFI 1eb40 .cfa: sp 28 +
STACK CFI 1eb44 .ra: .cfa -4 + ^ r10: .cfa -8 + ^ r4: .cfa -28 + ^ r5: .cfa -24 + ^ r6: .cfa -20 + ^ r7: .cfa -16 + ^ r8: .cfa -12 + ^
STACK CFI 1eb50 .cfa: sp 40 +
STACK CFI INIT 1ed84 14 .cfa: sp 0 + .ra: lr
STACK CFI 1ed88 .cfa: sp 8 +
STACK CFI 1ed8c .ra: .cfa -4 + ^ r3: .cfa -8 + ^
STACK CFI INIT 1ed98 4 .cfa: sp 0 + .ra: lr
STACK CFI INIT 1ed9c 4 .cfa: sp 0 + .ra: lr
STACK CFI INIT 1eda0 4 .cfa: sp 0 + .ra: lr
STACK CFI INIT 1eda4 4 .cfa: sp 0 + .ra: lr
STACK CFI INIT 1eda8 4 .cfa: sp 0 + .ra: lr
STACK CFI INIT 1edac 24 .cfa: sp 0 + .ra: lr
STACK CFI 1edb0 .cfa: sp 8 +
STACK CFI 1edb4 .ra: .cfa -4 + ^ r4: .cfa -8 + ^
STACK CFI INIT 1edd0 9c .cfa: sp 0 + .ra: lr
STACK CFI 1edd4 .cfa: sp 16 +
STACK CFI 1edd8 .cfa: sp 24 +
STACK CFI 1eddc .ra: .cfa -4 + ^ r4: .cfa -16 + ^ r5: .cfa -12 + ^ r6: .cfa -8 + ^
STACK CFI INIT 1ee6c 20 .cfa: sp 0 + .ra: lr
STACK CFI 1ee70 .cfa: sp 8 + .ra: .cfa -4 + ^ r4: .cfa -8 + ^
STACK CFI INIT 1ee8c 20 .cfa: sp 0 + .ra: lr
STACK CFI 1ee90 .cfa: sp 8 + .ra: .cfa -4 + ^ r4: .cfa -8 + ^
STACK CFI INIT 1eeac 20 .cfa: sp 0 + .ra: lr
STACK CFI 1eeb0 .cfa: sp 8 + .ra: .cfa -4 + ^ r4: .cfa -8 + ^
STACK CFI INIT 1eecc 20 .cfa: sp 0 + .ra: lr
STACK CFI 1eed0 .cfa: sp 8 + .ra: .cfa -4 + ^ r4: .cfa -8 + ^
STACK CFI INIT 1eeec 28 .cfa: sp 0 + .ra: lr
STACK CFI 1eef0 .cfa: sp 8 + .ra: .cfa -4 + ^ r4: .cfa -8 + ^
STACK CFI INIT 1ef14 8 .cfa: sp 0 + .ra: lr
STACK CFI INIT 1ef1c 20 .cfa: sp 0 + .ra: lr
STACK CFI 1ef20 .cfa: sp 8 +
STACK CFI 1ef24 .ra: .cfa -4 + ^ r4: .cfa -8 + ^
STACK CFI INIT 1ef3c 4 .cfa: sp 0 + .ra: lr
STACK CFI INIT 1ef40 1c .cfa: sp 0 + .ra: lr
STACK CFI 1ef44 .cfa: sp 8 +
STACK CFI 1ef48 .ra: .cfa -4 + ^ r4: .cfa -8 + ^
STACK CFI INIT 1ef5c 2c .cfa: sp 0 + .ra: lr
STACK CFI 1ef60 .cfa: sp 8 +
STACK CFI 1ef64 .ra: .cfa -4 + ^ r4: .cfa -8 + ^
STACK CFI INIT 1ef88 158 .cfa: sp 0 + .ra: lr
STACK CFI 1ef8c .cfa: sp 24 +
STACK CFI 1ef90 .ra: .cfa -4 + ^ r4: .cfa -24 + ^ r5: .cfa -20 + ^ r6: .cfa -16 + ^ r7: .cfa -12 + ^ r8: .cfa -8 + ^
STACK CFI 1efa0 .cfa: sp 48 +
STACK CFI INIT 1f0e0 20 .cfa: sp 0 + .ra: lr
STACK CFI 1f0e4 .cfa: sp 8 + .ra: .cfa -4 + ^ r4: .cfa -8 + ^
STACK CFI INIT 1f100 38 .cfa: sp 0 + .ra: lr
STACK CFI 1f10c .cfa: sp 8 +
STACK CFI 1f114 .ra: .cfa -4 + ^ r4: .cfa -8 + ^
STACK CFI INIT 1f138 4 .cfa: sp 0 + .ra: lr
STACK CFI INIT 1f13c 20 .cfa: sp 0 + .ra: lr
STACK CFI 1f140 .cfa: sp 8 + .ra: .cfa -4 + ^ r4: .cfa -8 + ^
STACK CFI INIT 1f15c 10 .cfa: sp 0 + .ra: lr
STACK CFI 1f160 .cfa: sp 8 + .ra: .cfa -4 + ^ r4: .cfa -8 + ^
STACK CFI INIT 1f16c 4 .cfa: sp 0 + .ra: lr
STACK CFI INIT 1f170 4 .cfa: sp 0 + .ra: lr
STACK CFI INIT 1f174 4 .cfa: sp 0 + .ra: lr
STACK CFI INIT 1f178 64 .cfa: sp 0 + .ra: lr
STACK CFI 1f17c .cfa: sp 8 +
STACK CFI 1f184 .cfa: sp 24 +
STACK CFI 1f188 .ra: .cfa -4 + ^ r4: .cfa -8 + ^
STACK CFI INIT 1f1dc 14 .cfa: sp 0 + .ra: lr
STACK CFI INIT 1f1f0 54 .cfa: sp 0 + .ra: lr
STACK CFI 1f1f4 .cfa: sp 8 +
STACK CFI 1f1f8 .ra: .cfa -4 + ^ r4: .cfa -8 + ^
STACK CFI INIT 1f244 188 .cfa: sp 0 + .ra: lr
STACK CFI 1f248 .cfa: sp 8 +
STACK CFI 1f24c .ra: .cfa -4 + ^ r4: .cfa -8 + ^
STACK CFI 1f250 .cfa: sp 304 +
STACK CFI INIT 1f3cc 2d8 .cfa: sp 0 + .ra: lr
STACK CFI 1f3d8 .cfa: sp 20 +
STACK CFI 1f3dc .ra: .cfa -4 + ^ r4: .cfa -20 + ^ r5: .cfa -16 + ^ r6: .cfa -12 + ^ r7: .cfa -8 + ^
STACK CFI 1f3e4 .cfa: sp 72 +
STACK CFI INIT 1f6a4 dc .cfa: sp 0 + .ra: lr
STACK CFI 1f6ac .cfa: sp 16 +
STACK CFI 1f6b0 .ra: .cfa -4 + ^ r4: .cfa -16 + ^ r5: .cfa -12 + ^ r6: .cfa -8 + ^
STACK CFI INIT 1f780 cc .cfa: sp 0 + .ra: lr
STACK CFI 1f790 .cfa: sp 16 +
STACK CFI 1f798 .ra: .cfa -4 + ^ r3: .cfa -16 + ^ r4: .cfa -12 + ^ r5: .cfa -8 + ^
STACK CFI INIT 1f84c 60 .cfa: sp 0 + .ra: lr
STACK CFI 1f850 .cfa: sp 12 +
STACK CFI 1f854 .cfa: sp 24 + .ra: .cfa -4 + ^ r4: .cfa -12 + ^ r5: .cfa -8 + ^
STACK CFI INIT 1f8ac 80 .cfa: sp 0 + .ra: lr
STACK CFI 1f8b0 .cfa: sp 16 +
STACK CFI 1f8b4 .ra: .cfa -4 + ^ r4: .cfa -16 + ^ r5: .cfa -12 + ^ r6: .cfa -8 + ^
STACK CFI INIT 1f92c 10 .cfa: sp 0 + .ra: lr
STACK CFI INIT 1f93c 10 .cfa: sp 0 + .ra: lr
STACK CFI INIT 1f94c 10 .cfa: sp 0 + .ra: lr
STACK CFI INIT 1f95c 4c .cfa: sp 0 + .ra: lr
STACK CFI 1f964 .cfa: sp 16 +
STACK CFI 1f96c .ra: .cfa -4 + ^ r4: .cfa -16 + ^ r5: .cfa -12 + ^ r6: .cfa -8 + ^
STACK CFI INIT 1f9a8 8 .cfa: sp 0 + .ra: lr
STACK CFI INIT 1f9b0 4 .cfa: sp 0 + .ra: lr
STACK CFI INIT 1f9b4 4 .cfa: sp 0 + .ra: lr
STACK CFI INIT 1f9b8 4 .cfa: sp 0 + .ra: lr
STACK CFI INIT 1f9bc 4 .cfa: sp 0 + .ra: lr
STACK CFI INIT 1f9c0 4 .cfa: sp 0 + .ra: lr
STACK CFI INIT 1f9c4 28 .cfa: sp 0 + .ra: lr
STACK CFI INIT 1f9ec 38 .cfa: sp 0 + .ra: lr
STACK CFI 1f9f0 .cfa: sp 24 +
STACK CFI 1f9f4 .ra: .cfa -4 + ^ r3: .cfa -24 + ^ r4: .cfa -20 + ^ r5: .cfa -16 + ^ r6: .cfa -12 + ^ r7: .cfa -8 + ^
STACK CFI INIT 1fa24 38 .cfa: sp 0 + .ra: lr
STACK CFI 1fa28 .cfa: sp 24 +
STACK CFI 1fa2c .ra: .cfa -4 + ^ r3: .cfa -24 + ^ r4: .cfa -20 + ^ r5: .cfa -16 + ^ r6: .cfa -12 + ^ r7: .cfa -8 + ^
STACK CFI INIT 1fa5c 38 .cfa: sp 0 + .ra: lr
STACK CFI 1fa60 .cfa: sp 24 +
STACK CFI 1fa64 .ra: .cfa -4 + ^ r3: .cfa -24 + ^ r4: .cfa -20 + ^ r5: .cfa -16 + ^ r6: .cfa -12 + ^ r7: .cfa -8 + ^
STACK CFI INIT 1fa94 38 .cfa: sp 0 + .ra: lr
STACK CFI 1fa98 .cfa: sp 24 +
STACK CFI 1fa9c .ra: .cfa -4 + ^ r3: .cfa -24 + ^ r4: .cfa -20 + ^ r5: .cfa -16 + ^ r6: .cfa -12 + ^ r7: .cfa -8 + ^
STACK CFI INIT 1facc 38 .cfa: sp 0 + .ra: lr
STACK CFI 1fad0 .cfa: sp 24 +
STACK CFI 1fad4 .ra: .cfa -4 + ^ r3: .cfa -24 + ^ r4: .cfa -20 + ^ r5: .cfa -16 + ^ r6: .cfa -12 + ^ r7: .cfa -8 + ^
STACK CFI INIT 1fb04 3c .cfa: sp 0 + .ra: lr
STACK CFI 1fb08 .cfa: sp 24 +
STACK CFI 1fb0c .ra: .cfa -4 + ^ r3: .cfa -24 + ^ r4: .cfa -20 + ^ r5: .cfa -16 + ^ r6: .cfa -12 + ^ r7: .cfa -8 + ^
STACK CFI INIT 1fb40 64 .cfa: sp 0 + .ra: lr
STACK CFI 1fb44 .cfa: sp 32 +
STACK CFI 1fb48 .ra: .cfa -4 + ^ r10: .cfa -8 + ^ r4: .cfa -32 + ^ r5: .cfa -28 + ^ r6: .cfa -24 + ^ r7: .cfa -20 + ^ r8: .cfa -16 + ^ r9: .cfa -12 + ^
STACK CFI INIT 1fba4 64 .cfa: sp 0 + .ra: lr
STACK CFI 1fba8 .cfa: sp 32 +
STACK CFI 1fbac .ra: .cfa -4 + ^ r10: .cfa -8 + ^ r4: .cfa -32 + ^ r5: .cfa -28 + ^ r6: .cfa -24 + ^ r7: .cfa -20 + ^ r8: .cfa -16 + ^ r9: .cfa -12 + ^
STACK CFI INIT 1fc08 64 .cfa: sp 0 + .ra: lr
STACK CFI 1fc0c .cfa: sp 32 +
STACK CFI 1fc10 .ra: .cfa -4 + ^ r10: .cfa -8 + ^ r4: .cfa -32 + ^ r5: .cfa -28 + ^ r6: .cfa -24 + ^ r7: .cfa -20 + ^ r8: .cfa -16 + ^ r9: .cfa -12 + ^
STACK CFI INIT 1fc6c 64 .cfa: sp 0 + .ra: lr
STACK CFI 1fc70 .cfa: sp 32 +
STACK CFI 1fc74 .ra: .cfa -4 + ^ r10: .cfa -8 + ^ r4: .cfa -32 + ^ r5: .cfa -28 + ^ r6: .cfa -24 + ^ r7: .cfa -20 + ^ r8: .cfa -16 + ^ r9: .cfa -12 + ^
STACK CFI INIT 1fcd0 64 .cfa: sp 0 + .ra: lr
STACK CFI 1fcd4 .cfa: sp 32 +
STACK CFI 1fcd8 .ra: .cfa -4 + ^ r10: .cfa -8 + ^ r4: .cfa -32 + ^ r5: .cfa -28 + ^ r6: .cfa -24 + ^ r7: .cfa -20 + ^ r8: .cfa -16 + ^ r9: .cfa -12 + ^
STACK CFI INIT 1fd34 68 .cfa: sp 0 + .ra: lr
STACK CFI 1fd38 .cfa: sp 32 +
STACK CFI 1fd3c .ra: .cfa -4 + ^ r10: .cfa -8 + ^ r4: .cfa -32 + ^ r5: .cfa -28 + ^ r6: .cfa -24 + ^ r7: .cfa -20 + ^ r8: .cfa -16 + ^ r9: .cfa -12 + ^
STACK CFI INIT 1fd9c 5c .cfa: sp 0 + .ra: lr
STACK CFI 1fda0 .cfa: sp 32 +
STACK CFI 1fda4 .ra: .cfa -4 + ^ r10: .cfa -8 + ^ r4: .cfa -32 + ^ r5: .cfa -28 + ^ r6: .cfa -24 + ^ r7: .cfa -20 + ^ r8: .cfa -16 + ^ r9: .cfa -12 + ^
STACK CFI INIT 1fdf8 5c .cfa: sp 0 + .ra: lr
STACK CFI 1fdfc .cfa: sp 32 +
STACK CFI 1fe00 .ra: .cfa -4 + ^ r10: .cfa -8 + ^ r4: .cfa -32 + ^ r5: .cfa -28 + ^ r6: .cfa -24 + ^ r7: .cfa -20 + ^ r8: .cfa -16 + ^ r9: .cfa -12 + ^
STACK CFI INIT 1fe54 5c .cfa: sp 0 + .ra: lr
STACK CFI 1fe58 .cfa: sp 32 +
STACK CFI 1fe5c .ra: .cfa -4 + ^ r10: .cfa -8 + ^ r4: .cfa -32 + ^ r5: .cfa -28 + ^ r6: .cfa -24 + ^ r7: .cfa -20 + ^ r8: .cfa -16 + ^ r9: .cfa -12 + ^
STACK CFI INIT 1feb0 5c .cfa: sp 0 + .ra: lr
STACK CFI 1feb4 .cfa: sp 32 +
STACK CFI 1feb8 .ra: .cfa -4 + ^ r10: .cfa -8 + ^ r4: .cfa -32 + ^ r5: .cfa -28 + ^ r6: .cfa -24 + ^ r7: .cfa -20 + ^ r8: .cfa -16 + ^ r9: .cfa -12 + ^
STACK CFI INIT 1ff0c 5c .cfa: sp 0 + .ra: lr
STACK CFI 1ff10 .cfa: sp 32 +
STACK CFI 1ff14 .ra: .cfa -4 + ^ r10: .cfa -8 + ^ r4: .cfa -32 + ^ r5: .cfa -28 + ^ r6: .cfa -24 + ^ r7: .cfa -20 + ^ r8: .cfa -16 + ^ r9: .cfa -12 + ^
STACK CFI INIT 1ff68 60 .cfa: sp 0 + .ra: lr
STACK CFI 1ff6c .cfa: sp 32 +
STACK CFI 1ff70 .ra: .cfa -4 + ^ r10: .cfa -8 + ^ r4: .cfa -32 + ^ r5: .cfa -28 + ^ r6: .cfa -24 + ^ r7: .cfa -20 + ^ r8: .cfa -16 + ^ r9: .cfa -12 + ^
STACK CFI INIT 1ffc8 38 .cfa: sp 0 + .ra: lr
STACK CFI 1ffcc .cfa: sp 24 +
STACK CFI 1ffd0 .ra: .cfa -4 + ^ r3: .cfa -24 + ^ r4: .cfa -20 + ^ r5: .cfa -16 + ^ r6: .cfa -12 + ^ r7: .cfa -8 + ^
STACK CFI INIT 20000 38 .cfa: sp 0 + .ra: lr
STACK CFI 20004 .cfa: sp 24 +
STACK CFI 20008 .ra: .cfa -4 + ^ r3: .cfa -24 + ^ r4: .cfa -20 + ^ r5: .cfa -16 + ^ r6: .cfa -12 + ^ r7: .cfa -8 + ^
STACK CFI INIT 20038 38 .cfa: sp 0 + .ra: lr
STACK CFI 2003c .cfa: sp 24 +
STACK CFI 20040 .ra: .cfa -4 + ^ r3: .cfa -24 + ^ r4: .cfa -20 + ^ r5: .cfa -16 + ^ r6: .cfa -12 + ^ r7: .cfa -8 + ^
STACK CFI INIT 20070 38 .cfa: sp 0 + .ra: lr
STACK CFI 20074 .cfa: sp 24 +
STACK CFI 20078 .ra: .cfa -4 + ^ r3: .cfa -24 + ^ r4: .cfa -20 + ^ r5: .cfa -16 + ^ r6: .cfa -12 + ^ r7: .cfa -8 + ^
STACK CFI INIT 200a8 38 .cfa: sp 0 + .ra: lr
STACK CFI 200ac .cfa: sp 24 +
STACK CFI 200b0 .ra: .cfa -4 + ^ r3: .cfa -24 + ^ r4: .cfa -20 + ^ r5: .cfa -16 + ^ r6: .cfa -12 + ^ r7: .cfa -8 + ^
STACK CFI INIT 200e0 3c .cfa: sp 0 + .ra: lr
STACK CFI 200e4 .cfa: sp 24 +
STACK CFI 200e8 .ra: .cfa -4 + ^ r3: .cfa -24 + ^ r4: .cfa -20 + ^ r5: .cfa -16 + ^ r6: .cfa -12 + ^ r7: .cfa -8 + ^
STACK CFI INIT 2011c 6c .cfa: sp 0 + .ra: lr
STACK CFI 20120 .cfa: sp 32 +
STACK CFI 20124 .ra: .cfa -4 + ^ r10: .cfa -8 + ^ r4: .cfa -32 + ^ r5: .cfa -28 + ^ r6: .cfa -24 + ^ r7: .cfa -20 + ^ r8: .cfa -16 + ^ r9: .cfa -12 + ^
STACK CFI INIT 20188 6c .cfa: sp 0 + .ra: lr
STACK CFI 2018c .cfa: sp 32 +
STACK CFI 20190 .ra: .cfa -4 + ^ r10: .cfa -8 + ^ r4: .cfa -32 + ^ r5: .cfa -28 + ^ r6: .cfa -24 + ^ r7: .cfa -20 + ^ r8: .cfa -16 + ^ r9: .cfa -12 + ^
STACK CFI INIT 201f4 6c .cfa: sp 0 + .ra: lr
STACK CFI 201f8 .cfa: sp 32 +
STACK CFI 201fc .ra: .cfa -4 + ^ r10: .cfa -8 + ^ r4: .cfa -32 + ^ r5: .cfa -28 + ^ r6: .cfa -24 + ^ r7: .cfa -20 + ^ r8: .cfa -16 + ^ r9: .cfa -12 + ^
STACK CFI INIT 20260 6c .cfa: sp 0 + .ra: lr
STACK CFI 20264 .cfa: sp 32 +
STACK CFI 20268 .ra: .cfa -4 + ^ r10: .cfa -8 + ^ r4: .cfa -32 + ^ r5: .cfa -28 + ^ r6: .cfa -24 + ^ r7: .cfa -20 + ^ r8: .cfa -16 + ^ r9: .cfa -12 + ^
STACK CFI INIT 202cc 6c .cfa: sp 0 + .ra: lr
STACK CFI 202d0 .cfa: sp 32 +
STACK CFI 202d4 .ra: .cfa -4 + ^ r10: .cfa -8 + ^ r4: .cfa -32 + ^ r5: .cfa -28 + ^ r6: .cfa -24 + ^ r7: .cfa -20 + ^ r8: .cfa -16 + ^ r9: .cfa -12 + ^
STACK CFI INIT 20338 70 .cfa: sp 0 + .ra: lr
STACK CFI 2033c .cfa: sp 32 +
STACK CFI 20340 .ra: .cfa -4 + ^ r10: .cfa -8 + ^ r4: .cfa -32 + ^ r5: .cfa -28 + ^ r6: .cfa -24 + ^ r7: .cfa -20 + ^ r8: .cfa -16 + ^ r9: .cfa -12 + ^
STACK CFI INIT 203a8 64 .cfa: sp 0 + .ra: lr
STACK CFI 203ac .cfa: sp 32 +
STACK CFI 203b0 .ra: .cfa -4 + ^ r10: .cfa -8 + ^ r4: .cfa -32 + ^ r5: .cfa -28 + ^ r6: .cfa -24 + ^ r7: .cfa -20 + ^ r8: .cfa -16 + ^ r9: .cfa -12 + ^
STACK CFI INIT 2040c 64 .cfa: sp 0 + .ra: lr
STACK CFI 20410 .cfa: sp 32 +
STACK CFI 20414 .ra: .cfa -4 + ^ r10: .cfa -8 + ^ r4: .cfa -32 + ^ r5: .cfa -28 + ^ r6: .cfa -24 + ^ r7: .cfa -20 + ^ r8: .cfa -16 + ^ r9: .cfa -12 + ^
STACK CFI INIT 20470 64 .cfa: sp 0 + .ra: lr
STACK CFI 20474 .cfa: sp 32 +
STACK CFI 20478 .ra: .cfa -4 + ^ r10: .cfa -8 + ^ r4: .cfa -32 + ^ r5: .cfa -28 + ^ r6: .cfa -24 + ^ r7: .cfa -20 + ^ r8: .cfa -16 + ^ r9: .cfa -12 + ^
STACK CFI INIT 204d4 64 .cfa: sp 0 + .ra: lr
STACK CFI 204d8 .cfa: sp 32 +
STACK CFI 204dc .ra: .cfa -4 + ^ r10: .cfa -8 + ^ r4: .cfa -32 + ^ r5: .cfa -28 + ^ r6: .cfa -24 + ^ r7: .cfa -20 + ^ r8: .cfa -16 + ^ r9: .cfa -12 + ^
STACK CFI INIT 20538 64 .cfa: sp 0 + .ra: lr
STACK CFI 2053c .cfa: sp 32 +
STACK CFI 20540 .ra: .cfa -4 + ^ r10: .cfa -8 + ^ r4: .cfa -32 + ^ r5: .cfa -28 + ^ r6: .cfa -24 + ^ r7: .cfa -20 + ^ r8: .cfa -16 + ^ r9: .cfa -12 + ^
STACK CFI INIT 2059c 68 .cfa: sp 0 + .ra: lr
STACK CFI 205a0 .cfa: sp 32 +
STACK CFI 205a4 .ra: .cfa -4 + ^ r10: .cfa -8 + ^ r4: .cfa -32 + ^ r5: .cfa -28 + ^ r6: .cfa -24 + ^ r7: .cfa -20 + ^ r8: .cfa -16 + ^ r9: .cfa -12 + ^
STACK CFI INIT 20604 44 .cfa: sp 0 + .ra: lr
STACK CFI 20608 .cfa: sp 24 +
STACK CFI 2060c .ra: .cfa -4 + ^ r4: .cfa -24 + ^ r5: .cfa -20 + ^ r6: .cfa -16 + ^ r7: .cfa -12 + ^ r8: .cfa -8 + ^
STACK CFI INIT 20648 78 .cfa: sp 0 + .ra: lr
STACK CFI 2064c .cfa: sp 32 +
STACK CFI 20650 .ra: .cfa -4 + ^ r10: .cfa -8 + ^ r4: .cfa -32 + ^ r5: .cfa -28 + ^ r6: .cfa -24 + ^ r7: .cfa -20 + ^ r8: .cfa -16 + ^ r9: .cfa -12 + ^
STACK CFI INIT 206c0 70 .cfa: sp 0 + .ra: lr
STACK CFI 206c4 .cfa: sp 32 +
STACK CFI 206c8 .ra: .cfa -4 + ^ r10: .cfa -8 + ^ r4: .cfa -32 + ^ r5: .cfa -28 + ^ r6: .cfa -24 + ^ r7: .cfa -20 + ^ r8: .cfa -16 + ^ r9: .cfa -12 + ^
STACK CFI INIT 20730 2c .cfa: sp 0 + .ra: lr
STACK CFI 20738 .cfa: sp 8 +
STACK CFI 20740 .ra: .cfa -4 + ^ r3: .cfa -8 + ^
STACK CFI INIT 2075c 1c .cfa: sp 0 + .ra: lr
STACK CFI 20760 .cfa: sp 8 +
STACK CFI 20764 .ra: .cfa -4 + ^ r4: .cfa -8 + ^
STACK CFI INIT 20778 1c .cfa: sp 0 + .ra: lr
STACK CFI 2077c .cfa: sp 8 +
STACK CFI 20780 .ra: .cfa -4 + ^ r4: .cfa -8 + ^
STACK CFI INIT 20794 14 .cfa: sp 0 + .ra: lr
STACK CFI 20798 .cfa: sp 8 +
STACK CFI 2079c .ra: .cfa -4 + ^ r3: .cfa -8 + ^
STACK CFI INIT 207a8 38 .cfa: sp 0 + .ra: lr
STACK CFI 207ac .cfa: sp 24 +
STACK CFI 207b0 .ra: .cfa -4 + ^ r3: .cfa -24 + ^ r4: .cfa -20 + ^ r5: .cfa -16 + ^ r6: .cfa -12 + ^ r7: .cfa -8 + ^
STACK CFI INIT 207e0 60 .cfa: sp 0 + .ra: lr
STACK CFI 207e4 .cfa: sp 32 +
STACK CFI 207e8 .ra: .cfa -4 + ^ r10: .cfa -8 + ^ r4: .cfa -32 + ^ r5: .cfa -28 + ^ r6: .cfa -24 + ^ r7: .cfa -20 + ^ r8: .cfa -16 + ^ r9: .cfa -12 + ^
STACK CFI INIT 20840 58 .cfa: sp 0 + .ra: lr
STACK CFI 20844 .cfa: sp 32 +
STACK CFI 20848 .ra: .cfa -4 + ^ r10: .cfa -8 + ^ r4: .cfa -32 + ^ r5: .cfa -28 + ^ r6: .cfa -24 + ^ r7: .cfa -20 + ^ r8: .cfa -16 + ^ r9: .cfa -12 + ^
STACK CFI INIT 20898 20 .cfa: sp 0 + .ra: lr
STACK CFI 2089c .cfa: sp 8 +
STACK CFI 208a0 .ra: .cfa -4 + ^ r4: .cfa -8 + ^
STACK CFI INIT 208b8 20 .cfa: sp 0 + .ra: lr
STACK CFI 208bc .cfa: sp 8 +
STACK CFI 208c0 .ra: .cfa -4 + ^ r4: .cfa -8 + ^
STACK CFI INIT 208d8 20 .cfa: sp 0 + .ra: lr
STACK CFI 208dc .cfa: sp 8 +
STACK CFI 208e0 .ra: .cfa -4 + ^ r4: .cfa -8 + ^
