MODULE Linux arm 32BC598F5681A9681C5AE8DAC9038AC70 libidirectfbfont_dgiff.so
FUNC cd4 10 0 GetType
FUNC ce4 10 0 GetImplementation
FUNC cf4 68 0 Allocate
FUNC d5c 38 0 Deallocate
FUNC d94 7f8 0 Construct
FUNC 158c 74 0 IDirectFBFont_DGIFF_Release
FUNC 1600 128 0 Probe
FUNC 1728 10 0 IDirectFBFont_DGIFF_ctor
FUNC 1738 10 0 IDirectFBFont_DGIFF_dtor
STACK CFI INIT cd4 10 .cfa: sp 0 + .ra: lr
STACK CFI INIT ce4 10 .cfa: sp 0 + .ra: lr
STACK CFI INIT cf4 68 .cfa: sp 0 + .ra: lr
STACK CFI cf8 .cfa: sp 8 +
STACK CFI d00 .ra: .cfa -4 + ^ r4: .cfa -8 + ^
STACK CFI INIT d5c 38 .cfa: sp 0 + .ra: lr
STACK CFI d60 .cfa: sp 16 +
STACK CFI d64 .ra: .cfa -4 + ^ r3: .cfa -16 + ^ r4: .cfa -12 + ^ r5: .cfa -8 + ^
STACK CFI INIT d94 7f8 .cfa: sp 0 + .ra: lr
STACK CFI d98 .cfa: sp 36 +
STACK CFI d9c .ra: .cfa -4 + ^ r10: .cfa -12 + ^ r11: .cfa -8 + ^ r4: .cfa -36 + ^ r5: .cfa -32 + ^ r6: .cfa -28 + ^ r7: .cfa -24 + ^ r8: .cfa -20 + ^ r9: .cfa -16 + ^
STACK CFI da4 .cfa: sp 352 +
STACK CFI INIT 158c 74 .cfa: sp 0 + .ra: lr
STACK CFI 1590 .cfa: sp 16 +
STACK CFI 1594 .ra: .cfa -4 + ^ r4: .cfa -16 + ^ r5: .cfa -12 + ^ r6: .cfa -8 + ^
STACK CFI INIT 1600 128 .cfa: sp 0 + .ra: lr
STACK CFI 1604 .cfa: sp 24 +
STACK CFI 1608 .ra: .cfa -4 + ^ r4: .cfa -24 + ^ r5: .cfa -20 + ^ r6: .cfa -16 + ^ r7: .cfa -12 + ^ r8: .cfa -8 + ^
STACK CFI 1618 .cfa: sp 40 +
STACK CFI INIT 1728 10 .cfa: sp 0 + .ra: lr
STACK CFI INIT 1738 10 .cfa: sp 0 + .ra: lr
