MODULE Linux arm B211837C55A1EE7ACF50BE1B544BDC020 libidirectfbvideoprovider_v4l.so
FUNC 10bc 10 0 GetType
FUNC 10cc 10 0 GetImplementation
FUNC 10dc 40 0 IDirectFBVideoProvider_V4L_AddRef
FUNC 111c 98 0 IDirectFBVideoProvider_V4L_GetStreamDescription
FUNC 11b4 5c 0 IDirectFBVideoProvider_V4L_GetStatus
FUNC 1210 38 0 IDirectFBVideoProvider_V4L_SeekTo
FUNC 1248 38 0 IDirectFBVideoProvider_V4L_GetPos
FUNC 1280 38 0 IDirectFBVideoProvider_V4L_GetLength
FUNC 12b8 38 0 IDirectFBVideoProvider_V4L_SendEvent
FUNC 12f0 8 0 v4l_videosurface_listener
FUNC 12f8 8 0 v4l_systemsurface_listener
FUNC 1300 38 0 Deallocate
FUNC 1338 2f8 0 IDirectFBVideoProvider_V4L_SetColorAdjustment
FUNC 1630 1fc 0 IDirectFBVideoProvider_V4L_GetColorAdjustment
FUNC 182c 150 0 IDirectFBVideoProvider_V4L_GetCapabilities
FUNC 197c 2f8 0 Construct
FUNC 1c74 22c 0 v4l_stop
FUNC 1ea0 34 0 IDirectFBVideoProvider_V4L_Stop
FUNC 1ed4 c18 0 V4L2_Thread
FUNC 2aec c8 0 OverlayThread
FUNC 2bb4 864 0 GrabThread
FUNC 3418 84 0 IDirectFBVideoProvider_V4L_GetSurfaceDescription
FUNC 349c 134 0 IDirectFBVideoProvider_V4L_Release
FUNC 35d0 68 0 Probe
FUNC 3638 6c 0 Allocate
FUNC 36a4 e44 0 IDirectFBVideoProvider_V4L_PlayTo
FUNC 44e8 b0 0 v4l_cleanup
FUNC 4598 10 0 IDirectFBVideoProvider_V4L_ctor
FUNC 45a8 10 0 IDirectFBVideoProvider_V4L_dtor
STACK CFI INIT 10bc 10 .cfa: sp 0 + .ra: lr
STACK CFI INIT 10cc 10 .cfa: sp 0 + .ra: lr
STACK CFI INIT 10dc 40 .cfa: sp 0 + .ra: lr
STACK CFI INIT 111c 98 .cfa: sp 0 + .ra: lr
STACK CFI INIT 11b4 5c .cfa: sp 0 + .ra: lr
STACK CFI INIT 1210 38 .cfa: sp 0 + .ra: lr
STACK CFI INIT 1248 38 .cfa: sp 0 + .ra: lr
STACK CFI INIT 1280 38 .cfa: sp 0 + .ra: lr
STACK CFI INIT 12b8 38 .cfa: sp 0 + .ra: lr
STACK CFI INIT 12f0 8 .cfa: sp 0 + .ra: lr
STACK CFI INIT 12f8 8 .cfa: sp 0 + .ra: lr
STACK CFI INIT 1300 38 .cfa: sp 0 + .ra: lr
STACK CFI 1304 .cfa: sp 16 +
STACK CFI 1308 .ra: .cfa -4 + ^ r3: .cfa -16 + ^ r4: .cfa -12 + ^ r5: .cfa -8 + ^
STACK CFI INIT 1338 2f8 .cfa: sp 0 + .ra: lr
STACK CFI 133c .cfa: sp 16 +
STACK CFI 1340 .ra: .cfa -4 + ^ r4: .cfa -16 + ^ r5: .cfa -12 + ^ r6: .cfa -8 + ^
STACK CFI 1348 .cfa: sp 40 +
STACK CFI INIT 1630 1fc .cfa: sp 0 + .ra: lr
STACK CFI 1638 .cfa: sp 16 +
STACK CFI 163c .ra: .cfa -4 + ^ r4: .cfa -16 + ^ r5: .cfa -12 + ^ r6: .cfa -8 + ^
STACK CFI 1640 .cfa: sp 40 +
STACK CFI INIT 182c 150 .cfa: sp 0 + .ra: lr
STACK CFI 1834 .cfa: sp 16 +
STACK CFI 1838 .ra: .cfa -4 + ^ r3: .cfa -16 + ^ r4: .cfa -12 + ^ r5: .cfa -8 + ^
STACK CFI INIT 197c 2f8 .cfa: sp 0 + .ra: lr
STACK CFI 1980 .cfa: sp 16 +
STACK CFI 1984 .cfa: sp 44 +
STACK CFI 1988 .cfa: sp 64 +
STACK CFI 198c .ra: .cfa -20 + ^ r0: .cfa -16 + ^ r1: .cfa -12 + ^ r10: .cfa -24 + ^ r2: .cfa -8 + ^ r3: .cfa -4 + ^ r4: .cfa -44 + ^ r5: .cfa -40 + ^ r6: .cfa -36 + ^ r7: .cfa -32 + ^ r8: .cfa -28 + ^
STACK CFI INIT 1c74 22c .cfa: sp 0 + .ra: lr
STACK CFI 1c78 .cfa: sp 36 +
STACK CFI 1c7c .ra: .cfa -4 + ^ r10: .cfa -12 + ^ r11: .cfa -8 + ^ r4: .cfa -36 + ^ r5: .cfa -32 + ^ r6: .cfa -28 + ^ r7: .cfa -24 + ^ r8: .cfa -20 + ^ r9: .cfa -16 + ^
STACK CFI 1c88 .cfa: sp 48 +
STACK CFI INIT 1ea0 34 .cfa: sp 0 + .ra: lr
STACK CFI INIT 1ed4 c18 .cfa: sp 0 + .ra: lr
STACK CFI 1edc .cfa: sp 36 +
STACK CFI 1ee4 .ra: .cfa -4 + ^ r10: .cfa -12 + ^ r11: .cfa -8 + ^ r4: .cfa -36 + ^ r5: .cfa -32 + ^ r6: .cfa -28 + ^ r7: .cfa -24 + ^ r8: .cfa -20 + ^ r9: .cfa -16 + ^
STACK CFI 1f00 .cfa: sp 352 +
STACK CFI INIT 2aec c8 .cfa: sp 0 + .ra: lr
STACK CFI 2af0 .cfa: sp 28 +
STACK CFI 2af4 .ra: .cfa -4 + ^ r10: .cfa -8 + ^ r4: .cfa -28 + ^ r5: .cfa -24 + ^ r6: .cfa -20 + ^ r7: .cfa -16 + ^ r8: .cfa -12 + ^
STACK CFI 2af8 .cfa: sp 48 +
STACK CFI INIT 2bb4 864 .cfa: sp 0 + .ra: lr
STACK CFI 2bbc .cfa: sp 36 +
STACK CFI 2bc0 .ra: .cfa -4 + ^ r10: .cfa -12 + ^ r11: .cfa -8 + ^ r4: .cfa -36 + ^ r5: .cfa -32 + ^ r6: .cfa -28 + ^ r7: .cfa -24 + ^ r8: .cfa -20 + ^ r9: .cfa -16 + ^
STACK CFI 2be0 .cfa: sp 104 +
STACK CFI INIT 3418 84 .cfa: sp 0 + .ra: lr
STACK CFI 3424 .cfa: sp 8 +
STACK CFI 3428 .ra: .cfa -4 + ^ r4: .cfa -8 + ^
STACK CFI INIT 349c 134 .cfa: sp 0 + .ra: lr
STACK CFI 34a0 .cfa: sp 16 +
STACK CFI 34a4 .ra: .cfa -4 + ^ r4: .cfa -16 + ^ r5: .cfa -12 + ^ r6: .cfa -8 + ^
STACK CFI INIT 35d0 68 .cfa: sp 0 + .ra: lr
STACK CFI 35d4 .cfa: sp 8 +
STACK CFI 35d8 .ra: .cfa -4 + ^ r4: .cfa -8 + ^
STACK CFI INIT 3638 6c .cfa: sp 0 + .ra: lr
STACK CFI 363c .cfa: sp 8 +
STACK CFI 3644 .ra: .cfa -4 + ^ r4: .cfa -8 + ^
STACK CFI INIT 36a4 e44 .cfa: sp 0 + .ra: lr
STACK CFI 36a8 .cfa: sp 36 +
STACK CFI 36ac .ra: .cfa -4 + ^ r10: .cfa -12 + ^ r11: .cfa -8 + ^ r4: .cfa -36 + ^ r5: .cfa -32 + ^ r6: .cfa -28 + ^ r7: .cfa -24 + ^ r8: .cfa -20 + ^ r9: .cfa -16 + ^
STACK CFI 36b8 .cfa: sp 192 +
STACK CFI INIT 44e8 b0 .cfa: sp 0 + .ra: lr
STACK CFI 44f4 .cfa: sp 8 +
STACK CFI 44fc .ra: .cfa -4 + ^ r4: .cfa -8 + ^
STACK CFI INIT 4598 10 .cfa: sp 0 + .ra: lr
STACK CFI INIT 45a8 10 .cfa: sp 0 + .ra: lr
STACK CFI INIT 45b8 1ec .cfa: sp 0 + .ra: lr
STACK CFI INIT 47c4 220 .cfa: sp 0 + .ra: lr
