MODULE Linux arm 18C62752559A1DFAC6C6FE007A7E4DD30 libQtGui.so.4.7.4
PUBLIC 118c3c 0 _init
PUBLIC 11fab8 0 _ZN14QWSSoundClientD1Ev
PUBLIC 11fb00 0 _ZN14QWSSoundClientD0Ev
PUBLIC 120f3c 0 _ZN14QWSSoundServer23translateSoundCompletedEii
PUBLIC 120f44 0 _ZN14QWSSoundClientC1EP7QObject
PUBLIC 1211c0 0 _ZN14QWSSoundClient9reconnectEv
PUBLIC 1213c8 0 _ZN14QWSSoundClient17sendServerMessageE7QString
PUBLIC 12147c 0 _ZN14QWSSoundClient4playEiRK7QString
PUBLIC 1216c4 0 _ZN14QWSSoundClient4playEiRK7QStringii
PUBLIC 121a78 0 _ZN14QWSSoundClient5pauseEi
PUBLIC 121bd0 0 _ZN14QWSSoundClient4stopEi
PUBLIC 121d28 0 _ZN14QWSSoundClient6resumeEi
PUBLIC 121e80 0 _ZN14QWSSoundClient7playRawEiRK7QStringiiii
PUBLIC 1223ac 0 _ZN14QWSSoundClient7setMuteEib
PUBLIC 12252c 0 _ZN14QWSSoundClient9setVolumeEiii
PUBLIC 1227f0 0 _ZN14QWSSoundClient16playPriorityOnlyEb
PUBLIC 122948 0 _ZN14QWSSoundClient9setSilentEb
PUBLIC 122aa0 0 _ZN14QWSSoundClient21emitConnectionRefusedEv
PUBLIC 1233a0 0 _ZN14QWSSoundServerC1EP7QObject
PUBLIC 1237f0 0 _ZN14QWSSoundClient14tryReadCommandEv
PUBLIC 124050 0 _ZN14QWSSoundServerD1Ev
PUBLIC 1240a0 0 _ZN14QWSSoundServerD0Ev
PUBLIC 124158 0 _ZN14QWSSoundServer9pauseFileEi
PUBLIC 124204 0 _ZN14QWSSoundServer10resumeFileEi
PUBLIC 124700 0 _ZN14QWSSoundServer8playFileEiRK7QString
PUBLIC 12486c 0 _ZN14QWSSoundServer8stopFileEi
PUBLIC 126f7c 0 _ZN11QCopChannel7receiveERK7QStringRK10QByteArray
PUBLIC 127240 0 _ZNK11QCopChannel7channelEv
PUBLIC 12727c 0 _ZN11QCopChannel4sendERK7QStringS2_RK10QByteArray
PUBLIC 1272e0 0 _ZN11QCopChannel4sendERK7QStringS2_
PUBLIC 127390 0 _ZN11QCopChannel5flushEv
PUBLIC 1274b0 0 _ZN11QCopChannel6detachEP9QWSClient
PUBLIC 1278e0 0 _ZN11QCopChannel15registerChannelERK7QStringP9QWSClient
PUBLIC 127e34 0 _ZN11QCopChannel13reregisterAllEv
PUBLIC 127ee4 0 _ZN11QCopChannel4initERK7QString
PUBLIC 128378 0 _ZN11QCopChannelC2ERK7QStringP7QObject
PUBLIC 1283d0 0 _ZN11QCopChannel11sendLocallyERK7QStringS2_RK10QByteArray
PUBLIC 1286e4 0 _ZN11QCopChannelD2Ev
PUBLIC 128a84 0 _ZN11QCopChannelD0Ev
PUBLIC 128aa0 0 _ZN11QCopChannel12isRegisteredERK7QString
PUBLIC 128c9c 0 _ZN11QCopChannel6answerEP9QWSClientRK7QStringS4_RK10QByteArray
PUBLIC 12ab90 0 _ZN11QDecoration8regionAtEPK7QWidgetRK6QPoint
PUBLIC 12acb8 0 _ZN11QDecoration19regionDoubleClickedEP7QWidgeti
PUBLIC 12ad04 0 _ZN11QDecoration12buildSysMenuEP7QWidgetP5QMenu
PUBLIC 12b170 0 _ZN11QDecoration13menuTriggeredEP7QWidgetP7QAction
PUBLIC 12b188 0 _ZN11QDecoration9startMoveEP7QWidget
PUBLIC 12b1b4 0 _ZN11QDecoration11startResizeEP7QWidget
PUBLIC 12b1e0 0 _ZN11QDecoration13regionClickedEP7QWidgeti
PUBLIC 12b550 0 _ZN18QDecorationFactory6createERK7QString
PUBLIC 12b6cc 0 _ZN18QDecorationFactory4keysEv
PUBLIC 12bb34 0 _ZN17QDecorationPluginD2Ev
PUBLIC 12bb7c 0 _ZThn8_N17QDecorationPluginD1Ev
PUBLIC 12bb84 0 _ZN17QDecorationPluginD0Ev
PUBLIC 12bba0 0 _ZThn8_N17QDecorationPluginD0Ev
PUBLIC 12bba8 0 _ZN17QDecorationPluginC1EP7QObject
PUBLIC 12bc0c 0 _ZN27QDecorationFactoryInterfaceD2Ev
PUBLIC 12bc64 0 _ZN27QDecorationFactoryInterfaceD0Ev
PUBLIC 12bc98 0 _ZN14QDirectPainter13regionChangedERK7QRegion
PUBLIC 12bc9c 0 _ZN14QDirectPainterD2Ev
PUBLIC 12bcd0 0 _ZN14QDirectPainterD0Ev
PUBLIC 12be04 0 _ZNK14QDirectPainter8geometryEv
PUBLIC 12be20 0 _ZN14QDirectPainter9setRegionERK7QRegion
PUBLIC 12bf78 0 _ZN14QDirectPainter11setGeometryERK5QRect
PUBLIC 12bfbc 0 _ZNK14QDirectPainter15requestedRegionEv
PUBLIC 12bfd8 0 _ZNK14QDirectPainter15allocatedRegionEv
PUBLIC 12c07c 0 _ZNK14QDirectPainter5winIdEv
PUBLIC 12c088 0 _ZN14QDirectPainter13startPaintingEb
PUBLIC 12c188 0 _ZN14QDirectPainter11endPaintingEv
PUBLIC 12c284 0 _ZN14QDirectPainter5flushERK7QRegion
PUBLIC 12c350 0 _ZN14QDirectPainter11endPaintingERK7QRegion
PUBLIC 12c370 0 _ZN14QDirectPainter5raiseEv
PUBLIC 12c3a0 0 _ZN14QDirectPainter5lowerEv
PUBLIC 12c3d0 0 _ZN14QDirectPainter14reservedRegionEv
PUBLIC 12c408 0 _ZN14QDirectPainter4lockEv
PUBLIC 12c410 0 _ZN14QDirectPainter6unlockEv
PUBLIC 12c414 0 _ZN14QDirectPainter8linestepEv
PUBLIC 12c4b0 0 _ZN14QDirectPainter11frameBufferEv
PUBLIC 12c540 0 _ZN14QDirectPainter11screenDepthEv
PUBLIC 12c5dc 0 _ZN14QDirectPainter11screenWidthEv
PUBLIC 12c678 0 _ZN14QDirectPainter12screenHeightEv
PUBLIC 12c714 0 _ZN14QDirectPainterC2EP7QObjectNS_11SurfaceFlagE
PUBLIC 12c95c 0 _ZN14QDirectPainter13reserveRegionERK7QRegion
PUBLIC 12ce2c 0 _ZNK5QLock7isValidEv
PUBLIC 12ce40 0 _ZN5QLock4lockENS_4TypeE
PUBLIC 12cefc 0 _ZN5QLock6unlockEv
PUBLIC 12cfcc 0 _ZNK5QLock6lockedEv
PUBLIC 12cfe4 0 _ZN5QLockD1Ev
PUBLIC 12d034 0 _ZN5QLockC1ERK7QStringcb
PUBLIC 12d824 0 _ZN7QScreen14shutdownDeviceEv
PUBLIC 12d85c 0 _ZN7QScreen4saveEv
PUBLIC 12d860 0 _ZN7QScreen7restoreEv
PUBLIC 12d864 0 _ZN7QScreen5blankEb
PUBLIC 12d868 0 _ZN7QScreen3setEjjjj
PUBLIC 12d86c 0 _ZNK7QScreen6onCardEPKh
PUBLIC 12d898 0 _ZNK7QScreen6onCardEPKhRm
PUBLIC 12d8c8 0 _ZN7QScreen8setDirtyERK5QRect
PUBLIC 12d8cc 0 _ZNK7QScreen13isTransformedEv
PUBLIC 12d8d4 0 _ZNK7QScreen12isInterlacedEv
PUBLIC 12d8dc 0 _ZNK7QScreen11mapToDeviceERK5QSize
PUBLIC 12d8f0 0 _ZNK7QScreen13mapFromDeviceERK5QSize
PUBLIC 12d904 0 _ZNK7QScreen11mapToDeviceERK6QPointRK5QSize
PUBLIC 12d918 0 _ZNK7QScreen13mapFromDeviceERK6QPointRK5QSize
PUBLIC 12d92c 0 _ZNK7QScreen11mapToDeviceERK5QRectRK5QSize
PUBLIC 12d940 0 _ZNK7QScreen13mapFromDeviceERK5QRectRK5QSize
PUBLIC 12d954 0 _ZNK7QScreen20transformOrientationEv
PUBLIC 12d95c 0 _ZNK7QScreen11pixmapDepthEv
PUBLIC 12d964 0 _ZN7QScreen12memoryNeededERK7QString
PUBLIC 12d96c 0 _ZN7QScreen11haltUpdatesEv
PUBLIC 12d970 0 _ZN7QScreen13resumeUpdatesEv
PUBLIC 12df9c 0 _ZN13QScreenCursor4hideEv
PUBLIC 12e070 0 _ZN13QScreenCursor4showEv
PUBLIC 12e144 0 _ZNK7QScreen11mapToDeviceERK6QImage
PUBLIC 12e15c 0 _ZNK7QScreen13mapFromDeviceERK6QImage
PUBLIC 12e174 0 _ZNK7QScreen11mapToDeviceERK7QRegionRK5QSize
PUBLIC 12e18c 0 _ZNK7QScreen13mapFromDeviceERK7QRegionRK5QSize
PUBLIC 12e1a4 0 _ZN13QScreenCursor4moveEii
PUBLIC 12e310 0 _ZN7QScreen5allocEjjj
PUBLIC 12e930 0 _ZNK7QScreen13createSurfaceERK7QString
PUBLIC 12ea48 0 _ZNK7QScreen13supportsDepthEi
PUBLIC 12f6f4 0 _ZN13QScreenCursorC2Ev
PUBLIC 12f77c 0 _ZN13QScreenCursor18initSoftwareCursorEv
PUBLIC 12f9bc 0 _ZN7QScreenC2EiNS_7ClassIdE
PUBLIC 12fa7c 0 _ZN7QScreenC1Ei
PUBLIC 12fb38 0 _ZNK7QScreen11pixelFormatEv
PUBLIC 12fb44 0 _ZN7QScreen14setPixelFormatEN6QImage6FormatE
PUBLIC 12fb50 0 _ZN7QScreen21isWidgetPaintOnScreenEPK7QWidget
PUBLIC 12fc88 0 _ZNK7QScreen13createSurfaceEP7QWidget
PUBLIC 12fd24 0 _ZN7QScreen9setOffsetERK6QPoint
PUBLIC 12fd38 0 _ZNK7QScreen6offsetEv
PUBLIC 12fd54 0 _ZN7QScreen4blitERK6QImageRK6QPointRK7QRegion
PUBLIC 12febc 0 _ZN7QScreen9solidFillERK6QColorRK7QRegion
PUBLIC 12ff80 0 _ZN7QScreen20setPixmapDataFactoryEP18QPixmapDataFactory
PUBLIC 12ffc8 0 _ZNK7QScreen17pixmapDataFactoryEv
PUBLIC 12ffd4 0 _ZN7QScreen17setGraphicsSystemEP15QGraphicsSystem
PUBLIC 12ffe0 0 _ZNK7QScreen14graphicsSystemEv
PUBLIC 12ffec 0 _ZNK7QScreen7classIdEv
PUBLIC 12fff8 0 qt_get_screen
PUBLIC 130564 0 _ZN7QScreenD2Ev
PUBLIC 1305b0 0 _ZN7QScreenD0Ev
PUBLIC 1305cc 0 _ZNK7QScreen16subScreenIndexAtERK6QPoint
PUBLIC 136f70 0 _ZN13QScreenCursorD1Ev
PUBLIC 136fa4 0 _ZN13QScreenCursorD0Ev
PUBLIC 136fc0 0 _ZN13QScreenCursor3setERK6QImageii
PUBLIC 137164 0 _ZN7QScreen4blitEP9QWSWindowRK7QRegion
PUBLIC 137288 0 _ZN7QScreen15paintBackgroundERK7QRegion
PUBLIC 1375bc 0 _ZN7QScreen7composeEiRK7QRegionRS0_PP6QImagei
PUBLIC 137d70 0 _ZN7QScreen12exposeRegionE7QRegioni
PUBLIC 13ca00 0 _ZN12QProxyScreen10disconnectEv
PUBLIC 13ca44 0 _ZN12QProxyScreen10initDeviceEv
PUBLIC 13ca64 0 _ZN12QProxyScreen14shutdownDeviceEv
PUBLIC 13ca84 0 _ZNK12QProxyScreen13supportsDepthEi
PUBLIC 13caa4 0 _ZN12QProxyScreen5blankEb
PUBLIC 13cac4 0 _ZNK12QProxyScreen6onCardEPKh
PUBLIC 13cae4 0 _ZNK12QProxyScreen6onCardEPKhRm
PUBLIC 13cb04 0 _ZNK12QProxyScreen12isInterlacedEv
PUBLIC 13cb24 0 _ZN12QProxyScreen13sharedRamSizeEPv
PUBLIC 13cb44 0 _ZN12QProxyScreen11haltUpdatesEv
PUBLIC 13cb64 0 _ZN12QProxyScreen13resumeUpdatesEv
PUBLIC 13cb84 0 _ZN12QProxyScreen8setDirtyERK5QRect
PUBLIC 13cba4 0 _ZN18QProxyScreenCursorD1Ev
PUBLIC 13cbd8 0 _ZN18QProxyScreenCursorD0Ev
PUBLIC 13cbf4 0 _ZN12QProxyScreenD2Ev
PUBLIC 13cc28 0 _ZN12QProxyScreenD0Ev
PUBLIC 13cc44 0 _ZNK12QProxyScreen10subScreensEv
PUBLIC 13ccb0 0 _ZNK12QProxyScreen6regionEv
PUBLIC 13cd3c 0 _ZN18QProxyScreenCursorC1Ev
PUBLIC 13cd80 0 _ZNK18QProxyScreenCursor12screenCursorEv
PUBLIC 13cd88 0 _ZN18QProxyScreenCursor9configureEv
PUBLIC 13ce28 0 _ZN18QProxyScreenCursor15setScreenCursorEP13QScreenCursor
PUBLIC 13ce30 0 _ZN12QProxyScreenC1EiN7QScreen7ClassIdE
PUBLIC 13ce74 0 _ZNK12QProxyScreen6screenEv
PUBLIC 13ce7c 0 _ZN12QProxyScreen9configureEv
PUBLIC 13cf24 0 _ZN12QProxyScreen9setScreenEP7QScreen
PUBLIC 13cf2c 0 _ZN12QProxyScreen7connectERK7QString
PUBLIC 13d0f8 0 _ZN12QProxyScreen7setModeEiii
PUBLIC 13d184 0 _ZN18QProxyScreenCursor3setERK6QImageii
PUBLIC 13d204 0 _ZN18QProxyScreenCursor4moveEii
PUBLIC 13d244 0 _ZN18QProxyScreenCursor4showEv
PUBLIC 13d280 0 _ZN18QProxyScreenCursor4hideEv
PUBLIC 13d2bc 0 _ZN12QProxyScreen12exposeRegionE7QRegioni
PUBLIC 13d458 0 _ZN12QProxyScreen4blitERK6QImageRK6QPointRK7QRegion
PUBLIC 13d484 0 _ZN12QProxyScreen9solidFillERK6QColorRK7QRegion
PUBLIC 13d4b0 0 _ZNK12QProxyScreen11mapToDeviceERK5QSize
PUBLIC 13d4e8 0 _ZNK12QProxyScreen13mapFromDeviceERK5QSize
PUBLIC 13d520 0 _ZNK12QProxyScreen11mapToDeviceERK6QPointRK5QSize
PUBLIC 13d558 0 _ZNK12QProxyScreen13mapFromDeviceERK6QPointRK5QSize
PUBLIC 13d590 0 _ZNK12QProxyScreen11mapToDeviceERK5QRectRK5QSize
PUBLIC 13d5c8 0 _ZNK12QProxyScreen13mapFromDeviceERK5QRectRK5QSize
PUBLIC 13d600 0 _ZNK12QProxyScreen11mapToDeviceERK7QRegionRK5QSize
PUBLIC 13d638 0 _ZNK12QProxyScreen13mapFromDeviceERK7QRegionRK5QSize
PUBLIC 13d670 0 _ZN12QProxyScreen4saveEv
PUBLIC 13d69c 0 _ZN12QProxyScreen7restoreEv
PUBLIC 13d6c8 0 _ZNK12QProxyScreen13isTransformedEv
PUBLIC 13d6f4 0 _ZNK12QProxyScreen20transformOrientationEv
PUBLIC 13d720 0 _ZN12QProxyScreen12memoryNeededERK7QString
PUBLIC 13d74c 0 _ZNK12QProxyScreen13createSurfaceEP7QWidget
PUBLIC 13d778 0 _ZNK12QProxyScreen13createSurfaceERK7QString
PUBLIC 13d7a4 0 _ZN14QWSScreenSaverD1Ev
PUBLIC 13d7cc 0 _ZN14QWSInputMethod6filterEiiibb
PUBLIC 13d7d4 0 _ZN14QWSInputMethod6filterERK6QPointii
PUBLIC 13d7dc 0 _ZN14QWSInputMethod13queryResponseEiRK8QVariant
PUBLIC 13d7e0 0 _ZNK9QWSServer10metaObjectEv
PUBLIC 13d80c 0 _ZNK14QWSInputMethod10metaObjectEv
PUBLIC 13d838 0 _ZNK9QWSClient10metaObjectEv
PUBLIC 13d864 0 _ZN14QWSScreenSaverD0Ev
PUBLIC 13d880 0 _ZN14QWSInputMethodD2Ev
PUBLIC 13d8d0 0 _ZN14QWSInputMethodD0Ev
PUBLIC 13d8ec 0 _ZN9QWSServer11qt_metacastEPKc
PUBLIC 13d930 0 _ZN14QWSInputMethod11qt_metacastEPKc
PUBLIC 13d97c 0 _ZN9QWSClient11qt_metacastEPKc
PUBLIC 13d9c8 0 _ZN14QWSInputMethod11qt_metacallEN11QMetaObject4CallEiPPv
PUBLIC 13d9cc 0 _ZN14QWSInputMethod13updateHandlerEi
PUBLIC 13d9ec 0 _ZN14QWSInputMethod12mouseHandlerEii
PUBLIC 13de5c 0 _ZNK9QWSWindow5stateEv
PUBLIC 13de68 0 _ZNK9QWSWindow11windowFlagsEv
PUBLIC 13de78 0 _ZNK9QWSWindow13dirtyOnScreenEv
PUBLIC 13de94 0 _ZN9QWSWindow7setNameERK7QString
PUBLIC 13de9c 0 _ZN9QWSWindow10setCaptionERK7QString
PUBLIC 13dea4 0 _ZNK9QWSWindow15allocatedRegionEv
PUBLIC 13debc 0 _ZNK9QWSWindow13paintedRegionEv
PUBLIC 13dfbc 0 _ZN9QWSClient23removeUnbufferedSurfaceEv
PUBLIC 13dfd0 0 _ZN9QWSClient20addUnbufferedSurfaceEv
PUBLIC 13dfe4 0 _ZN9QWSWindow13createSurfaceERK7QStringRK10QByteArray
PUBLIC 13e0b0 0 _ZN9QWSClient11setIdentityERK7QString
PUBLIC 13e0b8 0 _ZNK9QWSClient6socketEv
PUBLIC 13e0c0 0 _ZN9QWSClient9sendEventEP8QWSEvent
PUBLIC 13e100 0 _ZN9QWSWindow5focusEb
PUBLIC 13e1dc 0 _ZN9QWSWindow9operationEN23QWSWindowOperationEvent9OperationE
PUBLIC 13e290 0 _ZN9QWSWindow4showEv
PUBLIC 13e2ec 0 _ZN9QWSWindow4hideEv
PUBLIC 13e348 0 _ZN9QWSClient18sendConnectedEventEPKc
PUBLIC 13e43c 0 _ZN9QWSClient22sendMaxWindowRectEventERK5QRect
PUBLIC 13e4f0 0 _ZN9QWSClient23sendPropertyNotifyEventEii
PUBLIC 13e598 0 _ZN9QWSClient22sendPropertyReplyEventEiiPKc
PUBLIC 13e65c 0 _ZN9QWSClient23sendSelectionClearEventEi
PUBLIC 13e6f8 0 _ZN9QWSClient25sendSelectionRequestEventEP26QWSConvertSelectionCommandi
PUBLIC 13e81c 0 _ZN9QWSServer13clientWindowsEv
PUBLIC 13eb14 0 _ZN9QWSServer15setDefaultMouseEPKc
PUBLIC 13eb94 0 _ZN9QWSServer18setDefaultKeyboardEPKc
PUBLIC 13ec14 0 _ZN9QWSServer13mouseHandlersEv
PUBLIC 13f030 0 _ZN9QWSServer8windowAtERK6QPoint
PUBLIC 13f814 0 _ZN9QWSServer16setCursorVisibleEb
PUBLIC 13f86c 0 _ZN9QWSServer15isCursorVisibleEv
PUBLIC 13f88c 0 _ZN9QWSServer11sendIMQueryEi
PUBLIC 13f984 0 _ZN9QWSServer21setCurrentInputMethodEP14QWSInputMethod
PUBLIC 13fb5c 0 _ZN9QWSServer16resetInputMethodEv
PUBLIC 13fe1c 0 _ZN9QWSServer7refreshEv
PUBLIC 13fe84 0 _ZN9QWSServer7refreshER7QRegion
PUBLIC 13fe90 0 _ZN9QWSServer12suspendMouseEv
PUBLIC 13feec 0 _ZN9QWSServer11resumeMouseEv
PUBLIC 1401b4 0 _ZNK9QWSServer15backgroundBrushEv
PUBLIC 1401c8 0 _ZN9QWSServer13setBackgroundERK6QBrush
PUBLIC 1402c8 0 _ZN9QWSServer9closedownEv
PUBLIC 1403d0 0 _ZN9QWSServer24setScreenSaverBlockLevelEi
PUBLIC 1404c0 0 _ZN9QWSServer23setScreenSaverIntervalsEPi
PUBLIC 1405cc 0 _ZN9QWSServer22setScreenSaverIntervalEi
PUBLIC 1405f0 0 _ZN9QWSServer14sendMouseEventERK6QPointii
PUBLIC 140844 0 _ZN9QWSServer12sendKeyEventEii6QFlagsIN2Qt16KeyboardModifierEEbb
PUBLIC 1408fc 0 _ZN9QWSServer15processKeyEventEii6QFlagsIN2Qt16KeyboardModifierEEbb
PUBLIC 140a7c 0 _ZN9QWSServer14setScreenSaverEP14QWSScreenSaver
PUBLIC 140be8 0 _ZN9QWSServer17screenSaverActiveEv
PUBLIC 140c10 0 _ZN9QWSServer19screenSaverActivateEb
PUBLIC 140ce0 0 _ZN14QWSInputMethodC2Ev
PUBLIC 140d1c 0 _ZNK14QWSInputMethod20inputResolutionShiftEv
PUBLIC 140d24 0 _ZN14QWSInputMethod18setInputResolutionEb
PUBLIC 140d2c 0 _ZN14QWSInputMethod14sendMouseEventERK6QPointii
PUBLIC 140db8 0 _ZN9QWSServer11windowEventEP9QWSWindowNS_11WindowEventE
PUBLIC 140fb0 0 _ZN9QWSWindow15setActiveWindowEv
PUBLIC 141084 0 _ZN9QWSServer10newChannelERK7QString
PUBLIC 1410c4 0 _ZN9QWSServer14removedChannelERK7QString
PUBLIC 141104 0 _ZN9QWSServer10markedTextERK7QString
PUBLIC 141144 0 _ZN9QWSClient16connectionClosedEv
PUBLIC 141168 0 _ZN9QWSClient12closeHandlerEv
PUBLIC 141178 0 _ZN9QWSClient12errorHandlerEv
PUBLIC 141188 0 _ZN9QWSClient9readyReadEv
PUBLIC 1411ac 0 _ZN9QWSClient11qt_metacallEN11QMetaObject4CallEiPPv
PUBLIC 141220 0 _ZN9QWSClient15sendRegionEventEi7QRegioni
PUBLIC 1416d8 0 _ZNK9QWSServer19updateWindowRegionsEv
PUBLIC 1416ec 0 _ZN9QWSServer14enablePaintingEb
PUBLIC 141864 0 _ZN9QWSServer23beginDisplayReconfigureEv
PUBLIC 1418d8 0 _ZN9QWSServer21endDisplayReconfigureEv
PUBLIC 141b38 0 _ZN9QWSClient14sendEmbedEventEiN13QWSEmbedEvent4TypeERK7QRegion
PUBLIC 141db8 0 _ZN9QWSWindowC1EiP9QWSClient
PUBLIC 141f88 0 _ZN9QWSClientC1EP7QObjectP10QTcpSocketi
PUBLIC 142de0 0 _ZN9QWSServer16setMaxWindowRectERK5QRect
PUBLIC 143070 0 _ZN9QWSServer10windowListEv
PUBLIC 1431dc 0 _ZN9QWSServer17addKeyboardFilterEPNS_14KeyboardFilterE
PUBLIC 1437dc 0 _ZN9QWSServer23sendPropertyNotifyEventEii
PUBLIC 144444 0 _ZN9QWSWindowD1Ev
PUBLIC 144d18 0 _ZN9QWSWindow5raiseEv
PUBLIC 144f88 0 _ZN9QWSWindow5lowerEv
PUBLIC 145db0 0 _ZN9QWSServer10timerEventEP11QTimerEvent
PUBLIC 145de8 0 _ZN9QWSServer12mouseHandlerEv
PUBLIC 145e44 0 _ZN9QWSServer15setMouseHandlerEP15QWSMouseHandler
PUBLIC 145f5c 0 _ZN9QWSServer10closeMouseEv
PUBLIC 1460ac 0 _ZN9QWSServer9openMouseEv
PUBLIC 146254 0 _ZN9QWSServer13closeKeyboardEv
PUBLIC 1463a4 0 _ZN9QWSServerD1Ev
PUBLIC 146400 0 _ZN9QWSServerD0Ev
PUBLIC 146444 0 _ZN9QWSServer15keyboardHandlerEv
PUBLIC 146488 0 _ZN9QWSServer18setKeyboardHandlerEP18QWSKeyboardHandler
PUBLIC 1465a0 0 _ZN9QWSServer12openKeyboardEv
PUBLIC 147140 0 _ZN9QWSServerC1EiP7QObject
PUBLIC 147420 0 _ZN9QWSServer7startupEi
PUBLIC 147520 0 _ZN9QWSServer20removeKeyboardFilterEv
PUBLIC 1475a0 0 _ZN9QWSClient15readMoreCommandEv
PUBLIC 1476c0 0 _ZN9QWSClientD1Ev
PUBLIC 147808 0 _ZN9QWSClientD0Ev
PUBLIC 147aa8 0 _ZN9QWSServer11sendIMEventEPK17QInputMethodEvent
PUBLIC 147f0c 0 _ZN14QWSInputMethod5resetEv
PUBLIC 14802c 0 _ZN14QWSInputMethod17sendPreeditStringERK7QStringii
PUBLIC 14837c 0 _ZN14QWSInputMethod16sendCommitStringERK7QStringii
PUBLIC 148cdc 0 _ZN9QWSServer17processEventQueueEv
PUBLIC 148eb4 0 _ZN9QWSServer11qt_metacallEN11QMetaObject4CallEiPPv
PUBLIC 14a498 0 _ZN17QInputMethodEventD1Ev
PUBLIC 14a570 0 _ZN17QInputMethodEventD0Ev
PUBLIC 1513a8 0 _ZN10QWSManagerD2Ev
PUBLIC 151430 0 _ZN10QWSManagerD0Ev
PUBLIC 15144c 0 _ZN10QWSManager21mouseDoubleClickEventEP11QMouseEvent
PUBLIC 1514b8 0 _ZN10QWSManager5eventEP6QEvent
PUBLIC 1515ec 0 _ZN10QWSManager12cachedRegionEv
PUBLIC 1515f8 0 _ZN10QWSManager6widgetEv
PUBLIC 151604 0 _ZN10QWSManager12grabbedMouseEv
PUBLIC 151614 0 _ZN10QWSManager6regionEv
PUBLIC 15165c 0 _ZN10QWSManager10handleMoveE6QPoint
PUBLIC 151b3c 0 _ZN10QWSManager4menuERK6QPoint
PUBLIC 151bec 0 _ZN10QWSManager13menuTriggeredEP7QAction
PUBLIC 151c1c 0 _ZN10QWSManager9startMoveEv
PUBLIC 151c64 0 _ZN10QWSManager11startResizeEv
PUBLIC 151c8c 0 _ZN10QWSManager8maximizeEv
PUBLIC 152098 0 _ZN10QWSManagerC2EP7QWidget
PUBLIC 1523d8 0 _ZN10QWSManager10paintEventEP11QPaintEvent
PUBLIC 152420 0 _ZN10QWSManager13repaintRegionEiN11QDecoration15DecorationStateE
PUBLIC 152474 0 _ZN10QWSManager15mousePressEventEP11QMouseEvent
PUBLIC 1525c4 0 _ZN10QWSManager17mouseReleaseEventEP11QMouseEvent
PUBLIC 1526c4 0 _ZN10QWSManager14mouseMoveEventEP11QMouseEvent
PUBLIC 155820 0 _ZN16QWSSignalHandler15removeSemaphoreEi
PUBLIC 155960 0 _ZN16QWSSignalHandlerC1Ev
PUBLIC 155b54 0 _ZN16QWSSignalHandlerD1Ev
PUBLIC 155c6c 0 _ZN16QWSSignalHandler8instanceEv
PUBLIC 155d60 0 _ZN16QWSSignalHandler12handleSignalEi
PUBLIC 156060 0 _ZN14QWSEmbedWidget9moveEventEP10QMoveEvent
PUBLIC 1560bc 0 _ZN14QWSEmbedWidgetD1Ev
PUBLIC 1562f8 0 _ZThn8_N14QWSEmbedWidgetD1Ev
PUBLIC 156300 0 _ZN14QWSEmbedWidgetD0Ev
PUBLIC 15631c 0 _ZThn8_N14QWSEmbedWidgetD0Ev
PUBLIC 156574 0 _ZN14QWSEmbedWidget11eventFilterEP7QObjectP6QEvent
PUBLIC 156608 0 _ZN14QWSEmbedWidget11resizeEventEP12QResizeEvent
PUBLIC 156650 0 _ZN14QWSEmbedWidget9hideEventEP10QHideEvent
PUBLIC 15667c 0 _ZN14QWSEmbedWidget9showEventEP10QShowEvent
PUBLIC 156b0c 0 _ZN14QWSEmbedWidgetC2EmP7QWidget
PUBLIC 156bc8 0 _ZN14QWSEmbedWidget11changeEventEP6QEvent
PUBLIC 156c38 0 _ZN18QDecorationDefaultD1Ev
PUBLIC 156d5c 0 _ZN18QDecorationDefault12xpmForRegionEi
PUBLIC 156e0c 0 _ZN18QDecorationDefaultD0Ev
PUBLIC 156e28 0 _ZN18QDecorationDefault9pixmapForEPK7QWidgetiRiS3_
PUBLIC 157294 0 _ZN18QDecorationDefault14titleBarHeightEPK7QWidget
PUBLIC 1572dc 0 _ZN18QDecorationDefault6regionEPK7QWidgetRK5QRecti
PUBLIC 157e8c 0 _ZN18QDecorationDefaultC2Ev
PUBLIC 157ecc 0 _ZNK18QDecorationDefault14windowTitleForEPK7QWidget
PUBLIC 157f4c 0 _ZN18QDecorationDefault5paintEP8QPainterPK7QWidgetiN11QDecoration15DecorationStateE
PUBLIC 158724 0 _ZN18QDecorationDefault11paintButtonEP8QPainterPK7QWidgetiN11QDecoration15DecorationStateERK8QPalette
PUBLIC 158904 0 _ZN17QDecorationStyledD2Ev
PUBLIC 158938 0 _ZN17QDecorationStyledD0Ev
PUBLIC 158954 0 _ZN17QDecorationStyledC2Ev
PUBLIC 15898c 0 _ZN17QDecorationStyled14titleBarHeightEPK7QWidget
PUBLIC 158b40 0 _ZN17QDecorationStyled5paintEP8QPainterPK7QWidgetiN11QDecoration15DecorationStateE
PUBLIC 1595b8 0 _ZN17QDecorationStyled6regionEPK7QWidgetRK5QRecti
PUBLIC 159c8c 0 _ZN20QStyleOptionTitleBarD1Ev
PUBLIC 159d00 0 _ZN18QDecorationWindowsD1Ev
PUBLIC 159d34 0 _ZN18QDecorationWindowsD0Ev
PUBLIC 159d50 0 _ZN18QDecorationWindowsC2Ev
PUBLIC 159d9c 0 _ZN18QDecorationWindows12xpmForRegionEi
PUBLIC 159e2c 0 _ZN18QDecorationWindows6regionEPK7QWidgetRK5QRecti
PUBLIC 15a448 0 _ZN18QDecorationWindows5paintEP8QPainterPK7QWidgetiN11QDecoration15DecorationStateE
PUBLIC 15a8fc 0 _ZN18QDecorationWindows11paintButtonEP8QPainterPK7QWidgetiN11QDecoration15DecorationStateERK8QPalette
PUBLIC 15ad3c 0 _ZN19QScreenDriverPluginD2Ev
PUBLIC 15ad84 0 _ZThn8_N19QScreenDriverPluginD1Ev
PUBLIC 15ad8c 0 _ZN19QScreenDriverPluginD0Ev
PUBLIC 15ada8 0 _ZThn8_N19QScreenDriverPluginD0Ev
PUBLIC 15adb0 0 _ZN19QScreenDriverPluginC1EP7QObject
PUBLIC 15adf0 0 _ZN29QScreenDriverFactoryInterfaceD2Ev
PUBLIC 15ae14 0 _ZN29QScreenDriverFactoryInterfaceD0Ev
PUBLIC 15b03c 0 _ZN20QScreenDriverFactory6createERK7QStringi
PUBLIC 15b158 0 _ZN20QScreenDriverFactory4keysEv
PUBLIC 15b4e8 0 _ZN18QWSKeyboardHandlerD2Ev
PUBLIC 15b550 0 _ZN18QWSKeyboardHandlerD0Ev
PUBLIC 15b56c 0 _ZN18QWSKeyboardHandler15processKeyEventEii6QFlagsIN2Qt16KeyboardModifierEEbb
PUBLIC 15b6e0 0 _ZN18QWSKeyboardHandler15transformDirKeyEi
PUBLIC 15b860 0 _ZN18QWSKeyboardHandler15beginAutoRepeatEii6QFlagsIN2Qt16KeyboardModifierEE
PUBLIC 15b880 0 _ZN18QWSKeyboardHandler13endAutoRepeatEv
PUBLIC 15b88c 0 _ZN18QWSKeyboardHandler14processKeycodeEtbb
PUBLIC 15c0c8 0 _ZN18QWSKeyboardHandlerC1ERK7QString
PUBLIC 15c628 0 _ZN18QWSKeyboardHandlerC2Ev
PUBLIC 15cd5c 0 _ZN16QKbdDriverPluginD2Ev
PUBLIC 15cda4 0 _ZThn8_N16QKbdDriverPluginD1Ev
PUBLIC 15cdac 0 _ZN16QKbdDriverPluginD0Ev
PUBLIC 15cdc8 0 _ZThn8_N16QKbdDriverPluginD0Ev
PUBLIC 15cdd0 0 _ZN16QKbdDriverPluginC2EP7QObject
PUBLIC 15ce10 0 _ZN34QWSKeyboardHandlerFactoryInterfaceD2Ev
PUBLIC 15ce34 0 _ZN34QWSKeyboardHandlerFactoryInterfaceD0Ev
PUBLIC 15d05c 0 _ZN17QKbdDriverFactory6createERK7QStringS2_
PUBLIC 15d120 0 _ZN17QKbdDriverFactory4keysEv
PUBLIC 15d228 0 _ZNK25QWSCalibratedMouseHandler14getCalibrationEP25QWSPointerCalibrationData
PUBLIC 15d37c 0 _ZN25QWSCalibratedMouseHandler16clearCalibrationEv
PUBLIC 15d3a4 0 _ZN15QWSMouseHandlerD1Ev
PUBLIC 15d3dc 0 _ZN15QWSMouseHandlerD0Ev
PUBLIC 15d3f8 0 _ZN15QWSMouseHandlerC2ERK7QStringS2_
PUBLIC 15d45c 0 _ZN15QWSMouseHandler13limitToScreenER6QPoint
PUBLIC 15d4a0 0 _ZN15QWSMouseHandler9setScreenEPK7QScreen
PUBLIC 15d4d8 0 _ZN15QWSMouseHandler12mouseChangedERK6QPointii
PUBLIC 15d530 0 _ZN25QWSCalibratedMouseHandler9transformERK6QPoint
PUBLIC 15d598 0 _ZN25QWSCalibratedMouseHandler13setFilterSizeEi
PUBLIC 15d614 0 _ZN25QWSCalibratedMouseHandler12sendFilteredERK6QPointi
PUBLIC 15d970 0 _ZN25QWSCalibratedMouseHandler16writeCalibrationEv
PUBLIC 15dc84 0 _ZN25QWSCalibratedMouseHandler9calibrateEPK25QWSPointerCalibrationData
PUBLIC 15e28c 0 _ZN25QWSCalibratedMouseHandler15readCalibrationEv
PUBLIC 15e740 0 _ZN25QWSCalibratedMouseHandlerC1ERK7QStringS2_
PUBLIC 15e93c 0 _ZN25QWSCalibratedMouseHandlerD2Ev
PUBLIC 15e9c8 0 _ZN25QWSCalibratedMouseHandlerD0Ev
PUBLIC 15ec44 0 _ZN18QMouseDriverPluginD2Ev
PUBLIC 15ec8c 0 _ZThn8_N18QMouseDriverPluginD1Ev
PUBLIC 15ec94 0 _ZN18QMouseDriverPluginD0Ev
PUBLIC 15ecb0 0 _ZThn8_N18QMouseDriverPluginD0Ev
PUBLIC 15ecb8 0 _ZN18QMouseDriverPluginC2EP7QObject
PUBLIC 15ecf8 0 _ZN31QWSMouseHandlerFactoryInterfaceD2Ev
PUBLIC 15ed1c 0 _ZN31QWSMouseHandlerFactoryInterfaceD0Ev
PUBLIC 15ef44 0 _ZN19QMouseDriverFactory6createERK7QStringS2_
PUBLIC 15f060 0 _ZN19QMouseDriverFactory4keysEv
PUBLIC 15f1cc 0 _ZN14QLinuxFbScreen4saveEv
PUBLIC 15f1d0 0 _ZN14QLinuxFbScreen13sharedRamSizeEPv
PUBLIC 15f1e0 0 _ZN14QLinuxFbScreen12useOffscreenEv
PUBLIC 15f214 0 _ZN14QLinuxFbScreen5blankEb
PUBLIC 15f260 0 _ZN14QLinuxFbScreen8setDirtyERK5QRect
PUBLIC 15f2e4 0 _ZN14QLinuxFbScreenD2Ev
PUBLIC 15f318 0 _ZN14QLinuxFbScreenD0Ev
PUBLIC 15f334 0 _ZN14QLinuxFbScreen7restoreEv
PUBLIC 15f43c 0 _ZN14QLinuxFbScreen3setEjjjj
PUBLIC 15f534 0 _ZN14QLinuxFbScreen10disconnectEv
PUBLIC 15f56c 0 _ZN14QLinuxFbScreen7setModeEiii
PUBLIC 15f750 0 _ZN14QLinuxFbScreen15fixupScreenInfoER17fb_fix_screeninfoR17fb_var_screeninfo
PUBLIC 15fc9c 0 _ZN14QLinuxFbScreen14shutdownDeviceEv
PUBLIC 15fca4 0 _ZN14QLinuxFbScreenC2Ei
PUBLIC 15fd2c 0 _ZN14QLinuxFbScreen13createPaletteER7fb_cmapR17fb_var_screeninfoR17fb_fix_screeninfo
PUBLIC 1602bc 0 _ZN14QLinuxFbScreen12delete_entryEi
PUBLIC 16034c 0 _ZN14QLinuxFbScreen10clearCacheEP7QScreeni
PUBLIC 1603e0 0 _ZN14QLinuxFbScreen12insert_entryEiii
PUBLIC 1604dc 0 _ZN14QLinuxFbScreen5cacheEi
PUBLIC 160668 0 _ZN14QLinuxFbScreen10initDeviceEv
PUBLIC 160914 0 _ZN14QLinuxFbScreen11deleteEntryEPh
PUBLIC 1609ec 0 _ZN14QLinuxFbScreen7uncacheEPh
PUBLIC 1609f0 0 _ZN14QLinuxFbScreen14setupOffScreenEv
PUBLIC 160a28 0 _ZN14QLinuxFbScreen14setPixelFormatE17fb_var_screeninfo
PUBLIC 160e38 0 _ZN14QLinuxFbScreen7connectERK7QString
PUBLIC 163220 0 _ZNK7QAction10metaObjectEv
PUBLIC 16324c 0 _ZN7QActionD1Ev
PUBLIC 16341c 0 _ZN7QActionD0Ev
PUBLIC 1637a4 0 _ZN7QActionC1ER14QActionPrivateP7QObject
PUBLIC 163830 0 _ZNK7QAction12parentWidgetEv
PUBLIC 163860 0 _ZNK7QAction8shortcutEv
PUBLIC 16387c 0 _ZNK7QAction15shortcutContextEv
PUBLIC 163888 0 _ZNK7QAction10autoRepeatEv
PUBLIC 163898 0 _ZNK7QAction4fontEv
PUBLIC 1638b4 0 _ZN7QAction14setActionGroupEP12QActionGroup
PUBLIC 163914 0 _ZNK7QAction11actionGroupEv
PUBLIC 163920 0 _ZNK7QAction4iconEv
PUBLIC 16393c 0 _ZNK7QAction4menuEv
PUBLIC 163948 0 _ZNK7QAction11isSeparatorEv
PUBLIC 16395c 0 _ZNK7QAction4textEv
PUBLIC 1639f8 0 _ZNK7QAction8iconTextEv
PUBLIC 163ad0 0 _ZNK7QAction7toolTipEv
PUBLIC 163c20 0 _ZNK7QAction9statusTipEv
PUBLIC 163c5c 0 _ZNK7QAction9whatsThisEv
PUBLIC 163c98 0 _ZNK7QAction8priorityEv
PUBLIC 163ca4 0 _ZNK7QAction11isCheckableEv
PUBLIC 163cb8 0 _ZNK7QAction9isCheckedEv
PUBLIC 163ccc 0 _ZNK7QAction9isEnabledEv
PUBLIC 163cdc 0 _ZNK7QAction9isVisibleEv
PUBLIC 163cf0 0 _ZNK7QAction4dataEv
PUBLIC 163d0c 0 _ZNK7QAction8menuRoleEv
PUBLIC 163d18 0 _ZNK7QAction11softKeyRoleEv
PUBLIC 163d24 0 _ZNK7QAction19isIconVisibleInMenuEv
PUBLIC 163d60 0 _ZN7QAction7changedEv
PUBLIC 163d84 0 _ZN7QAction9triggeredEb
PUBLIC 163dcc 0 _ZN7QAction7hoveredEv
PUBLIC 163df0 0 _ZN7QAction7toggledEb
PUBLIC 1640f8 0 _ZN7QActionC2EP7QObject
PUBLIC 1641a8 0 _ZN7QActionC1ERK7QStringP7QObject
PUBLIC 164268 0 _ZN7QActionC1ERK5QIconRK7QStringP7QObject
PUBLIC 1645e4 0 _ZNK7QAction17associatedWidgetsEv
PUBLIC 16463c 0 _ZNK7QAction25associatedGraphicsWidgetsEv
PUBLIC 164694 0 _ZNK7QAction9shortcutsEv
PUBLIC 164b80 0 _ZN7QAction14showStatusTextEP7QWidget
PUBLIC 164d64 0 _ZN7QAction11setShortcutERK12QKeySequence
PUBLIC 164de8 0 _ZN7QAction12setShortcutsERK5QListI12QKeySequenceE
PUBLIC 1650c8 0 _ZN7QAction12setShortcutsEN12QKeySequence11StandardKeyE
PUBLIC 165108 0 _ZN7QAction18setShortcutContextEN2Qt15ShortcutContextE
PUBLIC 165188 0 _ZN7QAction13setAutoRepeatEb
PUBLIC 165218 0 _ZN7QAction7setFontERK5QFont
PUBLIC 16525c 0 _ZN7QAction7setIconERK5QIcon
PUBLIC 165278 0 _ZN7QAction7setMenuEP5QMenu
PUBLIC 1652d8 0 _ZN7QAction12setSeparatorEb
PUBLIC 165304 0 _ZN7QAction7setTextERK7QString
PUBLIC 16533c 0 _ZN7QAction11setIconTextERK7QString
PUBLIC 165374 0 _ZN7QAction10setToolTipERK7QString
PUBLIC 1653ac 0 _ZN7QAction12setStatusTipERK7QString
PUBLIC 1653e4 0 _ZN7QAction12setWhatsThisERK7QString
PUBLIC 16541c 0 _ZN7QAction11setPriorityENS_8PriorityE
PUBLIC 165434 0 _ZN7QAction12setCheckableEb
PUBLIC 165464 0 _ZN7QAction10setCheckedEb
PUBLIC 1654f4 0 _ZN7QAction6toggleEv
PUBLIC 16550c 0 _ZN7QAction8activateENS_11ActionEventE
PUBLIC 1655f8 0 _ZN7QAction5eventEP6QEvent
PUBLIC 165734 0 _ZN7QAction10setEnabledEb
PUBLIC 16582c 0 _ZN7QAction10setVisibleEb
PUBLIC 16591c 0 _ZN7QAction7setDataERK8QVariant
PUBLIC 165938 0 _ZN7QAction11setMenuRoleENS_8MenuRoleE
PUBLIC 165950 0 _ZN7QAction14setSoftKeyRoleENS_11SoftKeyRoleE
PUBLIC 165968 0 _ZN7QAction20setIconVisibleInMenuEb
PUBLIC 1659e0 0 _ZN7QAction11qt_metacastEPKc
PUBLIC 165a24 0 _ZN7QAction11qt_metacallEN11QMetaObject4CallEiPPv
PUBLIC 166460 0 _ZNK12QActionGroup10metaObjectEv
PUBLIC 16648c 0 _ZN12QActionGroupD1Ev
PUBLIC 1664c0 0 _ZN12QActionGroupD0Ev
PUBLIC 166580 0 _ZN12QActionGroupC2EP7QObject
PUBLIC 166648 0 _ZN12QActionGroup9addActionERK7QString
PUBLIC 166680 0 _ZN12QActionGroup9addActionERK5QIconRK7QString
PUBLIC 1666c0 0 _ZN12QActionGroup12setExclusiveEb
PUBLIC 1666dc 0 _ZNK12QActionGroup11isExclusiveEv
PUBLIC 1666ec 0 _ZN12QActionGroup10setEnabledEb
PUBLIC 166784 0 _ZNK12QActionGroup9isEnabledEv
PUBLIC 166798 0 _ZNK12QActionGroup13checkedActionEv
PUBLIC 1667a4 0 _ZNK12QActionGroup9isVisibleEv
PUBLIC 1667b8 0 _ZN12QActionGroup9triggeredEP7QAction
PUBLIC 1667f8 0 _ZN12QActionGroup8selectedEP7QAction
PUBLIC 166890 0 _ZN12QActionGroup7hoveredEP7QAction
PUBLIC 166918 0 _ZN12QActionGroup12removeActionEP7QAction
PUBLIC 166a80 0 _ZN12QActionGroup9addActionEP7QAction
PUBLIC 166c6c 0 _ZNK12QActionGroup7actionsEv
PUBLIC 166cc4 0 _ZN12QActionGroup10setVisibleEb
PUBLIC 166d8c 0 _ZN12QActionGroup11qt_metacastEPKc
PUBLIC 166dd0 0 _ZN12QActionGroup11qt_metacallEN11QMetaObject4CallEiPPv
PUBLIC 16729c 0 _ZNK12QApplication10metaObjectEv
PUBLIC 167998 0 _ZN12QApplication4typeEv
PUBLIC 1679ac 0 _ZN12QApplication8widgetAtERK6QPoint
PUBLIC 167bc4 0 _ZN12QApplication17setAutoSipEnabledEb
PUBLIC 167be4 0 _ZNK12QApplication14autoSipEnabledEv
PUBLIC 167c04 0 _ZNK12QApplication10styleSheetEv
PUBLIC 167c54 0 _ZN12QApplication17setGraphicsSystemERK7QString
PUBLIC 167c74 0 _ZN12QApplication9colorSpecEv
PUBLIC 167c94 0 _ZN12QApplication12setColorSpecEi
PUBLIC 167ce4 0 _ZN12QApplication11globalStrutEv
PUBLIC 167d10 0 _ZN12QApplication14setGlobalStrutERK5QSize
PUBLIC 167d34 0 _ZN12QApplication7paletteEv
PUBLIC 167d9c 0 _ZN12QApplication4fontEv
PUBLIC 167ec4 0 _ZN19QApplicationPrivate15desktopStyleKeyEv
PUBLIC 167eec 0 _ZN12QApplication10windowIconEv
PUBLIC 167f30 0 _ZN12QApplication11focusWidgetEv
PUBLIC 167f50 0 _ZN12QApplication12activeWindowEv
PUBLIC 167f70 0 _ZN12QApplication7aboutQtEv
PUBLIC 168014 0 _ZN12QApplication5syncXEv
PUBLIC 168018 0 _ZN19QApplicationPrivate25focusNextPrevChild_helperEP7QWidgetb
PUBLIC 1681a8 0 _ZN12QApplication7desktopEv
PUBLIC 16820c 0 _ZN12QApplication11fontMetricsEv
PUBLIC 168230 0 _ZN12QApplication9clipboardEv
PUBLIC 1682c8 0 _ZN12QApplication23setDesktopSettingsAwareEb
PUBLIC 1682e8 0 _ZN12QApplication20desktopSettingsAwareEv
PUBLIC 168308 0 _ZN12QApplication17keyboardModifiersEv
PUBLIC 16832c 0 _ZN12QApplication12mouseButtonsEv
PUBLIC 168350 0 _ZN12QApplication16setStartDragTimeEi
PUBLIC 168364 0 _ZN12QApplication13startDragTimeEv
PUBLIC 168374 0 _ZN12QApplication20setStartDragDistanceEi
PUBLIC 168388 0 _ZN12QApplication17startDragDistanceEv
PUBLIC 16839c 0 _ZN12QApplication15layoutDirectionEv
PUBLIC 1683b0 0 _ZN12QApplication4execEv
PUBLIC 1683b4 0 _ZNK19QApplicationPrivate11inPopupModeEv
PUBLIC 1683dc 0 _ZN12QApplication25setQuitOnLastWindowClosedEb
PUBLIC 1683fc 0 _ZN12QApplication22quitOnLastWindowClosedEv
PUBLIC 16841c 0 _ZN12QApplication15setInputContextEP13QInputContext
PUBLIC 168490 0 _ZNK12QApplication12inputContextEv
PUBLIC 1684b0 0 _ZN19QApplicationPrivate15currentPlatformEv
PUBLIC 1684f4 0 _ZN12QApplication19keyboardInputLocaleEv
PUBLIC 168540 0 _ZN12QApplication22keyboardInputDirectionEv
PUBLIC 168568 0 _ZN19QApplicationPrivate14shouldSetFocusEP7QWidgetN2Qt11FocusPolicyE
PUBLIC 16860c 0 _ZN19QApplicationPrivate31giveFocusAccordingToFocusPolicyEP7QWidgetN2Qt11FocusPolicyENS2_11FocusReasonE
PUBLIC 168704 0 _ZN19QApplicationPrivate15getPixmapCursorEN2Qt11CursorShapeE
PUBLIC 168718 0 _ZN19QApplicationPrivate25qmljsDebugArgumentsStringEv
PUBLIC 168768 0 _ZN12QApplication16lastWindowClosedEv
PUBLIC 16878c 0 _ZN19QApplicationPrivate20emitLastWindowClosedEv
PUBLIC 168818 0 _ZN12QApplication12focusChangedEP7QWidgetS1_
PUBLIC 168868 0 _ZN12QApplication19fontDatabaseChangedEv
PUBLIC 16888c 0 _ZN19QApplicationPrivateC1ERiPPcN12QApplication4TypeE
PUBLIC 168a98 0 _ZN19QApplicationPrivateD2Ev
PUBLIC 168ccc 0 _ZN19QApplicationPrivateD0Ev
PUBLIC 168ce8 0 _ZN12QApplication7paletteEPK7QWidget
PUBLIC 168e54 0 _ZN12QApplication7paletteEPKc
PUBLIC 168f60 0 _ZN12QApplication4fontEPK7QWidget
PUBLIC 1690cc 0 _ZN12QApplication4fontEPKc
PUBLIC 1691a0 0 _ZN19QApplicationPrivate26updateTouchPointsForWidgetEP7QWidgetP11QTouchEvent
PUBLIC 169780 0 _ZN12QApplication17activeModalWidgetEv
PUBLIC 1697ec 0 _ZN12QApplication10allWidgetsEv
PUBLIC 16985c 0 _ZN12QApplication15topLevelWidgetsEv
PUBLIC 169948 0 _ZN12QApplication17activePopupWidgetEv
PUBLIC 1699c0 0 _ZN19QApplicationPrivate16isBlockedByModalEP7QWidget
PUBLIC 169bd0 0 _ZN19QApplicationPrivate17pickMouseReceiverEP7QWidgetRK6QPointRS2_N6QEvent4TypeE6QFlagsIN2Qt11MouseButtonEES1_S1_
PUBLIC 169cbc 0 _ZN19QApplicationPrivate13notify_helperEP7QObjectP6QEvent
PUBLIC 169dbc 0 _ZN19QApplicationPrivate14tryModalHelperEP7QWidgetPS1_
PUBLIC 169e00 0 _Z17qt_tryModalHelperP7QWidgetPS0_
PUBLIC 169e04 0 _ZN12QApplication15closeAllWindowsEv
PUBLIC 169fc8 0 _ZN19QApplicationPrivate20initializeMultitouchEv
PUBLIC 16a1f0 0 _ZN19QApplicationPrivate23findClosestTouchPointIdERK7QPointF
PUBLIC 16a358 0 _ZN19QApplicationPrivate17cleanupMultitouchEv
PUBLIC 16a580 0 _ZN12QApplication20changeOverrideCursorERK7QCursor
PUBLIC 16a620 0 _ZN12QApplication14overrideCursorEv
PUBLIC 16a68c 0 _ZN12QApplicationD2Ev
PUBLIC 16af48 0 _ZN12QApplicationD0Ev
PUBLIC 16af64 0 _ZN19QApplicationPrivate17setPalette_helperERK8QPalettePKcb
PUBLIC 16b554 0 _ZN12QApplication10setPaletteERK8QPalettePKc
PUBLIC 16b55c 0 _ZN19QApplicationPrivate16setSystemPaletteERK8QPalette
PUBLIC 16b61c 0 _ZN12QApplication7setFontERK5QFontPKc
PUBLIC 16bbd0 0 _ZN19QApplicationPrivate13setSystemFontERK5QFont
PUBLIC 16bc60 0 _ZN12QApplication13setWindowIconERK5QIcon
PUBLIC 16bdc8 0 _ZN19QApplicationPrivate10enterModalEP7QWidget
PUBLIC 16c210 0 _ZN19QApplicationPrivate10leaveModalEP7QWidget
PUBLIC 16c64c 0 _ZN12QApplication18setLayoutDirectionEN2Qt15LayoutDirectionE
PUBLIC 16c744 0 _ZN19QApplicationPrivate15process_cmdlineEv
PUBLIC 16d058 0 _ZN12QApplication13compressEventEP6QEventP7QObjectP14QPostEventList
PUBLIC 16d290 0 _ZN12QApplication8setStyleEP6QStyle
PUBLIC 16d79c 0 _ZN12QApplication13setStyleSheetERK7QString
PUBLIC 16d85c 0 _ZN12QApplication5styleEv
PUBLIC 16dbc8 0 _ZN19QApplicationPrivate10initializeEv
PUBLIC 16dd80 0 _ZN19QApplicationPrivate9constructEv
PUBLIC 16e014 0 _ZN12QApplicationC2ERiPPc
PUBLIC 16e094 0 _ZN12QApplicationC2ERiPPci
PUBLIC 16e128 0 _ZN12QApplicationC1ERiPPcb
PUBLIC 16e1ac 0 _ZN12QApplicationC1ERiPPcbi
PUBLIC 16e244 0 _ZN12QApplicationC2ERiPPcNS_4TypeE
PUBLIC 16e2c8 0 _ZN12QApplicationC2ERiPPcNS_4TypeEi
PUBLIC 16e360 0 _ZN12QApplication8setStyleERK7QString
PUBLIC 16e37c 0 _ZN19QApplicationPrivate14setFocusWidgetEP7QWidgetN2Qt11FocusReasonE
PUBLIC 16e7a4 0 _ZN12QApplication15setActiveWindowEP7QWidget
PUBLIC 16ee30 0 _ZN12QApplication5eventEP6QEvent
PUBLIC 16f264 0 _ZN19QApplicationPrivate18dispatchEnterLeaveEP7QWidgetS1_
PUBLIC 16f9dc 0 _ZN19QApplicationPrivate14sendMouseEventEP7QWidgetP11QMouseEventS1_S1_PS1_R8QPointerIS0_Eb
PUBLIC 16fd88 0 _ZN19QApplicationPrivate23sendSyntheticEnterLeaveEP7QWidget
PUBLIC 16ffb0 0 _ZN12QApplication6notifyEP7QObjectP6QEvent
PUBLIC 172318 0 _ZN19QApplicationPrivate22translateRawTouchEventEP7QWidgetN11QTouchEvent10DeviceTypeERK5QListINS2_10TouchPointEE
PUBLIC 173ec0 0 _Z25qt_translateRawTouchEventP7QWidgetN11QTouchEvent10DeviceTypeERK5QListINS1_10TouchPointEE
PUBLIC 173ec4 0 _ZN12QApplication11qt_metacastEPKc
PUBLIC 173f08 0 _ZN12QApplication11qt_metacallEN11QMetaObject4CallEiPPv
PUBLIC 175b20 0 _ZNK10QBoxLayout21minimumHeightForWidthEi
PUBLIC 175b54 0 _ZThn8_NK10QBoxLayout21minimumHeightForWidthEi
PUBLIC 175b5c 0 _ZNK10QBoxLayout5countEv
PUBLIC 175b74 0 _ZNK10QBoxLayout6itemAtEi
PUBLIC 175e50 0 _ZNK10QBoxLayout14heightForWidthEi
PUBLIC 175eb8 0 _ZThn8_NK10QBoxLayout14heightForWidthEi
PUBLIC 175ec0 0 _ZNK10QBoxLayout7spacingEv
PUBLIC 175eec 0 _ZN10QBoxLayout10setSpacingEi
PUBLIC 175f08 0 _ZN10QBoxLayout16setStretchFactorEP7QWidgeti
PUBLIC 175fa4 0 _ZN10QBoxLayout16setStretchFactorEP7QLayouti
PUBLIC 176050 0 _ZN10QBoxLayout10setStretchEii
PUBLIC 1760a8 0 _ZNK10QBoxLayout7stretchEi
PUBLIC 1760e8 0 _ZN10QBoxLayout12setDirectionENS_9DirectionE
PUBLIC 176254 0 _ZNK10QBoxLayout9directionEv
PUBLIC 176340 0 _ZN10QBoxLayoutC2ENS_9DirectionEP7QWidget
PUBLIC 176488 0 _ZN11QHBoxLayoutC1EP7QWidget
PUBLIC 1764d0 0 _ZN11QHBoxLayoutC1Ev
PUBLIC 176518 0 _ZN11QVBoxLayoutC2EP7QWidget
PUBLIC 176560 0 _ZN11QVBoxLayoutC1Ev
PUBLIC 1765a8 0 _ZN10QBoxLayout7addItemEP11QLayoutItem
PUBLIC 176600 0 _ZN10QBoxLayout8addStrutEi
PUBLIC 176688 0 _ZN10QBoxLayout12insertWidgetEiP7QWidgeti6QFlagsIN2Qt13AlignmentFlagEE
PUBLIC 1768c0 0 _ZN10QBoxLayout9addWidgetEP7QWidgeti6QFlagsIN2Qt13AlignmentFlagEE
PUBLIC 1768f0 0 _ZN10QBoxLayout10insertItemEiP11QLayoutItem
PUBLIC 176988 0 _ZN10QBoxLayout16insertSpacerItemEiP11QSpacerItem
PUBLIC 176a24 0 _ZN10QBoxLayout13addSpacerItemEP11QSpacerItem
PUBLIC 176a30 0 _ZN10QBoxLayout12insertLayoutEiP7QLayouti
PUBLIC 176adc 0 _ZN10QBoxLayout9addLayoutEP7QLayouti
PUBLIC 176aec 0 _ZN10QBoxLayout13insertStretchEii
PUBLIC 176bcc 0 _ZN10QBoxLayout10addStretchEi
PUBLIC 176bd8 0 _ZN10QBoxLayout13insertSpacingEii
PUBLIC 176cb0 0 _ZN10QBoxLayout10addSpacingEi
PUBLIC 177780 0 _ZNK10QBoxLayout8sizeHintEv
PUBLIC 1777b4 0 _ZThn8_NK10QBoxLayout8sizeHintEv
PUBLIC 1777bc 0 _ZNK10QBoxLayout11minimumSizeEv
PUBLIC 1777f0 0 _ZThn8_NK10QBoxLayout11minimumSizeEv
PUBLIC 1777f8 0 _ZNK10QBoxLayout11maximumSizeEv
PUBLIC 177868 0 _ZThn8_NK10QBoxLayout11maximumSizeEv
PUBLIC 177870 0 _ZNK10QBoxLayout17hasHeightForWidthEv
PUBLIC 177898 0 _ZThn8_NK10QBoxLayout17hasHeightForWidthEv
PUBLIC 1778a0 0 _ZNK10QBoxLayout19expandingDirectionsEv
PUBLIC 1778d0 0 _ZThn8_NK10QBoxLayout19expandingDirectionsEv
PUBLIC 1778d8 0 _ZN10QBoxLayout6takeAtEi
PUBLIC 177974 0 _ZN10QBoxLayoutD2Ev
PUBLIC 177a64 0 _ZThn8_N10QBoxLayoutD1Ev
PUBLIC 177a6c 0 _ZN10QBoxLayoutD0Ev
PUBLIC 177a88 0 _ZThn8_N10QBoxLayoutD0Ev
PUBLIC 177a90 0 _ZN11QHBoxLayoutD2Ev
PUBLIC 177acc 0 _ZThn8_N11QHBoxLayoutD1Ev
PUBLIC 177ad4 0 _ZN11QHBoxLayoutD0Ev
PUBLIC 177af0 0 _ZThn8_N11QHBoxLayoutD0Ev
PUBLIC 177af8 0 _ZN11QVBoxLayoutD1Ev
PUBLIC 177b34 0 _ZThn8_N11QVBoxLayoutD1Ev
PUBLIC 177b3c 0 _ZN11QVBoxLayoutD0Ev
PUBLIC 177b58 0 _ZThn8_N11QVBoxLayoutD0Ev
PUBLIC 177b60 0 _ZN10QBoxLayout10invalidateEv
PUBLIC 177c34 0 _ZThn8_N10QBoxLayout10invalidateEv
PUBLIC 177c3c 0 _ZN10QBoxLayout11setGeometryERK5QRect
PUBLIC 178220 0 _ZThn8_N10QBoxLayout11setGeometryERK5QRect
PUBLIC 178228 0 _ZN14QLayoutPrivateD1Ev
PUBLIC 17825c 0 _ZN14QLayoutPrivateD0Ev
PUBLIC 17879c 0 _ZN10QClipboardD2Ev
PUBLIC 1787d0 0 _ZN10QClipboardD0Ev
PUBLIC 178a4c 0 _ZN10QClipboardC2EP7QObject
PUBLIC 178b68 0 _ZNK10QClipboard4textENS_4ModeE
PUBLIC 178bd8 0 _ZN10QClipboard7setTextERK7QStringNS_4ModeE
PUBLIC 178c24 0 _ZN10QClipboard8setImageERK6QImageNS_4ModeE
PUBLIC 178c98 0 _ZN10QClipboard9setPixmapERK7QPixmapNS_4ModeE
PUBLIC 178d0c 0 _ZNK10QClipboard17supportsSelectionEv
PUBLIC 178d14 0 _ZNK10QClipboard18supportsFindBufferEv
PUBLIC 178d1c 0 _ZNK10QClipboard13ownsClipboardEv
PUBLIC 178d24 0 _ZNK10QClipboard13ownsSelectionEv
PUBLIC 178d2c 0 _ZNK10QClipboard14ownsFindBufferEv
PUBLIC 178d34 0 _ZN10QClipboard11emitChangedENS_4ModeE
PUBLIC 178da4 0 _ZNK10QClipboard4textER7QStringNS_4ModeE
PUBLIC 179564 0 _ZNK10QClipboard5imageENS_4ModeE
PUBLIC 179668 0 _ZNK10QClipboard6pixmapENS_4ModeE
PUBLIC 179ec0 0 _ZN7QCursorC1ERK7QBitmapS2_ii
PUBLIC 179fec 0 _ZN7QCursorC1Ev
PUBLIC 17a05c 0 _ZNK7QCursor5shapeEv
PUBLIC 17a08c 0 _ZN7QCursor8setShapeEN2Qt11CursorShapeE
PUBLIC 17a168 0 _ZN7QCursorC2EN2Qt11CursorShapeE
PUBLIC 17a1b4 0 _ZNK7QCursor6bitmapEv
PUBLIC 17a1e4 0 _ZNK7QCursor4maskEv
PUBLIC 17a214 0 _ZNK7QCursor6pixmapEv
PUBLIC 17a254 0 _ZNK7QCursor7hotSpotEv
PUBLIC 17a298 0 _ZN7QCursorC2ERKS_
PUBLIC 17a2f4 0 _ZN7QCursorD2Ev
PUBLIC 17a358 0 _ZN7QCursoraSERKS_
PUBLIC 17a410 0 _ZNK7QCursorcv8QVariantEv
PUBLIC 17a42c 0 _ZlsR11QDataStreamRK7QCursor
PUBLIC 17a544 0 _ZN7QCursorC1ERK7QPixmapii
PUBLIC 17a7e4 0 _ZrsR11QDataStreamR7QCursor
PUBLIC 17a97c 0 _ZN5QDragD1Ev
PUBLIC 17aa00 0 _ZN5QDragD0Ev
PUBLIC 17aa1c 0 _ZN5QDrag11setMimeDataEP9QMimeData
PUBLIC 17aa50 0 _ZNK5QDrag8mimeDataEv
PUBLIC 17aa5c 0 _ZN5QDrag9setPixmapERK7QPixmap
PUBLIC 17aa68 0 _ZNK5QDrag6pixmapEv
PUBLIC 17aa84 0 _ZN5QDrag10setHotSpotERK6QPoint
PUBLIC 17aa98 0 _ZNK5QDrag7hotSpotEv
PUBLIC 17aab4 0 _ZNK5QDrag6sourceEv
PUBLIC 17aac0 0 _ZNK5QDrag6targetEv
PUBLIC 17aacc 0 _ZN5QDrag4execE6QFlagsIN2Qt10DropActionEES2_
PUBLIC 17ab74 0 _ZN5QDrag4execE6QFlagsIN2Qt10DropActionEE
PUBLIC 17ab98 0 _ZN5QDrag5startE6QFlagsIN2Qt10DropActionEE
PUBLIC 17ac40 0 _ZN5QDrag13setDragCursorERK7QPixmapN2Qt10DropActionE
PUBLIC 17ada4 0 _ZN5QDragC2EP7QWidget
PUBLIC 17d15c 0 _ZN11QInputEventD2Ev
PUBLIC 17d190 0 _ZN11QInputEventD0Ev
PUBLIC 17d1ac 0 _ZN11QMouseEventD1Ev
PUBLIC 17d1e0 0 _ZN11QMouseEventD0Ev
PUBLIC 17d254 0 _ZN11QWheelEventD1Ev
PUBLIC 17d288 0 _ZN11QWheelEventD0Ev
PUBLIC 17d2a4 0 _ZN17QContextMenuEventD2Ev
PUBLIC 17d2d8 0 _ZN17QContextMenuEventD0Ev
PUBLIC 17d2f4 0 _ZN12QTabletEventD1Ev
PUBLIC 17d328 0 _ZN12QTabletEventD0Ev
PUBLIC 17d344 0 _ZN11QHoverEventD1Ev
PUBLIC 17d378 0 _ZN11QHoverEventD0Ev
PUBLIC 17d394 0 _ZN11QFocusEventD2Ev
PUBLIC 17d3c8 0 _ZN11QFocusEventD0Ev
PUBLIC 17d3e4 0 _ZN10QMoveEventD2Ev
PUBLIC 17d418 0 _ZN10QMoveEventD0Ev
PUBLIC 17d434 0 _ZN12QResizeEventD1Ev
PUBLIC 17d468 0 _ZN12QResizeEventD0Ev
PUBLIC 17d484 0 _ZN11QCloseEventD1Ev
PUBLIC 17d4b8 0 _ZN11QCloseEventD0Ev
PUBLIC 17d4d4 0 _ZN14QIconDragEventD1Ev
PUBLIC 17d508 0 _ZN14QIconDragEventD0Ev
PUBLIC 17d524 0 _ZN18QDragResponseEventD2Ev
PUBLIC 17d558 0 _ZN18QDragResponseEventD0Ev
PUBLIC 17d574 0 _ZN15QDragLeaveEventD1Ev
PUBLIC 17d5a8 0 _ZN15QDragLeaveEventD0Ev
PUBLIC 17d5c4 0 _ZN10QHelpEventD2Ev
PUBLIC 17d5f8 0 _ZN10QHelpEventD0Ev
PUBLIC 17d614 0 _ZN12QActionEventD1Ev
PUBLIC 17d648 0 _ZN12QActionEventD0Ev
PUBLIC 17d664 0 _ZN10QHideEventD1Ev
PUBLIC 17d698 0 _ZN10QHideEventD0Ev
PUBLIC 17d6b4 0 _ZN10QShowEventD2Ev
PUBLIC 17d6e8 0 _ZN10QShowEventD0Ev
PUBLIC 17d704 0 _ZN19QToolBarChangeEventD1Ev
PUBLIC 17d738 0 _ZN19QToolBarChangeEventD0Ev
PUBLIC 17d754 0 _ZN15QClipboardEventD2Ev
PUBLIC 17d788 0 _ZN15QClipboardEventD0Ev
PUBLIC 17d7a4 0 _ZN23QWindowStateChangeEventD2Ev
PUBLIC 17d7d8 0 _ZN23QWindowStateChangeEventD0Ev
PUBLIC 17d7f4 0 _ZN11QPaintEventD1Ev
PUBLIC 17d83c 0 _ZN11QPaintEventD0Ev
PUBLIC 17d8b0 0 _ZN14QShortcutEventD1Ev
PUBLIC 17d8f8 0 _ZN14QShortcutEventD0Ev
PUBLIC 17da08 0 _ZN9QKeyEventD2Ev
PUBLIC 17da88 0 _ZN9QKeyEventD0Ev
PUBLIC 17dafc 0 _ZN15QStatusTipEventD2Ev
PUBLIC 17db7c 0 _ZN15QStatusTipEventD0Ev
PUBLIC 17db98 0 _ZN22QWhatsThisClickedEventD1Ev
PUBLIC 17dc18 0 _ZN22QWhatsThisClickedEventD0Ev
PUBLIC 17dc34 0 _ZNK10QDropEvent11encodedDataEPKc
PUBLIC 17dcb8 0 _ZThn12_NK10QDropEvent11encodedDataEPKc
PUBLIC 17dcc0 0 _ZN14QFileOpenEventD2Ev
PUBLIC 17dd68 0 _ZN14QFileOpenEventD0Ev
PUBLIC 17dd84 0 _ZN11QInputEventC1EN6QEvent4TypeE6QFlagsIN2Qt16KeyboardModifierEE
PUBLIC 17ddc8 0 _ZN11QMouseEventC2EN6QEvent4TypeERK6QPointN2Qt11MouseButtonE6QFlagsIS6_ES7_INS5_16KeyboardModifierEE
PUBLIC 17de6c 0 _ZN11QMouseEventC1EN6QEvent4TypeERK6QPointS4_N2Qt11MouseButtonE6QFlagsIS6_ES7_INS5_16KeyboardModifierEE
PUBLIC 17def4 0 _ZNK11QMouseEvent4posFEv
PUBLIC 17e0bc 0 _ZN11QMouseEvent24createExtendedMouseEventEN6QEvent4TypeERK7QPointFRK6QPointN2Qt11MouseButtonE6QFlagsIS9_ESA_INS8_16KeyboardModifierEE
PUBLIC 17e134 0 _ZN11QHoverEventC2EN6QEvent4TypeERK6QPointS4_
PUBLIC 17e18c 0 _ZN11QWheelEventC2ERK6QPointi6QFlagsIN2Qt11MouseButtonEES3_INS4_16KeyboardModifierEENS4_11OrientationE
PUBLIC 17e23c 0 _ZN11QWheelEventC2ERK6QPointS2_i6QFlagsIN2Qt11MouseButtonEES3_INS4_16KeyboardModifierEENS4_11OrientationE
PUBLIC 17e2d0 0 _ZN9QKeyEventC2EN6QEvent4TypeEi6QFlagsIN2Qt16KeyboardModifierEERK7QStringbt
PUBLIC 17e380 0 _ZN9QKeyEvent22createExtendedKeyEventEN6QEvent4TypeEi6QFlagsIN2Qt16KeyboardModifierEEjjjRK7QStringbt
PUBLIC 17e410 0 _ZNK9QKeyEvent14nativeScanCodeEv
PUBLIC 17e424 0 _ZNK9QKeyEvent16nativeVirtualKeyEv
PUBLIC 17e438 0 _ZNK9QKeyEvent15nativeModifiersEv
PUBLIC 17e534 0 _ZNK9QKeyEvent9modifiersEv
PUBLIC 17e5b4 0 _ZNK9QKeyEvent7matchesEN12QKeySequence11StandardKeyE
PUBLIC 17e748 0 _ZN11QFocusEventC2EN6QEvent4TypeEN2Qt11FocusReasonE
PUBLIC 17e788 0 _ZN11QFocusEvent6reasonEv
PUBLIC 17e790 0 _ZNK11QFocusEvent6reasonEv
PUBLIC 17e798 0 _ZN11QPaintEventC1ERK7QRegion
PUBLIC 17e804 0 _ZN11QPaintEventC1ERK5QRect
PUBLIC 17e8bc 0 _ZN10QMoveEventC2ERK6QPointS2_
PUBLIC 17e918 0 _ZN12QResizeEventC2ERK5QSizeS2_
PUBLIC 17e974 0 _ZN11QCloseEventC2Ev
PUBLIC 17e9b0 0 _ZN14QIconDragEventC2Ev
PUBLIC 17e9f8 0 _ZN17QContextMenuEventC1ENS_6ReasonERK6QPointS3_
PUBLIC 17ea74 0 _ZN17QContextMenuEventC2ENS_6ReasonERK6QPointS3_6QFlagsIN2Qt16KeyboardModifierEE
PUBLIC 17eaf4 0 _ZN17QContextMenuEventC1ENS_6ReasonERK6QPoint
PUBLIC 17eb88 0 _ZN17QInputMethodEvent15setCommitStringERK7QStringii
PUBLIC 17ebac 0 _ZN12QTabletEventC1EN6QEvent4TypeERK6QPointS4_RK7QPointFiifiiffi6QFlagsIN2Qt16KeyboardModifierEEx
PUBLIC 17ec7c 0 _ZNK10QDropEvent6sourceEv
PUBLIC 17eca0 0 _ZN10QDropEvent13setDropActionEN2Qt10DropActionE
PUBLIC 17ecbc 0 _ZN18QDragResponseEventC2Eb
PUBLIC 17ed00 0 _ZN15QDragLeaveEventC1Ev
PUBLIC 17ed3c 0 _ZN10QHelpEventC1EN6QEvent4TypeERK6QPointS4_
PUBLIC 17ed94 0 _ZN15QStatusTipEventC2ERK7QString
PUBLIC 17ee08 0 _ZN22QWhatsThisClickedEventC1ERK7QString
PUBLIC 17ee7c 0 _ZN12QActionEventC2EiP7QActionS1_
PUBLIC 17eec4 0 _ZN10QHideEventC2Ev
PUBLIC 17ef00 0 _ZN10QShowEventC2Ev
PUBLIC 17ef3c 0 _ZN14QFileOpenEventC2ERK7QString
PUBLIC 17f00c 0 _ZN14QFileOpenEventC2ERK4QUrl
PUBLIC 17f138 0 _ZNK14QFileOpenEvent3urlEv
PUBLIC 17f150 0 _ZN19QToolBarChangeEventC2Eb
PUBLIC 17f1a4 0 _ZN14QShortcutEventC2ERK12QKeySequenceib
PUBLIC 17f20c 0 _ZN15QClipboardEventC1EP13QEventPrivate
PUBLIC 17f250 0 _ZN23QWindowStateChangeEventC2E6QFlagsIN2Qt11WindowStateEE
PUBLIC 17f298 0 _ZN23QWindowStateChangeEventC2E6QFlagsIN2Qt11WindowStateEEb
PUBLIC 17f2ec 0 _ZNK23QWindowStateChangeEvent10isOverrideEv
PUBLIC 17f2fc 0 _ZN11QTouchEvent10TouchPointC1Ei
PUBLIC 17f3bc 0 _ZN11QTouchEvent10TouchPointC1ERKS0_
PUBLIC 17f3f4 0 _ZN11QTouchEvent10TouchPointD1Ev
PUBLIC 17f4ac 0 _ZN11QTouchEventD1Ev
PUBLIC 17f530 0 _ZN11QTouchEventD0Ev
PUBLIC 17f54c 0 _ZNK11QTouchEvent10TouchPoint2idEv
PUBLIC 17f558 0 _ZNK11QTouchEvent10TouchPoint5stateEv
PUBLIC 17f568 0 _ZNK11QTouchEvent10TouchPoint9isPrimaryEv
PUBLIC 17f57c 0 _ZNK11QTouchEvent10TouchPoint3posEv
PUBLIC 17f5c8 0 _ZNK11QTouchEvent10TouchPoint8scenePosEv
PUBLIC 17f614 0 _ZNK11QTouchEvent10TouchPoint9screenPosEv
PUBLIC 17f660 0 _ZNK11QTouchEvent10TouchPoint13normalizedPosEv
PUBLIC 17f67c 0 _ZNK11QTouchEvent10TouchPoint8startPosEv
PUBLIC 17f698 0 _ZNK11QTouchEvent10TouchPoint13startScenePosEv
PUBLIC 17f6b4 0 _ZNK11QTouchEvent10TouchPoint14startScreenPosEv
PUBLIC 17f6d0 0 _ZNK11QTouchEvent10TouchPoint18startNormalizedPosEv
PUBLIC 17f6ec 0 _ZNK11QTouchEvent10TouchPoint7lastPosEv
PUBLIC 17f708 0 _ZNK11QTouchEvent10TouchPoint12lastScenePosEv
PUBLIC 17f724 0 _ZNK11QTouchEvent10TouchPoint13lastScreenPosEv
PUBLIC 17f740 0 _ZNK11QTouchEvent10TouchPoint17lastNormalizedPosEv
PUBLIC 17f75c 0 _ZNK11QTouchEvent10TouchPoint4rectEv
PUBLIC 17f778 0 _ZNK11QTouchEvent10TouchPoint9sceneRectEv
PUBLIC 17f794 0 _ZNK11QTouchEvent10TouchPoint10screenRectEv
PUBLIC 17f7b0 0 _ZNK11QTouchEvent10TouchPoint8pressureEv
PUBLIC 17f7bc 0 _ZN11QTouchEvent10TouchPoint5setIdEi
PUBLIC 17f914 0 _ZN11QTouchEvent10TouchPoint8setStateE6QFlagsIN2Qt15TouchPointStateEE
PUBLIC 17fa70 0 _ZN11QTouchEvent10TouchPoint6setPosERK7QPointF
PUBLIC 17fbfc 0 _ZN11QTouchEvent10TouchPoint11setScenePosERK7QPointF
PUBLIC 17fd88 0 _ZN11QTouchEvent10TouchPoint12setScreenPosERK7QPointF
PUBLIC 17ff14 0 _ZN11QTouchEvent10TouchPoint16setNormalizedPosERK7QPointF
PUBLIC 180074 0 _ZN11QTouchEvent10TouchPoint11setStartPosERK7QPointF
PUBLIC 1801d4 0 _ZN11QTouchEvent10TouchPoint16setStartScenePosERK7QPointF
PUBLIC 180334 0 _ZN11QTouchEvent10TouchPoint17setStartScreenPosERK7QPointF
PUBLIC 180494 0 _ZN11QTouchEvent10TouchPoint21setStartNormalizedPosERK7QPointF
PUBLIC 1805f4 0 _ZN11QTouchEvent10TouchPoint10setLastPosERK7QPointF
PUBLIC 180754 0 _ZN11QTouchEvent10TouchPoint15setLastScenePosERK7QPointF
PUBLIC 1808b4 0 _ZN11QTouchEvent10TouchPoint16setLastScreenPosERK7QPointF
PUBLIC 180a14 0 _ZN11QTouchEvent10TouchPoint20setLastNormalizedPosERK7QPointF
PUBLIC 180b74 0 _ZN11QTouchEvent10TouchPoint7setRectERK6QRectF
PUBLIC 180cd4 0 _ZN11QTouchEvent10TouchPoint12setSceneRectERK6QRectF
PUBLIC 180e34 0 _ZN11QTouchEvent10TouchPoint13setScreenRectERK6QRectF
PUBLIC 180f94 0 _ZN11QTouchEvent10TouchPoint11setPressureEf
PUBLIC 1810ec 0 _ZN11QTouchEvent10TouchPointaSERKS0_
PUBLIC 181160 0 _ZN13QGestureEvent6d_funcEv
PUBLIC 181168 0 _ZN13QGestureEvent9setWidgetEP7QWidget
PUBLIC 18117c 0 _ZNK13QGestureEvent6d_funcEv
PUBLIC 181184 0 _ZNK13QGestureEvent6widgetEv
PUBLIC 181194 0 _ZNK13QGestureEvent18mapToGraphicsSceneERK7QPointF
PUBLIC 181310 0 _ZNK13QGestureEvent7gestureEN2Qt11GestureTypeE
PUBLIC 181390 0 _ZNK13QGestureEvent10isAcceptedEN2Qt11GestureTypeE
PUBLIC 18141c 0 _ZNK13QGestureEvent10isAcceptedEP8QGesture
PUBLIC 181448 0 _ZNK10QDropEvent8providesEPKc
PUBLIC 181504 0 _ZThn12_NK10QDropEvent8providesEPKc
PUBLIC 18150c 0 _ZN10QDropEventC1ERK6QPoint6QFlagsIN2Qt10DropActionEEPK9QMimeDataS3_INS4_11MouseButtonEES3_INS4_16KeyboardModifierEEN6QEvent4TypeE
PUBLIC 181614 0 _ZN14QDragMoveEventC1ERK6QPoint6QFlagsIN2Qt10DropActionEEPK9QMimeDataS3_INS4_11MouseButtonEES3_INS4_16KeyboardModifierEEN6QEvent4TypeE
PUBLIC 1816b4 0 _ZN15QDragEnterEventC2ERK6QPoint6QFlagsIN2Qt10DropActionEEPK9QMimeDataS3_INS4_11MouseButtonEES3_INS4_16KeyboardModifierEE
PUBLIC 181734 0 _ZN10QDropEventD2Ev
PUBLIC 18179c 0 _ZThn12_N10QDropEventD1Ev
PUBLIC 1817a4 0 _ZN10QDropEventD0Ev
PUBLIC 1817c0 0 _ZThn12_N10QDropEventD0Ev
PUBLIC 1817c8 0 _ZN14QDragMoveEventD1Ev
PUBLIC 181804 0 _ZThn12_N14QDragMoveEventD1Ev
PUBLIC 18180c 0 _ZN14QDragMoveEventD0Ev
PUBLIC 181828 0 _ZThn12_N14QDragMoveEventD0Ev
PUBLIC 181830 0 _ZN15QDragEnterEventD1Ev
PUBLIC 18186c 0 _ZThn12_N15QDragEnterEventD1Ev
PUBLIC 181874 0 _ZN15QDragEnterEventD0Ev
PUBLIC 181890 0 _ZThn12_N15QDragEnterEventD0Ev
PUBLIC 181898 0 _ZN13QGestureEventD2Ev
PUBLIC 1819cc 0 _ZN13QGestureEventD0Ev
PUBLIC 1819e8 0 _ZN17QInputMethodEventC2Ev
PUBLIC 181ac8 0 _ZNK10QDropEvent6formatEi
PUBLIC 181c0c 0 _ZThn12_NK10QDropEvent6formatEi
PUBLIC 181c14 0 _ZN11QTouchEventC2EN6QEvent4TypeENS_10DeviceTypeE6QFlagsIN2Qt16KeyboardModifierEES3_INS4_15TouchPointStateEERK5QListINS_10TouchPointEE
PUBLIC 181ce0 0 _ZNK13QGestureEvent8gesturesEv
PUBLIC 181d3c 0 _ZN13QGestureEventC2ERK5QListIP8QGestureE
PUBLIC 181e5c 0 _ZNK13QGestureEvent16canceledGesturesEv
PUBLIC 181fa8 0 _ZNK13QGestureEvent14activeGesturesEv
PUBLIC 1820f0 0 _ZN17QInputMethodEventC1ERK7QStringRK5QListINS_9AttributeEE
PUBLIC 1821f8 0 _ZN17QInputMethodEventC1ERKS_
PUBLIC 182300 0 _ZN13QGestureEvent11setAcceptedEN2Qt11GestureTypeEb
PUBLIC 1823fc 0 _ZN13QGestureEvent11setAcceptedEP8QGestureb
PUBLIC 18242c 0 _ZN13QGestureEvent6acceptEP8QGesture
PUBLIC 182458 0 _ZN13QGestureEvent6ignoreEP8QGesture
PUBLIC 182484 0 _ZN13QGestureEvent6acceptEN2Qt11GestureTypeE
PUBLIC 18248c 0 _ZN13QGestureEvent6ignoreEN2Qt11GestureTypeE
PUBLIC 182494 0 _Zls6QDebugPK6QEvent
PUBLIC 183ed0 0 _ZNK11QFormLayout5countEv
PUBLIC 183ee8 0 _ZNK11QFormLayout6itemAtEi
PUBLIC 183f58 0 _ZNK11QFormLayout8rowCountEv
PUBLIC 183f70 0 _ZNK11QFormLayout6itemAtEiNS_8ItemRoleE
PUBLIC 183fe8 0 _ZNK11QFormLayout15getItemPositionEiPiPNS_8ItemRoleE
PUBLIC 1840f0 0 _ZNK11QFormLayout17getLayoutPositionEP7QLayoutPiPNS_8ItemRoleE
PUBLIC 184174 0 _ZNK11QFormLayout17getWidgetPositionEP7QWidgetPiPNS_8ItemRoleE
PUBLIC 1841a8 0 _ZNK11QFormLayout13labelForFieldEP7QWidget
PUBLIC 184210 0 _ZNK11QFormLayout13labelForFieldEP7QLayout
PUBLIC 184278 0 _ZN11QFormLayout20setFieldGrowthPolicyENS_17FieldGrowthPolicyE
PUBLIC 1842a0 0 _ZNK11QFormLayout17fieldGrowthPolicyEv
PUBLIC 1842ec 0 _ZN11QFormLayout16setRowWrapPolicyENS_13RowWrapPolicyE
PUBLIC 184314 0 _ZNK11QFormLayout13rowWrapPolicyEv
PUBLIC 184360 0 _ZN11QFormLayout17setLabelAlignmentE6QFlagsIN2Qt13AlignmentFlagEE
PUBLIC 18438c 0 _ZNK11QFormLayout14labelAlignmentEv
PUBLIC 1843ec 0 _ZN11QFormLayout16setFormAlignmentE6QFlagsIN2Qt13AlignmentFlagEE
PUBLIC 184418 0 _ZNK11QFormLayout13formAlignmentEv
PUBLIC 184478 0 _ZN11QFormLayout20setHorizontalSpacingEi
PUBLIC 1844a0 0 _ZNK11QFormLayout17horizontalSpacingEv
PUBLIC 1844c0 0 _ZN11QFormLayout18setVerticalSpacingEi
PUBLIC 1844e8 0 _ZNK11QFormLayout15verticalSpacingEv
PUBLIC 184508 0 _ZN11QFormLayout10setSpacingEi
PUBLIC 184524 0 _ZNK11QFormLayout7spacingEv
PUBLIC 18454c 0 _ZN11QFormLayout22resetFieldGrowthPolicyEv
PUBLIC 18455c 0 _ZN11QFormLayout18resetRowWrapPolicyEv
PUBLIC 18456c 0 _ZN11QFormLayout18resetFormAlignmentEv
PUBLIC 18457c 0 _ZN11QFormLayout19resetLabelAlignmentEv
PUBLIC 184700 0 _ZN11QFormLayoutC1EP7QWidget
PUBLIC 184c08 0 _ZN11QFormLayout9insertRowEiP7QLayout
PUBLIC 184d14 0 _ZN11QFormLayout6addRowEP7QLayout
PUBLIC 184d20 0 _ZN11QFormLayout9setLayoutEiNS_8ItemRoleEP7QLayout
PUBLIC 184de8 0 _ZN11QFormLayout9insertRowEiP7QWidgetS1_
PUBLIC 184e54 0 _ZN11QFormLayout6addRowEP7QWidgetS1_
PUBLIC 184e64 0 _ZN11QFormLayout9insertRowEiRK7QStringP7QWidget
PUBLIC 184ee8 0 _ZN11QFormLayout6addRowERK7QStringP7QWidget
PUBLIC 184ef8 0 _ZN11QFormLayout9insertRowEiP7QWidgetP7QLayout
PUBLIC 184f64 0 _ZN11QFormLayout6addRowEP7QWidgetP7QLayout
PUBLIC 184f74 0 _ZN11QFormLayout9insertRowEiRK7QStringP7QLayout
PUBLIC 184ff0 0 _ZN11QFormLayout6addRowERK7QStringP7QLayout
PUBLIC 185000 0 _ZN11QFormLayout9insertRowEiP7QWidget
PUBLIC 18510c 0 _ZN11QFormLayout6addRowEP7QWidget
PUBLIC 185118 0 _ZN11QFormLayout9setWidgetEiNS_8ItemRoleEP7QWidget
PUBLIC 185194 0 _ZN11QFormLayout7addItemEP11QLayoutItem
PUBLIC 1851e4 0 _ZN11QFormLayout7setItemEiNS_8ItemRoleEP11QLayoutItem
PUBLIC 185b14 0 _ZNK11QFormLayout19expandingDirectionsEv
PUBLIC 185b58 0 _ZThn8_NK11QFormLayout19expandingDirectionsEv
PUBLIC 185b60 0 _ZNK11QFormLayout17hasHeightForWidthEv
PUBLIC 185ba0 0 _ZThn8_NK11QFormLayout17hasHeightForWidthEv
PUBLIC 1875f8 0 _ZNK11QFormLayout8sizeHintEv
PUBLIC 18763c 0 _ZThn8_NK11QFormLayout8sizeHintEv
PUBLIC 187644 0 _ZNK11QFormLayout11minimumSizeEv
PUBLIC 187688 0 _ZThn8_NK11QFormLayout11minimumSizeEv
PUBLIC 187690 0 _ZNK11QFormLayout14heightForWidthEi
PUBLIC 187760 0 _ZThn8_NK11QFormLayout14heightForWidthEi
PUBLIC 187768 0 _ZN11QFormLayoutD2Ev
PUBLIC 1878b8 0 _ZThn8_N11QFormLayoutD1Ev
PUBLIC 1878c0 0 _ZN11QFormLayoutD0Ev
PUBLIC 1878dc 0 _ZThn8_N11QFormLayoutD0Ev
PUBLIC 1878e4 0 _ZN11QFormLayout6takeAtEi
PUBLIC 187a7c 0 _ZN11QFormLayout11setGeometryERK5QRect
PUBLIC 187c98 0 _ZThn8_N11QFormLayout11setGeometryERK5QRect
PUBLIC 187ca0 0 _ZN11QFormLayout10invalidateEv
PUBLIC 187ce0 0 _ZThn8_N11QFormLayout10invalidateEv
PUBLIC 18859c 0 _ZNK11QGridLayout5countEv
PUBLIC 1885b4 0 _ZNK11QGridLayout6itemAtEi
PUBLIC 1888b8 0 _ZN11QGridLayout20setHorizontalSpacingEi
PUBLIC 1888d4 0 _ZNK11QGridLayout17horizontalSpacingEv
PUBLIC 1888f4 0 _ZN11QGridLayout18setVerticalSpacingEi
PUBLIC 188910 0 _ZNK11QGridLayout15verticalSpacingEv
PUBLIC 188930 0 _ZN11QGridLayout10setSpacingEi
PUBLIC 18894c 0 _ZNK11QGridLayout7spacingEv
PUBLIC 188974 0 _ZNK11QGridLayout8rowCountEv
PUBLIC 188980 0 _ZNK11QGridLayout11columnCountEv
PUBLIC 18898c 0 _ZNK11QGridLayout14itemAtPositionEii
PUBLIC 188a28 0 _ZN11QGridLayout15getItemPositionEiPiS0_S0_S0_
PUBLIC 188ab8 0 _ZNK11QGridLayout8cellRectEii
PUBLIC 188ad0 0 _ZNK11QGridLayout10rowStretchEi
PUBLIC 188ae4 0 _ZNK11QGridLayout13columnStretchEi
PUBLIC 188af8 0 _ZNK11QGridLayout16rowMinimumHeightEi
PUBLIC 188b0c 0 _ZNK11QGridLayout18columnMinimumWidthEi
PUBLIC 188b20 0 _ZN11QGridLayout15setOriginCornerEN2Qt6CornerE
PUBLIC 188b58 0 _ZNK11QGridLayout12originCornerEv
PUBLIC 18a6d0 0 _ZNK11QGridLayout17hasHeightForWidthEv
PUBLIC 18a70c 0 _ZThn8_NK11QGridLayout17hasHeightForWidthEv
PUBLIC 18a80c 0 _ZNK11QGridLayout8sizeHintEv
PUBLIC 18a880 0 _ZThn8_NK11QGridLayout8sizeHintEv
PUBLIC 18a8b0 0 _ZNK11QGridLayout11maximumSizeEv
PUBLIC 18a958 0 _ZThn8_NK11QGridLayout11maximumSizeEv
PUBLIC 18a988 0 _ZNK11QGridLayout11minimumSizeEv
PUBLIC 18a9fc 0 _ZThn8_NK11QGridLayout11minimumSizeEv
PUBLIC 18aac8 0 _ZNK11QGridLayout19expandingDirectionsEv
PUBLIC 18ab08 0 _ZThn8_NK11QGridLayout19expandingDirectionsEv
PUBLIC 18abd4 0 _ZNK11QGridLayout21minimumHeightForWidthEi
PUBLIC 18ac2c 0 _ZThn8_NK11QGridLayout21minimumHeightForWidthEi
PUBLIC 18ac34 0 _ZNK11QGridLayout14heightForWidthEi
PUBLIC 18ac6c 0 _ZThn8_NK11QGridLayout14heightForWidthEi
PUBLIC 18b32c 0 _ZN11QGridLayout21setDefaultPositioningEiN2Qt11OrientationE
PUBLIC 18b398 0 _ZN11QGridLayout19setRowMinimumHeightEii
PUBLIC 18b420 0 _ZN11QGridLayout13setRowStretchEii
PUBLIC 18b4a8 0 _ZN11QGridLayout21setColumnMinimumWidthEii
PUBLIC 18b534 0 _ZN11QGridLayout16setColumnStretchEii
PUBLIC 18b5c0 0 _ZN11QGridLayoutC2EP7QWidget
PUBLIC 18b658 0 _ZN11QGridLayoutC1Ev
PUBLIC 18b778 0 _ZN11QGridLayout9addLayoutEP7QLayoutii6QFlagsIN2Qt13AlignmentFlagEE
PUBLIC 18b908 0 _ZN11QGridLayout7addItemEP11QLayoutItemiiii6QFlagsIN2Qt13AlignmentFlagEE
PUBLIC 18b9a4 0 _ZN11QGridLayout7addItemEP11QLayoutItem
PUBLIC 18b9e0 0 _ZN11QGridLayout9addWidgetEP7QWidgetii6QFlagsIN2Qt13AlignmentFlagEE
PUBLIC 18bc7c 0 _ZN11QGridLayout9addWidgetEP7QWidgetiiii6QFlagsIN2Qt13AlignmentFlagEE
PUBLIC 18bd44 0 _ZN11QGridLayout9addLayoutEP7QLayoutiiii6QFlagsIN2Qt13AlignmentFlagEE
PUBLIC 18bdd4 0 _ZN11QGridLayout6takeAtEi
PUBLIC 18bf74 0 _ZN11QGridLayoutD1Ev
PUBLIC 18bfc8 0 _ZThn8_N11QGridLayoutD1Ev
PUBLIC 18bfd0 0 _ZN11QGridLayoutD0Ev
PUBLIC 18bfec 0 _ZThn8_N11QGridLayoutD0Ev
PUBLIC 18bff4 0 _ZN11QGridLayout11setGeometryERK5QRect
PUBLIC 18c0e0 0 _ZThn8_N11QGridLayout11setGeometryERK5QRect
PUBLIC 18c0e8 0 _ZN11QGridLayout10invalidateEv
PUBLIC 18c104 0 _ZThn8_N11QGridLayout10invalidateEv
PUBLIC 18c988 0 _Z29qt_set_sequence_auto_mnemonicb
PUBLIC 18c9a0 0 _ZN12QKeySequenceC1Ev
PUBLIC 18ca3c 0 _ZN12QKeySequenceC2Eiiii
PUBLIC 18ca84 0 _ZN12QKeySequenceC2ERKS_
PUBLIC 18cabc 0 _ZN12QKeySequenceD2Ev
PUBLIC 18cb58 0 _ZN12QKeySequence6setKeyEii
PUBLIC 18cc00 0 _ZNK12QKeySequence5countEv
PUBLIC 18cc4c 0 _ZNK12QKeySequence7isEmptyEv
PUBLIC 18d680 0 _ZN12QKeySequence12encodeStringEi
PUBLIC 18d698 0 _ZNK12QKeySequencecv8QVariantEv
PUBLIC 18d6b4 0 _ZNK12QKeySequencecviEv
PUBLIC 18d6d0 0 _ZNK12QKeySequenceixEj
PUBLIC 18d6e0 0 _ZNK12QKeySequence7matchesERKS_
PUBLIC 18d75c 0 _ZN12QKeySequenceaSERKS_
PUBLIC 18d7d8 0 _ZN12QKeySequence8mnemonicERK7QString
PUBLIC 18d8e4 0 _ZNK12QKeySequenceeqERKS_
PUBLIC 18d93c 0 _ZNK12QKeySequenceltERKS_
PUBLIC 18d980 0 _ZNK12QKeySequence10isDetachedEv
PUBLIC 18d998 0 _ZNK12QKeySequence8toStringENS_14SequenceFormatE
PUBLIC 18dacc 0 _ZNK12QKeySequencecv7QStringEv
PUBLIC 18dae4 0 _Zls6QDebugRK12QKeySequence
PUBLIC 18dc6c 0 _ZN12QKeySequence11keyBindingsENS_11StandardKeyE
PUBLIC 18de38 0 _ZN12QKeySequenceC1ENS_11StandardKeyE
PUBLIC 18dee4 0 _ZlsR11QDataStreamRK12QKeySequence
PUBLIC 18e038 0 _ZrsR11QDataStreamR12QKeySequence
PUBLIC 18f5b4 0 _ZN12QKeySequence6assignERK7QStringNS_14SequenceFormatE
PUBLIC 18f860 0 _ZN12QKeySequenceC2ERK7QStringNS_14SequenceFormatE
PUBLIC 18f8b8 0 _ZN12QKeySequence10fromStringERK7QStringNS_14SequenceFormatE
PUBLIC 18f8cc 0 _ZN12QKeySequence6assignERK7QString
PUBLIC 18f8d4 0 _ZN12QKeySequenceC1ERK7QString
PUBLIC 18f924 0 _ZN12QKeySequence12decodeStringERK7QString
PUBLIC 190264 0 _ZNK7QLayout7isEmptyEv
PUBLIC 1902d4 0 _ZThn8_NK7QLayout7isEmptyEv
PUBLIC 1902dc 0 _ZN7QLayout11setGeometryERK5QRect
PUBLIC 1902f0 0 _ZThn8_N7QLayout11setGeometryERK5QRect
PUBLIC 1902f8 0 _ZNK7QLayout8geometryEv
PUBLIC 190314 0 _ZThn8_NK7QLayout8geometryEv
PUBLIC 1903d0 0 _ZNK7QLayout11minimumSizeEv
PUBLIC 1903e0 0 _ZThn8_NK7QLayout11minimumSizeEv
PUBLIC 1903e8 0 _ZNK7QLayout11maximumSizeEv
PUBLIC 1903fc 0 _ZThn8_NK7QLayout11maximumSizeEv
PUBLIC 190404 0 _ZNK7QLayout19expandingDirectionsEv
PUBLIC 190410 0 _ZThn8_NK7QLayout19expandingDirectionsEv
PUBLIC 190418 0 _ZNK7QLayout7indexOfEP7QWidget
PUBLIC 190488 0 _ZN7QLayoutD2Ev
PUBLIC 190538 0 _ZThn8_N7QLayoutD1Ev
PUBLIC 190540 0 _ZN7QLayoutD0Ev
PUBLIC 19055c 0 _ZThn8_N7QLayoutD0Ev
PUBLIC 190564 0 _ZN7QLayout10childEventEP11QChildEvent
PUBLIC 1906e4 0 _ZN14QLayoutPrivateC2Ev
PUBLIC 190768 0 _ZN7QLayoutC2EP7QWidget
PUBLIC 190800 0 _ZN7QLayoutC1Ev
PUBLIC 19086c 0 _ZN14QLayoutPrivate16createWidgetItemEPK7QLayoutP7QWidget
PUBLIC 1908d0 0 _ZN14QLayoutPrivate16createSpacerItemEPK7QLayoutiiN11QSizePolicy6PolicyES4_
PUBLIC 190974 0 _ZN7QLayout12setAlignmentEP7QWidget6QFlagsIN2Qt13AlignmentFlagEE
PUBLIC 190a1c 0 _ZN7QLayout12setAlignmentEPS_6QFlagsIN2Qt13AlignmentFlagEE
PUBLIC 190ac4 0 _ZNK7QLayout7spacingEv
PUBLIC 190b64 0 _ZN7QLayout10setSpacingEi
PUBLIC 190c10 0 _ZN7QLayout18setContentsMarginsEiiii
PUBLIC 190c70 0 _ZN7QLayout9setMarginEi
PUBLIC 190c90 0 _ZN7QLayout18setContentsMarginsERK8QMargins
PUBLIC 190cb4 0 _ZNK7QLayout12parentWidgetEv
PUBLIC 190d1c 0 _ZNK14QLayoutPrivate9getMarginEPiiN6QStyle11PixelMetricE
PUBLIC 190d84 0 _ZNK7QLayout18getContentsMarginsEPiS0_S0_S0_
PUBLIC 190de8 0 _ZNK7QLayout6marginEv
PUBLIC 190e44 0 _ZNK7QLayout15contentsMarginsEv
PUBLIC 190e84 0 _ZNK7QLayout12contentsRectEv
PUBLIC 190ef0 0 _ZN14QLayoutPrivate8doResizeERK5QSize
PUBLIC 190fc8 0 _ZNK7QLayout19totalHeightForWidthEi
PUBLIC 19103c 0 _ZNK7QLayout16totalMinimumSizeEv
PUBLIC 1910d4 0 _ZNK7QLayout13totalSizeHintEv
PUBLIC 1911a4 0 _ZNK7QLayout16totalMaximumSizeEv
PUBLIC 191264 0 _ZN14QLayoutPrivate20reparentChildWidgetsEP7QWidget
PUBLIC 1914cc 0 _ZN7QLayout14addChildLayoutEPS_
PUBLIC 191608 0 _ZN7QLayout14addChildWidgetEP7QWidget
PUBLIC 191828 0 _ZN7QLayout9addWidgetEP7QWidget
PUBLIC 19185c 0 _ZN7QLayout10setMenuBarEP7QWidget
PUBLIC 191878 0 _ZNK7QLayout7menuBarEv
PUBLIC 191884 0 _ZN7QLayout23activateRecursiveHelperEP11QLayoutItem
PUBLIC 1918f4 0 _ZN7QLayout6updateEv
PUBLIC 191974 0 _ZN7QLayout10invalidateEv
PUBLIC 191994 0 _ZThn8_N7QLayout10invalidateEv
PUBLIC 19199c 0 _ZN7QLayoutC1ER14QLayoutPrivatePS_P7QWidget
PUBLIC 191c6c 0 _ZN7QLayout17setSizeConstraintENS_14SizeConstraintE
PUBLIC 191c94 0 _ZNK7QLayout14sizeConstraintEv
PUBLIC 191ca0 0 _ZNK7QLayout13alignmentRectERK5QRect
PUBLIC 191f1c 0 _ZN7QLayout12removeWidgetEP7QWidget
PUBLIC 191fa4 0 _ZN7QLayout10removeItemEP11QLayoutItem
PUBLIC 19200c 0 _ZN7QLayout10setEnabledEb
PUBLIC 192028 0 _ZNK7QLayout9isEnabledEv
PUBLIC 19203c 0 _ZN7QLayout21closestAcceptableSizeEPK7QWidgetRK5QSize
PUBLIC 19229c 0 _ZN11QSizePolicy14setControlTypeENS_11ControlTypeE
PUBLIC 1922d4 0 _ZNK11QSizePolicy11controlTypeEv
PUBLIC 1922ec 0 _ZlsR11QDataStreamRK11QSizePolicy
PUBLIC 1922f4 0 _ZrsR11QDataStreamR11QSizePolicy
PUBLIC 1922f8 0 _ZN7QLayout8activateEv
PUBLIC 192634 0 _ZN7QLayout11widgetEventEP6QEvent
PUBLIC 1926b8 0 _Z13qSmartMinSizeRK5QSizeS1_S1_S1_RK11QSizePolicy
PUBLIC 192778 0 _Z13qSmartMinSizePK11QWidgetItem
PUBLIC 192820 0 _Z13qSmartMinSizePK7QWidget
PUBLIC 1928b4 0 _Z13qSmartMaxSizeRK5QSizeS1_S1_RK11QSizePolicy6QFlagsIN2Qt13AlignmentFlagEE
PUBLIC 192988 0 _Z13qSmartMaxSizePK11QWidgetItem6QFlagsIN2Qt13AlignmentFlagEE
PUBLIC 192a60 0 _Z13qSmartMaxSizePK7QWidget6QFlagsIN2Qt13AlignmentFlagEE
PUBLIC 192b24 0 _Z13qSmartSpacingPK7QLayoutN6QStyle11PixelMetricE
PUBLIC 192b80 0 _Z9qGeomCalcR7QVectorI13QLayoutStructEiiiii
PUBLIC 193b38 0 _ZN11QLayoutItemD2Ev
PUBLIC 193b5c 0 _ZN11QLayoutItem10invalidateEv
PUBLIC 193b60 0 _ZN11QLayoutItem6layoutEv
PUBLIC 193b68 0 _ZN11QLayoutItem10spacerItemEv
PUBLIC 193b70 0 _ZN11QSpacerItem10spacerItemEv
PUBLIC 193b74 0 _ZN11QLayoutItem6widgetEv
PUBLIC 193b7c 0 _ZN11QWidgetItem6widgetEv
PUBLIC 193b84 0 _ZNK11QLayoutItem17hasHeightForWidthEv
PUBLIC 193b8c 0 _ZNK11QLayoutItem21minimumHeightForWidthEi
PUBLIC 193ba0 0 _ZNK11QLayoutItem14heightForWidthEi
PUBLIC 193ba8 0 _ZN11QSpacerItem11setGeometryERK5QRect
PUBLIC 193bb8 0 _ZNK11QSpacerItem8geometryEv
PUBLIC 193bd0 0 _ZNK11QSpacerItem19expandingDirectionsEv
PUBLIC 193bfc 0 _ZNK11QSpacerItem11minimumSizeEv
PUBLIC 193c20 0 _ZNK11QSpacerItem11maximumSizeEv
PUBLIC 193c48 0 _ZNK11QSpacerItem8sizeHintEv
PUBLIC 193c58 0 _ZNK11QSpacerItem7isEmptyEv
PUBLIC 193c60 0 _ZN13QWidgetItemV2D1Ev
PUBLIC 193ccc 0 _ZN11QLayoutItemD0Ev
PUBLIC 193ce8 0 _ZN13QWidgetItemV2D0Ev
PUBLIC 193d04 0 _ZNK11QWidgetItem19expandingDirectionsEv
PUBLIC 193e20 0 _ZNK11QWidgetItem8sizeHintEv
PUBLIC 193f74 0 _ZNK11QWidgetItem17hasHeightForWidthEv
PUBLIC 193fd4 0 _ZNK11QWidgetItem7isEmptyEv
PUBLIC 193ff4 0 _ZNK11QWidgetItem8geometryEv
PUBLIC 194078 0 _ZNK11QWidgetItem11minimumSizeEv
PUBLIC 194134 0 _ZNK11QWidgetItem11maximumSizeEv
PUBLIC 19420c 0 _ZNK11QWidgetItem14heightForWidthEi
PUBLIC 19432c 0 _ZNK13QWidgetItemV214heightForWidthEi
PUBLIC 194450 0 _ZN11QWidgetItem11setGeometryERK5QRect
PUBLIC 19476c 0 _ZNK11QSizePolicycv8QVariantEv
PUBLIC 194788 0 _ZN11QLayoutItem12setAlignmentE6QFlagsIN2Qt13AlignmentFlagEE
PUBLIC 194794 0 _ZN11QSpacerItem10changeSizeEiiN11QSizePolicy6PolicyES1_
PUBLIC 1947ac 0 _ZN7QLayout6layoutEv
PUBLIC 1947b0 0 _ZThn8_N7QLayout6layoutEv
PUBLIC 1947b8 0 _ZNK11QLayoutItem12controlTypesEv
PUBLIC 19489c 0 _ZNK13QWidgetItemV222updateCacheIfNecessaryEv
PUBLIC 194afc 0 _ZNK13QWidgetItemV28sizeHintEv
PUBLIC 194b74 0 _ZNK13QWidgetItemV211minimumSizeEv
PUBLIC 194bec 0 _ZNK13QWidgetItemV211maximumSizeEv
PUBLIC 194c64 0 _ZN13QWidgetItemV2C2EP7QWidget
PUBLIC 194cf4 0 _ZN11QWidgetItemD2Ev
PUBLIC 194d28 0 _ZN11QSpacerItemD1Ev
PUBLIC 194d5c 0 _ZN11QWidgetItemD0Ev
PUBLIC 194d98 0 _ZN11QSpacerItemD0Ev
PUBLIC 194dd4 0 _ZN11QMimeSourceD1Ev
PUBLIC 194df8 0 _ZN11QMimeSourceD0Ev
PUBLIC 194e14 0 _ZNK11QMimeSource8providesEPKc
PUBLIC 194f2c 0 _ZN8QPaletteC2ERKS_
PUBLIC 194f98 0 _ZN8QPaletteD2Ev
PUBLIC 195008 0 _ZN8QPaletteC1Ev
PUBLIC 195074 0 _ZN8QPalette4initEv
PUBLIC 195168 0 _ZN8QPaletteaSERKS_
PUBLIC 195234 0 _ZNK8QPalettecv8QVariantEv
PUBLIC 195250 0 _ZNK8QPalette5brushENS_10ColorGroupENS_9ColorRoleE
PUBLIC 1952a8 0 _ZNK8QPalette10isBrushSetENS_10ColorGroupENS_9ColorRoleE
PUBLIC 1952bc 0 _ZN8QPalette6detachEv
PUBLIC 195478 0 _ZN8QPalette8setBrushENS_10ColorGroupENS_9ColorRoleERK6QBrush
PUBLIC 1955c8 0 _ZNK8QPalette7isEqualENS_10ColorGroupES0_
PUBLIC 195694 0 _ZNK8QPalette12serialNumberEv
PUBLIC 1956a0 0 _ZNK8QPalette8cacheKeyEv
PUBLIC 1956cc 0 _ZlsR11QDataStreamRK8QPalette
PUBLIC 195798 0 _ZrsR11QDataStreamR8QPalette
PUBLIC 1958f4 0 _ZNK8QPalette8isCopyOfERKS_
PUBLIC 19590c 0 _ZNK8QPaletteeqERKS_
PUBLIC 195980 0 _ZNK8QPalette7resolveERKS_
PUBLIC 195ab0 0 _ZN8QPalette13setColorGroupENS_10ColorGroupERK6QBrushS3_S3_S3_S3_S3_S3_S3_S3_S3_S3_S3_S3_S3_S3_S3_S3_S3_S3_
PUBLIC 195ccc 0 _ZN8QPalette13setColorGroupENS_10ColorGroupERK6QBrushS3_S3_S3_S3_S3_S3_S3_S3_S3_S3_S3_S3_S3_S3_S3_S3_
PUBLIC 195d60 0 _ZN8QPalette13setColorGroupENS_10ColorGroupERK6QBrushS3_S3_S3_S3_S3_S3_S3_S3_
PUBLIC 1966a0 0 _ZN8QPaletteC2ERK6QColor
PUBLIC 1966c4 0 _ZN8QPaletteC1EN2Qt11GlobalColorE
PUBLIC 1966fc 0 _ZN8QPaletteC1ERK6QBrushS2_S2_S2_S2_S2_S2_S2_S2_
PUBLIC 196768 0 _ZN8QPaletteC2ERK6QColorS2_S2_S2_S2_S2_S2_
PUBLIC 19692c 0 _ZN8QPaletteC2ERK6QColorS2_
PUBLIC 196f40 0 _ZN9QShortcutD2Ev
PUBLIC 196fe8 0 _ZN9QShortcutD0Ev
PUBLIC 197004 0 _ZN9QShortcut5eventEP6QEvent
PUBLIC 1971fc 0 _ZN9QShortcutC2EP7QWidget
PUBLIC 1972e4 0 _ZN9QShortcutC1ERK12QKeySequenceP7QWidgetPKcS6_N2Qt15ShortcutContextE
PUBLIC 1974a4 0 _ZN9QShortcut6setKeyERK12QKeySequence
PUBLIC 197520 0 _ZNK9QShortcut3keyEv
PUBLIC 19753c 0 _ZN9QShortcut10setEnabledEb
PUBLIC 1975e4 0 _ZNK9QShortcut9isEnabledEv
PUBLIC 1975f0 0 _ZN9QShortcut10setContextEN2Qt15ShortcutContextE
PUBLIC 197644 0 _ZN9QShortcut7contextEv
PUBLIC 197650 0 _ZN9QShortcut12setWhatsThisERK7QString
PUBLIC 19765c 0 _ZNK9QShortcut9whatsThisEv
PUBLIC 197698 0 _ZN9QShortcut13setAutoRepeatEb
PUBLIC 197740 0 _ZNK9QShortcut10autoRepeatEv
PUBLIC 19774c 0 _ZNK9QShortcut2idEv
PUBLIC 19a590 0 _ZNK6QSound10isFinishedEv
PUBLIC 19a5a4 0 _ZNK6QSound5loopsEv
PUBLIC 19a5b0 0 _ZNK6QSound14loopsRemainingEv
PUBLIC 19a5bc 0 _ZN6QSound8setLoopsEi
PUBLIC 19a5c8 0 _ZNK6QSound8fileNameEv
PUBLIC 19a928 0 _ZN6QSound4playERK7QString
PUBLIC 19a948 0 _ZN6QSoundC1ERK7QStringP7QObject
PUBLIC 19aa2c 0 _ZN6QSound4playEv
PUBLIC 19aa58 0 _ZN6QSound4stopEv
PUBLIC 19aa84 0 _ZN6QSoundD2Ev
PUBLIC 19ab24 0 _ZN6QSoundD0Ev
PUBLIC 19ab40 0 _ZN6QSound11isAvailableEv
PUBLIC 19ae54 0 _ZNK14QStackedLayout6itemAtEi
PUBLIC 19ae90 0 _ZNK14QStackedLayout5countEv
PUBLIC 19aea8 0 _ZN14QStackedLayoutD1Ev
PUBLIC 19af3c 0 _ZThn8_N14QStackedLayoutD1Ev
PUBLIC 19af44 0 _ZN14QStackedLayoutD0Ev
PUBLIC 19af60 0 _ZThn8_N14QStackedLayoutD0Ev
PUBLIC 19af68 0 _ZNK14QStackedLayout8sizeHintEv
PUBLIC 19b040 0 _ZThn8_NK14QStackedLayout8sizeHintEv
PUBLIC 19b048 0 _ZNK14QStackedLayout11minimumSizeEv
PUBLIC 19b0f0 0 _ZThn8_NK14QStackedLayout11minimumSizeEv
PUBLIC 19b0f8 0 _ZN14QStackedLayoutC2Ev
PUBLIC 19b1d0 0 _ZN14QStackedLayoutC1EP7QWidget
PUBLIC 19b2ac 0 _ZN14QStackedLayoutC1EP7QLayout
PUBLIC 19b388 0 _ZNK14QStackedLayout12currentIndexEv
PUBLIC 19b394 0 _ZNK14QStackedLayout13currentWidgetEv
PUBLIC 19b3d4 0 _ZN14QStackedLayout11setGeometryERK5QRect
PUBLIC 19b468 0 _ZThn8_N14QStackedLayout11setGeometryERK5QRect
PUBLIC 19b470 0 _ZNK14QStackedLayout6widgetEi
PUBLIC 19b4bc 0 _ZN14QStackedLayout15setCurrentIndexEi
PUBLIC 19b68c 0 _ZN14QStackedLayout16setCurrentWidgetEP7QWidget
PUBLIC 19b6d4 0 _ZNK14QStackedLayout12stackingModeEv
PUBLIC 19b6e0 0 _ZN14QStackedLayout15setStackingModeENS_12StackingModeE
PUBLIC 19b85c 0 _ZN14QStackedLayout12insertWidgetEiP7QWidget
PUBLIC 19b958 0 _ZN14QStackedLayout9addWidgetEP7QWidget
PUBLIC 19b974 0 _ZN14QStackedLayout7addItemEP11QLayoutItem
PUBLIC 19b9c8 0 _ZN14QStackedLayout6takeAtEi
PUBLIC 19c714 0 _ZN8QToolTip9isVisibleEv
PUBLIC 19c738 0 _ZN8QToolTip4textEv
PUBLIC 19c7a8 0 _ZN8QToolTip7paletteEv
PUBLIC 19c9d8 0 _ZN8QToolTip8showTextERK6QPointRK7QStringP7QWidgetRK5QRect
PUBLIC 19cc34 0 _ZN8QToolTip8showTextERK6QPointRK7QStringP7QWidget
PUBLIC 19cc64 0 _ZN8QToolTip4fontEv
PUBLIC 19cc84 0 _ZN8QToolTip10setPaletteERK8QPalette
PUBLIC 19ccb8 0 _ZN8QToolTip7setFontERK5QFont
PUBLIC 1a2514 0 _ZN10QWhatsThisC2Ev
PUBLIC 1a2518 0 _ZN10QWhatsThis15inWhatsThisModeEv
PUBLIC 1a2530 0 _ZN10QWhatsThis8hideTextEv
PUBLIC 1a3104 0 _ZN10QWhatsThis12createActionEP7QObject
PUBLIC 1a35f0 0 _ZN10QWhatsThis18enterWhatsThisModeEv
PUBLIC 1a36a4 0 _ZN10QWhatsThis18leaveWhatsThisModeEv
PUBLIC 1a3948 0 _ZN10QWhatsThis8showTextERK6QPointRK7QStringP7QWidget
PUBLIC 1a3a9c 0 _ZNK7QWidget7devTypeEv
PUBLIC 1a3aa4 0 _ZThn8_NK7QWidget7devTypeEv
PUBLIC 1a3aac 0 _ZN7QWidget14mouseMoveEventEP11QMouseEvent
PUBLIC 1a3abc 0 _ZN7QWidget17mouseReleaseEventEP11QMouseEvent
PUBLIC 1a3acc 0 _ZN7QWidget21mouseDoubleClickEventEP11QMouseEvent
PUBLIC 1a3ae0 0 _ZN7QWidget10wheelEventEP11QWheelEvent
PUBLIC 1a3af0 0 _ZN7QWidget11tabletEventEP12QTabletEvent
PUBLIC 1a3b00 0 _ZN7QWidget15keyReleaseEventEP9QKeyEvent
PUBLIC 1a3b10 0 _ZN7QWidget10enterEventEP6QEvent
PUBLIC 1a3b14 0 _ZN7QWidget10leaveEventEP6QEvent
PUBLIC 1a3b18 0 _ZN7QWidget10paintEventEP11QPaintEvent
PUBLIC 1a3b1c 0 _ZN7QWidget9moveEventEP10QMoveEvent
PUBLIC 1a3b20 0 _ZN7QWidget11resizeEventEP12QResizeEvent
PUBLIC 1a3b24 0 _ZN7QWidget11actionEventEP12QActionEvent
PUBLIC 1a3b28 0 _ZN7QWidget10closeEventEP11QCloseEvent
PUBLIC 1a3b38 0 _ZN7QWidget16contextMenuEventEP17QContextMenuEvent
PUBLIC 1a3b48 0 _ZN7QWidget16inputMethodEventEP17QInputMethodEvent
PUBLIC 1a3b58 0 _ZN7QWidget14dragEnterEventEP15QDragEnterEvent
PUBLIC 1a3b5c 0 _ZN7QWidget13dragMoveEventEP14QDragMoveEvent
PUBLIC 1a3b60 0 _ZN7QWidget14dragLeaveEventEP15QDragLeaveEvent
PUBLIC 1a3b64 0 _ZN7QWidget9dropEventEP10QDropEvent
PUBLIC 1a3b68 0 _ZN7QWidget9showEventEP10QShowEvent
PUBLIC 1a3b6c 0 _ZN7QWidget9hideEventEP10QHideEvent
PUBLIC 1a3b70 0 _ZN7QWidget8qwsEventEP8QWSEvent
PUBLIC 1a3b78 0 _ZN7QWidget11styleChangeER6QStyle
PUBLIC 1a3b7c 0 _ZN7QWidget13enabledChangeEb
PUBLIC 1a3b80 0 _ZN7QWidget13paletteChangeERK8QPalette
PUBLIC 1a3b84 0 _ZN7QWidget10fontChangeERK5QFont
PUBLIC 1a3b88 0 _ZN7QWidget22windowActivationChangeEb
PUBLIC 1a3b8c 0 _ZN7QWidget14languageChangeEv
PUBLIC 1a3b90 0 _ZNK7QWidget10metaObjectEv
PUBLIC 1a3bbc 0 _ZNK7QWidget8sizeHintEv
PUBLIC 1a3bf4 0 _ZNK7QWidget15minimumSizeHintEv
PUBLIC 1a3c2c 0 _ZNK7QWidget16inputMethodQueryEN2Qt16InputMethodQueryE
PUBLIC 1a3fb8 0 _ZN14QWidgetPrivate26createDefaultWindowSurfaceEv
PUBLIC 1a40b0 0 _ZNK14QWidgetPrivate20assignedInputContextEv
PUBLIC 1a40fc 0 _ZNK14QWidgetPrivate12inputContextEv
PUBLIC 1a4130 0 _ZNK7QWidget18autoFillBackgroundEv
PUBLIC 1a414c 0 _ZN14QWidgetPrivate11adjustFlagsER6QFlagsIN2Qt10WindowTypeEEP7QWidget
PUBLIC 1a4228 0 _ZN14QWidgetPrivate11createExtraEv
PUBLIC 1a4310 0 _ZNK14QWidgetPrivate19clipToEffectiveMaskER7QRegion
PUBLIC 1a43f0 0 _ZNK14QWidgetPrivate13paintOnScreenEv
PUBLIC 1a43f8 0 _ZN14QWidgetPrivate9setOpaqueEb
PUBLIC 1a441c 0 _ZN14QWidgetPrivate19updateIsTranslucentEv
PUBLIC 1a4420 0 _ZN14QWidgetPrivate23deactivateWidgetCleanupEv
PUBLIC 1a446c 0 _ZN7QWidget4findEm
PUBLIC 1a44dc 0 _ZNK7QWidget10styleSheetEv
PUBLIC 1a4564 0 _ZNK7QWidget5styleEv
PUBLIC 1a4584 0 _ZNK7QWidget14windowModalityEv
PUBLIC 1a4594 0 _ZNK7QWidget11isMinimizedEv
PUBLIC 1a45a4 0 _ZNK7QWidget11isMaximizedEv
PUBLIC 1a45b8 0 _ZNK7QWidget11windowStateEv
PUBLIC 1a45cc 0 _ZNK7QWidget12isFullScreenEv
PUBLIC 1a45e0 0 _ZNK7QWidget11minimumSizeEv
PUBLIC 1a4608 0 _ZNK7QWidget11maximumSizeEv
PUBLIC 1a4634 0 _ZNK7QWidget13sizeIncrementEv
PUBLIC 1a4674 0 _ZNK7QWidget8baseSizeEv
PUBLIC 1a46b4 0 _ZN14QWidgetPrivate21setMinimumSize_helperERiS0_
PUBLIC 1a4a94 0 _ZN14QWidgetPrivate21setMaximumSize_helperERiS0_
PUBLIC 1a4dc8 0 _ZNK7QWidget11mapToParentERK6QPoint
PUBLIC 1a4df0 0 _ZNK7QWidget5mapToEPS_RK6QPoint
PUBLIC 1a4e50 0 _ZNK7QWidget13mapFromParentERK6QPoint
PUBLIC 1a4e70 0 _ZNK7QWidget7mapFromEPS_RK6QPoint
PUBLIC 1a4ed0 0 _ZNK7QWidget6windowEv
PUBLIC 1a4f24 0 _ZN14QWidgetPrivate16syncBackingStoreERK7QRegion
PUBLIC 1a4f8c 0 _ZN14QWidgetPrivate16syncBackingStoreEv
PUBLIC 1a5024 0 _ZNK7QWidget18nativeParentWidgetEv
PUBLIC 1a506c 0 _ZNK7QWidget14backgroundRoleEv
PUBLIC 1a50b4 0 _ZNK7QWidget14foregroundRoleEv
PUBLIC 1a50fc 0 _ZNK7QWidget14graphicsEffectEv
PUBLIC 1a5108 0 _ZN14QWidgetPrivate36invalidateGraphicsEffectsRecursivelyEv
PUBLIC 1a517c 0 _ZN14QWidgetPrivate20setDirtyOpaqueRegionEv
PUBLIC 1a51c8 0 _ZN14QWidgetPrivate26nearestGraphicsProxyWidgetEPK7QWidget
PUBLIC 1a51fc 0 _ZNK7QWidget6localeEv
PUBLIC 1a5218 0 _ZNK7QWidget11windowTitleEv
PUBLIC 1a5564 0 _ZNK7QWidget10windowIconEv
PUBLIC 1a55c8 0 _ZNK7QWidget14windowIconTextEv
PUBLIC 1a565c 0 _ZNK7QWidget14windowFilePathEv
PUBLIC 1a56f0 0 _ZNK7QWidget10windowRoleEv
PUBLIC 1a5784 0 _ZN7QWidget13setWindowRoleERK7QString
PUBLIC 1a5788 0 _ZNK7QWidget10focusProxyEv
PUBLIC 1a579c 0 _ZN7QWidget13setFocusProxyEPS_
PUBLIC 1a58f0 0 _ZNK7QWidget11focusWidgetEv
PUBLIC 1a58fc 0 _ZNK7QWidget8hasFocusEv
PUBLIC 1a59b0 0 _ZN7QWidget10clearFocusEv
PUBLIC 1a5a24 0 _ZNK7QWidget16nextInFocusChainEv
PUBLIC 1a5a30 0 _ZNK7QWidget20previousInFocusChainEv
PUBLIC 1a5a3c 0 _ZN14QWidgetPrivate11pointToRectERK6QPointRK5QRect
PUBLIC 1a5a8c 0 _ZNK7QWidget18getContentsMarginsEPiS0_S0_S0_
PUBLIC 1a5ad0 0 _ZNK7QWidget15contentsMarginsEv
PUBLIC 1a5b00 0 _ZNK7QWidget12contentsRectEv
PUBLIC 1a5b54 0 _ZNK7QWidget17contextMenuPolicyEv
PUBLIC 1a5b64 0 _ZN7QWidget20setContextMenuPolicyEN2Qt17ContextMenuPolicyE
PUBLIC 1a5b80 0 _ZNK7QWidget11focusPolicyEv
PUBLIC 1a5b90 0 _ZN7QWidget14setFocusPolicyEN2Qt11FocusPolicyE
PUBLIC 1a5c00 0 _ZNK7QWidget12isAncestorOfEPKS_
PUBLIC 1a5c4c 0 _ZN14QWidgetPrivate20reparentFocusWidgetsEP7QWidget
PUBLIC 1a5d9c 0 _ZNK7QWidget16inputMethodHintsEv
PUBLIC 1a5dd4 0 _ZNK7QWidget4maskEv
PUBLIC 1a5e08 0 _ZNK7QWidget6layoutEv
PUBLIC 1a5e14 0 _ZNK7QWidget14heightForWidthEi
PUBLIC 1a5e68 0 _ZN7QWidget10takeLayoutEv
PUBLIC 1a5e90 0 _ZNK7QWidget10sizePolicyEv
PUBLIC 1a5e9c 0 _ZN7QWidget19overrideWindowFlagsE6QFlagsIN2Qt10WindowTypeEE
PUBLIC 1a5eac 0 _ZNK7QWidget20testAttribute_helperEN2Qt15WidgetAttributeE
PUBLIC 1a5ed8 0 _ZNK7QWidget11acceptDropsEv
PUBLIC 1a5ee0 0 _ZNK7QWidget15layoutDirectionEv
PUBLIC 1a5ef0 0 _ZNK14QWidgetPrivate13isAboutToShowEv
PUBLIC 1a5f74 0 _ZN7QWidget12inputContextEv
PUBLIC 1a5f94 0 _ZN7QWidget17resetInputContextEv
PUBLIC 1a5fc8 0 _ZN7QWidget19setInputMethodHintsE6QFlagsIN2Qt15InputMethodHintEE
PUBLIC 1a6028 0 _ZNK7QWidget6cursorEv
PUBLIC 1a60b8 0 _ZN7QWidget15setInputContextEP13QInputContext
PUBLIC 1a612c 0 _ZNK14QWidgetPrivate12isOverlappedERK5QRect
PUBLIC 1a63f4 0 _ZNK7QWidget14effectiveWinIdEv
PUBLIC 1a6458 0 _ZNK14QWidgetPrivate17getOpaqueChildrenEv
PUBLIC 1a664c 0 _ZNK14QWidgetPrivate22subtractOpaqueChildrenER7QRegionRK5QRect
PUBLIC 1a66e8 0 _ZN14QWidgetPrivate18_q_showIfNotHiddenEv
PUBLIC 1a6730 0 _ZNK7QWidget12childrenRectEv
PUBLIC 1a67fc 0 _ZN7QWidget6updateERK7QRegion
PUBLIC 1a68d8 0 _ZN7QWidget6updateERK5QRect
PUBLIC 1a69e8 0 _ZN7QWidget6updateEv
PUBLIC 1a6a30 0 _ZN7QWidget12focusInEventEP11QFocusEvent
PUBLIC 1a6a60 0 _ZN7QWidget13focusOutEventEP11QFocusEvent
PUBLIC 1a6a90 0 _ZNK7QWidget14isActiveWindowEv
PUBLIC 1a6bc8 0 _ZNK7QWidget7paletteEv
PUBLIC 1a6c48 0 _ZNK7QWidget11isEnabledToEPS_
PUBLIC 1a6cac 0 _ZN7QWidget7repaintERK5QRect
PUBLIC 1a6d8c 0 _ZN7QWidget7repaintEv
PUBLIC 1a6dd4 0 _ZN7QWidget7repaintEiiii
PUBLIC 1a6e68 0 _ZN7QWidget7repaintERK7QRegion
PUBLIC 1a6f38 0 _ZN14QWidgetPrivate21updateGeometry_helperEb
PUBLIC 1a701c 0 _ZN7QWidget14updateGeometryEv
PUBLIC 1a7028 0 _ZN7QWidget11changeEventEP6QEvent
PUBLIC 1a70b0 0 _ZNK14QWidgetPrivate17naturalWidgetFontEj
PUBLIC 1a7284 0 _ZNK14QWidgetPrivate20naturalWidgetPaletteEj
PUBLIC 1a747c 0 _ZNK14QWidgetPrivate22childAtRecursiveHelperERK6QPointbb
PUBLIC 1a7630 0 _ZNK14QWidgetPrivate14childAt_helperERK6QPointb
PUBLIC 1a7708 0 _ZNK7QWidget7childAtERK6QPoint
PUBLIC 1a7714 0 _ZNK7QWidget11isVisibleToEPS_
PUBLIC 1a779c 0 _ZN14QWidgetPrivate14updateIsOpaqueEv
PUBLIC 1a7888 0 _ZN7QWidget21setAutoFillBackgroundEb
PUBLIC 1a7908 0 _ZN7QWidget17setGraphicsEffectEP15QGraphicsEffect
PUBLIC 1a7af8 0 _ZNK7QWidget13windowOpacityEv
PUBLIC 1a7b50 0 _ZNK7QWidget16isWindowModifiedEv
PUBLIC 1a7d64 0 _ZN14QWidgetPrivate21setWindowTitle_helperERK7QString
PUBLIC 1a7e00 0 _ZN14QWidgetPrivate24setWindowFilePath_helperERK7QString
PUBLIC 1a7e9c 0 _ZN14QWidgetPrivate24setWindowIconText_helperERK7QString
PUBLIC 1a7f38 0 _ZNK7QWidget7toolTipEv
PUBLIC 1a7f74 0 _ZN7QWidget12setStatusTipERK7QString
PUBLIC 1a7f80 0 _ZNK7QWidget9statusTipEv
PUBLIC 1a7fbc 0 _ZN7QWidget12setWhatsThisERK7QString
PUBLIC 1a7fc8 0 _ZNK7QWidget9whatsThisEv
PUBLIC 1a8004 0 _ZN7QWidget15releaseShortcutEi
PUBLIC 1a8094 0 _ZN7QWidget18setShortcutEnabledEib
PUBLIC 1a8128 0 _ZN7QWidget21setShortcutAutoRepeatEib
PUBLIC 1a81bc 0 _ZN7QWidget16updateMicroFocusEv
PUBLIC 1a821c 0 _ZNK14QWidgetPrivate10frameStrutEv
PUBLIC 1a82fc 0 _ZNK7QWidget13frameGeometryEv
PUBLIC 1a83c0 0 _ZNK7QWidget1xEv
PUBLIC 1a8410 0 _ZNK7QWidget1yEv
PUBLIC 1a8460 0 _ZNK14QWidgetPrivate8clipRectEv
PUBLIC 1a8618 0 _ZNK14QWidgetPrivate10clipRegionEv
PUBLIC 1a88e8 0 _ZNK7QWidget3posEv
PUBLIC 1a896c 0 _ZNK14QWidgetPrivate12adjustedSizeEv
PUBLIC 1a8bb8 0 _ZNK7QWidget14childrenRegionEv
PUBLIC 1a8d14 0 _ZNK7QWidget9frameSizeEv
PUBLIC 1a8dd8 0 _ZNK7QWidget13windowSurfaceEv
PUBLIC 1a8e38 0 _ZNK14QWidgetPrivate20getLayoutItemMarginsEPiS0_S0_S0_
PUBLIC 1a8e78 0 _ZN14QWidgetPrivate20setLayoutItemMarginsEiiii
PUBLIC 1a8ed8 0 _ZN14QWidgetPrivate20setLayoutItemMarginsEN6QStyle10SubElementEPK12QStyleOption
PUBLIC 1a8ff4 0 _Z15qt_qwidget_dataP7QWidget
PUBLIC 1a8ffc 0 _Z17qt_widget_privateP7QWidget
PUBLIC 1a9070 0 _ZNK7QWidget19graphicsProxyWidgetEv
PUBLIC 1a9084 0 _ZN7QWidget7setMaskERK7QRegion
PUBLIC 1a92d0 0 _ZN7QWidget7setMaskERK7QBitmap
PUBLIC 1a9310 0 _ZN7QWidget9clearMaskEv
PUBLIC 1a9350 0 _ZN7QWidget26customContextMenuRequestedERK6QPoint
PUBLIC 1a938c 0 _ZN14QWidgetPrivateC2Ei
PUBLIC 1a96f4 0 _ZN14QWidgetPrivate13createTLExtraEv
PUBLIC 1a98a8 0 _ZNK7QWidget14normalGeometryEv
PUBLIC 1a994c 0 _ZN7QWidget9setLayoutEP7QLayout
PUBLIC 1a9e40 0 _ZN7QWidget16setWindowSurfaceEP14QWindowSurface
PUBLIC 1a9f08 0 _ZN7QWidget16setSizeIncrementEii
PUBLIC 1a9f74 0 _ZN7QWidget11setBaseSizeEii
PUBLIC 1a9fe0 0 _ZN7QWidget17setWindowFilePathERK7QString
PUBLIC 1aa090 0 _ZNK14QWidgetPrivate22subtractOpaqueSiblingsER7QRegionPbb
PUBLIC 1aa814 0 _ZNK7QWidget13visibleRegionEv
PUBLIC 1aa964 0 _ZN7QWidget11setTabOrderEPS_S0_
PUBLIC 1aabb8 0 _ZNK7QWidget7actionsEv
PUBLIC 1aac10 0 _ZN7QWidget11grabGestureEN2Qt11GestureTypeE6QFlagsINS0_11GestureFlagEE
PUBLIC 1aacf4 0 _ZN7QWidget13ungrabGestureEN2Qt11GestureTypeE
PUBLIC 1aafbc 0 _ZN14QWidgetPrivate11deleteExtraEv
PUBLIC 1ab2b4 0 _ZN14QWidgetPrivateD1Ev
PUBLIC 1ab4e0 0 _ZN14QWidgetPrivateD0Ev
PUBLIC 1ab724 0 _ZN7QWidget6scrollEii
PUBLIC 1aba1c 0 _ZN7QWidget6scrollEiiRK5QRect
PUBLIC 1abeac 0 _ZN14QWidgetPrivate14scrollChildrenEii
PUBLIC 1ac098 0 _ZN14QWidgetPrivate8setWinIdEm
PUBLIC 1ac290 0 _ZN14QWidgetPrivate22propagatePaletteChangeEv
PUBLIC 1ac448 0 _ZN7QWidget17setBackgroundRoleEN8QPalette9ColorRoleE
PUBLIC 1ac470 0 _ZN7QWidget17setForegroundRoleEN8QPalette9ColorRoleE
PUBLIC 1ac490 0 _ZN14QWidgetPrivate17setPalette_helperERK8QPalette
PUBLIC 1ac500 0 _ZN14QWidgetPrivate14resolvePaletteEv
PUBLIC 1ac56c 0 _ZN14QWidgetPrivate15setStyle_helperEP6QStylebb
PUBLIC 1ac928 0 _ZN14QWidgetPrivate12inheritStyleEv
PUBLIC 1acb6c 0 _ZN7QWidget13setStyleSheetERK7QString
PUBLIC 1acc84 0 _ZN14QWidgetPrivate10updateFontERK5QFont
PUBLIC 1acecc 0 _ZN14QWidgetPrivate11resolveFontEv
PUBLIC 1acf60 0 _ZN14QWidgetPrivate16setLocale_helperERK7QLocaleb
PUBLIC 1ad104 0 _ZN14QWidgetPrivate13resolveLocaleEv
PUBLIC 1ad174 0 _ZN7QWidget17setWindowIconTextERK7QString
PUBLIC 1ad288 0 _ZN7QWidget14setWindowTitleERK7QString
PUBLIC 1ad3cc 0 _ZN14QWidgetPrivate20setWindowIcon_helperEv
PUBLIC 1ad4cc 0 _ZN7QWidget10setToolTipERK7QString
PUBLIC 1ad54c 0 _ZN7QWidget12setAttributeEN2Qt15WidgetAttributeEb
PUBLIC 1ae078 0 _ZN7QWidget6createEmbb
PUBLIC 1ae46c 0 _ZN7QWidget5raiseEv
PUBLIC 1ae654 0 _ZN14QWidgetPrivate11createWinIdEm
PUBLIC 1ae824 0 _ZN7QWidget11createWinIdEv
PUBLIC 1ae830 0 _ZN14QWidgetPrivate17createRecursivelyEv
PUBLIC 1ae8f4 0 _ZN14QWidgetPrivate24setUpdatesEnabled_helperEb
PUBLIC 1aea38 0 _ZNK7QWidget5winIdEv
PUBLIC 1aea88 0 _ZNK7QWidget6handleEv
PUBLIC 1aeacc 0 _ZN7QWidget8setStyleEP6QStyle
PUBLIC 1aec14 0 _ZN7QWidget17setWindowModalityEN2Qt14WindowModalityE
PUBLIC 1aec58 0 _ZN7QWidget14setAcceptDropsEb
PUBLIC 1aec64 0 _ZN7QWidget10setPaletteERK8QPalette
PUBLIC 1aecec 0 _ZN7QWidget7setFontERK5QFont
PUBLIC 1aeddc 0 _ZN7QWidget9setLocaleERK7QLocale
PUBLIC 1aee08 0 _ZN7QWidget11unsetLocaleEv
PUBLIC 1aee28 0 _ZN7QWidget13setWindowIconERK5QIcon
PUBLIC 1aeeec 0 _ZN7QWidget4moveERK6QPoint
PUBLIC 1af024 0 _ZN7QWidget6resizeERK5QSize
PUBLIC 1af11c 0 _ZN7QWidget12setFixedSizeEii
PUBLIC 1af1d0 0 _ZN7QWidget12setFixedSizeERK5QSize
PUBLIC 1af1d8 0 _ZN7QWidget14setMinimumSizeEii
PUBLIC 1af370 0 _ZN7QWidget15setMinimumWidthEi
PUBLIC 1af3d8 0 _ZN7QWidget16setMinimumHeightEi
PUBLIC 1af448 0 _ZN7QWidget14setMaximumSizeEii
PUBLIC 1af5b8 0 _ZN7QWidget15setMaximumWidthEi
PUBLIC 1af628 0 _ZN7QWidget16setMaximumHeightEi
PUBLIC 1af69c 0 _ZN7QWidget13setFixedWidthEi
PUBLIC 1af72c 0 _ZN7QWidget14setFixedHeightEi
PUBLIC 1af7bc 0 _ZN7QWidget11setGeometryERK5QRect
PUBLIC 1af92c 0 _ZN7QWidget17setUpdatesEnabledEb
PUBLIC 1af954 0 _ZN7QWidget13setSizePolicyE11QSizePolicy
PUBLIC 1afa00 0 _ZN7QWidget16setWindowOpacityEf
PUBLIC 1afb14 0 _ZN7QWidget12grabShortcutERK12QKeySequenceN2Qt15ShortcutContextE
PUBLIC 1afb84 0 _ZN14QWidgetPrivate26adjustQuitOnCloseAttributeEv
PUBLIC 1afbc4 0 _ZN14QWidgetPrivate17setEnabled_helperEb
PUBLIC 1afe6c 0 _ZN7QWidget10setEnabledEb
PUBLIC 1afe94 0 _ZN7QWidget11setDisabledEb
PUBLIC 1afe9c 0 _ZN14QWidgetPrivate25setLayoutDirection_helperEN2Qt15LayoutDirectionE
PUBLIC 1affe8 0 _ZN14QWidgetPrivate22resolveLayoutDirectionEv
PUBLIC 1b0048 0 _ZN7QWidget20unsetLayoutDirectionEv
PUBLIC 1b0068 0 _ZN7QWidget18setLayoutDirectionEN2Qt15LayoutDirectionE
PUBLIC 1b00a0 0 _ZN7QWidget9setCursorERK7QCursor
PUBLIC 1b0188 0 _ZN7QWidget11unsetCursorEv
PUBLIC 1b025c 0 _ZN7QWidget17setWindowModifiedEb
PUBLIC 1b048c 0 _ZN7QWidget5lowerEv
PUBLIC 1b05ec 0 _ZN7QWidget10stackUnderEPS_
PUBLIC 1b07b4 0 _ZNK14QWidgetPrivate15paintBackgroundEP8QPainterRK7QRegioni
PUBLIC 1b0e2c 0 _ZN7QPixmap4fillEPK7QWidgetRK6QPoint
PUBLIC 1b0f18 0 _ZN7QWidget19overrideWindowStateE6QFlagsIN2Qt11WindowStateEE
PUBLIC 1b0fc0 0 _ZN7QWidget12removeActionEP7QAction
PUBLIC 1b1100 0 _ZN7QWidget12insertActionEP7QActionS1_
PUBLIC 1b12a0 0 _ZN7QWidget9addActionEP7QAction
PUBLIC 1b12ac 0 _ZN7QWidget10addActionsE5QListIP7QActionE
PUBLIC 1b130c 0 _ZN7QWidget13insertActionsEP7QAction5QListIS1_E
PUBLIC 1b1370 0 _ZN14QWidgetPrivate10drawWidgetEP12QPaintDeviceRK7QRegionRK6QPointiP8QPainterP19QWidgetBackingStore
PUBLIC 1b1c74 0 _ZN14QWidgetPrivate22paintSiblingsRecursiveEP12QPaintDeviceRK5QListIP7QObjectEiRK7QRegionRK6QPointiP8QPainterP19QWidgetBackingStore
PUBLIC 1b210c 0 _ZN7QWidget8setFocusEN2Qt11FocusReasonE
PUBLIC 1b2504 0 _ZN7QWidget18focusNextPrevChildEb
PUBLIC 1b25a8 0 _ZNK7QWidget12saveGeometryEv
PUBLIC 1b2704 0 _ZN7QWidget15restoreGeometryERK10QByteArray
PUBLIC 1b2b8c 0 _ZN7QWidget18setContentsMarginsEiiii
PUBLIC 1b2d18 0 _ZN7QWidget18setContentsMarginsERK8QMargins
PUBLIC 1b2d3c 0 _ZN14QWidgetPrivate30sendPendingMoveAndResizeEventsEbb
PUBLIC 1b2f5c 0 _ZN14QWidgetPrivate12hideChildrenEb
PUBLIC 1b3144 0 _ZN14QWidgetPrivate11hide_helperEv
PUBLIC 1b3360 0 _ZN14QWidgetPrivate12close_helperENS_9CloseModeE
PUBLIC 1b35e8 0 _ZN7QWidgetD2Ev
PUBLIC 1b3a98 0 _ZThn8_N7QWidgetD1Ev
PUBLIC 1b3aa0 0 _ZN7QWidgetD0Ev
PUBLIC 1b3abc 0 _ZThn8_N7QWidgetD0Ev
PUBLIC 1b3ac4 0 _ZN7QWidget5closeEv
PUBLIC 1b3ad0 0 _ZN7QWidget15mousePressEventEP11QMouseEvent
PUBLIC 1b3ba8 0 _ZN7QWidget13keyPressEventEP9QKeyEvent
PUBLIC 1b3be4 0 _ZNK7QWidget14ensurePolishedEv
PUBLIC 1b3d90 0 _ZN7QWidget13showMinimizedEv
PUBLIC 1b3e10 0 _ZN7QWidget14showFullScreenEv
PUBLIC 1b3e6c 0 _ZN7QWidget13showMaximizedEv
PUBLIC 1b3ec0 0 _ZN7QWidget10showNormalEv
PUBLIC 1b3f10 0 _ZN14QWidgetPrivate14show_recursiveEv
PUBLIC 1b3f9c 0 _ZN14QWidgetPrivate12showChildrenEb
PUBLIC 1b4140 0 _ZN14QWidgetPrivate11show_helperEv
PUBLIC 1b43bc 0 _ZN14QWidgetPrivate31activateChildLayoutsRecursivelyEv
PUBLIC 1b44b0 0 _ZN7QWidget10adjustSizeEv
PUBLIC 1b450c 0 _ZN14QWidgetPrivate15prepareToRenderERK7QRegion6QFlagsIN7QWidget10RenderFlagEE
PUBLIC 1b481c 0 _ZN7QWidget6renderEP8QPainterRK6QPointRK7QRegion6QFlagsINS_10RenderFlagEE
PUBLIC 1b4ef8 0 _ZN14QWidgetPrivate13render_helperEP8QPainterRK6QPointRK7QRegion6QFlagsIN7QWidget10RenderFlagEE
PUBLIC 1b53e0 0 _ZN14QWidgetPrivate6renderEP12QPaintDeviceRK6QPointRK7QRegion6QFlagsIN7QWidget10RenderFlagEEb
PUBLIC 1b57d8 0 _ZN7QWidget6renderEP12QPaintDeviceRK6QPointRK7QRegion6QFlagsINS_10RenderFlagEE
PUBLIC 1b5c00 0 _ZN7QWidget10setVisibleEb
PUBLIC 1b60f0 0 _ZN7QWidget5eventEP6QEvent
PUBLIC 1b7590 0 _ZN7QWidget9setParentEPS_6QFlagsIN2Qt10WindowTypeEE
PUBLIC 1b7d20 0 _ZN14QWidgetPrivate4initEP7QWidget6QFlagsIN2Qt10WindowTypeEE
PUBLIC 1b813c 0 _ZN7QWidgetC2EPS_6QFlagsIN2Qt10WindowTypeEE
PUBLIC 1b81f4 0 _ZN7QWidgetC1ER14QWidgetPrivatePS_6QFlagsIN2Qt10WindowTypeEE
PUBLIC 1b8284 0 _ZN7QWidget14setWindowFlagsE6QFlagsIN2Qt10WindowTypeEE
PUBLIC 1b834c 0 _ZN7QWidget9setParentEPS_
PUBLIC 1b8384 0 _ZN7QWidget11qt_metacastEPKc
PUBLIC 1b83f8 0 _ZN7QWidget11qt_metacallEN11QMetaObject4CallEiPPv
PUBLIC 1ba0c0 0 _ZN13QWidgetAction12createWidgetEP7QWidget
PUBLIC 1ba0c8 0 _ZNK13QWidgetAction10metaObjectEv
PUBLIC 1ba0f4 0 _ZN13QWidgetAction11eventFilterEP7QObjectP6QEvent
PUBLIC 1ba0f8 0 _ZN13QWidgetAction12deleteWidgetEP7QWidget
PUBLIC 1ba120 0 _ZN13QWidgetActionC1EP7QObject
PUBLIC 1ba1ec 0 _ZN13QWidgetAction16setDefaultWidgetEP7QWidget
PUBLIC 1ba2c8 0 _ZNK13QWidgetAction13defaultWidgetEv
PUBLIC 1ba2d4 0 _ZN13QWidgetAction13requestWidgetEP7QWidget
PUBLIC 1ba3b4 0 _ZN13QWidgetAction13releaseWidgetEP7QWidget
PUBLIC 1ba488 0 _ZNK13QWidgetAction14createdWidgetsEv
PUBLIC 1ba4e0 0 _ZN13QWidgetActionD1Ev
PUBLIC 1ba660 0 _ZN13QWidgetActionD0Ev
PUBLIC 1ba67c 0 _ZN13QWidgetAction5eventEP6QEvent
PUBLIC 1ba72c 0 _ZN13QWidgetAction11qt_metacastEPKc
PUBLIC 1ba770 0 _ZN13QWidgetAction11qt_metacallEN11QMetaObject4CallEiPPv
PUBLIC 1bae9c 0 _ZNK8QGesture10metaObjectEv
PUBLIC 1baec8 0 _ZNK11QPanGesture10metaObjectEv
PUBLIC 1baef4 0 _ZNK13QPinchGesture10metaObjectEv
PUBLIC 1baf20 0 _ZNK13QSwipeGesture10metaObjectEv
PUBLIC 1baf4c 0 _ZNK11QTapGesture10metaObjectEv
PUBLIC 1baf78 0 _ZNK18QTapAndHoldGesture10metaObjectEv
PUBLIC 1bafa4 0 _ZN8QGestureD1Ev
PUBLIC 1bafd8 0 _ZN8QGestureD0Ev
PUBLIC 1baff4 0 _ZN8QGestureC2EP7QObject
PUBLIC 1bb0a8 0 _ZN8QGestureC2ER15QGesturePrivateP7QObject
PUBLIC 1bb0e0 0 _ZNK8QGesture11gestureTypeEv
PUBLIC 1bb0ec 0 _ZNK8QGesture5stateEv
PUBLIC 1bb0f8 0 _ZNK8QGesture7hotSpotEv
PUBLIC 1bb114 0 _ZN8QGesture10setHotSpotERK7QPointF
PUBLIC 1bb134 0 _ZNK8QGesture10hasHotSpotEv
PUBLIC 1bb144 0 _ZN8QGesture12unsetHotSpotEv
PUBLIC 1bb158 0 _ZN8QGesture22setGestureCancelPolicyENS_19GestureCancelPolicyE
PUBLIC 1bb174 0 _ZNK8QGesture19gestureCancelPolicyEv
PUBLIC 1bb188 0 _ZN11QPanGestureC1EP7QObject
PUBLIC 1bb264 0 _ZNK11QPanGesture10lastOffsetEv
PUBLIC 1bb280 0 _ZNK11QPanGesture6offsetEv
PUBLIC 1bb29c 0 _ZNK11QPanGesture5deltaEv
PUBLIC 1bb2d4 0 _ZNK11QPanGesture12accelerationEv
PUBLIC 1bb2e0 0 _ZN11QPanGesture13setLastOffsetERK7QPointF
PUBLIC 1bb2f4 0 _ZN11QPanGesture9setOffsetERK7QPointF
PUBLIC 1bb308 0 _ZN11QPanGesture15setAccelerationEf
PUBLIC 1bb314 0 _ZN13QPinchGestureC1EP7QObject
PUBLIC 1bb420 0 _ZNK13QPinchGesture16totalChangeFlagsEv
PUBLIC 1bb430 0 _ZN13QPinchGesture19setTotalChangeFlagsE6QFlagsINS_10ChangeFlagEE
PUBLIC 1bb440 0 _ZNK13QPinchGesture11changeFlagsEv
PUBLIC 1bb450 0 _ZN13QPinchGesture14setChangeFlagsE6QFlagsINS_10ChangeFlagEE
PUBLIC 1bb460 0 _ZNK13QPinchGesture16startCenterPointEv
PUBLIC 1bb47c 0 _ZNK13QPinchGesture15lastCenterPointEv
PUBLIC 1bb498 0 _ZNK13QPinchGesture11centerPointEv
PUBLIC 1bb4b4 0 _ZN13QPinchGesture19setStartCenterPointERK7QPointF
PUBLIC 1bb4c8 0 _ZN13QPinchGesture18setLastCenterPointERK7QPointF
PUBLIC 1bb4dc 0 _ZN13QPinchGesture14setCenterPointERK7QPointF
PUBLIC 1bb4f0 0 _ZNK13QPinchGesture16totalScaleFactorEv
PUBLIC 1bb4fc 0 _ZNK13QPinchGesture15lastScaleFactorEv
PUBLIC 1bb508 0 _ZNK13QPinchGesture11scaleFactorEv
PUBLIC 1bb514 0 _ZN13QPinchGesture19setTotalScaleFactorEf
PUBLIC 1bb520 0 _ZN13QPinchGesture18setLastScaleFactorEf
PUBLIC 1bb52c 0 _ZN13QPinchGesture14setScaleFactorEf
PUBLIC 1bb538 0 _ZNK13QPinchGesture18totalRotationAngleEv
PUBLIC 1bb544 0 _ZNK13QPinchGesture17lastRotationAngleEv
PUBLIC 1bb550 0 _ZNK13QPinchGesture13rotationAngleEv
PUBLIC 1bb55c 0 _ZN13QPinchGesture21setTotalRotationAngleEf
PUBLIC 1bb568 0 _ZN13QPinchGesture20setLastRotationAngleEf
PUBLIC 1bb574 0 _ZN13QPinchGesture16setRotationAngleEf
PUBLIC 1bb580 0 _ZN13QSwipeGestureC1EP7QObject
PUBLIC 1bb664 0 _ZNK13QSwipeGesture19horizontalDirectionEv
PUBLIC 1bb704 0 _ZNK13QSwipeGesture17verticalDirectionEv
PUBLIC 1bb768 0 _ZNK13QSwipeGesture10swipeAngleEv
PUBLIC 1bb774 0 _ZN13QSwipeGesture13setSwipeAngleEf
PUBLIC 1bb780 0 _ZN11QTapGestureC1EP7QObject
PUBLIC 1bb840 0 _ZNK11QTapGesture8positionEv
PUBLIC 1bb85c 0 _ZN11QTapGesture11setPositionERK7QPointF
PUBLIC 1bb870 0 _ZN18QTapAndHoldGestureC1EP7QObject
PUBLIC 1bb934 0 _ZNK18QTapAndHoldGesture8positionEv
PUBLIC 1bb950 0 _ZN18QTapAndHoldGesture11setPositionERK7QPointF
PUBLIC 1bb964 0 _ZN18QTapAndHoldGesture10setTimeoutEi
PUBLIC 1bb978 0 _ZN18QTapAndHoldGesture7timeoutEv
PUBLIC 1bb988 0 _ZN8QGesture11qt_metacastEPKc
PUBLIC 1bb9cc 0 _ZN11QPanGesture11qt_metacastEPKc
PUBLIC 1bba18 0 _ZN13QPinchGesture11qt_metacastEPKc
PUBLIC 1bba64 0 _ZN13QSwipeGesture11qt_metacastEPKc
PUBLIC 1bbab0 0 _ZN11QTapGesture11qt_metacastEPKc
PUBLIC 1bbafc 0 _ZN18QTapAndHoldGesture11qt_metacastEPKc
PUBLIC 1bbb48 0 _ZN8QGesture11qt_metacallEN11QMetaObject4CallEiPPv
PUBLIC 1bbc80 0 _ZN11QPanGesture11qt_metacallEN11QMetaObject4CallEiPPv
PUBLIC 1bbe08 0 _ZN13QPinchGesture11qt_metacallEN11QMetaObject4CallEiPPv
PUBLIC 1bc084 0 _ZN13QSwipeGesture11qt_metacallEN11QMetaObject4CallEiPPv
PUBLIC 1bc180 0 _ZN11QTapGesture11qt_metacallEN11QMetaObject4CallEiPPv
PUBLIC 1bc234 0 _ZN18QTapAndHoldGesture11qt_metacallEN11QMetaObject4CallEiPPv
PUBLIC 1bc4f8 0 _ZN18QTapAndHoldGestureD2Ev
PUBLIC 1bc52c 0 _ZN18QTapAndHoldGestureD0Ev
PUBLIC 1bc568 0 _ZN11QTapGestureD1Ev
PUBLIC 1bc59c 0 _ZN11QTapGestureD0Ev
PUBLIC 1bc5d8 0 _ZN13QSwipeGestureD2Ev
PUBLIC 1bc60c 0 _ZN13QSwipeGestureD0Ev
PUBLIC 1bc648 0 _ZN13QPinchGestureD1Ev
PUBLIC 1bc67c 0 _ZN13QPinchGestureD0Ev
PUBLIC 1bc6b8 0 _ZN11QPanGestureD2Ev
PUBLIC 1bc6ec 0 _ZN11QPanGestureD0Ev
PUBLIC 1be85c 0 _ZN18QGestureRecognizerD1Ev
PUBLIC 1be880 0 _ZN18QGestureRecognizer5resetEP8QGesture
PUBLIC 1be8b8 0 _ZN18QGestureRecognizerD0Ev
PUBLIC 1be8d4 0 _ZN18QGestureRecognizer6createEP7QObject
PUBLIC 1be900 0 _ZN18QGestureRecognizerC2Ev
PUBLIC 1be924 0 _ZN18QGestureRecognizer18registerRecognizerEPS_
PUBLIC 1be93c 0 _ZN18QGestureRecognizer20unregisterRecognizerEN2Qt11GestureTypeE
PUBLIC 1cb29c 0 _ZNK14QDesktopWidget17availableGeometryEPK7QWidget
PUBLIC 1cb838 0 _ZNK14QDesktopWidget14screenGeometryEPK7QWidget
PUBLIC 1cbe28 0 _ZN18QGuiPlatformPlugin19systemIconThemeNameEv
PUBLIC 1cbe74 0 _ZN18QGuiPlatformPlugin20iconThemeSearchPathsEv
PUBLIC 1cbec0 0 _ZN18QGuiPlatformPlugin12platformHintENS_12PlatformHintE
PUBLIC 1cbec8 0 _ZN18QGuiPlatformPlugin9styleNameEv
PUBLIC 1cbef0 0 _ZN18QGuiPlatformPluginD2Ev
PUBLIC 1cbf38 0 _ZThn8_N18QGuiPlatformPluginD1Ev
PUBLIC 1cbf40 0 _ZN18QGuiPlatformPluginD0Ev
PUBLIC 1cbf5c 0 _ZThn8_N18QGuiPlatformPluginD0Ev
PUBLIC 1cbf64 0 _ZN18QGuiPlatformPlugin7paletteEv
PUBLIC 1cbf78 0 _ZN18QGuiPlatformPlugin14fileSystemIconERK9QFileInfo
PUBLIC 1cbf8c 0 _ZN18QGuiPlatformPluginC2EP7QObject
PUBLIC 1cc294 0 _ZN27QGuiPlatformPluginInterfaceD1Ev
PUBLIC 1cc2b8 0 _ZN27QGuiPlatformPluginInterfaceD0Ev
PUBLIC 1cca34 0 _Z19qws_qtePipeFilenamev
PUBLIC 1ccc98 0 _ZN19QApplicationPrivate21createEventDispatcherEv
PUBLIC 1ccd18 0 _ZN10QWSDisplay4Data10lockClientEN7QWSLock8LockTypeEi
PUBLIC 1ccd60 0 _ZN10QWSDisplay4Data12unlockClientEN7QWSLock8LockTypeE
PUBLIC 1ccd8c 0 _ZN10QWSDisplay4Data10waitClientEN7QWSLock8LockTypeEi
PUBLIC 1ccdd4 0 _ZN10QWSDisplay4Data13getClientLockEv
PUBLIC 1ccdf4 0 _ZN10QWSDisplay4Data5flushEv
PUBLIC 1cce24 0 _ZN10QWSDisplay4Data13queueNotEmptyEv
PUBLIC 1cce58 0 _ZN10QWSDisplay4Data22directServerConnectionEv
PUBLIC 1cce68 0 _ZN10QWSDisplay4Data13flushCommandsEv
PUBLIC 1cce78 0 _ZN10QWSDisplay4Data14setMouseFilterEPFvP13QWSMouseEventE
PUBLIC 1cce80 0 _ZN10QWSDisplay4Data13connectToPipeEv
PUBLIC 1ccfd8 0 _ZNK10QWSDisplay4Data22hasPendingRegionEventsEv
PUBLIC 1cd030 0 _ZN10QWSDisplay7grabbedEv
PUBLIC 1cd050 0 _ZN10QWSDisplay4grabEv
PUBLIC 1cd074 0 _ZN10QWSDisplay4grabEb
PUBLIC 1cd098 0 _ZN10QWSDisplay6ungrabEv
PUBLIC 1cd0b8 0 _ZNK10QWSDisplay11frameBufferEv
PUBLIC 1cd0dc 0 _ZNK10QWSDisplay5widthEv
PUBLIC 1cd100 0 _ZNK10QWSDisplay6heightEv
PUBLIC 1cd124 0 _ZNK10QWSDisplay5depthEv
PUBLIC 1cd148 0 _ZNK10QWSDisplay11pixmapDepthEv
PUBLIC 1cd178 0 _ZNK10QWSDisplay13supportsDepthEi
PUBLIC 1cd1a8 0 _ZNK10QWSDisplay9sharedRamEv
PUBLIC 1cd1b4 0 _ZNK10QWSDisplay13sharedRamSizeEv
PUBLIC 1cd1c0 0 _ZN10QWSDisplay8initLockERK7QStringb
PUBLIC 1cd260 0 _ZN10QWSDisplay13flushCommandsEv
PUBLIC 1cd284 0 _ZN10QWSDisplay10windowListEv
PUBLIC 1cd76c 0 _ZN10QWSDisplay8windowAtERK6QPoint
PUBLIC 1cd7c0 0 _ZN10QWSDisplay22setRawMouseEventFilterEPFvP13QWSMouseEventE
PUBLIC 1cd7f0 0 _ZN19QApplicationPrivate27initializeWidgetPaletteHashEv
PUBLIC 1cd7f4 0 _ZNK19QApplicationPrivate7appNameEv
PUBLIC 1cd838 0 _ZN19QApplicationPrivate36applyQWSSpecificCommandLineArgumentsEP7QWidget
PUBLIC 1cdd28 0 _ZN19QApplicationPrivate10findWidgetERK5QListIP7QObjectERK6QPointb
PUBLIC 1cde68 0 _ZN12QApplication4beepEv
PUBLIC 1cde6c 0 _ZN12QApplication5alertEP7QWidgeti
PUBLIC 1cde70 0 _ZN12QApplication14qwsEventFilterEP8QWSEvent
PUBLIC 1cde78 0 _ZN12QApplication18qwsSetCustomColorsEPjii
PUBLIC 1cdf40 0 _ZN12QApplication13qwsDecorationEv
PUBLIC 1cdf54 0 _ZN19QApplicationPrivate10modalStateEv
PUBLIC 1ce224 0 _ZN12QApplication18setCursorFlashTimeEi
PUBLIC 1ce244 0 _ZN12QApplication15cursorFlashTimeEv
PUBLIC 1ce264 0 _ZN12QApplication22setDoubleClickIntervalEi
PUBLIC 1ce284 0 _ZN12QApplication19doubleClickIntervalEv
PUBLIC 1ce2a4 0 _ZN12QApplication24setKeyboardInputIntervalEi
PUBLIC 1ce2c4 0 _ZN12QApplication21keyboardInputIntervalEv
PUBLIC 1ce2e4 0 _ZN12QApplication19setWheelScrollLinesEi
PUBLIC 1ce304 0 _ZN12QApplication16wheelScrollLinesEv
PUBLIC 1ce324 0 _ZN12QApplication16setEffectEnabledEN2Qt8UIEffectEb
PUBLIC 1ce40c 0 _ZN12QApplication15isEffectEnabledEN2Qt8UIEffectE
PUBLIC 1ce52c 0 _ZN12QApplication7setArgsEiPPc
PUBLIC 1ce540 0 _ZN19QApplicationPrivate24initializeMultitouch_sysEv
PUBLIC 1ce544 0 _ZN19QApplicationPrivate21cleanupMultitouch_sysEv
PUBLIC 1ce5a0 0 _ZN10QWSDisplay4DataD1Ev
PUBLIC 1ce82c 0 _ZN10QWSDisplayD1Ev
PUBLIC 1ce894 0 _ZN19QApplicationPrivate14enterModal_sysEP7QWidget
PUBLIC 1cea24 0 _ZN10QWSDisplay4Data11sendCommandER10QWSCommand
PUBLIC 1cea40 0 _ZN10QWSDisplay4Data6createEi
PUBLIC 1ceadc 0 _ZN10QWSDisplay11addPropertyEii
PUBLIC 1ceb7c 0 _ZN10QWSDisplay11setPropertyEiiiRK10QByteArray
PUBLIC 1cec4c 0 _ZN10QWSDisplay11setPropertyEiiiPKc
PUBLIC 1ced24 0 _ZN10QWSDisplay14removePropertyEii
PUBLIC 1cedc0 0 _ZN10QWSDisplay10setOpacityEii
PUBLIC 1ceea0 0 _ZN10QWSDisplay12requestFocusEib
PUBLIC 1cef80 0 _ZN10QWSDisplay11setIdentityERK7QString
PUBLIC 1cf22c 0 _ZN10QWSDisplay10nameRegionEiRK7QStringS2_
PUBLIC 1cf638 0 _ZN10QWSDisplay16setWindowCaptionEP7QWidgetRK7QString
PUBLIC 1cf740 0 _ZN10QWSDisplay13destroyRegionEi
PUBLIC 1cf828 0 _ZN10QWSDisplay12sendIMUpdateEiii
PUBLIC 1cf91c 0 _ZN10QWSDisplay7resetIMEv
PUBLIC 1cf92c 0 _ZN10QWSDisplay16sendIMMouseEventEib
PUBLIC 1cfa20 0 _ZN10QWSDisplay17setSelectionOwnerEiRK5QTime
PUBLIC 1cfb08 0 _ZN10QWSDisplay16convertSelectionEiiRK7QString
PUBLIC 1cfc3c 0 _ZN10QWSDisplay13destroyCursorEi
PUBLIC 1cfd50 0 _ZN10QWSDisplay13playSoundFileERK7QString
PUBLIC 1cfed8 0 _ZN10QWSDisplay15registerChannelERK7QString
PUBLIC 1d0138 0 _ZN10QWSDisplay11sendMessageERK7QStringS2_RK10QByteArray
PUBLIC 1d0478 0 _ZN10QWSDisplay15sendFontCommandEiRK10QByteArray
PUBLIC 1d0604 0 _ZN10QWSDisplay12selectCursorEP7QWidgetj
PUBLIC 1d06e0 0 _ZN10QWSDisplay17setCursorPositionEii
PUBLIC 1d078c 0 _ZN10QWSDisplay9grabMouseEP7QWidgetb
PUBLIC 1d0850 0 _ZN10QWSDisplay12grabKeyboardEP7QWidgetb
PUBLIC 1d0914 0 _ZN10QWSDisplay17setTransformationEii
PUBLIC 1d09d8 0 _ZN10QWSDisplay4Data22sendSynchronousCommandER10QWSCommand
PUBLIC 1d0b30 0 _ZN10QWSDisplay11setAltitudeEiib
PUBLIC 1d0c24 0 _ZN10QWSDisplay13requestRegionEiRK7QStringRK10QByteArrayRK7QRegion
PUBLIC 1d0fd8 0 _ZN10QWSDisplay13repaintRegionEiib7QRegion
PUBLIC 1d11a0 0 _ZN10QWSDisplay10moveRegionEiii
PUBLIC 1d1294 0 _ZN19QApplicationPrivate16setMaxWindowRectEPK7QScreeniRK5QRect
PUBLIC 1d1658 0 _ZN19QApplicationPrivate14leaveModal_sysEP7QWidget
PUBLIC 1d16f8 0 _ZN12QApplication10topLevelAtERK6QPoint
PUBLIC 1d1828 0 _ZN12QApplication16qwsSetDecorationEP11QDecoration
PUBLIC 1d19b4 0 _ZN12QApplication16qwsSetDecorationERK7QString
PUBLIC 1d19d0 0 _ZN10QWSDisplay4Data4peekEv
PUBLIC 1d1a08 0 _ZN10QWSDisplay4Data7dequeueEv
PUBLIC 1d1ac0 0 _ZN10QWSDisplay4Data8readMoreEv
PUBLIC 1d1de8 0 _ZN12QApplication17setOverrideCursorERK7QCursor
PUBLIC 1d2068 0 _ZN12QApplication21restoreOverrideCursorEv
PUBLIC 1d2220 0 _ZN19QApplicationPrivate23setScreenTransformationEP7QScreenii
PUBLIC 1d2934 0 _ZN10QWSDisplay4Data9fillQueueEv
PUBLIC 1d2c8c 0 _ZN10QWSDisplay4Data17waitForConnectionEv
PUBLIC 1d2d28 0 _ZN10QWSDisplay4Data15waitForCreationEv
PUBLIC 1d2d8c 0 _ZN10QWSDisplay4Data6takeIdEv
PUBLIC 1d2e44 0 _ZN10QWSDisplay6takeIdEv
PUBLIC 1d2e4c 0 _ZN10QWSDisplay4Data6reinitERK7QString
PUBLIC 1d3434 0 _Z13qt_app_reinitRK7QString
PUBLIC 1d345c 0 _ZN10QWSDisplay4Data4initEv
PUBLIC 1d3d7c 0 _ZN10QWSDisplay4DataC1EP7QObjectb
PUBLIC 1d3eb8 0 _ZN10QWSDisplayC2Ev
PUBLIC 1d3efc 0 _ZN10QWSDisplay4Data20waitForPropertyReplyEv
PUBLIC 1d3f74 0 _ZN10QWSDisplay11getPropertyEiiRPcRi
PUBLIC 1d40ec 0 _ZN10QWSDisplay4Data19waitForQCopResponseEv
PUBLIC 1d4190 0 _ZN10QWSDisplay19waitForQCopResponseEv
PUBLIC 1d41c8 0 _ZNK10QWSDisplay12eventPendingEv
PUBLIC 1d41ec 0 _ZN10QWSDisplay8getEventEv
PUBLIC 1d4208 0 _ZN10QWSDisplay14sendIMResponseEiiRK8QVariant
PUBLIC 1d44dc 0 _ZN10QWSDisplay12defineCursorEiRK7QBitmapS2_ii
PUBLIC 1d47d4 0 _ZN19QApplicationPrivate18qws_apply_settingsEv
PUBLIC 1d7e68 0 _ZN19QApplicationPrivate9openPopupEP7QWidget
PUBLIC 1d8024 0 _ZN19QApplicationPrivate10closePopupEP7QWidget
PUBLIC 1d916c 0 _ZN12QApplication15qwsProcessEventEP8QWSEvent
PUBLIC 1da0b0 0 _ZN10QWSDisplay4Data16waitForRegionAckEi
PUBLIC 1da234 0 _ZN10QWSDisplay4Data19waitForRegionEventsEib
PUBLIC 1db0e4 0 _ZN10QClipboard5clearENS_4ModeE
PUBLIC 1db18c 0 _ZNK10QClipboard8mimeDataENS_4ModeE
PUBLIC 1db280 0 _ZN10QClipboard11setMimeDataEP9QMimeDataNS_4ModeE
PUBLIC 1db5a4 0 _ZNK10QClipboard12supportsModeENS_4ModeE
PUBLIC 1db5b0 0 _ZNK10QClipboard8ownsModeENS_4ModeE
PUBLIC 1db5d4 0 _ZN10QClipboard13connectNotifyEPKc
PUBLIC 1db5d8 0 _ZN10QClipboard14ownerDestroyedEv
PUBLIC 1db5dc 0 _ZN10QClipboard5eventEP6QEvent
PUBLIC 1db7f0 0 _ZNK7QCursor6handleEv
PUBLIC 1dba54 0 _ZN7QCursor3posEv
PUBLIC 1dbaa8 0 _ZN7QCursor6setPosEii
PUBLIC 1dbb58 0 _ZN14QDesktopWidget11resizeEventEP12QResizeEvent
PUBLIC 1dbb5c 0 _ZN14QDesktopWidgetD2Ev
PUBLIC 1dbb98 0 _ZThn8_N14QDesktopWidgetD1Ev
PUBLIC 1dbba0 0 _ZN14QDesktopWidgetD0Ev
PUBLIC 1dbbbc 0 _ZThn8_N14QDesktopWidgetD0Ev
PUBLIC 1dbbc4 0 _ZN14QDesktopWidgetC1Ev
PUBLIC 1dbccc 0 _ZNK14QDesktopWidget16isVirtualDesktopEv
PUBLIC 1dbcd4 0 _ZNK14QDesktopWidget13primaryScreenEv
PUBLIC 1dbcdc 0 _ZN14QDesktopWidget6screenEi
PUBLIC 1dbce0 0 _ZNK14QDesktopWidget10numScreensEv
PUBLIC 1dbd50 0 _ZNK14QDesktopWidget14screenGeometryEi
PUBLIC 1dbeb8 0 _ZNK14QDesktopWidget12screenNumberERK6QPoint
PUBLIC 1dc00c 0 _ZNK14QDesktopWidget12screenNumberEPK7QWidget
PUBLIC 1dc1a8 0 _ZNK14QDesktopWidget17availableGeometryEi
PUBLIC 1de61c 0 _ZNK7QWidget11mapToGlobalERK6QPoint
PUBLIC 1de674 0 _ZNK7QWidget13mapFromGlobalERK6QPoint
PUBLIC 1de6cc 0 _ZN14QWidgetPrivate22updateSystemBackgroundEv
PUBLIC 1de6d0 0 _ZN14QWidgetPrivate18setWindowTitle_sysERK7QString
PUBLIC 1de6f0 0 _ZN14QWidgetPrivate17setWindowIcon_sysEb
PUBLIC 1de6f4 0 _ZN14QWidgetPrivate21setWindowIconText_sysERK7QString
PUBLIC 1de6f8 0 _ZN7QWidget12releaseMouseEv
PUBLIC 1de73c 0 _ZN7QWidget9grabMouseEv
PUBLIC 1de798 0 _ZN7QWidget9grabMouseERK7QCursor
PUBLIC 1de818 0 _ZN7QWidget15releaseKeyboardEv
PUBLIC 1de850 0 _ZN7QWidget12grabKeyboardEv
PUBLIC 1de898 0 _ZN7QWidget12mouseGrabberEv
PUBLIC 1de8d0 0 _ZN7QWidget15keyboardGrabberEv
PUBLIC 1de8e0 0 _ZN7QWidget14activateWindowEv
PUBLIC 1de914 0 _ZN14QWidgetPrivate8hide_sysEv
PUBLIC 1de9c8 0 _ZN14QWidgetPrivate13setParent_sysEP7QWidget6QFlagsIN2Qt10WindowTypeEE
PUBLIC 1dee8c 0 _ZN14QWidgetPrivate24setMaxWindowState_helperEv
PUBLIC 1def20 0 _ZN14QWidgetPrivate24setFullScreenSize_helperEv
PUBLIC 1defc0 0 _ZN14QWidgetPrivate12setFocus_sysEv
PUBLIC 1defc4 0 _ZN14QWidgetPrivate9lower_sysEv
PUBLIC 1df0cc 0 _ZN14QWidgetPrivate14stackUnder_sysEP7QWidget
PUBLIC 1df1a8 0 _ZN14QWidgetPrivate11moveSurfaceEP14QWindowSurfaceRK6QPoint
PUBLIC 1df210 0 _ZN14QWidgetPrivate18setConstraints_sysEv
PUBLIC 1df214 0 _ZN14QWidgetPrivate10scroll_sysEii
PUBLIC 1df27c 0 _ZN14QWidgetPrivate10scroll_sysEiiRK5QRect
PUBLIC 1df29c 0 _ZN14QWidgetPrivate14createSysExtraEv
PUBLIC 1df2a0 0 _ZN14QWidgetPrivate14deleteSysExtraEv
PUBLIC 1df2a4 0 _ZN14QWidgetPrivate16createTLSysExtraEv
PUBLIC 1df2b8 0 _ZN14QWidgetPrivate16deleteTLSysExtraEv
PUBLIC 1df2bc 0 _ZN14QWidgetPrivate16registerDropSiteEb
PUBLIC 1df2c0 0 _ZNK14QWidgetPrivate20localRequestedRegionEv
PUBLIC 1df354 0 _ZN14QWidgetPrivate8show_sysEv
PUBLIC 1df6d0 0 _ZNK14QWidgetPrivate20localAllocatedRegionEv
PUBLIC 1df820 0 _ZN14QWidgetPrivate16updateFrameStrutEv
PUBLIC 1df99c 0 _ZNK14QWidgetPrivate12updateCursorEv
PUBLIC 1dfbb0 0 _ZN14QWidgetPrivate13setCursor_sysERK7QCursor
PUBLIC 1dfbc8 0 _ZN14QWidgetPrivate15unsetCursor_sysEv
PUBLIC 1dfbe0 0 _ZN14QWidgetPrivate20setWindowOpacity_sysEf
PUBLIC 1dfc28 0 _ZNK7QWidget11paintEngineEv
PUBLIC 1dfc44 0 _ZThn8_NK7QWidget11paintEngineEv
PUBLIC 1dfc4c 0 _ZN14QWidgetPrivate30createDefaultWindowSurface_sysEv
PUBLIC 1dfca4 0 _ZN14QWidgetPrivate12setModal_sysEv
PUBLIC 1dfca8 0 _ZNK14QWidgetPrivate9getScreenEv
PUBLIC 1dfd78 0 _ZN14QWidgetPrivate10create_sysEmbb
PUBLIC 1e0548 0 _ZN7QWidget7destroyEbb
PUBLIC 1e0930 0 _ZN14QWidgetPrivate9raise_sysEv
PUBLIC 1e0b4c 0 _ZN7QWidget14setWindowStateE6QFlagsIN2Qt11WindowStateEE
PUBLIC 1e0ea8 0 _ZN14QWidgetPrivate15setGeometry_sysEiiiib
PUBLIC 1e1360 0 _ZNK7QWidget6metricEN12QPaintDevice17PaintDeviceMetricE
PUBLIC 1e166c 0 _ZThn8_NK7QWidget6metricEN12QPaintDevice17PaintDeviceMetricE
PUBLIC 1e1674 0 _ZN14QWidgetPrivate11setMask_sysERK7QRegion
PUBLIC 1e1abc 0 _ZN7QBitmapD1Ev
PUBLIC 1e1af0 0 _ZN7QBitmapD0Ev
PUBLIC 1e1b0c 0 _ZN7QBitmapC1Ev
PUBLIC 1e1b60 0 _ZN7QBitmapC1Eii
PUBLIC 1e1bac 0 _ZN7QBitmapC2ERK5QSize
PUBLIC 1e1be8 0 _ZN7QBitmapC1ERK7QStringPKc
PUBLIC 1e1c6c 0 _ZNK7QBitmapcv8QVariantEv
PUBLIC 1e1c88 0 _ZN7QBitmap9fromImageERK6QImage6QFlagsIN2Qt19ImageConversionFlagEE
PUBLIC 1e1e38 0 _ZN7QBitmapaSERK7QPixmap
PUBLIC 1e1f50 0 _ZN7QBitmapC2ERK7QPixmap
PUBLIC 1e1fa4 0 _ZN7QBitmap8fromDataERK5QSizePKhN6QImage6FormatE
PUBLIC 1e209c 0 _ZNK7QBitmap11transformedERK10QTransform
PUBLIC 1e20f0 0 _ZNK7QBitmap11transformedERK7QMatrix
PUBLIC 1e240c 0 _ZN5QIconC2Ev
PUBLIC 1e2418 0 _ZN5QIconC2ERKS_
PUBLIC 1e245c 0 _ZN5QIconC2EP11QIconEngine
PUBLIC 1e24b0 0 _ZN5QIconC2EP13QIconEngineV2
PUBLIC 1e24f0 0 _ZN5QIconD2Ev
PUBLIC 1e25d0 0 _ZN5QIconaSERKS_
PUBLIC 1e26e8 0 _ZNK5QIconcv8QVariantEv
PUBLIC 1e2704 0 _ZNK5QIcon12serialNumberEv
PUBLIC 1e2714 0 _ZNK5QIcon8cacheKeyEv
PUBLIC 1e273c 0 _ZNK5QIcon6pixmapERK5QSizeNS_4ModeENS_5StateE
PUBLIC 1e2788 0 _ZNK5QIcon10actualSizeERK5QSizeNS_4ModeENS_5StateE
PUBLIC 1e27d0 0 _ZNK5QIcon5paintEP8QPainterRK5QRect6QFlagsIN2Qt13AlignmentFlagEENS_4ModeENS_5StateE
PUBLIC 1e28b0 0 _ZNK5QIcon6isNullEv
PUBLIC 1e28c0 0 _ZNK5QIcon10isDetachedEv
PUBLIC 1e28e8 0 _ZN5QIcon6detachEv
PUBLIC 1e2a60 0 _ZN5QIcon9addPixmapERK7QPixmapNS_4ModeENS_5StateE
PUBLIC 1e2b00 0 _ZN5QIconC2ERK7QPixmap
PUBLIC 1e2b20 0 _ZN5QIcon7addFileERK7QStringRK5QSizeNS_4ModeENS_5StateE
PUBLIC 1e2ee4 0 _ZN5QIconC1ERK7QString
PUBLIC 1e2f20 0 _ZNK5QIcon14availableSizesENS_4ModeENS_5StateE
PUBLIC 1e2f9c 0 _ZNK5QIcon4nameEv
PUBLIC 1e3018 0 _ZN5QIcon19setThemeSearchPathsERK11QStringList
PUBLIC 1e3030 0 _ZN5QIcon16themeSearchPathsEv
PUBLIC 1e3050 0 _ZN5QIcon12setThemeNameERK7QString
PUBLIC 1e3068 0 _ZN5QIcon9themeNameEv
PUBLIC 1e3560 0 _ZN5QIcon9fromThemeERK7QStringRKS_
PUBLIC 1e3744 0 _ZN5QIcon12hasThemeIconERK7QString
PUBLIC 1e39b4 0 _ZlsR11QDataStreamRK5QIcon
PUBLIC 1e3c38 0 _ZrsR11QDataStreamR5QIcon
PUBLIC 1ecf84 0 _ZNK6QImage7devTypeEv
PUBLIC 1edf40 0 _ZNK6QImage11paintEngineEv
PUBLIC 1ee238 0 _ZNK6QImage6metricEN12QPaintDevice17PaintDeviceMetricE
PUBLIC 1f1b5c 0 _ZNK10QImageData19checkForAlphaPixelsEv
PUBLIC 1f1dc0 0 _ZN6QImageC1Ev
PUBLIC 1f1e00 0 _ZN6QImageC2EPKPKc
PUBLIC 1f1e84 0 _ZNK6QImagecv8QVariantEv
PUBLIC 1f1ea0 0 _ZNK6QImage6isNullEv
PUBLIC 1f1eb0 0 _ZNK6QImage5widthEv
PUBLIC 1f1ec0 0 _ZNK6QImage6heightEv
PUBLIC 1f1ed0 0 _ZNK6QImage4sizeEv
PUBLIC 1f1ef4 0 _ZNK6QImage4rectEv
PUBLIC 1f1f3c 0 _ZNK6QImage5depthEv
PUBLIC 1f1f4c 0 _ZNK6QImage9numColorsEv
PUBLIC 1f1f60 0 _ZNK6QImage10colorCountEv
PUBLIC 1f1f74 0 _ZNK6QImage8numBytesEv
PUBLIC 1f1f84 0 _ZNK6QImage9byteCountEv
PUBLIC 1f1f94 0 _ZNK6QImage12bytesPerLineEv
PUBLIC 1f1fcc 0 _ZNK6QImage5colorEi
PUBLIC 1f1fe8 0 _ZNK6QImage8scanLineEi
PUBLIC 1f2004 0 _ZNK6QImage13constScanLineEi
PUBLIC 1f2020 0 _ZNK6QImage4bitsEv
PUBLIC 1f2030 0 _ZNK6QImage9constBitsEv
PUBLIC 1f2040 0 _ZNK6QImage6formatEv
PUBLIC 1f2054 0 _ZNK6QImage5validEii
PUBLIC 1f2098 0 _ZNK6QImage10pixelIndexEii
PUBLIC 1f2194 0 _ZNK6QImage5pixelEii
PUBLIC 1f2554 0 _ZNK6QImage7allGrayEv
PUBLIC 1f2754 0 _ZNK6QImage11isGrayscaleEv
PUBLIC 1f2844 0 _ZNK10QImageData9doImageIOEPK6QImageP12QImageWriteri
PUBLIC 1f28a0 0 _ZNK6QImage4saveERK7QStringPKci
PUBLIC 1f2980 0 _ZNK6QImage4saveEP9QIODevicePKci
PUBLIC 1f2a60 0 _ZlsR11QDataStreamRK6QImage
PUBLIC 1f2b70 0 _ZNK6QImageeqERKS_
PUBLIC 1f2dbc 0 _ZNK6QImageneERKS_
PUBLIC 1f2dd0 0 _ZNK6QImage13dotsPerMeterXEv
PUBLIC 1f2e54 0 _ZNK6QImage13dotsPerMeterYEv
PUBLIC 1f2ed8 0 _ZNK6QImage6offsetEv
PUBLIC 1f2f00 0 _ZNK6QImage4textEPKcS1_
PUBLIC 1f3158 0 _ZNK6QImage4textERK17QImageTextKeyLang
PUBLIC 1f3ed0 0 _ZNK6QImage12serialNumberEv
PUBLIC 1f3ee0 0 _ZNK6QImage8cacheKeyEv
PUBLIC 1f3f08 0 _Z11qt_image_idRK6QImage
PUBLIC 1f3f0c 0 _ZNK6QImage10isDetachedEv
PUBLIC 1f3f2c 0 _ZNK6QImage15hasAlphaChannelEv
PUBLIC 1f3f8c 0 _ZNK6QImage13bitPlaneCountEv
PUBLIC 1f4038 0 _ZN6QImage10trueMatrixERK10QTransformii
PUBLIC 1f40e0 0 _ZN6QImage10trueMatrixERK7QMatrixii
PUBLIC 1f4134 0 _ZN10QImageData14convertInPlaceEN6QImage6FormatE6QFlagsIN2Qt19ImageConversionFlagEE
PUBLIC 1f41a0 0 _ZN10QImageDataC1Ev
PUBLIC 1f42e0 0 _ZN10QImageData6createEPhiiiN6QImage6FormatEb
PUBLIC 1f4468 0 _ZN6QImageC1EPhiiNS_6FormatE
PUBLIC 1f44e4 0 _ZN6QImageC2EPKhiiNS_6FormatE
PUBLIC 1f4560 0 _ZN6QImageC2EPhiiiNS_6FormatE
PUBLIC 1f45e0 0 _ZN6QImageC1EPKhiiiNS_6FormatE
PUBLIC 1f4660 0 _ZN10QImageDataD2Ev
PUBLIC 1f4780 0 _ZN6QImageD2Ev
PUBLIC 1f4818 0 _ZN6QImageD0Ev
PUBLIC 1f5500 0 _ZNK6QImage10colorTableEv
PUBLIC 1f6058 0 _ZNK6QImage4textERK7QString
PUBLIC 1f6498 0 _ZNK6QImage8textKeysEv
PUBLIC 1f656c 0 _ZNK6QImage13textLanguagesEv
PUBLIC 1f6758 0 _ZN10QImageData6createERK5QSizeN6QImage6FormatEi
PUBLIC 1f69c8 0 _ZN6QImageC2EiiNS_6FormatE
PUBLIC 1f6a3c 0 _ZNK6QImage4copyERK5QRect
PUBLIC 1f6fe4 0 _ZN6QImageaSERKS_
PUBLIC 1f70e4 0 _ZN6QImage4loadERK7QStringPKc
PUBLIC 1f7200 0 _ZN6QImageC1ERK7QStringPKc
PUBLIC 1f7264 0 _ZN6QImageC1EPKcS1_
PUBLIC 1f7334 0 _ZN6QImage4loadEP9QIODevicePKc
PUBLIC 1f7434 0 _ZrsR11QDataStreamR6QImage
PUBLIC 1f7558 0 _ZN6QImageC2ERKS_
PUBLIC 1f7640 0 _ZN6QImage6detachEv
PUBLIC 1f7710 0 _ZN6QImage13setColorTableE7QVectorIjE
PUBLIC 1f77a8 0 _ZN6QImage8scanLineEi
PUBLIC 1f77e8 0 _ZN6QImage8setPixelEiij
PUBLIC 1f7b10 0 _ZN6QImage4bitsEv
PUBLIC 1f7b44 0 _ZN6QImage4fillEj
PUBLIC 1f7e84 0 _ZN6QImage12invertPixelsENS_10InvertModeE
PUBLIC 1f7f78 0 _ZN6QImage13setColorCountEi
PUBLIC 1f80a4 0 _ZN6QImage12setNumColorsEi
PUBLIC 1f80a8 0 _ZN6QImage8setColorEij
PUBLIC 1f818c 0 _ZN6QImage16setDotsPerMeterXEi
PUBLIC 1f81cc 0 _ZN6QImage16setDotsPerMeterYEi
PUBLIC 1f820c 0 _ZN6QImage9setOffsetERK6QPoint
PUBLIC 1f8240 0 _ZN6QImage7setTextERK7QStringS2_
PUBLIC 1f8330 0 _ZN6QImage7setTextEPKcS1_RK7QString
PUBLIC 1f8564 0 _ZNK6QImage8mirroredEbb
PUBLIC 1f8abc 0 _ZNK6QImage10rgbSwappedEv
PUBLIC 1f94fc 0 _ZNK6QImage15convertToFormatENS_6FormatE6QFlagsIN2Qt19ImageConversionFlagEE
PUBLIC 1f9740 0 _ZN6QImage15setAlphaChannelERKS_
PUBLIC 1f9b88 0 _ZNK6QImage15createAlphaMaskE6QFlagsIN2Qt19ImageConversionFlagEE
PUBLIC 1f9c80 0 _ZNK6QImage19createHeuristicMaskEb
PUBLIC 1fa1f0 0 _ZNK6QImage12alphaChannelEv
PUBLIC 1fa418 0 _ZNK6QImage11transformedERK10QTransformN2Qt18TransformationModeE
PUBLIC 1fb28c 0 _ZNK6QImage6scaledERK5QSizeN2Qt15AspectRatioModeENS3_18TransformationModeE
PUBLIC 1fb410 0 _ZNK6QImage13scaledToWidthEiN2Qt18TransformationModeE
PUBLIC 1fb4c8 0 _ZNK6QImage14scaledToHeightEiN2Qt18TransformationModeE
PUBLIC 1fb580 0 _ZNK6QImage11transformedERK7QMatrixN2Qt18TransformationModeE
PUBLIC 1fb5c4 0 _ZN6QImageC2ERK5QSizeNS_6FormatE
PUBLIC 1fb624 0 _ZNK6QImage19createMaskFromColorEjN2Qt8MaskModeE
PUBLIC 1fb820 0 _ZNK6QImage15convertToFormatENS_6FormatERK7QVectorIjE6QFlagsIN2Qt19ImageConversionFlagEE
PUBLIC 1fd05c 0 _ZNK6QImage8textListEv
PUBLIC 1fd36c 0 _ZN6QImage8fromDataEPKhiPKc
PUBLIC 1fd4a4 0 _ZN6QImage12loadFromDataEPKhiPKc
PUBLIC 1fd798 0 _ZN17QImageTextKeyLangD2Ev
PUBLIC 1fe49c 0 _ZN17QImageTextKeyLangC2ERKS_
PUBLIC 1fe750 0 _ZN15QImageIOHandlerD1Ev
PUBLIC 1fe7a0 0 _ZN15QImageIOHandler5writeERK6QImage
PUBLIC 1fe7a8 0 _ZN15QImageIOHandler9setOptionENS_11ImageOptionERK8QVariant
PUBLIC 1fe7ac 0 _ZNK15QImageIOHandler6optionENS_11ImageOptionE
PUBLIC 1fe7cc 0 _ZNK15QImageIOHandler14supportsOptionENS_11ImageOptionE
PUBLIC 1fe7d4 0 _ZNK15QImageIOHandler18currentImageNumberEv
PUBLIC 1fe7dc 0 _ZNK15QImageIOHandler16currentImageRectEv
PUBLIC 1fe7f8 0 _ZNK15QImageIOHandler10imageCountEv
PUBLIC 1fe80c 0 _ZN15QImageIOHandler15jumpToNextImageEv
PUBLIC 1fe814 0 _ZN15QImageIOHandler11jumpToImageEi
PUBLIC 1fe81c 0 _ZNK15QImageIOHandler9loopCountEv
PUBLIC 1fe824 0 _ZNK15QImageIOHandler14nextImageDelayEv
PUBLIC 1fe82c 0 _ZN15QImageIOHandlerD0Ev
PUBLIC 1fe848 0 _ZN14QImageIOPluginD2Ev
PUBLIC 1fe890 0 _ZThn8_N14QImageIOPluginD1Ev
PUBLIC 1fe898 0 _ZN14QImageIOPluginD0Ev
PUBLIC 1fe8b4 0 _ZThn8_N14QImageIOPluginD0Ev
PUBLIC 1fe9e8 0 _ZN15QImageIOHandlerC2Ev
PUBLIC 1fea80 0 _ZN15QImageIOHandlerC1ER22QImageIOHandlerPrivate
PUBLIC 1feaa8 0 _ZN15QImageIOHandler9setDeviceEP9QIODevice
PUBLIC 1feab4 0 _ZNK15QImageIOHandler6deviceEv
PUBLIC 1feac0 0 _ZN15QImageIOHandler9setFormatERK10QByteArray
PUBLIC 1feacc 0 _ZNK15QImageIOHandler9setFormatERK10QByteArray
PUBLIC 1fead8 0 _ZNK15QImageIOHandler6formatEv
PUBLIC 1feb14 0 _ZNK15QImageIOHandler4nameEv
PUBLIC 1feb28 0 _ZN14QImageIOPluginC2EP7QObject
PUBLIC 1feb68 0 _ZN31QImageIOHandlerFactoryInterfaceD1Ev
PUBLIC 1feb8c 0 _ZN31QImageIOHandlerFactoryInterfaceD0Ev
PUBLIC 1feed0 0 _ZN12QImageReader9setFormatERK10QByteArray
PUBLIC 1feed8 0 _ZN12QImageReader24setAutoDetectImageFormatEb
PUBLIC 1feee4 0 _ZNK12QImageReader21autoDetectImageFormatEv
PUBLIC 1feef0 0 _ZN12QImageReader26setDecideFormatFromContentEb
PUBLIC 1feefc 0 _ZNK12QImageReader23decideFormatFromContentEv
PUBLIC 1fef08 0 _ZNK12QImageReader6deviceEv
PUBLIC 1fef14 0 _ZNK12QImageReader8fileNameEv
PUBLIC 1fef94 0 _ZN12QImageReader10setQualityEi
PUBLIC 1fefa0 0 _ZNK12QImageReader7qualityEv
PUBLIC 1fefac 0 _ZN12QImageReader11setClipRectERK5QRect
PUBLIC 1fefc0 0 _ZNK12QImageReader8clipRectEv
PUBLIC 1fefdc 0 _ZN12QImageReader13setScaledSizeERK5QSize
PUBLIC 1feff0 0 _ZNK12QImageReader10scaledSizeEv
PUBLIC 1ff00c 0 _ZN12QImageReader17setScaledClipRectERK5QRect
PUBLIC 1ff020 0 _ZNK12QImageReader14scaledClipRectEv
PUBLIC 1ff03c 0 _ZNK12QImageReader5errorEv
PUBLIC 1ff048 0 _ZNK12QImageReader11errorStringEv
PUBLIC 200108 0 _ZN12QImageReader11imageFormatEP9QIODevice
PUBLIC 200320 0 _ZN12QImageReaderC2Ev
PUBLIC 200354 0 _ZN12QImageReaderC2EP9QIODeviceRK10QByteArray
PUBLIC 2003a0 0 _ZN12QImageReaderC1ERK7QStringRK10QByteArray
PUBLIC 200530 0 _ZN12QImageReaderD1Ev
PUBLIC 20055c 0 _ZN12QImageReader9setDeviceEP9QIODevice
PUBLIC 2006e8 0 _ZN12QImageReader11setFileNameERK7QString
PUBLIC 200730 0 _ZN12QImageReader21supportedImageFormatsEv
PUBLIC 201be0 0 _ZNK12QImageReader8textKeysEv
PUBLIC 201c74 0 _ZNK12QImageReader4textERK7QString
PUBLIC 201d8c 0 _ZNK12QImageReader6formatEv
PUBLIC 201e84 0 _ZNK12QImageReader4sizeEv
PUBLIC 201f24 0 _ZNK12QImageReader11imageFormatEv
PUBLIC 201fbc 0 _ZN12QImageReader18setBackgroundColorERK6QColor
PUBLIC 20204c 0 _ZNK12QImageReader15backgroundColorEv
PUBLIC 202180 0 _ZNK12QImageReader17supportsAnimationEv
PUBLIC 202214 0 _ZNK12QImageReader7canReadEv
PUBLIC 202244 0 _ZN12QImageReader15jumpToNextImageEv
PUBLIC 202274 0 _ZN12QImageReader11jumpToImageEi
PUBLIC 2022ac 0 _ZNK12QImageReader9loopCountEv
PUBLIC 2022e4 0 _ZNK12QImageReader10imageCountEv
PUBLIC 20231c 0 _ZNK12QImageReader14nextImageDelayEv
PUBLIC 202354 0 _ZNK12QImageReader18currentImageNumberEv
PUBLIC 20238c 0 _ZNK12QImageReader16currentImageRectEv
PUBLIC 2023e4 0 _ZNK12QImageReader14supportsOptionEN15QImageIOHandler11ImageOptionE
PUBLIC 20241c 0 _ZN12QImageReader4readEP6QImage
PUBLIC 202b9c 0 _ZN12QImageReader4readEv
PUBLIC 202c00 0 _ZN12QImageReader11imageFormatERK7QString
PUBLIC 203210 0 _ZN12QImageWriterC1Ev
PUBLIC 203244 0 _ZN12QImageWriterC1EP9QIODeviceRK10QByteArray
PUBLIC 203290 0 _ZN12QImageWriterC1ERK7QStringRK10QByteArray
PUBLIC 2032fc 0 _ZN12QImageWriterD2Ev
PUBLIC 20346c 0 _ZN12QImageWriter9setFormatERK10QByteArray
PUBLIC 203474 0 _ZNK12QImageWriter6formatEv
PUBLIC 2034b0 0 _ZN12QImageWriter9setDeviceEP9QIODevice
PUBLIC 203520 0 _ZNK12QImageWriter6deviceEv
PUBLIC 20352c 0 _ZN12QImageWriter11setFileNameERK7QString
PUBLIC 203574 0 _ZNK12QImageWriter8fileNameEv
PUBLIC 2035f4 0 _ZN12QImageWriter10setQualityEi
PUBLIC 203600 0 _ZNK12QImageWriter7qualityEv
PUBLIC 20360c 0 _ZN12QImageWriter14setCompressionEi
PUBLIC 203618 0 _ZNK12QImageWriter11compressionEv
PUBLIC 203624 0 _ZN12QImageWriter8setGammaEf
PUBLIC 203630 0 _ZNK12QImageWriter5gammaEv
PUBLIC 20363c 0 _ZN12QImageWriter14setDescriptionERK7QString
PUBLIC 203648 0 _ZNK12QImageWriter11descriptionEv
PUBLIC 203684 0 _ZN12QImageWriter7setTextERK7QStringS2_
PUBLIC 2038ac 0 _ZNK12QImageWriter5errorEv
PUBLIC 2038b8 0 _ZNK12QImageWriter11errorStringEv
PUBLIC 204168 0 _ZNK12QImageWriter8canWriteEv
PUBLIC 204304 0 _ZN12QImageWriter5writeERK6QImage
PUBLIC 204548 0 _ZNK12QImageWriter14supportsOptionEN15QImageIOHandler11ImageOptionE
PUBLIC 204624 0 _ZN12QImageWriter21supportedImageFormatsEv
PUBLIC 2079dc 0 _ZNK8QPicture7devTypeEv
PUBLIC 2079e4 0 _ZNK8QPicture11paintEngineEv
PUBLIC 207b50 0 _ZN8QPictureC1ERKS_
PUBLIC 207bc8 0 _ZN8QPictureC1ER15QPicturePrivate
PUBLIC 207c3c 0 _ZNK8QPicture6isNullEv
PUBLIC 207c54 0 _ZNK8QPicture4sizeEv
PUBLIC 207c70 0 _ZNK8QPicture4dataEv
PUBLIC 207c8c 0 _ZNK8QPicture10isDetachedEv
PUBLIC 207ca4 0 _ZN8QPicture15setBoundingRectERK5QRect
PUBLIC 207cb8 0 _ZN8QPicture13detach_helperEv
PUBLIC 207cd4 0 _ZlsR11QDataStreamRK8QPicture
PUBLIC 207eb0 0 _ZNK10QPictureIO7pictureEv
PUBLIC 207eb8 0 _ZNK10QPictureIO6statusEv
PUBLIC 207ec4 0 _ZNK10QPictureIO6formatEv
PUBLIC 207ed4 0 _ZNK10QPictureIO8ioDeviceEv
PUBLIC 207ee0 0 _ZNK10QPictureIO8fileNameEv
PUBLIC 207f1c 0 _ZNK10QPictureIO11descriptionEv
PUBLIC 207f58 0 _ZN10QPictureIO9setStatusEi
PUBLIC 207f64 0 _ZN10QPictureIO9setFormatEPKc
PUBLIC 207f70 0 _ZN10QPictureIO11setIODeviceEP9QIODevice
PUBLIC 207f7c 0 _ZN10QPictureIO11setFileNameERK7QString
PUBLIC 207f88 0 _ZNK10QPictureIO7qualityEv
PUBLIC 207f94 0 _ZN10QPictureIO10setQualityEi
PUBLIC 207fa0 0 _ZNK10QPictureIO10parametersEv
PUBLIC 207fac 0 _ZN10QPictureIO13setParametersEPKc
PUBLIC 207fe0 0 _ZN10QPictureIO8setGammaEf
PUBLIC 207fec 0 _ZNK10QPictureIO5gammaEv
PUBLIC 207ff8 0 _ZN10QPictureIO14setDescriptionERK7QString
PUBLIC 2085b8 0 _ZN10QPictureIO13pictureFormatEP9QIODevice
PUBLIC 208840 0 _ZN10QPictureIO13outputFormatsEv
PUBLIC 208934 0 _ZN8QPicture16outputFormatListEv
PUBLIC 208978 0 _ZN8QPicture13outputFormatsEv
PUBLIC 20898c 0 _ZN10QPictureIO15defineIOHandlerEPKcS1_S1_PFvPS_ES4_
PUBLIC 208a88 0 _ZN10QPictureIO12inputFormatsEv
PUBLIC 208e20 0 _ZN8QPicture12inputFormatsEv
PUBLIC 208e34 0 _ZN8QPicture15inputFormatListEv
PUBLIC 209064 0 _ZN8QPictureC1Ei
PUBLIC 20915c 0 _ZN8QPictureD2Ev
PUBLIC 209288 0 _ZN8QPictureD0Ev
PUBLIC 2092a4 0 _ZN10QPictureIOD2Ev
PUBLIC 2093b4 0 _ZN10QPictureIO4initEv
PUBLIC 2094e0 0 _ZN10QPictureIOC1Ev
PUBLIC 2094f4 0 _ZN10QPictureIOC1EP9QIODevicePKc
PUBLIC 209524 0 _ZN10QPictureIOC1ERK7QStringPKc
PUBLIC 209560 0 _ZN8QPictureaSERKS_
PUBLIC 20968c 0 _ZN10QPictureIO10setPictureERK8QPicture
PUBLIC 209950 0 _ZNK8QPicture12boundingRectEv
PUBLIC 2099bc 0 _ZNK8QPicture6metricEN12QPaintDevice17PaintDeviceMetricE
PUBLIC 209b0c 0 _ZrsR11QDataStreamR8QPicture
PUBLIC 209c74 0 _ZN8QPicture4execEP8QPainterR11QDataStreami
PUBLIC 20bee8 0 _ZN8QPicture4playEP8QPainter
PUBLIC 20c27c 0 _ZN8QPicture6detachEv
PUBLIC 20c29c 0 _ZN8QPicture7setDataEPKcj
PUBLIC 20c340 0 _ZN10QPictureIO13pictureFormatERK7QString
PUBLIC 20c444 0 _ZN8QPicture13pictureFormatERK7QString
PUBLIC 20c4a0 0 _ZN10QPictureIO5writeEv
PUBLIC 20c5e4 0 _ZN8QPicture4saveEP9QIODevicePKc
PUBLIC 20c6d4 0 _ZN8QPicture4saveERK7QStringPKc
PUBLIC 20c7d4 0 _ZN10QPictureIO4readEv
PUBLIC 20c990 0 _ZN8QPicture4loadEP9QIODevicePKc
PUBLIC 20ca84 0 _ZN8QPicture4loadERK7QStringPKc
PUBLIC 20caf0 0 _ZNK12QPaintDevice7devTypeEv
PUBLIC 20d4cc 0 _ZN20QPictureFormatPlugin11loadPictureERK7QStringS2_P8QPicture
PUBLIC 20d4d4 0 _ZThn8_N20QPictureFormatPlugin11loadPictureERK7QStringS2_P8QPicture
PUBLIC 20d4dc 0 _ZN20QPictureFormatPlugin11savePictureERK7QStringS2_RK8QPicture
PUBLIC 20d4e4 0 _ZThn8_N20QPictureFormatPlugin11savePictureERK7QStringS2_RK8QPicture
PUBLIC 20d4ec 0 _ZN20QPictureFormatPluginD2Ev
PUBLIC 20d534 0 _ZThn8_N20QPictureFormatPluginD1Ev
PUBLIC 20d53c 0 _ZN20QPictureFormatPluginD0Ev
PUBLIC 20d558 0 _ZThn8_N20QPictureFormatPluginD0Ev
PUBLIC 20d560 0 _ZN20QPictureFormatPluginC2EP7QObject
PUBLIC 20d5a0 0 _ZN23QPictureFormatInterfaceD1Ev
PUBLIC 20d5c4 0 _ZN23QPictureFormatInterfaceD0Ev
PUBLIC 20d5f8 0 _ZNK7QPixmap7devTypeEv
PUBLIC 20d600 0 _ZNK7QPixmap6metricEN12QPaintDevice17PaintDeviceMetricE
PUBLIC 20d620 0 _ZNK7QPixmap11paintEngineEv
PUBLIC 20d6b8 0 _ZN7QPixmapD2Ev
PUBLIC 20d750 0 _ZN7QPixmapD0Ev
PUBLIC 20d76c 0 _ZN7QPixmap4initEiii
PUBLIC 20d86c 0 _ZN7QPixmap4initEiiNS_4TypeE
PUBLIC 20d870 0 _ZN7QPixmapC1EP11QPixmapData
PUBLIC 20d8e8 0 _ZNK7QPixmapcv8QVariantEv
PUBLIC 20d904 0 _ZN7QPixmap10trueMatrixERK10QTransformii
PUBLIC 20d918 0 _ZN7QPixmap10trueMatrixERK7QMatrixii
PUBLIC 20d96c 0 _ZNK7QPixmap9isQBitmapEv
PUBLIC 20d984 0 _ZNK7QPixmap6isNullEv
PUBLIC 20d998 0 _ZNK7QPixmap7toImageEv
PUBLIC 20d9e0 0 _ZNK7QPixmap5widthEv
PUBLIC 20d9f0 0 _ZNK7QPixmap6heightEv
PUBLIC 20da00 0 _ZNK7QPixmap4sizeEv
PUBLIC 20da24 0 _ZNK7QPixmap4rectEv
PUBLIC 20da6c 0 _ZNK7QPixmap5depthEv
PUBLIC 20da7c 0 _ZN7QPixmap4loadERK7QStringPKc6QFlagsIN2Qt19ImageConversionFlagEE
PUBLIC 20df44 0 _ZN7QPixmap12loadFromDataEPKhjPKc6QFlagsIN2Qt19ImageConversionFlagEE
PUBLIC 20e050 0 _ZNK7QPixmap12serialNumberEv
PUBLIC 20e070 0 _ZNK7QPixmap8cacheKeyEv
PUBLIC 20e0c8 0 _Z12qt_pixmap_idRK7QPixmap
PUBLIC 20e0cc 0 _ZNK7QPixmap6handleEv
PUBLIC 20e0d4 0 _ZNK7QPixmap10isDetachedEv
PUBLIC 20e0f4 0 _ZN7QPixmap5derefEv
PUBLIC 20e0f8 0 _ZNK7QPixmap8hasAlphaEv
PUBLIC 20e118 0 _ZNK7QPixmap15hasAlphaChannelEv
PUBLIC 20e138 0 _ZNK7QPixmap4maskEv
PUBLIC 20e16c 0 _ZN7QPixmap12defaultDepthEv
PUBLIC 20e190 0 _ZN7QPixmap15fromImageReaderEP12QImageReader6QFlagsIN2Qt19ImageConversionFlagEE
PUBLIC 20e23c 0 _ZNK7QPixmap10pixmapDataEv
PUBLIC 20e280 0 _ZN7QPixmapC1Ev
PUBLIC 20e2ec 0 _ZNK7QPixmap12alphaChannelEv
PUBLIC 20e320 0 _ZNK7QPixmap4copyERK5QRect
PUBLIC 20e404 0 _ZN7QPixmapaSERKS_
PUBLIC 20e530 0 _ZN7QPixmap6detachEv
PUBLIC 20e608 0 _ZN7QPixmap4fillERK6QColor
PUBLIC 20e740 0 _ZN7QPixmap15setAlphaChannelERKS_
PUBLIC 20e7e8 0 _ZN7QPixmap7setMaskERK7QBitmap
PUBLIC 20e8bc 0 _ZN7QPixmap9fromImageERK6QImage6QFlagsIN2Qt19ImageConversionFlagEE
PUBLIC 20e98c 0 _ZN7QPixmap16convertFromImageERK6QImage6QFlagsIN2Qt19ImageConversionFlagEE
PUBLIC 20ea30 0 _ZN7QPixmapC1Eii
PUBLIC 20eac4 0 _ZN7QPixmapC2ERK5QSize
PUBLIC 20eb50 0 _ZN7QPixmapC1ERK5QSizeNS_4TypeE
PUBLIC 20ebdc 0 _ZN7QPixmapC2ERK5QSizei
PUBLIC 20ec68 0 _ZN7QPixmapC2ERKS_
PUBLIC 20ede0 0 _ZNK7QPixmap11transformedERK10QTransformN2Qt18TransformationModeE
PUBLIC 20ee4c 0 _ZNK7QPixmap13scaledToWidthEiN2Qt18TransformationModeE
PUBLIC 20ef34 0 _ZNK7QPixmap14scaledToHeightEiN2Qt18TransformationModeE
PUBLIC 20f01c 0 _ZNK7QPixmap11transformedERK7QMatrixN2Qt18TransformationModeE
PUBLIC 20f060 0 _ZNK7QPixmap6scaledERK5QSizeN2Qt15AspectRatioModeENS3_18TransformationModeE
PUBLIC 20f1f4 0 _ZN7QPixmap6scrollEiiRK5QRectP7QRegion
PUBLIC 20f4c0 0 _ZN7QPixmapC2ERK7QStringPKc6QFlagsIN2Qt19ImageConversionFlagEE
PUBLIC 20f570 0 _ZN7QPixmapC1EPKPKc
PUBLIC 20f6ac 0 _ZNK7QPixmap19createHeuristicMaskEb
PUBLIC 20f740 0 _ZNK7QPixmap19createMaskFromColorERK6QColorN2Qt8MaskModeE
PUBLIC 20f80c 0 _ZNK7QPixmap19createMaskFromColorERK6QColor
PUBLIC 20f824 0 _ZNK7QPixmap9doImageIOEP12QImageWriteri
PUBLIC 20f8b4 0 _ZNK7QPixmap4saveERK7QStringPKci
PUBLIC 20f990 0 _ZNK7QPixmap4saveEP9QIODevicePKci
PUBLIC 20fa6c 0 _ZlsR11QDataStreamRK7QPixmap
PUBLIC 20fab4 0 _ZrsR11QDataStreamR7QPixmap
PUBLIC 20fd50 0 _ZN7QPixmap10grabWidgetEP7QWidgetRK5QRect
PUBLIC 210004 0 _ZN12QPixmapCache3KeyC1Ev
PUBLIC 210010 0 _ZN12QPixmapCache3KeyC2ERKS0_
PUBLIC 21002c 0 _ZN12QPixmapCache3KeyD1Ev
PUBLIC 2100d0 0 _ZNK12QPixmapCache3KeyeqERKS0_
PUBLIC 2100e8 0 _ZN12QPixmapCache3KeyaSERKS0_
PUBLIC 2102b4 0 _ZN12QPixmapCache10cacheLimitEv
PUBLIC 211514 0 _ZN12QPixmapCache9totalUsedEv
PUBLIC 21153c 0 _ZN12QPixmapCache20flushDetachedPixmapsEv
PUBLIC 211550 0 _ZN12QPixmapCache13setCacheLimitEi
PUBLIC 211584 0 _ZN12QPixmapCache4findERK7QString
PUBLIC 21159c 0 _ZN12QPixmapCache4findERK7QStringP7QPixmap
PUBLIC 2115dc 0 _ZN12QPixmapCache4findERK7QStringR7QPixmap
PUBLIC 2115e0 0 _ZN12QPixmapCache4findERKNS_3KeyEP7QPixmap
PUBLIC 211648 0 _ZN12QPixmapCache6removeERK7QString
PUBLIC 211660 0 _ZN12QPixmapCache6removeERKNS_3KeyE
PUBLIC 21173c 0 _ZN12QPixmapCache6insertERK7QStringRK7QPixmap
PUBLIC 211798 0 _ZN12QPixmapCache6insertERK7QPixmap
PUBLIC 2117f8 0 _ZN12QPixmapCache7replaceERKNS_3KeyERK7QPixmap
PUBLIC 211874 0 _ZN12QPixmapCache5clearEv
PUBLIC 211f14 0 _ZN12QPixmapCache10allPixmapsEv
PUBLIC 2130b8 0 _ZN11QPixmapData6scrollEiiRK5QRect
PUBLIC 2130c0 0 _ZN11QPixmapData6bufferEv
PUBLIC 2130c8 0 _ZN11QPixmapDataD2Ev
PUBLIC 213110 0 _ZN11QPixmapDataD0Ev
PUBLIC 21312c 0 _ZNK11QPixmapData26createCompatiblePixmapDataEv
PUBLIC 21317c 0 _ZN11QPixmapData6createEiiNS_9PixelTypeE
PUBLIC 2131f8 0 _ZN11QPixmapDataC2ENS_9PixelTypeEi
PUBLIC 213254 0 _ZN11QPixmapData15setSerialNumberEi
PUBLIC 21325c 0 _ZN11QPixmapData15fromImageReaderEP12QImageReader6QFlagsIN2Qt19ImageConversionFlagEE
PUBLIC 2133bc 0 _ZN11QPixmapData8fromFileERK7QStringPKc6QFlagsIN2Qt19ImageConversionFlagEE
PUBLIC 21350c 0 _ZN11QPixmapData4copyEPKS_RK5QRect
PUBLIC 21356c 0 _ZN11QPixmapData7setMaskERK7QBitmap
PUBLIC 213898 0 _ZNK11QPixmapData4maskEv
PUBLIC 213acc 0 _ZNK11QPixmapData11transformedERK10QTransformN2Qt18TransformationModeE
PUBLIC 213b58 0 _ZN11QPixmapData15setAlphaChannelERK7QPixmap
PUBLIC 213be8 0 _ZNK11QPixmapData12alphaChannelEv
PUBLIC 213c64 0 _ZNK11QPixmapData7toImageERK5QRect
PUBLIC 213d0c 0 _ZN11QPixmapData8fromDataEPKhjPKc6QFlagsIN2Qt19ImageConversionFlagEE
PUBLIC 213f40 0 _ZNK13QPixmapFilter15boundingRectForERK6QRectF
PUBLIC 213f54 0 _ZNK24QPixmapConvolutionFilter15boundingRectForERK6QRectF
PUBLIC 21400c 0 _ZNK17QPixmapBlurFilter15boundingRectForERK6QRectF
PUBLIC 2140a4 0 _ZNK23QPixmapDropShadowFilter15boundingRectForERK6QRectF
PUBLIC 21414c 0 _ZN13QPixmapFilterC2ENS_10FilterTypeEP7QObject
PUBLIC 2141d4 0 _ZN13QPixmapFilterC1ER20QPixmapFilterPrivateNS_10FilterTypeEP7QObject
PUBLIC 21421c 0 _ZN13QPixmapFilterD1Ev
PUBLIC 214250 0 _ZN24QPixmapConvolutionFilterD2Ev
PUBLIC 214284 0 _ZN24QPixmapConvolutionFilterD0Ev
PUBLIC 2142a0 0 _ZN17QPixmapBlurFilterD2Ev
PUBLIC 2142d4 0 _ZN17QPixmapBlurFilterD0Ev
PUBLIC 2142f0 0 _ZN23QPixmapDropShadowFilterD2Ev
PUBLIC 214324 0 _ZN23QPixmapDropShadowFilterD0Ev
PUBLIC 214340 0 _ZN13QPixmapFilterD0Ev
PUBLIC 21435c 0 _ZNK13QPixmapFilter4typeEv
PUBLIC 214368 0 _ZN24QPixmapConvolutionFilterC2EP7QObject
PUBLIC 214404 0 _ZN24QPixmapConvolutionFilter20setConvolutionKernelEPKfii
PUBLIC 21445c 0 _ZNK24QPixmapConvolutionFilter17convolutionKernelEv
PUBLIC 214468 0 _ZNK24QPixmapConvolutionFilter4rowsEv
PUBLIC 214474 0 _ZNK24QPixmapConvolutionFilter7columnsEv
PUBLIC 214480 0 _ZN17QPixmapBlurFilterC1EP7QObject
PUBLIC 214514 0 _ZN17QPixmapBlurFilter9setRadiusEf
PUBLIC 214520 0 _ZNK17QPixmapBlurFilter6radiusEv
PUBLIC 21452c 0 _ZN17QPixmapBlurFilter12setBlurHintsE6QFlagsIN19QGraphicsBlurEffect8BlurHintEE
PUBLIC 21453c 0 _ZNK17QPixmapBlurFilter9blurHintsEv
PUBLIC 21454c 0 _ZN21QPixmapColorizeFilterC1EP7QObject
PUBLIC 214654 0 _ZNK21QPixmapColorizeFilter5colorEv
PUBLIC 214688 0 _ZN21QPixmapColorizeFilter8setColorERK6QColor
PUBLIC 214694 0 _ZNK21QPixmapColorizeFilter8strengthEv
PUBLIC 2146a0 0 _ZN21QPixmapColorizeFilter11setStrengthEf
PUBLIC 2147a4 0 _ZN23QPixmapDropShadowFilterC1EP7QObject
PUBLIC 21487c 0 _ZNK23QPixmapDropShadowFilter10blurRadiusEv
PUBLIC 214888 0 _ZN23QPixmapDropShadowFilter13setBlurRadiusEf
PUBLIC 214894 0 _ZNK23QPixmapDropShadowFilter5colorEv
PUBLIC 2148c8 0 _ZN23QPixmapDropShadowFilter8setColorERK6QColor
PUBLIC 2148d4 0 _ZNK23QPixmapDropShadowFilter6offsetEv
PUBLIC 2148f0 0 _ZN23QPixmapDropShadowFilter9setOffsetERK7QPointF
PUBLIC 21502c 0 _ZNK24QPixmapConvolutionFilter4drawEP8QPainterRK7QPointFRK7QPixmapRK6QRectF
PUBLIC 215a80 0 _Z13qt_halfScaledRK6QImage
PUBLIC 215fb8 0 _Z12qt_blurImageR6QImagefbi
PUBLIC 215ff8 0 _Z12qt_blurImageP8QPainterR6QImagefbbi
PUBLIC 2161e8 0 _ZNK23QPixmapDropShadowFilter4drawEP8QPainterRK7QPointFRK7QPixmapRK6QRectF
PUBLIC 216468 0 _ZNK17QPixmapBlurFilter4drawEP8QPainterRK7QPointFRK7QPixmapRK6QRectF
PUBLIC 216ae4 0 _ZNK21QPixmapColorizeFilter4drawEP8QPainterRK7QPointFRK7QPixmapRK6QRectF
PUBLIC 218138 0 _ZN11QIconEngine10actualSizeERK5QSizeN5QIcon4ModeENS3_5StateE
PUBLIC 21814c 0 _ZN11QIconEngineD2Ev
PUBLIC 218170 0 _ZN11QIconEngine9addPixmapERK7QPixmapN5QIcon4ModeENS3_5StateE
PUBLIC 218174 0 _ZN11QIconEngine7addFileERK7QStringRK5QSizeN5QIcon4ModeENS6_5StateE
PUBLIC 218178 0 _ZNK13QIconEngineV23keyEv
PUBLIC 2181c4 0 _ZNK13QIconEngineV25cloneEv
PUBLIC 2181cc 0 _ZN13QIconEngineV24readER11QDataStream
PUBLIC 2181d4 0 _ZNK13QIconEngineV25writeER11QDataStream
PUBLIC 2181dc 0 _ZN11QIconEngineD0Ev
PUBLIC 218248 0 _ZN13QIconEngineV28iconNameEv
PUBLIC 2182e8 0 _ZN13QIconEngineV212virtual_hookEiPv
PUBLIC 2183e0 0 _ZN13QIconEngineV214availableSizesEN5QIcon4ModeENS0_5StateE
PUBLIC 2184bc 0 _ZN11QIconEngine6pixmapERK5QSizeN5QIcon4ModeENS3_5StateE
PUBLIC 218560 0 _ZN13QIconEngineV2D1Ev
PUBLIC 218594 0 _ZN13QIconEngineV2D0Ev
PUBLIC 2185d0 0 _ZN17QIconEnginePluginD1Ev
PUBLIC 218618 0 _ZThn8_N17QIconEnginePluginD1Ev
PUBLIC 218620 0 _ZN17QIconEnginePluginD0Ev
PUBLIC 21863c 0 _ZThn8_N17QIconEnginePluginD0Ev
PUBLIC 218644 0 _ZN19QIconEnginePluginV2D2Ev
PUBLIC 21868c 0 _ZThn8_N19QIconEnginePluginV2D1Ev
PUBLIC 218694 0 _ZN19QIconEnginePluginV2D0Ev
PUBLIC 2186b0 0 _ZThn8_N19QIconEnginePluginV2D0Ev
PUBLIC 2186b8 0 _ZN17QIconEnginePluginC2EP7QObject
PUBLIC 2186f8 0 _ZN19QIconEnginePluginV2C2EP7QObject
PUBLIC 218738 0 _ZN27QIconEngineFactoryInterfaceD2Ev
PUBLIC 21875c 0 _ZN29QIconEngineFactoryInterfaceV2D2Ev
PUBLIC 218780 0 _ZN27QIconEngineFactoryInterfaceD0Ev
PUBLIC 2187b4 0 _ZN29QIconEngineFactoryInterfaceV2D0Ev
PUBLIC 2187e8 0 _ZNK6QMovie10metaObjectEv
PUBLIC 218814 0 _ZN6QMovieD1Ev
PUBLIC 218878 0 _ZN6QMovieD0Ev
PUBLIC 218990 0 _ZNK6QMovie6deviceEv
PUBLIC 21899c 0 _ZNK6QMovie8fileNameEv
PUBLIC 2189b8 0 _ZN6QMovie9setFormatERK10QByteArray
PUBLIC 2189c4 0 _ZNK6QMovie6formatEv
PUBLIC 2189e0 0 _ZN6QMovie18setBackgroundColorERK6QColor
PUBLIC 2189ec 0 _ZNK6QMovie15backgroundColorEv
PUBLIC 218a08 0 _ZNK6QMovie5stateEv
PUBLIC 218a14 0 _ZNK6QMovie9frameRectEv
PUBLIC 218a30 0 _ZNK6QMovie13currentPixmapEv
PUBLIC 218a4c 0 _ZNK6QMovie12currentImageEv
PUBLIC 218a68 0 _ZNK6QMovie7isValidEv
PUBLIC 218a88 0 _ZNK6QMovie10frameCountEv
PUBLIC 218a90 0 _ZNK6QMovie14nextFrameDelayEv
PUBLIC 218a9c 0 _ZNK6QMovie18currentFrameNumberEv
PUBLIC 218aa8 0 _ZNK6QMovie9loopCountEv
PUBLIC 218ab4 0 _ZN6QMovie8setSpeedEi
PUBLIC 218ac0 0 _ZNK6QMovie5speedEv
PUBLIC 218acc 0 _ZN6QMovie10scaledSizeEv
PUBLIC 218ae8 0 _ZN6QMovie13setScaledSizeERK5QSize
PUBLIC 218af4 0 _ZNK6QMovie9cacheModeEv
PUBLIC 218b00 0 _ZN6QMovie12setCacheModeENS_9CacheModeE
PUBLIC 218b0c 0 _ZN6QMovie9cacheModeEv
PUBLIC 218b18 0 _ZN6QMovie7startedEv
PUBLIC 218b3c 0 _ZN6QMovie7resizedERK5QSize
PUBLIC 218b7c 0 _ZN6QMovie7updatedERK5QRect
PUBLIC 218bbc 0 _ZN6QMovie12stateChangedENS_10MovieStateE
PUBLIC 218c00 0 _ZN6QMovie4stopEv
PUBLIC 218c38 0 _ZN6QMovie9setPausedEb
PUBLIC 218ca4 0 _ZN6QMovie5errorEN12QImageReader16ImageReaderErrorE
PUBLIC 218ce8 0 _ZN6QMovie8finishedEv
PUBLIC 218d0c 0 _ZN6QMovie12frameChangedEi
PUBLIC 218f0c 0 _ZN6QMovie9setDeviceEP9QIODevice
PUBLIC 218f28 0 _ZN6QMovie11setFileNameERK7QString
PUBLIC 219124 0 _ZN6QMovieC2EP7QObject
PUBLIC 2191ec 0 _ZN6QMovieC1EP9QIODeviceRK10QByteArrayP7QObject
PUBLIC 2192d8 0 _ZN6QMovieC2ERK7QStringRK10QByteArrayP7QObject
PUBLIC 219f30 0 _ZN6QMovie15jumpToNextFrameEv
PUBLIC 219f38 0 _ZN6QMovie11jumpToFrameEi
PUBLIC 219f64 0 _ZN6QMovie5startEv
PUBLIC 219f90 0 _ZN6QMovie16supportedFormatsEv
PUBLIC 21a1b0 0 _ZN6QMovie11qt_metacastEPKc
PUBLIC 21a1f4 0 _ZN6QMovie11qt_metacallEN11QMetaObject4CallEiPPv
PUBLIC 21a70c 0 _ZN17QRasterPixmapData6bufferEv
PUBLIC 21a714 0 _ZN17QRasterPixmapData6scrollEiiRK5QRect
PUBLIC 21a760 0 _ZNK17QRasterPixmapData15hasAlphaChannelEv
PUBLIC 21a768 0 _ZNK17QRasterPixmapData7toImageEv
PUBLIC 21a7f4 0 _ZNK17QRasterPixmapData7toImageERK5QRect
PUBLIC 21a91c 0 _ZNK17QRasterPixmapData6metricEN12QPaintDevice17PaintDeviceMetricE
PUBLIC 21aa90 0 _ZN17QRasterPixmapDataC2EN11QPixmapData9PixelTypeE
PUBLIC 21aae0 0 _ZNK17QRasterPixmapData26createCompatiblePixmapDataEv
PUBLIC 21ac34 0 _ZN17QRasterPixmapDataD1Ev
PUBLIC 21ac7c 0 _ZN17QRasterPixmapDataD0Ev
PUBLIC 21ac98 0 _ZN17QRasterPixmapData6resizeEii
PUBLIC 21adec 0 _ZN17QRasterPixmapData4copyEPK11QPixmapDataRK5QRect
PUBLIC 21ae88 0 _ZN17QRasterPixmapData4fillERK6QColor
PUBLIC 21b434 0 _ZN17QRasterPixmapData7setMaskERK7QBitmap
PUBLIC 21b6cc 0 _ZN17QRasterPixmapData15setAlphaChannelERK7QPixmap
PUBLIC 21b70c 0 _ZN17QRasterPixmapData20createPixmapForImageER6QImage6QFlagsIN2Qt19ImageConversionFlagEEb
PUBLIC 21b8ec 0 _ZN17QRasterPixmapData9fromImageERK6QImage6QFlagsIN2Qt19ImageConversionFlagEE
PUBLIC 21b944 0 _ZN17QRasterPixmapData15fromImageReaderEP12QImageReader6QFlagsIN2Qt19ImageConversionFlagEE
PUBLIC 21b9ac 0 _ZN17QRasterPixmapData8fromDataEPKhjPKc6QFlagsIN2Qt19ImageConversionFlagEE
PUBLIC 21bb48 0 _ZNK17QRasterPixmapData11paintEngineEv
PUBLIC 21bb80 0 _ZN24QImagePixmapCleanupHooks18enableCleanupHooksEP11QPixmapData
PUBLIC 21bb8c 0 _ZN24QImagePixmapCleanupHooks18enableCleanupHooksERK7QPixmap
PUBLIC 21bb94 0 _ZN24QImagePixmapCleanupHooks18enableCleanupHooksERK6QImage
PUBLIC 21bba8 0 _ZN24QImagePixmapCleanupHooks13isImageCachedERK6QImage
PUBLIC 21bbbc 0 _ZN24QImagePixmapCleanupHooks14isPixmapCachedERK7QPixmap
PUBLIC 21bd74 0 _ZN24QImagePixmapCleanupHooks8instanceEv
PUBLIC 21bd78 0 _ZN24QImagePixmapCleanupHooks29addPixmapDataModificationHookEPFvP11QPixmapDataE
PUBLIC 21bd9c 0 _ZN24QImagePixmapCleanupHooks28addPixmapDataDestructionHookEPFvP11QPixmapDataE
PUBLIC 21bdc0 0 _ZN24QImagePixmapCleanupHooks12addImageHookEPFvxE
PUBLIC 21be10 0 _ZN24QImagePixmapCleanupHooks32removePixmapDataModificationHookEPFvP11QPixmapDataE
PUBLIC 21be34 0 _ZN24QImagePixmapCleanupHooks31removePixmapDataDestructionHookEPFvP11QPixmapDataE
PUBLIC 21be58 0 _ZN24QImagePixmapCleanupHooks33executePixmapDataDestructionHooksEP11QPixmapData
PUBLIC 21bf38 0 _ZN24QImagePixmapCleanupHooks34executePixmapDataModificationHooksEP11QPixmapData
PUBLIC 21c018 0 _ZN24QImagePixmapCleanupHooks15removeImageHookEPFvxE
PUBLIC 21c0b8 0 _ZN24QImagePixmapCleanupHooks17executeImageHooksEx
PUBLIC 21c730 0 _ZN14QVolatileImageC2Ev
PUBLIC 21c788 0 _ZN14QVolatileImageC1EiiN6QImage6FormatE
PUBLIC 21c7f8 0 _ZN14QVolatileImageC2ERK6QImage
PUBLIC 21c858 0 _ZN14QVolatileImageC1EPvS0_
PUBLIC 21c8c0 0 _ZN14QVolatileImageC2ERKS_
PUBLIC 21c900 0 _ZN14QVolatileImageD2Ev
PUBLIC 21c964 0 _ZN14QVolatileImageaSERKS_
PUBLIC 21c9fc 0 _ZNK14QVolatileImage14paintingActiveEv
PUBLIC 21ca14 0 _ZNK14QVolatileImage6isNullEv
PUBLIC 21ca20 0 _ZNK14QVolatileImage6formatEv
PUBLIC 21ca2c 0 _ZNK14QVolatileImage5widthEv
PUBLIC 21ca38 0 _ZNK14QVolatileImage6heightEv
PUBLIC 21ca44 0 _ZNK14QVolatileImage12bytesPerLineEv
PUBLIC 21ca50 0 _ZNK14QVolatileImage9byteCountEv
PUBLIC 21ca5c 0 _ZNK14QVolatileImage5depthEv
PUBLIC 21ca68 0 _ZNK14QVolatileImage15hasAlphaChannelEv
PUBLIC 21ca74 0 _ZNK14QVolatileImage15beginDataAccessEv
PUBLIC 21ca7c 0 _ZNK14QVolatileImage13endDataAccessEb
PUBLIC 21ca84 0 _ZNK14QVolatileImage9constBitsEv
PUBLIC 21ca90 0 _ZNK14QVolatileImage13constImageRefEv
PUBLIC 21caac 0 _ZNK14QVolatileImage20duplicateNativeImageEv
PUBLIC 21cb28 0 _ZN14QVolatileImage4bitsEv
PUBLIC 21cb5c 0 _ZN14QVolatileImage12ensureFormatEN6QImage6FormatE
PUBLIC 21cb98 0 _ZN14QVolatileImage8imageRefEv
PUBLIC 21cbf4 0 _ZN14QVolatileImage8copyFromEPS_RK5QRect
PUBLIC 21cd44 0 _ZN14QVolatileImage11paintEngineEv
PUBLIC 21cdf4 0 _ZN14QVolatileImage4fillEj
PUBLIC 21ce4c 0 _ZNK14QVolatileImage7toImageEv
PUBLIC 21ceb4 0 _ZN14QVolatileImage15setAlphaChannelERK7QPixmap
PUBLIC 21d844 0 _ZNK7QPixmap10colorCountEv
PUBLIC 21d86c 0 _ZNK7QPixmap7numColsEv
PUBLIC 21d870 0 _ZNK7QPixmap7qwsBitsEv
PUBLIC 21d898 0 _ZNK7QPixmap15qwsBytesPerLineEv
PUBLIC 21d8c0 0 _ZNK7QPixmap4clutEv
PUBLIC 21d9bc 0 _ZN7QPixmap10grabWindowEmiiii
PUBLIC 229c10 0 png_set_sig_bytes
PUBLIC 229c48 0 png_sig_cmp
PUBLIC 229d88 0 png_info_init_3
PUBLIC 229dd4 0 png_create_info_struct
PUBLIC 229e20 0 png_data_freer
PUBLIC 229e6c 0 png_free_data
PUBLIC 22a3a4 0 png_destroy_info_struct
PUBLIC 22a3ec 0 png_get_io_ptr
PUBLIC 22a3f8 0 png_init_io
PUBLIC 22a404 0 png_convert_to_rfc1123
PUBLIC 22a630 0 png_get_copyright
PUBLIC 22a640 0 png_get_header_ver
PUBLIC 22a7a8 0 png_get_libpng_ver
PUBLIC 22a7ac 0 png_get_header_version
PUBLIC 22a7bc 0 png_handle_as_unknown
PUBLIC 22a834 0 png_reset_zstream
PUBLIC 22a84c 0 png_access_version_number
PUBLIC 22c2a0 0 png_warning
PUBLIC 22c524 0 png_chunk_warning
PUBLIC 22c558 0 png_set_longjmp_fn
PUBLIC 22c578 0 png_longjmp
PUBLIC 22c598 0 png_error
PUBLIC 22c618 0 png_benign_error
PUBLIC 22c634 0 png_chunk_error
PUBLIC 22c660 0 png_chunk_benign_error
PUBLIC 22c6fc 0 png_set_error_fn
PUBLIC 22c710 0 png_get_error_ptr
PUBLIC 22c760 0 png_get_valid
PUBLIC 22c77c 0 png_get_rowbytes
PUBLIC 22c794 0 png_get_rows
PUBLIC 22c7ac 0 png_get_image_width
PUBLIC 22c7c4 0 png_get_image_height
PUBLIC 22c7dc 0 png_get_bit_depth
PUBLIC 22c7f4 0 png_get_color_type
PUBLIC 22c80c 0 png_get_filter_type
PUBLIC 22c824 0 png_get_interlace_type
PUBLIC 22c83c 0 png_get_compression_type
PUBLIC 22c854 0 png_get_x_pixels_per_meter
PUBLIC 22c888 0 png_get_y_pixels_per_meter
PUBLIC 22c8bc 0 png_get_pixels_per_meter
PUBLIC 22c904 0 png_get_pixel_aspect_ratio
PUBLIC 22c958 0 png_get_pixel_aspect_ratio_fixed
PUBLIC 22c9e0 0 png_get_x_offset_microns
PUBLIC 22ca14 0 png_get_y_offset_microns
PUBLIC 22ca48 0 png_get_x_offset_pixels
PUBLIC 22ca7c 0 png_get_y_offset_pixels
PUBLIC 22cab0 0 png_get_pixels_per_inch
PUBLIC 22cac0 0 png_get_x_pixels_per_inch
PUBLIC 22cad0 0 png_get_y_pixels_per_inch
PUBLIC 22cae0 0 png_get_x_offset_inches_fixed
PUBLIC 22cb04 0 png_get_y_offset_inches_fixed
PUBLIC 22cb28 0 png_get_x_offset_inches
PUBLIC 22cb50 0 png_get_y_offset_inches
PUBLIC 22cb78 0 png_get_pHYs_dpi
PUBLIC 22cc68 0 png_get_channels
PUBLIC 22cc80 0 png_get_signature
PUBLIC 22cc98 0 png_get_bKGD
PUBLIC 22ccd0 0 png_get_cHRM
PUBLIC 22ce4c 0 png_get_cHRM_fixed
PUBLIC 22cef8 0 png_get_gAMA_fixed
PUBLIC 22cf30 0 png_get_gAMA
PUBLIC 22cf78 0 png_get_sRGB
PUBLIC 22cfb0 0 png_get_iCCP
PUBLIC 22d028 0 png_get_sPLT
PUBLIC 22d054 0 png_get_hIST
PUBLIC 22d08c 0 png_get_IHDR
PUBLIC 22d16c 0 png_get_oFFs
PUBLIC 22d1d0 0 png_get_pCAL
PUBLIC 22d2a8 0 png_get_sCAL_fixed
PUBLIC 22d368 0 png_get_sCAL
PUBLIC 22d3d8 0 png_get_sCAL_s
PUBLIC 22d41c 0 png_get_pHYs
PUBLIC 22d478 0 png_get_PLTE
PUBLIC 22d4b8 0 png_get_sBIT
PUBLIC 22d4f0 0 png_get_text
PUBLIC 22d538 0 png_get_tIME
PUBLIC 22d570 0 png_get_tRNS
PUBLIC 22d604 0 png_get_unknown_chunks
PUBLIC 22d630 0 png_get_rgb_to_gray_status
PUBLIC 22d63c 0 png_get_user_chunk_ptr
PUBLIC 22d648 0 png_get_compression_buffer_size
PUBLIC 22d654 0 png_get_user_width_max
PUBLIC 22d660 0 png_get_user_height_max
PUBLIC 22d66c 0 png_get_chunk_cache_max
PUBLIC 22d678 0 png_get_chunk_malloc_max
PUBLIC 22d684 0 png_get_io_state
PUBLIC 22d68c 0 png_get_io_chunk_type
PUBLIC 22d6b0 0 png_get_io_chunk_name
PUBLIC 22d7b0 0 png_malloc_default
PUBLIC 22d7cc 0 png_malloc
PUBLIC 22d830 0 png_calloc
PUBLIC 22d858 0 png_free_default
PUBLIC 22d86c 0 png_free
PUBLIC 22d898 0 png_malloc_warn
PUBLIC 22d8c4 0 png_set_mem_fn
PUBLIC 22d8d8 0 png_get_mem_ptr
PUBLIC 22d9ac 0 png_process_data_skip
PUBLIC 22dc0c 0 png_process_data_pause
PUBLIC 22fb44 0 png_process_data
PUBLIC 22fbe8 0 png_progressive_combine_row
PUBLIC 22fc60 0 png_set_progressive_read_fn
PUBLIC 22fc98 0 png_get_progressive_ptr
PUBLIC 22fca4 0 png_create_read_struct_2
PUBLIC 22ff44 0 png_create_read_struct
PUBLIC 22ff68 0 png_read_info
PUBLIC 23066c 0 png_read_update_info
PUBLIC 2306bc 0 png_start_read_image
PUBLIC 2306e4 0 png_read_row
PUBLIC 230c34 0 png_read_rows
PUBLIC 230cf4 0 png_read_image
PUBLIC 230db0 0 png_read_end
PUBLIC 231738 0 png_destroy_read_struct
PUBLIC 23180c 0 png_set_read_status_fn
PUBLIC 231818 0 png_read_png
PUBLIC 231b30 0 png_set_read_fn
PUBLIC 231cfc 0 png_set_crc_action
PUBLIC 231df4 0 png_set_background_fixed
PUBLIC 231e74 0 png_set_background
PUBLIC 231ecc 0 png_set_scale_16
PUBLIC 231ee0 0 png_set_strip_16
PUBLIC 231ef4 0 png_set_strip_alpha
PUBLIC 231f08 0 png_set_alpha_mode_fixed
PUBLIC 2320b0 0 png_set_alpha_mode
PUBLIC 2320d4 0 png_set_quantize
PUBLIC 232968 0 png_set_gamma_fixed
PUBLIC 2329a8 0 png_set_gamma
PUBLIC 2329e0 0 png_set_expand
PUBLIC 232a08 0 png_set_palette_to_rgb
PUBLIC 232a30 0 png_set_expand_gray_1_2_4_to_8
PUBLIC 232a54 0 png_set_tRNS_to_alpha
PUBLIC 232a74 0 png_set_expand_16
PUBLIC 232aa0 0 png_set_gray_to_rgb
PUBLIC 232acc 0 png_set_rgb_to_gray_fixed
PUBLIC 232c18 0 png_set_rgb_to_gray
PUBLIC 232c8c 0 png_set_read_user_transform_fn
PUBLIC 234f04 0 png_build_grayscale_palette
PUBLIC 23799c 0 png_get_uint_31
PUBLIC 2379dc 0 png_get_uint_32
PUBLIC 237a00 0 png_get_int_32
PUBLIC 237a24 0 png_get_uint_16
PUBLIC 23bbf4 0 png_set_bKGD
PUBLIC 23bc28 0 png_set_cHRM_fixed
PUBLIC 23bcdc 0 png_set_cHRM
PUBLIC 23be4c 0 png_set_gAMA_fixed
PUBLIC 23be90 0 png_set_gAMA
PUBLIC 23becc 0 png_set_hIST
PUBLIC 23bfa0 0 png_set_IHDR
PUBLIC 23c0c4 0 png_set_oFFs
PUBLIC 23c0f0 0 png_set_pCAL
PUBLIC 23c324 0 png_set_sCAL_s
PUBLIC 23c4b0 0 png_set_sCAL
PUBLIC 23c594 0 png_set_sCAL_fixed
PUBLIC 23c630 0 png_set_pHYs
PUBLIC 23c65c 0 png_set_PLTE
PUBLIC 23c71c 0 png_set_sBIT
PUBLIC 23c750 0 png_set_sRGB
PUBLIC 23c76c 0 png_set_sRGB_gAMA_and_cHRM
PUBLIC 23c804 0 png_set_iCCP
PUBLIC 23cc5c 0 png_set_text
PUBLIC 23cc84 0 png_set_tIME
PUBLIC 23ccc4 0 png_set_tRNS
PUBLIC 23cdf8 0 png_set_sPLT
PUBLIC 23cfc4 0 png_set_unknown_chunks
PUBLIC 23d144 0 png_set_unknown_chunk_location
PUBLIC 23d174 0 png_permit_mng_features
PUBLIC 23d188 0 png_set_keep_unknown_chunks
PUBLIC 23d288 0 png_set_read_user_chunk_fn
PUBLIC 23d298 0 png_set_rows
PUBLIC 23d2f0 0 png_set_compression_buffer_size
PUBLIC 23d330 0 png_set_invalid
PUBLIC 23d348 0 png_set_user_limits
PUBLIC 23d358 0 png_set_chunk_cache_max
PUBLIC 23d364 0 png_set_chunk_malloc_max
PUBLIC 23d370 0 png_set_benign_errors
PUBLIC 23d388 0 png_set_bgr
PUBLIC 23d39c 0 png_set_swap
PUBLIC 23d3bc 0 png_set_packing
PUBLIC 23d3e4 0 png_set_packswap
PUBLIC 23d404 0 png_set_shift
PUBLIC 23d430 0 png_set_interlace_handling
PUBLIC 23d460 0 png_set_filler
PUBLIC 23d4c4 0 png_set_add_alpha
PUBLIC 23d4e4 0 png_set_swap_alpha
PUBLIC 23d4f8 0 png_set_invert_alpha
PUBLIC 23d50c 0 png_set_invert_mono
PUBLIC 23da70 0 png_set_user_transform_info
PUBLIC 23da84 0 png_get_user_transform_ptr
PUBLIC 23da90 0 png_get_current_row_number
PUBLIC 23daa0 0 png_get_current_pass_number
PUBLIC 23db3c 0 png_set_write_fn
PUBLIC 23dd4c 0 png_write_info_before_PLTE
PUBLIC 23df84 0 png_write_info
PUBLIC 23e34c 0 png_write_end
PUBLIC 23e530 0 png_convert_from_struct_tm
PUBLIC 23e570 0 png_convert_from_time_t
PUBLIC 23e5a0 0 png_create_write_struct_2
PUBLIC 23e700 0 png_create_write_struct
PUBLIC 23e724 0 png_write_row
PUBLIC 23e974 0 png_write_rows
PUBLIC 23e9b0 0 png_write_image
PUBLIC 23ea10 0 png_set_flush
PUBLIC 23ea20 0 png_write_flush
PUBLIC 23ebb4 0 png_destroy_write_struct
PUBLIC 23ec74 0 png_set_filter
PUBLIC 23eec8 0 png_set_filter_heuristics
PUBLIC 23f038 0 png_set_filter_heuristics_fixed
PUBLIC 23f14c 0 png_set_compression_level
PUBLIC 23f164 0 png_set_compression_mem_level
PUBLIC 23f17c 0 png_set_compression_strategy
PUBLIC 23f194 0 png_set_compression_window_bits
PUBLIC 23f210 0 png_set_compression_method
PUBLIC 23f24c 0 png_set_text_compression_level
PUBLIC 23f264 0 png_set_text_compression_mem_level
PUBLIC 23f27c 0 png_set_text_compression_strategy
PUBLIC 23f294 0 png_set_text_compression_window_bits
PUBLIC 23f310 0 png_set_text_compression_method
PUBLIC 23f34c 0 png_set_write_status_fn
PUBLIC 23f358 0 png_set_write_user_transform_fn
PUBLIC 23f370 0 png_write_png
PUBLIC 240390 0 png_save_uint_32
PUBLIC 2403b0 0 png_save_int_32
PUBLIC 2403d0 0 png_save_uint_16
PUBLIC 2403e0 0 png_write_sig
PUBLIC 24043c 0 png_write_chunk_start
PUBLIC 2404bc 0 png_write_chunk_data
PUBLIC 2406d8 0 png_write_chunk_end
PUBLIC 240718 0 png_write_chunk
PUBLIC 2437a4 0 _ZN7QBezier10fromPointsERK7QPointFS2_S2_S2_
PUBLIC 2437f4 0 _ZNK7QBezier5mapByERK10QTransform
PUBLIC 2438bc 0 _ZNK7QBezier11getSubRangeEff
PUBLIC 243d90 0 _ZNK7QBezier6boundsEv
PUBLIC 244bd4 0 _ZNK7QBezier7shiftedEPS_iff
PUBLIC 245568 0 _ZNK7QBezier10addIfCloseEPff
PUBLIC 245830 0 _ZNK7QBezier6lengthEf
PUBLIC 245858 0 _ZNK7QBezier5tForYEfff
PUBLIC 245cf8 0 _ZNK7QBezier17stationaryYPointsERfS0_
PUBLIC 245fe8 0 _ZNK7QBezier9tAtLengthEf
PUBLIC 24639c 0 _ZNK7QBezier16bezierOnIntervalEff
PUBLIC 246830 0 _ZNK7QBezier12addToPolygonEP9QPolygonFf
PUBLIC 246c30 0 _ZNK7QBezier9toPolygonEf
PUBLIC 25cce0 0 _Z17qHasPixmapTextureRK6QBrush
PUBLIC 25ccf8 0 _ZNK6QBrushcv8QVariantEv
PUBLIC 25cd14 0 _ZNK6QBrush7textureEv
PUBLIC 25cd98 0 _ZNK6QBrush8gradientEv
PUBLIC 25cdb4 0 _ZN9QGradientC1Ev
PUBLIC 25ce0c 0 _ZNK9QGradient14coordinateModeEv
PUBLIC 25ce18 0 _ZN9QGradient17setCoordinateModeENS_14CoordinateModeE
PUBLIC 25ce2c 0 _ZNK9QGradient17interpolationModeEv
PUBLIC 25ce3c 0 _ZN9QGradient20setInterpolationModeENS_17InterpolationModeE
PUBLIC 25ce50 0 _ZN15QLinearGradientC1Ev
PUBLIC 25ce88 0 _ZN15QLinearGradientC2ERK7QPointFS2_
PUBLIC 25ced0 0 _ZN15QLinearGradientC1Effff
PUBLIC 25cf10 0 _ZNK15QLinearGradient5startEv
PUBLIC 25cf24 0 _ZN15QLinearGradient8setStartERK7QPointF
PUBLIC 25cf38 0 _ZNK15QLinearGradient9finalStopEv
PUBLIC 25cf4c 0 _ZN15QLinearGradient12setFinalStopERK7QPointF
PUBLIC 25cf60 0 _ZN15QRadialGradientC1ERK7QPointFf
PUBLIC 25cfa4 0 _ZN15QRadialGradientC1Efff
PUBLIC 25cfe4 0 _ZN15QRadialGradientC1Ev
PUBLIC 25d020 0 _ZNK15QRadialGradient6centerEv
PUBLIC 25d034 0 _ZN15QRadialGradient9setCenterERK7QPointF
PUBLIC 25d048 0 _ZNK15QRadialGradient6radiusEv
PUBLIC 25d050 0 _ZN15QRadialGradient9setRadiusEf
PUBLIC 25d058 0 _ZNK15QRadialGradient10focalPointEv
PUBLIC 25d06c 0 _ZN15QRadialGradient13setFocalPointERK7QPointF
PUBLIC 25d080 0 _ZN16QConicalGradientC1ERK7QPointFf
PUBLIC 25d0bc 0 _ZN16QConicalGradientC2Efff
PUBLIC 25d0f4 0 _ZN16QConicalGradientC1Ev
PUBLIC 25d124 0 _ZNK16QConicalGradient6centerEv
PUBLIC 25d138 0 _ZN16QConicalGradient9setCenterERK7QPointF
PUBLIC 25d14c 0 _ZNK16QConicalGradient5angleEv
PUBLIC 25d154 0 _ZN16QConicalGradient8setAngleEf
PUBLIC 25d15c 0 _ZN15QRadialGradientC1ERK7QPointFfS2_
PUBLIC 25d1d4 0 _ZN15QRadialGradientC2Efffff
PUBLIC 25d25c 0 _ZN9QGradient10setColorAtEfRK6QColor
PUBLIC 25d410 0 _ZN9QGradient8setStopsERK7QVectorI5QPairIf6QColorEE
PUBLIC 25d50c 0 _ZNK9QGradient5stopsEv
PUBLIC 25d6e0 0 _ZNK9QGradienteqERKS_
PUBLIC 25d9a8 0 _ZNK6QBrusheqERKS_
PUBLIC 25db2c 0 _ZN9QGradienteqERKS_
PUBLIC 25dd24 0 _ZlsR11QDataStreamRK6QBrush
PUBLIC 25e40c 0 _ZN6QBrushC2Ev
PUBLIC 25e45c 0 _ZN6QBrushC1ERKS_
PUBLIC 25e4a8 0 _ZN6QBrush7cleanUpEP10QBrushData
PUBLIC 25e554 0 _ZNK6QBrush12textureImageEv
PUBLIC 25e5e4 0 _ZNK6QBrush8isOpaqueEv
PUBLIC 25e7e0 0 _Z16qt_imageForBrushib
PUBLIC 25e8fc 0 _ZN6QBrushD1Ev
PUBLIC 25e9e8 0 _ZN6QBrush6detachEN2Qt10BrushStyleE
PUBLIC 25edf8 0 _ZN6QBrush8setStyleEN2Qt10BrushStyleE
PUBLIC 25ee3c 0 _ZN6QBrush8setColorERK6QColor
PUBLIC 25ee68 0 _ZN6QBrush10setTextureERK7QPixmap
PUBLIC 25ef40 0 _ZN6QBrush15setTextureImageERK6QImage
PUBLIC 25efac 0 _ZN6QBrush12setTransformERK10QTransform
PUBLIC 25efd8 0 _ZN6QBrush9setMatrixERK7QMatrix
PUBLIC 25f004 0 _ZN6QBrushaSERKS_
PUBLIC 25f130 0 _ZN6QBrush4initERK6QColorN2Qt10BrushStyleE
PUBLIC 25f5f8 0 _ZN6QBrushC1EN2Qt10BrushStyleE
PUBLIC 25f76c 0 _ZN6QBrushC2ERK6QColorN2Qt10BrushStyleE
PUBLIC 25f8cc 0 _ZN6QBrushC1EN2Qt11GlobalColorENS0_10BrushStyleE
PUBLIC 25fa44 0 _ZN6QBrushC2ERK9QGradient
PUBLIC 25fafc 0 _ZN6QBrushC1ERK7QPixmap
PUBLIC 25fb5c 0 _ZN6QBrushC1ERK6QColorRK7QPixmap
PUBLIC 25fba0 0 _ZrsR11QDataStreamR6QBrush
PUBLIC 260150 0 _ZN6QBrushC1EN2Qt11GlobalColorERK7QPixmap
PUBLIC 2601ac 0 _ZN6QBrushC1ERK6QImage
PUBLIC 26020c 0 _Zls6QDebugRK6QBrush
PUBLIC 260e08 0 _ZN6QColorC1Ej
PUBLIC 260e58 0 _ZN6QColor10colorNamesEv
PUBLIC 260e6c 0 _ZN6QColor7setHsvFEffff
PUBLIC 261174 0 _ZN6QColor7setHslFEffff
PUBLIC 26147c 0 _ZN6QColor7setRgbaEj
PUBLIC 2614d0 0 _ZN6QColor6setRgbEj
PUBLIC 261520 0 _ZNK6QColor5alphaEv
PUBLIC 26152c 0 _ZN6QColor8setAlphaEi
PUBLIC 261580 0 _ZNK6QColor6alphaFEv
PUBLIC 26159c 0 _ZN6QColor9setAlphaFEf
PUBLIC 2616b4 0 _ZN6QColor7setCmykEiiiii
PUBLIC 261734 0 _ZN6QColor8setCmykFEfffff
PUBLIC 261994 0 _ZN6QColoraSERKS_
PUBLIC 2619c0 0 _ZNK6QColoreqERKS_
PUBLIC 261b44 0 _ZNK6QColorneERKS_
PUBLIC 261b58 0 _ZNK6QColorcv8QVariantEv
PUBLIC 261b74 0 _ZN6QColor10invalidateEv
PUBLIC 261b98 0 _ZNK6QColor5toRgbEv
PUBLIC 2626e8 0 _ZNK6QColor7getRgbFEPfS0_S0_S0_
PUBLIC 2627c0 0 _ZNK6QColor6getRgbEPiS0_S0_S0_
PUBLIC 262868 0 _ZNK6QColor4rgbaEv
PUBLIC 2628cc 0 _ZNK6QColor3rgbEv
PUBLIC 262928 0 _ZNK6QColor3redEv
PUBLIC 262968 0 _ZNK6QColor5greenEv
PUBLIC 2629a8 0 _ZNK6QColor4blueEv
PUBLIC 2629e8 0 _ZNK6QColor4nameEv
PUBLIC 262a8c 0 _ZNK6QColor4redFEv
PUBLIC 262ad8 0 _ZNK6QColor6greenFEv
PUBLIC 262b24 0 _ZNK6QColor5blueFEv
PUBLIC 262b70 0 _ZN6QColor7fromRgbEiiii
PUBLIC 262c38 0 _ZN6QColor7fromRgbEj
PUBLIC 262c70 0 _ZN6QColor8fromRgbaEj
PUBLIC 262ca8 0 _ZN6QColor8fromRgbFEffff
PUBLIC 262ee4 0 _ZN6QColor7fromHsvEiiii
PUBLIC 262ff4 0 _ZN6QColor8fromHsvFEffff
PUBLIC 2632fc 0 _ZN6QColor7fromHslEiiii
PUBLIC 26340c 0 _ZN6QColor8fromHslFEffff
PUBLIC 263724 0 _ZN6QColor8fromCmykEiiiii
PUBLIC 2637f4 0 _ZN6QColor9fromCmykFEfffff
PUBLIC 263a9c 0 _ZN6QColor18setColorFromStringERK7QString
PUBLIC 263b5c 0 _ZN6QColor13setNamedColorERK7QString
PUBLIC 263c18 0 _ZN6QColor12isValidColorERK7QString
PUBLIC 263c60 0 _ZN6QColor6setHsvEiiii
PUBLIC 263d28 0 _ZN6QColor6setHslEiiii
PUBLIC 263df0 0 _ZN6QColor7setRgbFEffff
PUBLIC 2640c0 0 _ZN6QColor7setRedFEf
PUBLIC 264220 0 _ZN6QColor9setGreenFEf
PUBLIC 264380 0 _ZN6QColor8setBlueFEf
PUBLIC 2644e0 0 _ZN6QColor6setRgbEiiii
PUBLIC 264558 0 _ZN6QColorC2EN2Qt11GlobalColorE
PUBLIC 2645a0 0 _ZN6QColoraSEN2Qt11GlobalColorE
PUBLIC 2645c8 0 _ZN6QColor6setRedEi
PUBLIC 264654 0 _ZN6QColor8setGreenEi
PUBLIC 2646e0 0 _ZN6QColor7setBlueEi
PUBLIC 26476c 0 _ZN6QColorC2ENS_4SpecE
PUBLIC 26483c 0 _ZNK6QColor5toHsvEv
PUBLIC 264d90 0 _ZNK6QColor7getHsvFEPfS0_S0_S0_
PUBLIC 264e90 0 _ZNK6QColor6getHsvEPiS0_S0_S0_
PUBLIC 264f54 0 _ZNK6QColor6hsvHueEv
PUBLIC 264fb0 0 _ZNK6QColor3hueEv
PUBLIC 264fb4 0 _ZNK6QColor13hsvSaturationEv
PUBLIC 264ff4 0 _ZNK6QColor10saturationEv
PUBLIC 264ff8 0 _ZNK6QColor5valueEv
PUBLIC 265038 0 _ZNK6QColor7hsvHueFEv
PUBLIC 2650ac 0 _ZNK6QColor4hueFEv
PUBLIC 2650b0 0 _ZNK6QColor14hsvSaturationFEv
PUBLIC 2650fc 0 _ZNK6QColor11saturationFEv
PUBLIC 265100 0 _ZNK6QColor6valueFEv
PUBLIC 26514c 0 _ZNK6QColor5toHslEv
PUBLIC 2656d8 0 _ZNK6QColor7getHslFEPfS0_S0_S0_
PUBLIC 2657d8 0 _ZNK6QColor6getHslEPiS0_S0_S0_
PUBLIC 26589c 0 _ZNK6QColor6hslHueEv
PUBLIC 2658f8 0 _ZNK6QColor13hslSaturationEv
PUBLIC 265938 0 _ZNK6QColor9lightnessEv
PUBLIC 265978 0 _ZNK6QColor7hslHueFEv
PUBLIC 2659ec 0 _ZNK6QColor14hslSaturationFEv
PUBLIC 265a38 0 _ZNK6QColor10lightnessFEv
PUBLIC 265a84 0 _ZNK6QColor6toCmykEv
PUBLIC 265e74 0 _ZNK6QColor4cyanEv
PUBLIC 265eb8 0 _ZNK6QColor7magentaEv
PUBLIC 265efc 0 _ZNK6QColor6yellowEv
PUBLIC 265f40 0 _ZNK6QColor5blackEv
PUBLIC 265f84 0 _ZNK6QColor5cyanFEv
PUBLIC 265fd4 0 _ZNK6QColor8magentaFEv
PUBLIC 266024 0 _ZNK6QColor7yellowFEv
PUBLIC 266074 0 _ZNK6QColor6blackFEv
PUBLIC 2660c4 0 _ZN6QColor7getCmykEPiS0_S0_S0_S0_
PUBLIC 26618c 0 _ZN6QColor8getCmykFEPfS0_S0_S0_S0_
PUBLIC 26628c 0 _ZNK6QColor9convertToENS_4SpecE
PUBLIC 26631c 0 _ZNK6QColor5lightEi
PUBLIC 266400 0 _ZNK6QColor4darkEi
PUBLIC 2664ac 0 _Zls6QDebugRK6QColor
PUBLIC 2671c4 0 _ZlsR11QDataStreamRK6QColor
PUBLIC 2672a8 0 _ZrsR11QDataStreamR6QColor
PUBLIC 26a9b0 0 _Z14qDrawShadeLineP8QPainteriiiiRK8QPalettebii
PUBLIC 26aefc 0 _Z14qDrawShadeRectP8QPainteriiiiRK8QPalettebiiPK6QBrush
PUBLIC 26b564 0 _Z14qDrawWinButtonP8QPainteriiiiRK8QPalettebPK6QBrush
PUBLIC 26b684 0 _Z13qDrawWinPanelP8QPainteriiiiRK8QPalettebPK6QBrush
PUBLIC 26b790 0 _Z14qDrawPlainRectP8QPainteriiiiRK6QColoriPK6QBrush
PUBLIC 26b954 0 _Z14qDrawShadeLineP8QPainterRK6QPointS3_RK8QPalettebii
PUBLIC 26b9a4 0 _Z14qDrawShadeRectP8QPainterRK5QRectRK8QPalettebiiPK6QBrush
PUBLIC 26ba00 0 _Z14qDrawWinButtonP8QPainterRK5QRectRK8QPalettebPK6QBrush
PUBLIC 26ba4c 0 _Z13qDrawWinPanelP8QPainterRK5QRectRK8QPalettebPK6QBrush
PUBLIC 26ba98 0 _Z14qDrawPlainRectP8QPainterRK5QRectRK6QColoriPK6QBrush
PUBLIC 26bae4 0 _Z15qDrawShadePanelP8QPainteriiiiRK8QPalettebiPK6QBrush
PUBLIC 26c080 0 _Z15qDrawShadePanelP8QPainterRK5QRectRK8QPalettebiPK6QBrush
PUBLIC 26c0d4 0 _Z17qDrawBorderPixmapP8QPainterRK5QRectRK8QMarginsRK7QPixmapS3_S6_RK10QTileRules6QFlagsIN17QDrawBorderPixmap11DrawingHintEE
PUBLIC 26f680 0 _ZN15QGraphicsSystem16createPixmapDataEP11QPixmapData
PUBLIC 26f698 0 _ZN15QGraphicsSystem17platformExtensionEv
PUBLIC 26f6a0 0 _ZN15QGraphicsSystemD1Ev
PUBLIC 26f6c4 0 _ZN15QGraphicsSystemD0Ev
PUBLIC 26f6e0 0 _ZN15QGraphicsSystem23createDefaultPixmapDataEN11QPixmapData9PixelTypeE
PUBLIC 26f6e8 0 _ZN7QMatrixC1Ev
PUBLIC 26f70c 0 _ZN7QMatrixC1Effffff
PUBLIC 26f73c 0 _ZN7QMatrixC1ERKS_
PUBLIC 26f778 0 _ZN7QMatrix9setMatrixEffffff
PUBLIC 26f7a8 0 _ZNK7QMatrix3mapEffPfS0_
PUBLIC 26f82c 0 _ZNK7QMatrix3mapEiiPiS0_
PUBLIC 26f99c 0 _ZNK7QMatrix7mapRectERK5QRect
PUBLIC 2701e0 0 _ZNK7QMatrix7mapRectERK6QRectF
PUBLIC 2705e4 0 _ZNK7QMatrix3mapERK6QPoint
PUBLIC 270754 0 _ZNK7QMatrix3mapERK7QPointF
PUBLIC 2707dc 0 _ZNK7QMatrix3mapERK6QLineF
PUBLIC 27084c 0 _ZNK7QMatrix3mapERK5QLine
PUBLIC 2708bc 0 _ZN7QMatrix5resetEv
PUBLIC 2708e0 0 _ZN7QMatrix9translateEff
PUBLIC 270968 0 _ZN7QMatrix5scaleEff
PUBLIC 2709bc 0 _ZN7QMatrix5shearEff
PUBLIC 270a4c 0 _ZN7QMatrix6rotateEf
PUBLIC 270c2c 0 _ZNK7QMatrix8invertedEPb
PUBLIC 270d94 0 _ZNK7QMatrixeqERKS_
PUBLIC 270e2c 0 _ZNK7QMatrixneERKS_
PUBLIC 270ec4 0 _ZN7QMatrixmLERKS_
PUBLIC 27103c 0 _ZNK7QMatrixmlERKS_
PUBLIC 2711c4 0 _ZN7QMatrixaSERKS_
PUBLIC 271200 0 _ZNK7QMatrixcv8QVariantEv
PUBLIC 27121c 0 _ZlsR11QDataStreamRK7QMatrix
PUBLIC 271318 0 _ZrsR11QDataStreamR7QMatrix
PUBLIC 271458 0 _Zls6QDebugRK7QMatrix
PUBLIC 271970 0 _ZNK7QMatrix12mapToPolygonERK5QRect
PUBLIC 272080 0 _ZNK7QMatrix3mapERK8QPolygon
PUBLIC 2722a4 0 _ZNK7QMatrix3mapERK9QPolygonF
PUBLIC 27244c 0 _ZNK7QMatrix3mapERK12QPainterPath
PUBLIC 27273c 0 _ZNK7QMatrix3mapERK7QRegion
PUBLIC 272a40 0 _ZmlRK12QPainterPathRK7QMatrix
PUBLIC 272c74 0 _Z14qt_memrotate90PKjiiiPji
PUBLIC 272e60 0 _Z15qt_memrotate180PKjiiiPji
PUBLIC 272ec8 0 _Z15qt_memrotate270PKjiiiPji
PUBLIC 27307c 0 _Z14qt_memrotate90PKjiiiPti
PUBLIC 27351c 0 _Z15qt_memrotate180PKjiiiPti
PUBLIC 27359c 0 _Z15qt_memrotate270PKjiiiPti
PUBLIC 27377c 0 _Z14qt_memrotate90PKtiiiPji
PUBLIC 2739b0 0 _Z15qt_memrotate180PKtiiiPji
PUBLIC 273a44 0 _Z15qt_memrotate270PKtiiiPji
PUBLIC 273c40 0 _Z14qt_memrotate90PKtiiiPti
PUBLIC 274044 0 _Z15qt_memrotate180PKtiiiPti
PUBLIC 2740ac 0 _Z15qt_memrotate270PKtiiiPti
PUBLIC 274260 0 _Z14qt_memrotate90PK7quint24iiiPS_i
PUBLIC 2744d8 0 _Z15qt_memrotate180PK7quint24iiiPS_i
PUBLIC 2745d8 0 _Z15qt_memrotate270PK7quint24iiiPS_i
PUBLIC 27483c 0 _Z14qt_memrotate90PKjiiiP7quint24i
PUBLIC 2749e0 0 _Z15qt_memrotate180PKjiiiP7quint24i
PUBLIC 274a58 0 _Z15qt_memrotate270PKjiiiP7quint24i
PUBLIC 274c20 0 _Z14qt_memrotate90PKjiiiP7quint18i
PUBLIC 274de8 0 _Z15qt_memrotate180PKjiiiP7quint18i
PUBLIC 274e7c 0 _Z15qt_memrotate270PKjiiiP7quint18i
PUBLIC 275094 0 _Z14qt_memrotate90PKjiiiPhi
PUBLIC 275600 0 _Z15qt_memrotate180PKjiiiPhi
PUBLIC 2756d4 0 _Z15qt_memrotate270PKjiiiPhi
PUBLIC 27590c 0 _Z14qt_memrotate90PKtiiiPhi
PUBLIC 275e84 0 _Z15qt_memrotate180PKtiiiPhi
PUBLIC 275f5c 0 _Z15qt_memrotate270PKtiiiPhi
PUBLIC 276198 0 _Z14qt_memrotate90PK7qrgb444iiiPhi
PUBLIC 2767c4 0 _Z15qt_memrotate180PK7qrgb444iiiPhi
PUBLIC 2768d8 0 _Z15qt_memrotate270PK7qrgb444iiiPhi
PUBLIC 276b44 0 _Z14qt_memrotate90PKhiiiPhi
PUBLIC 276ed8 0 _Z15qt_memrotate180PKhiiiPhi
PUBLIC 276f38 0 _Z15qt_memrotate270PKhiiiPhi
PUBLIC 2770bc 0 _Z14qt_memrotate90PKjiiiP14qrgb_generic16i
PUBLIC 277850 0 _Z15qt_memrotate180PKjiiiP14qrgb_generic16i
PUBLIC 2779fc 0 _Z15qt_memrotate270PKjiiiP14qrgb_generic16i
PUBLIC 277d00 0 _Z14qt_memrotate90PKtiiiP14qrgb_generic16i
PUBLIC 278540 0 _Z15qt_memrotate180PKtiiiP14qrgb_generic16i
PUBLIC 27871c 0 _Z15qt_memrotate270PKtiiiP14qrgb_generic16i
PUBLIC 278a60 0 _Z17qt_memrotate90_glPKjiiiPji
PUBLIC 27b1d0 0 _ZNK12QPaintDevice6metricENS_17PaintDeviceMetricE
PUBLIC 27b1ec 0 _ZN12QPaintDeviceD1Ev
PUBLIC 27b240 0 _ZN12QPaintDeviceD0Ev
PUBLIC 27b25c 0 _ZN12QPaintDeviceC1Ev
PUBLIC 27b288 0 _Z22qt_paint_device_metricPK12QPaintDeviceNS_17PaintDeviceMetricE
PUBLIC 27b29c 0 _ZN12QPaintEngine10drawPointsEPK6QPointi
PUBLIC 27b340 0 _ZN12QPaintEngine11drawEllipseERK5QRect
PUBLIC 27b3b4 0 _ZN12QPaintEngineD2Ev
PUBLIC 27b404 0 _ZN12QPaintEngine9drawLinesEPK5QLinei
PUBLIC 27b4cc 0 _ZN12QPaintEngine9drawRectsEPK5QRecti
PUBLIC 27b5b8 0 _ZNK12QPaintEngine16coordinateOffsetEv
PUBLIC 27b5c8 0 _ZN12QPaintEngineD0Ev
PUBLIC 27b5e4 0 _ZN12QPaintEngine8drawPathERK12QPainterPath
PUBLIC 27b600 0 _ZN12QPaintEngine9drawLinesEPK6QLineFi
PUBLIC 27b73c 0 _ZN12QPaintEngine11drawPolygonEPK6QPointiNS_15PolygonDrawModeE
PUBLIC 27b864 0 _ZN12QPaintEngine11drawPolygonEPK7QPointFiNS_15PolygonDrawModeE
PUBLIC 27ba78 0 _ZNK9QTextItem7descentEv
PUBLIC 27ba90 0 _ZNK9QTextItem6ascentEv
PUBLIC 27baa8 0 _ZNK9QTextItem5widthEv
PUBLIC 27bac0 0 _ZNK9QTextItem11renderFlagsEv
PUBLIC 27bacc 0 _ZNK9QTextItem4textEv
PUBLIC 27baec 0 _ZNK9QTextItem4fontEv
PUBLIC 27bb18 0 _ZN12QPaintEngine9syncStateEv
PUBLIC 27be80 0 _ZN12QPaintEngineC2E6QFlagsINS_18PaintEngineFeatureEE
PUBLIC 27bf6c 0 _ZN12QPaintEngineC2ER19QPaintEnginePrivate6QFlagsINS_18PaintEngineFeatureEE
PUBLIC 27bfbc 0 _ZNK12QPaintEngine7painterEv
PUBLIC 27bfcc 0 _ZN12QPaintEngine10drawPointsEPK7QPointFi
PUBLIC 27c16c 0 _ZN12QPaintEngine14setPaintDeviceEP12QPaintDevice
PUBLIC 27c178 0 _ZNK12QPaintEngine11paintDeviceEv
PUBLIC 27c184 0 _ZN12QPaintEngine13setSystemClipERK7QRegion
PUBLIC 27c3b0 0 _ZNK12QPaintEngine10systemClipEv
PUBLIC 27c3cc 0 _ZN12QPaintEngine13setSystemRectERK5QRect
PUBLIC 27c3fc 0 _ZNK12QPaintEngine10systemRectEv
PUBLIC 27c65c 0 _ZN12QPaintEngine11drawEllipseERK6QRectF
PUBLIC 27c7b4 0 _ZN12QPaintEngine12drawTextItemERK7QPointFRK9QTextItem
PUBLIC 27c97c 0 _ZN12QPaintEngine9drawRectsEPK6QRectFi
PUBLIC 27cafc 0 _ZN12QPaintEngine15drawTiledPixmapERK6QRectFRK7QPixmapRK7QPointF
PUBLIC 27cd84 0 _ZN12QPaintEngine9drawImageERK6QRectFRK6QImageS2_6QFlagsIN2Qt19ImageConversionFlagEE
PUBLIC 27fe34 0 _ZN14QPaintEngineEx11drawEllipseERK5QRect
PUBLIC 27fea8 0 _ZN14QPaintEngineEx8setStateEP13QPainterState
PUBLIC 27feb8 0 _ZN14QPaintEngineEx11updateStateERK17QPaintEngineState
PUBLIC 27febc 0 _ZNK14QPaintEngineEx11createStateEP13QPainterState
PUBLIC 27ff10 0 _ZN14QPaintEngineEx4drawERK11QVectorPath
PUBLIC 27ffc8 0 _ZN14QPaintEngineEx8fillRectERK6QRectFRK6QColor
PUBLIC 280020 0 _ZN14QPaintEngineEx10drawPixmapERK7QPointFRK7QPixmap
PUBLIC 2800e4 0 _ZN14QPaintEngineEx9drawImageERK7QPointFRK6QImage
PUBLIC 280240 0 _ZN14QPaintEngineEx19drawPixmapFragmentsEPKN8QPainter14PixmapFragmentEiRK7QPixmap6QFlagsINS0_18PixmapFragmentHintEE
PUBLIC 280b54 0 _ZN11QVectorPathD1Ev
PUBLIC 280bac 0 _ZN14QPaintEngineEx4clipERK5QRectN2Qt13ClipOperationE
PUBLIC 280c7c 0 _ZN14QPaintEngineEx8fillRectERK6QRectFRK6QBrush
PUBLIC 280d2c 0 _ZN14QPaintEngineEx9drawRectsEPK5QRecti
PUBLIC 280e20 0 _ZN14QPaintEngineEx9drawRectsEPK6QRectFi
PUBLIC 280ef4 0 _ZN14QPaintEngineEx11drawEllipseERK6QRectF
PUBLIC 280f94 0 _ZN14QPaintEngineEx11drawPolygonEPK7QPointFiN12QPaintEngine15PolygonDrawModeE
PUBLIC 281044 0 _ZN14QPaintEngineEx15drawTiledPixmapERK6QRectFRK7QPixmapRK7QPointF
PUBLIC 281178 0 _ZN14QPaintEngineEx15drawRoundedRectERK6QRectFffN2Qt8SizeModeE
PUBLIC 28141c 0 _ZN14QPaintEngineEx9drawLinesEPK5QLinei
PUBLIC 2814fc 0 _ZN14QPaintEngineEx9drawLinesEPK6QLineFi
PUBLIC 28159c 0 _ZN14QPaintEngineEx10drawPointsEPK7QPointFi
PUBLIC 281810 0 _ZN14QPaintEngineEx10drawPointsEPK6QPointi
PUBLIC 281aac 0 _ZN14QPaintEngineEx11drawPolygonEPK6QPointiN12QPaintEngine15PolygonDrawModeE
PUBLIC 281c04 0 _ZN14QPaintEngineEx4clipERK7QRegionN2Qt13ClipOperationE
PUBLIC 282078 0 _ZNK11QVectorPath16controlPointRectEv
PUBLIC 2821ec 0 _ZNK11QVectorPath12addCacheDataEP14QPaintEngineExPvPFvS1_S2_E
PUBLIC 282230 0 _Z19qtVectorPathForPathRK12QPainterPath
PUBLIC 282420 0 _ZN14QPaintEngineExC1ER21QPaintEngineExPrivate
PUBLIC 282478 0 _ZN14QPaintEngineEx8drawPathERK12QPainterPath
PUBLIC 2824ec 0 _ZN14QPaintEngineEx4clipERK12QPainterPathN2Qt13ClipOperationE
PUBLIC 2825bc 0 _ZN14QPaintEngineEx6strokeERK11QVectorPathRK4QPen
PUBLIC 283d74 0 _ZNK21QPaintEngineExPrivate17hasClipOperationsEv
PUBLIC 283e10 0 _ZN21QPaintEngineExPrivate20replayClipOperationsEv
PUBLIC 284110 0 _ZlsR6QDebugRK11QVectorPath
PUBLIC 284570 0 _ZN21QPaintEngineExPrivateC2Ev
PUBLIC 28468c 0 _ZN14QPaintEngineExC1Ev
PUBLIC 284704 0 _ZN21QPaintEngineExPrivateD2Ev
PUBLIC 28485c 0 _ZN21QPaintEngineExPrivateD0Ev
PUBLIC 284878 0 _ZN14QPaintEngineExD2Ev
PUBLIC 2848ac 0 _ZN14QPaintEngineExD0Ev
PUBLIC 2848e8 0 _ZN12QDashStrokerD2Ev
PUBLIC 284974 0 _ZN12QDashStrokerD0Ev
PUBLIC 28526c 0 _ZNK8QPainter8isActiveEv
PUBLIC 285280 0 _ZNK8QPainter6deviceEv
PUBLIC 2852b8 0 _ZN8QPainter8initFromEPK7QWidget
PUBLIC 285418 0 _ZNK8QPainter11paintEngineEv
PUBLIC 285424 0 _ZN8QPainter19beginNativePaintingEv
PUBLIC 285468 0 _ZN8QPainter17endNativePaintingEv
PUBLIC 2854b8 0 _ZNK8QPainter11fontMetricsEv
PUBLIC 285530 0 _ZNK8QPainter8fontInfoEv
PUBLIC 2855a8 0 _ZNK8QPainter7opacityEv
PUBLIC 2855e0 0 _ZN8QPainter10setOpacityEf
PUBLIC 285680 0 _ZNK8QPainter11brushOriginEv
PUBLIC 2857a8 0 _ZN8QPainter14setBrushOriginERK7QPointF
PUBLIC 285810 0 _ZN8QPainter18setCompositionModeENS_15CompositionModeE
PUBLIC 2858f0 0 _ZNK8QPainter15compositionModeEv
PUBLIC 285928 0 _ZNK8QPainter10backgroundEv
PUBLIC 2859e8 0 _ZNK8QPainter11hasClippingEv
PUBLIC 285a38 0 _ZNK8QPainter11worldMatrixEv
PUBLIC 285b04 0 _ZNK8QPainter6matrixEv
PUBLIC 285b08 0 _ZNK8QPainter12deviceMatrixEv
PUBLIC 285bd4 0 _ZN8QPainter21setWorldMatrixEnabledEb
PUBLIC 285c1c 0 _ZNK8QPainter18worldMatrixEnabledEv
PUBLIC 285c58 0 _ZN8QPainter16setMatrixEnabledEb
PUBLIC 285c5c 0 _ZNK8QPainter13matrixEnabledEv
PUBLIC 285c60 0 _ZN8QPainter5scaleEff
PUBLIC 285cb0 0 _ZN8QPainter5shearEff
PUBLIC 285d00 0 _ZN8QPainter6rotateEf
PUBLIC 285d54 0 _ZN8QPainter9translateERK7QPointF
PUBLIC 285db0 0 _ZN8QPainter17setBackgroundModeEN2Qt6BGModeE
PUBLIC 285e04 0 _ZNK8QPainter14backgroundModeEv
PUBLIC 285e3c 0 _ZN8QPainter6setPenERK6QColor
PUBLIC 285fc8 0 _ZN8QPainter6setPenERK4QPen
PUBLIC 286054 0 _ZN8QPainter6setPenEN2Qt8PenStyleE
PUBLIC 28620c 0 _ZNK8QPainter3penEv
PUBLIC 2862cc 0 _ZN8QPainter8setBrushERK6QBrush
PUBLIC 286350 0 _ZN8QPainter8setBrushEN2Qt10BrushStyleE
PUBLIC 286454 0 _ZNK8QPainter5brushEv
PUBLIC 286514 0 _ZN8QPainter13setBackgroundERK6QBrush
PUBLIC 286564 0 _ZN8QPainter7setFontERK5QFont
PUBLIC 286628 0 _ZNK8QPainter4fontEv
PUBLIC 2866e8 0 _ZN8QPainter14setRenderHintsE6QFlagsINS_10RenderHintEEb
PUBLIC 286760 0 _ZN8QPainter13setRenderHintENS_10RenderHintEb
PUBLIC 286780 0 _ZNK8QPainter11renderHintsEv
PUBLIC 2867a0 0 _ZNK8QPainter20viewTransformEnabledEv
PUBLIC 2867e0 0 _ZN8QPainter9setWindowERK5QRect
PUBLIC 28684c 0 _ZNK8QPainter6windowEv
PUBLIC 2868c8 0 _ZN8QPainter11setViewportERK5QRect
PUBLIC 286934 0 _ZNK8QPainter8viewportEv
PUBLIC 2869b0 0 _ZN8QPainter23setViewTransformEnabledEb
PUBLIC 2869fc 0 _ZN8QPainter18setLayoutDirectionEN2Qt15LayoutDirectionE
PUBLIC 286a10 0 _ZNK8QPainter15layoutDirectionEv
PUBLIC 286a28 0 _ZNK17QPaintEngineState3penEv
PUBLIC 286a40 0 _ZNK17QPaintEngineState5brushEv
PUBLIC 286a58 0 _ZNK17QPaintEngineState11brushOriginEv
PUBLIC 286a6c 0 _ZNK17QPaintEngineState15backgroundBrushEv
PUBLIC 286a84 0 _ZNK17QPaintEngineState14backgroundModeEv
PUBLIC 286a8c 0 _ZNK17QPaintEngineState4fontEv
PUBLIC 286aa4 0 _ZNK17QPaintEngineState6matrixEv
PUBLIC 286ac8 0 _ZNK17QPaintEngineState9transformEv
PUBLIC 286b34 0 _ZNK17QPaintEngineState13clipOperationEv
PUBLIC 286b3c 0 _ZNK17QPaintEngineState19brushNeedsResolvingEv
PUBLIC 286b78 0 _ZNK17QPaintEngineState17penNeedsResolvingEv
PUBLIC 286be4 0 _ZNK17QPaintEngineState10clipRegionEv
PUBLIC 286bfc 0 _ZNK17QPaintEngineState8clipPathEv
PUBLIC 286c14 0 _ZNK17QPaintEngineState13isClipEnabledEv
PUBLIC 286c24 0 _ZNK17QPaintEngineState11renderHintsEv
PUBLIC 286c30 0 _ZNK17QPaintEngineState15compositionModeEv
PUBLIC 286c38 0 _ZNK17QPaintEngineState7painterEv
PUBLIC 286c40 0 _ZNK17QPaintEngineState7opacityEv
PUBLIC 286c48 0 _ZNK8QPainter15deviceTransformEv
PUBLIC 286d0c 0 _ZN8QPainter14resetTransformEv
PUBLIC 286e08 0 _ZN8QPainter11resetMatrixEv
PUBLIC 286e0c 0 _ZN8QPainter17setWorldTransformERK10QTransformb
PUBLIC 286e94 0 _ZN8QPainter14setWorldMatrixERK7QMatrixb
PUBLIC 286ec8 0 _ZN8QPainter9setMatrixERK7QMatrixb
PUBLIC 286efc 0 _ZN8QPainter12setTransformERK10QTransformb
PUBLIC 286f00 0 _ZNK8QPainter14worldTransformEv
PUBLIC 286fc4 0 _ZNK8QPainter9transformEv
PUBLIC 286fc8 0 _ZNK8QPainter17combinedTransformEv
PUBLIC 287038 0 _ZNK8QPainter14combinedMatrixEv
PUBLIC 287070 0 _ZN8QPainter14PixmapFragment6createERK7QPointFRK6QRectFffff
PUBLIC 2870c8 0 _ZNK8QPainter10clipRegionEv
PUBLIC 2885dc 0 _ZNK8QPainter8clipPathEv
PUBLIC 2888d4 0 _ZN8QPainterC1Ev
PUBLIC 288acc 0 _ZN8QPainter10redirectedEPK12QPaintDeviceP6QPoint
PUBLIC 288c10 0 _ZN8QPainter17restoreRedirectedEPK12QPaintDevice
PUBLIC 289140 0 _ZN13QPainterStateC1Ev
PUBLIC 289304 0 _ZN13QPainterStateD1Ev
PUBLIC 2893c4 0 _ZN13QPainterStateD0Ev
PUBLIC 2893e0 0 _ZN8QPainter13setRedirectedEPK12QPaintDevicePS0_RK6QPoint
PUBLIC 289530 0 _ZN13QPainterState4initEP8QPainter
PUBLIC 2896dc 0 _ZN13QPainterStateC1EPKS_
PUBLIC 28b07c 0 _ZN8QPainter4saveEv
PUBLIC 28b6e8 0 _ZN8QPainter7restoreEv
PUBLIC 28bb88 0 _ZN8QPainter11setClippingEb
PUBLIC 28bc64 0 _ZN8QPainter11setClipRectERK5QRectN2Qt13ClipOperationE
PUBLIC 28bf8c 0 _ZN8QPainter13setClipRegionERK7QRegionN2Qt13ClipOperationE
PUBLIC 28c2bc 0 _ZN8QPainter11setClipPathERK12QPainterPathN2Qt13ClipOperationE
PUBLIC 28c5ec 0 _ZN8QPainter11setClipRectERK6QRectFN2Qt13ClipOperationE
PUBLIC 28dbdc 0 _ZN8QPainter12boundingRectERK6QRectFRK7QStringRK11QTextOption
PUBLIC 28e19c 0 _Z14qt_draw_glyphsP8QPainterPKjPK7QPointFi
PUBLIC 28e1a4 0 _ZN8QPainter8drawTextERK5QRectiRK7QStringPS0_
PUBLIC 28e300 0 _ZN8QPainter12boundingRectERK5QRectiRK7QString
PUBLIC 28e390 0 _ZN8QPainter8drawTextERK6QRectFiRK7QStringPS0_
PUBLIC 28e440 0 _ZN8QPainter12boundingRectERK6QRectFiRK7QString
PUBLIC 28e4cc 0 _ZN8QPainter8drawTextERK6QRectFRK7QStringRK11QTextOption
PUBLIC 28e578 0 _ZN8QPainter11drawPictureERK7QPointFRK8QPicture
PUBLIC 28e5dc 0 _ZN8QPainter3endEv
PUBLIC 28e88c 0 _ZN8QPainterD1Ev
PUBLIC 28e948 0 _ZN8QPainter5beginEP12QPaintDevice
PUBLIC 28f35c 0 _ZN8QPainterC2EP12QPaintDevice
PUBLIC 28fe00 0 _ZN8QPainter8drawPathERK12QPainterPath
PUBLIC 28fe9c 0 _ZN8QPainter10strokePathERK12QPainterPathRK4QPen
PUBLIC 290034 0 _ZN8QPainter7drawArcERK6QRectFii
PUBLIC 2900fc 0 _ZN8QPainter8fillPathERK12QPainterPathRK6QBrush
PUBLIC 2903c4 0 _ZN8QPainter7drawPieERK6QRectFii
PUBLIC 290540 0 _ZN8QPainter9drawChordERK6QRectFii
PUBLIC 290608 0 _Z14qt_draw_helperP15QPainterPrivateRK12QPainterPathNS_13DrawOperationE
PUBLIC 29060c 0 _ZN8QPainter9drawRectsEPK6QRectFi
PUBLIC 2907e4 0 _ZN8QPainter15drawRoundedRectERK6QRectFffN2Qt8SizeModeE
PUBLIC 2908cc 0 _ZN8QPainter13drawRoundRectERK6QRectFii
PUBLIC 290918 0 _ZN8QPainter8fillRectERK6QRectFRK6QBrush
PUBLIC 290a5c 0 _ZN8QPainter9eraseRectERK6QRectF
PUBLIC 290a6c 0 _ZN8QPainter8fillRectERK6QRectFRK6QColor
PUBLIC 290aec 0 _ZN8QPainter9drawImageERK6QRectFRK6QImageS2_6QFlagsIN2Qt19ImageConversionFlagEE
PUBLIC 2914ec 0 _ZN8QPainter15drawTiledPixmapERK6QRectFRK7QPixmapRK7QPointF
PUBLIC 291f50 0 _ZN8QPainter10drawPixmapERK6QRectFRK7QPixmapS2_
PUBLIC 292b20 0 _ZN8QPainter19drawPixmapFragmentsEPKNS_14PixmapFragmentEiRK7QPixmap6QFlagsINS_18PixmapFragmentHintEE
PUBLIC 292e44 0 _ZN8QPainter9drawRectsEPK5QRecti
PUBLIC 293108 0 _ZN8QPainter8fillRectERK5QRectRK6QBrush
PUBLIC 29329c 0 _ZN8QPainter8fillRectERK5QRectRK6QColor
PUBLIC 293370 0 _ZN8QPainter10drawPixmapERK7QPointFRK7QPixmap
PUBLIC 2937b4 0 _ZN8QPainter9drawImageERK7QPointFRK6QImage
PUBLIC 293ba8 0 _ZN8QPainter10drawPointsEPK7QPointFi
PUBLIC 293dd4 0 _ZN8QPainter10drawPointsEPK6QPointi
PUBLIC 294020 0 _ZN8QPainter11drawEllipseERK6QRectF
PUBLIC 29411c 0 _ZN8QPainter11drawEllipseERK5QRect
PUBLIC 29434c 0 _ZN8QPainter9drawLinesEPK6QLineFi
PUBLIC 2944f4 0 _ZN8QPainter9drawLinesEPK7QPointFi
PUBLIC 294f0c 0 _Z29qt_draw_decoration_for_glyphsP8QPainterPKjPK11QFixedPointiP11QFontEngineRK5QFontRK15QTextCharFormat
PUBLIC 2950b4 0 _ZN8QPainter14drawStaticTextERK7QPointFRK11QStaticText
PUBLIC 2956ec 0 _ZN8QPainter12drawTextItemERK7QPointFRK9QTextItem
PUBLIC 295f5c 0 _ZN8QPainter8drawTextERK7QPointFRK7QStringii
PUBLIC 2969c4 0 _ZN8QPainter8drawTextERK7QPointFRK7QString
PUBLIC 2969e0 0 _ZN8QPainter9drawLinesEPK5QLinei
PUBLIC 296bdc 0 _ZN8QPainter9drawLinesEPK6QPointi
PUBLIC 296be0 0 _ZN8QPainter12drawPolylineEPK7QPointFi
PUBLIC 296cd0 0 _ZN8QPainter12drawPolylineEPK6QPointi
PUBLIC 296df4 0 _ZN8QPainter11drawPolygonEPK7QPointFiN2Qt8FillRuleE
PUBLIC 296eec 0 _ZN8QPainter11drawPolygonEPK6QPointiN2Qt8FillRuleE
PUBLIC 297018 0 _ZN8QPainter17drawConvexPolygonEPK6QPointi
PUBLIC 297144 0 _ZN8QPainter17drawConvexPolygonEPK7QPointFi
PUBLIC 2994e0 0 _Z22qt_find_ellipse_coordsRK6QRectFffP7QPointFS3_
PUBLIC 29980c 0 _ZN12QPainterPathC1Ev
PUBLIC 299818 0 _ZN19QPainterPathStroker8setWidthEf
PUBLIC 299840 0 _ZNK19QPainterPathStroker5widthEv
PUBLIC 29984c 0 _ZN19QPainterPathStroker11setCapStyleEN2Qt11PenCapStyleE
PUBLIC 299864 0 _ZNK19QPainterPathStroker8capStyleEv
PUBLIC 299870 0 _ZN19QPainterPathStroker12setJoinStyleEN2Qt12PenJoinStyleE
PUBLIC 299888 0 _ZNK19QPainterPathStroker9joinStyleEv
PUBLIC 299894 0 _ZN19QPainterPathStroker13setMiterLimitEf
PUBLIC 2998a0 0 _ZNK19QPainterPathStroker10miterLimitEv
PUBLIC 2998ac 0 _ZN19QPainterPathStroker17setCurveThresholdEf
PUBLIC 2998b8 0 _ZNK19QPainterPathStroker14curveThresholdEv
PUBLIC 2998c4 0 _ZNK19QPainterPathStroker10dashOffsetEv
PUBLIC 2998d0 0 _ZN19QPainterPathStroker13setDashOffsetEf
PUBLIC 2998dc 0 _ZN12QPainterPath8setDirtyEb
PUBLIC 299990 0 _ZNK12QPainterPath19computeBoundingRectEv
PUBLIC 29aa30 0 _ZNK12QPainterPath12boundingRectEv
PUBLIC 29aa8c 0 _ZNK12QPainterPatheqERKS_
PUBLIC 29ac08 0 _ZNK12QPainterPathneERKS_
PUBLIC 29ac1c 0 _ZNK12QPainterPath23computeControlPointRectEv
PUBLIC 29ad08 0 _ZNK12QPainterPath16controlPointRectEv
PUBLIC 29ad64 0 _Zls6QDebugRK12QPainterPath
PUBLIC 29b1ac 0 _ZN12QPainterPathC2ERKS_
PUBLIC 29b200 0 _ZN12QPainterPathD2Ev
PUBLIC 29b314 0 _ZN12QPainterPathaSERKS_
PUBLIC 29b46c 0 _ZN12QPainterPathC1ERK7QPointF
PUBLIC 29b564 0 _ZN12QPainterPath13detach_helperEv
PUBLIC 29b77c 0 _ZN12QPainterPath17ensureData_helperEv
PUBLIC 29b95c 0 _ZN12QPainterPath11setFillRuleEN2Qt8FillRuleE
PUBLIC 29b9b8 0 _ZrsR11QDataStreamR12QPainterPath
PUBLIC 29bbf0 0 _ZNK12QPainterPath15currentPositionEv
PUBLIC 29bcb4 0 _ZNK12QPainterPath8fillRuleEv
PUBLIC 29bd18 0 _ZN12QPainterPath7cubicToERK7QPointFS2_S2_
PUBLIC 29c124 0 _ZN12QPainterPath6quadToERK7QPointFS2_
PUBLIC 29c3f0 0 _ZN12QPainterPath9translateEff
PUBLIC 29c4dc 0 _ZNK12QPainterPath10translatedEff
PUBLIC 29c514 0 _ZN12QPainterPath12closeSubpathEv
PUBLIC 29c764 0 _ZN12QPainterPath6moveToERK7QPointF
PUBLIC 29c904 0 _ZN12QPainterPath9arcMoveToERK6QRectFf
PUBLIC 29c9ac 0 _ZN12QPainterPath7addRectERK6QRectF
PUBLIC 29cbb0 0 _ZN12QPainterPath9addRegionERK7QRegion
PUBLIC 29cd24 0 _ZN12QPainterPath10addPolygonERK9QPolygonF
PUBLIC 29ce20 0 _ZN12QPainterPath10addEllipseERK6QRectF
PUBLIC 29d01c 0 _ZN12QPainterPath7addPathERKS_
PUBLIC 29d280 0 _ZNK12QPainterPath10simplifiedEv
PUBLIC 29d36c 0 _ZN12QPainterPath6lineToERK7QPointF
PUBLIC 29d610 0 _ZN12QPainterPath5arcToERK6QRectFff
PUBLIC 29d854 0 _ZN12QPainterPath14addRoundedRectERK6QRectFffN2Qt8SizeModeE
PUBLIC 29db9c 0 _ZN12QPainterPath12addRoundRectERK6QRectFii
PUBLIC 29dddc 0 _ZN12QPainterPath11connectPathERKS_
PUBLIC 29e200 0 _ZNK12QPainterPath6lengthEv
PUBLIC 29e3f4 0 _ZNK12QPainterPath15percentAtLengthEf
PUBLIC 29e6b8 0 _ZNK12QPainterPath14pointAtPercentEf
PUBLIC 29ed3c 0 _ZNK12QPainterPath14slopeAtPercentEf
PUBLIC 29f318 0 _ZNK12QPainterPath14angleAtPercentEf
PUBLIC 29f8e8 0 _ZNK12QPainterPath8containsERK7QPointF
PUBLIC 29fbe4 0 _ZNK12QPainterPath10intersectsERK6QRectF
PUBLIC 29fe50 0 _ZNK12QPainterPath10intersectsERKS_
PUBLIC 29ff98 0 _ZNK12QPainterPath8containsERKS_
PUBLIC 2a00e0 0 _ZNK12QPainterPath8containsERK6QRectF
PUBLIC 2a03e8 0 _ZNK12QPainterPath10subtractedERKS_
PUBLIC 2a04f8 0 _ZNK12QPainterPathmiERKS_
PUBLIC 2a050c 0 _ZN12QPainterPathmIERKS_
PUBLIC 2a055c 0 _ZNK12QPainterPath18subtractedInvertedERKS_
PUBLIC 2a057c 0 _ZNK12QPainterPath11intersectedERKS_
PUBLIC 2a0688 0 _ZNK12QPainterPathanERKS_
PUBLIC 2a069c 0 _ZN12QPainterPathaNERKS_
PUBLIC 2a06ec 0 _ZNK12QPainterPath6unitedERKS_
PUBLIC 2a0848 0 _ZNK12QPainterPathorERKS_
PUBLIC 2a085c 0 _ZN12QPainterPathoRERKS_
PUBLIC 2a08ac 0 _ZNK12QPainterPathplERKS_
PUBLIC 2a08c0 0 _ZN12QPainterPathpLERKS_
PUBLIC 2a0910 0 _ZlsR11QDataStreamRK12QPainterPath
PUBLIC 2a0a34 0 _ZNK12QPainterPath10toReversedEv
PUBLIC 2a0c24 0 _ZNK12QPainterPath17toSubpathPolygonsERK10QTransform
PUBLIC 2a10a8 0 _ZNK12QPainterPath17toSubpathPolygonsERK7QMatrix
PUBLIC 2a10e4 0 _ZNK12QPainterPath13toFillPolygonERK10QTransform
PUBLIC 2a13c8 0 _ZNK12QPainterPath13toFillPolygonERK7QMatrix
PUBLIC 2a144c 0 _ZNK19QPainterPathStroker12createStrokeERK12QPainterPath
PUBLIC 2a1614 0 _ZN19QPainterPathStroker14setDashPatternEN2Qt8PenStyleE
PUBLIC 2a1694 0 _ZN19QPainterPathStroker14setDashPatternERK7QVectorIfE
PUBLIC 2a17f4 0 _ZNK19QPainterPathStroker11dashPatternEv
PUBLIC 2a1850 0 _ZNK12QPainterPath14toFillPolygonsERK10QTransform
PUBLIC 2a2060 0 _ZNK12QPainterPath14toFillPolygonsERK7QMatrix
PUBLIC 2a209c 0 _ZN12QPainterPath7addTextERK7QPointFRK5QFontRK7QString
PUBLIC 2a26cc 0 _ZN19QPainterPathStrokerC2Ev
PUBLIC 2a26fc 0 _ZN19QPainterPathStrokerD1Ev
PUBLIC 2b5d30 0 _ZN4QPenC2ERKS_
PUBLIC 2b5d68 0 _ZN4QPenD2Ev
PUBLIC 2b5e14 0 _ZN4QPenaSERKS_
PUBLIC 2b5f00 0 _ZNK4QPencv8QVariantEv
PUBLIC 2b5f1c 0 _ZNK4QPen5styleEv
PUBLIC 2b5f28 0 _ZNK4QPen10dashOffsetEv
PUBLIC 2b5f34 0 _ZNK4QPen10miterLimitEv
PUBLIC 2b5f40 0 _ZNK4QPen5widthEv
PUBLIC 2b5fbc 0 _ZNK4QPen6widthFEv
PUBLIC 2b5fc8 0 _ZNK4QPen8capStyleEv
PUBLIC 2b5fd4 0 _ZNK4QPen9joinStyleEv
PUBLIC 2b5fe0 0 _ZNK4QPen5colorEv
PUBLIC 2b6018 0 _ZNK4QPen5brushEv
PUBLIC 2b6034 0 _ZNK4QPen7isSolidEv
PUBLIC 2b6050 0 _ZNK4QPen10isCosmeticEv
PUBLIC 2b6084 0 _ZNK4QPeneqERKS_
PUBLIC 2b6234 0 _ZN4QPen10isDetachedEv
PUBLIC 2b624c 0 _ZN4QPenC2ERK6QBrushfN2Qt8PenStyleENS3_11PenCapStyleENS3_12PenJoinStyleE
PUBLIC 2b6334 0 _ZN4QPenC1ERK6QColor
PUBLIC 2b6440 0 _ZN4QPenC2Ev
PUBLIC 2b6688 0 _ZN4QPenC2EN2Qt8PenStyleE
PUBLIC 2b69c8 0 _ZNK4QPen11dashPatternEv
PUBLIC 2b6b8c 0 _ZlsR11QDataStreamRK4QPen
PUBLIC 2b6ddc 0 _ZN4QPen6detachEv
PUBLIC 2b6f68 0 _ZN4QPen13setMiterLimitEf
PUBLIC 2b6f84 0 _ZN4QPen8setWidthEi
PUBLIC 2b6fdc 0 _ZN4QPen9setWidthFEf
PUBLIC 2b7060 0 _ZN4QPen11setCapStyleEN2Qt11PenCapStyleE
PUBLIC 2b708c 0 _ZN4QPen12setJoinStyleEN2Qt12PenJoinStyleE
PUBLIC 2b70b8 0 _ZN4QPen8setColorERK6QColor
PUBLIC 2b7110 0 _ZN4QPen8setBrushERK6QBrush
PUBLIC 2b7134 0 _ZN4QPen11setCosmeticEb
PUBLIC 2b7160 0 _ZN4QPen8setStyleEN2Qt8PenStyleE
PUBLIC 2b723c 0 _ZN4QPen13setDashOffsetEf
PUBLIC 2b737c 0 _ZN4QPen14setDashPatternERK7QVectorIfE
PUBLIC 2b7410 0 _ZrsR11QDataStreamR4QPen
PUBLIC 2b7708 0 _Zls6QDebugRK4QPen
PUBLIC 2b8a30 0 _ZNK8QPolygon5pointEiPiS0_
PUBLIC 2b8a58 0 _ZNK8QPolygon12boundingRectEv
PUBLIC 2b8afc 0 _ZNK9QPolygonF12boundingRectEv
PUBLIC 2b8bfc 0 _ZNK8QPolygoncv8QVariantEv
PUBLIC 2b8c18 0 _ZlsR11QDataStreamRK8QPolygon
PUBLIC 2b8c7c 0 _ZlsR11QDataStreamRK9QPolygonF
PUBLIC 2b8ccc 0 _ZNK9QPolygonF13containsPointERK7QPointFN2Qt8FillRuleE
PUBLIC 2b8e2c 0 _ZNK8QPolygon13containsPointERK6QPointN2Qt8FillRuleE
PUBLIC 2b8fb8 0 _ZNK9QPolygonF6unitedERKS_
PUBLIC 2b9074 0 _ZNK9QPolygonF11intersectedERKS_
PUBLIC 2b9130 0 _ZNK9QPolygonF10subtractedERKS_
PUBLIC 2b91ec 0 _ZN8QPolygonC1ERK5QRectb
PUBLIC 2b931c 0 _ZNK9QPolygonF9toPolygonEv
PUBLIC 2b94bc 0 _ZN8QPolygon9setPointsEiPKi
PUBLIC 2b952c 0 _ZN8QPolygonC1EiPKi
PUBLIC 2b959c 0 _ZN8QPolygon9putPointsEiiPKi
PUBLIC 2b9630 0 _ZN8QPolygon9putPointsEiiRKS_i
PUBLIC 2b96d0 0 _ZN8QPolygon9putPointsEiiiiz
PUBLIC 2b97b8 0 _ZN8QPolygon9translateEii
PUBLIC 2b9828 0 _ZNK8QPolygon10translatedEii
PUBLIC 2b98a4 0 _ZN8QPolygon9setPointsEiiiz
PUBLIC 2b9968 0 _ZN9QPolygonFC1ERK6QRectF
PUBLIC 2b9a88 0 _ZN9QPolygonFC1ERK8QPolygon
PUBLIC 2b9b50 0 _ZNK8QPolygon6unitedERKS_
PUBLIC 2b9d2c 0 _ZNK8QPolygon11intersectedERKS_
PUBLIC 2b9f08 0 _ZNK8QPolygon10subtractedERKS_
PUBLIC 2ba0e4 0 _ZN9QPolygonF9translateERK7QPointF
PUBLIC 2ba174 0 _ZNK9QPolygonF10translatedERK7QPointF
PUBLIC 2ba1e8 0 _ZrsR11QDataStreamR9QPolygonF
PUBLIC 2ba320 0 _ZrsR11QDataStreamR8QPolygon
PUBLIC 2ba324 0 _Zls6QDebugRK8QPolygon
PUBLIC 2ba6d0 0 _Zls6QDebugRK9QPolygonF
PUBLIC 2c0674 0 _ZN11QFontEngine10PropertiesD2Ev
PUBLIC 2c4f2c 0 _ZNK8QPrinter7devTypeEv
PUBLIC 2c4f34 0 _ZNK8QPrinter6metricEN12QPaintDevice17PaintDeviceMetricE
PUBLIC 2c4f50 0 _ZNK8QPrinter11paintEngineEv
PUBLIC 2c52f8 0 _ZN8QPrinter4initENS_11PrinterModeE
PUBLIC 2c5358 0 _ZN8QPrinter10setEnginesEP12QPrintEngineP12QPaintEngine
PUBLIC 2c5490 0 _ZNK8QPrinter12outputFormatEv
PUBLIC 2c549c 0 _ZNK8QPrinter11printerNameEv
PUBLIC 2c54f0 0 _ZNK8QPrinter7isValidEv
PUBLIC 2c5504 0 _ZNK8QPrinter14outputFileNameEv
PUBLIC 2c5558 0 _ZNK8QPrinter12printProgramEv
PUBLIC 2c55ac 0 _ZNK8QPrinter7docNameEv
PUBLIC 2c5600 0 _ZNK8QPrinter7creatorEv
PUBLIC 2c5654 0 _ZNK8QPrinter11orientationEv
PUBLIC 2c56a8 0 _ZNK8QPrinter9paperSizeEv
PUBLIC 2c56fc 0 _ZNK8QPrinter8pageSizeEv
PUBLIC 2c5700 0 _ZNK8QPrinter9pageOrderEv
PUBLIC 2c5754 0 _ZNK8QPrinter9colorModeEv
PUBLIC 2c57a8 0 _ZNK8QPrinter9numCopiesEv
PUBLIC 2c57fc 0 _ZNK8QPrinter9copyCountEv
PUBLIC 2c5850 0 _ZNK8QPrinter15actualNumCopiesEv
PUBLIC 2c5854 0 _ZNK8QPrinter22supportsMultipleCopiesEv
PUBLIC 2c58a4 0 _ZNK8QPrinter13collateCopiesEv
PUBLIC 2c58f4 0 _ZNK8QPrinter8fullPageEv
PUBLIC 2c5944 0 _ZNK8QPrinter10resolutionEv
PUBLIC 2c5998 0 _ZNK8QPrinter9paperSizeENS_4UnitE
PUBLIC 2c5a8c 0 _ZNK8QPrinter11paperSourceEv
PUBLIC 2c5ae0 0 _ZNK8QPrinter20fontEmbeddingEnabledEv
PUBLIC 2c5b30 0 _ZNK8QPrinter6duplexEv
PUBLIC 2c5b84 0 _ZNK8QPrinter19doubleSidedPrintingEv
PUBLIC 2c5b98 0 _ZNK8QPrinter8pageRectENS_4UnitE
PUBLIC 2c5d60 0 _ZNK8QPrinter9paperRectENS_4UnitE
PUBLIC 2c5f34 0 _ZNK8QPrinter8pageRectEv
PUBLIC 2c5f88 0 _ZNK8QPrinter9paperRectEv
PUBLIC 2c5fdc 0 _ZNK8QPrinter11printEngineEv
PUBLIC 2c5fe8 0 _ZN8QPrinter7newPageEv
PUBLIC 2c6024 0 _ZN8QPrinter5abortEv
PUBLIC 2c6040 0 _ZNK8QPrinter12printerStateEv
PUBLIC 2c605c 0 _ZNK8QPrinter22printerSelectionOptionEv
PUBLIC 2c60b0 0 _ZNK8QPrinter8fromPageEv
PUBLIC 2c60bc 0 _ZNK8QPrinter6toPageEv
PUBLIC 2c60c8 0 _ZN8QPrinter13setPrintRangeENS_10PrintRangeE
PUBLIC 2c60d4 0 _ZNK8QPrinter10printRangeEv
PUBLIC 2c61e0 0 _ZNK8QPrinter14getPageMarginsEPfS0_S0_S0_NS_4UnitE
PUBLIC 2c6310 0 _ZN8QPrinterD1Ev
PUBLIC 2c6408 0 _ZN8QPrinterD0Ev
PUBLIC 2c6424 0 _ZNK8QPrinter20supportedResolutionsEv
PUBLIC 2c65b8 0 _ZN8QPrinter15setOutputFormatENS_12OutputFormatE
PUBLIC 2c6840 0 _ZN8QPrinter15setPrintProgramERK7QString
PUBLIC 2c68dc 0 _ZN8QPrinter10setDocNameERK7QString
PUBLIC 2c6978 0 _ZN8QPrinter10setCreatorERK7QString
PUBLIC 2c6a14 0 _ZN8QPrinter14setOrientationENS_11OrientationE
PUBLIC 2c6a6c 0 _ZN8QPrinter12setPaperSizeENS_8PageSizeE
PUBLIC 2c6b4c 0 _ZN8QPrinter11setPageSizeENS_8PageSizeE
PUBLIC 2c6b50 0 _ZN8QPrinter12setPaperSizeERK6QSizeFNS_4UnitE
PUBLIC 2c6c54 0 _ZN8QPrinter12setPageOrderENS_9PageOrderE
PUBLIC 2c6cf0 0 _ZN8QPrinter12setColorModeENS_9ColorModeE
PUBLIC 2c6d8c 0 _ZN8QPrinter12setNumCopiesEi
PUBLIC 2c6e28 0 _ZN8QPrinter12setCopyCountEi
PUBLIC 2c6ec4 0 _ZN8QPrinter16setCollateCopiesEb
PUBLIC 2c6f60 0 _ZN8QPrinter11setFullPageEb
PUBLIC 2c6fb8 0 _ZN8QPrinter13setResolutionEi
PUBLIC 2c7054 0 _ZN8QPrinter14setPaperSourceENS_11PaperSourceE
PUBLIC 2c70ac 0 _ZN8QPrinter23setFontEmbeddingEnabledEb
PUBLIC 2c7104 0 _ZN8QPrinter9setDuplexENS_10DuplexModeE
PUBLIC 2c715c 0 _ZN8QPrinter22setDoubleSidedPrintingEb
PUBLIC 2c7160 0 _ZN8QPrinter25setPrinterSelectionOptionERK7QString
PUBLIC 2c71b8 0 _ZN8QPrinter17setOutputFileNameERK7QString
PUBLIC 2c73dc 0 _ZN8QPrinter14setPrinterNameERK7QString
PUBLIC 2c75d8 0 _ZN8QPrinterC1ENS_11PrinterModeE
PUBLIC 2c77f0 0 _ZN8QPrinterC1ERK12QPrinterInfoNS_11PrinterModeE
PUBLIC 2c7958 0 _ZN8QPrinter14setPageMarginsEffffNS_4UnitE
PUBLIC 2c7b98 0 _ZN8QPrinter9setFromToEii
PUBLIC 2c91c8 0 _ZN11QRasterizerC2Ev
PUBLIC 2c9224 0 _ZN11QRasterizerD1Ev
PUBLIC 2c9250 0 _ZN11QRasterizer14setAntialiasedEb
PUBLIC 2c925c 0 _ZN11QRasterizer10initializeEPFviPK11QT_FT_Span_PvES3_
PUBLIC 2c9268 0 _ZN11QRasterizer11setClipRectERK5QRect
PUBLIC 2c927c 0 _ZN11QRasterizer13rasterizeLineERK7QPointFS2_fb
PUBLIC 2cb76c 0 _ZN11QRasterizer9rasterizeEPK14QT_FT_Outline_N2Qt8FillRuleE
PUBLIC 2cb9a0 0 _ZN11QRasterizer9rasterizeERK12QPainterPathN2Qt8FillRuleE
PUBLIC 2ccc0c 0 _ZNK7QRegioncv8QVariantEv
PUBLIC 2ccc28 0 _ZN7QRegionC1Ev
PUBLIC 2ccc74 0 _ZN7QRegionC2ERKS_
PUBLIC 2cccac 0 _ZN7QRegion7cleanUpEPNS_11QRegionDataE
PUBLIC 2ccd1c 0 _ZN7QRegionD2Ev
PUBLIC 2ccd64 0 _ZN7QRegionaSERKS_
PUBLIC 2ccdd8 0 _ZNK7QRegion7isEmptyEv
PUBLIC 2cce18 0 _ZNK7QRegion8containsERK5QRect
PUBLIC 2ccf50 0 _ZNK7QRegion12boundingRectEv
PUBLIC 2ccfa8 0 _Z24qt_region_strictContainsRK7QRegionRK5QRect
PUBLIC 2cd034 0 _ZNK7QRegion8numRectsEv
PUBLIC 2cd048 0 _ZNK7QRegion9rectCountEv
PUBLIC 2cd05c 0 _ZNK7QRegioneqERKS_
PUBLIC 2cd0a0 0 _ZNK7QRegion4copyEv
PUBLIC 2cd278 0 _ZN7QRegion6detachEv
PUBLIC 2cd2cc 0 _ZNK7QRegion8containsERK6QPoint
PUBLIC 2cd3e8 0 _ZN7QRegion8setRectsEPK5QRecti
PUBLIC 2cd980 0 _ZN7QRegion9translateEii
PUBLIC 2cda98 0 _ZNK7QRegion10translatedEii
PUBLIC 2cde5c 0 _ZNK7QRegion5rectsEv
PUBLIC 2cdf80 0 _ZlsR11QDataStreamRK7QRegion
PUBLIC 2ce150 0 _ZNK7QRegion10intersectsERKS_
PUBLIC 2cea4c 0 _ZNK7QRegion10intersectsERK5QRect
PUBLIC 2cf980 0 _ZNK7QRegion8subtractERKS_
PUBLIC 2cfae4 0 _ZNK7QRegionmiERKS_
PUBLIC 2cfaf8 0 _ZN7QRegionmIERKS_
PUBLIC 2d10ac 0 _ZNK7QRegion5uniteERKS_
PUBLIC 2d1380 0 _ZNK7QRegionorERKS_
PUBLIC 2d1394 0 _ZN7QRegionoRERKS_
PUBLIC 2d13e4 0 _ZNK7QRegionplERKS_
PUBLIC 2d13f8 0 _ZNK7QRegion3eorERKS_
PUBLIC 2d19c0 0 _ZNK7QRegioneoERKS_
PUBLIC 2d19d4 0 _ZN7QRegioneOERKS_
PUBLIC 2d1a24 0 _ZN7QRegionpLERKS_
PUBLIC 2d2cb4 0 _ZN7QRegionC2ERK8QPolygonN2Qt8FillRuleE
PUBLIC 2d2d7c 0 _ZN7QRegionC2ERK5QRectNS_10RegionTypeE
PUBLIC 2d3028 0 _ZN7QRegionC2EiiiiNS_10RegionTypeE
PUBLIC 2d30c0 0 _ZNK7QRegion5uniteERK5QRect
PUBLIC 2d3758 0 _ZNK7QRegionplERK5QRect
PUBLIC 2d376c 0 _ZN7QRegionpLERK5QRect
PUBLIC 2d3d98 0 _ZNK7QRegion9intersectERKS_
PUBLIC 2d4060 0 _ZNK7QRegionanERKS_
PUBLIC 2d4074 0 _ZN7QRegionaNERKS_
PUBLIC 2d40c4 0 _ZNK7QRegion9intersectERK5QRect
PUBLIC 2d4298 0 _ZNK7QRegionanERK5QRect
PUBLIC 2d42ac 0 _ZN7QRegionaNERK5QRect
PUBLIC 2d42fc 0 _ZN7QRegion4execERK10QByteArrayiN11QDataStream9ByteOrderE
PUBLIC 2d4908 0 _ZrsR11QDataStreamR7QRegion
PUBLIC 2d49c4 0 _Zls6QDebugRK7QRegion
PUBLIC 2d553c 0 _ZN7QRegionC2ERK7QBitmap
PUBLIC 2d56fc 0 _ZN11QStrokerOps5beginEPv
PUBLIC 2d570c 0 _ZN11QStrokerOps3endEv
PUBLIC 2d573c 0 _ZN11QStrokerOpsD1Ev
PUBLIC 2d577c 0 _ZN11QStrokerOpsD0Ev
PUBLIC 2d5798 0 _ZN8QStrokerD2Ev
PUBLIC 2d57cc 0 _ZN8QStrokerD0Ev
PUBLIC 2d5930 0 _ZN11QStrokerOpsC1Ev
PUBLIC 2d599c 0 _ZN11QStrokerOps13strokePolygonEPK7QPointFibPvRK10QTransform
PUBLIC 2d5e60 0 _ZN8QStrokerC2Ev
PUBLIC 2d5ecc 0 _ZN8QStroker14capForJoinModeENS_12LineJoinModeE
PUBLIC 2d5ee4 0 _ZN8QStroker14joinModeForCapEN2Qt11PenCapStyleE
PUBLIC 2d5efc 0 _ZN8QStroker15joinForJoinModeENS_12LineJoinModeE
PUBLIC 2d5f2c 0 _ZN8QStroker15joinModeForJoinEN2Qt12PenJoinStyleE
PUBLIC 2d6e94 0 _ZN8QStroker10joinPointsEffRK6QLineFNS_12LineJoinModeE
PUBLIC 2d80ac 0 _ZN11QStrokerOps13strokeEllipseERK6QRectFPvRK10QTransform
PUBLIC 2d8458 0 _ZN12QDashStrokerC1EP8QStroker
PUBLIC 2d8524 0 _ZN8QStroker21processCurrentSubpathEv
PUBLIC 2d85d4 0 _ZN12QDashStroker21processCurrentSubpathEv
PUBLIC 2d92c0 0 _ZN12QDashStroker15patternForStyleEN2Qt8PenStyleE
PUBLIC 2d9410 0 _ZN11QStrokerOps10strokePathERK12QPainterPathPvRK10QTransform
PUBLIC 2d9c98 0 _ZN12QDashStroker5beginEPv
PUBLIC 2d9ccc 0 _ZN12QDashStroker3endEv
PUBLIC 2db844 0 _ZN12QTessellatorD1Ev
PUBLIC 2db904 0 _ZN12QTessellatorD0Ev
PUBLIC 2dc1bc 0 _ZN12QTessellatorC2Ev
PUBLIC 2dc264 0 _ZN12QTessellator10setWindingEb
PUBLIC 2dc270 0 _ZN12QTessellator16tessellateConvexEPK7QPointFi
PUBLIC 2dc84c 0 _ZN12QTessellator14tessellateRectERK7QPointFS2_f
PUBLIC 2de3a0 0 _ZN12QTessellator10tessellateEPK7QPointFi
PUBLIC 2df08c 0 _ZNK23QImageTextureGlyphCache11glyphMarginEv
PUBLIC 2df10c 0 _ZNK18QTextureGlyphCache18textureMapForGlyphEj
PUBLIC 2df190 0 _ZN18QTextureGlyphCache8populateEP11QFontEngineiPKjPK11QFixedPoint
PUBLIC 2df8f4 0 _ZN23QImageTextureGlyphCache17resizeTextureDataEii
PUBLIC 2df958 0 _ZN23QImageTextureGlyphCache17createTextureDataEii
PUBLIC 2dfbac 0 _ZN23QImageTextureGlyphCache11fillTextureERKN18QTextureGlyphCache5CoordEj
PUBLIC 2e034c 0 _ZN23QImageTextureGlyphCacheD1Ev
PUBLIC 2e0454 0 _ZN23QImageTextureGlyphCacheD0Ev
PUBLIC 2e0564 0 _ZN10QTransformC1Ev
PUBLIC 2e05ac 0 _ZN10QTransformC2Efffffffff
PUBLIC 2e0610 0 _ZN10QTransformC1Effffff
PUBLIC 2e0670 0 _ZN10QTransformC2ERK7QMatrix
PUBLIC 2e06dc 0 _ZNK10QTransform7adjointEv
PUBLIC 2e08e4 0 _ZNK10QTransform10transposedEv
PUBLIC 2e0984 0 _ZN10QTransform13fromTranslateEff
PUBLIC 2e0a34 0 _ZN10QTransform9fromScaleEff
PUBLIC 2e0ae4 0 _ZNK10QTransformeqERKS_
PUBLIC 2e0bb8 0 _ZNK10QTransformneERKS_
PUBLIC 2e0bcc 0 _ZN10QTransformaSERKS_
PUBLIC 2e0c50 0 _ZN10QTransform5resetEv
PUBLIC 2e0c98 0 _ZlsR11QDataStreamRK10QTransform
PUBLIC 2e0da4 0 _ZN10QTransform9setMatrixEfffffffff
PUBLIC 2e0e08 0 _ZrsR11QDataStreamR10QTransform
PUBLIC 2e0f0c 0 _ZN10QTransform12squareToQuadERK9QPolygonFRS_
PUBLIC 2e12d4 0 _ZNK10QTransform8toAffineEv
PUBLIC 2e12d8 0 _ZNK10QTransform4typeEv
PUBLIC 2e15d8 0 _ZNK10QTransform8invertedEPb
PUBLIC 2e1a68 0 _ZN10QTransform12quadToSquareERK9QPolygonFRS_
PUBLIC 2e1ab4 0 _ZN10QTransform9translateEff
PUBLIC 2e1cb0 0 _ZN10QTransform5scaleEff
PUBLIC 2e1e04 0 _ZN10QTransform5shearEff
PUBLIC 2e1fd0 0 _ZNK10QTransform3mapERK6QPoint
PUBLIC 2e2294 0 _ZNK10QTransform3mapERK7QPointF
PUBLIC 2e2468 0 _ZNK10QTransform3mapERK5QLine
PUBLIC 2e2a00 0 _ZNK10QTransform3mapERK6QLineF
PUBLIC 2e2db8 0 _ZNK10QTransform3mapEffPfS0_
PUBLIC 2e2fac 0 _ZNK10QTransform3mapEiiPiS0_
PUBLIC 2e3294 0 _Zls6QDebugRK10QTransform
PUBLIC 2e3a54 0 _ZN10QTransformmLERKS_
PUBLIC 2e407c 0 _ZN10QTransform10quadToQuadERK9QPolygonFS2_RS_
PUBLIC 2e40ec 0 _ZNK10QTransformmlERKS_
PUBLIC 2e488c 0 _ZN10QTransform6rotateEfN2Qt4AxisE
PUBLIC 2e4c68 0 _ZN10QTransform13rotateRadiansEfN2Qt4AxisE
PUBLIC 2e4f50 0 _ZNK10QTransformcv8QVariantEv
PUBLIC 2e4f6c 0 _Z20qt_scaleForTransformRK10QTransformPf
PUBLIC 2e51ac 0 _ZNK10QTransform12mapToPolygonERK5QRect
PUBLIC 2e5b3c 0 _ZNK10QTransform3mapERK12QPainterPath
PUBLIC 2e7474 0 _ZNK10QTransform3mapERK9QPolygonF
PUBLIC 2e7780 0 _ZNK10QTransform3mapERK8QPolygon
PUBLIC 2e7c84 0 _ZNK10QTransform7mapRectERK5QRect
PUBLIC 2e8c54 0 _ZNK10QTransform3mapERK7QRegion
PUBLIC 2e8f74 0 _ZNK10QTransform7mapRectERK6QRectF
PUBLIC 2e97b0 0 _ZN14QWindowSurface10beginPaintERK7QRegion
PUBLIC 2e97b4 0 _ZN14QWindowSurface11setGeometryERK5QRect
PUBLIC 2e97c4 0 _ZN14QWindowSurface6scrollERK7QRegionii
PUBLIC 2e97cc 0 _ZNK14QWindowSurface6offsetEPK7QWidget
PUBLIC 2e9844 0 _ZN14QWindowSurfaceC1EP7QWidget
PUBLIC 2e9934 0 _ZNK14QWindowSurface6windowEv
PUBLIC 2e9940 0 _ZNK14QWindowSurface8geometryEv
PUBLIC 2e9958 0 _ZNK14QWindowSurface24hasStaticContentsSupportEv
PUBLIC 2e9968 0 _ZN14QWindowSurface24setStaticContentsSupportEb
PUBLIC 2e99a8 0 _ZN14QWindowSurface17setStaticContentsERK7QRegion
PUBLIC 2e99b4 0 _ZNK14QWindowSurface14staticContentsEv
PUBLIC 2e99d0 0 _ZNK14QWindowSurface17hasStaticContentsEv
PUBLIC 2e99f8 0 _ZNK14QWindowSurface23hasPartialUpdateSupportEv
PUBLIC 2e9a0c 0 _ZN14QWindowSurface23setPartialUpdateSupportEb
PUBLIC 2e9c0c 0 _ZN14QWindowSurfaceD2Ev
PUBLIC 2e9c80 0 _ZN14QWindowSurfaceD0Ev
PUBLIC 2e9c9c 0 _ZN14QWindowSurface6bufferEPK7QWidget
PUBLIC 2e9ea8 0 _ZN14QWindowSurface8endPaintERK7QRegion
PUBLIC 2ea000 0 _ZNK14QWindowSurface10grabWidgetEPK7QWidgetRK5QRect
PUBLIC 2ea518 0 _ZNK12QPaintBuffer7devTypeEv
PUBLIC 2eab88 0 _ZN23QPaintBufferSignalProxy8instanceEv
PUBLIC 2eac9c 0 _ZN12QPaintBufferC2ERKS_
PUBLIC 2ead0c 0 _ZNK12QPaintBuffer7isEmptyEv
PUBLIC 2ead24 0 _ZNK12QPaintBuffer15frameStartIndexEi
PUBLIC 2ead48 0 _ZNK12QPaintBuffer13frameEndIndexEi
PUBLIC 2ead78 0 _ZNK12QPaintBuffer12boundingRectEv
PUBLIC 2ead94 0 _ZN12QPaintBuffer15setBoundingRectERK6QRectF
PUBLIC 2eae44 0 _ZNK12QPaintBuffer11paintEngineEv
PUBLIC 2eae84 0 _ZN16QPainterReplayer14setupTransformEP8QPainter
PUBLIC 2eaf58 0 _ZN16QPainterReplayer15processCommandsERK12QPaintBufferP8QPainterii
PUBLIC 2eafa8 0 _ZNK12QPaintBuffer15processCommandsEP8QPainterii
PUBLIC 2eb0e0 0 _ZNK12QPaintBuffer4drawEP8QPainteri
PUBLIC 2eb120 0 _ZNK12QPaintBuffer9numFramesEv
PUBLIC 2eb35c 0 _ZN12QPaintBufferC2Ev
PUBLIC 2eb608 0 _ZN12QPaintBufferD1Ev
PUBLIC 2eb698 0 _ZN12QPaintBufferD0Ev
PUBLIC 2eb6b4 0 _ZN12QPaintBufferaSERKS_
PUBLIC 2eb740 0 _ZN20QPaintBufferResourceC2EPFvPvEP7QObject
PUBLIC 2ef594 0 _ZN12QPaintBuffer13beginNewFrameEv
PUBLIC 2ef5c8 0 _ZN20QPaintBufferResourceD2Ev
PUBLIC 2ef718 0 _ZN20QPaintBufferResourceD0Ev
PUBLIC 2ef734 0 _ZN20QPaintBufferResource6removeEPK19QPaintBufferPrivate
PUBLIC 2ef818 0 _ZN20QPaintBufferResource5valueEPK19QPaintBufferPrivate
PUBLIC 2ef880 0 _ZN20QPaintBufferResource6insertEPK19QPaintBufferPrivatePv
PUBLIC 2ef9b0 0 _ZNK12QPaintBuffer6metricEN12QPaintDevice17PaintDeviceMetricE
PUBLIC 2efdd4 0 _ZN16QPainterReplayer7processERK19QPaintBufferCommand
PUBLIC 2f174c 0 _ZN22QPaintEngineExReplayer7processERK19QPaintBufferCommand
PUBLIC 2f2154 0 _ZlsR11QDataStreamRK12QPaintBuffer
PUBLIC 2f3184 0 _ZrsR11QDataStreamR12QPaintBuffer
PUBLIC 2f3a70 0 _ZNK12QPaintBuffer18commandDescriptionEi
PUBLIC 2f5860 0 _ZN22QPaintEngineExReplayerD2Ev
PUBLIC 2f58c0 0 _ZN22QPaintEngineExReplayerD0Ev
PUBLIC 2f85b4 0 _ZN18QRasterPaintEngine3endEv
PUBLIC 2f85bc 0 _ZN18QRasterPaintEngine10penChangedEv
PUBLIC 2f85e4 0 _ZN18QRasterPaintEngine18brushOriginChangedEv
PUBLIC 2f8600 0 _ZN18QRasterPaintEngine12brushChangedEv
PUBLIC 2f861c 0 _ZN18QRasterPaintEngine14opacityChangedEv
PUBLIC 2f8678 0 _ZN18QRasterPaintEngine18clipEnabledChangedEv
PUBLIC 2f86fc 0 _ZNK18QRasterPaintEngine16coordinateOffsetEv
PUBLIC 2f870c 0 _ZNK24QCustomRasterPaintDevice12bytesPerLineEv
PUBLIC 2f89ac 0 _ZN18QRasterPaintEngineD2Ev
PUBLIC 2f8a34 0 _ZN18QRasterPaintEngineD0Ev
PUBLIC 2f8a50 0 _ZN18QRasterPaintEngine8setStateEP13QPainterState
PUBLIC 2f8a70 0 _ZN18QRasterPaintEngine14drawColorSpansEPK11QT_FT_Span_ij
PUBLIC 2f8a80 0 _ZN18QRasterPaintEngine14drawBufferSpanEPKjiiiij
PUBLIC 2f8a90 0 _ZNK24QCustomRasterPaintDevice6metricEN12QPaintDevice17PaintDeviceMetricE
PUBLIC 2f9c7c 0 _ZNK18QRasterPaintEngine4sizeEv
PUBLIC 2f9d58 0 _ZN18QRasterPaintEngine19updateOutlineMapperEv
PUBLIC 2f9dcc 0 _ZN18QRasterPaintEngine12updateMatrixERK10QTransform
PUBLIC 2f9f7c 0 _ZN18QRasterPaintEngine11updateStateEv
PUBLIC 2fa024 0 _ZN25QRasterPaintEnginePrivate9drawImageERK7QPointFRK6QImagePFvPhiPKhiiiiERK5QRectiSD_
PUBLIC 2fa340 0 _ZNK25QRasterPaintEnginePrivate22isUnclipped_normalizedERK5QRect
PUBLIC 2faff4 0 _ZN18QRasterPaintEngine11alphaPenBltEPKviiiiii
PUBLIC 2fb914 0 _ZNK25QRasterPaintEnginePrivate11isUnclippedERK5QRecti
PUBLIC 2fbac0 0 _ZN18QRasterPaintEngine10drawBitmapERK7QPointFRK6QImageP9QSpanData
PUBLIC 2fc124 0 _ZNK18QRasterPaintEngine8clipTypeEv
PUBLIC 2fc17c 0 _ZNK18QRasterPaintEngine16clipBoundingRectEv
PUBLIC 2fc224 0 _ZN25QRasterPaintEnginePrivate20initializeRasterizerEP9QSpanData
PUBLIC 2fc318 0 _ZN25QRasterPaintEnginePrivate9rasterizeEP14QT_FT_Outline_PFviPK11QT_FT_Span_PvES5_P13QRasterBuffer
PUBLIC 2fc540 0 _ZN25QRasterPaintEnginePrivate9rasterizeEP14QT_FT_Outline_PFviPK11QT_FT_Span_PvEP9QSpanDataP13QRasterBuffer
PUBLIC 2fc5b4 0 _ZN18QRasterPaintEngine8fillPathERK12QPainterPathP9QSpanData
PUBLIC 2fc90c 0 _ZN18QRasterPaintEngine8fillRectERK6QRectFP9QSpanData
PUBLIC 2fd228 0 _ZN25QRasterPaintEnginePrivate21recalculateFastImagesEv
PUBLIC 2fd290 0 _ZN18QRasterPaintEngine22compositionModeChangedEv
PUBLIC 2fd2dc 0 _ZN18QRasterPaintEngine18renderHintsChangedEv
PUBLIC 2fd360 0 _ZN18QRasterPaintEngine16transformChangedEv
PUBLIC 2fd398 0 _ZN13QRasterBufferD2Ev
PUBLIC 2fd39c 0 _ZN13QRasterBuffer4initEv
PUBLIC 2fd3b4 0 _ZN18QRasterPaintEngine13releaseBufferEv
PUBLIC 2fd414 0 _ZN13QRasterBuffer11resetBufferEi
PUBLIC 2fd428 0 _ZN13QRasterBuffer7prepareEP24QCustomRasterPaintDevice
PUBLIC 2fd530 0 _ZN25QRasterPaintEnginePrivate7prepareEP24QCustomRasterPaintDevice
PUBLIC 2fd538 0 _ZN9QClipDataC2Ei
PUBLIC 2fd5a0 0 _ZN9QClipDataD2Ev
PUBLIC 2fd72c 0 _ZN9QClipData10initializeEv
PUBLIC 2fe3cc 0 _ZN9QClipData5fixupEv
PUBLIC 2fe52c 0 _ZN9QClipData11setClipRectERK5QRect
PUBLIC 2fe5fc 0 _ZNK13QRasterBuffer16flushToARGBImageEP6QImage
PUBLIC 2fe984 0 _ZN18QRasterPaintEngine8fillRectERK6QRectFRK6QColor
PUBLIC 2fec78 0 _ZN25QRasterPaintEnginePrivate16updateMatrixDataEP9QSpanDataRK6QBrushRK10QTransform
PUBLIC 2fefc0 0 _ZN18QRasterPaintEngine9drawImageERK7QPointFRK6QImage
PUBLIC 2ff368 0 _ZN18QRasterPaintEngine9drawImageERK6QRectFRK6QImageS2_6QFlagsIN2Qt19ImageConversionFlagEE
PUBLIC 301a44 0 _ZN18QRasterPaintEngine16drawCachedGlyphsEiPKjPK11QFixedPointP11QFontEngine
PUBLIC 302d9c 0 _ZN18QRasterPaintEngine21strokePolygonCosmeticEPK7QPointFiN12QPaintEngine15PolygonDrawModeE
PUBLIC 3033dc 0 _ZN18QRasterPaintEngine21strokePolygonCosmeticEPK6QPointiN12QPaintEngine15PolygonDrawModeE
PUBLIC 303cc0 0 _ZN25QRasterPaintEnginePrivate20rasterizeLine_dashedE6QLineFfPiPfPb
PUBLIC 303ffc 0 _ZN9QClipData13setClipRegionERK7QRegion
PUBLIC 3040f8 0 _ZN25QRasterPaintEnginePrivate18systemStateChangedEv
PUBLIC 304250 0 _ZN18QRasterPaintEngine25setClipRectInDeviceCoordsERK5QRectN2Qt13ClipOperationE
PUBLIC 304474 0 _ZN18QRasterPaintEngine4clipERK11QVectorPathN2Qt13ClipOperationE
PUBLIC 304a70 0 _ZN18QRasterPaintEngine4clipERK5QRectN2Qt13ClipOperationE
PUBLIC 304b04 0 _ZN18QRasterPaintEngine4clipERK7QRegionN2Qt13ClipOperationE
PUBLIC 304eb8 0 _ZN25QRasterPaintEnginePrivateC2Ev
PUBLIC 304f6c 0 _ZN18QRasterPaintEngine11fillPolygonEPK7QPointFiN12QPaintEngine15PolygonDrawModeE
PUBLIC 305b7c 0 _ZNK18QRasterPaintEngine11createStateEP13QPainterState
PUBLIC 305bc8 0 _ZN13QRasterBuffer7prepareEP6QImage
PUBLIC 305e7c 0 _ZN18QRasterPaintEngine4initEv
PUBLIC 306354 0 _ZN18QRasterPaintEngineC2ER25QRasterPaintEnginePrivateP12QPaintDevice
PUBLIC 3063bc 0 _ZN18QRasterPaintEngineC2EP12QPaintDevice
PUBLIC 306448 0 _ZN13QRasterBuffer14colorizeBitmapERK6QImageRK6QColor
PUBLIC 30659c 0 _ZN18QRasterPaintEngine15drawTiledPixmapERK6QRectFRK7QPixmapRK7QPointF
PUBLIC 307a58 0 _ZN18QRasterPaintEngine5beginEP12QPaintDevice
PUBLIC 307c68 0 _ZN18QRasterPaintEngine9updatePenERK4QPen
PUBLIC 3081bc 0 _ZN18QRasterPaintEngine6strokeERK11QVectorPathRK4QPen
PUBLIC 308818 0 _ZN18QRasterPaintEngine18drawStaticTextItemEP15QStaticTextItem
PUBLIC 3088d8 0 _ZN18QRasterPaintEngine12drawTextItemERK7QPointFRK9QTextItem
PUBLIC 308ee0 0 _ZN18QRasterPaintEngine9drawLinesEPK5QLinei
PUBLIC 3093d0 0 _ZN18QRasterPaintEngine9drawLinesEPK6QLineFi
PUBLIC 309728 0 _ZN18QRasterPaintEngine10drawPixmapERK7QPointFRK7QPixmap
PUBLIC 309a04 0 _ZN18QRasterPaintEngine10drawPixmapERK6QRectFRK7QPixmapS2_
PUBLIC 30a31c 0 _ZN18QRasterPaintEngine10drawPointsEPK7QPointFi
PUBLIC 30a6ac 0 _ZN18QRasterPaintEngine10drawPointsEPK6QPointi
PUBLIC 30aa50 0 _ZN18QRasterPaintEngine11updateBrushERK6QBrush
PUBLIC 30ac00 0 _ZN18QRasterPaintEngine11drawPolygonEPK6QPointiN12QPaintEngine15PolygonDrawModeE
PUBLIC 30b334 0 _ZN18QRasterPaintEngine8fillRectERK6QRectFRK6QBrush
PUBLIC 30b3b0 0 _ZN18QRasterPaintEngine11drawPolygonEPK7QPointFiN12QPaintEngine15PolygonDrawModeE
PUBLIC 30b71c 0 _ZN18QRasterPaintEngine4fillERK11QVectorPathRK6QBrush
PUBLIC 30c350 0 _ZN18QRasterPaintEngine11drawEllipseERK6QRectF
PUBLIC 30c8ac 0 _ZN18QRasterPaintEngine9drawRectsEPK6QRectFi
PUBLIC 30cff4 0 _ZN18QRasterPaintEngine9drawRectsEPK5QRecti
PUBLIC 30d44c 0 _ZN24QCustomRasterPaintDeviceD1Ev
PUBLIC 30d480 0 _ZN24QCustomRasterPaintDeviceD0Ev
PUBLIC 30eed8 0 _ZN25QRasterPaintEnginePrivateD2Ev
PUBLIC 30f200 0 _ZN25QRasterPaintEnginePrivateD0Ev
PUBLIC 35838c 0 _ZNK17QWSGraphicsSystem19createWindowSurfaceEP7QWidget
PUBLIC 3583a4 0 _ZNK17QWSGraphicsSystem16createPixmapDataEN11QPixmapData9PixelTypeE
PUBLIC 358404 0 _ZN17QWSGraphicsSystemD1Ev
PUBLIC 358438 0 _ZN17QWSGraphicsSystemD0Ev
PUBLIC 358544 0 _ZN12QPrinterInfoC2Ev
PUBLIC 358558 0 _ZNK12QPrinterInfo11printerNameEv
PUBLIC 358594 0 _ZNK12QPrinterInfo6isNullEv
PUBLIC 3585a0 0 _ZNK12QPrinterInfo9isDefaultEv
PUBLIC 359110 0 _ZN12QPrinterInfoC2ERK7QString
PUBLIC 3591a8 0 _ZN12QPrinterInfoD2Ev
PUBLIC 35a4a0 0 _ZNK12QPrinterInfo19supportedPaperSizesEv
PUBLIC 35a508 0 _ZN12QPrinterInfoaSERKS_
PUBLIC 35a618 0 _ZN12QPrinterInfoC2ERKS_
PUBLIC 3601f4 0 _ZN12QPrinterInfo17availablePrintersEv
PUBLIC 360354 0 _ZN12QPrinterInfo14defaultPrinterEv
PUBLIC 360480 0 _ZN12QPrinterInfoC2ERK8QPrinter
PUBLIC 361e04 0 _ZN14QWidgetPrivate11repaint_sysERK7QRegion
PUBLIC 364b5c 0 _ZN14QWidgetPrivate16invalidateBufferERK7QRegion
PUBLIC 365704 0 _ZN14QWidgetPrivate16invalidateBufferERK5QRect
PUBLIC 3658a0 0 _ZN14QWidgetPrivate8moveRectERK5QRectii
PUBLIC 366030 0 _ZN14QWidgetPrivate10scrollRectERK5QRectii
PUBLIC 366768 0 _ZN14QWidgetPrivate29invalidateBuffer_resizeHelperERK6QPointRK5QSize
PUBLIC 36713c 0 _ZN9QColormap10initializeEv
PUBLIC 3671a4 0 _ZN9QColormap7cleanupEv
PUBLIC 3671c8 0 _ZN9QColormapC1Ev
PUBLIC 36720c 0 _ZN9QColormap8instanceEi
PUBLIC 367220 0 _ZN9QColormapC1ERKS_
PUBLIC 367258 0 _ZN9QColormapD2Ev
PUBLIC 3672a0 0 _ZNK9QColormap4modeEv
PUBLIC 3672ac 0 _ZNK9QColormap5depthEv
PUBLIC 3672b8 0 _ZNK9QColormap4sizeEv
PUBLIC 3672c4 0 _ZNK9QColormap5pixelERK6QColor
PUBLIC 36736c 0 _ZNK9QColormap7colorAtEj
PUBLIC 36742c 0 _ZNK9QColormap8colormapEv
PUBLIC 367478 0 _ZN9QColormapaSERKS_
PUBLIC 3674f4 0 _ZN12QPaintDevice10qwsDisplayEv
PUBLIC 367514 0 _ZN16QWSWindowSurface10beginPaintERK7QRegion
PUBLIC 36752c 0 _ZN16QWSWindowSurface8endPaintERK7QRegion
PUBLIC 367540 0 _ZNK16QWSWindowSurface14transientStateEv
PUBLIC 36758c 0 _ZNK16QWSWindowSurface14permanentStateEv
PUBLIC 3675d8 0 _ZN16QWSWindowSurface17setTransientStateERK10QByteArray
PUBLIC 3675dc 0 _ZN16QWSWindowSurface17setPermanentStateERK10QByteArray
PUBLIC 3675e0 0 _ZN16QWSWindowSurface4lockEi
PUBLIC 3675e8 0 _ZN16QWSWindowSurface6unlockEv
PUBLIC 3675ec 0 _ZN16QWSWindowSurface14releaseSurfaceEv
PUBLIC 3675f0 0 _ZN16QWSWindowSurfaceD1Ev
PUBLIC 367650 0 _ZN16QWSWindowSurfaceD0Ev
PUBLIC 36766c 0 _ZNK16QWSWindowSurface13painterOffsetEv
PUBLIC 3676c4 0 _ZN16QWSWindowSurface11setGeometryERK5QRect
PUBLIC 367818 0 _ZNK18QWSOnScreenSurface13painterOffsetEv
PUBLIC 367864 0 _ZN16QWSMemorySurface4lockEi
PUBLIC 36789c 0 _ZN16QWSMemorySurface6unlockEv
PUBLIC 3678c4 0 _ZNK16QWSMemorySurface13painterOffsetEv
PUBLIC 367a08 0 _ZN23QWSDirectPainterSurface4lockEi
PUBLIC 367a34 0 _ZN23QWSDirectPainterSurface6unlockEv
PUBLIC 367a58 0 _ZNK18QWSOnScreenSurface14permanentStateEv
PUBLIC 367b18 0 _ZN16QWSWindowSurface16invalidateBufferEv
PUBLIC 367be4 0 _ZNK16QWSWindowSurface5winIdEv
PUBLIC 367c1c 0 _ZN23QWSDirectPainterSurfaceD1Ev
PUBLIC 367cb4 0 _ZN23QWSDirectPainterSurfaceD0Ev
PUBLIC 367cd0 0 _ZN23QWSDirectPainterSurface5flushEP7QWidgetRK7QRegionRK6QPoint
PUBLIC 367d44 0 _ZN23QWSDirectPainterSurface10beginPaintERK7QRegion
PUBLIC 367da4 0 _ZN16QWSWindowSurface8setWinIdEi
PUBLIC 367db0 0 _ZN16QWSWindowSurfaceC1Ev
PUBLIC 367e28 0 _ZN16QWSWindowSurfaceC2EP7QWidget
PUBLIC 367e9c 0 _ZNK16QWSWindowSurface10clipRegionEv
PUBLIC 367eb8 0 _ZNK16QWSWindowSurface12surfaceFlagsEv
PUBLIC 367ec8 0 _ZNK19QWSSharedMemSurface14permanentStateEv
PUBLIC 367fc8 0 _ZNK23QWSDirectPainterSurface14permanentStateEv
PUBLIC 36805c 0 _ZNK18QWSLocalMemSurface14permanentStateEv
PUBLIC 368148 0 _ZN16QWSWindowSurface13setClipRegionERK7QRegion
PUBLIC 3682c4 0 _ZN16QWSWindowSurface5flushEP7QWidgetRK7QRegionRK6QPoint
PUBLIC 3683dc 0 _ZN16QWSWindowSurface15setSurfaceFlagsE6QFlagsINS_11SurfaceFlagEE
PUBLIC 3683ec 0 _ZN23QWSDirectPainterSurface17setPermanentStateERK10QByteArray
PUBLIC 368460 0 _ZN16QWSMemorySurface7setLockEi
PUBLIC 3684d4 0 _ZN19QWSSharedMemSurface9setMemoryEi
PUBLIC 368540 0 _ZN23QWSDirectPainterSurface9setRegionERK7QRegion
PUBLIC 36866c 0 _ZNK23QWSDirectPainterSurface22hasPendingRegionEventsEv
PUBLIC 3686a4 0 _ZN23QWSDirectPainterSurfaceC1EbN14QDirectPainter11SurfaceFlagE
PUBLIC 3688c0 0 _ZNK16QWSMemorySurface20preferredImageFormatEPK7QWidget
PUBLIC 368a2c 0 _ZNK16QWSMemorySurface7isValidEv
PUBLIC 368ad8 0 _ZNK18QWSOnScreenSurface7isValidEv
PUBLIC 368bd4 0 _ZN16QWSMemorySurface10beginPaintERK7QRegion
PUBLIC 368d18 0 _ZN16QWSMemorySurface6scrollERK7QRegionii
PUBLIC 368dd4 0 _ZN16QWSWindowSurface11setGeometryERK5QRectRK7QRegion
PUBLIC 369018 0 _ZN16QWSWindowSurface4moveERK6QPoint
PUBLIC 36909c 0 _ZN16QWSWindowSurface4moveERK6QPointRK7QRegion
PUBLIC 36914c 0 _ZN16QWSMemorySurfaceC1Ev
PUBLIC 3691e4 0 _ZN18QWSLocalMemSurfaceC1Ev
PUBLIC 369228 0 _ZN16QWSMemorySurfaceC1EP7QWidget
PUBLIC 3692f4 0 _ZN18QWSLocalMemSurfaceC2EP7QWidget
PUBLIC 369338 0 _ZN16QWSMemorySurfaceD2Ev
PUBLIC 369394 0 _ZN16QWSMemorySurfaceD0Ev
PUBLIC 3693b0 0 _ZN18QWSLocalMemSurfaceD2Ev
PUBLIC 369404 0 _ZN18QWSLocalMemSurfaceD0Ev
PUBLIC 369420 0 _ZN19QWSSharedMemSurfaceC2Ev
PUBLIC 36946c 0 _ZN19QWSSharedMemSurfaceC2EP7QWidget
PUBLIC 3694b8 0 _ZN19QWSSharedMemSurfaceD2Ev
PUBLIC 369500 0 _ZN19QWSSharedMemSurfaceD0Ev
PUBLIC 36951c 0 _ZN18QWSOnScreenSurfaceC2Ev
PUBLIC 36957c 0 _ZN18QWSOnScreenSurfaceD2Ev
PUBLIC 3695b0 0 _ZN18QWSOnScreenSurfaceD0Ev
PUBLIC 3695cc 0 _ZN18QWSLocalMemSurface11setGeometryERK5QRect
PUBLIC 369950 0 _ZN18QWSLocalMemSurface17setPermanentStateERK10QByteArray
PUBLIC 3699f0 0 _ZN18QWSLocalMemSurface14releaseSurfaceEv
PUBLIC 369a38 0 _ZN19QWSSharedMemSurface17setPermanentStateERK10QByteArray
PUBLIC 369af0 0 _ZN19QWSSharedMemSurface11setGeometryERK5QRect
PUBLIC 369d78 0 _ZN19QWSSharedMemSurface14releaseSurfaceEv
PUBLIC 369dc0 0 _ZN18QWSOnScreenSurface14attachToScreenEPK7QScreen
PUBLIC 369e58 0 _ZN18QWSOnScreenSurfaceC2EP7QWidget
PUBLIC 369f64 0 _ZN18QWSOnScreenSurface17setPermanentStateERK10QByteArray
PUBLIC 36a868 0 _ZN12QFontPrivateC2ERKS_
PUBLIC 36aa7c 0 _ZN12QFontPrivateD1Ev
PUBLIC 36ab38 0 _ZNK12QFontPrivate26alterCharForCapitalizationER5QChar
PUBLIC 36ab80 0 _ZN12QFontPrivate7resolveEjPKS_
PUBLIC 36ada4 0 _ZN5QFontC2EP12QFontPrivate
PUBLIC 36adf0 0 _ZN5QFontC1ERKS_
PUBLIC 36ae3c 0 _ZN5QFontD1Ev
PUBLIC 36aea0 0 _ZN5QFontC2Ev
PUBLIC 36af0c 0 _ZN5QFontaSERKS_
PUBLIC 36afa8 0 _ZNK5QFont6familyEv
PUBLIC 36afe4 0 _ZNK5QFont9pointSizeEv
PUBLIC 36b060 0 _ZNK5QFont10pointSizeFEv
PUBLIC 36b06c 0 _ZNK5QFont9pixelSizeEv
PUBLIC 36b080 0 _ZNK5QFont5styleEv
PUBLIC 36b090 0 _ZNK5QFont6weightEv
PUBLIC 36b0a0 0 _ZNK5QFont9underlineEv
PUBLIC 36b0b4 0 _ZNK5QFont8overlineEv
PUBLIC 36b0c8 0 _ZNK5QFont9strikeOutEv
PUBLIC 36b0dc 0 _ZNK5QFont10fixedPitchEv
PUBLIC 36b0ec 0 _ZNK5QFont7kerningEv
PUBLIC 36b100 0 _ZNK5QFont13styleStrategyEv
PUBLIC 36b10c 0 _ZNK5QFont9styleHintEv
PUBLIC 36b118 0 _ZNK5QFont7stretchEv
PUBLIC 36b12c 0 _ZNK5QFont13letterSpacingEv
PUBLIC 36b148 0 _ZNK5QFont17letterSpacingTypeEv
PUBLIC 36b158 0 _ZNK5QFont11wordSpacingEv
PUBLIC 36b174 0 _ZNK5QFont14capitalizationEv
PUBLIC 36b184 0 _ZNK5QFonteqERKS_
PUBLIC 36b31c 0 _ZNK5QFontltERKS_
PUBLIC 36b508 0 _ZNK5QFontneERKS_
PUBLIC 36b51c 0 _ZNK5QFontcv8QVariantEv
PUBLIC 36b538 0 _ZNK5QFont8isCopyOfERKS_
PUBLIC 36b550 0 _ZNK5QFont7rawModeEv
PUBLIC 36b560 0 _ZNK5QFont8toStringEv
PUBLIC 36bc64 0 _ZNK5QFont3keyEv
PUBLIC 36bc78 0 _ZN9QFontInfoC2ERK5QFont
PUBLIC 36bcb8 0 _ZN9QFontInfoC2ERKS_
PUBLIC 36bcf8 0 _ZN9QFontInfoD1Ev
PUBLIC 36bd5c 0 _ZN9QFontInfoaSERKS_
PUBLIC 36bdec 0 _ZNK9QFontInfo9underlineEv
PUBLIC 36be00 0 _ZNK9QFontInfo8overlineEv
PUBLIC 36be14 0 _ZNK9QFontInfo9strikeOutEv
PUBLIC 36be28 0 _ZNK9QFontInfo7rawModeEv
PUBLIC 36c238 0 _Zls6QDebugRK5QFont
PUBLIC 36c3a0 0 _ZN5QFont13substitutionsEv
PUBLIC 36c484 0 _Z14qt_defaultDpiXv
PUBLIC 36c5c0 0 _Z14qt_defaultDpiYv
PUBLIC 36c6fc 0 _Z13qt_defaultDpiv
PUBLIC 36c700 0 _ZN12QFontPrivateC1Ev
PUBLIC 36c7e8 0 _ZrsR11QDataStreamR5QFont
PUBLIC 36cc50 0 _ZN5QFontC2ERKS_P12QPaintDevice
PUBLIC 36cddc 0 _ZN5QFontC2ERK7QStringiib
PUBLIC 36d00c 0 _ZNK12QFontPrivate15engineForScriptEi
PUBLIC 36d0e4 0 _ZNK5QFont10exactMatchEv
PUBLIC 36d134 0 _ZNK9QFontInfo6familyEv
PUBLIC 36d178 0 _ZNK9QFontInfo9pointSizeEv
PUBLIC 36d1fc 0 _ZlsR11QDataStreamRK5QFont
PUBLIC 36d4c4 0 _ZNK9QFontInfo10pointSizeFEv
PUBLIC 36d4dc 0 _ZNK9QFontInfo9pixelSizeEv
PUBLIC 36d4f8 0 _ZNK9QFontInfo6italicEv
PUBLIC 36d518 0 _ZNK9QFontInfo5styleEv
PUBLIC 36d534 0 _ZNK9QFontInfo6weightEv
PUBLIC 36d550 0 _ZNK9QFontInfo10fixedPitchEv
PUBLIC 36d56c 0 _ZNK9QFontInfo9styleHintEv
PUBLIC 36d584 0 _ZNK9QFontInfo10exactMatchEv
PUBLIC 36d604 0 _ZN5QFont6detachEv
PUBLIC 36d6a8 0 _ZN5QFont9setFamilyERK7QString
PUBLIC 36d6d8 0 _ZN5QFont12setPointSizeEi
PUBLIC 36d72c 0 _ZN5QFont13setPointSizeFEf
PUBLIC 36d7a0 0 _ZN5QFont12setPixelSizeEi
PUBLIC 36d7f4 0 _ZNK12QFontPrivate20smallCapsFontPrivateEv
PUBLIC 36d8f0 0 _ZN5QFont8setStyleENS_5StyleE
PUBLIC 36d928 0 _ZN5QFont9setWeightEi
PUBLIC 36d960 0 _ZN5QFont12setUnderlineEb
PUBLIC 36d998 0 _ZN5QFont11setOverlineEb
PUBLIC 36d9d0 0 _ZN5QFont12setStrikeOutEb
PUBLIC 36da08 0 _ZN5QFont13setFixedPitchEb
PUBLIC 36da4c 0 _ZN5QFont10setKerningEb
PUBLIC 36da84 0 _ZN5QFont12setStyleHintENS_9StyleHintENS_13StyleStrategyE
PUBLIC 36dad8 0 _ZN5QFont16setStyleStrategyENS_13StyleStrategyE
PUBLIC 36db10 0 _ZN5QFont10setStretchEi
PUBLIC 36db94 0 _ZN5QFont16setLetterSpacingENS_11SpacingTypeEf
PUBLIC 36dc24 0 _ZN5QFont14setWordSpacingEf
PUBLIC 36dc7c 0 _ZN5QFont17setCapitalizationENS_14CapitalizationE
PUBLIC 36dcd4 0 _ZN5QFont10setRawModeEb
PUBLIC 36dd08 0 _ZNK5QFont7resolveERKS_
PUBLIC 36dde0 0 _ZN5QFont10substituteERK7QString
PUBLIC 36dee8 0 _ZN5QFont11substitutesERK7QString
PUBLIC 36e048 0 _ZN5QFont10fromStringERK7QString
PUBLIC 36e74c 0 _ZN5QFont18removeSubstitutionERK7QString
PUBLIC 36e7cc 0 _ZN5QFont19insertSubstitutionsERK7QStringRK11QStringList
PUBLIC 36ea80 0 _ZN5QFont18insertSubstitutionERK7QStringS2_
PUBLIC 3713cc 0 _ZN11QFontEngine17getPointInOutlineEjijPiS0_Pj
PUBLIC 371434 0 _ZNK11QFontEngine13lineThicknessEv
PUBLIC 3714ac 0 _ZNK11QFontEngine17underlinePositionEv
PUBLIC 3714d8 0 _ZN11QFontEngine16getGlyphBearingsEjPfS0_
PUBLIC 3715a4 0 _ZN11QFontEngine20removeGlyphFromCacheEj
PUBLIC 3715a8 0 _ZN11QFontEngine16getUnscaledGlyphEjP12QPainterPathP15glyph_metrics_t
PUBLIC 3718b8 0 _ZN11QFontEngine11boundingBoxEjRK10QTransform
PUBLIC 371a14 0 _ZNK11QFontEngine7xHeightEv
PUBLIC 371ae0 0 _ZNK11QFontEngine16averageCharWidthEv
PUBLIC 371bac 0 _ZNK11QFontEngine9doKerningEP12QGlyphLayout6QFlagsIN11QTextEngine10ShaperFlagEE
PUBLIC 373678 0 _ZNK11QFontEngine12harfbuzzFontEv
PUBLIC 373824 0 _ZNK11QFontEngine12harfbuzzFaceEv
PUBLIC 373858 0 _ZN11QFontEngine16tightBoundingBoxERK12QGlyphLayout
PUBLIC 373f34 0 _ZNK11QFontEngine12getSfntTableEj
PUBLIC 3740f8 0 _ZNK11QFontEngine10glyphCountEv
PUBLIC 374174 0 _ZNK11QFontEngine10glyphCacheEPvN21QFontEngineGlyphCache4TypeERK10QTransform
PUBLIC 374244 0 _ZN11QFontEngine21getTrueTypeGlyphIndexEPKhj
PUBLIC 374500 0 _ZN11QFontEngine7getCMapEPKhjPbPi
PUBLIC 3747ac 0 _ZN11QFontEngine33convertToPostscriptFontFamilyNameERK10QByteArray
PUBLIC 3749d8 0 _ZNK11QFontEngine10propertiesEv
PUBLIC 374cfc 0 _ZN11QFontEngine16lastRightBearingERK12QGlyphLayoutb
PUBLIC 374d98 0 _ZN11QFontEngineC1Ev
PUBLIC 374f58 0 _ZN11QFontEngine17getGlyphPositionsERK12QGlyphLayoutRK10QTransform6QFlagsIN9QTextItem10RenderFlagEER15QVarLengthArrayIjLi256EERSA_I11QFixedPointLi256EE
PUBLIC 3756b0 0 _ZN11QFontEngine16addOutlineToPathEffRK12QGlyphLayoutP12QPainterPath6QFlagsIN9QTextItem10RenderFlagEE
PUBLIC 375ba0 0 _ZN11QFontEngine11grayPaletteEv
PUBLIC 375e04 0 _ZN11QFontEngineD2Ev
PUBLIC 376080 0 _ZN11QFontEngineD0Ev
PUBLIC 376210 0 _ZN11QFontEngine13setGlyphCacheEPvP21QFontEngineGlyphCache
PUBLIC 37636c 0 _ZN11QFontEngine16loadKerningPairsE6QFixed
PUBLIC 3768a4 0 _ZN11QFontEngine19addBitmapFontToPathEffRK12QGlyphLayoutP12QPainterPath6QFlagsIN9QTextItem10RenderFlagEE
PUBLIC 376b90 0 _ZN11QFontEngine15addGlyphsToPathEPjP11QFixedPointiP12QPainterPath6QFlagsIN9QTextItem10RenderFlagEE
PUBLIC 376db8 0 _ZN11QFontEngine16alphaMapForGlyphEjRK10QTransform
PUBLIC 376e68 0 _ZN11QFontEngine19alphaRGBMapForGlyphEjiRK10QTransform
PUBLIC 376fbc 0 _ZN11QFontEngine16alphaMapForGlyphEj
PUBLIC 37fd04 0 _ZN12QFontMetricsC1ERK5QFont
PUBLIC 37fd44 0 _ZN12QFontMetricsC1ERKS_
PUBLIC 37fd84 0 _ZN12QFontMetricsD1Ev
PUBLIC 37fde8 0 _ZN12QFontMetricsaSERKS_
PUBLIC 37fe78 0 _ZNK12QFontMetricseqERKS_
PUBLIC 37fe90 0 _ZN12QFontMetricseqERKS_
PUBLIC 37fea8 0 _ZNK12QFontMetrics6ascentEv
PUBLIC 37fed0 0 _ZNK12QFontMetrics7descentEv
PUBLIC 37fef8 0 _ZNK12QFontMetrics6heightEv
PUBLIC 37ff40 0 _ZNK12QFontMetrics7leadingEv
PUBLIC 37ff68 0 _ZNK12QFontMetrics11lineSpacingEv
PUBLIC 37ffc8 0 _ZNK12QFontMetrics14minLeftBearingEv
PUBLIC 380054 0 _ZNK12QFontMetrics15minRightBearingEv
PUBLIC 3800e0 0 _ZNK12QFontMetrics8maxWidthEv
PUBLIC 38016c 0 _ZNK12QFontMetrics7xHeightEv
PUBLIC 3801d4 0 _ZNK12QFontMetrics16averageCharWidthEv
PUBLIC 3801fc 0 _ZNK12QFontMetrics6inFontE5QChar
PUBLIC 38025c 0 _ZNK12QFontMetrics11leftBearingE5QChar
PUBLIC 380424 0 _ZNK12QFontMetrics12rightBearingE5QChar
PUBLIC 3805ec 0 _ZNK12QFontMetrics5widthERK7QStringii
PUBLIC 380a54 0 _ZNK12QFontMetrics5widthERK7QStringi
PUBLIC 380a5c 0 _ZNK12QFontMetrics5widthE5QChar
PUBLIC 380b94 0 _ZNK12QFontMetrics9charWidthERK7QStringi
PUBLIC 380e78 0 _ZNK12QFontMetrics12boundingRectERK7QString
PUBLIC 380fc4 0 _ZNK12QFontMetrics12boundingRectE5QChar
PUBLIC 381148 0 _ZNK12QFontMetrics12boundingRectERK5QRectiRK7QStringiPi
PUBLIC 38126c 0 _ZNK12QFontMetrics4sizeEiRK7QStringiPi
PUBLIC 3812e4 0 _ZNK12QFontMetrics17tightBoundingRectERK7QString
PUBLIC 381430 0 _ZNK12QFontMetrics10elidedTextERK7QStringN2Qt13TextElideModeEii
PUBLIC 3817b4 0 _ZNK12QFontMetrics12underlinePosEv
PUBLIC 3817dc 0 _ZNK12QFontMetrics11overlinePosEv
PUBLIC 3817ec 0 _ZNK12QFontMetrics12strikeOutPosEv
PUBLIC 381810 0 _ZNK12QFontMetrics9lineWidthEv
PUBLIC 381838 0 _ZN13QFontMetricsFC2ERK12QFontMetrics
PUBLIC 381878 0 _ZN13QFontMetricsFaSERK12QFontMetrics
PUBLIC 381908 0 _ZN13QFontMetricsFC1ERK5QFont
PUBLIC 381948 0 _ZN13QFontMetricsFC2ERKS_
PUBLIC 381988 0 _ZN13QFontMetricsFD2Ev
PUBLIC 3819ec 0 _ZN13QFontMetricsFaSERKS_
PUBLIC 381a7c 0 _ZNK13QFontMetricsFeqERKS_
PUBLIC 381a94 0 _ZN13QFontMetricsFeqERKS_
PUBLIC 381aac 0 _ZNK13QFontMetricsF6ascentEv
PUBLIC 381ad8 0 _ZNK13QFontMetricsF7descentEv
PUBLIC 381b04 0 _ZNK13QFontMetricsF6heightEv
PUBLIC 381b50 0 _ZNK13QFontMetricsF7leadingEv
PUBLIC 381b7c 0 _ZNK13QFontMetricsF11lineSpacingEv
PUBLIC 381bdc 0 _ZNK13QFontMetricsF14minLeftBearingEv
PUBLIC 381bfc 0 _ZNK13QFontMetricsF15minRightBearingEv
PUBLIC 381c1c 0 _ZNK13QFontMetricsF8maxWidthEv
PUBLIC 381c3c 0 _ZNK13QFontMetricsF7xHeightEv
PUBLIC 381cac 0 _ZNK13QFontMetricsF16averageCharWidthEv
PUBLIC 381cd8 0 _ZNK13QFontMetricsF6inFontE5QChar
PUBLIC 381d38 0 _ZNK13QFontMetricsF11leftBearingE5QChar
PUBLIC 381e8c 0 _ZNK13QFontMetricsF12rightBearingE5QChar
PUBLIC 381fe0 0 _ZNK13QFontMetricsF5widthERK7QString
PUBLIC 3820cc 0 _ZNK13QFontMetricsF5widthE5QChar
PUBLIC 382208 0 _ZNK13QFontMetricsF12boundingRectERK7QString
PUBLIC 382364 0 _ZNK13QFontMetricsF12boundingRectE5QChar
PUBLIC 3824fc 0 _ZNK13QFontMetricsF12boundingRectERK6QRectFiRK7QStringiPi
PUBLIC 3825b8 0 _ZNK13QFontMetricsF4sizeEiRK7QStringiPi
PUBLIC 382618 0 _ZNK13QFontMetricsF17tightBoundingRectERK7QString
PUBLIC 382778 0 _ZNK13QFontMetricsF10elidedTextERK7QStringN2Qt13TextElideModeEfi
PUBLIC 382b04 0 _ZNK13QFontMetricsF12underlinePosEv
PUBLIC 382b30 0 _ZNK13QFontMetricsF11overlinePosEv
PUBLIC 382b44 0 _ZNK13QFontMetricsF12strikeOutPosEv
PUBLIC 382b5c 0 _ZNK13QFontMetricsF9lineWidthEv
PUBLIC 382b88 0 _ZN12QFontMetricsC2ERK5QFontP12QPaintDevice
PUBLIC 382d1c 0 _ZN13QFontMetricsFC2ERK5QFontP12QPaintDevice
PUBLIC 384d70 0 _ZN13QFontDatabase29supportsThreadedFontRenderingEv
PUBLIC 384d78 0 _ZN13QFontDatabase11styleStringERK5QFont
PUBLIC 384db0 0 _ZN13QFontDatabase11styleStringERK9QFontInfo
PUBLIC 384de8 0 _ZN13QFontDatabase17writingSystemNameENS_13WritingSystemE
PUBLIC 3850d4 0 _ZN13QFontDatabase19writingSystemSampleENS_13WritingSystemE
PUBLIC 385a80 0 _ZN13QFontDatabase13parseFontNameERK7QStringRS0_S3_
PUBLIC 3863a4 0 _ZN13QFontDatabase13standardSizesEv
PUBLIC 386438 0 _ZN13QFontDatabase25removeAllApplicationFontsEv
PUBLIC 3865b8 0 _ZN13QFontDatabase21removeApplicationFontEi
PUBLIC 386850 0 _ZN13QFontDatabase23applicationFontFamiliesEi
PUBLIC 3880bc 0 _ZN13QFontDatabase26addApplicationFontFromDataERK10QByteArray
PUBLIC 38b1b4 0 _ZN13QFontDatabase8findFontEiPK12QFontPrivateRK8QFontDef
PUBLIC 38bf10 0 _ZN13QFontDatabase4loadEPK12QFontPrivatei
PUBLIC 38c64c 0 _ZNK13QFontDatabase14writingSystemsEv
PUBLIC 38c89c 0 _ZNK13QFontDatabase14writingSystemsERK7QString
PUBLIC 38cadc 0 _ZNK13QFontDatabase8familiesENS_13WritingSystemE
PUBLIC 38ce34 0 _ZNK13QFontDatabase6stylesERK7QString
PUBLIC 38d278 0 _ZNK13QFontDatabase12isFixedPitchERK7QStringS2_
PUBLIC 38d3f0 0 _ZNK13QFontDatabase16isBitmapScalableERK7QStringS2_
PUBLIC 38d6cc 0 _ZNK13QFontDatabase18isSmoothlyScalableERK7QStringS2_
PUBLIC 38d9a0 0 _ZNK13QFontDatabase10isScalableERK7QStringS2_
PUBLIC 38da28 0 _ZN13QFontDatabase10pointSizesERK7QStringS2_
PUBLIC 38df1c 0 _ZNK13QFontDatabase4fontERK7QStringS2_i
PUBLIC 38e2b4 0 _ZN13QFontDatabase11smoothSizesERK7QStringS2_
PUBLIC 38e7a8 0 _ZNK13QFontDatabase6italicERK7QStringS2_
PUBLIC 38eae8 0 _ZNK13QFontDatabase4boldERK7QStringS2_
PUBLIC 38ee28 0 _ZNK13QFontDatabase6weightERK7QStringS2_
PUBLIC 38f160 0 _ZN13QFontDatabase14createDatabaseEv
PUBLIC 38f164 0 _ZN13QFontDatabaseC2Ev
PUBLIC 38f1c0 0 _ZN13QFontDatabase18addApplicationFontERK7QString
PUBLIC 390a14 0 _ZNK12QTextControl10metaObjectEv
PUBLIC 390af4 0 _ZNK12QTextControl7hitTestERK7QPointFN2Qt15HitTestAccuracyE
PUBLIC 390b24 0 _ZNK12QTextControl17blockBoundingRectERK10QTextBlock
PUBLIC 390b5c 0 _ZN12QTextControlD2Ev
PUBLIC 390b90 0 _ZN12QTextControlD0Ev
PUBLIC 390bac 0 _ZN12QTextControl5eventEP6QEvent
PUBLIC 390bb0 0 _ZN12QTextControl12loadResourceEiRK4QUrl
PUBLIC 390d20 0 _ZNK12QTextControl27createMimeDataFromSelectionEv
PUBLIC 390f0c 0 _ZN12QTextControl18insertFromMimeDataEPK9QMimeData
PUBLIC 3912fc 0 _ZNK12QTextControl21canInsertFromMimeDataEPK9QMimeData
PUBLIC 391d6c 0 _ZNK12QTextControl8documentEv
PUBLIC 391d78 0 _ZNK12QTextControl10textCursorEv
PUBLIC 391d94 0 _ZN12QTextControl4copyEv
PUBLIC 391dd8 0 _ZN12QTextControl3cutEv
PUBLIC 391e18 0 _ZN12QTextControl5pasteEN10QClipboard4ModeE
PUBLIC 391e4c 0 _ZN12QTextControl12processEventEP6QEventRK7QPointFP7QWidget
PUBLIC 392388 0 _ZNK12QTextControl17cursorForPositionERK7QPointF
PUBLIC 3923ec 0 _ZNK12QTextControl10cursorRectERK11QTextCursor
PUBLIC 392448 0 _ZNK12QTextControl10cursorRectEv
PUBLIC 392464 0 _ZNK12QTextControl16inputMethodQueryEN2Qt16InputMethodQueryE
PUBLIC 392748 0 _ZNK12QTextControl8anchorAtERK7QPointF
PUBLIC 392778 0 _ZNK12QTextControl14anchorAtCursorEv
PUBLIC 392794 0 _ZNK12QTextControl13overwriteModeEv
PUBLIC 3927a0 0 _ZN12QTextControl16setOverwriteModeEb
PUBLIC 3927ac 0 _ZNK12QTextControl11cursorWidthEv
PUBLIC 392808 0 _ZNK12QTextControl14acceptRichTextEv
PUBLIC 392814 0 _ZN12QTextControl17setAcceptRichTextEb
PUBLIC 392820 0 _ZN12QTextControl12setTextWidthEf
PUBLIC 39282c 0 _ZNK12QTextControl9textWidthEv
PUBLIC 392838 0 _ZNK12QTextControl4sizeEv
PUBLIC 392854 0 _ZN12QTextControl20setOpenExternalLinksEb
PUBLIC 392860 0 _ZNK12QTextControl17openExternalLinksEv
PUBLIC 39286c 0 _ZNK12QTextControl28ignoreUnusedNavigationEventsEv
PUBLIC 392878 0 _ZN12QTextControl31setIgnoreUnusedNavigationEventsEb
PUBLIC 392884 0 _ZNK12QTextControl8canPasteEv
PUBLIC 3928cc 0 _ZNK12QTextControl22cursorIsFocusIndicatorEv
PUBLIC 3928d8 0 _ZN12QTextControl14setDragEnabledEb
PUBLIC 3928e4 0 _ZNK12QTextControl13isDragEnabledEv
PUBLIC 3928f0 0 _ZN12QTextControl23setWordSelectionEnabledEb
PUBLIC 3928fc 0 _ZNK12QTextControl22isWordSelectionEnabledEv
PUBLIC 392908 0 _ZNK12QTextControl5printEP8QPrinter
PUBLIC 392be4 0 _ZN12QTextControl18findNextPrevAnchorERK11QTextCursorbRS0_
PUBLIC 39360c 0 _ZNK12QTextControl20textInteractionFlagsEv
PUBLIC 39361c 0 _ZNK12QTextControl17currentCharFormatEv
PUBLIC 393638 0 _ZN12QTextControl15insertPlainTextERK7QString
PUBLIC 393644 0 _ZN12QTextControl10insertHtmlERK7QString
PUBLIC 393650 0 _ZN12QTextControl10adjustSizeEv
PUBLIC 3937d4 0 _ZN12QTextControl6appendERK7QString
PUBLIC 3937e0 0 _ZN12QTextControl10appendHtmlERK7QString
PUBLIC 3937ec 0 _ZN12QTextControl15appendPlainTextERK7QString
PUBLIC 3937f8 0 _ZNK12QTextControl7paletteEv
PUBLIC 393814 0 _ZN12QTextControl10setPaletteERK8QPalette
PUBLIC 393a44 0 _ZN12QTextControl11textChangedEv
PUBLIC 393a68 0 _ZN12QTextControl13undoAvailableEb
PUBLIC 393ab0 0 _ZN12QTextControl13redoAvailableEb
PUBLIC 393af8 0 _ZN12QTextControl24currentCharFormatChangedERK15QTextCharFormat
PUBLIC 393b38 0 _ZN12QTextControl13copyAvailableEb
PUBLIC 393b80 0 _ZN12QTextControl16selectionChangedEv
PUBLIC 393ba4 0 _ZN12QTextControl21cursorPositionChangedEv
PUBLIC 393bc8 0 _ZN12QTextControl13updateRequestERK6QRectF
PUBLIC 393c98 0 _ZN12QTextControl23setTextInteractionFlagsE6QFlagsIN2Qt19TextInteractionFlagEE
PUBLIC 393ccc 0 _ZN12QTextControl10timerEventEP11QTimerEvent
PUBLIC 393d70 0 _ZN12QTextControl14setCursorWidthEi
PUBLIC 393e00 0 _ZN12QTextControl25setCursorIsFocusIndicatorEb
PUBLIC 393ff8 0 _ZN12QTextControl19documentSizeChangedERK6QSizeF
PUBLIC 394038 0 _ZN12QTextControl17blockCountChangedEi
PUBLIC 39407c 0 _ZN12QTextControl17visibilityRequestERK6QRectF
PUBLIC 3940bc 0 _ZN12QTextControl17microFocusChangedEv
PUBLIC 394150 0 _ZN12QTextControl22mergeCurrentCharFormatERK15QTextCharFormat
PUBLIC 39416c 0 _ZN12QTextControl20setCurrentCharFormatERK15QTextCharFormat
PUBLIC 39472c 0 _ZN12QTextControl11setDocumentEP13QTextDocument
PUBLIC 394854 0 _ZN12QTextControl12setPlainTextERK7QString
PUBLIC 394868 0 _ZN12QTextControl7setHtmlERK7QString
PUBLIC 3948b0 0 _ZN12QTextControl9selectAllEv
PUBLIC 394988 0 _ZN12QTextControl19ensureCursorVisibleEv
PUBLIC 394a24 0 _ZN12QTextControl13linkActivatedERK7QString
PUBLIC 394a64 0 _ZN12QTextControl11linkHoveredERK7QString
PUBLIC 394aa4 0 _ZN12QTextControl19modificationChangedEb
PUBLIC 394aec 0 _ZNK12QTextControl14anchorPositionERK7QString
PUBLIC 394fec 0 _ZN12QTextControlC2EP7QObject
PUBLIC 3950f4 0 _ZN12QTextControlC2ERK7QStringP7QObject
PUBLIC 395178 0 _ZN12QTextControlC1EP13QTextDocumentP7QObject
PUBLIC 395288 0 _ZNK12QTextControl13selectionRectERK11QTextCursor
PUBLIC 395838 0 _ZNK12QTextControl13selectionRectEv
PUBLIC 395930 0 _ZN12QTextControl30setFocusToNextOrPreviousAnchorEb
PUBLIC 395a80 0 _ZN12QTextControl16setFocusToAnchorERK11QTextCursor
PUBLIC 396234 0 _ZN12QTextControl13setTextCursorERK11QTextCursor
PUBLIC 3966dc 0 _ZN12QTextControl4findERK7QString6QFlagsIN13QTextDocument8FindFlagEE
PUBLIC 396760 0 _ZN12QTextControl10moveCursorEN11QTextCursor13MoveOperationENS0_8MoveModeE
PUBLIC 396d10 0 _ZN12QTextControl4undoEv
PUBLIC 396da0 0 _ZN12QTextControl4redoEv
PUBLIC 397c04 0 _ZN12QTextControl25createStandardContextMenuERK7QPointFP7QWidget
PUBLIC 399618 0 _ZNK12QTextControl15extraSelectionsEv
PUBLIC 39977c 0 _ZN12QTextControl5clearEv
PUBLIC 3998a4 0 _ZNK12QTextControl15getPaintContextEP7QWidget
PUBLIC 399d58 0 _ZN12QTextControl12drawContentsEP8QPainterRK6QRectFP7QWidget
PUBLIC 399e70 0 _ZN12QTextControl18setExtraSelectionsERK5QListIN9QTextEdit14ExtraSelectionEE
PUBLIC 39b73c 0 _ZN12QTextControl12processEventEP6QEventRK7QMatrixP7QWidget
PUBLIC 39c390 0 _ZN12QTextControl8setFocusEbN2Qt11FocusReasonE
PUBLIC 39c9a4 0 _ZN12QTextControl11qt_metacastEPKc
PUBLIC 39c9e8 0 _ZN12QTextControl11qt_metacallEN11QMetaObject4CallEiPPv
PUBLIC 39d15c 0 _ZN27QAbstractTextDocumentLayout12PaintContextD2Ev
PUBLIC 39d1c4 0 _ZN27QAbstractTextDocumentLayout9SelectionD1Ev
PUBLIC 39e3c4 0 _ZN11QTextEngine11bidiReorderEiPKhPi
PUBLIC 39e520 0 _ZNK11QTextEngine13isRightToLeftEv
PUBLIC 39e578 0 _ZN11QTextEngine15FontEngineCacheC1Ev
PUBLIC 39e8e4 0 _ZN11QTextEngine10LayoutData10reallocateEi
PUBLIC 39ea14 0 _ZNK11QTextEngine15atWordSeparatorEi
PUBLIC 39ebcc 0 _ZNK11QTextEngine7atSpaceEi
PUBLIC 39ec14 0 _ZN11QTextEngine16getClusterLengthEPtPK17HB_CharAttributesiiiPi
PUBLIC 39f334 0 _ZN11QTextEngineC2Ev
PUBLIC 39f428 0 _ZN11QTextEngineC2ERK7QStringRK5QFont
PUBLIC 39f520 0 _ZN11QTextEngine10LayoutDataC2Ev
PUBLIC 39f5cc 0 _ZNK11QTextEngine8validateEv
PUBLIC 39f75c 0 _ZN11QTextEngine10LayoutDataC1ERK7QStringPPvi
PUBLIC 39f904 0 _ZN11QTextEngine10LayoutDataD2Ev
PUBLIC 39f9bc 0 _ZN11QTextEngineD2Ev
PUBLIC 39fbfc 0 _ZNK11QTextEngine9splitItemEii
PUBLIC 39fe58 0 _ZNK11QTextEngine11setBoundaryEi
PUBLIC 39fee8 0 _ZNK11QTextEngine21addRequiredBoundariesEv
PUBLIC 39ff64 0 _ZNK11QTextEngine11formatIndexEPK11QScriptItem
PUBLIC 3a0088 0 _ZNK11QTextEngine6formatEPK11QScriptItem
PUBLIC 3a0244 0 _ZNK11QTextEngine4fontERK11QScriptItem
PUBLIC 3a0438 0 _ZNK11QTextEngine10fontEngineERK11QScriptItemP6QFixedS4_S4_
PUBLIC 3a082c 0 _ZNK11QTextEngine21shapeTextWithHarfbuzzEi
PUBLIC 3a1468 0 _ZNK11QTextEngine9shapeTextEi
PUBLIC 3a17f0 0 _ZNK11QTextEngine5shapeEi
PUBLIC 3a1a9c 0 _ZNK11QTextEngine24resolveAdditionalFormatsEv
PUBLIC 3a1ce4 0 _ZNK11QTextEngine7itemizeEv
PUBLIC 3a4924 0 _ZNK11QTextEngine10attributesEv
PUBLIC 3a4bc0 0 _ZN11QTextEngine18positionInLigatureEPK11QScriptItemi6QFixedS3_ib
PUBLIC 3a4e58 0 _ZNK11QTextEngine8findItemEi
PUBLIC 3a4ed4 0 _ZNK11QTextEngine16tightBoundingBoxEii
PUBLIC 3a52dc 0 _ZN11QTextEngine7justifyERK11QScriptLine
PUBLIC 3a5ee4 0 _ZNK11QTextEngine17calculateTabWidthEi6QFixed
PUBLIC 3a6744 0 _ZN11QTextEngine9shapeLineERK11QScriptLine
PUBLIC 3a6910 0 _ZNK11QTextEngine5widthEii
PUBLIC 3a6bd0 0 _ZNK11QTextEngine10elidedTextEN2Qt13TextElideModeERK6QFixedi
PUBLIC 3a7784 0 _ZN11QTextEngine17leadingSpaceWidthERK11QScriptLine
PUBLIC 3a7830 0 _ZNK11QTextEngine11boundingBoxEii
PUBLIC 3a7ccc 0 _ZN11QTextEngine13clearLineDataEv
PUBLIC 3a7d78 0 _ZN11QTextEngine10freeMemoryEv
PUBLIC 3a7e64 0 _ZN11QTextEngine10invalidateEv
PUBLIC 3a7ffc 0 _ZN11QTextEngine22indexAdditionalFormatsEv
PUBLIC 3a89f8 0 _ZN11QTextLayoutC1Ev
PUBLIC 3a8a28 0 _ZN11QTextLayoutC2ERK7QString
PUBLIC 3a8a68 0 _ZN11QTextLayoutC2ERK7QStringRK5QFontP12QPaintDevice
PUBLIC 3a8bdc 0 _ZN11QTextLayoutC1ERK10QTextBlock
PUBLIC 3a8c1c 0 _ZN11QTextLayoutD2Ev
PUBLIC 3a8c4c 0 _ZN11QTextLayout7setFontERK5QFont
PUBLIC 3a8c84 0 _ZNK11QTextLayout4fontEv
PUBLIC 3a8ca0 0 _ZN11QTextLayout7setTextERK7QString
PUBLIC 3a8cd0 0 _ZNK11QTextLayout4textEv
PUBLIC 3a8d0c 0 _ZN11QTextLayout13setTextOptionERK11QTextOption
PUBLIC 3a8d18 0 _ZNK11QTextLayout10textOptionEv
PUBLIC 3a8d34 0 _ZNK11QTextLayout19preeditAreaPositionEv
PUBLIC 3a8d4c 0 _ZNK11QTextLayout15preeditAreaTextEv
PUBLIC 3a8dd4 0 _ZN11QTextLayout15setCacheEnabledEb
PUBLIC 3a8df0 0 _ZNK11QTextLayout12cacheEnabledEv
PUBLIC 3a8e04 0 _ZN11QTextLayout11beginLayoutEv
PUBLIC 3a8e40 0 _ZN11QTextLayout11clearLayoutEv
PUBLIC 3a8e48 0 _ZNK11QTextLayout18nextCursorPositionEiNS_10CursorModeE
PUBLIC 3a8f90 0 _ZNK11QTextLayout22previousCursorPositionEiNS_10CursorModeE
PUBLIC 3a90a8 0 _ZNK11QTextLayout21isValidCursorPositionEi
PUBLIC 3a9108 0 _ZNK11QTextLayout9lineCountEv
PUBLIC 3a9118 0 _ZNK11QTextLayout6lineAtEi
PUBLIC 3a9128 0 _ZNK11QTextLayout8positionEv
PUBLIC 3a9144 0 _ZN11QTextLayout11setPositionERK7QPointF
PUBLIC 3a9158 0 _ZNK11QTextLayout12minimumWidthEv
PUBLIC 3a9174 0 _ZNK11QTextLayout12maximumWidthEv
PUBLIC 3a9190 0 _ZN11QTextLayout8setFlagsEi
PUBLIC 3a91e8 0 _ZN11QTextLayout14setPreeditAreaEiRK7QString
PUBLIC 3a9538 0 _ZN9QTextLine18setLeadingIncludedEb
PUBLIC 3a958c 0 _ZNK9QTextLine15leadingIncludedEv
PUBLIC 3a95d0 0 _ZNK9QTextLine9textStartEv
PUBLIC 3a9610 0 _ZNK9QTextLine1xEv
PUBLIC 3a965c 0 _ZNK9QTextLine1yEv
PUBLIC 3a96a8 0 _ZNK9QTextLine5widthEv
PUBLIC 3a96f4 0 _ZNK9QTextLine6ascentEv
PUBLIC 3a9740 0 _ZNK9QTextLine7descentEv
PUBLIC 3a978c 0 _ZNK9QTextLine7leadingEv
PUBLIC 3a97d8 0 _ZNK9QTextLine16naturalTextWidthEv
PUBLIC 3a9824 0 _ZNK9QTextLine17horizontalAdvanceEv
PUBLIC 3a9870 0 _ZNK11QTextLayout19lineForTextPositionEi
PUBLIC 3a996c 0 _ZNK9QTextLine6heightEv
PUBLIC 3a99ec 0 _ZN9QTextLine11setPositionERK7QPointF
PUBLIC 3a9aa8 0 _ZNK9QTextLine8positionEv
PUBLIC 3a9b64 0 _ZNK9QTextLine4rectEv
PUBLIC 3a9c38 0 _ZNK9QTextLine15naturalTextRectEv
PUBLIC 3a9d30 0 _ZNK11QTextLayout12boundingRectEv
PUBLIC 3a9f28 0 _ZNK9QTextLine10textLengthEv
PUBLIC 3a9fe4 0 _ZNK11QTextLayout17additionalFormatsEv
PUBLIC 3aa1b4 0 _ZN11QTextLayout20setAdditionalFormatsERK5QListINS_11FormatRangeEE
PUBLIC 3aa620 0 _ZN11QTextLayout22clearAdditionalFormatsEv
PUBLIC 3aa694 0 _ZNK17QTextInlineObject12textPositionEv
PUBLIC 3aa6d4 0 _ZNK17QTextInlineObject13textDirectionEv
PUBLIC 3aa718 0 _ZN17QTextInlineObject9setAscentEf
PUBLIC 3aa774 0 _ZN17QTextInlineObject10setDescentEf
PUBLIC 3aa7d0 0 _ZNK17QTextInlineObject5widthEv
PUBLIC 3aa81c 0 _ZNK17QTextInlineObject6ascentEv
PUBLIC 3aa868 0 _ZNK17QTextInlineObject7descentEv
PUBLIC 3aa8b4 0 _ZN17QTextInlineObject8setWidthEf
PUBLIC 3aa910 0 _ZNK17QTextInlineObject6heightEv
PUBLIC 3aa96c 0 _ZNK17QTextInlineObject11formatIndexEv
PUBLIC 3aac10 0 _ZNK17QTextInlineObject4rectEv
PUBLIC 3aacb4 0 _ZNK17QTextInlineObject6formatEv
PUBLIC 3ab474 0 _ZNK9QTextLine4drawEP8QPainterRK7QPointFPKN11QTextLayout11FormatRangeE
PUBLIC 3ac950 0 _ZNK11QTextLayout4drawEP8QPainterRK7QPointFRK7QVectorINS_11FormatRangeEERK6QRectF
PUBLIC 3ad9f8 0 _ZNK9QTextLine9cursorToXEPiNS_4EdgeE
PUBLIC 3ae488 0 _ZNK11QTextLayout10drawCursorEP8QPainterRK7QPointFii
PUBLIC 3ae890 0 _ZNK11QTextLayout10drawCursorEP8QPainterRK7QPointFi
PUBLIC 3ae8ac 0 _ZNK9QTextLine9xToCursorEfNS_14CursorPositionE
PUBLIC 3af3e4 0 _ZN9QTextLine13layout_helperEi
PUBLIC 3b0cd8 0 _ZN9QTextLine12setLineWidthEf
PUBLIC 3b0dd4 0 _ZN9QTextLine13setNumColumnsEi
PUBLIC 3b0e48 0 _ZN11QTextLayout9endLayoutEv
PUBLIC 3b0ec8 0 _ZN11QTextLayout10createLineEv
PUBLIC 3b1050 0 _ZN9QTextLine13setNumColumnsEif
PUBLIC 3b141c 0 _ZNK11QTextLengthcv8QVariantEv
PUBLIC 3b1438 0 _ZlsR11QDataStreamRK11QTextLength
PUBLIC 3b1468 0 _ZrsR11QDataStreamR11QTextLength
PUBLIC 3b1b34 0 _ZN11QTextFormatC2Ev
PUBLIC 3b1b44 0 _ZN11QTextFormatC2Ei
PUBLIC 3b1b54 0 _ZN11QTextFormatC2ERKS_
PUBLIC 3b1ba0 0 _ZNK11QTextFormatcv8QVariantEv
PUBLIC 3b1bbc 0 _ZNK11QTextFormat4typeEv
PUBLIC 3b1bc4 0 _ZNK11QTextFormat12boolPropertyEi
PUBLIC 3b1cb4 0 _ZNK11QTextFormat11intPropertyEi
PUBLIC 3b1da8 0 _ZNK11QTextFormat14doublePropertyEi
PUBLIC 3b1f00 0 _ZNK11QTextFormat14stringPropertyEi
PUBLIC 3b2050 0 _ZNK11QTextFormat13colorPropertyEi
PUBLIC 3b21d0 0 _ZNK11QTextFormat11penPropertyEi
PUBLIC 3b2364 0 _ZNK11QTextFormat13brushPropertyEi
PUBLIC 3b24f8 0 _ZNK11QTextFormat14lengthPropertyEi
PUBLIC 3b264c 0 _ZNK11QTextFormat8propertyEi
PUBLIC 3b26ec 0 _ZNK11QTextFormat11objectIndexEv
PUBLIC 3b27d4 0 _ZNK11QTextFormat11hasPropertyEi
PUBLIC 3b283c 0 _ZNK11QTextFormat13propertyCountEv
PUBLIC 3b2850 0 _ZN15QTextCharFormatC2Ev
PUBLIC 3b2868 0 _ZN15QTextCharFormatC1ERK11QTextFormat
PUBLIC 3b287c 0 _ZNK11QTextFormat12toCharFormatEv
PUBLIC 3b2890 0 _ZNK15QTextCharFormat13fontUnderlineEv
PUBLIC 3b28d8 0 _ZNK15QTextCharFormat4fontEv
PUBLIC 3b291c 0 _ZN16QTextBlockFormatC1Ev
PUBLIC 3b2934 0 _ZN16QTextBlockFormatC2ERK11QTextFormat
PUBLIC 3b2948 0 _ZNK11QTextFormat13toBlockFormatEv
PUBLIC 3b295c 0 _ZN15QTextListFormatC1ERK11QTextFormat
PUBLIC 3b2970 0 _ZNK11QTextFormat12toListFormatEv
PUBLIC 3b2984 0 _ZN16QTextFrameFormatC1ERK11QTextFormat
PUBLIC 3b2998 0 _ZNK11QTextFormat13toFrameFormatEv
PUBLIC 3b29ac 0 _ZNK16QTextFrameFormat9topMarginEv
PUBLIC 3b29e8 0 _ZNK16QTextFrameFormat12bottomMarginEv
PUBLIC 3b2a24 0 _ZNK16QTextFrameFormat10leftMarginEv
PUBLIC 3b2a60 0 _ZNK16QTextFrameFormat11rightMarginEv
PUBLIC 3b2a9c 0 _ZN16QTextTableFormatC1ERK11QTextFormat
PUBLIC 3b2ab0 0 _ZNK11QTextFormat13toTableFormatEv
PUBLIC 3b2ac4 0 _ZN16QTextImageFormatC1ERK11QTextFormat
PUBLIC 3b2ad8 0 _ZNK11QTextFormat13toImageFormatEv
PUBLIC 3b2aec 0 _ZN20QTextTableCellFormatC2ERK11QTextFormat
PUBLIC 3b2b00 0 _ZNK11QTextFormat17toTableCellFormatEv
PUBLIC 3b2b14 0 _ZNK21QTextFormatCollection17objectFormatIndexEi
PUBLIC 3b2b2c 0 _ZNK21QTextFormatCollection6formatEi
PUBLIC 3b2b70 0 _ZNK21QTextFormatCollection12objectFormatEi
PUBLIC 3b2ba4 0 _ZNK15QTextCharFormat10anchorNameEv
PUBLIC 3b2cec 0 _ZNK15QTextCharFormat11anchorNamesEv
PUBLIC 3b2e2c 0 _ZN11QTextFormatD2Ev
PUBLIC 3b2f20 0 _ZN21QTextFormatCollectionD1Ev
PUBLIC 3b3028 0 _ZN11QTextFormataSERKS_
PUBLIC 3b3110 0 _ZNK11QTextFormat20lengthVectorPropertyEi
PUBLIC 3b339c 0 _ZN21QTextFormatCollectionC1ERKS_
PUBLIC 3b34a4 0 _ZN21QTextFormatCollectionaSERKS_
PUBLIC 3b34c8 0 _ZN21QTextFormatCollection20setObjectFormatIndexEii
PUBLIC 3b3508 0 _ZNK11QTextFormat10propertiesEv
PUBLIC 3b362c 0 _ZlsR11QDataStreamRK11QTextFormat
PUBLIC 3b36f4 0 _ZrsR11QDataStreamR11QTextFormat
PUBLIC 3b3a14 0 _ZN21QTextFormatCollection14setDefaultFontERK5QFont
PUBLIC 3b3afc 0 _ZN11QTextFormat13clearPropertyEi
PUBLIC 3b3c04 0 _ZN11QTextFormat11setPropertyEiRK8QVariant
PUBLIC 3b3e88 0 _ZN15QTextCharFormat17setUnderlineStyleENS_14UnderlineStyleE
PUBLIC 3b3f0c 0 _ZN15QTextCharFormat7setFontERK5QFont
PUBLIC 3b4378 0 _ZN16QTextBlockFormat15setTabPositionsERK5QListIN11QTextOption3TabEE
PUBLIC 3b45d8 0 _ZN15QTextListFormatC1Ev
PUBLIC 3b4638 0 _ZN16QTextFrameFormatC2Ev
PUBLIC 3b46fc 0 _ZN16QTextFrameFormat9setMarginEf
PUBLIC 3b4894 0 _ZN16QTextTableFormatC2Ev
PUBLIC 3b4994 0 _ZN16QTextImageFormatC2Ev
PUBLIC 3b49ec 0 _ZN20QTextTableCellFormatC1Ev
PUBLIC 3b4a44 0 _ZN11QTextFormat5mergeERKS_
PUBLIC 3b4cc8 0 _ZN11QTextFormat14setObjectIndexEi
PUBLIC 3b503c 0 _ZN11QTextFormat11setPropertyEiRK7QVectorI11QTextLengthE
PUBLIC 3b59d8 0 _ZNK11QTextFormateqERKS_
PUBLIC 3b5b34 0 _ZNK21QTextFormatCollection15hasFormatCachedERK11QTextFormat
PUBLIC 3b5c18 0 _ZNK16QTextBlockFormat12tabPositionsEv
PUBLIC 3b6040 0 _ZN21QTextFormatCollection14indexForFormatERK11QTextFormat
PUBLIC 3b6420 0 _ZN21QTextFormatCollection15setObjectFormatEiRK11QTextFormat
PUBLIC 3b6468 0 _ZN21QTextFormatCollection17createObjectIndexERK11QTextFormat
PUBLIC 3b77a8 0 _ZN15QTextBlockGroup18blockFormatChangedERK10QTextBlock
PUBLIC 3b77ac 0 _ZN20QTextFrameLayoutDataD1Ev
PUBLIC 3b7814 0 _ZN18QTextBlockUserDataD2Ev
PUBLIC 3b7838 0 _ZN20QTextFrameLayoutDataD0Ev
PUBLIC 3b7854 0 _ZN18QTextBlockUserDataD0Ev
PUBLIC 3b7870 0 _ZN11QTextObjectD1Ev
PUBLIC 3b78a4 0 _ZN11QTextObjectD0Ev
PUBLIC 3b78c0 0 _ZN15QTextBlockGroupD1Ev
PUBLIC 3b78f4 0 _ZN15QTextBlockGroupD0Ev
PUBLIC 3b7910 0 _ZN10QTextFrameD2Ev
PUBLIC 3b7970 0 _ZN10QTextFrameD0Ev
PUBLIC 3b79dc 0 _ZN11QTextObjectC2EP13QTextDocument
PUBLIC 3b7a68 0 _ZN11QTextObjectC2ER18QTextObjectPrivateP13QTextDocument
PUBLIC 3b7aa0 0 _ZNK11QTextObject6formatEv
PUBLIC 3b7ac4 0 _ZNK11QTextObject11formatIndexEv
PUBLIC 3b7ad8 0 _ZN11QTextObject9setFormatERK11QTextFormat
PUBLIC 3b7b04 0 _ZNK11QTextObject11objectIndexEv
PUBLIC 3b7b10 0 _ZNK11QTextObject8documentEv
PUBLIC 3b7b1c 0 _ZNK11QTextObject9docHandleEv
PUBLIC 3b7b28 0 _ZN15QTextBlockGroupC2EP13QTextDocument
PUBLIC 3b7c04 0 _ZN15QTextBlockGroupC1ER22QTextBlockGroupPrivateP13QTextDocument
PUBLIC 3b7c3c 0 _ZN10QTextFrameC1EP13QTextDocument
PUBLIC 3b7d2c 0 _ZN10QTextFrameC2ER17QTextFramePrivateP13QTextDocument
PUBLIC 3b7d64 0 _ZNK10QTextFrame11parentFrameEv
PUBLIC 3b7d70 0 _ZNK10QTextFrame13firstPositionEv
PUBLIC 3b7dd0 0 _ZNK10QTextFrame19firstCursorPositionEv
PUBLIC 3b7e00 0 _ZNK10QTextFrame12lastPositionEv
PUBLIC 3b7ec4 0 _ZNK10QTextFrame18lastCursorPositionEv
PUBLIC 3b7ef4 0 _ZNK10QTextFrame10layoutDataEv
PUBLIC 3b7f00 0 _ZN10QTextFrame13setLayoutDataEP20QTextFrameLayoutData
PUBLIC 3b7f2c 0 _ZN10QTextFrame8iteratorC1Ev
PUBLIC 3b7f48 0 _ZN10QTextFrame8iteratorC1EPS_iii
PUBLIC 3b7f6c 0 _ZNK10QTextFrame5beginEv
PUBLIC 3b8060 0 _ZNK10QTextFrame3endEv
PUBLIC 3b8150 0 _ZN10QTextFrame8iteratorC1ERKS0_
PUBLIC 3b8184 0 _ZN10QTextFrame8iteratoraSERKS0_
PUBLIC 3b81b8 0 _ZNK10QTextFrame8iterator12currentFrameEv
PUBLIC 3b81c0 0 _ZNK10QTextFrame8iterator12currentBlockEv
PUBLIC 3b81f8 0 _ZNK10QTextBlock8positionEv
PUBLIC 3b8270 0 _ZNK10QTextBlock6lengthEv
PUBLIC 3b8318 0 _ZNK10QTextBlock8containsEi
PUBLIC 3b83b0 0 _ZNK10QTextBlock6layoutEv
PUBLIC 3b841c 0 _ZN10QTextBlock11clearLayoutEv
PUBLIC 3b8450 0 _ZNK10QTextBlock11blockFormatEv
PUBLIC 3b84e0 0 _ZNK10QTextBlock16blockFormatIndexEv
PUBLIC 3b8514 0 _ZNK10QTextBlock15charFormatIndexEv
PUBLIC 3b853c 0 _ZNK10QTextBlock10charFormatEv
PUBLIC 3b85c8 0 _ZNK10QTextBlock8documentEv
PUBLIC 3b85d8 0 _ZNK10QTextBlock8textListEv
PUBLIC 3b866c 0 _ZNK10QTextBlock8userDataEv
PUBLIC 3b869c 0 _ZN10QTextBlock11setUserDataEP18QTextBlockUserData
PUBLIC 3b86f0 0 _ZNK10QTextBlock9userStateEv
PUBLIC 3b8724 0 _ZN10QTextBlock12setUserStateEi
PUBLIC 3b874c 0 _ZNK10QTextBlock8revisionEv
PUBLIC 3b8788 0 _ZN10QTextBlock11setRevisionEi
PUBLIC 3b87c4 0 _ZNK10QTextBlock9isVisibleEv
PUBLIC 3b8800 0 _ZN10QTextBlock10setVisibleEb
PUBLIC 3b8840 0 _ZNK10QTextBlock11blockNumberEv
PUBLIC 3b88b0 0 _ZNK10QTextBlock15firstLineNumberEv
PUBLIC 3b8920 0 _ZN10QTextBlock12setLineCountEi
PUBLIC 3b8994 0 _ZNK10QTextBlock9lineCountEv
PUBLIC 3b89c8 0 _ZNK10QTextBlock5beginEv
PUBLIC 3b8ad0 0 _ZNK10QTextBlock3endEv
PUBLIC 3b8bd8 0 _ZNK13QTextFragment8positionEv
PUBLIC 3b8c48 0 _ZNK13QTextFragment10charFormatEv
PUBLIC 3b8cc4 0 _ZNK13QTextFragment15charFormatIndexEv
PUBLIC 3b8cf4 0 _ZNK10QTextBlock4nextEv
PUBLIC 3b8d50 0 _ZN10QTextFrame8iteratorppEv
PUBLIC 3b9014 0 _ZN10QTextFrame8iteratormmEv
PUBLIC 3b932c 0 _ZNK10QTextBlock8previousEv
PUBLIC 3b9364 0 _ZNK10QTextBlock8iterator8fragmentEv
PUBLIC 3b93c4 0 _ZN10QTextBlock8iteratorppEv
PUBLIC 3b9414 0 _ZNK13QTextFragment6lengthEv
PUBLIC 3b9474 0 _ZNK13QTextFragment8containsEi
PUBLIC 3b94cc 0 _ZNK13QTextFragment4textEv
PUBLIC 3b96f8 0 _ZNK10QTextBlock13textDirectionEv
PUBLIC 3b9930 0 _ZNK10QTextBlock4textEv
PUBLIC 3b9c68 0 _ZN10QTextBlock8iteratormmEv
PUBLIC 3b9c8c 0 _ZN15QTextBlockGroup12blockRemovedERK10QTextBlock
PUBLIC 3b9d94 0 _ZNK15QTextBlockGroup9blockListEv
PUBLIC 3b9dec 0 _ZN15QTextBlockGroup13blockInsertedERK10QTextBlock
PUBLIC 3ba118 0 _ZNK10QTextFrame11childFramesEv
PUBLIC 3baa54 0 _ZN11QTextOptionC1Ev
PUBLIC 3baaa0 0 _ZN11QTextOptionC1E6QFlagsIN2Qt13AlignmentFlagEE
PUBLIC 3bab08 0 _ZN11QTextOptionD1Ev
PUBLIC 3bab34 0 _ZN11QTextOptionC1ERKS_
PUBLIC 3bac3c 0 _ZN11QTextOptionaSERKS_
PUBLIC 3bad60 0 _ZNK11QTextOption4tabsEv
PUBLIC 3bae08 0 _ZN11QTextOption7setTabsE5QListINS_3TabEE
PUBLIC 3baf04 0 _ZN11QTextOption11setTabArrayE5QListIfE
PUBLIC 3bb138 0 _ZNK11QTextOption8tabArrayEv
PUBLIC 3bb2c4 0 _ZN13QTextDocumentD2Ev
PUBLIC 3bb2f8 0 _ZN13QTextDocumentD0Ev
PUBLIC 3bb314 0 _ZN13QTextDocument12createObjectERK11QTextFormat
PUBLIC 3bb82c 0 _ZN2Qt15mightBeRichTextERK7QString
PUBLIC 3bbcc4 0 _ZN2Qt6escapeERK7QString
PUBLIC 3bbee8 0 _ZN2Qt20convertFromPlainTextERK7QStringNS_14WhiteSpaceModeE
PUBLIC 3bc25c 0 _ZN2Qt12codecForHtmlERK10QByteArray
PUBLIC 3bc260 0 _ZN13QTextDocumentC1EP7QObject
PUBLIC 3bc2d4 0 _ZN13QTextDocumentC1ERK7QStringP7QObject
PUBLIC 3bc384 0 _ZN13QTextDocumentC2ER20QTextDocumentPrivateP7QObject
PUBLIC 3bc3d0 0 _ZN13QTextDocument4undoEP11QTextCursor
PUBLIC 3bc458 0 _ZN13QTextDocument4redoEP11QTextCursor
PUBLIC 3bc4e0 0 _ZN13QTextDocument19clearUndoRedoStacksENS_6StacksE
PUBLIC 3bc4ec 0 _ZN13QTextDocument4undoEv
PUBLIC 3bc4f8 0 _ZN13QTextDocument4redoEv
PUBLIC 3bc504 0 _ZN13QTextDocument14appendUndoItemEP17QAbstractUndoItem
PUBLIC 3bc50c 0 _ZN13QTextDocument18setUndoRedoEnabledEb
PUBLIC 3bc514 0 _ZNK13QTextDocument17isUndoRedoEnabledEv
PUBLIC 3bc520 0 _ZNK13QTextDocument17maximumBlockCountEv
PUBLIC 3bc52c 0 _ZN13QTextDocument20setMaximumBlockCountEi
PUBLIC 3bc550 0 _ZNK13QTextDocument17defaultTextOptionEv
PUBLIC 3bc56c 0 _ZN13QTextDocument17markContentsDirtyEii
PUBLIC 3bc5b4 0 _ZNK13QTextDocument16useDesignMetricsEv
PUBLIC 3bc5c8 0 _ZNK13QTextDocument9textWidthEv
PUBLIC 3bc5d4 0 _ZNK13QTextDocument14documentMarginEv
PUBLIC 3bc5e0 0 _ZNK13QTextDocument11indentWidthEv
PUBLIC 3bc5ec 0 _ZNK13QTextDocument10blockCountEv
PUBLIC 3bc5fc 0 _ZNK13QTextDocument9lineCountEv
PUBLIC 3bc674 0 _ZNK13QTextDocument17defaultStyleSheetEv
PUBLIC 3bc6b0 0 _ZNK13QTextDocument15isUndoAvailableEv
PUBLIC 3bc6d4 0 _ZNK13QTextDocument15isRedoAvailableEv
PUBLIC 3bc700 0 _ZNK13QTextDocument18availableUndoStepsEv
PUBLIC 3bc714 0 _ZNK13QTextDocument18availableRedoStepsEv
PUBLIC 3bc740 0 _ZNK13QTextDocument8revisionEv
PUBLIC 3bc74c 0 _ZN13QTextDocument17setDocumentLayoutEP27QAbstractTextDocumentLayout
PUBLIC 3bc754 0 _ZNK13QTextDocument14documentLayoutEv
PUBLIC 3bc7a8 0 _ZNK13QTextDocument4sizeEv
PUBLIC 3bc7d4 0 _ZN13QTextDocument12drawContentsEP8QPainterRK6QRectF
PUBLIC 3bc940 0 _ZNK13QTextDocument10idealWidthEv
PUBLIC 3bc98c 0 _ZNK13QTextDocument15metaInformationENS_15MetaInformationE
PUBLIC 3bca44 0 _ZN13QTextDocument18setMetaInformationENS_15MetaInformationERK7QString
PUBLIC 3bca70 0 _ZNK13QTextDocument11toPlainTextEv
PUBLIC 3bcb34 0 _ZN13QTextDocument12setPlainTextERK7QString
PUBLIC 3bcbc8 0 _ZNK13QTextDocument4findERK7QRegExpi6QFlagsINS_8FindFlagEE
PUBLIC 3bcddc 0 _ZNK13QTextDocument4findERK7QStringi6QFlagsINS_8FindFlagEE
PUBLIC 3bce70 0 _ZNK13QTextDocument4findERK7QStringRK11QTextCursor6QFlagsINS_8FindFlagEE
PUBLIC 3bcf40 0 _ZNK13QTextDocument4findERK7QRegExpRK11QTextCursor6QFlagsINS_8FindFlagEE
PUBLIC 3bcfc0 0 _ZNK13QTextDocument7frameAtEi
PUBLIC 3bcfc8 0 _ZNK13QTextDocument9rootFrameEv
PUBLIC 3bcfd0 0 _ZNK13QTextDocument6objectEi
PUBLIC 3bcfd8 0 _ZNK13QTextDocument15objectForFormatERK11QTextFormat
PUBLIC 3bcfe0 0 _ZNK13QTextDocument8pageSizeEv
PUBLIC 3bcffc 0 _ZNK13QTextDocument9pageCountEv
PUBLIC 3bd014 0 _ZNK13QTextDocument11defaultFontEv
PUBLIC 3bd030 0 _ZNK13QTextDocument8resourceEiRK4QUrl
PUBLIC 3beb58 0 _ZNK13QTextDocument9docHandleEv
PUBLIC 3beb60 0 _ZNK13QTextDocument3endEv
PUBLIC 3beb80 0 _ZNK13QTextDocument10isModifiedEv
PUBLIC 3beb90 0 _ZN13QTextDocument11setModifiedEb
PUBLIC 3beba8 0 _ZNK13QTextDocument5beginEv
PUBLIC 3bebf0 0 _ZNK13QTextDocument10firstBlockEv
PUBLIC 3bec38 0 _ZNK13QTextDocument9lastBlockEv
PUBLIC 3bec80 0 _ZNK13QTextDocument9findBlockEi
PUBLIC 3becf4 0 _ZNK13QTextDocument17findBlockByNumberEi
PUBLIC 3bed68 0 _ZNK13QTextDocument21findBlockByLineNumberEi
PUBLIC 3bfb84 0 _ZN13QTextDocument7setHtmlERK7QString
PUBLIC 3c06a0 0 _ZNK13QTextDocument7isEmptyEv
PUBLIC 3c06c4 0 _ZN13QTextDocument20setDefaultTextOptionERK11QTextOption
PUBLIC 3c070c 0 _ZN13QTextDocument19setUseDesignMetricsEb
PUBLIC 3c0770 0 _ZN13QTextDocument17setDocumentMarginEf
PUBLIC 3c0844 0 _ZN13QTextDocument14setIndentWidthEf
PUBLIC 3c089c 0 _ZNK13QTextDocument14characterCountEv
PUBLIC 3c08ac 0 _ZN13QTextDocument11setPageSizeERK6QSizeF
PUBLIC 3c08f8 0 _ZN13QTextDocument12setTextWidthEf
PUBLIC 3c093c 0 _ZN13QTextDocument10adjustSizeEv
PUBLIC 3c0adc 0 _ZN13QTextDocument14setDefaultFontERK5QFont
PUBLIC 3c0b24 0 _ZNK13QTextDocument11characterAtEi
PUBLIC 3c1534 0 _ZN13QTextDocument5clearEv
PUBLIC 3c17b4 0 _ZN13QTextDocument11addResourceEiRK4QUrlRK8QVariant
PUBLIC 3c184c 0 _ZNK13QTextDocument10allFormatsEv
PUBLIC 3c18a8 0 _ZNK13QTextDocument5cloneEP7QObject
PUBLIC 3c1e08 0 _ZNK13QTextDocument5printEP8QPrinter
PUBLIC 3c2b38 0 _ZN13QTextDocument20setDefaultStyleSheetERK7QString
PUBLIC 3c2fc8 0 _ZN13QTextDocument12loadResourceEiRK4QUrl
PUBLIC 3c5898 0 _ZNK13QTextDocument6toHtmlERK10QByteArray
PUBLIC 3c6070 0 _ZN4QCss6ParserD1Ev
PUBLIC 3db3e0 0 _ZN27QAbstractTextDocumentLayout20positionInlineObjectE17QTextInlineObjectiRK11QTextFormat
PUBLIC 3db3f4 0 _ZNK27QAbstractTextDocumentLayout10metaObjectEv
PUBLIC 3db420 0 _ZN27QAbstractTextDocumentLayoutD2Ev
PUBLIC 3db454 0 _ZN27QAbstractTextDocumentLayoutD0Ev
PUBLIC 3db4dc 0 _ZN27QAbstractTextDocumentLayoutC1EP13QTextDocument
PUBLIC 3db5c8 0 _ZN27QAbstractTextDocumentLayoutC1ER34QAbstractTextDocumentLayoutPrivateP13QTextDocument
PUBLIC 3db634 0 _ZNK27QAbstractTextDocumentLayout16handlerForObjectEi
PUBLIC 3db6bc 0 _ZN27QAbstractTextDocumentLayout11formatIndexEi
PUBLIC 3db74c 0 _ZN27QAbstractTextDocumentLayout6formatEi
PUBLIC 3db818 0 _ZNK27QAbstractTextDocumentLayout8documentEv
PUBLIC 3db824 0 _ZN27QAbstractTextDocumentLayout18resizeInlineObjectE17QTextInlineObjectiRK11QTextFormat
PUBLIC 3db958 0 _ZN27QAbstractTextDocumentLayout16drawInlineObjectEP8QPainterRK6QRectF17QTextInlineObjectiRK11QTextFormat
PUBLIC 3dba6c 0 _ZNK27QAbstractTextDocumentLayout8anchorAtERK7QPointF
PUBLIC 3dbbc0 0 _ZN27QAbstractTextDocumentLayout14setPaintDeviceEP12QPaintDevice
PUBLIC 3dbbcc 0 _ZNK27QAbstractTextDocumentLayout11paintDeviceEv
PUBLIC 3dbbd8 0 _ZN27QAbstractTextDocumentLayout6updateERK6QRectF
PUBLIC 3dbc14 0 _ZN27QAbstractTextDocumentLayout11updateBlockERK10QTextBlock
PUBLIC 3dbc54 0 _ZN27QAbstractTextDocumentLayout19documentSizeChangedERK6QSizeF
PUBLIC 3dbc94 0 _ZN27QAbstractTextDocumentLayout16pageCountChangedEi
PUBLIC 3dbe14 0 _ZN27QAbstractTextDocumentLayout15registerHandlerEiP7QObject
PUBLIC 3dbfb8 0 _ZN27QAbstractTextDocumentLayout11qt_metacastEPKc
PUBLIC 3dbffc 0 _ZN27QAbstractTextDocumentLayout11qt_metacallEN11QMetaObject4CallEiPPv
PUBLIC 3dc2d0 0 _ZNK19QTextDocumentLayout10metaObjectEv
PUBLIC 3dd964 0 _ZN19QTextDocumentLayout13setLineHeightEfNS_14LineHeightModeE
PUBLIC 3dd974 0 _ZN19QTextDocumentLayoutC2EP13QTextDocument
PUBLIC 3dda10 0 _ZN19QTextDocumentLayout11setViewportERK6QRectF
PUBLIC 3dda24 0 _ZN19QTextDocumentLayout14setCursorWidthEi
PUBLIC 3dda30 0 _ZNK19QTextDocumentLayout11cursorWidthEv
PUBLIC 3dda3c 0 _ZN19QTextDocumentLayout19setFixedColumnWidthEi
PUBLIC 3dda48 0 _ZN19QTextDocumentLayout14layoutFinishedEv
PUBLIC 3dda88 0 _ZNK19QTextDocumentLayout19contentHasAlignmentEv
PUBLIC 3de7b8 0 _ZNK19QTextDocumentLayout19dynamicDocumentSizeEv
PUBLIC 3de87c 0 _ZNK19QTextDocumentLayout16dynamicPageCountEv
PUBLIC 3df15c 0 _ZN19QTextDocumentLayout18resizeInlineObjectE17QTextInlineObjectiRK11QTextFormat
PUBLIC 3dfdc0 0 _ZNK19QTextDocumentLayout12layoutStatusEv
PUBLIC 3e0e40 0 _ZN19QTextDocumentLayout20positionInlineObjectE17QTextInlineObjectiRK11QTextFormat
PUBLIC 3e9f4c 0 _ZN19QTextDocumentLayout8doLayoutEiii
PUBLIC 3ea188 0 _ZNK19QTextDocumentLayout9pageCountEv
PUBLIC 3ea1b4 0 _ZNK19QTextDocumentLayout12documentSizeEv
PUBLIC 3ea1f0 0 _ZNK19QTextDocumentLayout17frameBoundingRectEP10QTextFrame
PUBLIC 3ea274 0 _ZNK19QTextDocumentLayout10idealWidthEv
PUBLIC 3ea358 0 _ZNK19QTextDocumentLayout7hitTestERK7QPointFN2Qt15HitTestAccuracyE
PUBLIC 3ea4d8 0 _ZN19QTextDocumentLayout14ensureLayoutedEf
PUBLIC 3ea504 0 _ZN19QTextDocumentLayout4drawEP8QPainterRKN27QAbstractTextDocumentLayout12PaintContextE
PUBLIC 3ea798 0 _ZNK19QTextDocumentLayout17blockBoundingRectERK10QTextBlock
PUBLIC 3ead54 0 _ZN19QTextDocumentLayout15documentChangedEiii
PUBLIC 3eb1e8 0 _ZN19QTextDocumentLayout16drawInlineObjectEP8QPainterRK6QRectF17QTextInlineObjectiRK11QTextFormat
PUBLIC 3eb2f8 0 _ZN19QTextDocumentLayout10timerEventEP11QTimerEvent
PUBLIC 3eb3b8 0 _ZN19QTextDocumentLayout11qt_metacastEPKc
PUBLIC 3eb3fc 0 _ZN19QTextDocumentLayout11qt_metacallEN11QMetaObject4CallEiPPv
PUBLIC 3eb4e4 0 _ZN19QTextDocumentLayoutD2Ev
PUBLIC 3eb518 0 _ZN19QTextDocumentLayoutD0Ev
PUBLIC 3ee39c 0 _ZN11QTextCursorC1Ev
PUBLIC 3ee3a8 0 _ZNK11QTextCursor6isNullEv
PUBLIC 3ee3cc 0 _ZNK11QTextCursor8positionEv
PUBLIC 3ee3f4 0 _ZNK11QTextCursor15positionInBlockEv
PUBLIC 3ee490 0 _ZNK11QTextCursor6anchorEv
PUBLIC 3ee4b8 0 _ZNK11QTextCursor16visualNavigationEv
PUBLIC 3ee4cc 0 _ZNK11QTextCursor17verticalMovementXEv
PUBLIC 3ee4f0 0 _ZNK11QTextCursor20keepPositionOnInsertEv
PUBLIC 3ee508 0 _ZNK11QTextCursor12hasSelectionEv
PUBLIC 3ee528 0 _ZNK11QTextCursor19hasComplexSelectionEv
PUBLIC 3ee548 0 _ZNK11QTextCursor18selectedTableCellsEPiS0_S0_S0_
PUBLIC 3ee590 0 _ZNK11QTextCursor14selectionStartEv
PUBLIC 3ee5c4 0 _ZNK11QTextCursor12selectionEndEv
PUBLIC 3ee5f8 0 _ZNK11QTextCursor12selectedTextEv
PUBLIC 3ee960 0 _ZNK11QTextCursor9selectionEv
PUBLIC 3ee974 0 _ZNK11QTextCursor5blockEv
PUBLIC 3eea04 0 _ZNK11QTextCursor11blockFormatEv
PUBLIC 3eeaac 0 _ZNK11QTextCursor15blockCharFormatEv
PUBLIC 3eeb54 0 _ZNK11QTextCursor10charFormatEv
PUBLIC 3eed40 0 _ZNK11QTextCursor12atBlockStartEv
PUBLIC 3eede4 0 _ZNK11QTextCursor10atBlockEndEv
PUBLIC 3eef04 0 _ZNK11QTextCursor7atStartEv
PUBLIC 3eef34 0 _ZNK11QTextCursor11currentListEv
PUBLIC 3eefc8 0 _ZNK11QTextCursor12currentTableEv
PUBLIC 3ef048 0 _ZNK11QTextCursor12currentFrameEv
PUBLIC 3ef070 0 _ZNK11QTextCursorltERKS_
PUBLIC 3ef0b8 0 _ZNK11QTextCursorleERKS_
PUBLIC 3ef0f8 0 _ZNK11QTextCursoreqERKS_
PUBLIC 3ef14c 0 _ZNK11QTextCursorneERKS_
PUBLIC 3ef160 0 _ZNK11QTextCursorgeERKS_
PUBLIC 3ef198 0 _ZNK11QTextCursorgtERKS_
PUBLIC 3ef1d0 0 _ZNK11QTextCursor8isCopyOfERKS_
PUBLIC 3ef1e8 0 _ZNK11QTextCursor11blockNumberEv
PUBLIC 3ef27c 0 _ZNK11QTextCursor12columnNumberEv
PUBLIC 3ef370 0 _ZNK11QTextCursor8documentEv
PUBLIC 3ef384 0 _ZNK11QTextCursor5atEndEv
PUBLIC 3ef430 0 _ZN11QTextCursorC1EP13QTextDocument
PUBLIC 3f0654 0 _ZN11QTextCursorC2EP18QTextCursorPrivate
PUBLIC 3f0704 0 _ZN11QTextCursorC2ERKS_
PUBLIC 3f07c0 0 _ZN11QTextCursor20setVerticalMovementXEi
PUBLIC 3f081c 0 _ZN11QTextCursor19setVisualNavigationEb
PUBLIC 3f0880 0 _ZN11QTextCursor23setKeepPositionOnInsertEb
PUBLIC 3f08e4 0 _ZN11QTextCursor14clearSelectionEv
PUBLIC 3f09a0 0 _ZN11QTextCursor21joinPreviousEditBlockEv
PUBLIC 3f09f8 0 _ZN11QTextCursor20mergeBlockCharFormatERK15QTextCharFormat
PUBLIC 3f0a5c 0 _ZN11QTextCursor12endEditBlockEv
PUBLIC 3f0ab4 0 _ZN11QTextCursor14setBlockFormatERK16QTextBlockFormat
PUBLIC 3f0b18 0 _ZN11QTextCursor16mergeBlockFormatERK16QTextBlockFormat
PUBLIC 3f0b7c 0 _ZN11QTextCursor18setBlockCharFormatERK15QTextCharFormat
PUBLIC 3f0be0 0 _ZN11QTextCursor11insertFrameERK16QTextFrameFormat
PUBLIC 3f0c68 0 _ZN11QTextCursor10createListERK15QTextListFormat
PUBLIC 3f0d24 0 _ZN11QTextCursor10createListEN15QTextListFormat5StyleE
PUBLIC 3f0da0 0 _ZN11QTextCursor11insertTableEiiRK16QTextTableFormat
PUBLIC 3f0f40 0 _ZN11QTextCursor11insertTableEii
PUBLIC 3f0f94 0 _ZN11QTextCursor18removeSelectedTextEv
PUBLIC 3f10d8 0 _ZN11QTextCursor11insertBlockERK16QTextBlockFormatRK15QTextCharFormat
PUBLIC 3f1250 0 _ZN11QTextCursor11insertBlockERK16QTextBlockFormat
PUBLIC 3f12a4 0 _ZN11QTextCursor11insertBlockEv
PUBLIC 3f12e4 0 _ZN11QTextCursor10insertListERK15QTextListFormat
PUBLIC 3f1304 0 _ZN11QTextCursor10insertListEN15QTextListFormat5StyleE
PUBLIC 3f1324 0 _ZN11QTextCursor14insertFragmentERK21QTextDocumentFragment
PUBLIC 3f1460 0 _ZN11QTextCursor10insertHtmlERK7QString
PUBLIC 3f14f4 0 _ZN11QTextCursor14beginEditBlockEv
PUBLIC 3f15cc 0 _ZN11QTextCursor11setPositionEiNS_8MoveModeE
PUBLIC 3f1760 0 _ZN11QTextCursorC2ERK10QTextBlock
PUBLIC 3f1878 0 _ZN11QTextCursorC1EP20QTextDocumentPrivatei
PUBLIC 3f19c4 0 _ZN11QTextCursor15mergeCharFormatERK15QTextCharFormat
PUBLIC 3f1b04 0 _ZN11QTextCursorC2EP10QTextFrame
PUBLIC 3f1c28 0 _ZN11QTextCursor13setCharFormatERK15QTextCharFormat
PUBLIC 3f1d20 0 _ZN11QTextCursor11insertImageERK16QTextImageFormatN16QTextFrameFormat8PositionE
PUBLIC 3f1fa0 0 _ZN11QTextCursor10deleteCharEv
PUBLIC 3f21a8 0 _ZN11QTextCursor10insertTextERK7QStringRK15QTextCharFormat
PUBLIC 3f2664 0 _ZN11QTextCursor10insertTextERK7QString
PUBLIC 3f26b8 0 _ZN11QTextCursor11insertImageERK16QTextImageFormat
PUBLIC 3f2734 0 _ZN11QTextCursor11insertImageERK7QString
PUBLIC 3f27a8 0 _ZN11QTextCursor11insertImageERK6QImageRK7QString
PUBLIC 3f29d0 0 _ZN11QTextCursor12movePositionENS_13MoveOperationENS_8MoveModeEi
PUBLIC 3f2e60 0 _ZN11QTextCursor6selectENS_13SelectionTypeE
PUBLIC 3f3048 0 _ZN11QTextCursor18deletePreviousCharEv
PUBLIC 3f3514 0 _ZN11QTextCursoraSERKS_
PUBLIC 3f35c8 0 _ZN11QTextCursorD2Ev
PUBLIC 3f3adc 0 _ZN21QTextDocumentFragmentC2Ev
PUBLIC 3f3ae8 0 _ZN21QTextDocumentFragmentC1ERKS_
PUBLIC 3f3b28 0 _ZN21QTextDocumentFragmentaSERKS_
PUBLIC 3f3bd0 0 _ZN21QTextDocumentFragmentD2Ev
PUBLIC 3f3c44 0 _ZNK21QTextDocumentFragment7isEmptyEv
PUBLIC 3f3cd8 0 _ZNK21QTextDocumentFragment11toPlainTextEv
PUBLIC 3f3d40 0 _ZNK21QTextDocumentFragment6toHtmlERK10QByteArray
PUBLIC 3f3e74 0 _ZNK21QTextDocumentFragment6toHtmlEv
PUBLIC 3f9a78 0 _ZN21QTextDocumentFragmentC1EPK13QTextDocument
PUBLIC 3f9af8 0 _ZN21QTextDocumentFragmentC1ERK11QTextCursor
PUBLIC 3f9b50 0 _ZN21QTextDocumentFragment13fromPlainTextERK7QString
PUBLIC 3f9bfc 0 _ZN21QTextDocumentFragment8fromHtmlERK7QStringPK13QTextDocument
PUBLIC 3fa748 0 _ZN21QTextDocumentFragment8fromHtmlERK7QString
PUBLIC 3fcce0 0 _ZN10QTextTableD1Ev
PUBLIC 3fcd14 0 _ZN10QTextTableD0Ev
PUBLIC 3fcd30 0 _ZN14QTextTableCell9setFormatERK15QTextCharFormat
PUBLIC 3fcf18 0 _ZNK14QTextTableCell20tableCellFormatIndexEv
PUBLIC 3fcf3c 0 _ZNK14QTextTableCell6formatEv
PUBLIC 3fcfd8 0 _ZNK14QTextTableCell7rowSpanEv
PUBLIC 3fd028 0 _ZNK14QTextTableCell10columnSpanEv
PUBLIC 3fd078 0 _ZNK14QTextTableCell13firstPositionEv
PUBLIC 3fd0d0 0 _ZNK14QTextTableCell19firstCursorPositionEv
PUBLIC 3fd264 0 _ZN10QTextTableC1EP13QTextDocument
PUBLIC 3fd504 0 _ZNK14QTextTableCell12lastPositionEv
PUBLIC 3fd5b0 0 _ZNK14QTextTableCell18lastCursorPositionEv
PUBLIC 3fd5e4 0 _ZNK14QTextTableCell5beginEv
PUBLIC 3fd6d8 0 _ZNK14QTextTableCell3endEv
PUBLIC 3fddbc 0 _ZNK14QTextTableCell3rowEv
PUBLIC 3fde10 0 _ZNK14QTextTableCell6columnEv
PUBLIC 3fde68 0 _ZNK10QTextTable6cellAtEii
PUBLIC 3fdeec 0 _ZNK10QTextTable6cellAtEi
PUBLIC 3fe040 0 _ZNK10QTextTable6cellAtERK11QTextCursor
PUBLIC 3fe06c 0 _ZNK10QTextTable8rowStartERK11QTextCursor
PUBLIC 3fe110 0 _ZNK10QTextTable6rowEndERK11QTextCursor
PUBLIC 3fe1c8 0 _ZN10QTextTable10insertRowsEii
PUBLIC 3fe570 0 _ZN10QTextTable10removeRowsEii
PUBLIC 3fea34 0 _ZNK10QTextTable4rowsEv
PUBLIC 3fea58 0 _ZN10QTextTable10appendRowsEi
PUBLIC 3fea7c 0 _ZNK10QTextTable7columnsEv
PUBLIC 3feaa0 0 _ZN10QTextTable9setFormatERK16QTextTableFormat
PUBLIC 3feb20 0 _ZN10QTextTable9splitCellEiiii
PUBLIC 3ff104 0 _ZN10QTextTable13removeColumnsEii
PUBLIC 3ff70c 0 _ZN10QTextTable13insertColumnsEii
PUBLIC 3ffe78 0 _ZN10QTextTable6resizeEii
PUBLIC 3fff6c 0 _ZN10QTextTable13appendColumnsEi
PUBLIC 400248 0 _ZN10QTextTable10mergeCellsEiiii
PUBLIC 400f00 0 _ZN10QTextTable10mergeCellsERK11QTextCursor
PUBLIC 40128c 0 _ZN9QTextListD1Ev
PUBLIC 4012c0 0 _ZN9QTextListD0Ev
PUBLIC 40132c 0 _ZN9QTextListC2EP13QTextDocument
PUBLIC 40141c 0 _ZNK9QTextList5countEv
PUBLIC 401434 0 _ZNK9QTextList4itemEi
PUBLIC 401480 0 _ZN9QTextList6removeERK10QTextBlock
PUBLIC 40157c 0 _ZN9QTextList10removeItemEi
PUBLIC 4015d4 0 _ZN9QTextList3addERK10QTextBlock
PUBLIC 40163c 0 _ZNK9QTextList10itemNumberERK10QTextBlock
PUBLIC 40164c 0 _ZNK9QTextList8itemTextERK10QTextBlock
PUBLIC 402100 0 _ZN19QTextDocumentWriterC2Ev
PUBLIC 402134 0 _ZN19QTextDocumentWriterC2EP9QIODeviceRK10QByteArray
PUBLIC 402180 0 _ZN19QTextDocumentWriterC1ERK7QStringRK10QByteArray
PUBLIC 4021ec 0 _ZN19QTextDocumentWriterD2Ev
PUBLIC 402274 0 _ZN19QTextDocumentWriter9setFormatERK10QByteArray
PUBLIC 40227c 0 _ZNK19QTextDocumentWriter6formatEv
PUBLIC 4022b8 0 _ZN19QTextDocumentWriter9setDeviceEP9QIODevice
PUBLIC 402300 0 _ZNK19QTextDocumentWriter6deviceEv
PUBLIC 40230c 0 _ZN19QTextDocumentWriter11setFileNameERK7QString
PUBLIC 402354 0 _ZNK19QTextDocumentWriter8fileNameEv
PUBLIC 4023d4 0 _ZN19QTextDocumentWriter8setCodecEP10QTextCodec
PUBLIC 402464 0 _ZNK19QTextDocumentWriter5codecEv
PUBLIC 402470 0 _ZN19QTextDocumentWriter24supportedDocumentFormatsEv
PUBLIC 4028dc 0 _ZN19QTextDocumentWriter5writeEPK13QTextDocument
PUBLIC 403600 0 _ZN19QTextDocumentWriter5writeERK21QTextDocumentFragment
PUBLIC 403898 0 _ZNK18QSyntaxHighlighter10metaObjectEv
PUBLIC 403980 0 _ZN18QSyntaxHighlighterC1EP7QObject
PUBLIC 403a58 0 _ZN18QSyntaxHighlighter11setDocumentEP13QTextDocument
PUBLIC 403bac 0 _ZN18QSyntaxHighlighterC1EP13QTextDocument
PUBLIC 403c9c 0 _ZN18QSyntaxHighlighterC1EP9QTextEdit
PUBLIC 403d94 0 _ZN18QSyntaxHighlighterD1Ev
PUBLIC 403de0 0 _ZN18QSyntaxHighlighterD0Ev
PUBLIC 403dfc 0 _ZNK18QSyntaxHighlighter8documentEv
PUBLIC 403e08 0 _ZNK18QSyntaxHighlighter6formatEi
PUBLIC 403e50 0 _ZNK18QSyntaxHighlighter18previousBlockStateEv
PUBLIC 403eb4 0 _ZNK18QSyntaxHighlighter17currentBlockStateEv
PUBLIC 403ee0 0 _ZN18QSyntaxHighlighter20setCurrentBlockStateEi
PUBLIC 403f04 0 _ZN18QSyntaxHighlighter23setCurrentBlockUserDataEP18QTextBlockUserData
PUBLIC 403f28 0 _ZNK18QSyntaxHighlighter20currentBlockUserDataEv
PUBLIC 403f54 0 _ZNK18QSyntaxHighlighter12currentBlockEv
PUBLIC 404308 0 _ZN18QSyntaxHighlighter9setFormatEiiRK15QTextCharFormat
PUBLIC 404398 0 _ZN18QSyntaxHighlighter9setFormatEiiRK6QColor
PUBLIC 40444c 0 _ZN18QSyntaxHighlighter9setFormatEiiRK5QFont
PUBLIC 404840 0 _ZN18QSyntaxHighlighter16rehighlightBlockERK10QTextBlock
PUBLIC 404928 0 _ZN18QSyntaxHighlighter11rehighlightEv
PUBLIC 4049c4 0 _ZN18QSyntaxHighlighter11qt_metacastEPKc
PUBLIC 404a08 0 _ZN18QSyntaxHighlighter11qt_metacallEN11QMetaObject4CallEiPPv
PUBLIC 405e80 0 _ZNK4QCss5Value8toStringEv
PUBLIC 409748 0 _ZNK4QCss6Symbol5lexemEv
PUBLIC 4098c4 0 _ZN4QCss6Parser11errorSymbolEv
PUBLIC 40997c 0 _ZN4QCss6Parser16parseElementNameEP7QString
PUBLIC 409a68 0 _ZN4QCss6Parser4nextENS_9TokenTypeE
PUBLIC 409aa4 0 _ZN4QCss6Parser15parsePseudoPageEP7QString
PUBLIC 409b44 0 _ZN4QCss6Parser10parseClassEP7QString
PUBLIC 409be4 0 _ZN4QCss6Parser4testENS_9TokenTypeE
PUBLIC 409c1c 0 _ZN4QCss6Parser17parseNextOperatorEPNS_5ValueE
PUBLIC 409c9c 0 _ZN4QCss6Parser13parseHexColorEP6QColor
PUBLIC 409de8 0 _ZN4QCss6Parser15parseCombinatorEPNS_13BasicSelector8RelationE
PUBLIC 409e94 0 _ZN4QCss6Parser8testPrioEv
PUBLIC 409f50 0 _ZN4QCss6Parser8testTermEv
PUBLIC 40a00c 0 _ZN4QCss6Parser18testSimpleSelectorEv
PUBLIC 40a08c 0 _ZN4QCss6Parser9parsePrioEPNS_11DeclarationE
PUBLIC 40a0bc 0 _ZN4QCss6Parser13parsePropertyEPNS_11DeclarationE
PUBLIC 40a180 0 _ZN4QCss6Parser11parsePseudoEPNS_6PseudoE
PUBLIC 40a338 0 _ZNK4QCss6Parser13unquotedLexemEv
PUBLIC 40a3ac 0 _ZN4QCss6Parser11parseAttribEPNS_17AttributeSelectorE
PUBLIC 40a534 0 _ZN4QCss6Parser10lexemUntilENS_9TokenTypeE
PUBLIC 40a654 0 _ZN4QCss6Parser5untilENS_9TokenTypeES1_
PUBLIC 40a7f4 0 _ZN4QCss6Parser13parseFunctionEP7QStringS2_
PUBLIC 40a918 0 _ZN4QCss6Parser15testAndParseUriEP7QString
PUBLIC 40aab0 0 _ZN4QCss6Parser20testTokenAndEndsWithENS_9TokenTypeERK13QLatin1String
PUBLIC 40ab68 0 _ZNK4QCss13StyleSelector14nodeNameEqualsENS0_7NodePtrERK7QString
PUBLIC 40abd0 0 _ZN4QCss13StyleSelector20basicSelectorMatchesERKNS_13BasicSelectorENS0_7NodePtrE
PUBLIC 40af4c 0 _ZN4QCss6Parser11parseMediumEP11QStringList
PUBLIC 40afe4 0 _ZN4QCss6Parser11parseImportEPNS_10ImportRuleE
PUBLIC 40b1b8 0 _ZN4QCss6Parser9parseTermEPNS_5ValueE
PUBLIC 40b774 0 _ZNK4QCss13StyleSelector7nodeIdsENS0_7NodePtrE
PUBLIC 40c130 0 _ZN4QCss13StyleSelectorD1Ev
PUBLIC 40c1e4 0 _ZN4QCss13StyleSelectorD0Ev
PUBLIC 40c200 0 _ZN4QCss6ParserC1Ev
PUBLIC 40c95c 0 _ZN4QCss6Parser19parseSimpleSelectorEPNS_13BasicSelectorE
PUBLIC 40ccfc 0 _ZN4QCss6Parser9parseExprEP7QVectorINS_5ValueEE
PUBLIC 40ce6c 0 _ZN4QCss6Parser20parseNextDeclarationEPNS_11DeclarationE
PUBLIC 40cf2c 0 _ZN4QCss6Parser9parsePageEPNS_8PageRuleE
PUBLIC 40df38 0 _ZN4QCss13StyleSelector15selectorMatchesERKNS_8SelectorENS0_7NodePtrE
PUBLIC 40e1f8 0 _ZN4QCss6Parser13parseSelectorEPNS_8SelectorE
PUBLIC 40e528 0 _ZN4QCss6Parser12parseRulesetEPNS_9StyleRuleE
PUBLIC 40e9e8 0 _ZN4QCss6Parser10parseMediaEPNS_9MediaRuleE
PUBLIC 40f6f0 0 _ZN4QCss6Parser5parseEPNS_10StyleSheetEN2Qt15CaseSensitivityE
PUBLIC 40fc2c 0 _ZN4QCss13StyleSelector9matchRuleENS0_7NodePtrERKNS_9StyleRuleENS_16StyleSheetOriginEiP4QMapIjS2_E
PUBLIC 410078 0 _ZN4QCss13StyleSelector17styleRulesForNodeENS0_7NodePtrE
PUBLIC 41058c 0 _ZN4QCss13StyleSelector19declarationsForNodeENS0_7NodePtrEPKc
PUBLIC 410d68 0 _ZN4QCss6Parser4initERK7QStringb
PUBLIC 411344 0 _ZN4QCss6ParserC2ERK7QStringb
PUBLIC 418148 0 _ZN10QZipReader8FileInfoC1Ev
PUBLIC 4181c8 0 _ZN10QZipReader8FileInfoD2Ev
PUBLIC 418294 0 _ZN10QZipReader8FileInfoaSERKS0_
PUBLIC 418318 0 _ZN10QZipReader8FileInfoC1ERKS0_
PUBLIC 41839c 0 _ZNK10QZipReader8FileInfo7isValidEv
PUBLIC 41887c 0 _ZNK10QZipReader6deviceEv
PUBLIC 418888 0 _ZNK10QZipReader10isReadableEv
PUBLIC 418894 0 _ZNK10QZipReader6existsEv
PUBLIC 4188d4 0 _ZNK10QZipReader6statusEv
PUBLIC 4188e0 0 _ZN10QZipReader5closeEv
PUBLIC 418bb8 0 _ZN10QZipReaderD2Ev
PUBLIC 418d08 0 _ZN10QZipReaderC2EP9QIODevice
PUBLIC 418e94 0 _ZN10QZipReaderC2ERK7QString6QFlagsIN9QIODevice12OpenModeFlagEE
PUBLIC 41ab40 0 _ZNK10QZipReader12fileInfoListEv
PUBLIC 41ac24 0 _ZNK10QZipReader5countEv
PUBLIC 41ac4c 0 _ZNK10QZipReader11entryInfoAtEi
PUBLIC 41acb0 0 _ZNK10QZipReader8fileDataERK7QString
PUBLIC 41b5b4 0 _ZNK10QZipReader10extractAllERK7QString
PUBLIC 427600 0 _ZNK11QStaticTexteqERKS_
PUBLIC 427684 0 _ZNK11QStaticTextneERKS_
PUBLIC 427698 0 _ZNK11QStaticText10textFormatEv
PUBLIC 4276ac 0 _ZNK11QStaticText4textEv
PUBLIC 4276e8 0 _ZNK11QStaticText15performanceHintEv
PUBLIC 4276fc 0 _ZNK11QStaticText10textOptionEv
PUBLIC 427718 0 _ZNK11QStaticText9textWidthEv
PUBLIC 4277f4 0 _ZN11QStaticTextC1Ev
PUBLIC 4279b8 0 _ZN15QStaticTextItemD2Ev
PUBLIC 427b64 0 _ZN11QStaticTextD2Ev
PUBLIC 427bc8 0 _ZN11QStaticTextaSERKS_
PUBLIC 427cac 0 _ZN15QStaticTextItem13setFontEngineEP11QFontEngine
PUBLIC 427d40 0 _ZN11QStaticTextC2ERK7QString
PUBLIC 427dcc 0 _ZN11QStaticTextC1ERKS_
PUBLIC 42814c 0 _ZN11QStaticText6detachEv
PUBLIC 42816c 0 _ZN11QStaticText7setTextERK7QString
PUBLIC 4281a0 0 _ZN11QStaticText13setTextFormatEN2Qt10TextFormatE
PUBLIC 4281d0 0 _ZN11QStaticText18setPerformanceHintENS_15PerformanceHintE
PUBLIC 42823c 0 _ZN11QStaticText13setTextOptionERK11QTextOption
PUBLIC 428270 0 _ZN11QStaticText12setTextWidthEf
PUBLIC 4296d0 0 _ZN11QStaticText7prepareERK10QTransformRK5QFont
PUBLIC 429704 0 _ZNK11QStaticText4sizeEv
PUBLIC 42a2d0 0 _ZN5QFont10initializeEv
PUBLIC 42a2d4 0 _ZN5QFont7cleanupEv
PUBLIC 42a2d8 0 _ZNK5QFont12freetypeFaceEv
PUBLIC 42a330 0 _ZNK5QFont6handleEv
PUBLIC 42a334 0 _ZNK5QFont7rawNameEv
PUBLIC 42a35c 0 _ZN5QFont10setRawNameERK7QString
PUBLIC 42a360 0 _ZNK5QFont13defaultFamilyEv
PUBLIC 42a40c 0 _ZNK5QFont16lastResortFamilyEv
PUBLIC 42a430 0 _ZNK5QFont14lastResortFontEv
PUBLIC 42d350 0 _ZNK13QFontEngineFT19uploadGlyphToServerEPNS_9QGlyphSetEjPNS_5GlyphEPNS_9GlyphInfoEi
PUBLIC 42d358 0 _ZNK13QFontEngineFT6faceIdEv
PUBLIC 42d3a0 0 _ZNK13QFontEngineFT12emSquareSizeEv
PUBLIC 42d3c4 0 _ZNK13QFontEngineFT11synthesizedEv
PUBLIC 42d438 0 _ZNK13QFontEngineFT6ascentEv
PUBLIC 42d440 0 _ZNK13QFontEngineFT7descentEv
PUBLIC 42d450 0 _ZNK13QFontEngineFT7leadingEv
PUBLIC 42d468 0 _ZNK13QFontEngineFT12maxCharWidthEv
PUBLIC 42d47c 0 _ZNK13QFontEngineFT14minLeftBearingEv
PUBLIC 42d4b8 0 _ZNK13QFontEngineFT13lineThicknessEv
PUBLIC 42d4c0 0 _ZNK13QFontEngineFT17underlinePositionEv
PUBLIC 42d4c8 0 _ZN13QFontEngineFT22allocateServerGlyphSetEv
PUBLIC 42d4d0 0 _ZN13QFontEngineFT18freeServerGlyphSetEm
PUBLIC 42d634 0 _ZNK13QFontEngineFT15minRightBearingEv
PUBLIC 42d788 0 _ZN13QFontEngineFT9canRenderEPK5QChari
PUBLIC 42d814 0 _ZNK13QFontEngineFT12stringToCMapEPK5QChariP12QGlyphLayoutPi6QFlagsIN11QTextEngine10ShaperFlagEE
PUBLIC 42e248 0 _ZNK13QFontEngineFT10propertiesEv
PUBLIC 42e420 0 _ZNK13QFontEngineFT16getSfntTableDataEjPhPj
PUBLIC 42ea50 0 _ZN13QFontEngineFT5GlyphD2Ev
PUBLIC 42ea70 0 _ZN13QFontEngineFT13freeGlyphSetsEv
PUBLIC 42eae4 0 _ZNK13QFontEngineFT8lockFaceENS_7ScalingE
PUBLIC 42ec0c 0 _ZNK13QFontEngineFT10unlockFaceEv
PUBLIC 42ec1c 0 _ZNK13QFontEngineFT7xHeightEv
PUBLIC 42ec94 0 _ZNK13QFontEngineFT16averageCharWidthEv
PUBLIC 42ed0c 0 _ZN13QFontEngineFT16getUnscaledGlyphEjP12QPainterPathP15glyph_metrics_t
PUBLIC 42ee10 0 _ZN13QFontEngineFT15addGlyphsToPathEPjP11QFixedPointiP12QPainterPath6QFlagsIN9QTextItem10RenderFlagEE
PUBLIC 42eebc 0 _ZNK13QFontEngineFT10glyphCountEv
PUBLIC 42eee8 0 _ZN13QFontEngineFT17getPointInOutlineEjijPiS0_Pj
PUBLIC 42ef4c 0 _ZNK13QFontEngineFT9doKerningEP12QGlyphLayout6QFlagsIN11QTextEngine10ShaperFlagEE
PUBLIC 42efe8 0 _ZNK13QFontEngineFT16loadGlyphMetricsEPNS_9QGlyphSetEj
PUBLIC 42f3a4 0 _ZNK13QFontEngineFT15non_locked_faceEv
PUBLIC 42f3b0 0 _ZN13QFontEngineFT9QGlyphSetC2Ev
PUBLIC 42f534 0 _ZN13QFontEngineFT9QGlyphSet5clearEv
PUBLIC 42f730 0 _ZN13QFontEngineFT9QGlyphSetD1Ev
PUBLIC 42f808 0 _ZN13QFontEngineFTC2ERK8QFontDef
PUBLIC 42fa1c 0 _ZN13QFontEngineFTD2Ev
PUBLIC 42faf4 0 _ZN13QFontEngineFTD0Ev
PUBLIC 42fb10 0 _ZN13QFontEngineFT9QGlyphSet8setGlyphEiPNS_5GlyphE
PUBLIC 42fc08 0 _ZNK13QFontEngineFT9loadGlyphEPNS_9QGlyphSetEjNS_11GlyphFormatEb
PUBLIC 430940 0 _ZN13QFontEngineFT10loadGlyphsEPNS_9QGlyphSetEPjiNS_11GlyphFormatE
PUBLIC 430aa8 0 _ZNK13QFontEngineFT14recalcAdvancesEP12QGlyphLayout6QFlagsIN11QTextEngine10ShaperFlagEE
PUBLIC 430cec 0 _ZN13QFontEngineFT11boundingBoxERK12QGlyphLayout
PUBLIC 4310d0 0 _ZN13QFontEngineFT11boundingBoxEj
PUBLIC 431248 0 _ZN13QFontEngineFT9QGlyphSet20removeGlyphFromCacheEi
PUBLIC 431360 0 _ZN13QFontEngineFT20removeGlyphFromCacheEj
PUBLIC 431368 0 _ZN13QFontEngineFT11boundingBoxEjRK10QTransform
PUBLIC 432008 0 _ZN13QFontEngineFT23loadTransformedGlyphSetERK10QTransform
PUBLIC 43335c 0 _ZN13QFontEngineFT4initEN11QFontEngine6FaceIdEbNS_11GlyphFormatE
PUBLIC 4337a8 0 _ZN13QFontEngineFT16addOutlineToPathEffRK12QGlyphLayoutP12QPainterPath6QFlagsIN9QTextItem10RenderFlagEE
PUBLIC 433974 0 _ZN13QFontEngineFT16alphaMapForGlyphEj
PUBLIC 433d68 0 _ZN13QFontEngineFT19alphaRGBMapForGlyphEjiRK10QTransform
PUBLIC 4343d8 0 _ZNK14QFontEngineQPF4typeEv
PUBLIC 4343e0 0 _ZNK14QFontEngineQPF16getSfntTableDataEjPhPj
PUBLIC 434408 0 _ZNK14QFontEngineQPF12emSquareSizeEv
PUBLIC 434448 0 _ZN14QFontEngineQPF16addOutlineToPathEffRK12QGlyphLayoutP12QPainterPath6QFlagsIN9QTextItem10RenderFlagEE
PUBLIC 434504 0 _ZN14QFontEngineQPF9canRenderEPK5QChari
PUBLIC 434744 0 _ZN14QFontEngineQPF12verifyHeaderEPKhi
PUBLIC 43487c 0 _ZN14QFontEngineQPF18extractHeaderFieldEPKhNS_9HeaderTagE
PUBLIC 434ad4 0 _ZNK14QFontEngineQPF6ascentEv
PUBLIC 434b9c 0 _ZNK14QFontEngineQPF7descentEv
PUBLIC 434c64 0 _ZNK14QFontEngineQPF7leadingEv
PUBLIC 434d2c 0 _ZNK14QFontEngineQPF12maxCharWidthEv
PUBLIC 434dc8 0 _ZNK14QFontEngineQPF14minLeftBearingEv
PUBLIC 434e64 0 _ZNK14QFontEngineQPF15minRightBearingEv
PUBLIC 434f00 0 _ZNK14QFontEngineQPF17underlinePositionEv
PUBLIC 434fc8 0 _ZNK14QFontEngineQPF13lineThicknessEv
PUBLIC 43520c 0 _ZNK14QFontEngineQPF7isValidEv
PUBLIC 43528c 0 _ZN14QFontEngineQPFD1Ev
PUBLIC 4354a0 0 _ZN14QFontEngineQPFD0Ev
PUBLIC 4354bc 0 _ZNK14QFontEngineQPF8lockFaceEv
PUBLIC 435610 0 _ZNK14QFontEngineQPF10unlockFaceEv
PUBLIC 435620 0 _ZN14QFontEngineQPF17getPointInOutlineEjijPiS0_Pj
PUBLIC 435694 0 _ZNK14QFontEngineQPF9doKerningEP12QGlyphLayout6QFlagsIN11QTextEngine10ShaperFlagEE
PUBLIC 435734 0 _ZN14QFontEngineQPF8lockFileEv
PUBLIC 435848 0 _ZN14QFontEngineQPF13remapFontDataEv
PUBLIC 43592c 0 _ZN14QFontEngineQPF10unlockFileEv
PUBLIC 43599c 0 _ZNK14QFontEngineQPF9findGlyphEj
PUBLIC 435a18 0 _ZN14QFontEngineQPF4drawEP12QPaintEngineffRK12QTextItemInt
PUBLIC 4369b0 0 _ZN14QFontEngineQPF23cleanUpAfterClientCrashERK5QListIiE
PUBLIC 437450 0 _ZN14QFontEngineQPFC2ERK8QFontDefiP11QFontEngine
PUBLIC 4386a8 0 _ZN14QFontEngineQPF16alphaMapForGlyphEj
PUBLIC 438784 0 _ZN14QFontEngineQPF9loadGlyphEj
PUBLIC 4389fc 0 _ZN14QFontEngineQPF18ensureGlyphsLoadedERK12QGlyphLayout
PUBLIC 438acc 0 _ZNK14QFontEngineQPF12stringToCMapEPK5QChariP12QGlyphLayoutPi6QFlagsIN11QTextEngine10ShaperFlagEE
PUBLIC 438d90 0 _ZNK14QFontEngineQPF14recalcAdvancesEP12QGlyphLayout6QFlagsIN11QTextEngine10ShaperFlagEE
PUBLIC 438dfc 0 _ZN14QFontEngineQPF11boundingBoxERK12QGlyphLayout
PUBLIC 438fc8 0 _ZN14QFontEngineQPF11boundingBoxEj
PUBLIC 4392c0 0 _ZN17QFontEnginePluginD1Ev
PUBLIC 439308 0 _ZThn8_N17QFontEnginePluginD1Ev
PUBLIC 439310 0 _ZN17QFontEnginePluginD0Ev
PUBLIC 43932c 0 _ZThn8_N17QFontEnginePluginD0Ev
PUBLIC 439334 0 _ZN19QAbstractFontEngineD2Ev
PUBLIC 439368 0 _ZN19QAbstractFontEngineD0Ev
PUBLIC 439384 0 _ZN19QAbstractFontEngine11renderGlyphEjiiiPh
PUBLIC 4393a0 0 _ZN19QAbstractFontEngine22addGlyphOutlinesToPathEPjiPNS_10FixedPointEP12QPainterPath
PUBLIC 439c5c 0 _ZN15QFontEngineInfoC1Ev
PUBLIC 439d10 0 _ZN15QFontEngineInfoC1ERK7QString
PUBLIC 439dd4 0 _ZN15QFontEngineInfoD1Ev
PUBLIC 439e80 0 _ZN15QFontEngineInfo9setFamilyERK7QString
PUBLIC 439e88 0 _ZNK15QFontEngineInfo6familyEv
PUBLIC 439ec4 0 _ZN15QFontEngineInfo12setPixelSizeEf
PUBLIC 439ed0 0 _ZNK15QFontEngineInfo9pixelSizeEv
PUBLIC 439edc 0 _ZN15QFontEngineInfo9setWeightEi
PUBLIC 439ee8 0 _ZNK15QFontEngineInfo6weightEv
PUBLIC 439ef4 0 _ZN15QFontEngineInfo8setStyleEN5QFont5StyleE
PUBLIC 439f00 0 _ZNK15QFontEngineInfo5styleEv
PUBLIC 439f0c 0 _ZN17QFontEnginePluginC1ERK7QStringP7QObject
PUBLIC 43a010 0 _ZN19QAbstractFontEngineC1EP7QObject
PUBLIC 43a254 0 _ZNK17QFontEnginePlugin4keysEv
PUBLIC 43a2f4 0 _ZThn8_NK17QFontEnginePlugin4keysEv
PUBLIC 43a2fc 0 _ZN15QFontEngineInfoaSERKS_
PUBLIC 43a3bc 0 _ZNK15QFontEngineInfo14writingSystemsEv
PUBLIC 43a414 0 _ZN15QFontEngineInfoC1ERKS_
PUBLIC 43a4d8 0 _ZN15QFontEngineInfo17setWritingSystemsERK5QListIN13QFontDatabase13WritingSystemEE
PUBLIC 43af08 0 _ZN27QFontEngineFactoryInterfaceD2Ev
PUBLIC 43af2c 0 _ZN27QFontEngineFactoryInterfaceD0Ev
PUBLIC 486cac 0 _ZN6QStyle6polishEP7QWidget
PUBLIC 486cb0 0 _ZN6QStyle8unpolishEP7QWidget
PUBLIC 486cb4 0 _ZN6QStyle6polishEP12QApplication
PUBLIC 486cb8 0 _ZN6QStyle8unpolishEP12QApplication
PUBLIC 486cbc 0 _ZN6QStyle6polishER8QPalette
PUBLIC 486cc0 0 _ZN6QStyleD1Ev
PUBLIC 486cf4 0 _ZN6QStyleD0Ev
PUBLIC 486d10 0 _ZNK6QStyle14itemPixmapRectERK5QRectiRK7QPixmap
PUBLIC 486e38 0 _ZNK6QStyle15standardPaletteEv
PUBLIC 486ff4 0 _ZN6QStyleC2Ev
PUBLIC 487080 0 _ZN6QStyleC1ER13QStylePrivate
PUBLIC 4870c4 0 _ZN6QStyle10visualRectEN2Qt15LayoutDirectionERK5QRectS4_
PUBLIC 487138 0 _ZN6QStyle9visualPosEN2Qt15LayoutDirectionERK5QRectRK6QPoint
PUBLIC 487160 0 _ZN6QStyle15visualAlignmentEN2Qt15LayoutDirectionE6QFlagsINS0_13AlignmentFlagEE
PUBLIC 48719c 0 _ZN6QStyle11alignedRectEN2Qt15LayoutDirectionE6QFlagsINS0_13AlignmentFlagEERK5QSizeRK5QRect
PUBLIC 48729c 0 _ZNK6QStyle14drawItemPixmapEP8QPainterRK5QRectiRK7QPixmap
PUBLIC 4873a0 0 _ZN6QStyle23sliderPositionFromValueEiiiib
PUBLIC 4874bc 0 _ZN6QStyle23sliderValueFromPositionEiiiib
PUBLIC 487574 0 _ZNK6QStyle12standardIconENS_14StandardPixmapEPK12QStyleOptionPK7QWidget
PUBLIC 4876f4 0 _ZNK6QStyle13layoutSpacingEN11QSizePolicy11ControlTypeES1_N2Qt11OrientationEPK12QStyleOptionPK7QWidget
PUBLIC 4877b4 0 _ZNK6QStyle21combinedLayoutSpacingE6QFlagsIN11QSizePolicy11ControlTypeEES3_N2Qt11OrientationEP12QStyleOptionP7QWidget
PUBLIC 4878a4 0 _ZNK6QStyle27layoutSpacingImplementationEN11QSizePolicy11ControlTypeES1_N2Qt11OrientationEPK12QStyleOptionPK7QWidget
PUBLIC 4878ac 0 _Zls6QDebug6QFlagsIN6QStyle9StateFlagEE
PUBLIC 4878c4 0 _ZNK6QStyle5proxyEv
PUBLIC 4878d0 0 _ZNK6QStyle12itemTextRectERK12QFontMetricsRK5QRectibRK7QString
PUBLIC 4879ec 0 _ZNK6QStyle12drawItemTextEP8QPainterRK5QRectiRK8QPalettebRK7QStringNS5_9ColorRoleE
PUBLIC 487c8c 0 _ZN6QStyle8setProxyEPS_
PUBLIC 487c98 0 _ZNK6QStyle26standardIconImplementationENS_14StandardPixmapEPK12QStyleOptionPK7QWidget
PUBLIC 487f38 0 _ZN13QStyleFactory6createERK7QString
PUBLIC 488144 0 _ZN13QStyleFactory4keysEv
PUBLIC 48869c 0 _ZN12QStyleOptionC2Eii
PUBLIC 488718 0 _ZN12QStyleOptionD2Ev
PUBLIC 488744 0 _ZN12QStyleOption4initEPK7QWidget
PUBLIC 488884 0 _ZN12QStyleOptionC2ERKS_
PUBLIC 4888f0 0 _ZN12QStyleOptionaSERKS_
PUBLIC 48893c 0 _ZN21QStyleOptionFocusRectC1Ev
PUBLIC 488978 0 _ZN21QStyleOptionFocusRectC1Ei
PUBLIC 4889b0 0 _ZN17QStyleOptionFrameC2Ev
PUBLIC 4889d8 0 _ZN17QStyleOptionFrameC1Ei
PUBLIC 4889fc 0 _ZN19QStyleOptionFrameV2C2Ev
PUBLIC 488a1c 0 _ZN19QStyleOptionFrameV2C1Ei
PUBLIC 488a38 0 _ZN19QStyleOptionFrameV2C1ERK17QStyleOptionFrame
PUBLIC 488ab8 0 _ZN19QStyleOptionFrameV2aSERK17QStyleOptionFrame
PUBLIC 488b18 0 _ZN19QStyleOptionFrameV3C2Ev
PUBLIC 488b48 0 _ZN19QStyleOptionFrameV3C1Ei
PUBLIC 488b74 0 _ZN19QStyleOptionFrameV3aSERK17QStyleOptionFrame
PUBLIC 488bd8 0 _ZN19QStyleOptionFrameV3C2ERK17QStyleOptionFrame
PUBLIC 488c08 0 _ZN22QStyleOptionViewItemV2aSERK20QStyleOptionViewItem
PUBLIC 488c94 0 _ZN22QStyleOptionViewItemV3aSERK20QStyleOptionViewItem
PUBLIC 488d24 0 _ZN22QStyleOptionViewItemV4aSERK20QStyleOptionViewItem
PUBLIC 488db4 0 _ZN18QStyleOptionHeaderC1Ev
PUBLIC 488e5c 0 _ZN18QStyleOptionHeaderC1Ei
PUBLIC 488f00 0 _ZN18QStyleOptionButtonC2Ev
PUBLIC 488f90 0 _ZN18QStyleOptionButtonC1Ei
PUBLIC 48901c 0 _ZN19QStyleOptionToolBarC1Ev
PUBLIC 48905c 0 _ZN19QStyleOptionToolBarC1Ei
PUBLIC 489098 0 _ZN15QStyleOptionTabC1Ev
PUBLIC 489130 0 _ZN15QStyleOptionTabC2Ei
PUBLIC 4891c4 0 _ZN17QStyleOptionTabV2C1Ev
PUBLIC 4891e8 0 _ZN17QStyleOptionTabV2C2Ei
PUBLIC 489208 0 _ZN17QStyleOptionTabV2C2ERK15QStyleOptionTab
PUBLIC 489310 0 _ZN17QStyleOptionTabV2aSERK15QStyleOptionTab
PUBLIC 4893a4 0 _ZN17QStyleOptionTabV3C2Ev
PUBLIC 4893d8 0 _ZN17QStyleOptionTabV3C1Ei
PUBLIC 489400 0 _ZN17QStyleOptionTabV3C2ERK15QStyleOptionTab
PUBLIC 4894fc 0 _ZN17QStyleOptionTabV3aSERK15QStyleOptionTab
PUBLIC 489578 0 _ZN23QStyleOptionProgressBarC2Ev
PUBLIC 4895fc 0 _ZN23QStyleOptionProgressBarC2Ei
PUBLIC 48967c 0 _ZN25QStyleOptionProgressBarV2C2Ev
PUBLIC 4896a8 0 _ZN25QStyleOptionProgressBarV2C1Ei
PUBLIC 4896d0 0 _ZN25QStyleOptionProgressBarV2C1ERK23QStyleOptionProgressBar
PUBLIC 4897c4 0 _ZN25QStyleOptionProgressBarV2C2ERKS_
PUBLIC 489854 0 _ZN25QStyleOptionProgressBarV2aSERK23QStyleOptionProgressBar
PUBLIC 4898e8 0 _ZN20QStyleOptionMenuItemC1Ev
PUBLIC 4899b4 0 _ZN20QStyleOptionMenuItemC1Ei
PUBLIC 489a7c 0 _ZN19QStyleOptionComplexC1Eii
PUBLIC 489aa0 0 _ZN20QStyleOptionGroupBoxC2Ev
PUBLIC 489b3c 0 _ZN20QStyleOptionGroupBoxC2Ei
PUBLIC 489bd4 0 _ZN18QStyleOptionSliderC2Ev
PUBLIC 489c30 0 _ZN18QStyleOptionSliderC2Ei
PUBLIC 489c88 0 _ZN19QStyleOptionSpinBoxC2Ev
PUBLIC 489cb8 0 _ZN19QStyleOptionSpinBoxC1Ei
PUBLIC 489ce4 0 _ZN26QStyleOptionQ3ListViewItemC1Ev
PUBLIC 489d18 0 _ZN26QStyleOptionQ3ListViewItemC2Ei
PUBLIC 489d48 0 _ZN24QStyleOptionQ3DockWindowC2Ev
PUBLIC 489d70 0 _ZN24QStyleOptionQ3DockWindowC2Ei
PUBLIC 489d94 0 _ZN22QStyleOptionDockWidgetC1Ev
PUBLIC 489e08 0 _ZN22QStyleOptionDockWidgetC2Ei
PUBLIC 489e78 0 _ZN24QStyleOptionDockWidgetV2C2Ev
PUBLIC 489e98 0 _ZN24QStyleOptionDockWidgetV2aSERK22QStyleOptionDockWidget
PUBLIC 489f04 0 _ZN24QStyleOptionDockWidgetV2C2ERK22QStyleOptionDockWidget
PUBLIC 489f80 0 _ZN24QStyleOptionDockWidgetV2C2Ei
PUBLIC 489f9c 0 _ZN22QStyleOptionToolButtonC2Ev
PUBLIC 48a058 0 _ZN22QStyleOptionToolButtonC1Ei
PUBLIC 48a110 0 _ZN20QStyleOptionComboBoxC1Ev
PUBLIC 48a1c0 0 _ZN20QStyleOptionComboBoxC2Ei
PUBLIC 48a26c 0 _ZN19QStyleOptionToolBoxC2Ev
PUBLIC 48a2e8 0 _ZN19QStyleOptionToolBoxC2Ei
PUBLIC 48a360 0 _ZN21QStyleOptionToolBoxV2C2Ev
PUBLIC 48a384 0 _ZN21QStyleOptionToolBoxV2C2Ei
PUBLIC 48a3a4 0 _ZN21QStyleOptionToolBoxV2C1ERK19QStyleOptionToolBox
PUBLIC 48a430 0 _ZN21QStyleOptionToolBoxV2aSERK19QStyleOptionToolBox
PUBLIC 48a4a4 0 _ZN22QStyleOptionRubberBandC1Ev
PUBLIC 48a4cc 0 _ZN22QStyleOptionRubberBandC2Ei
PUBLIC 48a4f0 0 _ZN20QStyleOptionTitleBarC2Ev
PUBLIC 48a57c 0 _ZN20QStyleOptionTitleBarC1Ei
PUBLIC 48a604 0 _ZN20QStyleOptionViewItemC1Ev
PUBLIC 48a664 0 _ZN20QStyleOptionViewItemC2Ei
PUBLIC 48a6c0 0 _ZN22QStyleOptionViewItemV2C2Ei
PUBLIC 48a6dc 0 _ZN22QStyleOptionViewItemV3C2Ev
PUBLIC 48a710 0 _ZN22QStyleOptionViewItemV3C2Ei
PUBLIC 48a740 0 _ZN22QStyleOptionViewItemV4C2Ev
PUBLIC 48a7f8 0 _ZN22QStyleOptionViewItemV4C1Ei
PUBLIC 48a8a4 0 _ZN22QStyleOptionViewItemV4C1ERK20QStyleOptionViewItem
PUBLIC 48a974 0 _ZN22QStyleOptionViewItemV3C2ERK20QStyleOptionViewItem
PUBLIC 48a9b8 0 _ZN22QStyleOptionViewItemV2C1Ev
PUBLIC 48a9d8 0 _ZN22QStyleOptionViewItemV2C2ERK20QStyleOptionViewItem
PUBLIC 48aa14 0 _ZN26QStyleOptionTabWidgetFrameC1Ev
PUBLIC 48aa5c 0 _ZN26QStyleOptionTabWidgetFrameC2Ei
PUBLIC 48aaa0 0 _ZN28QStyleOptionTabWidgetFrameV2C2Ev
PUBLIC 48aae0 0 _ZN28QStyleOptionTabWidgetFrameV2C2Ei
PUBLIC 48ab1c 0 _ZN28QStyleOptionTabWidgetFrameV2aSERK26QStyleOptionTabWidgetFrame
PUBLIC 48abc4 0 _ZN28QStyleOptionTabWidgetFrameV2C2ERK26QStyleOptionTabWidgetFrame
PUBLIC 48ac1c 0 _ZN22QStyleOptionTabBarBaseC2Ev
PUBLIC 48ac64 0 _ZN22QStyleOptionTabBarBaseC1Ei
PUBLIC 48aca8 0 _ZN24QStyleOptionTabBarBaseV2C2Ev
PUBLIC 48acc8 0 _ZN24QStyleOptionTabBarBaseV2aSERK22QStyleOptionTabBarBase
PUBLIC 48ad38 0 _ZN24QStyleOptionTabBarBaseV2C2ERK22QStyleOptionTabBarBase
PUBLIC 48ad6c 0 _ZN24QStyleOptionTabBarBaseV2C1Ei
PUBLIC 48ad88 0 _ZN20QStyleOptionSizeGripC1Ev
PUBLIC 48adb0 0 _ZN20QStyleOptionSizeGripC2Ei
PUBLIC 48add4 0 _ZN24QStyleOptionGraphicsItemC1Ev
PUBLIC 48ae20 0 _ZN24QStyleOptionGraphicsItemC1Ei
PUBLIC 48ae68 0 _ZN24QStyleOptionGraphicsItem26levelOfDetailFromTransformERK10QTransform
PUBLIC 48af00 0 _ZN16QStyleHintReturnC1Eii
PUBLIC 48af08 0 _ZN16QStyleHintReturnD2Ev
PUBLIC 48af0c 0 _ZN20QStyleHintReturnMaskC2Ev
PUBLIC 48af40 0 _ZN23QStyleHintReturnVariantC1Ev
PUBLIC 48af7c 0 _Zls6QDebugRKN12QStyleOption10OptionTypeE
PUBLIC 48af94 0 _Zls6QDebugRK12QStyleOption
PUBLIC 48afac 0 _ZN22QStyleOptionQ3ListViewC1Ev
PUBLIC 48b048 0 _ZN22QStyleOptionQ3ListViewC2Ei
PUBLIC 48b0e0 0 _ZN20QStyleOptionViewItemD2Ev
PUBLIC 48b10c 0 _ZN15QStyleOptionTabD1Ev
PUBLIC 48b180 0 _ZN19QStyleOptionToolBoxD2Ev
PUBLIC 48b1f4 0 _ZN23QStyleOptionProgressBarD2Ev
PUBLIC 48b30c 0 _ZN12QStylePluginD1Ev
PUBLIC 48b354 0 _ZThn8_N12QStylePluginD1Ev
PUBLIC 48b35c 0 _ZN12QStylePluginD0Ev
PUBLIC 48b378 0 _ZThn8_N12QStylePluginD0Ev
PUBLIC 48b380 0 _ZN12QStylePluginC1EP7QObject
PUBLIC 48b3c0 0 _ZN22QStyleFactoryInterfaceD2Ev
PUBLIC 48b3e4 0 _ZN22QStyleFactoryInterfaceD0Ev
PUBLIC 48d7c8 0 _ZN12QCommonStyleD1Ev
PUBLIC 48d7fc 0 _ZN12QCommonStyleD0Ev
PUBLIC 48d8e4 0 _ZNK12QCommonStyle21hitTestComplexControlEN6QStyle14ComplexControlEPK19QStyleOptionComplexRK6QPointPK7QWidget
PUBLIC 48dff0 0 _ZNK12QCommonStyle11pixelMetricEN6QStyle11PixelMetricEPK12QStyleOptionPK7QWidget
PUBLIC 48e7e8 0 _ZNK12QCommonStyle9styleHintEN6QStyle9StyleHintEPK12QStyleOptionPK7QWidgetP16QStyleHintReturn
PUBLIC 48ef34 0 _ZNK12QCommonStyle14subControlRectEN6QStyle14ComplexControlEPK19QStyleOptionComplexNS0_10SubControlEPK7QWidget
PUBLIC 49024c 0 _ZN12QCommonStyleC1Ev
PUBLIC 49032c 0 _ZN12QCommonStyleC1ER19QCommonStylePrivate
PUBLIC 491920 0 _ZNK12QCommonStyle16sizeFromContentsEN6QStyle12ContentsTypeEPK12QStyleOptionRK5QSizePK7QWidget
PUBLIC 492390 0 _ZNK12QCommonStyle14subElementRectEN6QStyle10SubElementEPK12QStyleOptionPK7QWidget
PUBLIC 495398 0 _ZNK12QCommonStyle26standardIconImplementationEN6QStyle14StandardPixmapEPK12QStyleOptionPK7QWidget
PUBLIC 49b21c 0 _ZNK12QCommonStyle13drawPrimitiveEN6QStyle16PrimitiveElementEPK12QStyleOptionP8QPainterPK7QWidget
PUBLIC 49dbdc 0 _ZNK12QCommonStyle18drawComplexControlEN6QStyle14ComplexControlEPK19QStyleOptionComplexP8QPainterPK7QWidget
PUBLIC 4a2068 0 _ZNK12QCommonStyle11drawControlEN6QStyle14ControlElementEPK12QStyleOptionP8QPainterPK7QWidget
PUBLIC 4a8388 0 _ZNK12QCommonStyle14standardPixmapEN6QStyle14StandardPixmapEPK12QStyleOptionPK7QWidget
PUBLIC 4ad368 0 _ZNK12QCommonStyle19generatedIconPixmapEN5QIcon4ModeERK7QPixmapPK12QStyleOption
PUBLIC 4ad7a8 0 _ZN12QCommonStyle6polishER8QPalette
PUBLIC 4ad7ac 0 _ZN12QCommonStyle6polishEP7QWidget
PUBLIC 4ad7b0 0 _ZN12QCommonStyle8unpolishEP7QWidget
PUBLIC 4ad7b4 0 _ZN12QCommonStyle6polishEP12QApplication
PUBLIC 4ad7b8 0 _ZN12QCommonStyle8unpolishEP12QApplication
PUBLIC 4ada70 0 _ZN22QStyleOptionViewItemV4D2Ev
PUBLIC 4adb24 0 _ZN18QStyleOptionButtonD2Ev
PUBLIC 4adb98 0 _ZN18QStyleOptionHeaderD1Ev
PUBLIC 4adc0c 0 _ZN22QStyleOptionToolButtonD2Ev
PUBLIC 4adc94 0 _ZN11QProxyStyleD1Ev
PUBLIC 4adcc8 0 _ZN11QProxyStyleD0Ev
PUBLIC 4adee4 0 _ZN11QProxyStyle6polishEP7QWidget
PUBLIC 4adf10 0 _ZN11QProxyStyle6polishER8QPalette
PUBLIC 4adf3c 0 _ZN11QProxyStyle6polishEP12QApplication
PUBLIC 4adf68 0 _ZN11QProxyStyle8unpolishEP7QWidget
PUBLIC 4adf94 0 _ZN11QProxyStyle8unpolishEP12QApplication
PUBLIC 4adfc0 0 _ZN11QProxyStyle5eventEP6QEvent
PUBLIC 4adfec 0 _ZNK11QProxyStyle13drawPrimitiveEN6QStyle16PrimitiveElementEPK12QStyleOptionP8QPainterPK7QWidget
PUBLIC 4ae038 0 _ZNK11QProxyStyle11drawControlEN6QStyle14ControlElementEPK12QStyleOptionP8QPainterPK7QWidget
PUBLIC 4ae084 0 _ZNK11QProxyStyle18drawComplexControlEN6QStyle14ComplexControlEPK19QStyleOptionComplexP8QPainterPK7QWidget
PUBLIC 4ae0d0 0 _ZNK11QProxyStyle12drawItemTextEP8QPainterRK5QRectiRK8QPalettebRK7QStringNS5_9ColorRoleE
PUBLIC 4ae130 0 _ZNK11QProxyStyle14drawItemPixmapEP8QPainterRK5QRectiRK7QPixmap
PUBLIC 4ae17c 0 _ZNK11QProxyStyle16sizeFromContentsEN6QStyle12ContentsTypeEPK12QStyleOptionRK5QSizePK7QWidget
PUBLIC 4ae1d4 0 _ZNK11QProxyStyle14subElementRectEN6QStyle10SubElementEPK12QStyleOptionPK7QWidget
PUBLIC 4ae224 0 _ZNK11QProxyStyle14subControlRectEN6QStyle14ComplexControlEPK19QStyleOptionComplexNS0_10SubControlEPK7QWidget
PUBLIC 4ae27c 0 _ZNK11QProxyStyle12itemTextRectERK12QFontMetricsRK5QRectibRK7QString
PUBLIC 4ae2d8 0 _ZNK11QProxyStyle14itemPixmapRectERK5QRectiRK7QPixmap
PUBLIC 4ae328 0 _ZNK11QProxyStyle21hitTestComplexControlEN6QStyle14ComplexControlEPK19QStyleOptionComplexRK6QPointPK7QWidget
PUBLIC 4ae374 0 _ZNK11QProxyStyle9styleHintEN6QStyle9StyleHintEPK12QStyleOptionPK7QWidgetP16QStyleHintReturn
PUBLIC 4ae3c0 0 _ZNK11QProxyStyle11pixelMetricEN6QStyle11PixelMetricEPK12QStyleOptionPK7QWidget
PUBLIC 4ae3fc 0 _ZNK11QProxyStyle14standardPixmapEN6QStyle14StandardPixmapEPK12QStyleOptionPK7QWidget
PUBLIC 4ae44c 0 _ZNK11QProxyStyle19generatedIconPixmapEN5QIcon4ModeERK7QPixmapPK12QStyleOption
PUBLIC 4ae49c 0 _ZNK11QProxyStyle15standardPaletteEv
PUBLIC 4ae4cc 0 _ZN11QProxyStyleC1EP6QStyle
PUBLIC 4ae628 0 _ZNK11QProxyStyle9baseStyleEv
PUBLIC 4ae640 0 _ZN11QProxyStyle12setBaseStyleEP6QStyle
PUBLIC 4ae6c4 0 _ZNK11QProxyStyle26standardIconImplementationEN6QStyle14StandardPixmapEPK12QStyleOptionPK7QWidget
PUBLIC 4ae70c 0 _ZNK11QProxyStyle27layoutSpacingImplementationEN11QSizePolicy11ControlTypeES1_N2Qt11OrientationEPK12QStyleOptionPK7QWidget
PUBLIC 4cc078 0 _ZN22QStyleOptionDockWidgetD1Ev
PUBLIC 4cccb4 0 _ZN20QStyleOptionComboBoxD1Ev
PUBLIC 4ccd28 0 _ZN20QStyleOptionMenuItemD1Ev
PUBLIC 4ccdb0 0 _ZN20QStyleOptionGroupBoxD1Ev
PUBLIC 4d6dc8 0 _ZN9QCDEStyleD1Ev
PUBLIC 4d6dfc 0 _ZN9QCDEStyleD0Ev
PUBLIC 4d6e18 0 _ZNK9QCDEStyle15standardPaletteEv
PUBLIC 4d6fd8 0 _ZN9QCDEStyleC2Eb
PUBLIC 4d7010 0 _ZNK9QCDEStyle26standardIconImplementationEN6QStyle14StandardPixmapEPK12QStyleOptionPK7QWidget
PUBLIC 4d7034 0 _ZNK9QCDEStyle11pixelMetricEN6QStyle11PixelMetricEPK12QStyleOptionPK7QWidget
PUBLIC 4d7160 0 _ZNK9QCDEStyle11drawControlEN6QStyle14ControlElementEPK12QStyleOptionP8QPainterPK7QWidget
PUBLIC 4d7364 0 _ZNK9QCDEStyle13drawPrimitiveEN6QStyle16PrimitiveElementEPK12QStyleOptionP8QPainterPK7QWidget
PUBLIC 4d7bf4 0 _ZN15QPlastiqueStyleD2Ev
PUBLIC 4d7c28 0 _ZN15QPlastiqueStyleD0Ev
PUBLIC 4d7d40 0 _ZNK15QPlastiqueStyle15standardPaletteEv
PUBLIC 4d8c30 0 _ZN15QPlastiqueStyle6polishEP7QWidget
PUBLIC 4d8e6c 0 _ZNK15QPlastiqueStyle26standardIconImplementationEN6QStyle14StandardPixmapEPK12QStyleOptionPK7QWidget
PUBLIC 4d8e90 0 _ZNK15QPlastiqueStyle27layoutSpacingImplementationEN11QSizePolicy11ControlTypeES1_N2Qt11OrientationEPK12QStyleOptionPK7QWidget
PUBLIC 4d9228 0 _ZN15QPlastiqueStyleC1Ev
PUBLIC 4d94b4 0 _ZN15QPlastiqueStyle8unpolishEP7QWidget
PUBLIC 4d9728 0 _ZN15QPlastiqueStyle10timerEventEP11QTimerEvent
PUBLIC 4dce04 0 _ZNK15QPlastiqueStyle13drawPrimitiveEN6QStyle16PrimitiveElementEPK12QStyleOptionP8QPainterPK7QWidget
PUBLIC 4e2348 0 _ZNK15QPlastiqueStyle11drawControlEN6QStyle14ControlElementEPK12QStyleOptionP8QPainterPK7QWidget
PUBLIC 4ed2c4 0 _ZNK15QPlastiqueStyle18drawComplexControlEN6QStyle14ComplexControlEPK19QStyleOptionComplexP8QPainterPK7QWidget
PUBLIC 4f4728 0 _ZNK15QPlastiqueStyle16sizeFromContentsEN6QStyle12ContentsTypeEPK12QStyleOptionRK5QSizePK7QWidget
PUBLIC 4f4a00 0 _ZNK15QPlastiqueStyle14subElementRectEN6QStyle10SubElementEPK12QStyleOptionPK7QWidget
PUBLIC 4f4b00 0 _ZNK15QPlastiqueStyle14subControlRectEN6QStyle14ComplexControlEPK19QStyleOptionComplexNS0_10SubControlEPK7QWidget
PUBLIC 4f5760 0 _ZNK15QPlastiqueStyle9styleHintEN6QStyle9StyleHintEPK12QStyleOptionPK7QWidgetP16QStyleHintReturn
PUBLIC 4f5cd8 0 _ZNK15QPlastiqueStyle21hitTestComplexControlEN6QStyle14ComplexControlEPK19QStyleOptionComplexRK6QPointPK7QWidget
PUBLIC 4f5ec8 0 _ZNK15QPlastiqueStyle11pixelMetricEN6QStyle11PixelMetricEPK12QStyleOptionPK7QWidget
PUBLIC 4f61ec 0 _ZN15QPlastiqueStyle6polishEP12QApplication
PUBLIC 4f61f0 0 _ZN15QPlastiqueStyle6polishER8QPalette
PUBLIC 4f61f4 0 _ZN15QPlastiqueStyle8unpolishEP12QApplication
PUBLIC 4f61f8 0 _ZNK15QPlastiqueStyle14standardPixmapEN6QStyle14StandardPixmapEPK12QStyleOptionPK7QWidget
PUBLIC 4f621c 0 _ZN15QPlastiqueStyle11eventFilterEP7QObjectP6QEvent
PUBLIC 4f6a58 0 _ZN16QCleanlooksStyleD2Ev
PUBLIC 4f6a8c 0 _ZN16QCleanlooksStyleD0Ev
PUBLIC 4f6aa8 0 _ZNK16QCleanlooksStyle12drawItemTextEP8QPainterRK5QRectiRK8QPalettebRK7QStringNS5_9ColorRoleE
PUBLIC 4f6ce4 0 _ZN16QCleanlooksStyleC1Ev
PUBLIC 4f6de4 0 _ZN16QCleanlooksStyleC2ER23QCleanlooksStylePrivate
PUBLIC 4f6e1c 0 _ZNK16QCleanlooksStyle26standardIconImplementationEN6QStyle14StandardPixmapEPK12QStyleOptionPK7QWidget
PUBLIC 4f7b14 0 _ZNK16QCleanlooksStyle13drawPrimitiveEN6QStyle16PrimitiveElementEPK12QStyleOptionP8QPainterPK7QWidget
PUBLIC 4fb6c4 0 _ZNK16QCleanlooksStyle11drawControlEN6QStyle14ControlElementEPK12QStyleOptionP8QPainterPK7QWidget
PUBLIC 500728 0 _ZNK16QCleanlooksStyle15standardPaletteEv
PUBLIC 500cfc 0 _ZNK16QCleanlooksStyle18drawComplexControlEN6QStyle14ComplexControlEPK19QStyleOptionComplexP8QPainterPK7QWidget
PUBLIC 5089b4 0 _ZNK16QCleanlooksStyle11pixelMetricEN6QStyle11PixelMetricEPK12QStyleOptionPK7QWidget
PUBLIC 508ba4 0 _ZNK16QCleanlooksStyle16sizeFromContentsEN6QStyle12ContentsTypeEPK12QStyleOptionRK5QSizePK7QWidget
PUBLIC 509028 0 _ZN16QCleanlooksStyle6polishEP12QApplication
PUBLIC 50902c 0 _ZN16QCleanlooksStyle6polishEP7QWidget
PUBLIC 50918c 0 _ZN16QCleanlooksStyle6polishER8QPalette
PUBLIC 50931c 0 _ZN16QCleanlooksStyle8unpolishEP7QWidget
PUBLIC 50947c 0 _ZN16QCleanlooksStyle8unpolishEP12QApplication
PUBLIC 509480 0 _ZNK16QCleanlooksStyle14subControlRectEN6QStyle14ComplexControlEPK19QStyleOptionComplexNS0_10SubControlEPK7QWidget
PUBLIC 50a064 0 _ZNK16QCleanlooksStyle14itemPixmapRectERK5QRectiRK7QPixmap
PUBLIC 50a088 0 _ZNK16QCleanlooksStyle14drawItemPixmapEP8QPainterRK5QRectiRK7QPixmap
PUBLIC 50a08c 0 _ZNK16QCleanlooksStyle21hitTestComplexControlEN6QStyle14ComplexControlEPK19QStyleOptionComplexRK6QPointPK7QWidget
PUBLIC 50a090 0 _ZNK16QCleanlooksStyle19generatedIconPixmapEN5QIcon4ModeERK7QPixmapPK12QStyleOption
PUBLIC 50a0b4 0 _ZNK16QCleanlooksStyle9styleHintEN6QStyle9StyleHintEPK12QStyleOptionPK7QWidgetP16QStyleHintReturn
PUBLIC 50a5b4 0 _ZNK16QCleanlooksStyle14subElementRectEN6QStyle10SubElementEPK12QStyleOptionPK7QWidget
PUBLIC 50a6b4 0 _ZNK16QCleanlooksStyle14standardPixmapEN6QStyle14StandardPixmapEPK12QStyleOptionPK7QWidget
PUBLIC 50aafc 0 _ZN13QWindowsStyleD2Ev
PUBLIC 50ab30 0 _ZN13QWindowsStyleD0Ev
PUBLIC 50abac 0 _ZN13QWindowsStyleC1ER20QWindowsStylePrivate
PUBLIC 50ad60 0 _ZN13QWindowsStyleC1Ev
PUBLIC 50adb8 0 _ZN13QWindowsStyle10timerEventEP11QTimerEvent
PUBLIC 50af04 0 _ZN13QWindowsStyle11eventFilterEP7QObjectP6QEvent
PUBLIC 50b4b0 0 _ZN13QWindowsStyle6polishEP12QApplication
PUBLIC 50b658 0 _ZN13QWindowsStyle8unpolishEP12QApplication
PUBLIC 50b678 0 _ZN13QWindowsStyle6polishEP7QWidget
PUBLIC 50b6c4 0 _ZN13QWindowsStyle8unpolishEP7QWidget
PUBLIC 50b72c 0 _ZN13QWindowsStyle6polishER8QPalette
PUBLIC 50b730 0 _ZNK13QWindowsStyle11pixelMetricEN6QStyle11PixelMetricEPK12QStyleOptionPK7QWidget
PUBLIC 50ba74 0 _ZNK13QWindowsStyle14standardPixmapEN6QStyle14StandardPixmapEPK12QStyleOptionPK7QWidget
PUBLIC 50bc0c 0 _ZNK13QWindowsStyle9styleHintEN6QStyle9StyleHintEPK12QStyleOptionPK7QWidgetP16QStyleHintReturn
PUBLIC 50befc 0 _ZNK13QWindowsStyle26standardIconImplementationEN6QStyle14StandardPixmapEPK12QStyleOptionPK7QWidget
PUBLIC 50bfa0 0 _ZNK13QWindowsStyle13drawPrimitiveEN6QStyle16PrimitiveElementEPK12QStyleOptionP8QPainterPK7QWidget
PUBLIC 50e9f0 0 _ZNK13QWindowsStyle11drawControlEN6QStyle14ControlElementEPK12QStyleOptionP8QPainterPK7QWidget
PUBLIC 5131cc 0 _ZNK13QWindowsStyle14subElementRectEN6QStyle10SubElementEPK12QStyleOptionPK7QWidget
PUBLIC 5133ac 0 _ZNK13QWindowsStyle18drawComplexControlEN6QStyle14ComplexControlEPK19QStyleOptionComplexP8QPainterPK7QWidget
PUBLIC 515248 0 _ZNK13QWindowsStyle16sizeFromContentsEN6QStyle12ContentsTypeEPK12QStyleOptionRK5QSizePK7QWidget
PUBLIC 515858 0 _ZN11QMotifStyleD2Ev
PUBLIC 5158c8 0 _ZN11QMotifStyleD0Ev
PUBLIC 5158e4 0 _ZNK11QMotifStyle15standardPaletteEv
PUBLIC 515ab0 0 _ZN11QMotifStyle6polishER8QPalette
PUBLIC 515db8 0 _ZN11QMotifStyleC1ER18QMotifStylePrivateb
PUBLIC 515e00 0 _ZNK11QMotifStyle26standardIconImplementationEN6QStyle14StandardPixmapEPK12QStyleOptionPK7QWidget
PUBLIC 515f34 0 _ZN11QMotifStyleC1Eb
PUBLIC 515f9c 0 _ZN11QMotifStyle21setUseHighlightColorsEb
PUBLIC 515fa4 0 _ZNK11QMotifStyle18useHighlightColorsEv
PUBLIC 516208 0 _ZN11QMotifStyle10timerEventEP11QTimerEvent
PUBLIC 516348 0 _ZN11QMotifStyle11eventFilterEP7QObjectP6QEvent
PUBLIC 516488 0 _ZN11QMotifStyle6polishEP7QWidget
PUBLIC 5164d4 0 _ZN11QMotifStyle8unpolishEP7QWidget
PUBLIC 51653c 0 _ZN11QMotifStyle6polishEP12QApplication
PUBLIC 516540 0 _ZN11QMotifStyle8unpolishEP12QApplication
PUBLIC 516544 0 _ZNK11QMotifStyle13drawPrimitiveEN6QStyle16PrimitiveElementEPK12QStyleOptionP8QPainterPK7QWidget
PUBLIC 518b60 0 _ZNK11QMotifStyle11drawControlEN6QStyle14ControlElementEPK12QStyleOptionP8QPainterPK7QWidget
PUBLIC 51bd5c 0 _ZNK11QMotifStyle18drawComplexControlEN6QStyle14ComplexControlEPK19QStyleOptionComplexP8QPainterPK7QWidget
PUBLIC 51df90 0 _ZNK11QMotifStyle11pixelMetricEN6QStyle11PixelMetricEPK12QStyleOptionPK7QWidget
PUBLIC 51e31c 0 _ZNK11QMotifStyle14subControlRectEN6QStyle14ComplexControlEPK19QStyleOptionComplexNS0_10SubControlEPK7QWidget
PUBLIC 51eb70 0 _ZNK11QMotifStyle16sizeFromContentsEN6QStyle12ContentsTypeEPK12QStyleOptionRK5QSizePK7QWidget
PUBLIC 51ee1c 0 _ZNK11QMotifStyle14subElementRectEN6QStyle10SubElementEPK12QStyleOptionPK7QWidget
PUBLIC 51f2f0 0 _ZNK11QMotifStyle14standardPixmapEN6QStyle14StandardPixmapEPK12QStyleOptionPK7QWidget
PUBLIC 51f6e4 0 _ZN11QMotifStyle5eventEP6QEvent
PUBLIC 51f83c 0 _ZNK11QMotifStyle9styleHintEN6QStyle9StyleHintEPK12QStyleOptionPK7QWidgetP16QStyleHintReturn
PUBLIC 51fc7c 0 _ZN15QAbstractButton13checkStateSetEv
PUBLIC 51fc80 0 _ZN12QButtonGroupD1Ev
PUBLIC 51fcfc 0 _ZN12QButtonGroupD0Ev
PUBLIC 51fd18 0 _ZNK15QAbstractButton9hitButtonERK6QPoint
PUBLIC 51fe58 0 _ZNK12QButtonGroup9exclusiveEv
PUBLIC 51fe64 0 _ZN12QButtonGroup12setExclusiveEb
PUBLIC 51fe70 0 _ZNK12QButtonGroup13checkedButtonEv
PUBLIC 51fe7c 0 _ZNK12QButtonGroup6buttonEi
PUBLIC 51febc 0 _ZNK12QButtonGroup2idEP15QAbstractButton
PUBLIC 51ff4c 0 _ZNK12QButtonGroup9checkedIdEv
PUBLIC 520250 0 _ZN15QAbstractButtonC2EP7QWidget
PUBLIC 5202e4 0 _ZN15QAbstractButtonC1ER22QAbstractButtonPrivateP7QWidget
PUBLIC 52034c 0 _ZNK15QAbstractButton4textEv
PUBLIC 520388 0 _ZN15QAbstractButton7setIconERK5QIcon
PUBLIC 5203bc 0 _ZNK15QAbstractButton4iconEv
PUBLIC 5203d8 0 _ZN15QAbstractButton11setShortcutERK12QKeySequence
PUBLIC 52041c 0 _ZN15QAbstractButton7setTextERK7QString
PUBLIC 5204ac 0 _ZNK15QAbstractButton8shortcutEv
PUBLIC 5204c8 0 _ZN15QAbstractButton12setCheckableEb
PUBLIC 5204ec 0 _ZNK15QAbstractButton11isCheckableEv
PUBLIC 5204fc 0 _ZNK15QAbstractButton9isCheckedEv
PUBLIC 5205c4 0 _ZN15QAbstractButton7setDownEb
PUBLIC 520644 0 _ZN15QAbstractButton15mousePressEventEP11QMouseEvent
PUBLIC 5206c4 0 _ZN15QAbstractButton14mouseMoveEventEP11QMouseEvent
PUBLIC 520788 0 _ZNK15QAbstractButton6isDownEv
PUBLIC 52079c 0 _ZN15QAbstractButton13setAutoRepeatEb
PUBLIC 5207e8 0 _ZNK15QAbstractButton10autoRepeatEv
PUBLIC 5207fc 0 _ZN15QAbstractButton18setAutoRepeatDelayEi
PUBLIC 520808 0 _ZNK15QAbstractButton15autoRepeatDelayEv
PUBLIC 520814 0 _ZN15QAbstractButton21setAutoRepeatIntervalEi
PUBLIC 520820 0 _ZNK15QAbstractButton18autoRepeatIntervalEv
PUBLIC 52082c 0 _ZN15QAbstractButton16setAutoExclusiveEb
PUBLIC 520848 0 _ZNK15QAbstractButton13autoExclusiveEv
PUBLIC 52085c 0 _ZNK15QAbstractButton5groupEv
PUBLIC 520868 0 _ZN15QAbstractButton12animateClickEi
PUBLIC 5208f4 0 _ZN15QAbstractButton5clickEv
PUBLIC 5209ac 0 _ZNK15QAbstractButton8iconSizeEv
PUBLIC 520a18 0 _ZN15QAbstractButton11setIconSizeERK5QSize
PUBLIC 520a84 0 _ZN12QButtonGroupC2EP7QObject
PUBLIC 520b8c 0 _ZN12QButtonGroup5setIdEP15QAbstractButtoni
PUBLIC 520c80 0 _ZN12QButtonGroup12removeButtonEP15QAbstractButton
PUBLIC 520d84 0 _ZN15QAbstractButtonD2Ev
PUBLIC 520de8 0 _ZThn8_N15QAbstractButtonD1Ev
PUBLIC 520df0 0 _ZN15QAbstractButtonD0Ev
PUBLIC 520e0c 0 _ZThn8_N15QAbstractButtonD0Ev
PUBLIC 520e14 0 _ZNK12QButtonGroup7buttonsEv
PUBLIC 5212dc 0 _ZN15QAbstractButton17mouseReleaseEventEP11QMouseEvent
PUBLIC 521364 0 _ZN15QAbstractButton15keyReleaseEventEP9QKeyEvent
PUBLIC 5213d8 0 _ZN15QAbstractButton10timerEventEP11QTimerEvent
PUBLIC 521550 0 _ZN15QAbstractButton10setCheckedEb
PUBLIC 5216a8 0 _ZN15QAbstractButton6toggleEv
PUBLIC 5216c0 0 _ZN15QAbstractButton14nextCheckStateEv
PUBLIC 5216f0 0 _ZN12QButtonGroup9addButtonEP15QAbstractButtoni
PUBLIC 521b2c 0 _ZN12QButtonGroup9addButtonEP15QAbstractButton
PUBLIC 5220b4 0 _ZN15QAbstractButton13keyPressEventEP9QKeyEvent
PUBLIC 522234 0 _ZN15QAbstractButton5eventEP6QEvent
PUBLIC 522340 0 _ZN15QAbstractButton12focusInEventEP11QFocusEvent
PUBLIC 522364 0 _ZN15QAbstractButton13focusOutEventEP11QFocusEvent
PUBLIC 52239c 0 _ZN15QAbstractButton11changeEventEP6QEvent
PUBLIC 522c78 0 _ZN15QAbstractSlider12sliderChangeENS_12SliderChangeE
PUBLIC 522ce4 0 _ZN15QAbstractSliderD2Ev
PUBLIC 522d20 0 _ZThn8_N15QAbstractSliderD1Ev
PUBLIC 522d28 0 _ZN15QAbstractSliderD0Ev
PUBLIC 522d44 0 _ZThn8_N15QAbstractSliderD0Ev
PUBLIC 522e08 0 _ZN15QAbstractSliderC2EP7QWidget
PUBLIC 522e84 0 _ZN15QAbstractSliderC2ER22QAbstractSliderPrivateP7QWidget
PUBLIC 522ed8 0 _ZN15QAbstractSlider14setOrientationEN2Qt11OrientationE
PUBLIC 522f6c 0 _ZNK15QAbstractSlider11orientationEv
PUBLIC 522f78 0 _ZNK15QAbstractSlider7minimumEv
PUBLIC 522f84 0 _ZNK15QAbstractSlider7maximumEv
PUBLIC 522f90 0 _ZN15QAbstractSlider13setSingleStepEi
PUBLIC 522fd8 0 _ZNK15QAbstractSlider10singleStepEv
PUBLIC 522fe4 0 _ZN15QAbstractSlider11setPageStepEi
PUBLIC 52302c 0 _ZNK15QAbstractSlider8pageStepEv
PUBLIC 523038 0 _ZN15QAbstractSlider11setTrackingEb
PUBLIC 523054 0 _ZNK15QAbstractSlider11hasTrackingEv
PUBLIC 523064 0 _ZNK15QAbstractSlider12isSliderDownEv
PUBLIC 523078 0 _ZNK15QAbstractSlider14sliderPositionEv
PUBLIC 523084 0 _ZNK15QAbstractSlider5valueEv
PUBLIC 523090 0 _ZN15QAbstractSlider8setValueEi
PUBLIC 523134 0 _ZN15QAbstractSlider8setRangeEii
PUBLIC 5231a0 0 _ZN15QAbstractSlider10setMinimumEi
PUBLIC 5231b4 0 _ZN15QAbstractSlider10setMaximumEi
PUBLIC 5231cc 0 _ZNK15QAbstractSlider18invertedAppearanceEv
PUBLIC 5231e0 0 _ZN15QAbstractSlider21setInvertedAppearanceEb
PUBLIC 5231fc 0 _ZNK15QAbstractSlider16invertedControlsEv
PUBLIC 523210 0 _ZN15QAbstractSlider19setInvertedControlsEb
PUBLIC 52322c 0 _ZN15QAbstractSlider13triggerActionENS_12SliderActionE
PUBLIC 52331c 0 _ZN15QAbstractSlider13setSliderDownEb
PUBLIC 52338c 0 _ZN15QAbstractSlider17setSliderPositionEi
PUBLIC 523414 0 _ZN15QAbstractSlider13keyPressEventEP9QKeyEvent
PUBLIC 523530 0 _ZN15QAbstractSlider10timerEventEP11QTimerEvent
PUBLIC 523668 0 _ZN15QAbstractSlider15setRepeatActionENS_12SliderActionEii
PUBLIC 5236a4 0 _ZNK15QAbstractSlider12repeatActionEv
PUBLIC 523848 0 _ZN15QAbstractSlider10wheelEventEP11QWheelEvent
PUBLIC 523894 0 _ZN15QAbstractSlider11changeEventEP6QEvent
PUBLIC 5238f4 0 _ZN15QAbstractSlider5eventEP6QEvent
PUBLIC 5238f8 0 _ZNK16QAbstractSpinBox8validateER7QStringRi
PUBLIC 523900 0 _ZNK16QAbstractSpinBox5fixupER7QString
PUBLIC 523904 0 _ZNK16QAbstractSpinBox16inputMethodQueryEN2Qt16InputMethodQueryE
PUBLIC 523928 0 _ZN16QAbstractSpinBox10wheelEventEP11QWheelEvent
PUBLIC 523a48 0 _ZNK16QAbstractSpinBox10metaObjectEv
PUBLIC 523a74 0 _ZN16QAbstractSpinBoxD2Ev
PUBLIC 523ab0 0 _ZThn8_N16QAbstractSpinBoxD1Ev
PUBLIC 523ab8 0 _ZN16QAbstractSpinBoxD0Ev
PUBLIC 523ad4 0 _ZThn8_N16QAbstractSpinBoxD0Ev
PUBLIC 523f18 0 _ZN16QAbstractSpinBox5clearEv
PUBLIC 523fe0 0 _ZNK16QAbstractSpinBox13buttonSymbolsEv
PUBLIC 523fec 0 _ZN16QAbstractSpinBox16setButtonSymbolsENS_13ButtonSymbolsE
PUBLIC 524020 0 _ZNK16QAbstractSpinBox16specialValueTextEv
PUBLIC 52405c 0 _ZN16QAbstractSpinBox19setSpecialValueTextERK7QString
PUBLIC 52409c 0 _ZNK16QAbstractSpinBox8wrappingEv
PUBLIC 5240b0 0 _ZN16QAbstractSpinBox11setWrappingEb
PUBLIC 5240cc 0 _ZNK16QAbstractSpinBox10isReadOnlyEv
PUBLIC 5240e0 0 _ZN16QAbstractSpinBox11setReadOnlyEb
PUBLIC 524114 0 _ZNK16QAbstractSpinBox16keyboardTrackingEv
PUBLIC 524128 0 _ZN16QAbstractSpinBox19setKeyboardTrackingEb
PUBLIC 524144 0 _ZNK16QAbstractSpinBox8hasFrameEv
PUBLIC 524158 0 _ZN16QAbstractSpinBox8setFrameEb
PUBLIC 52418c 0 _ZN16QAbstractSpinBox14setAcceleratedEb
PUBLIC 5241a8 0 _ZNK16QAbstractSpinBox13isAcceleratedEv
PUBLIC 5241bc 0 _ZN16QAbstractSpinBox17setCorrectionModeENS_14CorrectionModeE
PUBLIC 5241c8 0 _ZNK16QAbstractSpinBox14correctionModeEv
PUBLIC 5241d4 0 _ZNK16QAbstractSpinBox18hasAcceptableInputEv
PUBLIC 5241e0 0 _ZNK16QAbstractSpinBox9alignmentEv
PUBLIC 5241fc 0 _ZN16QAbstractSpinBox12setAlignmentE6QFlagsIN2Qt13AlignmentFlagEE
PUBLIC 524224 0 _ZN16QAbstractSpinBox6stepUpEv
PUBLIC 52423c 0 _ZN16QAbstractSpinBox8stepDownEv
PUBLIC 524254 0 _ZNK16QAbstractSpinBox8lineEditEv
PUBLIC 524260 0 _ZNK16QAbstractSpinBox4textEv
PUBLIC 524284 0 _ZN16QAbstractSpinBox11setLineEditEP9QLineEdit
PUBLIC 5243ec 0 _ZN16QAbstractSpinBox13interpretTextEv
PUBLIC 524be4 0 _ZN16QAbstractSpinBox9selectAllEv
PUBLIC 525104 0 _ZN16QAbstractSpinBox9showEventEP10QShowEvent
PUBLIC 52513c 0 _ZN16QAbstractSpinBox15keyReleaseEventEP9QKeyEvent
PUBLIC 525178 0 _ZN16QAbstractSpinBox10timerEventEP11QTimerEvent
PUBLIC 5252d8 0 _ZN16QAbstractSpinBox17mouseReleaseEventEP11QMouseEvent
PUBLIC 525304 0 _ZN16QAbstractSpinBox16contextMenuEventEP17QContextMenuEvent
PUBLIC 525794 0 _ZN16QAbstractSpinBox14mouseMoveEventEP11QMouseEvent
PUBLIC 52584c 0 _ZN16QAbstractSpinBox15mousePressEventEP11QMouseEvent
PUBLIC 525920 0 _ZNK16QAbstractSpinBox15initStyleOptionEP19QStyleOptionSpinBox
PUBLIC 525a1c 0 _ZNK16QAbstractSpinBox15minimumSizeHintEv
PUBLIC 525d00 0 _ZN16QAbstractSpinBox10paintEventEP11QPaintEvent
PUBLIC 525f00 0 _ZNK16QAbstractSpinBox8sizeHintEv
PUBLIC 526a8c 0 _ZN16QAbstractSpinBoxC1EP7QWidget
PUBLIC 526b1c 0 _ZN16QAbstractSpinBoxC1ER23QAbstractSpinBoxPrivateP7QWidget
PUBLIC 52749c 0 _ZN16QAbstractSpinBox6stepByEi
PUBLIC 527f58 0 _ZNK16QAbstractSpinBox11stepEnabledEv
PUBLIC 5282d4 0 _ZN16QAbstractSpinBox15editingFinishedEv
PUBLIC 5282f8 0 _ZN16QAbstractSpinBox13keyPressEventEP9QKeyEvent
PUBLIC 528814 0 _ZN16QAbstractSpinBox5eventEP6QEvent
PUBLIC 528904 0 _ZN16QAbstractSpinBox11changeEventEP6QEvent
PUBLIC 528a08 0 _ZN16QAbstractSpinBox11resizeEventEP12QResizeEvent
PUBLIC 528a34 0 _ZN16QAbstractSpinBox12focusInEventEP11QFocusEvent
PUBLIC 528a9c 0 _ZN16QAbstractSpinBox13focusOutEventEP11QFocusEvent
PUBLIC 528b10 0 _ZN16QAbstractSpinBox10closeEventEP11QCloseEvent
PUBLIC 528b58 0 _ZN16QAbstractSpinBox9hideEventEP10QHideEvent
PUBLIC 528ba0 0 _ZN16QAbstractSpinBox11qt_metacastEPKc
PUBLIC 528be4 0 _ZN16QAbstractSpinBox11qt_metacallEN11QMetaObject4CallEiPPv
PUBLIC 529288 0 _ZNK15QCalendarWidget8sizeHintEv
PUBLIC 529330 0 _ZNK15QCalendarWidget10metaObjectEv
PUBLIC 52955c 0 _ZN15QCalendarWidgetD2Ev
PUBLIC 529598 0 _ZThn8_N15QCalendarWidgetD1Ev
PUBLIC 5295a0 0 _ZN15QCalendarWidgetD0Ev
PUBLIC 5295bc 0 _ZThn8_N15QCalendarWidgetD0Ev
PUBLIC 52c4d4 0 _ZNK15QCalendarWidget12selectedDateEv
PUBLIC 52c4e4 0 _ZNK15QCalendarWidget9yearShownEv
PUBLIC 52c4f4 0 _ZNK15QCalendarWidget10monthShownEv
PUBLIC 52c504 0 _ZNK15QCalendarWidget11minimumDateEv
PUBLIC 52c514 0 _ZNK15QCalendarWidget11maximumDateEv
PUBLIC 52c524 0 _ZN15QCalendarWidget25setHorizontalHeaderFormatENS_22HorizontalHeaderFormatE
PUBLIC 52c564 0 _ZNK15QCalendarWidget22horizontalHeaderFormatEv
PUBLIC 52c574 0 _ZNK15QCalendarWidget20verticalHeaderFormatEv
PUBLIC 52c584 0 _ZNK15QCalendarWidget15minimumSizeHintEv
PUBLIC 52cd90 0 _ZN15QCalendarWidget23setVerticalHeaderFormatENS_20VerticalHeaderFormatE
PUBLIC 52cddc 0 _ZNK15QCalendarWidget13isGridVisibleEv
PUBLIC 52cde8 0 _ZN15QCalendarWidget14setGridVisibleEb
PUBLIC 52ce1c 0 _ZNK15QCalendarWidget13selectionModeEv
PUBLIC 52ce30 0 _ZN15QCalendarWidget17setFirstDayOfWeekEN2Qt9DayOfWeekE
PUBLIC 52ce5c 0 _ZNK15QCalendarWidget14firstDayOfWeekEv
PUBLIC 52ce6c 0 _ZNK15QCalendarWidget16headerTextFormatEv
PUBLIC 52ce8c 0 _ZN15QCalendarWidget19setHeaderTextFormatERK15QTextCharFormat
PUBLIC 52cec4 0 _ZNK15QCalendarWidget17weekdayTextFormatEN2Qt9DayOfWeekE
PUBLIC 52cf68 0 _ZNK15QCalendarWidget14dateTextFormatERK5QDate
PUBLIC 52d014 0 _ZNK15QCalendarWidget17isDateEditEnabledEv
PUBLIC 52d020 0 _ZN15QCalendarWidget16setSelectionModeENS_13SelectionModeE
PUBLIC 52d070 0 _ZN15QCalendarWidget18setDateEditEnabledEb
PUBLIC 52d0c4 0 _ZNK15QCalendarWidget19dateEditAcceptDelayEv
PUBLIC 52d0d4 0 _ZN15QCalendarWidget22setDateEditAcceptDelayEi
PUBLIC 52d0e4 0 _ZN15QCalendarWidget10updateCellERK5QDate
PUBLIC 52d1ec 0 _ZN15QCalendarWidget11updateCellsEv
PUBLIC 52d214 0 _ZNK15QCalendarWidget15isHeaderVisibleEv
PUBLIC 52d220 0 _ZN15QCalendarWidget23setNavigationBarVisibleEb
PUBLIC 52d258 0 _ZN15QCalendarWidget16setHeaderVisibleEb
PUBLIC 52d32c 0 _ZN15QCalendarWidget16selectionChangedEv
PUBLIC 52d350 0 _ZN15QCalendarWidget7clickedERK5QDate
PUBLIC 52d390 0 _ZN15QCalendarWidget9activatedERK5QDate
PUBLIC 52d3e0 0 _ZN15QCalendarWidget18currentPageChangedEii
PUBLIC 52ddf4 0 _ZN15QCalendarWidget11eventFilterEP7QObjectP6QEvent
PUBLIC 52df14 0 _ZN15QCalendarWidget11resizeEventEP12QResizeEvent
PUBLIC 52e024 0 _ZN15QCalendarWidget15setSelectedDateERK5QDate
PUBLIC 52e0fc 0 _ZN15QCalendarWidget14setCurrentPageEii
PUBLIC 52e228 0 _ZN15QCalendarWidget13showNextMonthEv
PUBLIC 52e260 0 _ZN15QCalendarWidget17showPreviousMonthEv
PUBLIC 52e298 0 _ZN15QCalendarWidget12showNextYearEv
PUBLIC 52e2c4 0 _ZN15QCalendarWidget16showPreviousYearEv
PUBLIC 52e2f0 0 _ZN15QCalendarWidget16showSelectedDateEv
PUBLIC 52e334 0 _ZN15QCalendarWidget9showTodayEv
PUBLIC 52ec28 0 _ZN15QCalendarWidget14setMinimumDateERK5QDate
PUBLIC 52ecf4 0 _ZN15QCalendarWidget14setMaximumDateERK5QDate
PUBLIC 52edc0 0 _ZN15QCalendarWidget12setDateRangeERK5QDateS2_
PUBLIC 52f044 0 _ZN15QCalendarWidget20setWeekdayTextFormatEN2Qt9DayOfWeekERK15QTextCharFormat
PUBLIC 52f12c 0 _ZN15QCalendarWidgetC1EP7QWidget
PUBLIC 52f7d0 0 _ZN15QCalendarWidget17setDateTextFormatERK5QDateRK15QTextCharFormat
PUBLIC 52fa34 0 _ZNK15QCalendarWidget14dateTextFormatEv
PUBLIC 5313cc 0 _ZNK15QCalendarWidget9paintCellEP8QPainterRK5QRectRK5QDate
PUBLIC 5313d8 0 _ZN15QCalendarWidget5eventEP6QEvent
PUBLIC 53147c 0 _ZN15QCalendarWidget15mousePressEventEP11QMouseEvent
PUBLIC 5314b0 0 _ZN15QCalendarWidget13keyPressEventEP9QKeyEvent
PUBLIC 5316dc 0 _ZN15QCalendarWidget11qt_metacastEPKc
PUBLIC 531728 0 _ZN15QCalendarWidget11qt_metacallEN11QMetaObject4CallEiPPv
PUBLIC 532c48 0 _ZNK9QCheckBox15initStyleOptionEP18QStyleOptionButton
PUBLIC 532d34 0 _ZN9QCheckBoxC2EP7QWidget
PUBLIC 532dd8 0 _ZN9QCheckBoxC2ERK7QStringP7QWidget
PUBLIC 532e8c 0 _ZN9QCheckBox11setTristateEb
PUBLIC 532ea8 0 _ZNK9QCheckBox10isTristateEv
PUBLIC 532eb8 0 _ZNK9QCheckBox10checkStateEv
PUBLIC 532ed8 0 _ZN9QCheckBox13checkStateSetEv
PUBLIC 532f28 0 _ZN9QCheckBox13setCheckStateEN2Qt10CheckStateE
PUBLIC 532fac 0 _ZN9QCheckBox10paintEventEP11QPaintEvent
PUBLIC 5330c0 0 _ZNK9QCheckBox9hitButtonERK6QPoint
PUBLIC 5331a4 0 _ZNK9QCheckBox8sizeHintEv
PUBLIC 533434 0 _ZN9QCheckBox14mouseMoveEventEP11QMouseEvent
PUBLIC 533500 0 _ZN9QCheckBox14nextCheckStateEv
PUBLIC 533554 0 _ZN9QCheckBox5eventEP6QEvent
PUBLIC 533780 0 _ZN9QComboBox9hideEventEP10QHideEvent
PUBLIC 533794 0 _ZN9QComboBox15keyReleaseEventEP9QKeyEvent
PUBLIC 5337b8 0 _ZNK9QComboBox10metaObjectEv
PUBLIC 5337ec 0 _ZN9QComboBox13focusOutEventEP11QFocusEvent
PUBLIC 53381c 0 _ZNK9QComboBox16inputMethodQueryEN2Qt16InputMethodQueryE
PUBLIC 533858 0 _ZN9QComboBoxD1Ev
PUBLIC 5338cc 0 _ZThn8_N9QComboBoxD1Ev
PUBLIC 5338d4 0 _ZN9QComboBoxD0Ev
PUBLIC 5338f0 0 _ZThn8_N9QComboBoxD0Ev
PUBLIC 53392c 0 _ZN9QComboBox9showEventEP10QShowEvent
PUBLIC 53398c 0 _ZN9QComboBox12focusInEventEP11QFocusEvent
PUBLIC 5339e0 0 _ZN9QComboBox16contextMenuEventEP17QContextMenuEvent
PUBLIC 5341c4 0 _ZNK9QComboBox15maxVisibleItemsEv
PUBLIC 5341d0 0 _ZN9QComboBox18setMaxVisibleItemsEi
PUBLIC 5341f0 0 _ZNK9QComboBox5countEv
PUBLIC 53421c 0 _ZN9QComboBox11setMaxCountEi
PUBLIC 534294 0 _ZNK9QComboBox8maxCountEv
PUBLIC 5342a0 0 _ZNK9QComboBox14autoCompletionEv
PUBLIC 5342b4 0 _ZN9QComboBox17setAutoCompletionEb
PUBLIC 534380 0 _ZNK9QComboBox29autoCompletionCaseSensitivityEv
PUBLIC 53438c 0 _ZN9QComboBox32setAutoCompletionCaseSensitivityEN2Qt15CaseSensitivityE
PUBLIC 5343c8 0 _ZNK9QComboBox17duplicatesEnabledEv
PUBLIC 5343dc 0 _ZN9QComboBox20setDuplicatesEnabledEb
PUBLIC 5343f8 0 _ZNK9QComboBox12insertPolicyEv
PUBLIC 534404 0 _ZN9QComboBox15setInsertPolicyENS_12InsertPolicyE
PUBLIC 534410 0 _ZNK9QComboBox16sizeAdjustPolicyEv
PUBLIC 534460 0 _ZNK9QComboBox21minimumContentsLengthEv
PUBLIC 53446c 0 _ZNK9QComboBox8iconSizeEv
PUBLIC 5344d8 0 _ZNK9QComboBox10isEditableEv
PUBLIC 5353c4 0 _ZNK9QComboBox8lineEditEv
PUBLIC 5353d0 0 _ZN9QComboBox12setValidatorEPK10QValidator
PUBLIC 5353e4 0 _ZNK9QComboBox9validatorEv
PUBLIC 5353f8 0 _ZN9QComboBox12setCompleterEP10QCompleter
PUBLIC 535430 0 _ZNK9QComboBox9completerEv
PUBLIC 535444 0 _ZNK9QComboBox14rootModelIndexEv
PUBLIC 535470 0 _ZNK9QComboBox12currentIndexEv
PUBLIC 5363e0 0 _ZNK9QComboBox11currentTextEv
PUBLIC 536478 0 _ZNK9QComboBox15initStyleOptionEP20QStyleOptionComboBox
PUBLIC 5366e4 0 _ZN9QComboBox17mouseReleaseEventEP11QMouseEvent
PUBLIC 5369b4 0 _ZN9QComboBox10paintEventEP11QPaintEvent
PUBLIC 536b10 0 _ZNK9QComboBox8itemTextEi
PUBLIC 536b74 0 _ZNK9QComboBox8itemIconEi
PUBLIC 537338 0 _ZNK9QComboBox15minimumSizeHintEv
PUBLIC 537354 0 _ZNK9QComboBox8sizeHintEv
PUBLIC 53753c 0 _ZN9QComboBox11setLineEditEP9QLineEdit
PUBLIC 53772c 0 _ZN9QComboBox11resizeEventEP12QResizeEvent
PUBLIC 537734 0 _ZN9QComboBox5eventEP6QEvent
PUBLIC 5377c8 0 _ZNK9QComboBox8itemDataEii
PUBLIC 53783c 0 _ZN9QComboBox10removeItemEi
PUBLIC 537884 0 _ZN9QComboBox11setItemTextEiRK7QString
PUBLIC 53793c 0 _ZN9QComboBox11setItemIconEiRK5QIcon
PUBLIC 5379f4 0 _ZN9QComboBox11setItemDataEiRK8QVarianti
PUBLIC 537a88 0 _ZN9QComboBox5clearEv
PUBLIC 537adc 0 _ZN9QComboBox13clearEditTextEv
PUBLIC 537af0 0 _ZN9QComboBox11setEditTextERK7QString
PUBLIC 537b04 0 _ZNK9QComboBox8hasFrameEv
PUBLIC 537b18 0 _ZN9QComboBox8setFrameEb
PUBLIC 537b48 0 _ZNK9QComboBox11modelColumnEv
PUBLIC 537b54 0 _ZN9QComboBox15editTextChangedERK7QString
PUBLIC 537b90 0 _ZN9QComboBox9activatedEi
PUBLIC 537bd4 0 _ZN9QComboBox9activatedERK7QString
PUBLIC 537cc8 0 _ZN9QComboBox11highlightedEi
PUBLIC 537d0c 0 _ZN9QComboBox11highlightedERK7QString
PUBLIC 537e00 0 _ZN9QComboBox19currentIndexChangedEi
PUBLIC 537e44 0 _ZN9QComboBox19currentIndexChangedERK7QString
PUBLIC 5382d8 0 _ZN9QComboBox15setCurrentIndexEi
PUBLIC 538330 0 _ZNK9QComboBox8findDataERK8QVarianti6QFlagsIN2Qt9MatchFlagEE
PUBLIC 539100 0 _ZN9QComboBox10insertItemEiRK5QIconRK7QStringRK8QVariant
PUBLIC 539be0 0 _ZN9QComboBox15insertSeparatorEi
PUBLIC 539e20 0 _ZN9QComboBox11insertItemsEiRK11QStringList
PUBLIC 53a288 0 _ZN9QComboBox19setSizeAdjustPolicyENS_16SizeAdjustPolicyE
PUBLIC 53a2c0 0 _ZN9QComboBox24setMinimumContentsLengthEi
PUBLIC 53a344 0 _ZN9QComboBox8setModelEP18QAbstractItemModel
PUBLIC 53a7b4 0 _ZN9QComboBoxC1EP7QWidget
PUBLIC 53a844 0 _ZN9QComboBoxC2ER16QComboBoxPrivateP7QWidget
PUBLIC 53a8ac 0 _ZNK9QComboBox5modelEv
PUBLIC 53a90c 0 _ZNK9QComboBox4viewEv
PUBLIC 53a920 0 _ZN9QComboBox11setIconSizeERK5QSize
PUBLIC 53a988 0 _ZNK9QComboBox12itemDelegateEv
PUBLIC 53a998 0 _ZN9QComboBox15setItemDelegateEP21QAbstractItemDelegate
PUBLIC 53abb4 0 _ZN9QComboBox17setRootModelIndexERK11QModelIndex
PUBLIC 53ac20 0 _ZN9QComboBox11setEditableEb
PUBLIC 53ae08 0 _ZN9QComboBox7setViewEP17QAbstractItemView
PUBLIC 53ae64 0 _ZN9QComboBox9showPopupEv
PUBLIC 53ba68 0 _ZN9QComboBox15mousePressEventEP11QMouseEvent
PUBLIC 53bc00 0 _ZN9QComboBox10wheelEventEP11QWheelEvent
PUBLIC 53be5c 0 _ZN9QComboBox13keyPressEventEP9QKeyEvent
PUBLIC 53c300 0 _ZN9QComboBox16inputMethodEventEP17QInputMethodEvent
PUBLIC 53c358 0 _ZN9QComboBox14setModelColumnEi
PUBLIC 53c400 0 _ZN9QComboBox11changeEventEP6QEvent
PUBLIC 53c510 0 _ZN9QComboBox9hidePopupEv
PUBLIC 53c72c 0 _ZN9QComboBox11qt_metacastEPKc
PUBLIC 53c770 0 _ZN9QComboBox11qt_metacallEN11QMetaObject4CallEiPPv
PUBLIC 53d838 0 _ZNK18QCommandLinkButton15minimumSizeHintEv
PUBLIC 53dc70 0 _ZNK18QCommandLinkButton14heightForWidthEi
PUBLIC 53dd10 0 _ZN18QCommandLinkButtonC1EP7QWidget
PUBLIC 53de0c 0 _ZN18QCommandLinkButtonC1ERK7QStringP7QWidget
PUBLIC 53df1c 0 _ZN18QCommandLinkButton14setDescriptionERK7QString
PUBLIC 53df44 0 _ZN18QCommandLinkButtonC2ERK7QStringS2_P7QWidget
PUBLIC 53e064 0 _ZNK18QCommandLinkButton11descriptionEv
PUBLIC 53e0a0 0 _ZN18QCommandLinkButton5eventEP6QEvent
PUBLIC 53e0a4 0 _ZNK18QCommandLinkButton8sizeHintEv
PUBLIC 53e1e8 0 _ZN18QCommandLinkButton10paintEventEP11QPaintEvent
PUBLIC 53ee30 0 _ZNK13QDateTimeEdit10metaObjectEv
PUBLIC 53ee5c 0 _ZNK9QTimeEdit10metaObjectEv
PUBLIC 53ee88 0 _ZNK9QDateEdit10metaObjectEv
PUBLIC 53eff8 0 _ZNK13QDateTimeEdit16textFromDateTimeERK9QDateTime
PUBLIC 53f3f4 0 _ZNK13QDateTimeEdit8dateTimeEv
PUBLIC 53f410 0 _ZNK13QDateTimeEdit4dateEv
PUBLIC 53f424 0 _ZNK13QDateTimeEdit4timeEv
PUBLIC 53f438 0 _ZN13QDateTimeEdit7setTimeERK5QTime
PUBLIC 53f4e8 0 _ZNK13QDateTimeEdit15minimumDateTimeEv
PUBLIC 53f504 0 _ZN13QDateTimeEdit18setMinimumDateTimeERK9QDateTime
PUBLIC 53f620 0 _ZN13QDateTimeEdit20clearMinimumDateTimeEv
PUBLIC 53f6a8 0 _ZNK13QDateTimeEdit15maximumDateTimeEv
PUBLIC 53f6c4 0 _ZN13QDateTimeEdit18setMaximumDateTimeERK9QDateTime
PUBLIC 53f7e4 0 _ZN13QDateTimeEdit20clearMaximumDateTimeEv
PUBLIC 53f870 0 _ZN13QDateTimeEdit16setDateTimeRangeERK9QDateTimeS2_
PUBLIC 53f954 0 _ZNK13QDateTimeEdit11minimumDateEv
PUBLIC 53f968 0 _ZN13QDateTimeEdit14setMinimumDateERK5QDate
PUBLIC 53fa08 0 _ZN13QDateTimeEdit16clearMinimumDateEv
PUBLIC 53fa44 0 _ZNK13QDateTimeEdit11maximumDateEv
PUBLIC 53fa58 0 _ZN13QDateTimeEdit14setMaximumDateERK5QDate
PUBLIC 53fad0 0 _ZN13QDateTimeEdit16clearMaximumDateEv
PUBLIC 53fb0c 0 _ZNK13QDateTimeEdit11minimumTimeEv
PUBLIC 53fb20 0 _ZN13QDateTimeEdit14setMinimumTimeERK5QTime
PUBLIC 53fb94 0 _ZN13QDateTimeEdit16clearMinimumTimeEv
PUBLIC 53fbd0 0 _ZNK13QDateTimeEdit11maximumTimeEv
PUBLIC 53fbe4 0 _ZN13QDateTimeEdit14setMaximumTimeERK5QTime
PUBLIC 53fc58 0 _ZN13QDateTimeEdit16clearMaximumTimeEv
PUBLIC 53fc9c 0 _ZN13QDateTimeEdit12setDateRangeERK5QDateS2_
PUBLIC 53fd64 0 _ZN13QDateTimeEdit11setDateTimeERK9QDateTime
PUBLIC 53fe64 0 _ZN13QDateTimeEdit12setTimeRangeERK5QTimeS2_
PUBLIC 53ff2c 0 _ZNK13QDateTimeEdit17displayedSectionsEv
PUBLIC 53ff3c 0 _ZNK13QDateTimeEdit12sectionCountEv
PUBLIC 53ff4c 0 _ZNK13QDateTimeEdit19currentSectionIndexEv
PUBLIC 53ff58 0 _ZN13QDateTimeEdit22setCurrentSectionIndexEi
PUBLIC 53ff94 0 _ZNK13QDateTimeEdit13displayFormatEv
PUBLIC 53ffe4 0 _ZNK13QDateTimeEdit13calendarPopupEv
PUBLIC 53fff0 0 _ZN13QDateTimeEdit16setCalendarPopupEb
PUBLIC 540038 0 _ZNK13QDateTimeEdit8timeSpecEv
PUBLIC 5401bc 0 _ZN13QDateTimeEdit7setDateERK5QDate
PUBLIC 540290 0 _ZN13QDateTimeEdit11setTimeSpecEN2Qt8TimeSpecE
PUBLIC 540514 0 _ZN13QDateTimeEdit5clearEv
PUBLIC 540c90 0 _ZN13QDateTimeEdit18focusNextPrevChildEb
PUBLIC 5414ac 0 _ZNK13QDateTimeEdit16dateTimeFromTextERK7QString
PUBLIC 54156c 0 _ZNK13QDateTimeEdit8validateER7QStringRi
PUBLIC 5415b8 0 _ZNK13QDateTimeEdit5fixupER7QString
PUBLIC 541f80 0 _ZN13QDateTimeEdit6stepByEi
PUBLIC 54210c 0 _ZNK13QDateTimeEdit11stepEnabledEv
PUBLIC 542468 0 _ZN13QDateTimeEdit17setCurrentSectionENS_7SectionE
PUBLIC 542570 0 _ZNK13QDateTimeEdit14currentSectionEv
PUBLIC 54258c 0 _ZN13QDateTimeEdit18setSelectedSectionENS_7SectionE
PUBLIC 5425f8 0 _ZNK13QDateTimeEdit9sectionAtEi
PUBLIC 542714 0 _ZNK13QDateTimeEdit11sectionTextENS_7SectionE
PUBLIC 542898 0 _ZNK13QDateTimeEdit15initStyleOptionEP19QStyleOptionSpinBox
PUBLIC 5428e8 0 _ZNK13QDateTimeEdit8sizeHintEv
PUBLIC 543830 0 _ZNK13QDateTimeEdit14calendarWidgetEv
PUBLIC 543874 0 _ZN13QDateTimeEdit17setCalendarWidgetEP15QCalendarWidget
PUBLIC 543954 0 _ZN13QDateTimeEdit15dateTimeChangedERK9QDateTime
PUBLIC 543990 0 _ZN13QDateTimeEdit11timeChangedERK5QTime
PUBLIC 5439d0 0 _ZN13QDateTimeEdit11dateChangedERK5QDate
PUBLIC 544050 0 _ZN13QDateTimeEdit16setDisplayFormatERK7QString
PUBLIC 544984 0 _ZN13QDateTimeEditC2EP7QWidget
PUBLIC 544a94 0 _ZN13QDateTimeEditC1ERK9QDateTimeP7QWidget
PUBLIC 544be0 0 _ZN13QDateTimeEditC1ERK5QDateP7QWidget
PUBLIC 544ccc 0 _ZN13QDateTimeEditC2ERK5QTimeP7QWidget
PUBLIC 544dbc 0 _ZN13QDateTimeEditC2ERK8QVariantNS0_4TypeEP7QWidget
PUBLIC 544e4c 0 _ZN9QTimeEditC1EP7QWidget
PUBLIC 544ee4 0 _ZN9QTimeEditC2ERK5QTimeP7QWidget
PUBLIC 544f58 0 _ZN9QDateEditC1EP7QWidget
PUBLIC 544fec 0 _ZN9QDateEditC2ERK5QDateP7QWidget
PUBLIC 545060 0 _ZN13QDateTimeEdit5eventEP6QEvent
PUBLIC 5451e8 0 _ZN13QDateTimeEdit13keyPressEventEP9QKeyEvent
PUBLIC 5456d0 0 _ZN13QDateTimeEdit10wheelEventEP11QWheelEvent
PUBLIC 5456d4 0 _ZN13QDateTimeEdit12focusInEventEP11QFocusEvent
PUBLIC 54581c 0 _ZN13QDateTimeEdit15mousePressEventEP11QMouseEvent
PUBLIC 5458c0 0 _ZN13QDateTimeEdit10paintEventEP11QPaintEvent
PUBLIC 545f9c 0 _ZN13QDateTimeEdit11qt_metacastEPKc
PUBLIC 545fe0 0 _ZN9QTimeEdit11qt_metacastEPKc
PUBLIC 54602c 0 _ZN9QDateEdit11qt_metacastEPKc
PUBLIC 546078 0 _ZN13QDateTimeEdit11qt_metacallEN11QMetaObject4CallEiPPv
PUBLIC 54651c 0 _ZN9QTimeEdit11qt_metacallEN11QMetaObject4CallEiPPv
PUBLIC 546520 0 _ZN9QDateEdit11qt_metacallEN11QMetaObject4CallEiPPv
PUBLIC 5465c4 0 _ZN13QDateTimeEditD2Ev
PUBLIC 546600 0 _ZThn8_N13QDateTimeEditD1Ev
PUBLIC 546608 0 _ZN13QDateTimeEditD0Ev
PUBLIC 54664c 0 _ZThn8_N13QDateTimeEditD0Ev
PUBLIC 546654 0 _ZN9QDateEditD2Ev
PUBLIC 546690 0 _ZThn8_N9QDateEditD1Ev
PUBLIC 546698 0 _ZN9QDateEditD0Ev
PUBLIC 5466dc 0 _ZThn8_N9QDateEditD0Ev
PUBLIC 5466e4 0 _ZN9QTimeEditD2Ev
PUBLIC 546720 0 _ZThn8_N9QTimeEditD1Ev
PUBLIC 546728 0 _ZN9QTimeEditD0Ev
PUBLIC 54676c 0 _ZThn8_N9QTimeEditD0Ev
PUBLIC 546774 0 _ZN15QDateTimeParser9StateNodeD1Ev
PUBLIC 5471e0 0 _ZNK5QDial15minimumSizeHintEv
PUBLIC 5471f0 0 _ZN5QDialD2Ev
PUBLIC 54722c 0 _ZThn8_N5QDialD1Ev
PUBLIC 547234 0 _ZN5QDialD0Ev
PUBLIC 547250 0 _ZThn8_N5QDialD0Ev
PUBLIC 547258 0 _ZNK5QDial8sizeHintEv
PUBLIC 547580 0 _ZN5QDial15mousePressEventEP11QMouseEvent
PUBLIC 5475f4 0 _ZN5QDial17mouseReleaseEventEP11QMouseEvent
PUBLIC 547658 0 _ZN5QDial14mouseMoveEventEP11QMouseEvent
PUBLIC 5476bc 0 _ZN5QDialC1EP7QWidget
PUBLIC 547784 0 _ZN5QDial11setWrappingEb
PUBLIC 5477b0 0 _ZNK5QDial8wrappingEv
PUBLIC 5477c4 0 _ZNK5QDial9notchSizeEv
PUBLIC 5478c8 0 _ZNK5QDial15initStyleOptionEP18QStyleOptionSlider
PUBLIC 54797c 0 _ZN5QDial10paintEventEP11QPaintEvent
PUBLIC 547a34 0 _ZN5QDial14setNotchTargetEd
PUBLIC 547a5c 0 _ZNK5QDial11notchTargetEv
PUBLIC 547a68 0 _ZN5QDial17setNotchesVisibleEb
PUBLIC 547a84 0 _ZNK5QDial14notchesVisibleEv
PUBLIC 547a94 0 _ZN5QDial11resizeEventEP12QResizeEvent
PUBLIC 547a98 0 _ZN5QDial12sliderChangeEN15QAbstractSlider12SliderChangeE
PUBLIC 547a9c 0 _ZN5QDial5eventEP6QEvent
PUBLIC 547af8 0 _ZNK16QDialogButtonBox10metaObjectEv
PUBLIC 547b24 0 _ZN16QDialogButtonBoxD1Ev
PUBLIC 547b60 0 _ZThn8_N16QDialogButtonBoxD1Ev
PUBLIC 547b68 0 _ZN16QDialogButtonBoxD0Ev
PUBLIC 547b84 0 _ZThn8_N16QDialogButtonBoxD0Ev
PUBLIC 548124 0 _ZNK16QDialogButtonBox11orientationEv
PUBLIC 548130 0 _ZNK16QDialogButtonBox10buttonRoleEP15QAbstractButton
PUBLIC 5481a8 0 _ZNK16QDialogButtonBox15standardButtonsEv
PUBLIC 548234 0 _ZNK16QDialogButtonBox6buttonENS_14StandardButtonE
PUBLIC 5482b0 0 _ZNK16QDialogButtonBox14standardButtonEP15QAbstractButton
PUBLIC 5482f4 0 _ZNK16QDialogButtonBox13centerButtonsEv
PUBLIC 548300 0 _ZN16QDialogButtonBox7clickedEP15QAbstractButton
PUBLIC 548340 0 _ZN16QDialogButtonBox8acceptedEv
PUBLIC 548364 0 _ZN16QDialogButtonBox13helpRequestedEv
PUBLIC 548388 0 _ZN16QDialogButtonBox8rejectedEv
PUBLIC 548560 0 _ZN16QDialogButtonBoxC1EP7QWidget
PUBLIC 5485f4 0 _ZN16QDialogButtonBoxC1EN2Qt11OrientationEP7QWidget
PUBLIC 54868c 0 _ZNK16QDialogButtonBox7buttonsEv
PUBLIC 548bc8 0 _ZN16QDialogButtonBox14setOrientationEN2Qt11OrientationE
PUBLIC 548bf4 0 _ZN16QDialogButtonBox16setCenterButtonsEb
PUBLIC 548cbc 0 _ZN16QDialogButtonBox9addButtonERK7QStringNS_10ButtonRoleE
PUBLIC 548e6c 0 _ZN16QDialogButtonBox12removeButtonEP15QAbstractButton
PUBLIC 548fe4 0 _ZN16QDialogButtonBox9addButtonEP15QAbstractButtonNS_10ButtonRoleE
PUBLIC 54907c 0 _ZN16QDialogButtonBox5clearEv
PUBLIC 5496e4 0 _ZN16QDialogButtonBoxC2E6QFlagsINS_14StandardButtonEEN2Qt11OrientationEP7QWidget
PUBLIC 549798 0 _ZN16QDialogButtonBox9addButtonENS_14StandardButtonE
PUBLIC 5497a4 0 _ZN16QDialogButtonBox18setStandardButtonsE6QFlagsINS_14StandardButtonEE
PUBLIC 54998c 0 _ZN16QDialogButtonBox11changeEventEP6QEvent
PUBLIC 549a94 0 _ZN16QDialogButtonBox5eventEP6QEvent
PUBLIC 549dec 0 _ZN16QDialogButtonBox11qt_metacastEPKc
PUBLIC 549e38 0 _ZN16QDialogButtonBox11qt_metacallEN11QMetaObject4CallEiPPv
PUBLIC 54a70c 0 _ZNK17QDockWidgetLayout6itemAtEi
PUBLIC 54a75c 0 _ZNK17QDockWidgetLayout5countEv
PUBLIC 54a7bc 0 _ZNK11QDockWidget10metaObjectEv
PUBLIC 54a8f4 0 _ZN11QDockWidgetD1Ev
PUBLIC 54a930 0 _ZThn8_N11QDockWidgetD1Ev
PUBLIC 54a938 0 _ZN11QDockWidgetD0Ev
PUBLIC 54a954 0 _ZThn8_N11QDockWidgetD0Ev
PUBLIC 54a9cc 0 _ZN17QDockWidgetLayoutD1Ev
PUBLIC 54aae8 0 _ZThn8_N17QDockWidgetLayoutD1Ev
PUBLIC 54aaf0 0 _ZN17QDockWidgetLayoutD0Ev
PUBLIC 54ab0c 0 _ZThn8_N17QDockWidgetLayoutD0Ev
PUBLIC 54ad98 0 _ZN17QDockWidgetLayoutC2EP7QWidget
PUBLIC 54ae64 0 _ZNK17QDockWidgetLayout16nativeWindowDecoEb
PUBLIC 54ae6c 0 _ZNK17QDockWidgetLayout16nativeWindowDecoEv
PUBLIC 54ae90 0 _ZNK17QDockWidgetLayout13widgetForRoleENS_4RoleE
PUBLIC 54aeb8 0 _ZNK17QDockWidgetLayout11itemForRoleENS_4RoleE
PUBLIC 54aec8 0 _ZNK17QDockWidgetLayout11titleHeightEv
PUBLIC 54b054 0 _ZN17QDockWidgetLayout19setVerticalTitleBarEb
PUBLIC 54b394 0 _ZN11QDockWidget10closeEventEP11QCloseEvent
PUBLIC 54b58c 0 _ZNK11QDockWidget6widgetEv
PUBLIC 54b5c0 0 _ZNK11QDockWidget8featuresEv
PUBLIC 54b5d0 0 _ZNK11QDockWidget15initStyleOptionEP22QStyleOptionDockWidget
PUBLIC 54b6d8 0 _ZN11QDockWidget10paintEventEP11QPaintEvent
PUBLIC 54babc 0 _ZNK17QDockWidgetLayout17minimumTitleWidthEv
PUBLIC 54bc7c 0 _ZNK17QDockWidgetLayout15sizeFromContentERK5QSizeb
PUBLIC 54bf14 0 _ZNK17QDockWidgetLayout8sizeHintEv
PUBLIC 54bfb0 0 _ZThn8_NK17QDockWidgetLayout8sizeHintEv
PUBLIC 54bfb8 0 _ZNK17QDockWidgetLayout11maximumSizeEv
PUBLIC 54c038 0 _ZThn8_NK17QDockWidgetLayout11maximumSizeEv
PUBLIC 54c040 0 _ZNK17QDockWidgetLayout11minimumSizeEv
PUBLIC 54c0dc 0 _ZThn8_NK17QDockWidgetLayout11minimumSizeEv
PUBLIC 54c394 0 _ZNK11QDockWidget12allowedAreasEv
PUBLIC 54c3a4 0 _ZNK11QDockWidget16toggleViewActionEv
PUBLIC 54c3b0 0 _ZNK11QDockWidget14titleBarWidgetEv
PUBLIC 54c3e4 0 _ZN11QDockWidget15featuresChangedE6QFlagsINS_17DockWidgetFeatureEE
PUBLIC 54c420 0 _ZN11QDockWidget15topLevelChangedEb
PUBLIC 54c468 0 _ZN11QDockWidget19allowedAreasChangedE6QFlagsIN2Qt14DockWidgetAreaEE
PUBLIC 54c4a8 0 _ZN11QDockWidget15setAllowedAreasE6QFlagsIN2Qt14DockWidgetAreaEE
PUBLIC 54c4e4 0 _ZN11QDockWidget17visibilityChangedEb
PUBLIC 54c52c 0 _ZN11QDockWidget19dockLocationChangedEN2Qt14DockWidgetAreaE
PUBLIC 54c860 0 _ZN11QDockWidget11setFeaturesE6QFlagsINS_17DockWidgetFeatureEE
PUBLIC 54c954 0 _ZN11QDockWidget11setFloatingEb
PUBLIC 54cedc 0 _ZN17QDockWidgetLayout6takeAtEi
PUBLIC 54cf74 0 _ZN17QDockWidgetLayout16setWidgetForRoleENS_4RoleEP7QWidget
PUBLIC 54d38c 0 _ZN11QDockWidgetC2EP7QWidget6QFlagsIN2Qt10WindowTypeEE
PUBLIC 54d4a4 0 _ZN11QDockWidgetC2ERK7QStringP7QWidget6QFlagsIN2Qt10WindowTypeEE
PUBLIC 54d5cc 0 _ZN11QDockWidget9setWidgetEP7QWidget
PUBLIC 54d60c 0 _ZN11QDockWidget17setTitleBarWidgetEP7QWidget
PUBLIC 54d6a0 0 _ZN17QDockWidgetLayout11setGeometryERK5QRect
PUBLIC 54daec 0 _ZThn8_N17QDockWidgetLayout11setGeometryERK5QRect
PUBLIC 54daf4 0 _ZN17QDockWidgetLayout7addItemEP11QLayoutItem
PUBLIC 54dd70 0 _ZN11QDockWidget11changeEventEP6QEvent
PUBLIC 54def8 0 _ZN11QDockWidget5eventEP6QEvent
PUBLIC 54e450 0 _ZN11QDockWidget11qt_metacastEPKc
PUBLIC 54e49c 0 _ZN11QDockWidget11qt_metacallEN11QMetaObject4CallEiPPv
PUBLIC 55cc74 0 _Z11qFadeEffectP7QWidgeti
PUBLIC 55cf14 0 _Z13qScrollEffectP7QWidgetji
PUBLIC 55d0dc 0 _ZNK13QFontComboBox10metaObjectEv
PUBLIC 55d108 0 _ZN13QFontComboBoxD1Ev
PUBLIC 55d144 0 _ZThn8_N13QFontComboBoxD1Ev
PUBLIC 55d14c 0 _ZN13QFontComboBoxD0Ev
PUBLIC 55d168 0 _ZThn8_N13QFontComboBoxD0Ev
PUBLIC 55d554 0 _ZNK13QFontComboBox13writingSystemEv
PUBLIC 55d580 0 _ZNK13QFontComboBox11fontFiltersEv
PUBLIC 55d590 0 _ZNK13QFontComboBox11currentFontEv
PUBLIC 55d5ac 0 _ZN13QFontComboBox18currentFontChangedERK5QFont
PUBLIC 55ddb4 0 _ZN13QFontComboBox14setFontFiltersE6QFlagsINS_10FontFilterEE
PUBLIC 55ddc4 0 _ZN13QFontComboBox14setCurrentFontERK5QFont
PUBLIC 55de24 0 _ZN13QFontComboBox16setWritingSystemEN13QFontDatabase13WritingSystemE
PUBLIC 55de60 0 _ZN13QFontComboBoxC1EP7QWidget
PUBLIC 55e954 0 _ZN13QFontComboBox5eventEP6QEvent
PUBLIC 55e9e8 0 _ZNK13QFontComboBox8sizeHintEv
PUBLIC 55ea90 0 _ZN13QFontComboBox11qt_metacastEPKc
PUBLIC 55eadc 0 _ZN13QFontComboBox11qt_metacallEN11QMetaObject4CallEiPPv
PUBLIC 55ef10 0 _ZN6QFrameD1Ev
PUBLIC 55ef4c 0 _ZThn8_N6QFrameD1Ev
PUBLIC 55ef54 0 _ZN6QFrameD0Ev
PUBLIC 55ef70 0 _ZThn8_N6QFrameD0Ev
PUBLIC 55f010 0 _ZN6QFrameC1EP7QWidget6QFlagsIN2Qt10WindowTypeEE
PUBLIC 55f0ac 0 _ZN6QFrameC2ER13QFramePrivateP7QWidget6QFlagsIN2Qt10WindowTypeEE
PUBLIC 55f11c 0 _ZNK6QFrame10frameStyleEv
PUBLIC 55f128 0 _ZNK6QFrame10frameShapeEv
PUBLIC 55f138 0 _ZNK6QFrame11frameShadowEv
PUBLIC 55f148 0 _ZNK6QFrame9lineWidthEv
PUBLIC 55f158 0 _ZNK6QFrame12midLineWidthEv
PUBLIC 55f2c4 0 _ZNK6QFrame10frameWidthEv
PUBLIC 55f2d4 0 _ZNK6QFrame9frameRectEv
PUBLIC 55f338 0 _ZN6QFrame12setFrameRectERK5QRect
PUBLIC 55f448 0 _ZN6QFrame13setFrameStyleEi
PUBLIC 55f4f8 0 _ZN6QFrame13setFrameShapeENS_5ShapeE
PUBLIC 55f50c 0 _ZN6QFrame14setFrameShadowENS_6ShadowE
PUBLIC 55f520 0 _ZN6QFrame12setLineWidthEi
PUBLIC 55f544 0 _ZN6QFrame15setMidLineWidthEi
PUBLIC 55f56c 0 _ZN6QFrame9drawFrameEP8QPainter
PUBLIC 55f68c 0 _ZN6QFrame10paintEventEP11QPaintEvent
PUBLIC 55f6d0 0 _ZNK6QFrame8sizeHintEv
PUBLIC 55f728 0 _ZN6QFrame11changeEventEP6QEvent
PUBLIC 55f770 0 _ZN6QFrame5eventEP6QEvent
PUBLIC 55f820 0 _ZNK9QGroupBox10metaObjectEv
PUBLIC 55f84c 0 _ZN9QGroupBoxD1Ev
PUBLIC 55f888 0 _ZThn8_N9QGroupBoxD1Ev
PUBLIC 55f890 0 _ZN9QGroupBoxD0Ev
PUBLIC 55f8ac 0 _ZThn8_N9QGroupBoxD0Ev
PUBLIC 55f8b4 0 _ZN9QGroupBox10childEventEP11QChildEvent
PUBLIC 55f948 0 _ZNK9QGroupBox15initStyleOptionEP20QStyleOptionGroupBox
PUBLIC 55fab0 0 _ZNK9QGroupBox5titleEv
PUBLIC 55faec 0 _ZNK9QGroupBox9alignmentEv
PUBLIC 55fafc 0 _ZN9QGroupBox12setAlignmentEi
PUBLIC 55fb1c 0 _ZN9QGroupBox10paintEventEP11QPaintEvent
PUBLIC 55fc1c 0 _ZN9QGroupBox15mousePressEventEP11QMouseEvent
PUBLIC 55fd4c 0 _ZN9QGroupBox14mouseMoveEventEP11QMouseEvent
PUBLIC 5600fc 0 _ZN9QGroupBoxC1EP7QWidget
PUBLIC 5601e0 0 _ZN9QGroupBox8setTitleERK7QString
PUBLIC 560280 0 _ZN9QGroupBoxC1ERK7QStringP7QWidget
PUBLIC 560374 0 _ZNK9QGroupBox6isFlatEv
PUBLIC 560380 0 _ZN9QGroupBox7setFlatEb
PUBLIC 5603ac 0 _ZNK9QGroupBox11isCheckableEv
PUBLIC 5603b8 0 _ZNK9QGroupBox9isCheckedEv
PUBLIC 5603cc 0 _ZN9QGroupBox7clickedEb
PUBLIC 560410 0 _ZN9QGroupBox7toggledEb
PUBLIC 560584 0 _ZN9QGroupBox10setCheckedEb
PUBLIC 560634 0 _ZN9QGroupBox17mouseReleaseEventEP11QMouseEvent
PUBLIC 56078c 0 _ZN9QGroupBox12setCheckableEb
PUBLIC 56082c 0 _ZN9QGroupBox11resizeEventEP12QResizeEvent
PUBLIC 560830 0 _ZN9QGroupBox5eventEP6QEvent
PUBLIC 560b80 0 _ZN9QGroupBox12focusInEventEP11QFocusEvent
PUBLIC 560bc4 0 _ZNK9QGroupBox15minimumSizeHintEv
PUBLIC 560d94 0 _ZN9QGroupBox11changeEventEP6QEvent
PUBLIC 560e14 0 _ZN9QGroupBox11qt_metacastEPKc
PUBLIC 560e58 0 _ZN9QGroupBox11qt_metacallEN11QMetaObject4CallEiPPv
PUBLIC 5611c0 0 _ZNK6QLabel10metaObjectEv
PUBLIC 56124c 0 _ZNK6QLabel7pictureEv
PUBLIC 56132c 0 _ZN6QLabelC2EP7QWidget6QFlagsIN2Qt10WindowTypeEE
PUBLIC 56148c 0 _ZNK6QLabel4textEv
PUBLIC 5614c8 0 _ZNK6QLabel6pixmapEv
PUBLIC 5614d4 0 _ZNK6QLabel9alignmentEv
PUBLIC 5614e4 0 _ZNK6QLabel8wordWrapEv
PUBLIC 5614fc 0 _ZNK6QLabel6indentEv
PUBLIC 561510 0 _ZNK6QLabel6marginEv
PUBLIC 56151c 0 _ZNK6QLabel17openExternalLinksEv
PUBLIC 561528 0 _ZN6QLabel20setOpenExternalLinksEb
PUBLIC 561540 0 _ZNK6QLabel20textInteractionFlagsEv
PUBLIC 561550 0 _ZNK6QLabel15hasSelectedTextEv
PUBLIC 5615b0 0 _ZNK6QLabel12selectedTextEv
PUBLIC 56164c 0 _ZNK6QLabel14selectionStartEv
PUBLIC 561774 0 _ZN6QLabel12setAlignmentE6QFlagsIN2Qt13AlignmentFlagEE
PUBLIC 5617a4 0 _ZN6QLabel11setWordWrapEb
PUBLIC 5617c4 0 _ZN6QLabel9setIndentEi
PUBLIC 5617dc 0 _ZN6QLabel9setMarginEi
PUBLIC 5617f4 0 _ZNK6QLabel5buddyEv
PUBLIC 561888 0 _ZN6QLabel8setBuddyEP7QWidget
PUBLIC 561b1c 0 _ZN6QLabelD2Ev
PUBLIC 561b70 0 _ZThn8_N6QLabelD1Ev
PUBLIC 561b78 0 _ZN6QLabelD0Ev
PUBLIC 561b94 0 _ZThn8_N6QLabelD0Ev
PUBLIC 561b9c 0 _ZN6QLabel5clearEv
PUBLIC 561bb8 0 _ZN6QLabel10setPictureERK8QPicture
PUBLIC 561bfc 0 _ZN6QLabel8setMovieEP6QMovie
PUBLIC 561cb4 0 _ZNK6QLabel5movieEv
PUBLIC 561cc0 0 _ZNK6QLabel10textFormatEv
PUBLIC 561ccc 0 _ZNK6QLabel17hasScaledContentsEv
PUBLIC 561cdc 0 _ZN6QLabel17setScaledContentsEb
PUBLIC 562164 0 _ZN6QLabel12setSelectionEii
PUBLIC 562470 0 _ZN6QLabel7setTextERK7QString
PUBLIC 56259c 0 _ZN6QLabelC1ERK7QStringP7QWidget6QFlagsIN2Qt10WindowTypeEE
PUBLIC 56270c 0 _ZN6QLabel6setNumEi
PUBLIC 5627c8 0 _ZN6QLabel6setNumEd
PUBLIC 562894 0 _ZN6QLabel13setTextFormatEN2Qt10TextFormatE
PUBLIC 5629e0 0 _ZN6QLabel23setTextInteractionFlagsE6QFlagsIN2Qt19TextInteractionFlagEE
PUBLIC 562c4c 0 _ZN6QLabel15mousePressEventEP11QMouseEvent
PUBLIC 562c54 0 _ZN6QLabel14mouseMoveEventEP11QMouseEvent
PUBLIC 562c5c 0 _ZN6QLabel17mouseReleaseEventEP11QMouseEvent
PUBLIC 562c64 0 _ZN6QLabel13keyPressEventEP9QKeyEvent
PUBLIC 562f48 0 _ZN6QLabel16contextMenuEventEP17QContextMenuEvent
PUBLIC 562fb4 0 _ZN6QLabel13linkActivatedERK7QString
PUBLIC 562ff0 0 _ZN6QLabel11linkHoveredERK7QString
PUBLIC 563130 0 _ZN6QLabel9setPixmapERK7QPixmap
PUBLIC 563858 0 _ZNK6QLabel15minimumSizeHintEv
PUBLIC 563940 0 _ZNK6QLabel8sizeHintEv
PUBLIC 563c20 0 _ZNK6QLabel14heightForWidthEi
PUBLIC 563c60 0 _ZN6QLabel12focusInEventEP11QFocusEvent
PUBLIC 563ca0 0 _ZN6QLabel13focusOutEventEP11QFocusEvent
PUBLIC 563d38 0 _ZN6QLabel18focusNextPrevChildEb
PUBLIC 563d70 0 _ZN6QLabel5eventEP6QEvent
PUBLIC 563e88 0 _ZN6QLabel10paintEventEP11QPaintEvent
PUBLIC 564ce0 0 _ZN6QLabel11changeEventEP6QEvent
PUBLIC 564d90 0 _ZN6QLabel11qt_metacastEPKc
PUBLIC 564dd4 0 _ZN6QLabel11qt_metacallEN11QMetaObject4CallEiPPv
PUBLIC 5653b4 0 _ZN10QLCDNumberD1Ev
PUBLIC 5653f0 0 _ZThn8_N10QLCDNumberD1Ev
PUBLIC 5653f8 0 _ZN10QLCDNumberD0Ev
PUBLIC 565414 0 _ZThn8_N10QLCDNumberD0Ev
PUBLIC 565a00 0 _ZNK10QLCDNumber9numDigitsEv
PUBLIC 565a0c 0 _ZNK10QLCDNumber10digitCountEv
PUBLIC 565a18 0 _ZNK10QLCDNumber13checkOverflowEi
PUBLIC 565a84 0 _ZNK10QLCDNumber13checkOverflowEd
PUBLIC 565af8 0 _ZNK10QLCDNumber4modeEv
PUBLIC 565b08 0 _ZNK10QLCDNumber5valueEv
PUBLIC 565b18 0 _ZNK10QLCDNumber8intValueEv
PUBLIC 565b9c 0 _ZN10QLCDNumber20setSmallDecimalPointEb
PUBLIC 565bb8 0 _ZNK10QLCDNumber17smallDecimalPointEv
PUBLIC 565bcc 0 _ZNK10QLCDNumber8sizeHintEv
PUBLIC 566358 0 _ZN10QLCDNumber7displayEd
PUBLIC 566408 0 _ZN10QLCDNumber7setModeENS_4ModeE
PUBLIC 566430 0 _ZN10QLCDNumber10setHexModeEv
PUBLIC 566438 0 _ZN10QLCDNumber10setDecModeEv
PUBLIC 566440 0 _ZN10QLCDNumber10setOctModeEv
PUBLIC 566448 0 _ZN10QLCDNumber10setBinModeEv
PUBLIC 566450 0 _ZN10QLCDNumber13setDigitCountEi
PUBLIC 566b50 0 _ZN10QLCDNumber12setNumDigitsEi
PUBLIC 566b54 0 _ZN10QLCDNumber7displayEi
PUBLIC 566c0c 0 _ZN10QLCDNumber7displayERK7QString
PUBLIC 566c6c 0 _ZN10QLCDNumber15setSegmentStyleENS_12SegmentStyleE
PUBLIC 566d08 0 _ZN10QLCDNumberC2EP7QWidget
PUBLIC 566e3c 0 _ZN10QLCDNumberC1EjP7QWidget
PUBLIC 566f70 0 _ZNK10QLCDNumber12segmentStyleEv
PUBLIC 568788 0 _ZN10QLCDNumber10paintEventEP11QPaintEvent
PUBLIC 568854 0 _ZN10QLCDNumber5eventEP6QEvent
PUBLIC 569b64 0 _ZNK9QLineEdit10metaObjectEv
PUBLIC 569b90 0 _ZN9QLineEdit14dragLeaveEventEP15QDragLeaveEvent
PUBLIC 569bac 0 _ZN9QLineEditD1Ev
PUBLIC 569be8 0 _ZThn8_N9QLineEditD1Ev
PUBLIC 569bf0 0 _ZN9QLineEditD0Ev
PUBLIC 569c0c 0 _ZThn8_N9QLineEditD0Ev
PUBLIC 569c14 0 _ZN9QLineEdit14mouseMoveEventEP11QMouseEvent
PUBLIC 569cbc 0 _ZN9QLineEdit21mouseDoubleClickEventEP11QMouseEvent
PUBLIC 569d28 0 _ZN9QLineEdit13keyPressEventEP9QKeyEvent
PUBLIC 569df4 0 _ZN9QLineEdit13dragMoveEventEP14QDragMoveEvent
PUBLIC 569efc 0 _ZN9QLineEdit14dragEnterEventEP15QDragEnterEvent
PUBLIC 569f00 0 _ZNK9QLineEdit15initStyleOptionEP17QStyleOptionFrame
PUBLIC 569fc0 0 _ZNK9QLineEdit8sizeHintEv
PUBLIC 56a130 0 _ZNK9QLineEdit15minimumSizeHintEv
PUBLIC 56a270 0 _ZN9QLineEdit10paintEventEP11QPaintEvent
PUBLIC 56ac80 0 _ZN9QLineEditC1EP7QWidget
PUBLIC 56ae60 0 _ZN9QLineEditC1ERK7QStringP7QWidget
PUBLIC 56afd0 0 _ZNK9QLineEdit4textEv
PUBLIC 56b0d4 0 _ZN9QLineEdit7setTextERK7QString
PUBLIC 56b0e8 0 _ZNK9QLineEdit15placeholderTextEv
PUBLIC 56b124 0 _ZN9QLineEdit18setPlaceholderTextERK7QString
PUBLIC 56b170 0 _ZNK9QLineEdit11displayTextEv
PUBLIC 56b190 0 _ZNK9QLineEdit9maxLengthEv
PUBLIC 56b1a0 0 _ZN9QLineEdit12setMaxLengthEi
PUBLIC 56b1c8 0 _ZNK9QLineEdit8hasFrameEv
PUBLIC 56b1d8 0 _ZN9QLineEdit8setFrameEb
PUBLIC 56b208 0 _ZNK9QLineEdit8echoModeEv
PUBLIC 56b220 0 _ZN9QLineEdit11setEchoModeENS_8EchoModeE
PUBLIC 56b2d8 0 _ZNK9QLineEdit9validatorEv
PUBLIC 56b2e8 0 _ZN9QLineEdit12setValidatorEPK10QValidator
PUBLIC 56b304 0 _ZN9QLineEdit12setCompleterEP10QCompleter
PUBLIC 56b438 0 _ZNK9QLineEdit9completerEv
PUBLIC 56b448 0 _ZNK9QLineEdit14cursorPositionEv
PUBLIC 56b458 0 _ZN9QLineEdit17setCursorPositionEi
PUBLIC 56b47c 0 _ZN9QLineEdit16cursorPositionAtERK6QPoint
PUBLIC 56b48c 0 _ZNK9QLineEdit9alignmentEv
PUBLIC 56b49c 0 _ZN9QLineEdit12setAlignmentE6QFlagsIN2Qt13AlignmentFlagEE
PUBLIC 56b4ac 0 _ZN9QLineEdit13cursorForwardEbi
PUBLIC 56b524 0 _ZN9QLineEdit14cursorBackwardEbi
PUBLIC 56b52c 0 _ZN9QLineEdit17cursorWordForwardEb
PUBLIC 56b560 0 _ZN9QLineEdit18cursorWordBackwardEb
PUBLIC 56b594 0 _ZN9QLineEdit9backspaceEv
PUBLIC 56b5a0 0 _ZN9QLineEdit3delEv
PUBLIC 56b5ac 0 _ZN9QLineEdit4homeEb
PUBLIC 56b5c0 0 _ZN9QLineEdit3endEb
PUBLIC 56b718 0 _ZNK9QLineEdit10isModifiedEv
PUBLIC 56b734 0 _ZN9QLineEdit11setModifiedEb
PUBLIC 56b750 0 _ZNK9QLineEdit15hasSelectedTextEv
PUBLIC 56b780 0 _ZNK9QLineEdit12selectedTextEv
PUBLIC 56b808 0 _ZNK9QLineEdit16inputMethodQueryEN2Qt16InputMethodQueryE
PUBLIC 56b9e4 0 _ZNK9QLineEdit14selectionStartEv
PUBLIC 56ba18 0 _ZN9QLineEdit12setSelectionEii
PUBLIC 56bc1c 0 _ZNK9QLineEdit15isUndoAvailableEv
PUBLIC 56bc48 0 _ZNK9QLineEdit15isRedoAvailableEv
PUBLIC 56bc80 0 _ZNK9QLineEdit11dragEnabledEv
PUBLIC 56bc94 0 _ZN9QLineEdit14setDragEnabledEb
PUBLIC 56bcb0 0 _ZNK9QLineEdit18hasAcceptableInputEv
PUBLIC 56bcc0 0 _ZN9QLineEdit14setTextMarginsEiiii
PUBLIC 56bcf0 0 _ZN9QLineEdit14setTextMarginsERK8QMargins
PUBLIC 56bd14 0 _ZNK9QLineEdit14getTextMarginsEPiS0_S0_S0_
PUBLIC 56bd58 0 _ZNK9QLineEdit11textMarginsEv
PUBLIC 56bd88 0 _ZNK9QLineEdit9inputMaskEv
PUBLIC 56be7c 0 _ZN9QLineEdit12setInputMaskERK7QString
PUBLIC 56bf00 0 _ZN9QLineEdit9selectAllEv
PUBLIC 56bf28 0 _ZN9QLineEdit15mousePressEventEP11QMouseEvent
PUBLIC 56c084 0 _ZN9QLineEdit12focusInEventEP11QFocusEvent
PUBLIC 56c458 0 _ZN9QLineEdit8deselectEv
PUBLIC 56c4ac 0 _ZN9QLineEdit6insertERK7QString
PUBLIC 56c4b8 0 _ZN9QLineEdit9dropEventEP10QDropEvent
PUBLIC 56c690 0 _ZN9QLineEdit5clearEv
PUBLIC 56c6a8 0 _ZN9QLineEdit16inputMethodEventEP17QInputMethodEvent
PUBLIC 56c738 0 _ZN9QLineEdit4undoEv
PUBLIC 56c76c 0 _ZN9QLineEdit4redoEv
PUBLIC 56c79c 0 _ZNK9QLineEdit10isReadOnlyEv
PUBLIC 56c7b4 0 _ZN9QLineEdit11setReadOnlyEb
PUBLIC 56c864 0 _ZNK9QLineEdit4copyEv
PUBLIC 56c874 0 _ZN9QLineEdit3cutEv
PUBLIC 56c89c 0 _ZN9QLineEdit5pasteEv
PUBLIC 56c8ac 0 _ZNK9QLineEdit10cursorRectEv
PUBLIC 56c8c4 0 _ZN9QLineEdit11textChangedERK7QString
PUBLIC 56c900 0 _ZN9QLineEdit10textEditedERK7QString
PUBLIC 56c940 0 _ZN9QLineEdit21cursorPositionChangedEii
PUBLIC 56c990 0 _ZN9QLineEdit13returnPressedEv
PUBLIC 56c9b4 0 _ZN9QLineEdit15editingFinishedEv
PUBLIC 56c9d8 0 _ZN9QLineEdit13focusOutEventEP11QFocusEvent
PUBLIC 56cadc 0 _ZN9QLineEdit16selectionChangedEv
PUBLIC 56cb00 0 _ZN9QLineEdit25createStandardContextMenuEv
PUBLIC 56e4a8 0 _ZN9QLineEdit16contextMenuEventEP17QContextMenuEvent
PUBLIC 56e4dc 0 _ZN9QLineEdit5eventEP6QEvent
PUBLIC 56e734 0 _ZN9QLineEdit17mouseReleaseEventEP11QMouseEvent
PUBLIC 56e974 0 _ZN9QLineEdit11changeEventEP6QEvent
PUBLIC 56ea6c 0 _ZN9QLineEdit11qt_metacastEPKc
PUBLIC 56eab0 0 _ZN9QLineEdit11qt_metacallEN11QMetaObject4CallEiPPv
PUBLIC 56f3b8 0 _ZN12QLineControl17updateDisplayTextEb
PUBLIC 56f728 0 _ZNK12QLineControl4copyEN10QClipboard4ModeE
PUBLIC 56f874 0 _ZN12QLineControl19_q_clipboardChangedEv
PUBLIC 56f878 0 _ZN12QLineControl4initERK7QString
PUBLIC 56f8a4 0 _ZN12QLineControl25updatePasswordEchoEditingEb
PUBLIC 56f8b0 0 _ZNK12QLineControl6xToPosEiN9QTextLine14CursorPositionE
PUBLIC 56f8f4 0 _ZNK12QLineControl10cursorRectEv
PUBLIC 56f9f4 0 _ZNK12QLineControl12isValidInputE5QCharS0_
PUBLIC 56fd6c 0 _ZNK12QLineControl18hasAcceptableInputERK7QString
PUBLIC 56fecc 0 _ZNK12QLineControl11clearStringEjj
PUBLIC 5700f4 0 _ZNK12QLineControl11stripStringERK7QString
PUBLIC 5702e8 0 _ZNK12QLineControl10findInMaskEibb5QChar
PUBLIC 5703a8 0 _ZNK12QLineControl10maskStringEjRK7QStringb
PUBLIC 5709f8 0 _ZN12QLineControl25emitCursorPositionChangedEv
PUBLIC 570a10 0 _ZN12QLineControl12setSelectionEii
PUBLIC 570b00 0 _ZN12QLineControl10moveCursorEib
PUBLIC 570c8c 0 _ZN12QLineControl15selectWordAtPosEi
PUBLIC 570d50 0 _ZN12QLineControl20advanceToEnabledItemEi
PUBLIC 570e40 0 _ZN12QLineControl8completeEi
PUBLIC 571348 0 _ZN12QLineControl20setCursorBlinkPeriodEi
PUBLIC 571530 0 _ZN12QLineControl21resetCursorBlinkTimerEv
PUBLIC 57157c 0 _ZN12QLineControl4drawEP8QPainterRK6QPointRK5QRecti
PUBLIC 5718e8 0 _ZN12QLineControl12internalRedoEv
PUBLIC 571ab4 0 _ZN12QLineControl10addCommandERKNS_7CommandE
PUBLIC 571bf4 0 _ZN12QLineControl14internalInsertERK7QString
PUBLIC 571f50 0 _ZN12QLineControl14internalDeleteEb
PUBLIC 572104 0 _ZN12QLineControl18removeSelectedTextEv
PUBLIC 572418 0 _ZN12QLineControl12internalUndoEi
PUBLIC 5725ec 0 _ZN12QLineControl12finishChangeEibb
PUBLIC 572964 0 _ZN12QLineControl9backspaceEv
PUBLIC 572a98 0 _ZN12QLineControl3delEv
PUBLIC 572b18 0 _ZN12QLineControl6insertERK7QString
PUBLIC 572b50 0 _ZN12QLineControl5pasteEN10QClipboard4ModeE
PUBLIC 572c1c 0 _ZN12QLineControl5clearEv
PUBLIC 572c64 0 _ZN12QLineControl10timerEventEP11QTimerEvent
PUBLIC 572e58 0 _ZN12QLineControl17_q_deleteSelectedEv
PUBLIC 572eb4 0 _ZN12QLineControl23processInputMethodEventEP17QInputMethodEvent
PUBLIC 573464 0 _ZN12QLineControl15internalSetTextERK7QStringib
PUBLIC 573804 0 _ZN12QLineControl5fixupEv
PUBLIC 57394c 0 _ZN12QLineControl14parseInputMaskERK7QString
PUBLIC 573e14 0 _ZN12QLineControl17processMouseEventEP11QMouseEvent
PUBLIC 574094 0 _ZN12QLineControl15processKeyEventEP9QKeyEvent
PUBLIC 574d64 0 _ZN12QLineControl12processEventEP6QEvent
PUBLIC 575450 0 _ZN11QMainWindowD2Ev
PUBLIC 57548c 0 _ZThn8_N11QMainWindowD1Ev
PUBLIC 575494 0 _ZN11QMainWindowD0Ev
PUBLIC 5754b0 0 _ZThn8_N11QMainWindowD0Ev
PUBLIC 575538 0 _ZN11QMainWindow16contextMenuEventEP17QContextMenuEvent
PUBLIC 575778 0 _ZN11QMainWindow14setDockOptionsE6QFlagsINS_10DockOptionEE
PUBLIC 5757a0 0 _ZNK11QMainWindow11dockOptionsEv
PUBLIC 5757b4 0 _ZNK11QMainWindow8iconSizeEv
PUBLIC 5757d0 0 _ZN11QMainWindow11setIconSizeERK5QSize
PUBLIC 575878 0 _ZNK11QMainWindow15toolButtonStyleEv
PUBLIC 575884 0 _ZN11QMainWindow18setToolButtonStyleEN2Qt15ToolButtonStyleE
PUBLIC 57589c 0 _ZN11QMainWindow10setMenuBarEP8QMenuBar
PUBLIC 575964 0 _ZNK11QMainWindow7menuBarEv
PUBLIC 5759d8 0 _ZNK11QMainWindow10menuWidgetEv
PUBLIC 5759e4 0 _ZN11QMainWindow13setMenuWidgetEP7QWidget
PUBLIC 575a44 0 _ZN11QMainWindow12setStatusBarEP10QStatusBar
PUBLIC 575aa4 0 _ZNK11QMainWindow9statusBarEv
PUBLIC 575b08 0 _ZNK11QMainWindow13centralWidgetEv
PUBLIC 575b14 0 _ZN11QMainWindow16setCentralWidgetEP7QWidget
PUBLIC 575b74 0 _ZN11QMainWindow9setCornerEN2Qt6CornerENS0_14DockWidgetAreaE
PUBLIC 575c04 0 _ZNK11QMainWindow6cornerEN2Qt6CornerE
PUBLIC 575c10 0 _ZN11QMainWindow15addToolBarBreakEN2Qt11ToolBarAreaE
PUBLIC 575c4c 0 _ZN11QMainWindow18insertToolBarBreakEP8QToolBar
PUBLIC 575c58 0 _ZN11QMainWindow18removeToolBarBreakEP8QToolBar
PUBLIC 575c64 0 _ZN11QMainWindow13insertToolBarEP8QToolBarS1_
PUBLIC 575d0c 0 _ZN11QMainWindow13removeToolBarEP8QToolBar
PUBLIC 575d3c 0 _ZNK11QMainWindow11toolBarAreaEP8QToolBar
PUBLIC 575d48 0 _ZNK11QMainWindow12toolBarBreakEP8QToolBar
PUBLIC 575d54 0 _ZNK11QMainWindow10isAnimatedEv
PUBLIC 575d68 0 _ZN11QMainWindow11setAnimatedEb
PUBLIC 575d9c 0 _ZN11QMainWindow10addToolBarEN2Qt11ToolBarAreaEP8QToolBar
PUBLIC 575f18 0 _ZN11QMainWindow10addToolBarEP8QToolBar
PUBLIC 575f24 0 _ZN11QMainWindow10addToolBarERK7QString
PUBLIC 575f70 0 _ZNK11QMainWindow20isDockNestingEnabledEv
PUBLIC 575f88 0 _ZN11QMainWindow21setDockNestingEnabledEb
PUBLIC 575fbc 0 _ZNK11QMainWindow12documentModeEv
PUBLIC 575fc8 0 _ZN11QMainWindow15setDocumentModeEb
PUBLIC 575fd4 0 _ZNK11QMainWindow8tabShapeEv
PUBLIC 575fe0 0 _ZN11QMainWindow11setTabShapeEN10QTabWidget8TabShapeE
PUBLIC 575fec 0 _ZNK11QMainWindow11tabPositionEN2Qt14DockWidgetAreaE
PUBLIC 576030 0 _ZN11QMainWindow14setTabPositionE6QFlagsIN2Qt14DockWidgetAreaEEN10QTabWidget11TabPositionE
PUBLIC 576058 0 _ZN11QMainWindow17restoreDockWidgetEP11QDockWidget
PUBLIC 576064 0 _ZN11QMainWindow13addDockWidgetEN2Qt14DockWidgetAreaEP11QDockWidgetNS0_11OrientationE
PUBLIC 5760b0 0 _ZN11QMainWindow13addDockWidgetEN2Qt14DockWidgetAreaEP11QDockWidget
PUBLIC 576120 0 _ZN11QMainWindow15splitDockWidgetEP11QDockWidgetS1_N2Qt11OrientationE
PUBLIC 57612c 0 _ZN11QMainWindow16tabifyDockWidgetEP11QDockWidgetS1_
PUBLIC 576138 0 _ZN11QMainWindow16removeDockWidgetEP11QDockWidget
PUBLIC 576168 0 _ZNK11QMainWindow14dockWidgetAreaEP11QDockWidget
PUBLIC 57620c 0 _ZN11QMainWindow30setUnifiedTitleAndToolBarOnMacEb
PUBLIC 576210 0 _ZNK11QMainWindow27unifiedTitleAndToolBarOnMacEv
PUBLIC 576218 0 _ZNK11QMainWindow11isSeparatorERK6QPoint
PUBLIC 576264 0 _ZN11QMainWindowC1EP7QWidget6QFlagsIN2Qt10WindowTypeEE
PUBLIC 576398 0 _ZN11QMainWindow15createPopupMenuEv
PUBLIC 5767dc 0 _ZNK11QMainWindow19tabifiedDockWidgetsEP11QDockWidget
PUBLIC 576d64 0 _ZNK11QMainWindow9saveStateEi
PUBLIC 576e24 0 _ZN11QMainWindow12restoreStateERK10QByteArrayi
PUBLIC 576f48 0 _ZN11QMainWindow5eventEP6QEvent
PUBLIC 57f6f4 0 _ZNK8QMdiArea10metaObjectEv
PUBLIC 57f720 0 _ZN8QMdiAreaD1Ev
PUBLIC 57f7f0 0 _ZThn8_N8QMdiAreaD1Ev
PUBLIC 57f7f8 0 _ZN8QMdiAreaD0Ev
PUBLIC 57f814 0 _ZThn8_N8QMdiAreaD0Ev
PUBLIC 57fef4 0 _ZN8QMdiArea10paintEventEP11QPaintEvent
PUBLIC 580e64 0 _ZNK8QMdiArea16currentSubWindowEv
PUBLIC 580f20 0 _ZNK8QMdiArea15activeSubWindowEv
PUBLIC 580f2c 0 _ZN8QMdiArea20closeActiveSubWindowEv
PUBLIC 580f40 0 _ZNK8QMdiArea10backgroundEv
PUBLIC 580f5c 0 _ZN8QMdiArea13setBackgroundERK6QBrush
PUBLIC 580fb4 0 _ZNK8QMdiArea15activationOrderEv
PUBLIC 580fc0 0 _ZN8QMdiArea18setActivationOrderENS_11WindowOrderE
PUBLIC 580fd4 0 _ZN8QMdiArea9setOptionENS_10AreaOptionEb
PUBLIC 581004 0 _ZNK8QMdiArea10testOptionENS_10AreaOptionE
PUBLIC 58101c 0 _ZNK8QMdiArea8viewModeEv
PUBLIC 581028 0 _ZNK8QMdiArea12documentModeEv
PUBLIC 581034 0 _ZN8QMdiArea15setDocumentModeEb
PUBLIC 58104c 0 _ZNK8QMdiArea8tabShapeEv
PUBLIC 581058 0 _ZN8QMdiArea11setTabShapeEN10QTabWidget8TabShapeE
PUBLIC 581070 0 _ZNK8QMdiArea11tabPositionEv
PUBLIC 58107c 0 _ZN8QMdiArea14setTabPositionEN10QTabWidget11TabPositionE
PUBLIC 581094 0 _ZN8QMdiArea18subWindowActivatedEP13QMdiSubWindow
PUBLIC 581450 0 _ZN8QMdiAreaC2EP7QWidget
PUBLIC 581538 0 _ZN8QMdiArea18setActiveSubWindowEP13QMdiSubWindow
PUBLIC 582fac 0 _ZN8QMdiArea18closeAllSubWindowsEv
PUBLIC 583200 0 _ZN8QMdiArea13setupViewportEP7QWidget
PUBLIC 58333c 0 _ZNK8QMdiArea8sizeHintEv
PUBLIC 584080 0 _ZN8QMdiArea11setViewModeENS_8ViewModeE
PUBLIC 58477c 0 _ZN8QMdiArea12addSubWindowEP7QWidget6QFlagsIN2Qt10WindowTypeEE
PUBLIC 5848e8 0 _ZN8QMdiArea10childEventEP11QChildEvent
PUBLIC 58563c 0 _ZN8QMdiArea10timerEventEP11QTimerEvent
PUBLIC 5856e8 0 _ZN8QMdiArea16scrollContentsByEii
PUBLIC 585750 0 _ZN8QMdiArea14tileSubWindowsEv
PUBLIC 5857a0 0 _ZN8QMdiArea11resizeEventEP12QResizeEvent
PUBLIC 5859c8 0 _ZN8QMdiArea17cascadeSubWindowsEv
PUBLIC 585a18 0 _ZNK8QMdiArea13subWindowListENS_11WindowOrderE
PUBLIC 5860a0 0 _ZN8QMdiArea15removeSubWindowEP7QWidget
PUBLIC 5864dc 0 _ZN8QMdiArea11eventFilterEP7QObjectP6QEvent
PUBLIC 586b54 0 _ZN8QMdiArea21activateNextSubWindowEv
PUBLIC 586bac 0 _ZN8QMdiArea25activatePreviousSubWindowEv
PUBLIC 586c58 0 _ZNK8QMdiArea15minimumSizeHintEv
PUBLIC 586e38 0 _ZN8QMdiArea9showEventEP10QShowEvent
PUBLIC 587180 0 _ZN8QMdiArea13viewportEventEP6QEvent
PUBLIC 587388 0 _ZN8QMdiArea5eventEP6QEvent
PUBLIC 5875c0 0 _ZN8QMdiArea11qt_metacastEPKc
PUBLIC 587604 0 _ZN8QMdiArea11qt_metacallEN11QMetaObject4CallEiPPv
PUBLIC 587a68 0 _ZN26QAbstractScrollAreaPrivateD2Ev
PUBLIC 587b6c 0 _ZN26QAbstractScrollAreaPrivateD0Ev
PUBLIC 588c94 0 _ZN13QMdiSubWindow13focusOutEventEP11QFocusEvent
PUBLIC 588c98 0 _ZNK13QMdiSubWindow10metaObjectEv
PUBLIC 588f14 0 _ZN13QMdiSubWindow12focusInEventEP11QFocusEvent
PUBLIC 58a7b4 0 _ZN13QMdiSubWindow9moveEventEP10QMoveEvent
PUBLIC 58add4 0 _ZNK13QMdiSubWindow6widgetEv
PUBLIC 58ade0 0 _ZNK13QMdiSubWindow8isShadedEv
PUBLIC 58adec 0 _ZN13QMdiSubWindow9setOptionENS_15SubWindowOptionEb
PUBLIC 58ae30 0 _ZNK13QMdiSubWindow10testOptionENS_15SubWindowOptionE
PUBLIC 58ae48 0 _ZNK13QMdiSubWindow18keyboardSingleStepEv
PUBLIC 58ae54 0 _ZN13QMdiSubWindow21setKeyboardSingleStepEi
PUBLIC 58ae60 0 _ZNK13QMdiSubWindow16keyboardPageStepEv
PUBLIC 58ae6c 0 _ZN13QMdiSubWindow19setKeyboardPageStepEi
PUBLIC 58ae78 0 _ZN13QMdiSubWindow13setSystemMenuEP5QMenu
PUBLIC 58af18 0 _ZNK13QMdiSubWindow10systemMenuEv
PUBLIC 58af24 0 _ZNK13QMdiSubWindow7mdiAreaEv
PUBLIC 58b764 0 _ZN13QMdiSubWindow11resizeEventEP12QResizeEvent
PUBLIC 58bc44 0 _ZN13QMdiSubWindow9hideEventEP10QHideEvent
PUBLIC 58bc4c 0 _ZN13QMdiSubWindow10leaveEventEP6QEvent
PUBLIC 58bdcc 0 _ZNK13QMdiSubWindow8sizeHintEv
PUBLIC 58cb84 0 _ZN13QMdiSubWindow16contextMenuEventEP17QContextMenuEvent
PUBLIC 58cc18 0 _ZNK13QMdiSubWindow15minimumSizeHintEv
PUBLIC 58d078 0 _ZNK13QMdiSubWindow29maximizedSystemMenuIconWidgetEv
PUBLIC 58d0ec 0 _ZN13QMdiSubWindow14showSystemMenuEv
PUBLIC 58d29c 0 _ZNK13QMdiSubWindow22maximizedButtonsWidgetEv
PUBLIC 58d514 0 _ZN13QMdiSubWindow18windowStateChangedE6QFlagsIN2Qt11WindowStateEES3_
PUBLIC 58d558 0 _ZN13QMdiSubWindow15aboutToActivateEv
PUBLIC 58df7c 0 _ZN13QMdiSubWindow14mouseMoveEventEP11QMouseEvent
PUBLIC 58f214 0 _ZN13QMdiSubWindow13keyPressEventEP9QKeyEvent
PUBLIC 58f918 0 _ZN13QMdiSubWindow10childEventEP11QChildEvent
PUBLIC 58f960 0 _ZN13QMdiSubWindow9setWidgetEP7QWidget
PUBLIC 58fd9c 0 _ZN13QMdiSubWindow10timerEventEP11QTimerEvent
PUBLIC 58ffac 0 _ZN13QMdiSubWindow10showShadedEv
PUBLIC 590344 0 _ZN13QMdiSubWindow21mouseDoubleClickEventEP11QMouseEvent
PUBLIC 591120 0 _ZN13QMdiSubWindowC1EP7QWidget6QFlagsIN2Qt10WindowTypeEE
PUBLIC 592210 0 _ZN13QMdiSubWindow11changeEventEP6QEvent
PUBLIC 59239c 0 _ZN13QMdiSubWindowD1Ev
PUBLIC 592404 0 _ZThn8_N13QMdiSubWindowD1Ev
PUBLIC 59240c 0 _ZN13QMdiSubWindowD0Ev
PUBLIC 592428 0 _ZThn8_N13QMdiSubWindowD0Ev
PUBLIC 592430 0 _ZN13QMdiSubWindow11eventFilterEP7QObjectP6QEvent
PUBLIC 592b98 0 _ZN13QMdiSubWindow5eventEP6QEvent
PUBLIC 593350 0 _ZN13QMdiSubWindow9showEventEP10QShowEvent
PUBLIC 5933d0 0 _ZN13QMdiSubWindow10closeEventEP11QCloseEvent
PUBLIC 5934c4 0 _ZN13QMdiSubWindow10paintEventEP11QPaintEvent
PUBLIC 59395c 0 _ZN13QMdiSubWindow15mousePressEventEP11QMouseEvent
PUBLIC 593c28 0 _ZN13QMdiSubWindow17mouseReleaseEventEP11QMouseEvent
PUBLIC 593f10 0 _ZN13QMdiSubWindow11qt_metacastEPKc
PUBLIC 593fec 0 _ZN13QMdiSubWindow11qt_metacallEN11QMetaObject4CallEiPPv
PUBLIC 5944ec 0 _ZN20QStyleHintReturnMaskD2Ev
PUBLIC 59529c 0 _ZN5QMenu10enterEventEP6QEvent
PUBLIC 5952ac 0 _ZNK5QMenu10metaObjectEv
PUBLIC 59582c 0 _ZNK5QMenu10menuActionEv
PUBLIC 595838 0 _ZNK5QMenu5titleEv
PUBLIC 595854 0 _ZN5QMenu8setTitleERK7QString
PUBLIC 595860 0 _ZNK5QMenu4iconEv
PUBLIC 59587c 0 _ZN5QMenu7setIconERK5QIcon
PUBLIC 5958f8 0 _ZNK5QMenu15initStyleOptionEP20QStyleOptionMenuItemPK7QAction
PUBLIC 595da8 0 _ZN5QMenuC1ER12QMenuPrivateP7QWidget
PUBLIC 595e10 0 _ZN5QMenu9addActionERK7QString
PUBLIC 595e54 0 _ZN5QMenu9addActionERK5QIconRK7QString
PUBLIC 595ea0 0 _ZN5QMenu9addActionERK7QStringPK7QObjectPKcRK12QKeySequence
PUBLIC 595f28 0 _ZN5QMenu9addActionERK5QIconRK7QStringPK7QObjectPKcRK12QKeySequence
PUBLIC 595fb8 0 _ZN5QMenu7addMenuEPS_
PUBLIC 595fe0 0 _ZN5QMenu12addSeparatorEv
PUBLIC 596028 0 _ZN5QMenu10insertMenuEP7QActionPS_
PUBLIC 596058 0 _ZN5QMenu15insertSeparatorEP7QAction
PUBLIC 5960a8 0 _ZN5QMenu16setDefaultActionEP7QAction
PUBLIC 5960c0 0 _ZNK5QMenu13defaultActionEv
PUBLIC 5960cc 0 _ZNK5QMenu16isTearOffEnabledEv
PUBLIC 5960dc 0 _ZNK5QMenu20isTearOffMenuVisibleEv
PUBLIC 5960fc 0 _ZN5QMenu15hideTearOffMenuEv
PUBLIC 596110 0 _ZN5QMenu17setTearOffEnabledEb
PUBLIC 5961a4 0 _ZNK5QMenu12activeActionEv
PUBLIC 5961b0 0 _ZNK5QMenu11columnCountEv
PUBLIC 5961c0 0 _ZNK5QMenu8actionAtERK6QPoint
PUBLIC 5961cc 0 _ZN5QMenu14setNoReplayForEP7QWidget
PUBLIC 5961d0 0 _ZNK5QMenu21separatorsCollapsibleEv
PUBLIC 5961e4 0 _ZN5QMenu11aboutToShowEv
PUBLIC 596208 0 _ZN5QMenu11aboutToHideEv
PUBLIC 59622c 0 _ZN5QMenu9triggeredEP7QAction
PUBLIC 596270 0 _ZN5QMenu7hoveredEP7QAction
PUBLIC 596494 0 _ZN5QMenuC2EP7QWidget
PUBLIC 5966e0 0 _ZN5QMenuC1ERK7QStringP7QWidget
PUBLIC 596940 0 _ZN5QMenu7addMenuERK7QString
PUBLIC 59698c 0 _ZN5QMenu7addMenuERK5QIconRK7QString
PUBLIC 5969e8 0 _ZNK5QMenu7isEmptyEv
PUBLIC 5979a0 0 _ZNK5QMenu14actionGeometryEP7QAction
PUBLIC 5979b8 0 _ZNK5QMenu8sizeHintEv
PUBLIC 597b70 0 _ZN5QMenu5popupERK6QPointP7QAction
PUBLIC 598408 0 _ZN5QMenu10paintEventEP11QPaintEvent
PUBLIC 598d04 0 _ZN5QMenu24setSeparatorsCollapsibleEb
PUBLIC 598f88 0 _ZN5QMenu5clearEv
PUBLIC 5990f8 0 _ZN5QMenuD1Ev
PUBLIC 599228 0 _ZThn8_N5QMenuD1Ev
PUBLIC 599230 0 _ZN5QMenuD0Ev
PUBLIC 59924c 0 _ZThn8_N5QMenuD0Ev
PUBLIC 599254 0 _ZN5QMenu11actionEventEP12QActionEvent
PUBLIC 59970c 0 _ZN5QMenu20internalDelayedPopupEv
PUBLIC 59af10 0 _ZN5QMenu10wheelEventEP11QWheelEvent
PUBLIC 59b1e8 0 _ZN5QMenu15setActiveActionEP7QAction
PUBLIC 59b240 0 _ZN5QMenu10leaveEventEP6QEvent
PUBLIC 59b2d4 0 _ZN5QMenu9hideEventEP10QHideEvent
PUBLIC 59b3c0 0 _ZN5QMenu23internalSetSloppyActionEv
PUBLIC 59b3f0 0 _ZN5QMenu10timerEventEP11QTimerEvent
PUBLIC 59b55c 0 _ZN5QMenu13keyPressEventEP9QKeyEvent
PUBLIC 59c7b8 0 _ZN5QMenu4execERK6QPointP7QAction
PUBLIC 59c87c 0 _ZN5QMenu4execEv
PUBLIC 59c8ac 0 _ZN5QMenu4execE5QListIP7QActionERK6QPointS2_P7QWidget
PUBLIC 59c96c 0 _ZN5QMenu4execE5QListIP7QActionERK6QPointS2_
PUBLIC 59d3f8 0 _ZN5QMenu15mousePressEventEP11QMouseEvent
PUBLIC 59d584 0 _ZN5QMenu17mouseReleaseEventEP11QMouseEvent
PUBLIC 59d63c 0 _ZN5QMenu14mouseMoveEventEP11QMouseEvent
PUBLIC 59d838 0 _ZN5QMenu11changeEventEP6QEvent
PUBLIC 59d9d4 0 _ZN5QMenu5eventEP6QEvent
PUBLIC 59dc9c 0 _ZN5QMenu18focusNextPrevChildEb
PUBLIC 59ddc4 0 _ZN5QMenu11qt_metacastEPKc
PUBLIC 59de54 0 _ZN5QMenu11qt_metacallEN11QMetaObject4CallEiPPv
PUBLIC 59f148 0 _ZNK8QMenuBar10metaObjectEv
PUBLIC 59f1b4 0 _ZN8QMenuBarD2Ev
PUBLIC 59f1f0 0 _ZThn8_N8QMenuBarD1Ev
PUBLIC 59f1f8 0 _ZN8QMenuBarD0Ev
PUBLIC 59f214 0 _ZThn8_N8QMenuBarD0Ev
PUBLIC 59f21c 0 _ZN8QMenuBar10setVisibleEb
PUBLIC 59f69c 0 _ZNK8QMenuBar15initStyleOptionEP20QStyleOptionMenuItemPK7QAction
PUBLIC 59f890 0 _ZN8QMenuBar9addActionERK7QString
PUBLIC 59f8d4 0 _ZN8QMenuBar9addActionERK7QStringPK7QObjectPKc
PUBLIC 59f94c 0 _ZN8QMenuBar7addMenuERK7QString
PUBLIC 59f998 0 _ZN8QMenuBar7addMenuERK5QIconRK7QString
PUBLIC 59f9f4 0 _ZN8QMenuBar7addMenuEP5QMenu
PUBLIC 59fa1c 0 _ZN8QMenuBar12addSeparatorEv
PUBLIC 59fa64 0 _ZN8QMenuBar15insertSeparatorEP7QAction
PUBLIC 59fab4 0 _ZN8QMenuBar10insertMenuEP7QActionP5QMenu
PUBLIC 59fae4 0 _ZNK8QMenuBar12activeActionEv
PUBLIC 59faf0 0 _ZN8QMenuBar12setDefaultUpEb
PUBLIC 59fb00 0 _ZNK8QMenuBar11isDefaultUpEv
PUBLIC 59fc90 0 _ZNK8QMenuBar12cornerWidgetEN2Qt6CornerE
PUBLIC 59fcd0 0 _ZN8QMenuBar16setNativeMenuBarEb
PUBLIC 59fd10 0 _ZNK8QMenuBar15isNativeMenuBarEv
PUBLIC 59fd4c 0 _ZN8QMenuBar9triggeredEP7QAction
PUBLIC 59fdd4 0 _ZN8QMenuBar7hoveredEP7QAction
PUBLIC 59fe60 0 _ZN8QMenuBarC1EP7QWidget
PUBLIC 5a072c 0 _ZN8QMenuBar5clearEv
PUBLIC 5a1184 0 _ZNK8QMenuBar8actionAtERK6QPoint
PUBLIC 5a14c4 0 _ZN8QMenuBar10paintEventEP11QPaintEvent
PUBLIC 5a1a80 0 _ZNK8QMenuBar14actionGeometryEP7QAction
PUBLIC 5a1be8 0 _ZN8QMenuBar11resizeEventEP12QResizeEvent
PUBLIC 5a1c00 0 _ZN8QMenuBar11actionEventEP12QActionEvent
PUBLIC 5a1cd4 0 _ZNK8QMenuBar14heightForWidthEi
PUBLIC 5a1f68 0 _ZN8QMenuBar15setCornerWidgetEP7QWidgetN2Qt6CornerE
PUBLIC 5a2024 0 _ZNK8QMenuBar15minimumSizeHintEv
PUBLIC 5a23c4 0 _ZNK8QMenuBar8sizeHintEv
PUBLIC 5a2a5c 0 _ZN8QMenuBar12focusInEventEP11QFocusEvent
PUBLIC 5a2bb4 0 _ZN8QMenuBar11eventFilterEP7QObjectP6QEvent
PUBLIC 5a2d90 0 _ZN8QMenuBar15setActiveActionEP7QAction
PUBLIC 5a2da0 0 _ZN8QMenuBar15mousePressEventEP11QMouseEvent
PUBLIC 5a2ea8 0 _ZN8QMenuBar17mouseReleaseEventEP11QMouseEvent
PUBLIC 5a2f80 0 _ZN8QMenuBar13keyPressEventEP9QKeyEvent
PUBLIC 5a3564 0 _ZN8QMenuBar14mouseMoveEventEP11QMouseEvent
PUBLIC 5a3600 0 _ZN8QMenuBar10leaveEventEP6QEvent
PUBLIC 5a3650 0 _ZN8QMenuBar13focusOutEventEP11QFocusEvent
PUBLIC 5a3688 0 _ZN8QMenuBar10timerEventEP11QTimerEvent
PUBLIC 5a37a0 0 _ZN8QMenuBar11changeEventEP6QEvent
PUBLIC 5a38ac 0 _ZN8QMenuBar5eventEP6QEvent
PUBLIC 5a3a84 0 _ZN8QMenuBar11qt_metacastEPKc
PUBLIC 5a3ac8 0 _ZN8QMenuBar11qt_metacallEN11QMetaObject4CallEiPPv
PUBLIC 5a3fc8 0 _ZNK12QProgressBar4textEv
PUBLIC 5a4414 0 _ZNK12QProgressBar15initStyleOptionEP23QStyleOptionProgressBar
PUBLIC 5a4528 0 _ZNK12QProgressBar8sizeHintEv
PUBLIC 5a4684 0 _ZN12QProgressBar10paintEventEP11QPaintEvent
PUBLIC 5a4864 0 _ZN12QProgressBarC1EP7QWidget
PUBLIC 5a48f4 0 _ZN12QProgressBar5resetEv
PUBLIC 5a490c 0 _ZNK12QProgressBar7minimumEv
PUBLIC 5a4918 0 _ZNK12QProgressBar7maximumEv
PUBLIC 5a4924 0 _ZNK12QProgressBar5valueEv
PUBLIC 5a4930 0 _ZN12QProgressBar8setRangeEii
PUBLIC 5a4970 0 _ZN12QProgressBar10setMinimumEi
PUBLIC 5a4984 0 _ZN12QProgressBar10setMaximumEi
PUBLIC 5a499c 0 _ZN12QProgressBar14setTextVisibleEb
PUBLIC 5a49c4 0 _ZNK12QProgressBar13isTextVisibleEv
PUBLIC 5a49d4 0 _ZN12QProgressBar12setAlignmentE6QFlagsIN2Qt13AlignmentFlagEE
PUBLIC 5a49f0 0 _ZNK12QProgressBar9alignmentEv
PUBLIC 5a4a00 0 _ZN12QProgressBar14setOrientationEN2Qt11OrientationE
PUBLIC 5a4b24 0 _ZNK12QProgressBar11orientationEv
PUBLIC 5a4e14 0 _ZN12QProgressBar8setValueEi
PUBLIC 5a4e84 0 _ZNK12QProgressBar15minimumSizeHintEv
PUBLIC 5a4f70 0 _ZN12QProgressBar21setInvertedAppearanceEb
PUBLIC 5a4f7c 0 _ZN12QProgressBar18invertedAppearanceEv
PUBLIC 5a4f88 0 _ZN12QProgressBar16setTextDirectionENS_9DirectionE
PUBLIC 5a4f94 0 _ZN12QProgressBar13textDirectionEv
PUBLIC 5a4fa0 0 _ZN12QProgressBar9setFormatERK7QString
PUBLIC 5a4fdc 0 _ZNK12QProgressBar6formatEv
PUBLIC 5a5018 0 _ZN12QProgressBar5eventEP6QEvent
PUBLIC 5a51c8 0 _ZNK11QPushButton15minimumSizeHintEv
PUBLIC 5a51e4 0 _ZNK11QPushButton10metaObjectEv
PUBLIC 5a5210 0 _ZN11QPushButtonD1Ev
PUBLIC 5a524c 0 _ZThn8_N11QPushButtonD1Ev
PUBLIC 5a5254 0 _ZN11QPushButtonD0Ev
PUBLIC 5a5270 0 _ZThn8_N11QPushButtonD0Ev
PUBLIC 5a52f0 0 _ZN11QPushButton14setAutoDefaultEb
PUBLIC 5a5348 0 _ZNK11QPushButton11autoDefaultEv
PUBLIC 5a537c 0 _ZNK11QPushButton15initStyleOptionEP18QStyleOptionButton
PUBLIC 5a54a0 0 _ZN11QPushButton10setDefaultEb
PUBLIC 5a550c 0 _ZNK11QPushButton9isDefaultEv
PUBLIC 5a5520 0 _ZN11QPushButton10paintEventEP11QPaintEvent
PUBLIC 5a5634 0 _ZNK11QPushButton4menuEv
PUBLIC 5a5640 0 _ZNK11QPushButton8sizeHintEv
PUBLIC 5a5d40 0 _ZN11QPushButton8showMenuEv
PUBLIC 5a5e28 0 _ZN11QPushButtonC2EP7QWidget
PUBLIC 5a5ed4 0 _ZN11QPushButtonC2ERK7QStringP7QWidget
PUBLIC 5a5f94 0 _ZN11QPushButtonC2ERK5QIconRK7QStringP7QWidget
PUBLIC 5a6064 0 _ZN11QPushButtonC1ER18QPushButtonPrivateP7QWidget
PUBLIC 5a60b8 0 _ZN11QPushButton7setMenuEP5QMenu
PUBLIC 5a61a0 0 _ZN11QPushButton7setFlatEb
PUBLIC 5a61f8 0 _ZNK11QPushButton6isFlatEv
PUBLIC 5a620c 0 _ZN11QPushButton13keyPressEventEP9QKeyEvent
PUBLIC 5a6264 0 _ZN11QPushButton12focusInEventEP11QFocusEvent
PUBLIC 5a62f4 0 _ZN11QPushButton13focusOutEventEP11QFocusEvent
PUBLIC 5a63b8 0 _ZN11QPushButton5eventEP6QEvent
PUBLIC 5a6448 0 _ZN11QPushButton11qt_metacastEPKc
PUBLIC 5a648c 0 _ZN11QPushButton11qt_metacallEN11QMetaObject4CallEiPPv
PUBLIC 5a6620 0 _ZN12QRadioButtonC1EP7QWidget
PUBLIC 5a66c0 0 _ZN12QRadioButtonC1ERK7QStringP7QWidget
PUBLIC 5a6770 0 _ZNK12QRadioButton15initStyleOptionEP18QStyleOptionButton
PUBLIC 5a6850 0 _ZNK12QRadioButton9hitButtonERK6QPoint
PUBLIC 5a6934 0 _ZN12QRadioButton10paintEventEP11QPaintEvent
PUBLIC 5a6a48 0 _ZNK12QRadioButton8sizeHintEv
PUBLIC 5a6cd8 0 _ZN12QRadioButton14mouseMoveEventEP11QMouseEvent
PUBLIC 5a6d70 0 _ZN12QRadioButton5eventEP6QEvent
PUBLIC 5a6f98 0 _ZN11QRubberBandD1Ev
PUBLIC 5a6fd4 0 _ZThn8_N11QRubberBandD1Ev
PUBLIC 5a6fdc 0 _ZN11QRubberBandD0Ev
PUBLIC 5a6ff8 0 _ZThn8_N11QRubberBandD0Ev
PUBLIC 5a7000 0 _ZN11QRubberBand9showEventEP10QShowEvent
PUBLIC 5a701c 0 _ZNK11QRubberBand15initStyleOptionEP22QStyleOptionRubberBand
PUBLIC 5a7050 0 _ZN11QRubberBand10paintEventEP11QPaintEvent
PUBLIC 5a7108 0 _ZN11QRubberBandC2ENS_5ShapeEP7QWidget
PUBLIC 5a723c 0 _ZNK11QRubberBand5shapeEv
PUBLIC 5a7310 0 _ZN11QRubberBand11resizeEventEP12QResizeEvent
PUBLIC 5a7318 0 _ZN11QRubberBand9moveEventEP10QMoveEvent
PUBLIC 5a7320 0 _ZN11QRubberBand11setGeometryERK5QRect
PUBLIC 5a7324 0 _ZN11QRubberBand11changeEventEP6QEvent
PUBLIC 5a7394 0 _ZN11QRubberBand5eventEP6QEvent
PUBLIC 5a7418 0 _ZN10QScrollBar9hideEventEP10QHideEvent
PUBLIC 5a743c 0 _ZN10QScrollBarD1Ev
PUBLIC 5a7478 0 _ZThn8_N10QScrollBarD1Ev
PUBLIC 5a7480 0 _ZN10QScrollBarD0Ev
PUBLIC 5a749c 0 _ZThn8_N10QScrollBarD0Ev
PUBLIC 5a74f0 0 _ZNK10QScrollBar15initStyleOptionEP18QStyleOptionSlider
PUBLIC 5a7790 0 _ZN10QScrollBar17mouseReleaseEventEP11QMouseEvent
PUBLIC 5a77b4 0 _ZNK10QScrollBar8sizeHintEv
PUBLIC 5a78c0 0 _ZN10QScrollBar10paintEventEP11QPaintEvent
PUBLIC 5a7a50 0 _ZN10QScrollBarC2EP7QWidget
PUBLIC 5a7b04 0 _ZN10QScrollBarC1EN2Qt11OrientationEP7QWidget
PUBLIC 5a7cd4 0 _ZN10QScrollBar15mousePressEventEP11QMouseEvent
PUBLIC 5a8014 0 _ZN10QScrollBar14mouseMoveEventEP11QMouseEvent
PUBLIC 5a8370 0 _Z24qt_qscrollbarStyleOptionP10QScrollBar
PUBLIC 5a83a0 0 _ZN10QScrollBar16contextMenuEventEP17QContextMenuEvent
PUBLIC 5a89b8 0 _ZN10QScrollBar12sliderChangeEN15QAbstractSlider12SliderChangeE
PUBLIC 5a89bc 0 _ZN10QScrollBar5eventEP6QEvent
PUBLIC 5a8ab0 0 _ZNK9QSizeGrip10metaObjectEv
PUBLIC 5a8adc 0 _ZN9QSizeGripD1Ev
PUBLIC 5a8b18 0 _ZThn8_N9QSizeGripD1Ev
PUBLIC 5a8b20 0 _ZN9QSizeGripD0Ev
PUBLIC 5a8b3c 0 _ZThn8_N9QSizeGripD0Ev
PUBLIC 5a8b44 0 _ZNK9QSizeGrip8sizeHintEv
PUBLIC 5a8bfc 0 _ZN9QSizeGrip10paintEventEP11QPaintEvent
PUBLIC 5a8c90 0 _ZN9QSizeGrip11eventFilterEP7QObjectP6QEvent
PUBLIC 5a8e24 0 _ZN9QSizeGrip9moveEventEP10QMoveEvent
PUBLIC 5a8fc8 0 _ZN9QSizeGripC2EP7QWidget
PUBLIC 5a9090 0 _ZN9QSizeGrip15mousePressEventEP11QMouseEvent
PUBLIC 5a9318 0 _ZN9QSizeGrip14mouseMoveEventEP11QMouseEvent
PUBLIC 5a9574 0 _ZN9QSizeGrip17mouseReleaseEventEP11QMouseEvent
PUBLIC 5a959c 0 _ZN9QSizeGrip9showEventEP10QShowEvent
PUBLIC 5a95a0 0 _ZN9QSizeGrip9hideEventEP10QHideEvent
PUBLIC 5a95a4 0 _ZN9QSizeGrip10setVisibleEb
PUBLIC 5a95a8 0 _ZN9QSizeGrip5eventEP6QEvent
PUBLIC 5a95ac 0 _ZN9QSizeGrip11qt_metacastEPKc
PUBLIC 5a95f0 0 _ZN9QSizeGrip11qt_metacallEN11QMetaObject4CallEiPPv
PUBLIC 5a97a0 0 _ZN7QSliderD2Ev
PUBLIC 5a97dc 0 _ZThn8_N7QSliderD1Ev
PUBLIC 5a97e4 0 _ZN7QSliderD0Ev
PUBLIC 5a9800 0 _ZThn8_N7QSliderD0Ev
PUBLIC 5a9808 0 _ZNK7QSlider15initStyleOptionEP18QStyleOptionSlider
PUBLIC 5a9b20 0 _ZNK7QSlider8sizeHintEv
PUBLIC 5a9c24 0 _ZNK7QSlider15minimumSizeHintEv
PUBLIC 5a9cac 0 _ZN7QSlider10paintEventEP11QPaintEvent
PUBLIC 5a9d70 0 _ZN7QSlider15mousePressEventEP11QMouseEvent
PUBLIC 5aa0d0 0 _ZN7QSlider14mouseMoveEventEP11QMouseEvent
PUBLIC 5aa16c 0 _ZN7QSlider17mouseReleaseEventEP11QMouseEvent
PUBLIC 5aa474 0 _ZN7QSliderC1EP7QWidget
PUBLIC 5aa528 0 _ZN7QSliderC1EN2Qt11OrientationEP7QWidget
PUBLIC 5aa5dc 0 _ZN7QSlider15setTickPositionENS_12TickPositionE
PUBLIC 5aa604 0 _ZNK7QSlider12tickPositionEv
PUBLIC 5aa610 0 _ZN7QSlider15setTickIntervalEi
PUBLIC 5aa620 0 _ZNK7QSlider12tickIntervalEv
PUBLIC 5aa62c 0 _Z21qt_qsliderStyleOptionP7QSlider
PUBLIC 5aa65c 0 _ZN7QSlider5eventEP6QEvent
PUBLIC 5aa790 0 _ZNK8QSpinBox5fixupER7QString
PUBLIC 5aa7d0 0 _ZNK14QDoubleSpinBox5fixupER7QString
PUBLIC 5aa810 0 _ZN8QSpinBox5eventEP6QEvent
PUBLIC 5aaa58 0 _ZNK8QSpinBox13textFromValueEi
PUBLIC 5aaaec 0 _ZNK14QDoubleSpinBox13textFromValueEd
PUBLIC 5aabbc 0 _ZNK8QSpinBox5valueEv
PUBLIC 5aabcc 0 _ZN8QSpinBox8setValueEi
PUBLIC 5aac10 0 _ZNK8QSpinBox6prefixEv
PUBLIC 5aac4c 0 _ZN8QSpinBox9setPrefixERK7QString
PUBLIC 5aac88 0 _ZNK8QSpinBox6suffixEv
PUBLIC 5aacc4 0 _ZN8QSpinBox9setSuffixERK7QString
PUBLIC 5aad00 0 _ZNK8QSpinBox9cleanTextEv
PUBLIC 5aad84 0 _ZNK8QSpinBox10singleStepEv
PUBLIC 5aad94 0 _ZN8QSpinBox13setSingleStepEi
PUBLIC 5aade8 0 _ZNK8QSpinBox7minimumEv
PUBLIC 5aadf8 0 _ZN8QSpinBox10setMinimumEi
PUBLIC 5aae58 0 _ZNK8QSpinBox7maximumEv
PUBLIC 5aae68 0 _ZN8QSpinBox10setMaximumEi
PUBLIC 5aaec8 0 _ZN8QSpinBox8setRangeEii
PUBLIC 5aaf38 0 _ZNK14QDoubleSpinBox5valueEv
PUBLIC 5aaf48 0 _ZNK14QDoubleSpinBox6prefixEv
PUBLIC 5aaf84 0 _ZN14QDoubleSpinBox9setPrefixERK7QString
PUBLIC 5aafa8 0 _ZNK14QDoubleSpinBox6suffixEv
PUBLIC 5aafe4 0 _ZN14QDoubleSpinBox9setSuffixERK7QString
PUBLIC 5ab008 0 _ZNK14QDoubleSpinBox9cleanTextEv
PUBLIC 5ab08c 0 _ZNK14QDoubleSpinBox10singleStepEv
PUBLIC 5ab09c 0 _ZN14QDoubleSpinBox13setSingleStepEd
PUBLIC 5ab114 0 _ZNK14QDoubleSpinBox7minimumEv
PUBLIC 5ab124 0 _ZNK14QDoubleSpinBox7maximumEv
PUBLIC 5ab134 0 _ZNK14QDoubleSpinBox8decimalsEv
PUBLIC 5ab228 0 _ZN8QSpinBoxC1EP7QWidget
PUBLIC 5ab7bc 0 _ZNK8QSpinBox13valueFromTextERK7QString
PUBLIC 5ab89c 0 _ZNK8QSpinBox8validateER7QStringRi
PUBLIC 5aba00 0 _ZN14QDoubleSpinBoxC2EP7QWidget
PUBLIC 5abb20 0 _ZN14QDoubleSpinBox8setValueEd
PUBLIC 5abb74 0 _ZN14QDoubleSpinBox10setMinimumEd
PUBLIC 5abbec 0 _ZN14QDoubleSpinBox10setMaximumEd
PUBLIC 5abc64 0 _ZN14QDoubleSpinBox8setRangeEdd
PUBLIC 5abd08 0 _ZN14QDoubleSpinBox11setDecimalsEi
PUBLIC 5ac650 0 _ZNK14QDoubleSpinBox13valueFromTextERK7QString
PUBLIC 5ac738 0 _ZNK14QDoubleSpinBox8validateER7QStringRi
PUBLIC 5ac82c 0 _ZN13QSplashScreen15mousePressEventEP11QMouseEvent
PUBLIC 5ac844 0 _ZN13QSplashScreenD2Ev
PUBLIC 5ac880 0 _ZThn8_N13QSplashScreenD1Ev
PUBLIC 5ac888 0 _ZN13QSplashScreenD0Ev
PUBLIC 5ac8a4 0 _ZThn8_N13QSplashScreenD0Ev
PUBLIC 5ac8ac 0 _ZN13QSplashScreen6finishEP7QWidget
PUBLIC 5ac8b0 0 _ZNK13QSplashScreen6pixmapEv
PUBLIC 5ac9d8 0 _ZN13QSplashScreen7repaintEv
PUBLIC 5ac9f8 0 _ZN13QSplashScreen11showMessageERK7QStringiRK6QColor
PUBLIC 5aca40 0 _ZN13QSplashScreen12clearMessageEv
PUBLIC 5acb10 0 _ZN13QSplashScreen9setPixmapERK7QPixmap
PUBLIC 5acd00 0 _ZN13QSplashScreenC2ERK7QPixmap6QFlagsIN2Qt10WindowTypeEE
PUBLIC 5ace3c 0 _ZN13QSplashScreenC2EP7QWidgetRK7QPixmap6QFlagsIN2Qt10WindowTypeEE
PUBLIC 5acf7c 0 _ZN13QSplashScreen12drawContentsEP8QPainter
PUBLIC 5ad150 0 _ZN13QSplashScreen5eventEP6QEvent
PUBLIC 5ad26c 0 _ZN15QSplitterHandle15mousePressEventEP11QMouseEvent
PUBLIC 5ad2a0 0 _ZN15QSplitterHandle14setOrientationEN2Qt11OrientationE
PUBLIC 5ad2f4 0 _ZN15QSplitterHandleC1EN2Qt11OrientationEP9QSplitter
PUBLIC 5ad3cc 0 _ZN9QSplitter12createHandleEv
PUBLIC 5ad404 0 _ZNK15QSplitterHandle11orientationEv
PUBLIC 5ad410 0 _ZN15QSplitterHandle10paintEventEP11QPaintEvent
PUBLIC 5ad524 0 _ZNK15QSplitterHandle8splitterEv
PUBLIC 5ae1e8 0 _ZN9QSplitterC1EP7QWidget
PUBLIC 5ae320 0 _ZN9QSplitterC2EN2Qt11OrientationEP7QWidget
PUBLIC 5ae458 0 _ZNK9QSplitter11orientationEv
PUBLIC 5ae464 0 _ZNK9QSplitter8sizeHintEv
PUBLIC 5ae564 0 _ZNK9QSplitter15minimumSizeHintEv
PUBLIC 5ae6e0 0 _ZN9QSplitter22setChildrenCollapsibleEb
PUBLIC 5ae6ec 0 _ZNK9QSplitter19childrenCollapsibleEv
PUBLIC 5ae6fc 0 _ZN9QSplitter14setCollapsibleEib
PUBLIC 5ae754 0 _ZNK9QSplitter13isCollapsibleEi
PUBLIC 5ae7b0 0 _ZNK9QSplitter7indexOfEP7QWidget
PUBLIC 5ae83c 0 _ZNK9QSplitter6handleEi
PUBLIC 5ae87c 0 _ZNK9QSplitter6widgetEi
PUBLIC 5ae8bc 0 _ZNK9QSplitter5countEv
PUBLIC 5ae8d4 0 _ZN9QSplitter12moveSplitterEii
PUBLIC 5aec30 0 _ZN15QSplitterHandle12moveSplitterEi
PUBLIC 5aecac 0 _ZNK9QSplitter8getRangeEiPiS0_
PUBLIC 5aecd4 0 _ZN9QSplitter20closestLegalPositionEii
PUBLIC 5aed08 0 _ZN15QSplitterHandle20closestLegalPositionEi
PUBLIC 5aeda8 0 _ZNK9QSplitter12opaqueResizeEv
PUBLIC 5aedb8 0 _ZNK15QSplitterHandle12opaqueResizeEv
PUBLIC 5aedc4 0 _ZN9QSplitter15setOpaqueResizeEb
PUBLIC 5aedd0 0 _ZNK9QSplitter11handleWidthEv
PUBLIC 5aee18 0 _ZNK15QSplitterHandle8sizeHintEv
PUBLIC 5aeeec 0 _ZN9QSplitter13setRubberBandEi
PUBLIC 5af08c 0 _ZN15QSplitterHandle14mouseMoveEventEP11QMouseEvent
PUBLIC 5af120 0 _ZN15QSplitterHandle17mouseReleaseEventEP11QMouseEvent
PUBLIC 5af1c0 0 _ZN9QSplitter16setStretchFactorEii
PUBLIC 5af224 0 _ZNK9QSplitter5sizesEv
PUBLIC 5af310 0 _ZN9QSplitterD1Ev
PUBLIC 5af418 0 _ZThn8_N9QSplitterD1Ev
PUBLIC 5af420 0 _ZN9QSplitterD0Ev
PUBLIC 5af43c 0 _ZThn8_N9QSplitterD0Ev
PUBLIC 5b021c 0 _ZN9QSplitter14setHandleWidthEi
PUBLIC 5b0300 0 _ZN9QSplitter12insertWidgetEiP7QWidget
PUBLIC 5b030c 0 _ZN9QSplitter9addWidgetEP7QWidget
PUBLIC 5b0328 0 _ZN9QSplitter7refreshEv
PUBLIC 5b0334 0 _ZN9QSplitter14setOrientationEN2Qt11OrientationE
PUBLIC 5b0424 0 _ZN9QSplitter10childEventEP11QChildEvent
PUBLIC 5b0748 0 _ZN9QSplitter8setSizesERK5QListIiE
PUBLIC 5b0754 0 _ZN9QSplitter11resizeEventEP12QResizeEvent
PUBLIC 5b075c 0 _ZN15QSplitterHandle11resizeEventEP12QResizeEvent
PUBLIC 5b0820 0 _ZN15QSplitterHandle5eventEP6QEvent
PUBLIC 5b0884 0 _ZN9QSplitter5eventEP6QEvent
PUBLIC 5b091c 0 _ZN9QSplitter11changeEventEP6QEvent
PUBLIC 5b0964 0 _ZNK9QSplitter9saveStateEv
PUBLIC 5b0b58 0 _ZlsR11QTextStreamRK9QSplitter
PUBLIC 5b0bd0 0 _ZN9QSplitter12restoreStateERK10QByteArray
PUBLIC 5b0db0 0 _ZrsR11QTextStreamR9QSplitter
PUBLIC 5b1388 0 _ZN14QStackedWidgetD2Ev
PUBLIC 5b13c4 0 _ZThn8_N14QStackedWidgetD1Ev
PUBLIC 5b13cc 0 _ZN14QStackedWidgetD0Ev
PUBLIC 5b13e8 0 _ZThn8_N14QStackedWidgetD0Ev
PUBLIC 5b13f0 0 _ZN14QStackedWidgetC1EP7QWidget
PUBLIC 5b1500 0 _ZN14QStackedWidget9addWidgetEP7QWidget
PUBLIC 5b150c 0 _ZN14QStackedWidget12insertWidgetEiP7QWidget
PUBLIC 5b1518 0 _ZN14QStackedWidget12removeWidgetEP7QWidget
PUBLIC 5b1524 0 _ZN14QStackedWidget15setCurrentIndexEi
PUBLIC 5b1530 0 _ZNK14QStackedWidget12currentIndexEv
PUBLIC 5b153c 0 _ZNK14QStackedWidget13currentWidgetEv
PUBLIC 5b1548 0 _ZN14QStackedWidget16setCurrentWidgetEP7QWidget
PUBLIC 5b1594 0 _ZNK14QStackedWidget7indexOfEP7QWidget
PUBLIC 5b15b0 0 _ZNK14QStackedWidget6widgetEi
PUBLIC 5b15bc 0 _ZNK14QStackedWidget5countEv
PUBLIC 5b15d8 0 _ZN14QStackedWidget5eventEP6QEvent
PUBLIC 5b1634 0 _ZN10QStatusBar9showEventEP10QShowEvent
PUBLIC 5b1934 0 _ZN10QStatusBar10paintEventEP11QPaintEvent
PUBLIC 5b1b84 0 _ZNK10QStatusBar17isSizeGripEnabledEv
PUBLIC 5b1b98 0 _ZN10QStatusBar8reformatEv
PUBLIC 5b1ee8 0 _ZN10QStatusBar18setSizeGripEnabledEb
PUBLIC 5b2114 0 _ZNK10QStatusBar14currentMessageEv
PUBLIC 5b2150 0 _ZN10QStatusBar10hideOrShowEv
PUBLIC 5b2280 0 _ZN10QStatusBar11showMessageERK7QStringi
PUBLIC 5b2360 0 _ZN10QStatusBar12clearMessageEv
PUBLIC 5b2470 0 _ZN10QStatusBarC1EP7QWidget
PUBLIC 5b25a0 0 _ZN10QStatusBar12insertWidgetEiP7QWidgeti
PUBLIC 5b2750 0 _ZN10QStatusBar9addWidgetEP7QWidgeti
PUBLIC 5b27e4 0 _ZN10QStatusBar21insertPermanentWidgetEiP7QWidgeti
PUBLIC 5b296c 0 _ZN10QStatusBar18addPermanentWidgetEP7QWidgeti
PUBLIC 5b29a4 0 _ZN10QStatusBarD1Ev
PUBLIC 5b2a88 0 _ZThn8_N10QStatusBarD1Ev
PUBLIC 5b2a90 0 _ZN10QStatusBarD0Ev
PUBLIC 5b2aac 0 _ZThn8_N10QStatusBarD0Ev
PUBLIC 5b2ab4 0 _ZN10QStatusBar12removeWidgetEP7QWidget
PUBLIC 5b2b9c 0 _ZN10QStatusBar11resizeEventEP12QResizeEvent
PUBLIC 5b2ba0 0 _ZN10QStatusBar5eventEP6QEvent
PUBLIC 5b30d8 0 _ZN7QTabBar11tabInsertedEi
PUBLIC 5b30dc 0 _ZN7QTabBar10tabRemovedEi
PUBLIC 5b30e0 0 _ZN7QTabBar15tabLayoutChangeEv
PUBLIC 5b30e4 0 _ZN7QTabBar9hideEventEP10QHideEvent
PUBLIC 5b30e8 0 _ZNK7QTabBar10metaObjectEv
PUBLIC 5b3114 0 _ZN7QTabBarD2Ev
PUBLIC 5b3150 0 _ZThn8_N7QTabBarD1Ev
PUBLIC 5b3158 0 _ZN7QTabBarD0Ev
PUBLIC 5b3174 0 _ZThn8_N7QTabBarD0Ev
PUBLIC 5b317c 0 _ZNK7QTabBar15minimumSizeHintEv
PUBLIC 5b39a0 0 _ZN7QTabBarC1EP7QWidget
PUBLIC 5b3af8 0 _ZNK7QTabBar5shapeEv
PUBLIC 5b3b04 0 _ZN7QTabBar11setDrawBaseEb
PUBLIC 5b3b1c 0 _ZNK7QTabBar8drawBaseEv
PUBLIC 5b3b28 0 _ZNK7QTabBar12isTabEnabledEi
PUBLIC 5b3b74 0 _ZNK7QTabBar7tabTextEi
PUBLIC 5b3c24 0 _ZNK7QTabBar12tabTextColorEi
PUBLIC 5b3c98 0 _ZNK7QTabBar7tabIconEi
PUBLIC 5b3cf8 0 _ZN7QTabBar13setTabToolTipEiRK7QString
PUBLIC 5b3d20 0 _ZNK7QTabBar10tabToolTipEi
PUBLIC 5b3dd0 0 _ZN7QTabBar15setTabWhatsThisEiRK7QString
PUBLIC 5b3df8 0 _ZNK7QTabBar12tabWhatsThisEi
PUBLIC 5b3ea8 0 _ZN7QTabBar10setTabDataEiRK8QVariant
PUBLIC 5b3ed0 0 _ZNK7QTabBar7tabDataEi
PUBLIC 5b3f44 0 _ZNK7QTabBar12currentIndexEv
PUBLIC 5b3f78 0 _ZNK7QTabBar8iconSizeEv
PUBLIC 5b3fe4 0 _ZN7QTabBar11setIconSizeERK5QSize
PUBLIC 5b4018 0 _ZNK7QTabBar5countEv
PUBLIC 5b4a1c 0 _ZNK7QTabBar9elideModeEv
PUBLIC 5b4a28 0 _ZNK7QTabBar17usesScrollButtonsEv
PUBLIC 5b4a34 0 _ZNK7QTabBar12tabsClosableEv
PUBLIC 5b4a40 0 _ZNK7QTabBar25selectionBehaviorOnRemoveEv
PUBLIC 5b4a4c 0 _ZN7QTabBar28setSelectionBehaviorOnRemoveENS_17SelectionBehaviorE
PUBLIC 5b4a58 0 _ZNK7QTabBar9expandingEv
PUBLIC 5b4a64 0 _ZNK7QTabBar9isMovableEv
PUBLIC 5b4a70 0 _ZN7QTabBar10setMovableEb
PUBLIC 5b4a7c 0 _ZNK7QTabBar12documentModeEv
PUBLIC 5b4a88 0 _ZN7QTabBar15setDocumentModeEb
PUBLIC 5b4a94 0 _ZNK7QTabBar9tabButtonEiNS_14ButtonPositionE
PUBLIC 5b4d98 0 _ZN7QTabBar14currentChangedEi
PUBLIC 5b4dd8 0 _ZN7QTabBar17tabCloseRequestedEi
PUBLIC 5b4ed4 0 _ZN7QTabBar8tabMovedEii
PUBLIC 5b6070 0 _ZNK7QTabBar7tabRectEi
PUBLIC 5b61b4 0 _ZNK7QTabBar15initStyleOptionEP15QStyleOptionTabi
PUBLIC 5b716c 0 _ZN7QTabBar7moveTabEii
PUBLIC 5b8148 0 _ZN7QTabBar15setCurrentIndexEi
PUBLIC 5b841c 0 _ZN7QTabBar13setTabEnabledEib
PUBLIC 5b856c 0 _ZN7QTabBar13keyPressEventEP9QKeyEvent
PUBLIC 5b85d8 0 _ZN7QTabBar10wheelEventEP11QWheelEvent
PUBLIC 5b8868 0 _ZNK7QTabBar11tabSizeHintEi
PUBLIC 5b8cf4 0 _ZN7QTabBar15setTabTextColorEiRK6QColor
PUBLIC 5b8d48 0 _ZNK7QTabBar5tabAtERK6QPoint
PUBLIC 5b8e20 0 _ZN7QTabBar10paintEventEP11QPaintEvent
PUBLIC 5ba4b0 0 _ZN7QTabBar15mousePressEventEP11QMouseEvent
PUBLIC 5ba5f0 0 _ZN7QTabBar17mouseReleaseEventEP11QMouseEvent
PUBLIC 5babac 0 _ZN7QTabBar8setShapeENS_5ShapeE
PUBLIC 5babc4 0 _ZN7QTabBar10setTabTextEiRK7QString
PUBLIC 5bac58 0 _ZN7QTabBar12setElideModeEN2Qt13TextElideModeE
PUBLIC 5bac6c 0 _ZN7QTabBar20setUsesScrollButtonsEb
PUBLIC 5bac8c 0 _ZN7QTabBar9removeTabEi
PUBLIC 5bb61c 0 _ZN7QTabBar9showEventEP10QShowEvent
PUBLIC 5bb674 0 _ZN7QTabBar10setTabIconEiRK5QIcon
PUBLIC 5bb70c 0 _ZNK7QTabBar8sizeHintEv
PUBLIC 5bb800 0 _ZN7QTabBar11resizeEventEP12QResizeEvent
PUBLIC 5bb830 0 _ZN7QTabBar12setExpandingEb
PUBLIC 5bb848 0 _ZN7QTabBar12setTabButtonEiNS_14ButtonPositionEP7QWidget
PUBLIC 5bbbf4 0 _ZN7QTabBar9insertTabEiRK5QIconRK7QString
PUBLIC 5bca20 0 _ZN7QTabBar6addTabERK5QIconRK7QString
PUBLIC 5bca30 0 _ZN7QTabBar9insertTabEiRK7QString
PUBLIC 5bca88 0 _ZN7QTabBar6addTabERK7QString
PUBLIC 5bca94 0 _ZN7QTabBar15setTabsClosableEb
PUBLIC 5bd134 0 _ZN7QTabBar5eventEP6QEvent
PUBLIC 5bdbe0 0 _ZN7QTabBar14mouseMoveEventEP11QMouseEvent
PUBLIC 5be124 0 _ZN7QTabBar11changeEventEP6QEvent
PUBLIC 5be1d8 0 _ZN7QTabBar11qt_metacastEPKc
PUBLIC 5be21c 0 _ZN7QTabBar11qt_metacallEN11QMetaObject4CallEiPPv
PUBLIC 5bf0bc 0 _ZN10QTabWidget11tabInsertedEi
PUBLIC 5bf0c0 0 _ZN10QTabWidget10tabRemovedEi
PUBLIC 5bf0c4 0 _ZNK10QTabWidget10metaObjectEv
PUBLIC 5bf148 0 _ZN10QTabWidgetD1Ev
PUBLIC 5bf184 0 _ZThn8_N10QTabWidgetD1Ev
PUBLIC 5bf18c 0 _ZN10QTabWidgetD0Ev
PUBLIC 5bf1a8 0 _ZThn8_N10QTabWidgetD0Ev
PUBLIC 5bf218 0 _ZNK10QTabWidget7tabTextEi
PUBLIC 5bf234 0 _ZNK10QTabWidget7tabIconEi
PUBLIC 5bf250 0 _ZNK10QTabWidget12isTabEnabledEi
PUBLIC 5bf25c 0 _ZN10QTabWidget13setTabEnabledEib
PUBLIC 5bf294 0 _ZNK10QTabWidget12cornerWidgetEN2Qt6CornerE
PUBLIC 5bf2ac 0 _ZN10QTabWidget9removeTabEi
PUBLIC 5bf2d0 0 _ZNK10QTabWidget13currentWidgetEv
PUBLIC 5bf2dc 0 _ZNK10QTabWidget12currentIndexEv
PUBLIC 5bf2e8 0 _ZN10QTabWidget15setCurrentIndexEi
PUBLIC 5bf2f4 0 _ZNK10QTabWidget7indexOfEP7QWidget
PUBLIC 5bf300 0 _ZN10QTabWidget16setCurrentWidgetEP7QWidget
PUBLIC 5bf320 0 _ZNK10QTabWidget6tabBarEv
PUBLIC 5bf384 0 _ZNK10QTabWidget11tabPositionEv
PUBLIC 5bf390 0 _ZNK10QTabWidget12tabsClosableEv
PUBLIC 5bf3a0 0 _ZNK10QTabWidget9isMovableEv
PUBLIC 5bf3b0 0 _ZN10QTabWidget10setMovableEb
PUBLIC 5bf3c8 0 _ZNK10QTabWidget8tabShapeEv
PUBLIC 5bf3d4 0 _ZNK10QTabWidget6widgetEi
PUBLIC 5bf3e0 0 _ZNK10QTabWidget5countEv
PUBLIC 5bf3ec 0 _ZN10QTabWidget13keyPressEventEP9QKeyEvent
PUBLIC 5bf514 0 _ZN10QTabWidget13setTabToolTipEiRK7QString
PUBLIC 5bf520 0 _ZNK10QTabWidget10tabToolTipEi
PUBLIC 5bf53c 0 _ZN10QTabWidget15setTabWhatsThisEiRK7QString
PUBLIC 5bf548 0 _ZNK10QTabWidget12tabWhatsThisEi
PUBLIC 5bf564 0 _ZNK10QTabWidget8iconSizeEv
PUBLIC 5bf580 0 _ZN10QTabWidget11setIconSizeERK5QSize
PUBLIC 5bf58c 0 _ZNK10QTabWidget9elideModeEv
PUBLIC 5bf598 0 _ZN10QTabWidget12setElideModeEN2Qt13TextElideModeE
PUBLIC 5bf5a4 0 _ZNK10QTabWidget17usesScrollButtonsEv
PUBLIC 5bf5b0 0 _ZN10QTabWidget20setUsesScrollButtonsEb
PUBLIC 5bf5bc 0 _ZNK10QTabWidget12documentModeEv
PUBLIC 5bf5c8 0 _ZNK10QTabWidget15initStyleOptionEP26QStyleOptionTabWidgetFrame
PUBLIC 5bf8ac 0 _ZN10QTabWidget11setUpLayoutEb
PUBLIC 5bfa80 0 _ZN10QTabWidget9insertTabEiP7QWidgetRK5QIconRK7QString
PUBLIC 5bfae8 0 _ZN10QTabWidget6addTabEP7QWidgetRK5QIconRK7QString
PUBLIC 5bfb10 0 _ZN10QTabWidget9insertTabEiP7QWidgetRK7QString
PUBLIC 5bfb70 0 _ZN10QTabWidget6addTabEP7QWidgetRK7QString
PUBLIC 5bfb80 0 _ZN10QTabWidget10setTabTextEiRK7QString
PUBLIC 5bfba4 0 _ZN10QTabWidget10setTabIconEiRK5QIcon
PUBLIC 5bfbc8 0 _ZN10QTabWidget15setCornerWidgetEP7QWidgetN2Qt6CornerE
PUBLIC 5bfc98 0 _ZNK10QTabWidget8sizeHintEv
PUBLIC 5bfee0 0 _ZNK10QTabWidget15minimumSizeHintEv
PUBLIC 5c0104 0 _ZN10QTabWidget9showEventEP10QShowEvent
PUBLIC 5c01d4 0 _ZN10QTabWidget14setTabPositionENS_11TabPositionE
PUBLIC 5c01ec 0 _ZN10QTabWidget11setTabShapeENS_8TabShapeE
PUBLIC 5c0204 0 _ZN10QTabWidget15setTabsClosableEb
PUBLIC 5c029c 0 _ZN10QTabWidget9setTabBarEP7QTabBar
PUBLIC 5c05c4 0 _ZN10QTabWidgetC2EP7QWidget
PUBLIC 5c0654 0 _ZN10QTabWidget10paintEventEP11QPaintEvent
PUBLIC 5c0c34 0 _ZN10QTabWidget15setDocumentModeEb
PUBLIC 5c0c74 0 _ZN10QTabWidget5clearEv
PUBLIC 5c0ca0 0 _ZN10QTabWidget14currentChangedEi
PUBLIC 5c0d24 0 _ZN10QTabWidget17tabCloseRequestedEi
PUBLIC 5c0d68 0 _ZN10QTabWidget11resizeEventEP12QResizeEvent
PUBLIC 5c0d84 0 _ZN10QTabWidget5eventEP6QEvent
PUBLIC 5c0dc4 0 _ZN10QTabWidget11changeEventEP6QEvent
PUBLIC 5c0e04 0 _ZN10QTabWidget11qt_metacastEPKc
PUBLIC 5c0e48 0 _ZN10QTabWidget11qt_metacallEN11QMetaObject4CallEiPPv
PUBLIC 5c1130 0 _ZN9QTextEdit15keyReleaseEventEP9QKeyEvent
PUBLIC 5c1140 0 _ZN9QTextEdit12loadResourceEiRK4QUrl
PUBLIC 5c1160 0 _ZNK9QTextEdit10metaObjectEv
PUBLIC 5c118c 0 _ZN9QTextEditD1Ev
PUBLIC 5c11c8 0 _ZThn8_N9QTextEditD1Ev
PUBLIC 5c11d0 0 _ZN9QTextEditD0Ev
PUBLIC 5c11ec 0 _ZThn8_N9QTextEditD0Ev
PUBLIC 5c11f4 0 _ZN9QTextEdit16scrollContentsByEii
PUBLIC 5c1224 0 _ZN9QTextEdit15mousePressEventEP11QMouseEvent
PUBLIC 5c12ac 0 _ZN9QTextEdit16contextMenuEventEP17QContextMenuEvent
PUBLIC 5c1334 0 _ZN9QTextEdit21mouseDoubleClickEventEP11QMouseEvent
PUBLIC 5c13bc 0 _ZN9QTextEdit14dragEnterEventEP15QDragEnterEvent
PUBLIC 5c16c8 0 _ZN9QTextEdit14dragLeaveEventEP15QDragLeaveEvent
PUBLIC 5c1764 0 _ZN9QTextEdit13dragMoveEventEP14QDragMoveEvent
PUBLIC 5c1818 0 _ZN9QTextEdit9dropEventEP10QDropEvent
PUBLIC 5c18b4 0 _ZN9QTextEdit14mouseMoveEventEP11QMouseEvent
PUBLIC 5c19e0 0 _ZNK9QTextEdit16inputMethodQueryEN2Qt16InputMethodQueryE
PUBLIC 5c26c0 0 _ZN9QTextEditC1EP7QWidget
PUBLIC 5c27cc 0 _ZN9QTextEditC1ER16QTextEditPrivateP7QWidget
PUBLIC 5c28b0 0 _ZN9QTextEditC1ERK7QStringP7QWidget
PUBLIC 5c2934 0 _ZNK9QTextEdit13fontPointSizeEv
PUBLIC 5c29a8 0 _ZNK9QTextEdit10fontFamilyEv
PUBLIC 5c2a1c 0 _ZNK9QTextEdit10fontWeightEv
PUBLIC 5c2a98 0 _ZNK9QTextEdit13fontUnderlineEv
PUBLIC 5c2b04 0 _ZNK9QTextEdit10fontItalicEv
PUBLIC 5c2b78 0 _ZNK9QTextEdit9textColorEv
PUBLIC 5c2c18 0 _ZNK9QTextEdit19textBackgroundColorEv
PUBLIC 5c2cb4 0 _ZNK9QTextEdit11currentFontEv
PUBLIC 5c2d24 0 _ZN9QTextEdit12setAlignmentE6QFlagsIN2Qt13AlignmentFlagEE
PUBLIC 5c2dd0 0 _ZNK9QTextEdit9alignmentEv
PUBLIC 5c2e50 0 _ZNK9QTextEdit8documentEv
PUBLIC 5c2e5c 0 _ZN9QTextEdit13setTextCursorERK11QTextCursor
PUBLIC 5c2e68 0 _ZNK9QTextEdit10textCursorEv
PUBLIC 5c2e84 0 _ZN9QTextEdit4undoEv
PUBLIC 5c2e90 0 _ZN9QTextEdit4redoEv
PUBLIC 5c2e9c 0 _ZN9QTextEdit3cutEv
PUBLIC 5c2ea8 0 _ZN9QTextEdit4copyEv
PUBLIC 5c2eb4 0 _ZN9QTextEdit5pasteEv
PUBLIC 5c2ec4 0 _ZN9QTextEdit5clearEv
PUBLIC 5c2ed0 0 _ZN9QTextEdit9selectAllEv
PUBLIC 5c2edc 0 _ZN9QTextEdit12setPlainTextERK7QString
PUBLIC 5c2efc 0 _ZN9QTextEdit7setHtmlERK7QString
PUBLIC 5c3834 0 _ZN9QTextEdit11resizeEventEP12QResizeEvent
PUBLIC 5c3b00 0 _ZN9QTextEdit10paintEventEP11QPaintEvent
PUBLIC 5c3bd8 0 _ZN9QTextEdit11setDocumentEP13QTextDocument
PUBLIC 5c3bfc 0 _ZN9QTextEdit25createStandardContextMenuEv
PUBLIC 5c3c2c 0 _ZN9QTextEdit25createStandardContextMenuERK6QPoint
PUBLIC 5c3c74 0 _ZNK9QTextEdit17cursorForPositionERK6QPoint
PUBLIC 5c3d08 0 _ZNK9QTextEdit10cursorRectERK11QTextCursor
PUBLIC 5c3f98 0 _ZNK9QTextEdit10cursorRectEv
PUBLIC 5c41e4 0 _ZNK9QTextEdit8anchorAtERK6QPoint
PUBLIC 5c4278 0 _ZNK9QTextEdit13overwriteModeEv
PUBLIC 5c4284 0 _ZN9QTextEdit16setOverwriteModeEb
PUBLIC 5c4290 0 _ZNK9QTextEdit12tabStopWidthEv
PUBLIC 5c433c 0 _ZN9QTextEdit15setTabStopWidthEi
PUBLIC 5c43bc 0 _ZNK9QTextEdit11cursorWidthEv
PUBLIC 5c43c8 0 _ZN9QTextEdit14setCursorWidthEi
PUBLIC 5c43d4 0 _ZNK9QTextEdit14acceptRichTextEv
PUBLIC 5c43e0 0 _ZN9QTextEdit17setAcceptRichTextEb
PUBLIC 5c43ec 0 _ZN9QTextEdit18setExtraSelectionsERK5QListINS_14ExtraSelectionEE
PUBLIC 5c43f8 0 _ZNK9QTextEdit15extraSelectionsEv
PUBLIC 5c4414 0 _ZNK9QTextEdit10isReadOnlyEv
PUBLIC 5c4444 0 _ZN9QTextEdit11setReadOnlyEb
PUBLIC 5c44c0 0 _ZN9QTextEdit23setTextInteractionFlagsE6QFlagsIN2Qt19TextInteractionFlagEE
PUBLIC 5c44e8 0 _ZNK9QTextEdit20textInteractionFlagsEv
PUBLIC 5c4504 0 _ZN9QTextEdit22mergeCurrentCharFormatERK15QTextCharFormat
PUBLIC 5c4510 0 _ZN9QTextEdit13setFontFamilyERK7QString
PUBLIC 5c4584 0 _ZN9QTextEdit16setFontPointSizeEf
PUBLIC 5c4618 0 _ZN9QTextEdit13setFontWeightEi
PUBLIC 5c4698 0 _ZN9QTextEdit16setFontUnderlineEb
PUBLIC 5c4710 0 _ZN9QTextEdit13setFontItalicEb
PUBLIC 5c4788 0 _ZN9QTextEdit12setTextColorERK6QColor
PUBLIC 5c482c 0 _ZN9QTextEdit22setTextBackgroundColorERK6QColor
PUBLIC 5c48cc 0 _ZN9QTextEdit14setCurrentFontERK5QFont
PUBLIC 5c4918 0 _ZN9QTextEdit20setCurrentCharFormatERK15QTextCharFormat
PUBLIC 5c4924 0 _ZNK9QTextEdit17currentCharFormatEv
PUBLIC 5c4940 0 _ZNK9QTextEdit14autoFormattingEv
PUBLIC 5c4950 0 _ZN9QTextEdit17setAutoFormattingE6QFlagsINS_18AutoFormattingFlagEE
PUBLIC 5c4960 0 _ZN9QTextEdit15insertPlainTextERK7QString
PUBLIC 5c496c 0 _ZN9QTextEdit10insertHtmlERK7QString
PUBLIC 5c4978 0 _ZN9QTextEdit14scrollToAnchorERK7QString
PUBLIC 5c4a78 0 _ZN9QTextEdit6zoomInEi
PUBLIC 5c4ae8 0 _ZN9QTextEdit7zoomOutEi
PUBLIC 5c4af0 0 _ZN9QTextEdit10moveCursorEN11QTextCursor13MoveOperationENS0_8MoveModeE
PUBLIC 5c4afc 0 _ZNK9QTextEdit8canPasteEv
PUBLIC 5c4b08 0 _ZNK9QTextEdit5printEP8QPrinter
PUBLIC 5c4b14 0 _ZNK9QTextEdit15tabChangesFocusEv
PUBLIC 5c4b20 0 _ZN9QTextEdit18setTabChangesFocusEb
PUBLIC 5c4b2c 0 _ZNK9QTextEdit12lineWrapModeEv
PUBLIC 5c4b38 0 _ZN9QTextEdit15setLineWrapModeENS_12LineWrapModeE
PUBLIC 5c4b64 0 _ZNK9QTextEdit21lineWrapColumnOrWidthEv
PUBLIC 5c4b70 0 _ZN9QTextEdit24setLineWrapColumnOrWidthEi
PUBLIC 5c4b7c 0 _ZNK9QTextEdit12wordWrapModeEv
PUBLIC 5c4b88 0 _ZN9QTextEdit15setWordWrapModeEN11QTextOption8WrapModeE
PUBLIC 5c4ba0 0 _ZN9QTextEdit4findERK7QString6QFlagsIN13QTextDocument8FindFlagEE
PUBLIC 5c4bc8 0 _ZN9QTextEdit7setTextERK7QString
PUBLIC 5c4c28 0 _ZN9QTextEdit6appendERK7QString
PUBLIC 5c4cec 0 _ZN9QTextEdit19ensureCursorVisibleEv
PUBLIC 5c4d08 0 _ZN9QTextEdit16inputMethodEventEP17QInputMethodEvent
PUBLIC 5c4d9c 0 _ZN9QTextEdit9showEventEP10QShowEvent
PUBLIC 5c4e98 0 _ZN9QTextEdit11textChangedEv
PUBLIC 5c4ebc 0 _ZN9QTextEdit13undoAvailableEb
PUBLIC 5c4f04 0 _ZN9QTextEdit13redoAvailableEb
PUBLIC 5c4f4c 0 _ZN9QTextEdit24currentCharFormatChangedERK15QTextCharFormat
PUBLIC 5c4f94 0 _ZN9QTextEdit13copyAvailableEb
PUBLIC 5c4fdc 0 _ZN9QTextEdit16selectionChangedEv
PUBLIC 5c5000 0 _ZN9QTextEdit21cursorPositionChangedEv
PUBLIC 5c5024 0 _ZNK9QTextEdit27createMimeDataFromSelectionEv
PUBLIC 5c5030 0 _ZNK9QTextEdit21canInsertFromMimeDataEPK9QMimeData
PUBLIC 5c503c 0 _ZN9QTextEdit18insertFromMimeDataEPK9QMimeData
PUBLIC 5c5048 0 _ZN9QTextEdit5eventEP6QEvent
PUBLIC 5c51d8 0 _ZN9QTextEdit10timerEventEP11QTimerEvent
PUBLIC 5c53f0 0 _ZN9QTextEdit13keyPressEventEP9QKeyEvent
PUBLIC 5c583c 0 _ZN9QTextEdit17mouseReleaseEventEP11QMouseEvent
PUBLIC 5c5a28 0 _ZN9QTextEdit18focusNextPrevChildEb
PUBLIC 5c5a88 0 _ZN9QTextEdit12focusInEventEP11QFocusEvent
PUBLIC 5c5b38 0 _ZN9QTextEdit13focusOutEventEP11QFocusEvent
PUBLIC 5c5bc4 0 _ZN9QTextEdit11changeEventEP6QEvent
PUBLIC 5c5d1c 0 _ZN9QTextEdit10wheelEventEP11QWheelEvent
PUBLIC 5c5da4 0 _ZN9QTextEdit11qt_metacastEPKc
PUBLIC 5c5de8 0 _ZN9QTextEdit11qt_metacallEN11QMetaObject4CallEiPPv
PUBLIC 5c6964 0 _ZNK12QTextBrowser10metaObjectEv
PUBLIC 5c6990 0 _ZN12QTextBrowser4homeEv
PUBLIC 5c69c8 0 _ZN12QTextBrowser6reloadEv
PUBLIC 5c6a44 0 _ZN12QTextBrowserD1Ev
PUBLIC 5c6a80 0 _ZThn8_N12QTextBrowserD1Ev
PUBLIC 5c6a88 0 _ZN12QTextBrowserD0Ev
PUBLIC 5c6aa4 0 _ZThn8_N12QTextBrowserD0Ev
PUBLIC 5c6aac 0 _ZN12QTextBrowser10paintEventEP11QPaintEvent
PUBLIC 5c7148 0 _ZNK12QTextBrowser6sourceEv
PUBLIC 5c732c 0 _ZNK12QTextBrowser19isBackwardAvailableEv
PUBLIC 5c7348 0 _ZNK12QTextBrowser18isForwardAvailableEv
PUBLIC 5c7360 0 _ZNK12QTextBrowser10historyUrlEi
PUBLIC 5c756c 0 _ZNK12QTextBrowser12historyTitleEi
PUBLIC 5c7790 0 _ZNK12QTextBrowser19forwardHistoryCountEv
PUBLIC 5c77a0 0 _ZNK12QTextBrowser20backwardHistoryCountEv
PUBLIC 5c77b4 0 _ZNK12QTextBrowser17openExternalLinksEv
PUBLIC 5c77c0 0 _ZN12QTextBrowser20setOpenExternalLinksEb
PUBLIC 5c77cc 0 _ZNK12QTextBrowser9openLinksEv
PUBLIC 5c77d8 0 _ZN12QTextBrowser12setOpenLinksEb
PUBLIC 5c77e4 0 _ZN12QTextBrowser17backwardAvailableEb
PUBLIC 5c7828 0 _ZN12QTextBrowser16forwardAvailableEb
PUBLIC 5c7870 0 _ZN12QTextBrowser14historyChangedEv
PUBLIC 5c7894 0 _ZN12QTextBrowser13sourceChangedERK4QUrl
PUBLIC 5c837c 0 _ZN12QTextBrowser11highlightedERK4QUrl
PUBLIC 5c83bc 0 _ZN12QTextBrowser11highlightedERK7QString
PUBLIC 5c86a8 0 _ZN12QTextBrowser13anchorClickedERK4QUrl
PUBLIC 5c8b04 0 _ZN12QTextBrowserC2EP7QWidget
PUBLIC 5c8c8c 0 _ZN12QTextBrowser8backwardEv
PUBLIC 5c8f64 0 _ZN12QTextBrowser7forwardEv
PUBLIC 5c92ec 0 _ZN12QTextBrowser9setSourceERK4QUrl
PUBLIC 5c98f4 0 _ZN12QTextBrowser12clearHistoryEv
PUBLIC 5c9b64 0 _ZNK12QTextBrowser11searchPathsEv
PUBLIC 5c9bbc 0 _ZN12QTextBrowser14setSearchPathsERK11QStringList
PUBLIC 5ca1a8 0 _ZN12QTextBrowser13keyPressEventEP9QKeyEvent
PUBLIC 5ca278 0 _ZN12QTextBrowser14mouseMoveEventEP11QMouseEvent
PUBLIC 5ca27c 0 _ZN12QTextBrowser15mousePressEventEP11QMouseEvent
PUBLIC 5ca280 0 _ZN12QTextBrowser17mouseReleaseEventEP11QMouseEvent
PUBLIC 5ca284 0 _ZN12QTextBrowser13focusOutEventEP11QFocusEvent
PUBLIC 5ca308 0 _ZN12QTextBrowser18focusNextPrevChildEb
PUBLIC 5ca338 0 _ZN12QTextBrowser12loadResourceEiRK4QUrl
PUBLIC 5ca53c 0 _ZN12QTextBrowser5eventEP6QEvent
PUBLIC 5ca540 0 _ZN12QTextBrowser11qt_metacastEPKc
PUBLIC 5ca584 0 _ZN12QTextBrowser11qt_metacallEN11QMetaObject4CallEiPPv
PUBLIC 5cb374 0 _ZNK8QToolBar10metaObjectEv
PUBLIC 5cb3a0 0 _ZN8QToolBarD2Ev
PUBLIC 5cb404 0 _ZThn8_N8QToolBarD1Ev
PUBLIC 5cb40c 0 _ZN8QToolBarD0Ev
PUBLIC 5cb428 0 _ZThn8_N8QToolBarD0Ev
PUBLIC 5cb430 0 _ZN8QToolBar11actionEventEP12QActionEvent
PUBLIC 5cb538 0 _ZN8QToolBar10childEventEP11QChildEvent
PUBLIC 5cba1c 0 _ZNK8QToolBar9isMovableEv
PUBLIC 5cba28 0 _ZNK8QToolBar11isFloatableEv
PUBLIC 5cbb14 0 _ZN8QToolBar12setFloatableEb
PUBLIC 5cbb20 0 _ZNK8QToolBar10isFloatingEv
PUBLIC 5cbb30 0 _ZNK8QToolBar12allowedAreasEv
PUBLIC 5cbb40 0 _ZNK8QToolBar11orientationEv
PUBLIC 5cbb4c 0 _ZNK8QToolBar8iconSizeEv
PUBLIC 5cbb68 0 _ZNK8QToolBar15toolButtonStyleEv
PUBLIC 5cbb74 0 _ZN8QToolBar9addActionERK7QString
PUBLIC 5cbbb8 0 _ZN8QToolBar9addActionERK5QIconRK7QString
PUBLIC 5cbc04 0 _ZN8QToolBar9addActionERK7QStringPK7QObjectPKc
PUBLIC 5cbc7c 0 _ZN8QToolBar9addActionERK5QIconRK7QStringPK7QObjectPKc
PUBLIC 5cbcfc 0 _ZN8QToolBar12addSeparatorEv
PUBLIC 5cbd44 0 _ZN8QToolBar15insertSeparatorEP7QAction
PUBLIC 5cbd94 0 _ZN8QToolBar9addWidgetEP7QWidget
PUBLIC 5cbdf0 0 _ZN8QToolBar12insertWidgetEP7QActionP7QWidget
PUBLIC 5cbe54 0 _ZNK8QToolBar14actionGeometryEP7QAction
PUBLIC 5cbec8 0 _ZNK8QToolBar8actionAtERK6QPoint
PUBLIC 5cbf14 0 _ZNK8QToolBar16toggleViewActionEv
PUBLIC 5cbf20 0 _ZNK8QToolBar15widgetForActionEP7QAction
PUBLIC 5cbf64 0 _ZNK8QToolBar15initStyleOptionEP19QStyleOptionToolBar
PUBLIC 5cc0d4 0 _ZN8QToolBar10paintEventEP11QPaintEvent
PUBLIC 5cc26c 0 _ZN8QToolBar15actionTriggeredEP7QAction
PUBLIC 5cc2ac 0 _ZN8QToolBar14movableChangedEb
PUBLIC 5cc2f4 0 _ZN8QToolBar10setMovableEb
PUBLIC 5cc460 0 _ZN8QToolBarC1EP7QWidget
PUBLIC 5cc548 0 _ZN8QToolBarC1ERK7QStringP7QWidget
PUBLIC 5cc640 0 _ZN8QToolBar19allowedAreasChangedE6QFlagsIN2Qt11ToolBarAreaEE
PUBLIC 5cc680 0 _ZN8QToolBar15setAllowedAreasE6QFlagsIN2Qt11ToolBarAreaEE
PUBLIC 5cc6bc 0 _ZN8QToolBar18orientationChangedEN2Qt11OrientationE
PUBLIC 5cc700 0 _ZN8QToolBar14setOrientationEN2Qt11OrientationE
PUBLIC 5cc754 0 _ZN8QToolBar15iconSizeChangedERK5QSize
PUBLIC 5cc794 0 _ZN8QToolBar11setIconSizeERK5QSize
PUBLIC 5cc954 0 _ZN8QToolBar22toolButtonStyleChangedEN2Qt15ToolButtonStyleE
PUBLIC 5cc998 0 _ZN8QToolBar18setToolButtonStyleEN2Qt15ToolButtonStyleE
PUBLIC 5cca00 0 _ZN8QToolBar15topLevelChangedEb
PUBLIC 5ccbcc 0 _ZN8QToolBar17visibilityChangedEb
PUBLIC 5ccc14 0 _ZN8QToolBar5clearEv
PUBLIC 5ccdc0 0 _ZN8QToolBar11changeEventEP6QEvent
PUBLIC 5ccef0 0 _ZN8QToolBar5eventEP6QEvent
PUBLIC 5cd16c 0 _ZN8QToolBar11resizeEventEP12QResizeEvent
PUBLIC 5cd170 0 _ZN8QToolBar11qt_metacastEPKc
PUBLIC 5cd1b4 0 _ZN8QToolBar11qt_metacallEN11QMetaObject4CallEiPPv
PUBLIC 5d0be4 0 _ZN8QToolBox12itemInsertedEi
PUBLIC 5d0be8 0 _ZN8QToolBox11itemRemovedEi
PUBLIC 5d0bec 0 _ZNK8QToolBox10metaObjectEv
PUBLIC 5d0c38 0 _ZN8QToolBoxD1Ev
PUBLIC 5d0c74 0 _ZThn8_N8QToolBoxD1Ev
PUBLIC 5d0c7c 0 _ZN8QToolBoxD0Ev
PUBLIC 5d0c98 0 _ZThn8_N8QToolBoxD0Ev
PUBLIC 5d0ca0 0 _ZN8QToolBox9showEventEP10QShowEvent
PUBLIC 5d110c 0 _ZN8QToolBoxC2EP7QWidget6QFlagsIN2Qt10WindowTypeEE
PUBLIC 5d1240 0 _ZNK8QToolBox5countEv
PUBLIC 5d1334 0 _ZNK8QToolBox13currentWidgetEv
PUBLIC 5d1348 0 _ZNK8QToolBox6widgetEi
PUBLIC 5d1388 0 _ZNK8QToolBox7indexOfEP7QWidget
PUBLIC 5d1454 0 _ZNK8QToolBox12currentIndexEv
PUBLIC 5d1744 0 _ZNK8QToolBox13isItemEnabledEi
PUBLIC 5d17a0 0 _ZNK8QToolBox8itemTextEi
PUBLIC 5d1834 0 _ZNK8QToolBox8itemIconEi
PUBLIC 5d1894 0 _ZNK8QToolBox11itemToolTipEi
PUBLIC 5d1928 0 _ZN8QToolBox14currentChangedEi
PUBLIC 5d19c8 0 _ZN8QToolBox15setCurrentIndexEi
PUBLIC 5d1a68 0 _ZN8QToolBox10insertItemEiP7QWidgetRK5QIconRK7QString
PUBLIC 5d1e3c 0 _ZN8QToolBox16setCurrentWidgetEP7QWidget
PUBLIC 5d1e70 0 _ZN8QToolBox14setItemEnabledEib
PUBLIC 5d1f5c 0 _ZN8QToolBox11setItemTextEiRK7QString
PUBLIC 5d1f84 0 _ZN8QToolBox11setItemIconEiRK5QIcon
PUBLIC 5d1fac 0 _ZN8QToolBox14setItemToolTipEiRK7QString
PUBLIC 5d2168 0 _ZN8QToolBox10removeItemEi
PUBLIC 5d21d4 0 _ZN8QToolBox11changeEventEP6QEvent
PUBLIC 5d221c 0 _ZN8QToolBox5eventEP6QEvent
PUBLIC 5d2220 0 _ZN8QToolBox11qt_metacastEPKc
PUBLIC 5d2264 0 _ZN8QToolBox11qt_metacallEN11QMetaObject4CallEiPPv
PUBLIC 5d27dc 0 _ZNK11QToolButton15minimumSizeHintEv
PUBLIC 5d27f8 0 _ZNK11QToolButton10metaObjectEv
PUBLIC 5d2824 0 _ZN11QToolButtonD1Ev
PUBLIC 5d2860 0 _ZThn8_N11QToolButtonD1Ev
PUBLIC 5d2868 0 _ZN11QToolButtonD0Ev
PUBLIC 5d2884 0 _ZThn8_N11QToolButtonD0Ev
PUBLIC 5d29f4 0 _ZN11QToolButtonC1EP7QWidget
PUBLIC 5d2b00 0 _ZNK11QToolButton15initStyleOptionEP22QStyleOptionToolButton
PUBLIC 5d2db0 0 _ZNK11QToolButton8sizeHintEv
PUBLIC 5d3098 0 _ZN11QToolButton10paintEventEP11QPaintEvent
PUBLIC 5d31c0 0 _ZNK11QToolButton15toolButtonStyleEv
PUBLIC 5d31cc 0 _ZNK11QToolButton9arrowTypeEv
PUBLIC 5d31d8 0 _ZN11QToolButton18setToolButtonStyleEN2Qt15ToolButtonStyleE
PUBLIC 5d3220 0 _ZN11QToolButton12setArrowTypeEN2Qt9ArrowTypeE
PUBLIC 5d3440 0 _ZN11QToolButton7setMenuEP5QMenu
PUBLIC 5d34c4 0 _ZNK11QToolButton4menuEv
PUBLIC 5d3514 0 _ZN11QToolButton12setPopupModeENS_19ToolButtonPopupModeE
PUBLIC 5d3520 0 _ZNK11QToolButton9popupModeEv
PUBLIC 5d352c 0 _ZN11QToolButton12setAutoRaiseEb
PUBLIC 5d3548 0 _ZNK11QToolButton9autoRaiseEv
PUBLIC 5d355c 0 _ZNK11QToolButton13defaultActionEv
PUBLIC 5d3568 0 _ZN11QToolButtonC1ER18QToolButtonPrivateP7QWidget
PUBLIC 5d35bc 0 _ZN11QToolButton9triggeredEP7QAction
PUBLIC 5d369c 0 _ZN11QToolButton16setDefaultActionEP7QAction
PUBLIC 5d41e4 0 _ZN11QToolButton8showMenuEv
PUBLIC 5d429c 0 _ZN11QToolButton11actionEventEP12QActionEvent
PUBLIC 5d4378 0 _ZN11QToolButton10enterEventEP6QEvent
PUBLIC 5d43c0 0 _ZN11QToolButton10leaveEventEP6QEvent
PUBLIC 5d43f8 0 _ZN11QToolButton10timerEventEP11QTimerEvent
PUBLIC 5d4418 0 _ZN11QToolButton11changeEventEP6QEvent
PUBLIC 5d44c4 0 _ZN11QToolButton15mousePressEventEP11QMouseEvent
PUBLIC 5d46ac 0 _ZN11QToolButton17mouseReleaseEventEP11QMouseEvent
PUBLIC 5d46c8 0 _ZNK11QToolButton9hitButtonERK6QPoint
PUBLIC 5d46f0 0 _ZN11QToolButton14nextCheckStateEv
PUBLIC 5d4710 0 _ZN11QToolButton5eventEP6QEvent
PUBLIC 5d4748 0 _ZN11QToolButton11qt_metacastEPKc
PUBLIC 5d478c 0 _ZN11QToolButton11qt_metacallEN11QMetaObject4CallEiPPv
PUBLIC 5d4c1c 0 _ZNK10QValidator5fixupER7QString
PUBLIC 5d4c20 0 _ZN13QIntValidator8setRangeEii
PUBLIC 5d4c2c 0 _ZN16QDoubleValidator8setRangeEddi
PUBLIC 5d4c4c 0 _ZN10QValidatorD1Ev
PUBLIC 5d4c80 0 _ZN10QValidatorD0Ev
PUBLIC 5d4c9c 0 _ZN13QIntValidatorD1Ev
PUBLIC 5d4cd0 0 _ZN13QIntValidatorD0Ev
PUBLIC 5d4cec 0 _ZN16QDoubleValidatorD2Ev
PUBLIC 5d4d20 0 _ZN16QDoubleValidatorD0Ev
PUBLIC 5d4d3c 0 _ZN16QRegExpValidatorD1Ev
PUBLIC 5d4d84 0 _ZN16QRegExpValidatorD0Ev
PUBLIC 5d4da0 0 _ZNK16QRegExpValidator8validateER7QStringRi
PUBLIC 5d4df4 0 _ZN10QValidatorC2EP7QObject
PUBLIC 5d4e84 0 _ZNK10QValidator6localeEv
PUBLIC 5d4ea0 0 _ZNK13QIntValidator8validateER7QStringRi
PUBLIC 5d5130 0 _ZNK13QIntValidator5fixupER7QString
PUBLIC 5d5310 0 _ZN10QValidator9setLocaleERK7QLocale
PUBLIC 5d531c 0 _ZN13QIntValidatorC1EP7QObject
PUBLIC 5d5364 0 _ZN13QIntValidatorC2EiiP7QObject
PUBLIC 5d53b0 0 _ZN13QIntValidator9setBottomEi
PUBLIC 5d53c8 0 _ZN13QIntValidator6setTopEi
PUBLIC 5d53e4 0 _ZN10QValidatorC1ER14QObjectPrivateP7QObject
PUBLIC 5d541c 0 _ZN10QValidatorC2ER17QValidatorPrivateP7QObject
PUBLIC 5d5454 0 _ZN16QDoubleValidatorC2EP7QObject
PUBLIC 5d5528 0 _ZN16QDoubleValidatorC2EddiP7QObject
PUBLIC 5d591c 0 _ZNK16QDoubleValidator8validateER7QStringRi
PUBLIC 5d59d0 0 _ZN16QDoubleValidator9setBottomEd
PUBLIC 5d59fc 0 _ZN16QDoubleValidator6setTopEd
PUBLIC 5d5a30 0 _ZN16QDoubleValidator11setDecimalsEi
PUBLIC 5d5a5c 0 _ZN16QDoubleValidator11setNotationENS_8NotationE
PUBLIC 5d5a68 0 _ZNK16QDoubleValidator8notationEv
PUBLIC 5d5a74 0 _ZN16QRegExpValidatorC1EP7QObject
PUBLIC 5d5b44 0 _ZN16QRegExpValidatorC1ERK7QRegExpP7QObject
PUBLIC 5d5b9c 0 _ZN16QRegExpValidator9setRegExpERK7QRegExp
PUBLIC 5d5c54 0 _ZN19QAbstractScrollArea11resizeEventEP12QResizeEvent
PUBLIC 5d5c58 0 _ZN19QAbstractScrollArea10paintEventEP11QPaintEvent
PUBLIC 5d5c5c 0 _ZN19QAbstractScrollArea15mousePressEventEP11QMouseEvent
PUBLIC 5d5c6c 0 _ZN19QAbstractScrollArea17mouseReleaseEventEP11QMouseEvent
PUBLIC 5d5c7c 0 _ZN19QAbstractScrollArea21mouseDoubleClickEventEP11QMouseEvent
PUBLIC 5d5c8c 0 _ZN19QAbstractScrollArea14mouseMoveEventEP11QMouseEvent
PUBLIC 5d5c9c 0 _ZN19QAbstractScrollArea16contextMenuEventEP17QContextMenuEvent
PUBLIC 5d5cac 0 _ZN19QAbstractScrollArea14dragEnterEventEP15QDragEnterEvent
PUBLIC 5d5cb0 0 _ZN19QAbstractScrollArea13dragMoveEventEP14QDragMoveEvent
PUBLIC 5d5cb4 0 _ZN19QAbstractScrollArea14dragLeaveEventEP15QDragLeaveEvent
PUBLIC 5d5cb8 0 _ZN19QAbstractScrollArea9dropEventEP10QDropEvent
PUBLIC 5d5cbc 0 _ZNK19QAbstractScrollArea8sizeHintEv
PUBLIC 5d5ccc 0 _ZNK19QAbstractScrollArea10metaObjectEv
PUBLIC 5d5d18 0 _ZNK19QAbstractScrollArea15minimumSizeHintEv
PUBLIC 5d5e5c 0 _ZN19QAbstractScrollAreaD1Ev
PUBLIC 5d5ecc 0 _ZThn8_N19QAbstractScrollAreaD1Ev
PUBLIC 5d5ed4 0 _ZN19QAbstractScrollAreaD0Ev
PUBLIC 5d5ef0 0 _ZThn8_N19QAbstractScrollAreaD0Ev
PUBLIC 5d5ef8 0 _ZN19QAbstractScrollArea13keyPressEventEP9QKeyEvent
PUBLIC 5d6000 0 _ZN19QAbstractScrollArea10wheelEventEP11QWheelEvent
PUBLIC 5d6068 0 _ZNK26QAbstractScrollAreaPrivate14contentsOffsetEv
PUBLIC 5d6104 0 _ZN26QAbstractScrollAreaPrivateC2Ev
PUBLIC 5d638c 0 _ZN26QAbstractScrollAreaPrivate16replaceScrollBarEP10QScrollBarN2Qt11OrientationE
PUBLIC 5d6588 0 _ZN26QAbstractScrollAreaPrivate14layoutChildrenEv
PUBLIC 5d6b54 0 _ZN26QAbstractScrollAreaPrivate4initEv
PUBLIC 5d6f6c 0 _ZN19QAbstractScrollAreaC1ER26QAbstractScrollAreaPrivateP7QWidget
PUBLIC 5d6fd4 0 _ZN19QAbstractScrollAreaC1EP7QWidget
PUBLIC 5d7064 0 _ZN19QAbstractScrollArea11setViewportEP7QWidget
PUBLIC 5d7284 0 _ZNK19QAbstractScrollArea8viewportEv
PUBLIC 5d7290 0 _ZN19QAbstractScrollArea16scrollContentsByEii
PUBLIC 5d72a0 0 _ZNK19QAbstractScrollArea19maximumViewportSizeEv
PUBLIC 5d7370 0 _ZNK19QAbstractScrollArea23verticalScrollBarPolicyEv
PUBLIC 5d737c 0 _ZN19QAbstractScrollArea26setVerticalScrollBarPolicyEN2Qt15ScrollBarPolicyE
PUBLIC 5d73d8 0 _ZNK19QAbstractScrollArea17verticalScrollBarEv
PUBLIC 5d73e4 0 _ZN19QAbstractScrollArea20setVerticalScrollBarEP10QScrollBar
PUBLIC 5d7408 0 _ZNK19QAbstractScrollArea25horizontalScrollBarPolicyEv
PUBLIC 5d7414 0 _ZN19QAbstractScrollArea28setHorizontalScrollBarPolicyEN2Qt15ScrollBarPolicyE
PUBLIC 5d7470 0 _ZNK19QAbstractScrollArea19horizontalScrollBarEv
PUBLIC 5d747c 0 _ZN19QAbstractScrollArea22setHorizontalScrollBarEP10QScrollBar
PUBLIC 5d74a0 0 _ZNK19QAbstractScrollArea12cornerWidgetEv
PUBLIC 5d74ac 0 _ZN19QAbstractScrollArea15setCornerWidgetEP7QWidget
PUBLIC 5d7534 0 _ZN19QAbstractScrollArea18addScrollBarWidgetEP7QWidget6QFlagsIN2Qt13AlignmentFlagEE
PUBLIC 5d75b4 0 _ZN19QAbstractScrollArea18setViewportMarginsEiiii
PUBLIC 5d75d0 0 _ZN19QAbstractScrollArea18setViewportMarginsERK8QMargins
PUBLIC 5d75f4 0 _ZN26QAbstractScrollAreaPrivate9_q_hslideEi
PUBLIC 5d7624 0 _ZN26QAbstractScrollAreaPrivate9_q_vslideEi
PUBLIC 5d7650 0 _ZN26QAbstractScrollAreaPrivate23_q_showOrHideScrollBarsEv
PUBLIC 5d7654 0 _ZN19QAbstractScrollArea13setupViewportEP7QWidget
PUBLIC 5d77a0 0 _ZN19QAbstractScrollArea16scrollBarWidgetsE6QFlagsIN2Qt13AlignmentFlagEE
PUBLIC 5d791c 0 _ZN19QAbstractScrollArea5eventEP6QEvent
PUBLIC 5d7c0c 0 _ZN19QAbstractScrollArea13viewportEventEP6QEvent
PUBLIC 5d7ca4 0 _ZN19QAbstractScrollArea11qt_metacastEPKc
PUBLIC 5d7ce8 0 _ZN19QAbstractScrollArea11qt_metacallEN11QMetaObject4CallEiPPv
PUBLIC 5d80ac 0 _ZN20QWidgetResizeHandlerC1EP7QWidgetS1_
PUBLIC 5d8194 0 _ZNK20QWidgetResizeHandler8isActiveENS_6ActionE
PUBLIC 5d81c0 0 _ZN20QWidgetResizeHandler6doMoveEv
PUBLIC 5d828c 0 _ZN20QWidgetResizeHandler14setMouseCursorENS_13MousePositionE
PUBLIC 5d84f8 0 _ZN20QWidgetResizeHandler9setActiveENS_6ActionEb
PUBLIC 5d8550 0 _ZN20QWidgetResizeHandler14mouseMoveEventEP11QMouseEvent
PUBLIC 5d8cd8 0 _ZN20QWidgetResizeHandler13keyPressEventEP9QKeyEvent
PUBLIC 5d913c 0 _ZN20QWidgetResizeHandler11eventFilterEP7QObjectP6QEvent
PUBLIC 5d9510 0 _ZN20QWidgetResizeHandler8doResizeEv
PUBLIC 5d9640 0 _ZN11QFocusFrameD2Ev
PUBLIC 5d967c 0 _ZThn8_N11QFocusFrameD1Ev
PUBLIC 5d9684 0 _ZN11QFocusFrameD0Ev
PUBLIC 5d96a0 0 _ZThn8_N11QFocusFrameD0Ev
PUBLIC 5d96a8 0 _ZNK11QFocusFrame15initStyleOptionEP12QStyleOption
PUBLIC 5d9988 0 _ZN11QFocusFrame10paintEventEP11QPaintEvent
PUBLIC 5d9ad8 0 _ZN11QFocusFrameC2EP7QWidget
PUBLIC 5d9bf8 0 _ZN11QFocusFrame9setWidgetEP7QWidget
PUBLIC 5d9dc4 0 _ZN11QFocusFrame11eventFilterEP7QObjectP6QEvent
PUBLIC 5d9f40 0 _ZNK11QFocusFrame6widgetEv
PUBLIC 5d9f4c 0 _ZN11QFocusFrame5eventEP6QEvent
PUBLIC 5d9fa8 0 _ZN11QScrollAreaD2Ev
PUBLIC 5d9fe4 0 _ZThn8_N11QScrollAreaD1Ev
PUBLIC 5d9fec 0 _ZN11QScrollAreaD0Ev
PUBLIC 5da008 0 _ZThn8_N11QScrollAreaD0Ev
PUBLIC 5da010 0 _ZNK11QScrollArea8sizeHintEv
PUBLIC 5da1ac 0 _ZN11QScrollAreaC2EP7QWidget
PUBLIC 5da280 0 _ZN11QScrollAreaC1ER18QScrollAreaPrivateP7QWidget
PUBLIC 5da494 0 _ZN11QScrollArea16scrollContentsByEii
PUBLIC 5da770 0 _ZN11QScrollArea11eventFilterEP7QObjectP6QEvent
PUBLIC 5da7a0 0 _ZN11QScrollArea11resizeEventEP12QResizeEvent
PUBLIC 5da7a8 0 _ZNK11QScrollArea6widgetEv
PUBLIC 5da7b4 0 _ZN11QScrollArea9setWidgetEP7QWidget
PUBLIC 5da8e8 0 _ZN11QScrollArea10takeWidgetEv
PUBLIC 5da91c 0 _ZNK11QScrollArea15widgetResizableEv
PUBLIC 5da928 0 _ZN11QScrollArea18setWidgetResizableEb
PUBLIC 5da944 0 _ZN11QScrollArea13ensureVisibleEiiii
PUBLIC 5daab0 0 _ZN11QScrollArea19ensureWidgetVisibleEP7QWidgetii
PUBLIC 5dae24 0 _ZN11QScrollArea12setAlignmentE6QFlagsIN2Qt13AlignmentFlagEE
PUBLIC 5dae40 0 _ZNK11QScrollArea9alignmentEv
PUBLIC 5dae50 0 _ZN11QScrollArea5eventEP6QEvent
PUBLIC 5dae98 0 _ZN11QScrollArea18focusNextPrevChildEb
PUBLIC 5db048 0 _ZNK10QWorkspace10metaObjectEv
PUBLIC 5db22c 0 _ZN10QWorkspaceD2Ev
PUBLIC 5db268 0 _ZThn8_N10QWorkspaceD1Ev
PUBLIC 5db270 0 _ZN10QWorkspaceD0Ev
PUBLIC 5db28c 0 _ZThn8_N10QWorkspaceD0Ev
PUBLIC 5db420 0 _ZNK10QWorkspace8sizeHintEv
PUBLIC 5db474 0 _ZN10QWorkspace10paintEventEP11QPaintEvent
PUBLIC 5db788 0 _ZN10QWorkspace5eventEP6QEvent
PUBLIC 5dc58c 0 _ZNK10QWorkspace10backgroundEv
PUBLIC 5dc5e0 0 _ZN10QWorkspace13setBackgroundERK6QBrush
PUBLIC 5dc620 0 _ZNK10QWorkspace12activeWindowEv
PUBLIC 5dc740 0 _ZN10QWorkspace9hideEventEP10QHideEvent
PUBLIC 5dc758 0 _ZN10QWorkspace15closeAllWindowsEv
PUBLIC 5dd18c 0 _ZNK10QWorkspace17scrollBarsEnabledEv
PUBLIC 5dd1a0 0 _ZN10QWorkspace10wheelEventEP11QWheelEvent
PUBLIC 5dda40 0 _ZN10QWorkspace15windowActivatedEP7QWidget
PUBLIC 5de098 0 _ZNK10QWorkspace10windowListENS_11WindowOrderE
PUBLIC 5decb8 0 _ZN10QWorkspace10childEventEP11QChildEvent
PUBLIC 5defa0 0 _ZN10QWorkspace11resizeEventEP12QResizeEvent
PUBLIC 5deff4 0 _ZN10QWorkspace17closeActiveWindowEv
PUBLIC 5df04c 0 _ZN10QWorkspace12arrangeIconsEv
PUBLIC 5df488 0 _ZN10QWorkspace20setScrollBarsEnabledEb
PUBLIC 5df8ec 0 _ZN10QWorkspace7cascadeEv
PUBLIC 5e0540 0 _ZN10QWorkspace9addWindowEP7QWidget6QFlagsIN2Qt10WindowTypeEE
PUBLIC 5e09a4 0 _ZN10QWorkspace15setActiveWindowEP7QWidget
PUBLIC 5e0c70 0 _ZN10QWorkspace18activateNextWindowEv
PUBLIC 5e0d5c 0 _ZN10QWorkspace22activatePreviousWindowEv
PUBLIC 5e10d4 0 _ZN10QWorkspace4tileEv
PUBLIC 5e18d8 0 _ZN10QWorkspace11eventFilterEP7QObjectP6QEvent
PUBLIC 5e50a8 0 _ZN10QWorkspaceC1EP7QWidget
PUBLIC 5e59cc 0 _ZN10QWorkspace9showEventEP10QShowEvent
PUBLIC 5e5dcc 0 _ZN10QWorkspace11changeEventEP6QEvent
PUBLIC 5e6980 0 _ZN10QWorkspace11qt_metacastEPKc
PUBLIC 5e6aa8 0 _ZN10QWorkspace11qt_metacallEN11QMetaObject4CallEiPPv
PUBLIC 5edb18 0 _ZN24QPlainTextDocumentLayout4drawEP8QPainterRKN27QAbstractTextDocumentLayout12PaintContextE
PUBLIC 5edb1c 0 _ZNK24QPlainTextDocumentLayout7hitTestERK7QPointFN2Qt15HitTestAccuracyE
PUBLIC 5edb24 0 _ZNK24QPlainTextDocumentLayout9pageCountEv
PUBLIC 5edb2c 0 _ZNK24QPlainTextDocumentLayout17frameBoundingRectEP10QTextFrame
PUBLIC 5edb74 0 _ZN14QPlainTextEdit15keyReleaseEventEP9QKeyEvent
PUBLIC 5edb78 0 _ZN14QPlainTextEdit12loadResourceEiRK4QUrl
PUBLIC 5edb98 0 _ZNK14QPlainTextEdit10metaObjectEv
PUBLIC 5edbc4 0 _ZNK24QPlainTextDocumentLayout10metaObjectEv
PUBLIC 5edc10 0 _ZN24QPlainTextDocumentLayoutD2Ev
PUBLIC 5edc44 0 _ZN24QPlainTextDocumentLayoutD0Ev
PUBLIC 5edc60 0 _ZNK24QPlainTextDocumentLayout12documentSizeEv
PUBLIC 5ee40c 0 _ZNK14QPlainTextEdit16inputMethodQueryEN2Qt16InputMethodQueryE
PUBLIC 5ee8c4 0 _ZN24QPlainTextDocumentLayoutC2EP13QTextDocument
PUBLIC 5ee9c4 0 _ZN24QPlainTextDocumentLayout14setCursorWidthEi
PUBLIC 5ee9d0 0 _ZNK24QPlainTextDocumentLayout11cursorWidthEv
PUBLIC 5ee9dc 0 _ZNK24QPlainTextDocumentLayout4privEv
PUBLIC 5ee9e4 0 _ZN14QPlainTextEditD2Ev
PUBLIC 5eea64 0 _ZThn8_N14QPlainTextEditD1Ev
PUBLIC 5eea6c 0 _ZN14QPlainTextEditD0Ev
PUBLIC 5eea88 0 _ZThn8_N14QPlainTextEditD0Ev
PUBLIC 5eea90 0 _ZN24QPlainTextDocumentLayout13requestUpdateEv
PUBLIC 5eead8 0 _ZNK24QPlainTextDocumentLayout9textWidthEv
PUBLIC 5eeba0 0 _ZN24QPlainTextDocumentLayout12setTextWidthEf
PUBLIC 5eebb0 0 _ZN24QPlainTextDocumentLayout10blockWidthERK10QTextBlock
PUBLIC 5eec34 0 _ZN24QPlainTextDocumentLayout11layoutBlockERK10QTextBlock
PUBLIC 5ef018 0 _ZNK24QPlainTextDocumentLayout17blockBoundingRectERK10QTextBlock
PUBLIC 5ef1a8 0 _ZNK24QPlainTextDocumentLayout17ensureBlockLayoutERK10QTextBlock
PUBLIC 5ef1f0 0 _ZN24QPlainTextDocumentLayout15documentChangedEiii
PUBLIC 5ef63c 0 _ZN14QPlainTextEdit15mousePressEventEP11QMouseEvent
PUBLIC 5ef6d0 0 _ZN14QPlainTextEdit21mouseDoubleClickEventEP11QMouseEvent
PUBLIC 5ef764 0 _ZN14QPlainTextEdit16contextMenuEventEP17QContextMenuEvent
PUBLIC 5ef7f8 0 _ZN14QPlainTextEdit14dragEnterEventEP15QDragEnterEvent
PUBLIC 5ef898 0 _ZN14QPlainTextEdit14dragLeaveEventEP15QDragLeaveEvent
PUBLIC 5ef940 0 _ZN14QPlainTextEdit9dropEventEP10QDropEvent
PUBLIC 5ef9e8 0 _ZN14QPlainTextEdit13dragMoveEventEP14QDragMoveEvent
PUBLIC 5efaa8 0 _ZN14QPlainTextEdit14mouseMoveEventEP11QMouseEvent
PUBLIC 5f000c 0 _ZN14QPlainTextEditC2EP7QWidget
PUBLIC 5f0118 0 _ZN14QPlainTextEditC2ER21QPlainTextEditPrivateP7QWidget
PUBLIC 5f01fc 0 _ZN14QPlainTextEditC2ERK7QStringP7QWidget
PUBLIC 5f0280 0 _ZNK14QPlainTextEdit8documentEv
PUBLIC 5f028c 0 _ZN14QPlainTextEdit13setTextCursorERK11QTextCursor
PUBLIC 5f0298 0 _ZNK14QPlainTextEdit10textCursorEv
PUBLIC 5f02b4 0 _ZNK14QPlainTextEdit8anchorAtERK6QPoint
PUBLIC 5f046c 0 _ZN14QPlainTextEdit4undoEv
PUBLIC 5f0478 0 _ZN14QPlainTextEdit4redoEv
PUBLIC 5f0484 0 _ZN14QPlainTextEdit3cutEv
PUBLIC 5f0490 0 _ZN14QPlainTextEdit4copyEv
PUBLIC 5f049c 0 _ZN14QPlainTextEdit5pasteEv
PUBLIC 5f04ac 0 _ZN14QPlainTextEdit5clearEv
PUBLIC 5f04c8 0 _ZN14QPlainTextEdit9selectAllEv
PUBLIC 5f04d4 0 _ZN14QPlainTextEdit12setPlainTextERK7QString
PUBLIC 5f0638 0 _ZN14QPlainTextEdit25createStandardContextMenuEv
PUBLIC 5f0668 0 _ZNK14QPlainTextEdit17cursorForPositionERK6QPoint
PUBLIC 5f070c 0 _ZNK14QPlainTextEdit10cursorRectERK11QTextCursor
PUBLIC 5f09e8 0 _ZNK14QPlainTextEdit10cursorRectEv
PUBLIC 5f0cb0 0 _ZNK14QPlainTextEdit13overwriteModeEv
PUBLIC 5f0cbc 0 _ZN14QPlainTextEdit16setOverwriteModeEb
PUBLIC 5f0cc8 0 _ZNK14QPlainTextEdit12tabStopWidthEv
PUBLIC 5f0d74 0 _ZN14QPlainTextEdit15setTabStopWidthEi
PUBLIC 5f0df4 0 _ZNK14QPlainTextEdit11cursorWidthEv
PUBLIC 5f0e00 0 _ZN14QPlainTextEdit14setCursorWidthEi
PUBLIC 5f0e0c 0 _ZN14QPlainTextEdit18setExtraSelectionsERK5QListIN9QTextEdit14ExtraSelectionEE
PUBLIC 5f0e18 0 _ZNK14QPlainTextEdit15extraSelectionsEv
PUBLIC 5f0e34 0 _ZNK14QPlainTextEdit10isReadOnlyEv
PUBLIC 5f0e64 0 _ZN14QPlainTextEdit11setReadOnlyEb
PUBLIC 5f0eb0 0 _ZN14QPlainTextEdit23setTextInteractionFlagsE6QFlagsIN2Qt19TextInteractionFlagEE
PUBLIC 5f0ed8 0 _ZNK14QPlainTextEdit20textInteractionFlagsEv
PUBLIC 5f0ef4 0 _ZN14QPlainTextEdit22mergeCurrentCharFormatERK15QTextCharFormat
PUBLIC 5f0f00 0 _ZN14QPlainTextEdit20setCurrentCharFormatERK15QTextCharFormat
PUBLIC 5f0f0c 0 _ZNK14QPlainTextEdit17currentCharFormatEv
PUBLIC 5f0f28 0 _ZN14QPlainTextEdit15insertPlainTextERK7QString
PUBLIC 5f0f34 0 _ZN14QPlainTextEdit10moveCursorEN11QTextCursor13MoveOperationENS0_8MoveModeE
PUBLIC 5f0f40 0 _ZNK14QPlainTextEdit8canPasteEv
PUBLIC 5f0f4c 0 _ZNK14QPlainTextEdit5printEP8QPrinter
PUBLIC 5f0f58 0 _ZNK14QPlainTextEdit15tabChangesFocusEv
PUBLIC 5f0f64 0 _ZN14QPlainTextEdit18setTabChangesFocusEb
PUBLIC 5f0f70 0 _ZNK14QPlainTextEdit12lineWrapModeEv
PUBLIC 5f0f7c 0 _ZNK14QPlainTextEdit12wordWrapModeEv
PUBLIC 5f0f88 0 _ZN14QPlainTextEdit15setWordWrapModeEN11QTextOption8WrapModeE
PUBLIC 5f0fa0 0 _ZNK14QPlainTextEdit17backgroundVisibleEv
PUBLIC 5f0fb4 0 _ZNK14QPlainTextEdit14centerOnScrollEv
PUBLIC 5f0fc8 0 _ZN14QPlainTextEdit17setCenterOnScrollEb
PUBLIC 5f0ff0 0 _ZN14QPlainTextEdit4findERK7QString6QFlagsIN13QTextDocument8FindFlagEE
PUBLIC 5f1018 0 _ZNK14QPlainTextEdit17firstVisibleBlockEv
PUBLIC 5f1034 0 _ZNK14QPlainTextEdit13contentOffsetEv
PUBLIC 5f10ac 0 _ZNK14QPlainTextEdit21blockBoundingGeometryERK10QTextBlock
PUBLIC 5f10d0 0 _ZNK14QPlainTextEdit17blockBoundingRectERK10QTextBlock
PUBLIC 5f1128 0 _ZNK14QPlainTextEdit10blockCountEv
PUBLIC 5f1138 0 _ZNK14QPlainTextEdit15getPaintContextEv
PUBLIC 5f1158 0 _ZN14QPlainTextEdit11textChangedEv
PUBLIC 5f117c 0 _ZN14QPlainTextEdit13undoAvailableEb
PUBLIC 5f11c4 0 _ZN14QPlainTextEdit13redoAvailableEb
PUBLIC 5f120c 0 _ZN14QPlainTextEdit13copyAvailableEb
PUBLIC 5f1254 0 _ZN14QPlainTextEdit16selectionChangedEv
PUBLIC 5f1278 0 _ZN14QPlainTextEdit21cursorPositionChangedEv
PUBLIC 5f129c 0 _ZN14QPlainTextEdit13updateRequestERK5QRecti
PUBLIC 5f134c 0 _ZN14QPlainTextEdit20setBackgroundVisibleEb
PUBLIC 5f17f4 0 _ZN14QPlainTextEdit16scrollContentsByEii
PUBLIC 5f1be8 0 _ZN14QPlainTextEdit11setDocumentEP13QTextDocument
PUBLIC 5f1cf0 0 _ZN14QPlainTextEdit11resizeEventEP12QResizeEvent
PUBLIC 5f2220 0 _ZN14QPlainTextEdit19ensureCursorVisibleEv
PUBLIC 5f2234 0 _ZN14QPlainTextEdit16inputMethodEventEP17QInputMethodEvent
PUBLIC 5f22d4 0 _ZN14QPlainTextEdit9showEventEP10QShowEvent
PUBLIC 5f22f0 0 _ZN14QPlainTextEdit15setLineWrapModeENS_12LineWrapModeE
PUBLIC 5f2330 0 _ZN14QPlainTextEdit12centerCursorEv
PUBLIC 5f2d54 0 _ZN14QPlainTextEdit15appendPlainTextERK7QString
PUBLIC 5f2d60 0 _ZN14QPlainTextEdit10appendHtmlERK7QString
PUBLIC 5f2d6c 0 _ZN14QPlainTextEdit17blockCountChangedEi
PUBLIC 5f2db0 0 _ZN14QPlainTextEdit19modificationChangedEb
PUBLIC 5f2df8 0 _ZN14QPlainTextEdit10paintEventEP11QPaintEvent
PUBLIC 5f3868 0 _ZNK14QPlainTextEdit27createMimeDataFromSelectionEv
PUBLIC 5f38d0 0 _ZNK14QPlainTextEdit21canInsertFromMimeDataEPK9QMimeData
PUBLIC 5f3938 0 _ZN14QPlainTextEdit18insertFromMimeDataEPK9QMimeData
PUBLIC 5f3944 0 _ZN14QPlainTextEdit5eventEP6QEvent
PUBLIC 5f3c50 0 _ZN14QPlainTextEdit10timerEventEP11QTimerEvent
PUBLIC 5f3e68 0 _ZN14QPlainTextEdit13keyPressEventEP9QKeyEvent
PUBLIC 5f41a0 0 _ZN14QPlainTextEdit17mouseReleaseEventEP11QMouseEvent
PUBLIC 5f439c 0 _ZN14QPlainTextEdit18focusNextPrevChildEb
PUBLIC 5f43fc 0 _ZN14QPlainTextEdit12focusInEventEP11QFocusEvent
PUBLIC 5f44b8 0 _ZN14QPlainTextEdit13focusOutEventEP11QFocusEvent
PUBLIC 5f4550 0 _ZN14QPlainTextEdit11changeEventEP6QEvent
PUBLIC 5f469c 0 _ZN14QPlainTextEdit10wheelEventEP11QWheelEvent
PUBLIC 5f46b4 0 _ZN14QPlainTextEdit11qt_metacastEPKc
PUBLIC 5f46f8 0 _ZN14QPlainTextEdit11qt_metacallEN11QMetaObject4CallEiPPv
PUBLIC 5f4c8c 0 _ZN24QPlainTextDocumentLayout11qt_metacastEPKc
PUBLIC 5f4cd8 0 _ZN24QPlainTextDocumentLayout11qt_metacallEN11QMetaObject4CallEiPPv
PUBLIC 5f5148 0 _ZNK19QPrintPreviewWidget10metaObjectEv
PUBLIC 5f5264 0 _ZN19QPrintPreviewWidgetD2Ev
PUBLIC 5f52d8 0 _ZThn8_N19QPrintPreviewWidgetD1Ev
PUBLIC 5f52e0 0 _ZN19QPrintPreviewWidgetD0Ev
PUBLIC 5f52fc 0 _ZThn8_N19QPrintPreviewWidgetD0Ev
PUBLIC 5f58a8 0 _ZNK19QPrintPreviewWidget8viewModeEv
PUBLIC 5f58b4 0 _ZNK19QPrintPreviewWidget11orientationEv
PUBLIC 5f58c0 0 _ZN19QPrintPreviewWidget6zoomInEf
PUBLIC 5f58f8 0 _ZN19QPrintPreviewWidget7zoomOutEf
PUBLIC 5f593c 0 _ZNK19QPrintPreviewWidget10zoomFactorEv
PUBLIC 5f5948 0 _ZN19QPrintPreviewWidget13setZoomFactorEf
PUBLIC 5f595c 0 _ZNK19QPrintPreviewWidget8numPagesEv
PUBLIC 5f5974 0 _ZNK19QPrintPreviewWidget9pageCountEv
PUBLIC 5f598c 0 _ZNK19QPrintPreviewWidget11currentPageEv
PUBLIC 5f5998 0 _ZN19QPrintPreviewWidget14setCurrentPageEi
PUBLIC 5f59a0 0 _ZNK19QPrintPreviewWidget8zoomModeEv
PUBLIC 5f59ac 0 _ZN19QPrintPreviewWidget14paintRequestedEP8QPrinter
PUBLIC 5f59ec 0 _ZN19QPrintPreviewWidget5printEv
PUBLIC 5f59f8 0 _ZN19QPrintPreviewWidget14previewChangedEv
PUBLIC 5f639c 0 _ZN19QPrintPreviewWidgetC1EP8QPrinterP7QWidget6QFlagsIN2Qt10WindowTypeEE
PUBLIC 5f64fc 0 _ZN19QPrintPreviewWidgetC2EP7QWidget6QFlagsIN2Qt10WindowTypeEE
PUBLIC 5f6e44 0 _ZN19QPrintPreviewWidget11setViewModeENS_8ViewModeE
PUBLIC 5f6f38 0 _ZN19QPrintPreviewWidget21setSinglePageViewModeEv
PUBLIC 5f6f40 0 _ZN19QPrintPreviewWidget22setFacingPagesViewModeEv
PUBLIC 5f6f48 0 _ZN19QPrintPreviewWidget19setAllPagesViewModeEv
PUBLIC 5f6f50 0 _ZN19QPrintPreviewWidget11setZoomModeENS_8ZoomModeE
PUBLIC 5f6f78 0 _ZN19QPrintPreviewWidget10fitToWidthEv
PUBLIC 5f6f80 0 _ZN19QPrintPreviewWidget9fitInViewEv
PUBLIC 5f70ec 0 _ZN19QPrintPreviewWidget14setOrientationEN8QPrinter11OrientationE
PUBLIC 5f7108 0 _ZN19QPrintPreviewWidget23setLandscapeOrientationEv
PUBLIC 5f7110 0 _ZN19QPrintPreviewWidget22setPortraitOrientationEv
PUBLIC 5f7118 0 _ZN19QPrintPreviewWidget13updatePreviewEv
PUBLIC 5f713c 0 _ZN19QPrintPreviewWidget10setVisibleEb
PUBLIC 5f7270 0 _ZN19QPrintPreviewWidget11qt_metacastEPKc
PUBLIC 5f72bc 0 _ZN19QPrintPreviewWidget11qt_metacallEN11QMetaObject4CallEiPPv
PUBLIC 5f7880 0 _ZNK16QUnixPrintWidget10metaObjectEv
PUBLIC 5f78ac 0 _ZNK12QPrintDialog10metaObjectEv
PUBLIC 5f79a0 0 _ZN12QPrintDialogD1Ev
PUBLIC 5f79dc 0 _ZThn8_N12QPrintDialogD1Ev
PUBLIC 5f79e4 0 _ZN12QPrintDialogD0Ev
PUBLIC 5f7a00 0 _ZThn8_N12QPrintDialogD0Ev
PUBLIC 5f7a08 0 _ZN12QPrintDialog4execEv
PUBLIC 5f90e0 0 _ZN12QPrintDialog10setVisibleEb
PUBLIC 5fa6ec 0 _ZN12QPrintDialog6acceptEv
PUBLIC 5fa708 0 _ZN16QUnixPrintWidget13updatePrinterEv
PUBLIC 5fa710 0 _ZN12QPrintDialog8acceptedEP8QPrinter
PUBLIC 5fa7c0 0 _ZN16QUnixPrintWidgetD1Ev
PUBLIC 5fa828 0 _ZThn8_N16QUnixPrintWidgetD1Ev
PUBLIC 5fa830 0 _ZN16QUnixPrintWidgetD0Ev
PUBLIC 5fa84c 0 _ZThn8_N16QUnixPrintWidgetD0Ev
PUBLIC 5fab38 0 _ZN16QUnixPrintWidgetC2EP8QPrinterP7QWidget
PUBLIC 5fb044 0 _ZN12QPrintDialogC1EP8QPrinterP7QWidget
PUBLIC 5fb1f8 0 _ZN12QPrintDialogC1EP7QWidget
PUBLIC 5fb984 0 _ZN16QUnixPrintWidget11qt_metacastEPKc
PUBLIC 5fb9d4 0 _ZN16QUnixPrintWidget11qt_metacallEN11QMetaObject4CallEiPPv
PUBLIC 5fba54 0 _ZN12QPrintDialog11qt_metacastEPKc
PUBLIC 5fbaa0 0 _ZN12QPrintDialog11qt_metacallEN11QMetaObject4CallEiPPv
PUBLIC 5ff1a0 0 _ZNK16QPageSetupDialog10metaObjectEv
PUBLIC 600bf0 0 _ZN16QPageSetupDialog4execEv
PUBLIC 601ef4 0 _ZN16QPageSetupDialogC1EP8QPrinterP7QWidget
PUBLIC 602094 0 _ZN16QPageSetupDialogC2EP7QWidget
PUBLIC 602230 0 _ZN16QPageSetupDialog11qt_metacastEPKc
PUBLIC 602274 0 _ZN16QPageSetupDialog11qt_metacallEN11QMetaObject4CallEiPPv
PUBLIC 6023ac 0 _ZN16QPageSetupDialogD2Ev
PUBLIC 6023e8 0 _ZThn8_N16QPageSetupDialogD1Ev
PUBLIC 6023f0 0 _ZN16QPageSetupDialogD0Ev
PUBLIC 602434 0 _ZThn8_N16QPageSetupDialogD0Ev
PUBLIC 604c40 0 _ZN20QAbstractPrintDialogD1Ev
PUBLIC 604cb4 0 _ZThn8_N20QAbstractPrintDialogD1Ev
PUBLIC 604cbc 0 _ZN20QAbstractPrintDialogD0Ev
PUBLIC 604cd8 0 _ZThn8_N20QAbstractPrintDialogD0Ev
PUBLIC 604ce0 0 _ZNK12QPrintDialog10testOptionEN20QAbstractPrintDialog17PrintDialogOptionE
PUBLIC 604cfc 0 _ZN12QPrintDialog10setOptionsE6QFlagsIN20QAbstractPrintDialog17PrintDialogOptionEE
PUBLIC 604d18 0 _ZN12QPrintDialog9setOptionEN20QAbstractPrintDialog17PrintDialogOptionEb
PUBLIC 604d5c 0 _ZNK12QPrintDialog7optionsEv
PUBLIC 604d70 0 _ZN20QAbstractPrintDialog17setEnabledOptionsE6QFlagsINS_17PrintDialogOptionEE
PUBLIC 604d84 0 _ZN20QAbstractPrintDialog16addEnabledOptionENS_17PrintDialogOptionE
PUBLIC 604d9c 0 _ZNK20QAbstractPrintDialog14enabledOptionsEv
PUBLIC 604db0 0 _ZNK20QAbstractPrintDialog15isOptionEnabledENS_17PrintDialogOptionE
PUBLIC 604dcc 0 _ZN20QAbstractPrintDialog13setPrintRangeENS_10PrintRangeE
PUBLIC 604ddc 0 _ZNK20QAbstractPrintDialog10printRangeEv
PUBLIC 604dec 0 _ZN20QAbstractPrintDialog9setMinMaxEii
PUBLIC 604e0c 0 _ZNK20QAbstractPrintDialog7minPageEv
PUBLIC 604e1c 0 _ZNK20QAbstractPrintDialog7maxPageEv
PUBLIC 604e2c 0 _ZN20QAbstractPrintDialog9setFromToEii
PUBLIC 604e5c 0 _ZNK20QAbstractPrintDialog8fromPageEv
PUBLIC 604e6c 0 _ZNK20QAbstractPrintDialog6toPageEv
PUBLIC 604e7c 0 _ZNK20QAbstractPrintDialog7printerEv
PUBLIC 604ee4 0 _ZN20QAbstractPrintDialogC1EP8QPrinterP7QWidget
PUBLIC 605104 0 _ZN20QAbstractPrintDialogC2ER27QAbstractPrintDialogPrivateP8QPrinterP7QWidget
PUBLIC 6051fc 0 _ZN20QAbstractPrintDialog13setOptionTabsERK5QListIP7QWidgetE
PUBLIC 605214 0 _ZN12QPrintDialog4doneEi
PUBLIC 605294 0 _ZN12QPrintDialog4openEP7QObjectPKc
PUBLIC 605300 0 _ZN24QAbstractPageSetupDialogD1Ev
PUBLIC 605374 0 _ZThn8_N24QAbstractPageSetupDialogD1Ev
PUBLIC 60537c 0 _ZN24QAbstractPageSetupDialogD0Ev
PUBLIC 605398 0 _ZThn8_N24QAbstractPageSetupDialogD0Ev
PUBLIC 6053a0 0 _ZN24QAbstractPageSetupDialog7printerEv
PUBLIC 60541c 0 _ZN24QAbstractPageSetupDialogC2EP8QPrinterP7QWidget
PUBLIC 605638 0 _ZN24QAbstractPageSetupDialogC2ER31QAbstractPageSetupDialogPrivateP8QPrinterP7QWidget
PUBLIC 605730 0 _ZN24QAbstractPageSetupDialog4doneEi
PUBLIC 6059a4 0 _ZNK12QColorDialog10metaObjectEv
PUBLIC 606ccc 0 _ZN12QColorDialog11customCountEv
PUBLIC 606cd4 0 _ZN12QColorDialog11customColorEi
PUBLIC 606d28 0 _ZN12QColorDialog14setCustomColorEij
PUBLIC 606d80 0 _ZN12QColorDialog16setStandardColorEij
PUBLIC 6082e8 0 _ZN12QColorDialog11changeEventEP6QEvent
PUBLIC 608330 0 _ZNK12QColorDialog12currentColorEv
PUBLIC 608368 0 _ZNK12QColorDialog13selectedColorEv
PUBLIC 60839c 0 _ZNK12QColorDialog10testOptionENS_17ColorDialogOptionE
PUBLIC 6083b4 0 _ZN12QColorDialog10setOptionsE6QFlagsINS_17ColorDialogOptionEE
PUBLIC 608408 0 _ZN12QColorDialog9setOptionENS_17ColorDialogOptionEb
PUBLIC 608448 0 _ZNK12QColorDialog7optionsEv
PUBLIC 608c54 0 _ZN12QColorDialog15setCurrentColorERK6QColor
PUBLIC 608f38 0 _ZN12QColorDialog4openEP7QObjectPKc
PUBLIC 6094f8 0 _ZN12QColorDialog19currentColorChangedERK6QColor
PUBLIC 609578 0 _ZN12QColorDialog13colorSelectedERK6QColor
PUBLIC 60ab34 0 _ZN12QColorDialogC2EP7QWidget
PUBLIC 60acf8 0 _ZN12QColorDialogC1ERK6QColorP7QWidget
PUBLIC 60aeac 0 _ZN12QColorDialogD2Ev
PUBLIC 60b1f4 0 _ZThn8_N12QColorDialogD1Ev
PUBLIC 60b1fc 0 _ZN12QColorDialog8getColorERK6QColorP7QWidgetRK7QString6QFlagsINS_17ColorDialogOptionEE
PUBLIC 60b298 0 _ZN12QColorDialog8getColorERK6QColorP7QWidget
PUBLIC 60b358 0 _ZN12QColorDialog7getRgbaEjPbP7QWidget
PUBLIC 60b468 0 _ZN12QColorDialogD0Ev
PUBLIC 60b484 0 _ZThn8_N12QColorDialogD0Ev
PUBLIC 60b48c 0 _ZN12QColorDialog10setVisibleEb
PUBLIC 60b568 0 _ZN12QColorDialog4doneEi
PUBLIC 60baec 0 _ZN12QColorDialog11qt_metacastEPKc
PUBLIC 60bb38 0 _ZN12QColorDialog11qt_metacallEN11QMetaObject4CallEiPPv
PUBLIC 60c10c 0 _ZN7QDialog6acceptEv
PUBLIC 60c124 0 _ZN7QDialog6rejectEv
PUBLIC 60c13c 0 _ZNK7QDialog10metaObjectEv
PUBLIC 60c168 0 _ZN7QDialog11eventFilterEP7QObjectP6QEvent
PUBLIC 60c16c 0 _ZN7QDialog11resizeEventEP12QResizeEvent
PUBLIC 60c22c 0 _ZN7QDialog10closeEventEP11QCloseEvent
PUBLIC 60c2f4 0 _ZN7QDialogC2EP7QWidget6QFlagsIN2Qt10WindowTypeEE
PUBLIC 60c424 0 _ZN7QDialogC1ER14QDialogPrivateP7QWidget6QFlagsIN2Qt10WindowTypeEE
PUBLIC 60c4dc 0 _ZNK7QDialog6resultEv
PUBLIC 60c4e8 0 _ZN7QDialog9setResultEi
PUBLIC 60c4f4 0 _ZN7QDialog4openEv
PUBLIC 60c560 0 _ZN7QDialog14setOrientationEN2Qt11OrientationE
PUBLIC 60c56c 0 _ZNK7QDialog11orientationEv
PUBLIC 60c578 0 _ZN7QDialog12setExtensionEP7QWidget
PUBLIC 60c5e0 0 _ZNK7QDialog9extensionEv
PUBLIC 60c5ec 0 _ZN7QDialog8setModalEb
PUBLIC 60c5f8 0 _ZNK7QDialog17isSizeGripEnabledEv
PUBLIC 60c60c 0 _ZN7QDialog18setSizeGripEnabledEb
PUBLIC 60c768 0 _ZN7QDialog13showExtensionEb
PUBLIC 60ca50 0 _ZN7QDialog8finishedEi
PUBLIC 60ca90 0 _ZN7QDialog8acceptedEv
PUBLIC 60cab4 0 _ZN7QDialog8rejectedEv
PUBLIC 60cad8 0 _ZN7QDialog4doneEi
PUBLIC 60cb4c 0 _ZN7QDialog13keyPressEventEP9QKeyEvent
PUBLIC 60d0f0 0 _ZN7QDialog14adjustPositionEP7QWidget
PUBLIC 60d3f8 0 _ZN7QDialog9showEventEP10QShowEvent
PUBLIC 60d490 0 _ZN7QDialog4execEv
PUBLIC 60d618 0 _ZN7QDialog16contextMenuEventEP17QContextMenuEvent
PUBLIC 60d9d0 0 _ZN7QDialog10setVisibleEb
PUBLIC 60dc60 0 _ZN7QDialogD2Ev
PUBLIC 60dcb4 0 _ZThn8_N7QDialogD1Ev
PUBLIC 60dcbc 0 _ZN7QDialogD0Ev
PUBLIC 60dcd8 0 _ZThn8_N7QDialogD0Ev
PUBLIC 60dce0 0 _ZNK7QDialog8sizeHintEv
PUBLIC 60ddb0 0 _ZNK7QDialog15minimumSizeHintEv
PUBLIC 60de80 0 _ZN7QDialog11qt_metacastEPKc
PUBLIC 60dec4 0 _ZN7QDialog11qt_metacallEN11QMetaObject4CallEiPPv
PUBLIC 60e0dc 0 _ZN13QErrorMessageD2Ev
PUBLIC 60e16c 0 _ZThn8_N13QErrorMessageD1Ev
PUBLIC 60e174 0 _ZN13QErrorMessageD0Ev
PUBLIC 60e190 0 _ZThn8_N13QErrorMessageD0Ev
PUBLIC 60e82c 0 _ZN13QErrorMessage11showMessageERK7QString
PUBLIC 60ef9c 0 _ZN13QErrorMessage11showMessageERK7QStringS2_
PUBLIC 60f11c 0 _ZN13QErrorMessageC1EP7QWidget
PUBLIC 60f578 0 _ZN13QErrorMessage9qtHandlerEv
PUBLIC 60f664 0 _ZN13QErrorMessage4doneEi
PUBLIC 60fae8 0 _ZN13QErrorMessage11changeEventEP6QEvent
PUBLIC 61052c 0 _ZNK11QFileDialog10metaObjectEv
PUBLIC 610b08 0 _ZN11QFileDialog14setSidebarUrlsERK5QListI4QUrlE
PUBLIC 610b1c 0 _ZNK11QFileDialog11sidebarUrlsEv
PUBLIC 610e20 0 _ZNK11QFileDialog10testOptionENS_6OptionE
PUBLIC 610e38 0 _ZNK11QFileDialog7optionsEv
PUBLIC 610e48 0 _ZNK11QFileDialog9directoryEv
PUBLIC 611074 0 _ZNK11QFileDialog26isNameFilterDetailsVisibleEv
PUBLIC 61108c 0 _ZNK11QFileDialog18selectedNameFilterEv
PUBLIC 6110dc 0 _ZNK11QFileDialog14selectedFilterEv
PUBLIC 6110f0 0 _ZNK11QFileDialog6filterEv
PUBLIC 61110c 0 _ZN11QFileDialog9setFilterE6QFlagsIN4QDir6FilterEE
PUBLIC 611174 0 _ZNK11QFileDialog8viewModeEv
PUBLIC 6111a8 0 _ZNK11QFileDialog8fileModeEv
PUBLIC 6111b4 0 _ZN11QFileDialog4openEP7QObjectPKc
PUBLIC 611290 0 _ZNK11QFileDialog10acceptModeEv
PUBLIC 61129c 0 _ZNK11QFileDialog10isReadOnlyEv
PUBLIC 6112a4 0 _ZNK11QFileDialog15resolveSymlinksEv
PUBLIC 6112bc 0 _ZNK11QFileDialog16confirmOverwriteEv
PUBLIC 6112d4 0 _ZN11QFileDialog16setDefaultSuffixERK7QString
PUBLIC 6112e0 0 _ZNK11QFileDialog13defaultSuffixEv
PUBLIC 61131c 0 _ZN11QFileDialog15setItemDelegateEP21QAbstractItemDelegate
PUBLIC 611348 0 _ZNK11QFileDialog12itemDelegateEv
PUBLIC 611358 0 _ZNK11QFileDialog12iconProviderEv
PUBLIC 611364 0 _ZN11QFileDialog12setLabelTextENS_11DialogLabelERK7QString
PUBLIC 611438 0 _ZNK11QFileDialog9labelTextENS_11DialogLabelE
PUBLIC 611a0c 0 _ZN11QFileDialog13setProxyModelEP19QAbstractProxyModel
PUBLIC 611d34 0 _ZNK11QFileDialog10proxyModelEv
PUBLIC 612cb8 0 _ZN11QFileDialog11setViewModeENS_8ViewModeE
PUBLIC 613720 0 _ZN11QFileDialog12fileSelectedERK7QString
PUBLIC 61375c 0 _ZN11QFileDialog13filesSelectedERK11QStringList
PUBLIC 6137dc 0 _ZN11QFileDialog14currentChangedERK7QString
PUBLIC 61381c 0 _ZN11QFileDialog16directoryEnteredERK7QString
PUBLIC 61385c 0 _ZN11QFileDialog14filterSelectedERK7QString
PUBLIC 613dac 0 _ZN11QFileDialog15setIconProviderEP17QFileIconProvider
PUBLIC 613ef8 0 _ZN11QFileDialog12setDirectoryERK7QString
PUBLIC 6142c0 0 _ZN11QFileDialog10selectFileERK7QString
PUBLIC 6170a8 0 _ZN11QFileDialog16selectNameFilterERK7QString
PUBLIC 617234 0 _ZN11QFileDialog12selectFilterERK7QString
PUBLIC 617238 0 _ZNK11QFileDialog11nameFiltersEv
PUBLIC 617290 0 _ZNK11QFileDialog7filtersEv
PUBLIC 6172a4 0 _ZNK11QFileDialog7historyEv
PUBLIC 6177dc 0 _ZN11QFileDialog10setHistoryERK11QStringList
PUBLIC 6180c0 0 _ZN11QFileDialog14setNameFiltersERK11QStringList
PUBLIC 618448 0 _ZN11QFileDialog10setOptionsE6QFlagsINS_6OptionEE
PUBLIC 618570 0 _ZN11QFileDialog9setOptionENS_6OptionEb
PUBLIC 6185b0 0 _ZN11QFileDialog27setNameFilterDetailsVisibleEb
PUBLIC 6185bc 0 _ZN11QFileDialog11setReadOnlyEb
PUBLIC 6185c8 0 _ZN11QFileDialog18setResolveSymlinksEb
PUBLIC 6185d4 0 _ZN11QFileDialog19setConfirmOverwriteEb
PUBLIC 6185e0 0 _ZN11QFileDialog13setNameFilterERK7QString
PUBLIC 618620 0 _ZN11QFileDialog9setFilterERK7QString
PUBLIC 618b08 0 _ZN11QFileDialog10setFiltersERK11QStringList
PUBLIC 619244 0 _ZNK11QFileDialog13selectedFilesEv
PUBLIC 61a074 0 _ZN11QFileDialog11setFileModeENS_8FileModeE
PUBLIC 61a49c 0 _ZN11QFileDialog13setAcceptModeENS_10AcceptModeE
PUBLIC 61abc0 0 _ZNK11QFileDialog9saveStateEv
PUBLIC 61ae7c 0 _ZN11QFileDialogD1Ev
PUBLIC 61b168 0 _ZThn8_N11QFileDialogD1Ev
PUBLIC 61b170 0 _ZN11QFileDialogD0Ev
PUBLIC 61b18c 0 _ZThn8_N11QFileDialogD0Ev
PUBLIC 61b194 0 _ZN11QFileDialog12restoreStateERK10QByteArray
PUBLIC 61bb90 0 _ZN11QFileDialogC1EP7QWidget6QFlagsIN2Qt10WindowTypeEE
PUBLIC 61bd94 0 _ZN11QFileDialogC1EP7QWidgetRK7QStringS4_S4_
PUBLIC 61be50 0 _ZN11QFileDialogC1ERK15QFileDialogArgs
PUBLIC 61bf30 0 _ZN11QFileDialog15getOpenFileNameEP7QWidgetRK7QStringS4_S4_PS2_6QFlagsINS_6OptionEE
PUBLIC 61c2a8 0 _ZN11QFileDialog16getOpenFileNamesEP7QWidgetRK7QStringS4_S4_PS2_6QFlagsINS_6OptionEE
PUBLIC 61c638 0 _ZN11QFileDialog15getSaveFileNameEP7QWidgetRK7QStringS4_S4_PS2_6QFlagsINS_6OptionEE
PUBLIC 61c9b8 0 _ZN11QFileDialog20getExistingDirectoryEP7QWidgetRK7QStringS4_6QFlagsINS_6OptionEE
PUBLIC 61cc78 0 _ZN11QFileDialog11changeEventEP6QEvent
PUBLIC 61cccc 0 _ZN11QFileDialog10setVisibleEb
PUBLIC 61cddc 0 _ZN11QFileDialog4doneEi
PUBLIC 61ce3c 0 _ZN11QFileDialog6acceptEv
PUBLIC 61e338 0 _ZN11QFileDialog11qt_metacastEPKc
PUBLIC 61e37c 0 _ZN11QFileDialog11qt_metacallEN11QMetaObject4CallEiPPv
PUBLIC 620ab8 0 _ZNK11QFontDialog10metaObjectEv
PUBLIC 620ae4 0 _ZN11QFontDialogD2Ev
PUBLIC 620b20 0 _ZThn8_N11QFontDialogD1Ev
PUBLIC 620b28 0 _ZN11QFontDialogD0Ev
PUBLIC 620b44 0 _ZThn8_N11QFontDialogD0Ev
PUBLIC 620fe8 0 _ZNK11QFontDialog11currentFontEv
PUBLIC 62100c 0 _ZNK11QFontDialog12selectedFontEv
PUBLIC 621028 0 _ZNK11QFontDialog10testOptionENS_16FontDialogOptionE
PUBLIC 621040 0 _ZN11QFontDialog10setOptionsE6QFlagsINS_16FontDialogOptionEE
PUBLIC 62107c 0 _ZN11QFontDialog9setOptionENS_16FontDialogOptionEb
PUBLIC 6210bc 0 _ZNK11QFontDialog7optionsEv
PUBLIC 6210cc 0 _ZN11QFontDialog4openEP7QObjectPKc
PUBLIC 621174 0 _ZN11QFontDialog18currentFontChangedERK5QFont
PUBLIC 6211f8 0 _ZN11QFontDialog12fontSelectedERK5QFont
PUBLIC 623b14 0 _ZN11QFontDialogC2EP7QWidget
PUBLIC 623dbc 0 _ZN11QFontDialog14setCurrentFontERK5QFont
PUBLIC 623f08 0 _ZN11QFontDialogC1ERK5QFontP7QWidget
PUBLIC 624210 0 _ZN11QFontDialog7getFontEPbRK5QFontP7QWidgetRK7QString6QFlagsINS_16FontDialogOptionEE
PUBLIC 624248 0 _ZN11QFontDialog7getFontEPbRK5QFontP7QWidgetRK7QString
PUBLIC 62427c 0 _ZN11QFontDialog7getFontEPbRK5QFontP7QWidget
PUBLIC 624348 0 _ZN11QFontDialog7getFontEPbP7QWidget
PUBLIC 6246a0 0 _ZN11QFontDialog11eventFilterEP7QObjectP6QEvent
PUBLIC 6248ac 0 _ZN11QFontDialog11changeEventEP6QEvent
PUBLIC 6248f4 0 _ZN11QFontDialog10setVisibleEb
PUBLIC 624938 0 _ZN11QFontDialog4doneEi
PUBLIC 624ae4 0 _ZN11QFontDialog11qt_metacastEPKc
PUBLIC 624b30 0 _ZN11QFontDialog11qt_metacallEN11QMetaObject4CallEiPPv
PUBLIC 6250fc 0 _ZNK12QInputDialog10metaObjectEv
PUBLIC 625330 0 _ZN12QInputDialogD1Ev
PUBLIC 62536c 0 _ZThn8_N12QInputDialogD1Ev
PUBLIC 625374 0 _ZN12QInputDialogD0Ev
PUBLIC 625390 0 _ZThn8_N12QInputDialogD0Ev
PUBLIC 626138 0 _ZN12QInputDialogC1EP7QWidget6QFlagsIN2Qt10WindowTypeEE
PUBLIC 6261b8 0 _ZNK12QInputDialog9inputModeEv
PUBLIC 6261f0 0 _ZN12QInputDialog12setLabelTextERK7QString
PUBLIC 626258 0 _ZNK12QInputDialog9labelTextEv
PUBLIC 626280 0 _ZNK12QInputDialog10testOptionENS_17InputDialogOptionE
PUBLIC 626298 0 _ZNK12QInputDialog7optionsEv
PUBLIC 6262a8 0 _ZNK12QInputDialog9textValueEv
PUBLIC 6262e4 0 _ZN12QInputDialog15setTextEchoModeEN9QLineEdit8EchoModeE
PUBLIC 626308 0 _ZNK12QInputDialog12textEchoModeEv
PUBLIC 62631c 0 _ZNK12QInputDialog18isComboBoxEditableEv
PUBLIC 626330 0 _ZNK12QInputDialog8intValueEv
PUBLIC 626344 0 _ZN12QInputDialog13setIntMinimumEi
PUBLIC 626368 0 _ZNK12QInputDialog10intMinimumEv
PUBLIC 62637c 0 _ZN12QInputDialog13setIntMaximumEi
PUBLIC 6263a0 0 _ZNK12QInputDialog10intMaximumEv
PUBLIC 6263bc 0 _ZN12QInputDialog11setIntRangeEii
PUBLIC 6263e8 0 _ZN12QInputDialog10setIntStepEi
PUBLIC 62640c 0 _ZNK12QInputDialog7intStepEv
PUBLIC 626428 0 _ZNK12QInputDialog11doubleValueEv
PUBLIC 626448 0 _ZN12QInputDialog16setDoubleMinimumEd
PUBLIC 626474 0 _ZNK12QInputDialog13doubleMinimumEv
PUBLIC 626494 0 _ZN12QInputDialog16setDoubleMaximumEd
PUBLIC 6264c0 0 _ZNK12QInputDialog13doubleMaximumEv
PUBLIC 6264e8 0 _ZN12QInputDialog14setDoubleRangeEdd
PUBLIC 62651c 0 _ZN12QInputDialog17setDoubleDecimalsEi
PUBLIC 626540 0 _ZNK12QInputDialog14doubleDecimalsEv
PUBLIC 62655c 0 _ZN12QInputDialog15setOkButtonTextERK7QString
PUBLIC 626588 0 _ZNK12QInputDialog12okButtonTextEv
PUBLIC 6265bc 0 _ZN12QInputDialog19setCancelButtonTextERK7QString
PUBLIC 6265e8 0 _ZNK12QInputDialog16cancelButtonTextEv
PUBLIC 62661c 0 _ZN12QInputDialog4openEP7QObjectPKc
PUBLIC 62668c 0 _ZN12QInputDialog16textValueChangedERK7QString
PUBLIC 6267d4 0 _ZN12QInputDialog17textValueSelectedERK7QString
PUBLIC 626814 0 _ZN12QInputDialog15intValueChangedEi
PUBLIC 626858 0 _ZN12QInputDialog16intValueSelectedEi
PUBLIC 62689c 0 _ZN12QInputDialog18doubleValueChangedEd
PUBLIC 6268e0 0 _ZN12QInputDialog19doubleValueSelectedEd
PUBLIC 626924 0 _ZNK12QInputDialog13comboBoxItemsEv
PUBLIC 626c60 0 _ZN12QInputDialog12setInputModeENS_9InputModeE
PUBLIC 626cb4 0 _ZN12QInputDialog12setTextValueERK7QString
PUBLIC 626d08 0 _ZN12QInputDialog7getTextEP7QWidgetRK7QStringS4_N9QLineEdit8EchoModeES4_Pb6QFlagsIN2Qt10WindowTypeEE
PUBLIC 626e04 0 _ZN12QInputDialog11setIntValueEi
PUBLIC 626e28 0 _ZN12QInputDialog6getIntEP7QWidgetRK7QStringS4_iiiiPb6QFlagsIN2Qt10WindowTypeEE
PUBLIC 626efc 0 _ZN12QInputDialog10getIntegerEP7QWidgetRK7QStringS4_iiiiPb6QFlagsIN2Qt10WindowTypeEE
PUBLIC 626f44 0 _ZN12QInputDialog14setDoubleValueEd
PUBLIC 626f70 0 _ZN12QInputDialog9getDoubleEP7QWidgetRK7QStringS4_dddiPb6QFlagsIN2Qt10WindowTypeEE
PUBLIC 62704c 0 _ZN12QInputDialog10setOptionsE6QFlagsINS_17InputDialogOptionEE
PUBLIC 6270cc 0 _ZN12QInputDialog9setOptionENS_17InputDialogOptionEb
PUBLIC 62710c 0 _ZN12QInputDialog19setComboBoxEditableEb
PUBLIC 62714c 0 _ZN12QInputDialog16setComboBoxItemsERK11QStringList
PUBLIC 6271bc 0 _ZN12QInputDialog7getItemEP7QWidgetRK7QStringS4_RK11QStringListibPb6QFlagsIN2Qt10WindowTypeEE
PUBLIC 627398 0 _ZNK12QInputDialog15minimumSizeHintEv
PUBLIC 6273c0 0 _ZNK12QInputDialog8sizeHintEv
PUBLIC 6273e8 0 _ZN12QInputDialog10setVisibleEb
PUBLIC 627458 0 _ZN12QInputDialog4doneEi
PUBLIC 627580 0 _ZN12QInputDialog11qt_metacastEPKc
PUBLIC 6275cc 0 _ZN12QInputDialog11qt_metacallEN11QMetaObject4CallEiPPv
PUBLIC 627c24 0 _ZNK11QMessageBox10metaObjectEv
PUBLIC 627c50 0 _ZN11QMessageBoxD1Ev
PUBLIC 627c8c 0 _ZThn8_N11QMessageBoxD1Ev
PUBLIC 627c94 0 _ZN11QMessageBoxD0Ev
PUBLIC 627cb0 0 _ZThn8_N11QMessageBoxD0Ev
PUBLIC 6281a0 0 _ZN11QMessageBox9addButtonENS_14StandardButtonE
PUBLIC 6281c0 0 _ZNK11QMessageBox15standardButtonsEv
PUBLIC 6281f0 0 _ZNK11QMessageBox14standardButtonEP15QAbstractButton
PUBLIC 6281fc 0 _ZNK11QMessageBox6buttonENS_14StandardButtonE
PUBLIC 628208 0 _ZNK11QMessageBox12escapeButtonEv
PUBLIC 628214 0 _ZNK11QMessageBox13clickedButtonEv
PUBLIC 628220 0 _ZNK11QMessageBox13defaultButtonEv
PUBLIC 62822c 0 _ZNK11QMessageBox4textEv
PUBLIC 628248 0 _ZN11QMessageBox7setTextERK7QString
PUBLIC 6282b0 0 _ZNK11QMessageBox4iconEv
PUBLIC 6282bc 0 _ZNK11QMessageBox10iconPixmapEv
PUBLIC 62830c 0 _ZN11QMessageBox13setIconPixmapERK7QPixmap
PUBLIC 628330 0 _ZNK11QMessageBox10textFormatEv
PUBLIC 62833c 0 _ZN11QMessageBox13setTextFormatEN2Qt10TextFormatE
PUBLIC 628424 0 _ZN11QMessageBox4openEP7QObjectPKc
PUBLIC 6284d4 0 _ZNK11QMessageBox7buttonsEv
PUBLIC 6284f0 0 _ZNK11QMessageBox10buttonRoleEP15QAbstractButton
PUBLIC 6286d0 0 _ZN11QMessageBox5eventEP6QEvent
PUBLIC 628718 0 _ZNK11QMessageBox12detailedTextEv
PUBLIC 628790 0 _ZNK11QMessageBox15informativeTextEv
PUBLIC 6287f8 0 _ZN11QMessageBox18setInformativeTextERK7QString
PUBLIC 628a0c 0 _ZN11QMessageBox14setWindowTitleERK7QString
PUBLIC 628f64 0 _ZN11QMessageBox12standardIconENS_4IconE
PUBLIC 628f7c 0 _ZN11QMessageBox13buttonClickedEP15QAbstractButton
PUBLIC 629154 0 _ZN11QMessageBox18setStandardButtonsE6QFlagsINS_14StandardButtonEE
PUBLIC 629224 0 _ZN11QMessageBox15setEscapeButtonEP15QAbstractButton
PUBLIC 62929c 0 _ZN11QMessageBox15setEscapeButtonENS_14StandardButtonE
PUBLIC 629460 0 _ZN11QMessageBox16setDefaultButtonEP11QPushButton
PUBLIC 6294f0 0 _ZN11QMessageBox16setDefaultButtonENS_14StandardButtonE
PUBLIC 6296a0 0 _ZN11QMessageBox17setWindowModalityEN2Qt14WindowModalityE
PUBLIC 629710 0 _ZNK11QMessageBox10buttonTextEi
PUBLIC 629800 0 _ZN11QMessageBox13setButtonTextEiRK7QString
PUBLIC 62988c 0 _ZN11QMessageBoxC1EP7QWidget
PUBLIC 629b94 0 _ZN11QMessageBox12removeButtonEP15QAbstractButton
PUBLIC 629c70 0 _ZN11QMessageBox9addButtonEP15QAbstractButtonNS_10ButtonRoleE
PUBLIC 629ce8 0 _ZN11QMessageBox9addButtonERK7QStringNS_10ButtonRoleE
PUBLIC 629d40 0 _ZN11QMessageBox15setDetailedTextERK7QString
PUBLIC 62a0a8 0 _ZN11QMessageBox7setIconENS_4IconE
PUBLIC 62a0f8 0 _ZN11QMessageBoxC1ENS_4IconERK7QStringS3_6QFlagsINS_14StandardButtonEEP7QWidgetS4_IN2Qt10WindowTypeEE
PUBLIC 62a3f0 0 _ZN11QMessageBox11informationEP7QWidgetRK7QStringS4_iii
PUBLIC 62a424 0 _ZN11QMessageBox8questionEP7QWidgetRK7QStringS4_iii
PUBLIC 62a458 0 _ZN11QMessageBox7warningEP7QWidgetRK7QStringS4_iii
PUBLIC 62a48c 0 _ZN11QMessageBox8criticalEP7QWidgetRK7QStringS4_iii
PUBLIC 62a6c4 0 _ZN11QMessageBox11informationEP7QWidgetRK7QStringS4_6QFlagsINS_14StandardButtonEES6_
PUBLIC 62a6fc 0 _ZN11QMessageBox8questionEP7QWidgetRK7QStringS4_6QFlagsINS_14StandardButtonEES6_
PUBLIC 62a734 0 _ZN11QMessageBox7warningEP7QWidgetRK7QStringS4_6QFlagsINS_14StandardButtonEES6_
PUBLIC 62a76c 0 _ZN11QMessageBox8criticalEP7QWidgetRK7QStringS4_6QFlagsINS_14StandardButtonEES6_
PUBLIC 62a9f8 0 _ZN11QMessageBox11informationEP7QWidgetRK7QStringS4_S4_S4_S4_ii
PUBLIC 62aa3c 0 _ZN11QMessageBox8questionEP7QWidgetRK7QStringS4_S4_S4_S4_ii
PUBLIC 62aa80 0 _ZN11QMessageBox7warningEP7QWidgetRK7QStringS4_S4_S4_S4_ii
PUBLIC 62aac4 0 _ZN11QMessageBox8criticalEP7QWidgetRK7QStringS4_S4_S4_S4_ii
PUBLIC 62ab08 0 _ZN11QMessageBox11changeEventEP6QEvent
PUBLIC 62abe0 0 _ZN11QMessageBoxC1ERK7QStringS2_NS_4IconEiiiP7QWidget6QFlagsIN2Qt10WindowTypeEE
PUBLIC 62ae34 0 _ZN11QMessageBox5aboutEP7QWidgetRK7QStringS4_
PUBLIC 62af44 0 _ZN11QMessageBox7aboutQtEP7QWidgetRK7QString
PUBLIC 62b3c0 0 _ZN11QMessageBox11resizeEventEP12QResizeEvent
PUBLIC 62b3c4 0 _ZN11QMessageBox10closeEventEP11QCloseEvent
PUBLIC 62b410 0 _ZN11QMessageBox13keyPressEventEP9QKeyEvent
PUBLIC 62b534 0 _ZN11QMessageBox9showEventEP10QShowEvent
PUBLIC 62b594 0 _ZNK11QMessageBox8sizeHintEv
PUBLIC 62b5a8 0 _ZN11QMessageBox11qt_metacastEPKc
PUBLIC 62b5f4 0 _ZN11QMessageBox11qt_metacallEN11QMetaObject4CallEiPPv
PUBLIC 62bf90 0 _ZNK15QProgressDialog10metaObjectEv
PUBLIC 62bfbc 0 _ZNK15QProgressDialog8sizeHintEv
PUBLIC 62c0b4 0 _ZN15QProgressDialogD2Ev
PUBLIC 62c0f0 0 _ZThn8_N15QProgressDialogD1Ev
PUBLIC 62c0f8 0 _ZN15QProgressDialogD0Ev
PUBLIC 62c114 0 _ZThn8_N15QProgressDialogD0Ev
PUBLIC 62c3e4 0 _ZN15QProgressDialog11resizeEventEP12QResizeEvent
PUBLIC 62c440 0 _ZN15QProgressDialog8setLabelEP6QLabel
PUBLIC 62c56c 0 _ZNK15QProgressDialog9labelTextEv
PUBLIC 62c5d4 0 _ZN15QProgressDialog12setLabelTextERK7QString
PUBLIC 62c688 0 _ZN15QProgressDialog15setCancelButtonEP11QPushButton
PUBLIC 62c878 0 _ZN15QProgressDialog19setCancelButtonTextERK7QString
PUBLIC 62ca48 0 _ZN15QProgressDialog11changeEventEP6QEvent
PUBLIC 62cc24 0 _ZN15QProgressDialogC2EP7QWidget6QFlagsIN2Qt10WindowTypeEE
PUBLIC 62cef0 0 _ZN15QProgressDialogC1ERK7QStringS2_iiP7QWidget6QFlagsIN2Qt10WindowTypeEE
PUBLIC 62d0e0 0 _ZN15QProgressDialog6setBarEP12QProgressBar
PUBLIC 62d1bc 0 _ZNK15QProgressDialog11wasCanceledEv
PUBLIC 62d1c8 0 _ZNK15QProgressDialog7maximumEv
PUBLIC 62d1d4 0 _ZN15QProgressDialog10setMaximumEi
PUBLIC 62d1e0 0 _ZNK15QProgressDialog7minimumEv
PUBLIC 62d1ec 0 _ZN15QProgressDialog10setMinimumEi
PUBLIC 62d1f8 0 _ZN15QProgressDialog8setRangeEii
PUBLIC 62d204 0 _ZNK15QProgressDialog5valueEv
PUBLIC 62d210 0 _ZN15QProgressDialog5resetEv
PUBLIC 62d3b0 0 _ZN15QProgressDialog6cancelEv
PUBLIC 62d3d4 0 _ZN15QProgressDialog8setValueEi
PUBLIC 62d5ec 0 _ZN15QProgressDialog18setMinimumDurationEi
PUBLIC 62d624 0 _ZNK15QProgressDialog15minimumDurationEv
PUBLIC 62d630 0 _ZN15QProgressDialog12setAutoResetEb
PUBLIC 62d63c 0 _ZNK15QProgressDialog9autoResetEv
PUBLIC 62d648 0 _ZN15QProgressDialog12setAutoCloseEb
PUBLIC 62d654 0 _ZNK15QProgressDialog9autoCloseEv
PUBLIC 62d660 0 _ZN15QProgressDialog9forceShowEv
PUBLIC 62d6ac 0 _ZN15QProgressDialog4openEP7QObjectPKc
PUBLIC 62d718 0 _ZN15QProgressDialog8canceledEv
PUBLIC 62d73c 0 _ZN15QProgressDialog10closeEventEP11QCloseEvent
PUBLIC 62d75c 0 _ZN15QProgressDialog9showEventEP10QShowEvent
PUBLIC 62d80c 0 _ZN15QProgressDialog11qt_metacastEPKc
PUBLIC 62d850 0 _ZN15QProgressDialog11qt_metacallEN11QMetaObject4CallEiPPv
PUBLIC 631a78 0 _ZNK16QFileSystemModel12canFetchMoreERK11QModelIndex
PUBLIC 631ab8 0 _ZNK16QFileSystemModel8rowCountERK11QModelIndex
PUBLIC 631b1c 0 _ZNK16QFileSystemModel11columnCountERK11QModelIndex
PUBLIC 631b30 0 _ZNK16QFileSystemModel20supportedDropActionsEv
PUBLIC 631b3c 0 _ZNK16QFileSystemModel10metaObjectEv
PUBLIC 631b68 0 _ZN16QFileSystemModelD2Ev
PUBLIC 631b9c 0 _ZN16QFileSystemModelD0Ev
PUBLIC 631e00 0 _ZNK16QFileSystemModel11hasChildrenERK11QModelIndex
PUBLIC 632128 0 _ZNK16QFileSystemModel4sizeERK11QModelIndex
PUBLIC 632284 0 _ZNK16QFileSystemModel4typeERK11QModelIndex
PUBLIC 63234c 0 _ZNK16QFileSystemModel12lastModifiedERK11QModelIndex
PUBLIC 6323a8 0 _ZNK16QFileSystemModel10myComputerEi
PUBLIC 633034 0 _ZNK16QFileSystemModel11permissionsERK11QModelIndex
PUBLIC 6330ac 0 _ZNK16QFileSystemModel8rootPathEv
PUBLIC 6330c8 0 _ZN16QFileSystemModel15setIconProviderEP17QFileIconProvider
PUBLIC 633160 0 _ZNK16QFileSystemModel12iconProviderEv
PUBLIC 63316c 0 _ZNK16QFileSystemModel6filterEv
PUBLIC 63317c 0 _ZN16QFileSystemModel18setResolveSymlinksEb
PUBLIC 633188 0 _ZNK16QFileSystemModel15resolveSymlinksEv
PUBLIC 633194 0 _ZN16QFileSystemModel11setReadOnlyEb
PUBLIC 6331a0 0 _ZNK16QFileSystemModel10isReadOnlyEv
PUBLIC 6331ac 0 _ZN16QFileSystemModel21setNameFilterDisablesEb
PUBLIC 6331e0 0 _ZNK16QFileSystemModel18nameFilterDisablesEv
PUBLIC 633624 0 _ZN16QFileSystemModel15rootPathChangedERK7QString
PUBLIC 633660 0 _ZN16QFileSystemModel11fileRenamedERK7QStringS2_S2_
PUBLIC 6336a0 0 _ZN16QFileSystemModel15directoryLoadedERK7QString
PUBLIC 6337e8 0 _ZNK16QFileSystemModel11nameFiltersEv
PUBLIC 6338ec 0 _ZNK16QFileSystemModel13rootDirectoryEv
PUBLIC 633968 0 _ZNK16QFileSystemModel9mimeTypesEv
PUBLIC 633a08 0 _ZN16QFileSystemModel10timerEventEP11QTimerEvent
PUBLIC 633e90 0 _ZNK16QFileSystemModel6parentERK11QModelIndex
PUBLIC 634018 0 _ZNK16QFileSystemModel8filePathERK11QModelIndex
PUBLIC 634200 0 _ZNK16QFileSystemModel5isDirERK11QModelIndex
PUBLIC 6342f0 0 _ZN16QFileSystemModel9fetchMoreERK11QModelIndex
PUBLIC 6343bc 0 _ZN16QFileSystemModel12dropMimeDataEPK9QMimeDataN2Qt10DropActionEiiRK11QModelIndex
PUBLIC 634a90 0 _ZNK16QFileSystemModel4dataERK11QModelIndexi
PUBLIC 634e90 0 _ZNK16QFileSystemModel5indexEiiRK11QModelIndex
PUBLIC 6356e0 0 _ZN16QFileSystemModelC1ER23QFileSystemModelPrivateP7QObject
PUBLIC 635cf0 0 _ZN16QFileSystemModel7setDataERK11QModelIndexRK8QVarianti
PUBLIC 636aa8 0 _ZN16QFileSystemModel5mkdirERK11QModelIndexRK7QString
PUBLIC 636ffc 0 _ZNK16QFileSystemModel8mimeDataERK5QListI11QModelIndexE
PUBLIC 6377bc 0 _ZN16QFileSystemModelC2EP7QObject
PUBLIC 6382bc 0 _ZNK16QFileSystemModel5indexERK7QStringi
PUBLIC 63838c 0 _ZNK16QFileSystemModel6removeERK11QModelIndex
PUBLIC 6387a4 0 _ZN16QFileSystemModel4sortEiN2Qt9SortOrderE
PUBLIC 638b10 0 _ZN16QFileSystemModel14setNameFiltersERK11QStringList
PUBLIC 638ff0 0 _ZN16QFileSystemModel9setFilterE6QFlagsIN4QDir6FilterEE
PUBLIC 639f04 0 _ZN16QFileSystemModel11setRootPathERK7QString
PUBLIC 63a3dc 0 _ZNK16QFileSystemModel10headerDataEiN2Qt11OrientationEi
PUBLIC 63a6a8 0 _ZNK16QFileSystemModel5flagsERK11QModelIndex
PUBLIC 63a7e4 0 _ZN16QFileSystemModel5eventEP6QEvent
PUBLIC 63a888 0 _ZN16QFileSystemModel11qt_metacastEPKc
PUBLIC 63a8cc 0 _ZN16QFileSystemModel11qt_metacallEN11QMetaObject4CallEiPPv
PUBLIC 63ca44 0 _ZN25QAbstractItemModelPrivate10PersistentD2Ev
PUBLIC 63cbfc 0 _ZN25QAbstractItemModelPrivateD2Ev
PUBLIC 63cee0 0 _ZN25QAbstractItemModelPrivateD0Ev
PUBLIC 641380 0 _ZNK16QPageSetupDialog10testOptionENS_21PageSetupDialogOptionE
PUBLIC 641398 0 _ZN16QPageSetupDialog10setOptionsE6QFlagsINS_21PageSetupDialogOptionEE
PUBLIC 6413b0 0 _ZN16QPageSetupDialog9setOptionENS_21PageSetupDialogOptionEb
PUBLIC 6413f0 0 _ZNK16QPageSetupDialog7optionsEv
PUBLIC 641400 0 _ZN16QPageSetupDialog16addEnabledOptionENS_21PageSetupDialogOptionE
PUBLIC 641408 0 _ZN16QPageSetupDialog17setEnabledOptionsE6QFlagsINS_21PageSetupDialogOptionEE
PUBLIC 641428 0 _ZNK16QPageSetupDialog14enabledOptionsEv
PUBLIC 64143c 0 _ZNK16QPageSetupDialog15isOptionEnabledENS_21PageSetupDialogOptionE
PUBLIC 641440 0 _ZN16QPageSetupDialog4openEP7QObjectPKc
PUBLIC 6414ac 0 _ZN11QWizardPage14initializePageEv
PUBLIC 6414b0 0 _ZN11QWizardPage12validatePageEv
PUBLIC 6414b8 0 _ZNK11QWizardPage6nextIdEv
PUBLIC 641524 0 _ZNK7QWizard10metaObjectEv
PUBLIC 641550 0 _ZNK11QWizardPage10metaObjectEv
PUBLIC 64169c 0 _ZN7QWizardD1Ev
PUBLIC 641704 0 _ZThn8_N7QWizardD1Ev
PUBLIC 64170c 0 _ZN7QWizardD0Ev
PUBLIC 641728 0 _ZThn8_N7QWizardD0Ev
PUBLIC 641730 0 _ZN11QWizardPage11cleanupPageEv
PUBLIC 6417ac 0 _ZNK11QWizardPage10isCompleteEv
PUBLIC 6418d0 0 _ZN11QWizardPage11qt_metacastEPKc
PUBLIC 6428c0 0 _ZNK7QWizard4pageEi
PUBLIC 642958 0 _ZN7QWizard14initializePageEi
PUBLIC 642978 0 _ZN7QWizard11cleanupPageEi
PUBLIC 642998 0 _ZNK7QWizard14hasVisitedPageEi
PUBLIC 6429ec 0 _ZN7QWizard10setStartIdEi
PUBLIC 642ad0 0 _ZNK7QWizard7startIdEv
PUBLIC 642adc 0 _ZNK7QWizard11currentPageEv
PUBLIC 642ae8 0 _ZN7QWizard19validateCurrentPageEv
PUBLIC 642b10 0 _ZNK7QWizard6nextIdEv
PUBLIC 642ed4 0 _ZNK7QWizard9currentIdEv
PUBLIC 642ee0 0 _ZN7QWizard8setFieldERK7QStringRK8QVariant
PUBLIC 643058 0 _ZNK7QWizard5fieldERK7QString
PUBLIC 6431cc 0 _ZNK7QWizard11wizardStyleEv
PUBLIC 6431d8 0 _ZNK7QWizard10testOptionENS_12WizardOptionE
PUBLIC 6431f0 0 _ZNK7QWizard7optionsEv
PUBLIC 643200 0 _ZNK7QWizard10buttonTextENS_12WizardButtonE
PUBLIC 64343c 0 _ZNK7QWizard6buttonENS_12WizardButtonE
PUBLIC 643460 0 _ZNK7QWizard11titleFormatEv
PUBLIC 64346c 0 _ZNK7QWizard14subTitleFormatEv
PUBLIC 643478 0 _ZNK7QWizard6pixmapENS_12WizardPixmapE
PUBLIC 6434a0 0 _ZNK7QWizard10sideWidgetEv
PUBLIC 6434ac 0 _ZNK11QWizardPage5titleEv
PUBLIC 6434e8 0 _ZNK11QWizardPage8subTitleEv
PUBLIC 643524 0 _ZNK11QWizardPage12isCommitPageEv
PUBLIC 643b6c 0 _ZN11QWizardPage8setFieldERK7QStringRK8QVariant
PUBLIC 643b80 0 _ZNK11QWizardPage5fieldERK7QString
PUBLIC 643bc4 0 _ZNK11QWizardPage6wizardEv
PUBLIC 643bd0 0 _ZNK11QWizardPage6pixmapEN7QWizard12WizardPixmapE
PUBLIC 643c44 0 _ZNK11QWizardPage11isFinalPageEv
PUBLIC 643d10 0 _ZNK11QWizardPage10buttonTextEN7QWizard12WizardButtonE
PUBLIC 643ed4 0 _ZN11QWizardPage12setFinalPageEb
PUBLIC 643f08 0 _ZN11QWizardPage13setCommitPageEb
PUBLIC 643f3c 0 _ZN7QWizard16currentIdChangedEi
PUBLIC 643f7c 0 _ZN7QWizard13helpRequestedEv
PUBLIC 643fa0 0 _ZN7QWizard19customButtonClickedEi
PUBLIC 64403c 0 _ZN7QWizard9pageAddedEi
PUBLIC 644080 0 _ZN7QWizard11pageRemovedEi
PUBLIC 6440c4 0 _ZN11QWizardPage15completeChangedEv
PUBLIC 64411c 0 _ZN11QWizardPageC1EP7QWidget
PUBLIC 64469c 0 _ZN7QWizardC2EP7QWidget6QFlagsIN2Qt10WindowTypeEE
PUBLIC 644aac 0 _ZN7QWizard18setDefaultPropertyEPKcS1_S1_
PUBLIC 6453cc 0 _ZN11QWizardPage13registerFieldERK7QStringP7QWidgetPKcS6_
PUBLIC 6456d4 0 _ZN7QWizard7setPageEiP11QWizardPage
PUBLIC 645a90 0 _ZN7QWizard7addPageEP11QWizardPage
PUBLIC 645ac4 0 _ZNK7QWizard7pageIdsEv
PUBLIC 645ae0 0 _ZNK7QWizard12visitedPagesEv
PUBLIC 645b38 0 _ZN7QWizard13setButtonTextENS_12WizardButtonERK7QString
PUBLIC 645cec 0 _ZN11QWizardPage13setButtonTextEN7QWizard12WizardButtonERK7QString
PUBLIC 645e54 0 _ZN7QWizard9setButtonENS_12WizardButtonEP15QAbstractButton
PUBLIC 64603c 0 _ZN7QWizard15setButtonLayoutERK5QListINS_12WizardButtonEE
PUBLIC 647048 0 _ZNK7QWizard8sizeHintEv
PUBLIC 64711c 0 _ZN7QWizard10paintEventEP11QPaintEvent
PUBLIC 648b00 0 _ZN7QWizard4backEv
PUBLIC 648b30 0 _ZN7QWizard4nextEv
PUBLIC 648c48 0 _ZN7QWizard7restartEv
PUBLIC 648c88 0 _ZN7QWizard10removePageEi
PUBLIC 648f34 0 _ZN7QWizard9setPixmapENS_12WizardPixmapERK7QPixmap
PUBLIC 648f64 0 _ZN11QWizardPage9setPixmapEN7QWizard12WizardPixmapERK7QPixmap
PUBLIC 648fb4 0 _ZN7QWizard14setWizardStyleENS_11WizardStyleE
PUBLIC 649000 0 _ZN7QWizard10setOptionsE6QFlagsINS_12WizardOptionEE
PUBLIC 64908c 0 _ZN7QWizard9setOptionENS_12WizardOptionEb
PUBLIC 6490cc 0 _ZN7QWizard14setTitleFormatEN2Qt10TextFormatE
PUBLIC 6490d8 0 _ZN7QWizard17setSubTitleFormatEN2Qt10TextFormatE
PUBLIC 6490e4 0 _ZN7QWizard13setSideWidgetEP7QWidget
PUBLIC 649168 0 _ZN7QWizard5eventEP6QEvent
PUBLIC 6491bc 0 _ZN11QWizardPage8setTitleERK7QString
PUBLIC 6491f8 0 _ZN11QWizardPage11setSubTitleERK7QString
PUBLIC 649234 0 _ZN11QWizardPage11qt_metacallEN11QMetaObject4CallEiPPv
PUBLIC 649408 0 _ZN7QWizard10setVisibleEb
PUBLIC 649458 0 _ZN7QWizard11resizeEventEP12QResizeEvent
PUBLIC 64949c 0 _ZN7QWizard4doneEi
PUBLIC 6494ec 0 _ZN7QWizard11qt_metacastEPKc
PUBLIC 649538 0 _ZN7QWizard11qt_metacallEN11QMetaObject4CallEiPPv
PUBLIC 64982c 0 _ZN11QWizardPageD2Ev
PUBLIC 649868 0 _ZThn8_N11QWizardPageD1Ev
PUBLIC 649870 0 _ZN11QWizardPageD0Ev
PUBLIC 6498b4 0 _ZThn8_N11QWizardPageD0Ev
PUBLIC 64c2e4 0 _ZNK19QPrintPreviewDialog10metaObjectEv
PUBLIC 64c400 0 _ZN19QPrintPreviewDialogD1Ev
PUBLIC 64c48c 0 _ZThn8_N19QPrintPreviewDialogD1Ev
PUBLIC 64c494 0 _ZN19QPrintPreviewDialogD0Ev
PUBLIC 64c4b0 0 _ZThn8_N19QPrintPreviewDialogD0Ev
PUBLIC 64c4b8 0 _ZN19QPrintPreviewDialog10setVisibleEb
PUBLIC 64fda4 0 _ZN19QPrintPreviewDialogC2EP8QPrinterP7QWidget6QFlagsIN2Qt10WindowTypeEE
PUBLIC 64ff4c 0 _ZN19QPrintPreviewDialogC2EP7QWidget6QFlagsIN2Qt10WindowTypeEE
PUBLIC 6500f0 0 _ZN19QPrintPreviewDialog4openEP7QObjectPKc
PUBLIC 65015c 0 _ZN19QPrintPreviewDialog7printerEv
PUBLIC 650168 0 _ZN19QPrintPreviewDialog14paintRequestedEP8QPrinter
PUBLIC 6504fc 0 _ZN19QPrintPreviewDialog4doneEi
PUBLIC 650558 0 _ZN19QPrintPreviewDialog11qt_metacastEPKc
PUBLIC 6505a4 0 _ZN19QPrintPreviewDialog11qt_metacallEN11QMetaObject4CallEiPPv
PUBLIC 65083c 0 _ZN17QAbstractItemView23verticalScrollbarActionEi
PUBLIC 650840 0 _ZN17QAbstractItemView25horizontalScrollbarActionEi
PUBLIC 650844 0 _ZNK17QAbstractItemView10metaObjectEv
PUBLIC 650870 0 _ZN17QAbstractItemView13doItemsLayoutEv
PUBLIC 6508a8 0 _ZN17QAbstractItemView9selectAllEv
PUBLIC 650978 0 _ZN17QAbstractItemViewD2Ev
PUBLIC 650a00 0 _ZThn8_N17QAbstractItemViewD1Ev
PUBLIC 650a08 0 _ZN17QAbstractItemViewD0Ev
PUBLIC 650a24 0 _ZThn8_N17QAbstractItemViewD0Ev
PUBLIC 650a2c 0 _ZN17QAbstractItemView8setModelEP18QAbstractItemModel
PUBLIC 650e48 0 _ZN17QAbstractItemView17setSelectionModelEP19QItemSelectionModel
PUBLIC 650f58 0 _ZN17QAbstractItemView16updateGeometriesEv
PUBLIC 6510d4 0 _ZN17QAbstractItemView12setRootIndexERK11QModelIndex
PUBLIC 6513c4 0 _ZN17QAbstractItemView12rowsInsertedERK11QModelIndexii
PUBLIC 651484 0 _ZN17QAbstractItemView16selectionChangedERK14QItemSelectionS2_
PUBLIC 651554 0 _ZNK17QAbstractItemView11viewOptionsEv
PUBLIC 651680 0 _ZNK17QAbstractItemView5modelEv
PUBLIC 6516a0 0 _ZNK17QAbstractItemView14selectionModelEv
PUBLIC 6516ac 0 _ZN17QAbstractItemView15setItemDelegateEP21QAbstractItemDelegate
PUBLIC 651a34 0 _ZN17QAbstractItemViewC2ER24QAbstractItemViewPrivateP7QWidget
PUBLIC 651a88 0 _ZNK17QAbstractItemView12itemDelegateEv
PUBLIC 651a94 0 _ZNK17QAbstractItemView18itemDelegateForRowEi
PUBLIC 651b80 0 _ZNK17QAbstractItemView21itemDelegateForColumnEi
PUBLIC 651c6c 0 _ZNK17QAbstractItemView12itemDelegateERK11QModelIndex
PUBLIC 651e3c 0 _ZN17QAbstractItemView16setSelectionModeENS_13SelectionModeE
PUBLIC 651e48 0 _ZNK17QAbstractItemView13selectionModeEv
PUBLIC 651e54 0 _ZN17QAbstractItemView20setSelectionBehaviorENS_17SelectionBehaviorE
PUBLIC 651e60 0 _ZNK17QAbstractItemView17selectionBehaviorEv
PUBLIC 651e6c 0 _ZNK17QAbstractItemView12currentIndexEv
PUBLIC 651eac 0 _ZN17QAbstractItemView16inputMethodEventEP17QInputMethodEvent
PUBLIC 651f48 0 _ZN17QAbstractItemView15setCurrentIndexERK11QModelIndex
PUBLIC 6520b0 0 _ZNK17QAbstractItemView9rootIndexEv
PUBLIC 6520dc 0 _ZN17QAbstractItemView4editERK11QModelIndex
PUBLIC 65215c 0 _ZN17QAbstractItemView14clearSelectionEv
PUBLIC 652170 0 _ZN17QAbstractItemView15setEditTriggersE6QFlagsINS_11EditTriggerEE
PUBLIC 652180 0 _ZNK17QAbstractItemView12editTriggersEv
PUBLIC 652190 0 _ZN17QAbstractItemView21setVerticalScrollModeENS_10ScrollModeE
PUBLIC 65220c 0 _ZNK17QAbstractItemView18verticalScrollModeEv
PUBLIC 652218 0 _ZN17QAbstractItemView23setHorizontalScrollModeENS_10ScrollModeE
PUBLIC 652234 0 _ZNK17QAbstractItemView20horizontalScrollModeEv
PUBLIC 652240 0 _ZN17QAbstractItemView24setDragDropOverwriteModeEb
PUBLIC 65224c 0 _ZNK17QAbstractItemView21dragDropOverwriteModeEv
PUBLIC 652258 0 _ZN17QAbstractItemView13setAutoScrollEb
PUBLIC 652264 0 _ZNK17QAbstractItemView13hasAutoScrollEv
PUBLIC 652270 0 _ZN17QAbstractItemView19setAutoScrollMarginEi
PUBLIC 65227c 0 _ZNK17QAbstractItemView16autoScrollMarginEv
PUBLIC 652288 0 _ZN17QAbstractItemView19setTabKeyNavigationEb
PUBLIC 652294 0 _ZNK17QAbstractItemView16tabKeyNavigationEv
PUBLIC 6522a0 0 _ZN17QAbstractItemView21setDropIndicatorShownEb
PUBLIC 6522ac 0 _ZNK17QAbstractItemView17showDropIndicatorEv
PUBLIC 6522b8 0 _ZN17QAbstractItemView14setDragEnabledEb
PUBLIC 6522c4 0 _ZNK17QAbstractItemView11dragEnabledEv
PUBLIC 6522d0 0 _ZN17QAbstractItemView15setDragDropModeENS_12DragDropModeE
PUBLIC 652320 0 _ZNK17QAbstractItemView12dragDropModeEv
PUBLIC 6523d8 0 _ZN17QAbstractItemView20setDefaultDropActionEN2Qt10DropActionE
PUBLIC 6523e4 0 _ZNK17QAbstractItemView17defaultDropActionEv
PUBLIC 6523f0 0 _ZN17QAbstractItemView23setAlternatingRowColorsEb
PUBLIC 652410 0 _ZNK17QAbstractItemView20alternatingRowColorsEv
PUBLIC 65241c 0 _ZN17QAbstractItemView11setIconSizeERK5QSize
PUBLIC 652468 0 _ZNK17QAbstractItemView8iconSizeEv
PUBLIC 652484 0 _ZN17QAbstractItemView16setTextElideModeEN2Qt13TextElideModeE
PUBLIC 652490 0 _ZNK17QAbstractItemView13textElideModeEv
PUBLIC 65249c 0 _ZNK17QAbstractItemView21dropIndicatorPositionEv
PUBLIC 6524a8 0 _ZN17QAbstractItemView25setHorizontalStepsPerItemEi
PUBLIC 6524ac 0 _ZNK17QAbstractItemView22horizontalStepsPerItemEv
PUBLIC 6524b4 0 _ZN17QAbstractItemView23setVerticalStepsPerItemEi
PUBLIC 6524b8 0 _ZNK17QAbstractItemView20verticalStepsPerItemEv
PUBLIC 6524c0 0 _ZN17QAbstractItemView11scrollToTopEv
PUBLIC 6524ec 0 _ZN17QAbstractItemView14scrollToBottomEv
PUBLIC 652568 0 _ZN17QAbstractItemView6updateERK11QModelIndex
PUBLIC 6527f8 0 _ZNK17QAbstractItemView16sizeHintForIndexERK11QModelIndex
PUBLIC 652ae4 0 _ZNK17QAbstractItemView5stateEv
PUBLIC 652af0 0 _ZN17QAbstractItemView8setStateENS_5StateE
PUBLIC 652b6c 0 _ZN17QAbstractItemView26scheduleDelayedItemsLayoutEv
PUBLIC 652b80 0 _ZN17QAbstractItemView25executeDelayedItemsLayoutEv
PUBLIC 652bc4 0 _ZN17QAbstractItemView14setDirtyRegionERK7QRegion
PUBLIC 652bf0 0 _ZN17QAbstractItemView17scrollDirtyRegionEii
PUBLIC 652c64 0 _ZNK17QAbstractItemView17dirtyRegionOffsetEv
PUBLIC 652c80 0 _ZN17QAbstractItemView15startAutoScrollEv
PUBLIC 652cb0 0 _ZN17QAbstractItemView14stopAutoScrollEv
PUBLIC 652ccc 0 _ZN17QAbstractItemView14dragLeaveEventEP15QDragLeaveEvent
PUBLIC 652d1c 0 _ZN17QAbstractItemView12doAutoScrollEv
PUBLIC 653434 0 _ZNK17QAbstractItemView16selectionCommandERK11QModelIndexPK6QEvent
PUBLIC 653604 0 _ZN17QAbstractItemView10timerEventEP11QTimerEvent
PUBLIC 653cb4 0 _ZN17QAbstractItemView16updateEditorDataEv
PUBLIC 653dc0 0 _ZNK17QAbstractItemView14sizeHintForRowEi
PUBLIC 65420c 0 _ZNK17QAbstractItemView17sizeHintForColumnEi
PUBLIC 65465c 0 _ZNK17QAbstractItemView11indexWidgetERK11QModelIndex
PUBLIC 6546dc 0 _ZN17QAbstractItemView11dataChangedERK11QModelIndexS2_
PUBLIC 6549e4 0 _ZN17QAbstractItemView14currentChangedERK11QModelIndexS2_
PUBLIC 654d84 0 _ZN17QAbstractItemView10commitDataEP7QWidget
PUBLIC 65540c 0 _ZN17QAbstractItemView7pressedERK11QModelIndex
PUBLIC 655448 0 _ZN17QAbstractItemView15mousePressEventEP11QMouseEvent
PUBLIC 655888 0 _ZN17QAbstractItemView7clickedERK11QModelIndex
PUBLIC 6558c8 0 _ZN17QAbstractItemView13doubleClickedERK11QModelIndex
PUBLIC 655908 0 _ZN17QAbstractItemView9activatedERK11QModelIndex
PUBLIC 655948 0 _ZN17QAbstractItemView17mouseReleaseEventEP11QMouseEvent
PUBLIC 655ca0 0 _ZN17QAbstractItemView13keyPressEventEP9QKeyEvent
PUBLIC 656988 0 _ZN17QAbstractItemView7enteredERK11QModelIndex
PUBLIC 6569c8 0 _ZN17QAbstractItemView15viewportEnteredEv
PUBLIC 6569ec 0 _ZN17QAbstractItemView14dragEnterEventEP15QDragEnterEvent
PUBLIC 656ec8 0 _ZN17QAbstractItemViewC1EP7QWidget
PUBLIC 657548 0 _ZN17QAbstractItemView13dragMoveEventEP14QDragMoveEvent
PUBLIC 657be4 0 _ZN17QAbstractItemView9dropEventEP10QDropEvent
PUBLIC 658340 0 _ZN17QAbstractItemView4editERK11QModelIndexNS_11EditTriggerEP6QEvent
PUBLIC 658af0 0 _ZN17QAbstractItemView24setItemDelegateForColumnEiP21QAbstractItemDelegate
PUBLIC 658f04 0 _ZN17QAbstractItemView21setItemDelegateForRowEiP21QAbstractItemDelegate
PUBLIC 659318 0 _ZNK17QAbstractItemView15selectedIndexesEv
PUBLIC 6595ec 0 _ZN17QAbstractItemView14keyboardSearchERK7QString
PUBLIC 65a218 0 _ZN17QAbstractItemView22updateEditorGeometriesEv
PUBLIC 65a8cc 0 _ZN17QAbstractItemView11closeEditorEP7QWidgetN21QAbstractItemDelegate11EndEditHintE
PUBLIC 65ae2c 0 _ZN17QAbstractItemView20rowsAboutToBeRemovedERK11QModelIndexii
PUBLIC 65b904 0 _ZN17QAbstractItemView5resetEv
PUBLIC 65bb44 0 _ZN17QAbstractItemView15editorDestroyedEP7QObject
PUBLIC 65bbbc 0 _ZN17QAbstractItemView21closePersistentEditorERK11QModelIndex
PUBLIC 65bcfc 0 _ZN17QAbstractItemView14setIndexWidgetERK11QModelIndexP7QWidget
PUBLIC 65beb4 0 _ZN17QAbstractItemView20openPersistentEditorERK11QModelIndex
PUBLIC 65c390 0 _ZN17QAbstractItemView14mouseMoveEventEP11QMouseEvent
PUBLIC 65c830 0 _ZN17QAbstractItemView31horizontalScrollbarValueChangedEi
PUBLIC 65c978 0 _ZN17QAbstractItemView29verticalScrollbarValueChangedEi
PUBLIC 65cac0 0 _ZNK17QAbstractItemView16inputMethodQueryEN2Qt16InputMethodQueryE
PUBLIC 65cb58 0 _ZN17QAbstractItemView18focusNextPrevChildEb
PUBLIC 65ccd4 0 _ZN17QAbstractItemView5eventEP6QEvent
PUBLIC 65ce84 0 _ZN17QAbstractItemView13viewportEventEP6QEvent
PUBLIC 65d58c 0 _ZN17QAbstractItemView21mouseDoubleClickEventEP11QMouseEvent
PUBLIC 65d740 0 _ZN17QAbstractItemView12focusInEventEP11QFocusEvent
PUBLIC 65d8f4 0 _ZN17QAbstractItemView13focusOutEventEP11QFocusEvent
PUBLIC 65d90c 0 _ZN17QAbstractItemView11resizeEventEP12QResizeEvent
PUBLIC 65dd68 0 _ZN17QAbstractItemView9startDragE6QFlagsIN2Qt10DropActionEE
PUBLIC 65df2c 0 _ZN17QAbstractItemView11qt_metacastEPKc
PUBLIC 65df70 0 _ZN17QAbstractItemView11qt_metacallEN11QMetaObject4CallEiPPv
PUBLIC 65f11c 0 _ZNK11QHeaderView16horizontalOffsetEv
PUBLIC 65f134 0 _ZNK11QHeaderView14verticalOffsetEv
PUBLIC 65f14c 0 _ZN11QHeaderView12rowsInsertedERK11QModelIndexii
PUBLIC 65f150 0 _ZNK11QHeaderView10visualRectERK11QModelIndex
PUBLIC 65f16c 0 _ZN11QHeaderView8scrollToERK11QModelIndexN17QAbstractItemView10ScrollHintE
PUBLIC 65f170 0 _ZNK11QHeaderView7indexAtERK6QPoint
PUBLIC 65f188 0 _ZNK11QHeaderView13isIndexHiddenERK11QModelIndex
PUBLIC 65f190 0 _ZN11QHeaderView10moveCursorEN17QAbstractItemView12CursorActionE6QFlagsIN2Qt16KeyboardModifierEE
PUBLIC 65f1a8 0 _ZN11QHeaderView12setSelectionERK5QRect6QFlagsIN19QItemSelectionModel13SelectionFlagEE
PUBLIC 65f1ac 0 _ZNK11QHeaderView10metaObjectEv
PUBLIC 65f1d8 0 _ZN11QHeaderViewD1Ev
PUBLIC 65f214 0 _ZThn8_N11QHeaderViewD1Ev
PUBLIC 65f21c 0 _ZN11QHeaderViewD0Ev
PUBLIC 65f238 0 _ZThn8_N11QHeaderViewD0Ev
PUBLIC 65f240 0 _ZN11QHeaderView16scrollContentsByEii
PUBLIC 65f374 0 _ZN11QHeaderView16updateGeometriesEv
PUBLIC 65f438 0 _ZN11QHeaderView10initializeEv
PUBLIC 65f4b0 0 _ZNK11QHeaderView11orientationEv
PUBLIC 65f4bc 0 _ZNK11QHeaderView6offsetEv
PUBLIC 65f4c8 0 _ZN11QHeaderView9setOffsetEi
PUBLIC 65f588 0 _ZNK11QHeaderView6lengthEv
PUBLIC 65f594 0 _ZN11QHeaderView22setOffsetToLastSectionEv
PUBLIC 65f5f8 0 _ZNK11QHeaderView18hiddenSectionCountEv
PUBLIC 65f608 0 _ZNK11QHeaderView5countEv
PUBLIC 65f648 0 _ZNK11QHeaderView11visualIndexEi
PUBLIC 65f6c8 0 _ZNK11QHeaderView15isSectionHiddenEi
PUBLIC 65f76c 0 _ZNK11QHeaderView8sizeHintEv
PUBLIC 65f8e8 0 _ZNK11QHeaderView12logicalIndexEi
PUBLIC 65f92c 0 _ZN11QHeaderView10setMovableEb
PUBLIC 65f938 0 _ZNK11QHeaderView9isMovableEv
PUBLIC 65f944 0 _ZN11QHeaderView12setClickableEb
PUBLIC 65f950 0 _ZNK11QHeaderView11isClickableEv
PUBLIC 65f95c 0 _ZN11QHeaderView20setHighlightSectionsEb
PUBLIC 65f968 0 _ZNK11QHeaderView17highlightSectionsEv
PUBLIC 65f974 0 _ZNK11QHeaderView10resizeModeEi
PUBLIC 65fa24 0 _ZN11QHeaderView11dataChangedERK11QModelIndexS2_
PUBLIC 65fb14 0 _ZNK11QHeaderView19stretchSectionCountEv
PUBLIC 65fb20 0 _ZNK11QHeaderView20isSortIndicatorShownEv
PUBLIC 65fb2c 0 _ZNK11QHeaderView20sortIndicatorSectionEv
PUBLIC 65fb38 0 _ZNK11QHeaderView18sortIndicatorOrderEv
PUBLIC 65fb44 0 _ZNK11QHeaderView18stretchLastSectionEv
PUBLIC 65fb50 0 _ZNK11QHeaderView23cascadingSectionResizesEv
PUBLIC 65fb5c 0 _ZN11QHeaderView26setCascadingSectionResizesEb
PUBLIC 65fb68 0 _ZNK11QHeaderView18defaultSectionSizeEv
PUBLIC 65fb74 0 _ZNK11QHeaderView18minimumSectionSizeEv
PUBLIC 65fc54 0 _ZNK11QHeaderView15sectionSizeHintEi
PUBLIC 65fdcc 0 _ZN11QHeaderViewC2ER18QHeaderViewPrivateN2Qt11OrientationEP7QWidget
PUBLIC 65fe64 0 _ZN11QHeaderView21setMinimumSectionSizeEi
PUBLIC 65fe70 0 _ZNK11QHeaderView16defaultAlignmentEv
PUBLIC 65fe80 0 _ZN11QHeaderView19setDefaultAlignmentE6QFlagsIN2Qt13AlignmentFlagEE
PUBLIC 65fea0 0 _ZNK11QHeaderView13sectionsMovedEv
PUBLIC 65feb8 0 _ZNK11QHeaderView14sectionsHiddenEv
PUBLIC 65fed0 0 _ZN11QHeaderView24sectionsAboutToBeRemovedERK11QModelIndexii
PUBLIC 65ff5c 0 _ZNK11QHeaderView15initStyleOptionEP18QStyleOptionHeader
PUBLIC 6605a0 0 _ZN11QHeaderView26setOffsetToSectionPositionEi
PUBLIC 6605e4 0 _ZN11QHeaderView12sectionMovedEiii
PUBLIC 660644 0 _ZN11QHeaderView14sectionResizedEiii
PUBLIC 6606a4 0 _ZN11QHeaderView14sectionPressedEi
PUBLIC 6606e8 0 _ZN11QHeaderView14sectionClickedEi
PUBLIC 66072c 0 _ZN11QHeaderView14sectionEnteredEi
PUBLIC 660770 0 _ZN11QHeaderView20sectionDoubleClickedEi
PUBLIC 6607b4 0 _ZN11QHeaderView19sectionCountChangedEii
PUBLIC 660804 0 _ZN11QHeaderView26sectionHandleDoubleClickedEi
PUBLIC 660848 0 _ZN11QHeaderView17sectionAutoResizeEiNS_10ResizeModeE
PUBLIC 660898 0 _ZN11QHeaderView17geometriesChangedEv
PUBLIC 6608bc 0 _ZN11QHeaderView20sortIndicatorChangedEiN2Qt9SortOrderE
PUBLIC 66090c 0 _ZN11QHeaderViewC2EN2Qt11OrientationEP7QWidget
PUBLIC 660fc8 0 _ZN11QHeaderView21setDefaultSectionSizeEi
PUBLIC 660fd0 0 _ZN11QHeaderView16sectionsInsertedERK11QModelIndexii
PUBLIC 663e30 0 _ZN11QHeaderView12swapSectionsEii
PUBLIC 664254 0 _ZN11QHeaderView18initializeSectionsEii
PUBLIC 664da8 0 _ZN11QHeaderView13setResizeModeEiNS_10ResizeModeE
PUBLIC 665550 0 _ZN11QHeaderView14resizeSectionsENS_10ResizeModeE
PUBLIC 66555c 0 _ZN11QHeaderView14resizeSectionsEv
PUBLIC 665594 0 _ZN11QHeaderView17headerDataChangedEN2Qt11OrientationEii
PUBLIC 6656e0 0 _ZN11QHeaderView21setSortIndicatorShownEb
PUBLIC 6657d8 0 _ZNK11QHeaderView15sectionPositionEi
PUBLIC 665820 0 _ZNK11QHeaderView13visualIndexAtEi
PUBLIC 665934 0 _ZNK11QHeaderView14logicalIndexAtEi
PUBLIC 66595c 0 _ZNK11QHeaderView11sectionSizeEi
PUBLIC 6659e0 0 _ZN11QHeaderView18initializeSectionsEv
PUBLIC 665ad0 0 _ZN11QHeaderView13setResizeModeENS_10ResizeModeE
PUBLIC 665b70 0 _ZNK11QHeaderView23sectionViewportPositionEi
PUBLIC 665c04 0 _ZN11QHeaderView13resizeSectionEii
PUBLIC 665f88 0 _ZN11QHeaderView16setSectionHiddenEib
PUBLIC 666640 0 _ZN11QHeaderView21setStretchLastSectionEb
PUBLIC 666694 0 _ZN11QHeaderView13updateSectionEi
PUBLIC 666760 0 _ZN11QHeaderView16setSortIndicatorEiN2Qt9SortOrderE
PUBLIC 666844 0 _ZN11QHeaderView11moveSectionEii
PUBLIC 667290 0 _ZN11QHeaderView17mouseReleaseEventEP11QMouseEvent
PUBLIC 66750c 0 _ZN11QHeaderView14currentChangedERK11QModelIndexS2_
PUBLIC 6678cc 0 _ZN11QHeaderView10paintEventEP11QPaintEvent
PUBLIC 667f38 0 _ZNK11QHeaderView24visualRegionForSelectionERK14QItemSelection
PUBLIC 66867c 0 _ZN11QHeaderView14mouseMoveEventEP11QMouseEvent
PUBLIC 6689bc 0 _ZN11QHeaderView21mouseDoubleClickEventEP11QMouseEvent
PUBLIC 668afc 0 _ZN11QHeaderView8setModelEP18QAbstractItemModel
PUBLIC 668e08 0 _ZN11QHeaderView13doItemsLayoutEv
PUBLIC 668e20 0 _ZNK11QHeaderView9saveStateEv
PUBLIC 668ed8 0 _ZN11QHeaderView12restoreStateERK10QByteArray
PUBLIC 66901c 0 _ZN11QHeaderView5resetEv
PUBLIC 669034 0 _ZN11QHeaderView5eventEP6QEvent
PUBLIC 669178 0 _ZN11QHeaderView13viewportEventEP6QEvent
PUBLIC 669564 0 _ZNK11QHeaderView23sectionSizeFromContentsEi
PUBLIC 669da4 0 _ZN11QHeaderView15mousePressEventEP11QMouseEvent
PUBLIC 66a008 0 _ZNK11QHeaderView12paintSectionEP8QPainterRK5QRecti
PUBLIC 66aa04 0 _ZN11QHeaderView11qt_metacastEPKc
PUBLIC 66aa48 0 _ZN11QHeaderView11qt_metacallEN11QMetaObject4CallEiPPv
PUBLIC 66ae48 0 _ZN19QItemSelectionRangeD1Ev
PUBLIC 66ae74 0 _ZN9QBitArray6setBitEi
PUBLIC 66aed8 0 _ZN9QBitArray8clearBitEi
PUBLIC 66af3c 0 _ZN9QBitArray6setBitEib
PUBLIC 66c534 0 _ZNK9QListView16horizontalOffsetEv
PUBLIC 66c550 0 _ZNK9QListView14verticalOffsetEv
PUBLIC 66c95c 0 _ZN9QListViewD2Ev
PUBLIC 66c998 0 _ZThn8_N9QListViewD1Ev
PUBLIC 66c9a0 0 _ZN9QListViewD0Ev
PUBLIC 66c9bc 0 _ZThn8_N9QListViewD0Ev
PUBLIC 66cb1c 0 _ZN9QListView16scrollContentsByEii
PUBLIC 66d508 0 _ZNK9QListView13isIndexHiddenERK11QModelIndex
PUBLIC 66d660 0 _ZNK9QListView24visualRegionForSelectionERK14QItemSelection
PUBLIC 66dc10 0 _ZN9QListView11setMovementENS_8MovementE
PUBLIC 66dc54 0 _ZNK9QListView8movementEv
PUBLIC 66dc60 0 _ZN9QListView7setFlowENS_4FlowE
PUBLIC 66dc7c 0 _ZNK9QListView4flowEv
PUBLIC 66dc88 0 _ZN9QListView11setWrappingEb
PUBLIC 66dca4 0 _ZNK9QListView10isWrappingEv
PUBLIC 66dcb0 0 _ZN9QListView13setResizeModeENS_10ResizeModeE
PUBLIC 66dcc8 0 _ZNK9QListView10resizeModeEv
PUBLIC 66dcd4 0 _ZN9QListView13setLayoutModeENS_10LayoutModeE
PUBLIC 66dce0 0 _ZNK9QListView10layoutModeEv
PUBLIC 66dcec 0 _ZN9QListView10setSpacingEi
PUBLIC 66dd08 0 _ZNK9QListView7spacingEv
PUBLIC 66dd14 0 _ZN9QListView12setBatchSizeEi
PUBLIC 66dd34 0 _ZNK9QListView9batchSizeEv
PUBLIC 66dd40 0 _ZN9QListView11setGridSizeERK5QSize
PUBLIC 66dd68 0 _ZNK9QListView8gridSizeEv
PUBLIC 66dd84 0 _ZNK9QListView8viewModeEv
PUBLIC 66dd90 0 _ZN9QListView18clearPropertyFlagsEv
PUBLIC 66dda0 0 _ZNK9QListView11isRowHiddenEi
PUBLIC 66de4c 0 _ZN9QListView12setRowHiddenEib
PUBLIC 66df50 0 _ZN9QListView14resizeContentsEii
PUBLIC 66df64 0 _ZNK9QListView12contentsSizeEv
PUBLIC 66df84 0 _ZN9QListView12internalDropEP10QDropEvent
PUBLIC 66df88 0 _ZN9QListView12internalDragE6QFlagsIN2Qt10DropActionEE
PUBLIC 66df8c 0 _ZN9QListView19setPositionForIndexERK6QPointRK11QModelIndex
PUBLIC 66e0b8 0 _ZN9QListView14setModelColumnEi
PUBLIC 66e104 0 _ZNK9QListView11modelColumnEv
PUBLIC 66e110 0 _ZN9QListView19setUniformItemSizesEb
PUBLIC 66e11c 0 _ZNK9QListView16uniformItemSizesEv
PUBLIC 66e128 0 _ZN9QListView11setWordWrapEb
PUBLIC 66e144 0 _ZNK9QListView8wordWrapEv
PUBLIC 66e150 0 _ZN9QListView23setSelectionRectVisibleEb
PUBLIC 66e168 0 _ZNK9QListView22isSelectionRectVisibleEv
PUBLIC 66e680 0 _ZNK9QListView12rectForIndexERK11QModelIndex
PUBLIC 66e9c4 0 _ZNK9QListView10visualRectERK11QModelIndex
PUBLIC 66fed0 0 _ZNK9QListView11visualIndexERK11QModelIndex
PUBLIC 67012c 0 _ZN9QListView8scrollToERK11QModelIndexN17QAbstractItemView10ScrollHintE
PUBLIC 670ba8 0 _ZN9QListView11setViewModeENS_8ViewModeE
PUBLIC 670f28 0 _ZN9QListViewC1ER16QListViewPrivateP7QWidget
PUBLIC 670fa4 0 _ZN9QListViewC2EP7QWidget
PUBLIC 671048 0 _ZN9QListView10paintEventEP11QPaintEvent
PUBLIC 671c34 0 _ZNK9QListView7indexAtERK6QPoint
PUBLIC 675648 0 _ZN9QListView12setSelectionERK5QRect6QFlagsIN19QItemSelectionModel13SelectionFlagEE
PUBLIC 676520 0 _ZN9QListView10moveCursorEN17QAbstractItemView12CursorActionE6QFlagsIN2Qt16KeyboardModifierEE
PUBLIC 677788 0 _ZNK9QListView15selectedIndexesEv
PUBLIC 678ac4 0 _ZN9QListView5resetEv
PUBLIC 678c00 0 _ZN9QListView12setRootIndexERK11QModelIndex
PUBLIC 678d6c 0 _ZN9QListView11dataChangedERK11QModelIndexS2_
PUBLIC 678da4 0 _ZN9QListView12rowsInsertedERK11QModelIndexii
PUBLIC 678dfc 0 _ZN9QListView20rowsAboutToBeRemovedERK11QModelIndexii
PUBLIC 679010 0 _ZN9QListView14mouseMoveEventEP11QMouseEvent
PUBLIC 679118 0 _ZN9QListView17mouseReleaseEventEP11QMouseEvent
PUBLIC 679198 0 _ZN9QListView10timerEventEP11QTimerEvent
PUBLIC 679200 0 _ZN9QListView11resizeEventEP12QResizeEvent
PUBLIC 6792ec 0 _ZN9QListView13dragMoveEventEP14QDragMoveEvent
PUBLIC 679354 0 _ZN9QListView14dragLeaveEventEP15QDragLeaveEvent
PUBLIC 67938c 0 _ZN9QListView9dropEventEP10QDropEvent
PUBLIC 6793c4 0 _ZN9QListView9startDragE6QFlagsIN2Qt10DropActionEE
PUBLIC 67941c 0 _ZNK9QListView11viewOptionsEv
PUBLIC 6794e0 0 _ZN9QListView13doItemsLayoutEv
PUBLIC 6795c0 0 _ZN9QListView16updateGeometriesEv
PUBLIC 679880 0 _ZN9QListView5eventEP6QEvent
PUBLIC 6798cc 0 _ZN9QListView14currentChangedERK11QModelIndexS2_
PUBLIC 6798d0 0 _ZN9QListView16selectionChangedERK14QItemSelectionS2_
PUBLIC 67b9d4 0 _ZNK10QTableView10metaObjectEv
PUBLIC 67ba00 0 _ZN10QTableViewD2Ev
PUBLIC 67ba3c 0 _ZThn8_N10QTableViewD1Ev
PUBLIC 67ba44 0 _ZN10QTableViewD0Ev
PUBLIC 67ba60 0 _ZThn8_N10QTableViewD0Ev
PUBLIC 67ba68 0 _ZNK10QTableView16horizontalOffsetEv
PUBLIC 67ba74 0 _ZNK10QTableView14verticalOffsetEv
PUBLIC 67bca8 0 _ZN10QTableView16scrollContentsByEii
PUBLIC 67c4bc 0 _ZNK10QTableView17sizeHintForColumnEi
PUBLIC 67cc9c 0 _ZNK10QTableView16horizontalHeaderEv
PUBLIC 67cca8 0 _ZNK10QTableView14verticalHeaderEv
PUBLIC 67ccb4 0 _ZN10QTableView17setVerticalHeaderEP11QHeaderView
PUBLIC 67ce78 0 _ZN10QTableView15rowCountChangedEii
PUBLIC 67ce84 0 _ZN10QTableView18columnCountChangedEii
PUBLIC 67cef0 0 _ZNK10QTableView19rowViewportPositionEi
PUBLIC 67cefc 0 _ZNK10QTableView5rowAtEi
PUBLIC 67cf08 0 _ZN10QTableView12setRowHeightEii
PUBLIC 67cf14 0 _ZNK10QTableView9rowHeightEi
PUBLIC 67cf20 0 _ZNK10QTableView22columnViewportPositionEi
PUBLIC 67cf2c 0 _ZNK10QTableView8columnAtEi
PUBLIC 67cf38 0 _ZN10QTableView14setColumnWidthEii
PUBLIC 67cf44 0 _ZNK10QTableView11columnWidthEi
PUBLIC 67cf50 0 _ZNK10QTableView14sizeHintForRowEi
PUBLIC 67d2e0 0 _ZNK10QTableView11isRowHiddenEi
PUBLIC 67d2ec 0 _ZN10QTableView12setRowHiddenEib
PUBLIC 67d324 0 _ZNK10QTableView14isColumnHiddenEi
PUBLIC 67d330 0 _ZN10QTableView15setColumnHiddenEib
PUBLIC 67d368 0 _ZNK10QTableView16isSortingEnabledEv
PUBLIC 67d374 0 _ZNK10QTableView8showGridEv
PUBLIC 67d380 0 _ZN10QTableView11setShowGridEb
PUBLIC 67d39c 0 _ZNK10QTableView9gridStyleEv
PUBLIC 67d3a8 0 _ZN10QTableView12setGridStyleEN2Qt8PenStyleE
PUBLIC 67d3c4 0 _ZN10QTableView11setWordWrapEb
PUBLIC 67d61c 0 _ZNK10QTableView8wordWrapEv
PUBLIC 67d628 0 _ZN10QTableView22setCornerButtonEnabledEb
PUBLIC 67d634 0 _ZNK10QTableView21isCornerButtonEnabledEv
PUBLIC 67d650 0 _ZN10QTableView8rowMovedEiii
PUBLIC 67d73c 0 _ZN10QTableView11columnMovedEiii
PUBLIC 67d828 0 _ZN10QTableView7hideRowEi
PUBLIC 67d838 0 _ZN10QTableView10hideColumnEi
PUBLIC 67d848 0 _ZN10QTableView7showRowEi
PUBLIC 67d858 0 _ZN10QTableView10showColumnEi
PUBLIC 67d868 0 _ZN10QTableView19resizeRowToContentsEi
PUBLIC 67d8a8 0 _ZN10QTableView20resizeRowsToContentsEv
PUBLIC 67d8b8 0 _ZN10QTableView22resizeColumnToContentsEi
PUBLIC 67d8f8 0 _ZN10QTableView23resizeColumnsToContentsEv
PUBLIC 67d908 0 _ZN10QTableView12sortByColumnEi
PUBLIC 67d944 0 _ZN10QTableView12sortByColumnEiN2Qt9SortOrderE
PUBLIC 67d96c 0 _ZN10QTableView17setSortingEnabledEb
PUBLIC 67dacc 0 _ZN10QTableView19setHorizontalHeaderEP11QHeaderView
PUBLIC 67ddd4 0 _ZN10QTableViewC1ER17QTableViewPrivateP7QWidget
PUBLIC 67de28 0 _ZNK10QTableView11visualIndexERK11QModelIndex
PUBLIC 67de30 0 _ZN10QTableViewC2EP7QWidget
PUBLIC 67dfe8 0 _ZNK10QTableView15selectedIndexesEv
PUBLIC 67e68c 0 _ZN10QTableView9selectRowEi
PUBLIC 67e9ec 0 _ZN10QTableView12selectColumnEi
PUBLIC 67eaf8 0 _ZNK10QTableView7indexAtERK6QPoint
PUBLIC 67ebfc 0 _ZN10QTableView10moveCursorEN17QAbstractItemView12CursorActionE6QFlagsIN2Qt16KeyboardModifierEE
PUBLIC 67fa9c 0 _ZNK10QTableView10visualRectERK11QModelIndex
PUBLIC 67fc98 0 _ZN10QTableView8scrollToERK11QModelIndexN17QAbstractItemView10ScrollHintE
PUBLIC 6801e0 0 _ZNK10QTableView13isIndexHiddenERK11QModelIndex
PUBLIC 680268 0 _ZNK10QTableView7rowSpanEii
PUBLIC 6802a4 0 _ZNK10QTableView10columnSpanEii
PUBLIC 6802e0 0 _ZN10QTableView10rowResizedEiii
PUBLIC 680324 0 _ZN10QTableView13columnResizedEiii
PUBLIC 680368 0 _ZN10QTableView12setSelectionERK5QRect6QFlagsIN19QItemSelectionModel13SelectionFlagEE
PUBLIC 681100 0 _ZN10QTableView10clearSpansEv
PUBLIC 683654 0 _ZNK10QTableView24visualRegionForSelectionERK14QItemSelection
PUBLIC 68512c 0 _ZN10QTableView10paintEventEP11QPaintEvent
PUBLIC 6867c4 0 _ZN10QTableView7setSpanEiiii
PUBLIC 68680c 0 _ZN10QTableView8setModelEP18QAbstractItemModel
PUBLIC 6869c0 0 _ZN10QTableView12setRootIndexERK11QModelIndex
PUBLIC 686a60 0 _ZN10QTableView17setSelectionModelEP19QItemSelectionModel
PUBLIC 686aa4 0 _ZNK10QTableView11viewOptionsEv
PUBLIC 686ac0 0 _ZN10QTableView16updateGeometriesEv
PUBLIC 687260 0 _ZN10QTableView10timerEventEP11QTimerEvent
PUBLIC 687520 0 _ZN10QTableView23verticalScrollbarActionEi
PUBLIC 687524 0 _ZN10QTableView25horizontalScrollbarActionEi
PUBLIC 687528 0 _ZN10QTableView14currentChangedERK11QModelIndexS2_
PUBLIC 68752c 0 _ZN10QTableView16selectionChangedERK14QItemSelectionS2_
PUBLIC 687578 0 _ZN10QTableView11qt_metacastEPKc
PUBLIC 6875c4 0 _ZN10QTableView11qt_metacallEN11QMetaObject4CallEiPPv
PUBLIC 688da8 0 _ZNK9QTreeView10metaObjectEv
PUBLIC 688dd4 0 _ZN9QTreeViewD1Ev
PUBLIC 688e10 0 _ZThn8_N9QTreeViewD1Ev
PUBLIC 688e18 0 _ZN9QTreeViewD0Ev
PUBLIC 688e34 0 _ZThn8_N9QTreeViewD0Ev
PUBLIC 688e3c 0 _ZNK9QTreeView16horizontalOffsetEv
PUBLIC 68916c 0 _ZNK9QTreeView12drawBranchesEP8QPainterRK5QRectRK11QModelIndex
PUBLIC 6897a8 0 _ZNK9QTreeView6headerEv
PUBLIC 6897b4 0 _ZNK9QTreeView15autoExpandDelayEv
PUBLIC 6897c0 0 _ZN9QTreeView18setAutoExpandDelayEi
PUBLIC 6897cc 0 _ZNK9QTreeView11indentationEv
PUBLIC 6897d8 0 _ZN9QTreeView14setIndentationEi
PUBLIC 6897f4 0 _ZNK9QTreeView15rootIsDecoratedEv
PUBLIC 689800 0 _ZN9QTreeView18setRootIsDecoratedEb
PUBLIC 68981c 0 _ZNK9QTreeView17uniformRowHeightsEv
PUBLIC 689828 0 _ZN9QTreeView20setUniformRowHeightsEb
PUBLIC 689834 0 _ZNK9QTreeView15itemsExpandableEv
PUBLIC 689840 0 _ZN9QTreeView18setItemsExpandableEb
PUBLIC 68984c 0 _ZNK9QTreeView20expandsOnDoubleClickEv
PUBLIC 689858 0 _ZN9QTreeView23setExpandsOnDoubleClickEb
PUBLIC 689864 0 _ZNK9QTreeView22columnViewportPositionEi
PUBLIC 689870 0 _ZNK9QTreeView11columnWidthEi
PUBLIC 68987c 0 _ZNK9QTreeView24visualRegionForSelectionERK14QItemSelection
PUBLIC 689e84 0 _ZN9QTreeView14setColumnWidthEii
PUBLIC 689e90 0 _ZNK9QTreeView8columnAtEi
PUBLIC 689e9c 0 _ZNK9QTreeView14isColumnHiddenEi
PUBLIC 689ea8 0 _ZN9QTreeView15setColumnHiddenEib
PUBLIC 689ee0 0 _ZNK9QTreeView14isHeaderHiddenEv
PUBLIC 689ef8 0 _ZN9QTreeView15setHeaderHiddenEb
PUBLIC 689f18 0 _ZNK9QTreeView20isFirstColumnSpannedEiRK11QModelIndex
PUBLIC 689fb4 0 _ZN9QTreeView10hideColumnEi
PUBLIC 689fc4 0 _ZN9QTreeView10showColumnEi
PUBLIC 689fd4 0 _ZNK9QTreeView16isSortingEnabledEv
PUBLIC 689fe0 0 _ZN9QTreeView11setAnimatedEb
PUBLIC 689fec 0 _ZNK9QTreeView10isAnimatedEv
PUBLIC 689ff8 0 _ZN9QTreeView22setAllColumnsShowFocusEb
PUBLIC 68a014 0 _ZNK9QTreeView19allColumnsShowFocusEv
PUBLIC 68a020 0 _ZN9QTreeView11setWordWrapEb
PUBLIC 68a03c 0 _ZNK9QTreeView8wordWrapEv
PUBLIC 68a198 0 _ZN9QTreeView11columnMovedEv
PUBLIC 68a1b4 0 _ZN9QTreeView8reexpandEv
PUBLIC 68a1b8 0 _ZN9QTreeView18columnCountChangedEii
PUBLIC 68a218 0 _ZN9QTreeView22resizeColumnToContentsEi
PUBLIC 68a2c8 0 _ZN9QTreeView12sortByColumnEiN2Qt9SortOrderE
PUBLIC 68a308 0 _ZN9QTreeView12sortByColumnEi
PUBLIC 68a334 0 _ZN9QTreeView17setSortingEnabledEb
PUBLIC 68a404 0 _ZN9QTreeView9setHeaderEP11QHeaderView
PUBLIC 68a590 0 _ZNK9QTreeView16indexRowSizeHintERK11QModelIndex
PUBLIC 68abc0 0 _ZN9QTreeViewC1ER16QTreeViewPrivateP7QWidget
PUBLIC 68aed0 0 _ZNK9QTreeView10indexAboveERK11QModelIndex
PUBLIC 68afa0 0 _ZNK9QTreeView10indexBelowERK11QModelIndex
PUBLIC 68b278 0 _ZNK9QTreeView11visualIndexERK11QModelIndex
PUBLIC 68b2cc 0 _ZN9QTreeView8expandedERK11QModelIndex
PUBLIC 68b308 0 _ZN9QTreeView9collapsedERK11QModelIndex
PUBLIC 68b348 0 _ZN9QTreeView14keyboardSearchERK7QString
PUBLIC 68ba3c 0 _ZNK9QTreeView15selectedIndexesEv
PUBLIC 68bd94 0 _ZNK9QTreeView7drawRowEP8QPainterRK20QStyleOptionViewItemRK11QModelIndex
PUBLIC 68cefc 0 _ZN9QTreeView13columnResizedEiii
PUBLIC 68d00c 0 _ZNK9QTreeView14verticalOffsetEv
PUBLIC 68d0fc 0 _ZNK9QTreeView9rowHeightERK11QModelIndex
PUBLIC 68d324 0 _ZNK9QTreeView10visualRectERK11QModelIndex
PUBLIC 68d69c 0 _ZNK9QTreeView7indexAtERK6QPoint
PUBLIC 68e120 0 _ZN9QTreeView16scrollContentsByEii
PUBLIC 68e4ac 0 _ZN9QTreeView21setFirstColumnSpannedEiRK11QModelIndexb
PUBLIC 68e798 0 _ZNK9QTreeView17sizeHintForColumnEi
PUBLIC 68ecdc 0 _ZNK9QTreeView8drawTreeEP8QPainterRK7QRegion
PUBLIC 68f350 0 _ZN9QTreeView11rowsRemovedERK11QModelIndexii
PUBLIC 68f4a4 0 _ZNK9QTreeView10isExpandedERK11QModelIndex
PUBLIC 68f5c0 0 _ZNK9QTreeView11isRowHiddenEiRK11QModelIndex
PUBLIC 68f718 0 _ZNK9QTreeView13isIndexHiddenERK11QModelIndex
PUBLIC 68fed4 0 _ZN9QTreeView12setRowHiddenEiRK11QModelIndexb
PUBLIC 6909f0 0 _ZN9QTreeView9expandAllEv
PUBLIC 690b3c 0 _ZN9QTreeView11collapseAllEv
PUBLIC 690c88 0 _ZN9QTreeView13expandToDepthEi
PUBLIC 6921a4 0 _ZN9QTreeView12setSelectionERK5QRect6QFlagsIN19QItemSelectionModel13SelectionFlagEE
PUBLIC 6925b8 0 _ZN9QTreeView9selectAllEv
PUBLIC 692970 0 _ZN9QTreeView10paintEventEP11QPaintEvent
PUBLIC 6936d0 0 _ZN9QTreeView6expandERK11QModelIndex
PUBLIC 693834 0 _ZN9QTreeView8scrollToERK11QModelIndexN17QAbstractItemView10ScrollHintE
PUBLIC 694060 0 _ZN9QTreeView8collapseERK11QModelIndex
PUBLIC 6942d8 0 _ZN9QTreeView11setExpandedERK11QModelIndexb
PUBLIC 694418 0 _ZN9QTreeView21mouseDoubleClickEventEP11QMouseEvent
PUBLIC 6947c8 0 _ZN9QTreeView10moveCursorEN17QAbstractItemView12CursorActionE6QFlagsIN2Qt16KeyboardModifierEE
PUBLIC 6953c4 0 _ZN9QTreeViewC2EP7QWidget
PUBLIC 695674 0 _ZN9QTreeView8setModelEP18QAbstractItemModel
PUBLIC 695b84 0 _ZN9QTreeView12setRootIndexERK11QModelIndex
PUBLIC 695bb4 0 _ZN9QTreeView17setSelectionModelEP19QItemSelectionModel
PUBLIC 695c50 0 _ZN9QTreeView11dataChangedERK11QModelIndexS2_
PUBLIC 695f14 0 _ZN9QTreeView10timerEventEP11QTimerEvent
PUBLIC 6961a0 0 _ZN9QTreeView13dragMoveEventEP14QDragMoveEvent
PUBLIC 6961d8 0 _ZN9QTreeView13viewportEventEP6QEvent
PUBLIC 69646c 0 _ZN9QTreeView15mousePressEventEP11QMouseEvent
PUBLIC 6964fc 0 _ZN9QTreeView17mouseReleaseEventEP11QMouseEvent
PUBLIC 6965a4 0 _ZN9QTreeView14mouseMoveEventEP11QMouseEvent
PUBLIC 6965d4 0 _ZN9QTreeView13keyPressEventEP9QKeyEvent
PUBLIC 6968a4 0 _ZN9QTreeView13doItemsLayoutEv
PUBLIC 696bb0 0 _ZN9QTreeView5resetEv
PUBLIC 696ef4 0 _ZN9QTreeView12rowsInsertedERK11QModelIndexii
PUBLIC 69722c 0 _ZN9QTreeView20rowsAboutToBeRemovedERK11QModelIndexii
PUBLIC 697348 0 _ZN9QTreeView16updateGeometriesEv
PUBLIC 69752c 0 _ZN9QTreeView25horizontalScrollbarActionEi
PUBLIC 6976dc 0 _ZN9QTreeView14currentChangedERK11QModelIndexS2_
PUBLIC 6977fc 0 _ZN9QTreeView16selectionChangedERK14QItemSelectionS2_
PUBLIC 697800 0 _ZN9QTreeView11qt_metacastEPKc
PUBLIC 697844 0 _ZN9QTreeView11qt_metacallEN11QMetaObject4CallEiPPv
PUBLIC 69949c 0 _ZNK21QAbstractItemDelegate12createEditorEP7QWidgetRK20QStyleOptionViewItemRK11QModelIndex
PUBLIC 6994a4 0 _ZNK21QAbstractItemDelegate13setEditorDataEP7QWidgetRK11QModelIndex
PUBLIC 6994a8 0 _ZNK21QAbstractItemDelegate12setModelDataEP7QWidgetP18QAbstractItemModelRK11QModelIndex
PUBLIC 6994ac 0 _ZNK21QAbstractItemDelegate20updateEditorGeometryEP7QWidgetRK20QStyleOptionViewItemRK11QModelIndex
PUBLIC 6994b0 0 _ZN21QAbstractItemDelegate11editorEventEP6QEventP18QAbstractItemModelRK20QStyleOptionViewItemRK11QModelIndex
PUBLIC 6994b8 0 _ZN21QAbstractItemDelegateD2Ev
PUBLIC 6994ec 0 _ZN21QAbstractItemDelegateD0Ev
PUBLIC 699508 0 _ZN21QAbstractItemDelegateC2EP7QObject
PUBLIC 699540 0 _ZN21QAbstractItemDelegateC1ER14QObjectPrivateP7QObject
PUBLIC 699578 0 _ZN21QAbstractItemDelegate10elidedTextERK12QFontMetricsiN2Qt13TextElideModeERK7QString
PUBLIC 6995a0 0 _ZN21QAbstractItemDelegate9helpEventEP10QHelpEventP17QAbstractItemViewRK20QStyleOptionViewItemRK11QModelIndex
PUBLIC 699818 0 _ZNK13QItemDelegate10metaObjectEv
PUBLIC 699844 0 _ZN13QItemDelegateD1Ev
PUBLIC 699878 0 _ZN13QItemDelegateD0Ev
PUBLIC 699894 0 _ZNK13QItemDelegate12createEditorEP7QWidgetRK20QStyleOptionViewItemRK11QModelIndex
PUBLIC 699940 0 _ZNK13QItemDelegate9drawFocusEP8QPainterRK20QStyleOptionViewItemRK5QRect
PUBLIC 699a50 0 _ZN13QItemDelegate11eventFilterEP7QObjectP6QEvent
PUBLIC 699d8c 0 _ZNK13QItemDelegate13setEditorDataEP7QWidgetRK11QModelIndex
PUBLIC 69a074 0 _ZNK13QItemDelegate12setModelDataEP7QWidgetP18QAbstractItemModelRK11QModelIndex
PUBLIC 69a238 0 _ZNK13QItemDelegate9drawCheckEP8QPainterRK20QStyleOptionViewItemRK5QRectN2Qt10CheckStateE
PUBLIC 69a584 0 _ZN13QItemDelegateC2EP7QObject
PUBLIC 69a654 0 _ZNK13QItemDelegate11hasClippingEv
PUBLIC 69a660 0 _ZN13QItemDelegate11setClippingEb
PUBLIC 69ad14 0 _ZNK13QItemDelegate17itemEditorFactoryEv
PUBLIC 69ad20 0 _ZN13QItemDelegate20setItemEditorFactoryEP18QItemEditorFactory
PUBLIC 69ad2c 0 _ZNK13QItemDelegate14drawBackgroundEP8QPainterRK20QStyleOptionViewItemRK11QModelIndex
PUBLIC 69af30 0 _ZNK13QItemDelegate8doLayoutERK20QStyleOptionViewItemP5QRectS4_S4_b
PUBLIC 69b7ac 0 _ZNK13QItemDelegate10decorationERK20QStyleOptionViewItemRK8QVariant
PUBLIC 69bae4 0 _ZNK13QItemDelegate5checkERK20QStyleOptionViewItemRK5QRectRK8QVariant
PUBLIC 69bc2c 0 _ZN13QItemDelegate11editorEventEP6QEventP18QAbstractItemModelRK20QStyleOptionViewItemRK11QModelIndex
PUBLIC 69be44 0 _ZNK13QItemDelegate13textRectangleEP8QPainterRK5QRectRK5QFontRK7QString
PUBLIC 69c08c 0 _ZNK13QItemDelegate20updateEditorGeometryEP7QWidgetRK20QStyleOptionViewItemRK11QModelIndex
PUBLIC 69c4e4 0 _ZNK13QItemDelegate10setOptionsERK11QModelIndexRK20QStyleOptionViewItem
PUBLIC 69c918 0 _ZNK13QItemDelegate5paintEP8QPainterRK20QStyleOptionViewItemRK11QModelIndex
PUBLIC 69d194 0 _ZNK13QItemDelegate11drawDisplayEP8QPainterRK20QStyleOptionViewItemRK5QRectRK7QString
PUBLIC 69dd28 0 _ZNK13QItemDelegate8selectedERK7QPixmapRK8QPaletteb
PUBLIC 69dfc8 0 _ZNK13QItemDelegate14drawDecorationEP8QPainterRK20QStyleOptionViewItemRK5QRectRK7QPixmap
PUBLIC 69e118 0 _ZNK13QItemDelegate4rectERK20QStyleOptionViewItemRK11QModelIndexi
PUBLIC 69e848 0 _ZNK13QItemDelegate8sizeHintERK20QStyleOptionViewItemRK11QModelIndex
PUBLIC 69ea28 0 _ZN13QItemDelegate11qt_metacastEPKc
PUBLIC 69ea6c 0 _ZN13QItemDelegate11qt_metacallEN11QMetaObject4CallEiPPv
PUBLIC 69ec08 0 _ZNK19QItemSelectionModel10metaObjectEv
PUBLIC 69ec34 0 _ZN19QItemSelectionModelD2Ev
PUBLIC 69ec68 0 _ZN19QItemSelectionModelD0Ev
PUBLIC 69ec84 0 _ZN19QItemSelectionModel5resetEv
PUBLIC 69ee08 0 _ZNK19QItemSelectionRange10intersectsERKS_
PUBLIC 69f108 0 _ZNK19QItemSelectionRange9intersectERKS_
PUBLIC 69f344 0 _ZNK19QItemSelectionRange7isEmptyEv
PUBLIC 69f508 0 _ZNK14QItemSelection8containsERK11QModelIndex
PUBLIC 69f7c0 0 _ZN19QItemSelectionModelC2ER26QItemSelectionModelPrivateP18QAbstractItemModel
PUBLIC 69f818 0 _ZNK19QItemSelectionModel12currentIndexEv
PUBLIC 69f844 0 _ZNK19QItemSelectionModel10isSelectedERK11QModelIndex
PUBLIC 69fb50 0 _ZNK19QItemSelectionModel5modelEv
PUBLIC 69fb5c 0 _ZN19QItemSelectionModel16selectionChangedERK14QItemSelectionS2_
PUBLIC 69fba0 0 _ZN19QItemSelectionModel14currentChangedERK11QModelIndexS2_
PUBLIC 69fbe4 0 _ZN19QItemSelectionModel17currentRowChangedERK11QModelIndexS2_
PUBLIC 69fc28 0 _ZN19QItemSelectionModel20currentColumnChangedERK11QModelIndexS2_
PUBLIC 69fc6c 0 _ZN19QItemSelectionModel15setCurrentIndexERK11QModelIndex6QFlagsINS_13SelectionFlagEE
PUBLIC 69fed4 0 _ZN19QItemSelectionModelC2EP18QAbstractItemModel
PUBLIC 6a008c 0 _ZN19QItemSelectionModelC2EP18QAbstractItemModelP7QObject
PUBLIC 6a0400 0 _ZNK19QItemSelectionRange7indexesEv
PUBLIC 6a0468 0 _ZNK14QItemSelection7indexesEv
PUBLIC 6a050c 0 _ZN14QItemSelection6selectERK11QModelIndexS2_
PUBLIC 6a0890 0 _ZN14QItemSelectionC1ERK11QModelIndexS2_
PUBLIC 6a0900 0 _ZN19QItemSelectionModel6selectERK11QModelIndex6QFlagsINS_13SelectionFlagEE
PUBLIC 6a0958 0 _ZN14QItemSelection5splitERK19QItemSelectionRangeS2_PS_
PUBLIC 6a13b0 0 _ZNK19QItemSelectionModel16isColumnSelectedEiRK11QModelIndex
PUBLIC 6a19ac 0 _ZNK19QItemSelectionModel13isRowSelectedEiRK11QModelIndex
PUBLIC 6a1fd0 0 _ZN14QItemSelection5mergeERKS_6QFlagsIN19QItemSelectionModel13SelectionFlagEE
PUBLIC 6a2978 0 _ZNK19QItemSelectionModel22rowIntersectsSelectionEiRK11QModelIndex
PUBLIC 6a2ba8 0 _ZNK19QItemSelectionModel25columnIntersectsSelectionEiRK11QModelIndex
PUBLIC 6a2dd8 0 _ZNK19QItemSelectionModel12hasSelectionEv
PUBLIC 6a2ec8 0 _ZNK19QItemSelectionModel15selectedIndexesEv
PUBLIC 6a2f60 0 _ZNK19QItemSelectionModel9selectionEv
PUBLIC 6a3db4 0 _ZN19QItemSelectionModel14clearSelectionEv
PUBLIC 6a3edc 0 _ZN19QItemSelectionModel5clearEv
PUBLIC 6a4c30 0 _ZN19QItemSelectionModel20emitSelectionChangedERK14QItemSelectionS2_
PUBLIC 6a53f4 0 _ZN19QItemSelectionModel6selectERK14QItemSelection6QFlagsINS_13SelectionFlagEE
PUBLIC 6a58e0 0 _ZNK19QItemSelectionModel15selectedColumnsEi
PUBLIC 6a5c94 0 _ZNK19QItemSelectionModel12selectedRowsEi
PUBLIC 6a68cc 0 _Zls6QDebugRK19QItemSelectionRange
PUBLIC 6a6fb0 0 _ZN19QItemSelectionModel11qt_metacastEPKc
PUBLIC 6a6ff4 0 _ZN19QItemSelectionModel11qt_metacallEN11QMetaObject4CallEiPPv
PUBLIC 6a7da8 0 _ZNK9QDirModel11columnCountERK11QModelIndex
PUBLIC 6a7dbc 0 _ZNK9QDirModel20supportedDropActionsEv
PUBLIC 6a7dc8 0 _ZNK9QDirModel10metaObjectEv
PUBLIC 6a7df4 0 _ZN9QDirModelD1Ev
PUBLIC 6a7e28 0 _ZN9QDirModelD0Ev
PUBLIC 6a7e44 0 _ZNK9QDirModel11hasChildrenERK11QModelIndex
PUBLIC 6a8084 0 _ZN9QDirModel7setDataERK11QModelIndexRK8QVarianti
PUBLIC 6a8530 0 _ZN9QDirModel15setIconProviderEP17QFileIconProvider
PUBLIC 6a853c 0 _ZNK9QDirModel12iconProviderEv
PUBLIC 6a8548 0 _ZNK9QDirModel6filterEv
PUBLIC 6a8558 0 _ZNK9QDirModel7sortingEv
PUBLIC 6a8568 0 _ZN9QDirModel18setResolveSymlinksEb
PUBLIC 6a8574 0 _ZNK9QDirModel15resolveSymlinksEv
PUBLIC 6a8580 0 _ZN9QDirModel11setReadOnlyEb
PUBLIC 6a858c 0 _ZNK9QDirModel10isReadOnlyEv
PUBLIC 6a8598 0 _ZN9QDirModel17setLazyChildCountEb
PUBLIC 6a85a4 0 _ZNK9QDirModel14lazyChildCountEv
PUBLIC 6a85b0 0 _ZNK9QDirModel5isDirERK11QModelIndex
PUBLIC 6a85bc 0 _ZNK9QDirModel8fileIconERK11QModelIndex
PUBLIC 6a8684 0 _ZNK9QDirModel8fileInfoERK11QModelIndex
PUBLIC 6a9180 0 _ZNK9QDirModel8filePathERK11QModelIndex
PUBLIC 6a92fc 0 _ZNK9QDirModel8fileNameERK11QModelIndex
PUBLIC 6a9448 0 _ZNK9QDirModel4dataERK11QModelIndexi
PUBLIC 6a9764 0 _ZNK9QDirModel9mimeTypesEv
PUBLIC 6aa634 0 _ZNK9QDirModel5indexEiiRK11QModelIndex
PUBLIC 6aa7d8 0 _ZNK9QDirModel8rowCountERK11QModelIndex
PUBLIC 6aa968 0 _ZNK9QDirModel6parentERK11QModelIndex
PUBLIC 6aaadc 0 _ZNK9QDirModel11nameFiltersEv
PUBLIC 6ab110 0 _ZN9QDirModelC1ER16QDirModelPrivateP7QObject
PUBLIC 6ab750 0 _ZNK9QDirModel5indexERK7QStringi
PUBLIC 6ac48c 0 _ZN9QDirModel7refreshERK11QModelIndex
PUBLIC 6ac600 0 _ZN9QDirModel5mkdirERK11QModelIndexRK7QString
PUBLIC 6acab0 0 _ZN9QDirModel5rmdirERK11QModelIndex
PUBLIC 6acc00 0 _ZN9QDirModel6removeERK11QModelIndex
PUBLIC 6acd80 0 _ZN9QDirModel12dropMimeDataEPK9QMimeDataN2Qt10DropActionEiiRK11QModelIndex
PUBLIC 6ad818 0 _ZN9QDirModel14setNameFiltersERK11QStringList
PUBLIC 6ad908 0 _ZN9QDirModel9setFilterE6QFlagsIN4QDir6FilterEE
PUBLIC 6ad978 0 _ZN9QDirModel10setSortingE6QFlagsIN4QDir8SortFlagEE
PUBLIC 6ad9e8 0 _ZN9QDirModel4sortEiN2Qt9SortOrderE
PUBLIC 6ada30 0 _ZNK9QDirModel8mimeDataERK5QListI11QModelIndexE
PUBLIC 6adbf0 0 _ZN9QDirModelC2EP7QObject
PUBLIC 6adefc 0 _ZN9QDirModelC2ERK11QStringList6QFlagsIN4QDir6FilterEES3_INS4_8SortFlagEEP7QObject
PUBLIC 6ae4ac 0 _ZNK9QDirModel10headerDataEiN2Qt11OrientationEi
PUBLIC 6ae6e4 0 _ZNK9QDirModel5flagsERK11QModelIndex
PUBLIC 6ae7bc 0 _ZN9QDirModel11qt_metacastEPKc
PUBLIC 6ae800 0 _ZN9QDirModel11qt_metacallEN11QMetaObject4CallEiPPv
PUBLIC 6b07bc 0 _ZN11QListWidget8setModelEP18QAbstractItemModel
PUBLIC 6b07c0 0 _ZNK11QListWidget10metaObjectEv
PUBLIC 6b098c 0 _ZNK15QListWidgetItem4dataEi
PUBLIC 6b0a20 0 _ZNK11QListWidget8mimeDataE5QListIP15QListWidgetItemE
PUBLIC 6b0a54 0 _ZNK15QListWidgetItemltERKS_
PUBLIC 6b0ad8 0 _ZNK15QListWidgetItem5writeER11QDataStream
PUBLIC 6b0b54 0 _ZN11QListWidgetD1Ev
PUBLIC 6b0b90 0 _ZThn8_N11QListWidgetD1Ev
PUBLIC 6b0b98 0 _ZN11QListWidgetD0Ev
PUBLIC 6b0bb4 0 _ZThn8_N11QListWidgetD0Ev
PUBLIC 6b0bbc 0 _ZNK11QListWidget9mimeTypesEv
PUBLIC 6b0c00 0 _ZNK11QListWidget20supportedDropActionsEv
PUBLIC 6b101c 0 _ZlsR11QDataStreamRK15QListWidgetItem
PUBLIC 6b1040 0 _ZrsR11QDataStreamR15QListWidgetItem
PUBLIC 6b1064 0 _ZN15QListWidgetItem8setFlagsE6QFlagsIN2Qt8ItemFlagEE
PUBLIC 6b10e8 0 _ZNK11QListWidget4itemEi
PUBLIC 6b1184 0 _ZNK11QListWidget3rowEPK15QListWidgetItem
PUBLIC 6b11d0 0 _ZNK11QListWidget5countEv
PUBLIC 6b120c 0 _ZNK11QListWidget11currentItemEv
PUBLIC 6b1290 0 _ZNK11QListWidget10currentRowEv
PUBLIC 6b12b0 0 _ZN11QListWidget13setCurrentRowEi
PUBLIC 6b1390 0 _ZN11QListWidget14setCurrentItemEP15QListWidgetItem
PUBLIC 6b13ac 0 _ZN11QListWidget13setCurrentRowEi6QFlagsIN19QItemSelectionModel13SelectionFlagEE
PUBLIC 6b1440 0 _ZN11QListWidget14setCurrentItemEP15QListWidgetItem6QFlagsIN19QItemSelectionModel13SelectionFlagEE
PUBLIC 6b1474 0 _ZNK11QListWidget6itemAtERK6QPoint
PUBLIC 6b1508 0 _ZNK11QListWidget14visualItemRectEPK15QListWidgetItem
PUBLIC 6b1578 0 _ZN11QListWidget9sortItemsEN2Qt9SortOrderE
PUBLIC 6b15c0 0 _ZN11QListWidget17setSortingEnabledEb
PUBLIC 6b15cc 0 _ZNK11QListWidget16isSortingEnabledEv
PUBLIC 6b15d8 0 _ZNK11QListWidget9sortOrderEv
PUBLIC 6b15e4 0 _ZN11QListWidget8editItemEP15QListWidgetItem
PUBLIC 6b163c 0 _ZN11QListWidget20openPersistentEditorEP15QListWidgetItem
PUBLIC 6b1694 0 _ZN11QListWidget21closePersistentEditorEP15QListWidgetItem
PUBLIC 6b16ec 0 _ZNK11QListWidget10itemWidgetEP15QListWidgetItem
PUBLIC 6b1744 0 _ZN11QListWidget13setItemWidgetEP15QListWidgetItemP7QWidget
PUBLIC 6b17a4 0 _ZNK11QListWidget14isItemSelectedEPK15QListWidgetItem
PUBLIC 6b1800 0 _ZN11QListWidget15setItemSelectedEPK15QListWidgetItemb
PUBLIC 6b18b4 0 _ZNK11QListWidget12isItemHiddenEPK15QListWidgetItem
PUBLIC 6b18d0 0 _ZN11QListWidget13setItemHiddenEPK15QListWidgetItemb
PUBLIC 6b18f4 0 _ZN11QListWidget12scrollToItemEPK15QListWidgetItemN17QAbstractItemView10ScrollHintE
PUBLIC 6b1954 0 _ZNK11QListWidget13indexFromItemEP15QListWidgetItem
PUBLIC 6b19a0 0 _ZNK11QListWidget13itemFromIndexERK11QModelIndex
PUBLIC 6b1a2c 0 _ZN11QListWidget11itemPressedEP15QListWidgetItem
PUBLIC 6b1ae8 0 _ZN11QListWidget11itemClickedEP15QListWidgetItem
PUBLIC 6b1ba8 0 _ZN11QListWidget17itemDoubleClickedEP15QListWidgetItem
PUBLIC 6b1c68 0 _ZN11QListWidget13itemActivatedEP15QListWidgetItem
PUBLIC 6b1d28 0 _ZN11QListWidget11itemEnteredEP15QListWidgetItem
PUBLIC 6b1de8 0 _ZN11QListWidget11itemChangedEP15QListWidgetItem
PUBLIC 6b1ea8 0 _ZN11QListWidget18currentItemChangedEP15QListWidgetItemS1_
PUBLIC 6b1ef8 0 _ZN11QListWidget18currentTextChangedERK7QString
PUBLIC 6b1f38 0 _ZN11QListWidget17currentRowChangedEi
PUBLIC 6b2188 0 _ZN11QListWidget20itemSelectionChangedEv
PUBLIC 6b224c 0 _ZNK11QListWidget13selectedItemsEv
PUBLIC 6b238c 0 _ZNK11QListWidget9findItemsERK7QString6QFlagsIN2Qt9MatchFlagEE
PUBLIC 6b25a0 0 _ZN15QListWidgetItemC2ERKS_
PUBLIC 6b267c 0 _ZNK15QListWidgetItem5cloneEv
PUBLIC 6b26ac 0 _ZN15QListWidgetItemaSERKS_
PUBLIC 6b26dc 0 _ZN15QListWidgetItem7setDataEiRK8QVariant
PUBLIC 6b2838 0 _ZN15QListWidgetItem4readER11QDataStream
PUBLIC 6b2c58 0 _ZN11QListWidget8takeItemEi
PUBLIC 6b2ed8 0 _ZN15QListWidgetItemD2Ev
PUBLIC 6b2fe0 0 _ZN15QListWidgetItemD0Ev
PUBLIC 6b31e0 0 _ZN11QListWidget10insertItemEiP15QListWidgetItem
PUBLIC 6b3230 0 _ZN15QListWidgetItemC2EP11QListWidgeti
PUBLIC 6b34e8 0 _ZN15QListWidgetItemC1ERK7QStringP11QListWidgeti
PUBLIC 6b3840 0 _ZN11QListWidget11insertItemsEiRK11QStringList
PUBLIC 6b3880 0 _ZN11QListWidget10insertItemEiRK7QString
PUBLIC 6b38f0 0 _ZN15QListWidgetItemC2ERK5QIconRK7QStringP11QListWidgeti
PUBLIC 6b3a98 0 _ZNK11QListWidget5itemsEPK9QMimeData
PUBLIC 6b4038 0 _ZN11QListWidget5clearEv
PUBLIC 6b4cfc 0 _ZN11QListWidgetC1EP7QWidget
PUBLIC 6b4d98 0 _ZN11QListWidget12dropMimeDataEiPK9QMimeDataN2Qt10DropActionE
PUBLIC 6b4e70 0 _ZN11QListWidget9dropEventEP10QDropEvent
PUBLIC 6b52ec 0 _ZN11QListWidget5eventEP6QEvent
PUBLIC 6b52f0 0 _ZN11QListWidget11qt_metacastEPKc
PUBLIC 6b533c 0 _ZN11QListWidget11qt_metacallEN11QMetaObject4CallEiPPv
PUBLIC 6b67bc 0 _ZN12QTableWidget8setModelEP18QAbstractItemModel
PUBLIC 6b67c0 0 _ZNK12QTableWidget10metaObjectEv
PUBLIC 6b691c 0 _ZNK16QTableWidgetItem4dataEi
PUBLIC 6b6a5c 0 _ZNK12QTableWidget8mimeDataE5QListIP16QTableWidgetItemE
PUBLIC 6b6a90 0 _ZNK16QTableWidgetItemltERKS_
PUBLIC 6b6b14 0 _ZNK16QTableWidgetItem5writeER11QDataStream
PUBLIC 6b6b90 0 _ZN12QTableWidgetD1Ev
PUBLIC 6b6bcc 0 _ZThn8_N12QTableWidgetD1Ev
PUBLIC 6b6bd4 0 _ZN12QTableWidgetD0Ev
PUBLIC 6b6bf0 0 _ZThn8_N12QTableWidgetD0Ev
PUBLIC 6b6bf8 0 _ZNK12QTableWidget9mimeTypesEv
PUBLIC 6b6c3c 0 _ZNK12QTableWidget20supportedDropActionsEv
PUBLIC 6b73a4 0 _ZN26QTableWidgetSelectionRangeC1Ev
PUBLIC 6b73bc 0 _ZN26QTableWidgetSelectionRangeC2Eiiii
PUBLIC 6b73d0 0 _ZN26QTableWidgetSelectionRangeC1ERKS_
PUBLIC 6b73f4 0 _ZN26QTableWidgetSelectionRangeD2Ev
PUBLIC 6b7468 0 _ZrsR11QDataStreamR16QTableWidgetItem
PUBLIC 6b748c 0 _ZlsR11QDataStreamRK16QTableWidgetItem
PUBLIC 6b76a4 0 _ZN12QTableWidget11setRowCountEi
PUBLIC 6b76dc 0 _ZNK12QTableWidget8rowCountEv
PUBLIC 6b7718 0 _ZN12QTableWidget14setColumnCountEi
PUBLIC 6b7750 0 _ZNK12QTableWidget11columnCountEv
PUBLIC 6b778c 0 _ZNK12QTableWidget4itemEii
PUBLIC 6b77f4 0 _ZNK12QTableWidget18verticalHeaderItemEi
PUBLIC 6b784c 0 _ZNK12QTableWidget20horizontalHeaderItemEi
PUBLIC 6b78a4 0 _ZNK12QTableWidget10currentRowEv
PUBLIC 6b78c4 0 _ZNK12QTableWidget13currentColumnEv
PUBLIC 6b78e4 0 _ZNK12QTableWidget11currentItemEv
PUBLIC 6b7938 0 _ZN12QTableWidget14setCurrentCellEii
PUBLIC 6b79a4 0 _ZN12QTableWidget14setCurrentCellEii6QFlagsIN19QItemSelectionModel13SelectionFlagEE
PUBLIC 6b7a24 0 _ZN12QTableWidget9sortItemsEiN2Qt9SortOrderE
PUBLIC 6b7a60 0 _ZN12QTableWidget17setSortingEnabledEb
PUBLIC 6b7a64 0 _ZNK12QTableWidget16isSortingEnabledEv
PUBLIC 6b7a68 0 _ZNK12QTableWidget10cellWidgetEii
PUBLIC 6b7ad4 0 _ZN12QTableWidget13setCellWidgetEiiP7QWidget
PUBLIC 6b7b48 0 _ZNK12QTableWidget9visualRowEi
PUBLIC 6b7b60 0 _ZNK12QTableWidget12visualColumnEi
PUBLIC 6b7b78 0 _ZNK12QTableWidget6itemAtERK6QPoint
PUBLIC 6b7bdc 0 _ZNK12QTableWidget13itemPrototypeEv
PUBLIC 6b7c0c 0 _ZN12QTableWidget16setItemPrototypeEPK16QTableWidgetItem
PUBLIC 6b7c64 0 _ZN12QTableWidget9insertRowEi
PUBLIC 6b7ccc 0 _ZN12QTableWidget12insertColumnEi
PUBLIC 6b7d34 0 _ZN12QTableWidget9removeRowEi
PUBLIC 6b7d9c 0 _ZN12QTableWidget12removeColumnEi
PUBLIC 6b7e04 0 _ZNK12QTableWidget13itemFromIndexERK11QModelIndex
PUBLIC 6b7e3c 0 _ZN12QTableWidget11itemPressedEP16QTableWidgetItem
PUBLIC 6b7e7c 0 _ZN12QTableWidget11itemClickedEP16QTableWidgetItem
PUBLIC 6b7ec0 0 _ZN12QTableWidget17itemDoubleClickedEP16QTableWidgetItem
PUBLIC 6b7f04 0 _ZN12QTableWidget13itemActivatedEP16QTableWidgetItem
PUBLIC 6b7f48 0 _ZN12QTableWidget11itemEnteredEP16QTableWidgetItem
PUBLIC 6b7f8c 0 _ZN12QTableWidget11itemChangedEP16QTableWidgetItem
PUBLIC 6b7fd0 0 _ZN12QTableWidget18currentItemChangedEP16QTableWidgetItemS1_
PUBLIC 6b8020 0 _ZN12QTableWidget20itemSelectionChangedEv
PUBLIC 6b8044 0 _ZN12QTableWidget11cellPressedEii
PUBLIC 6b80ec 0 _ZN12QTableWidget11cellClickedEii
PUBLIC 6b8194 0 _ZN12QTableWidget17cellDoubleClickedEii
PUBLIC 6b823c 0 _ZN12QTableWidget13cellActivatedEii
PUBLIC 6b82e4 0 _ZN12QTableWidget11cellEnteredEii
PUBLIC 6b838c 0 _ZN12QTableWidget11cellChangedEii
PUBLIC 6b8434 0 _ZN12QTableWidget18currentCellChangedEiiii
PUBLIC 6b8530 0 _ZN12QTableWidget16setRangeSelectedERK26QTableWidgetSelectionRangeb
PUBLIC 6b87d0 0 _ZN16QTableWidgetItemC2Ei
PUBLIC 6b8ae4 0 _ZN12QTableWidget24takeHorizontalHeaderItemEi
PUBLIC 6b8bac 0 _ZN12QTableWidget22takeVerticalHeaderItemEi
PUBLIC 6b8c90 0 _ZN12QTableWidget13clearContentsEv
PUBLIC 6b8dfc 0 _ZN12QTableWidget5clearEv
PUBLIC 6b908c 0 _ZN12QTableWidget23setHorizontalHeaderItemEiP16QTableWidgetItem
PUBLIC 6b90f0 0 _ZN12QTableWidget25setHorizontalHeaderLabelsERK11QStringList
PUBLIC 6b92e0 0 _ZN12QTableWidget21setVerticalHeaderItemEiP16QTableWidgetItem
PUBLIC 6b9344 0 _ZN12QTableWidget23setVerticalHeaderLabelsERK11QStringList
PUBLIC 6b9b6c 0 _ZN16QTableWidgetItemaSERKS_
PUBLIC 6b9b94 0 _ZN16QTableWidgetItemC1ERKS_
PUBLIC 6b9c50 0 _ZNK16QTableWidgetItem5cloneEv
PUBLIC 6b9c80 0 _ZN16QTableWidgetItem4readER11QDataStream
PUBLIC 6b9c90 0 _ZN12QTableWidget13selectedItemsEv
PUBLIC 6b9ddc 0 _ZNK12QTableWidget9findItemsERK7QString6QFlagsIN2Qt9MatchFlagEE
PUBLIC 6ba478 0 _ZNK12QTableWidget5itemsEPK9QMimeData
PUBLIC 6ba7e4 0 _ZNK12QTableWidget14selectedRangesEv
PUBLIC 6bc45c 0 _ZN12QTableWidget8takeItemEii
PUBLIC 6bc4a8 0 _ZN12QTableWidget7setItemEiiP16QTableWidgetItem
PUBLIC 6bc774 0 _ZN16QTableWidgetItemD2Ev
PUBLIC 6bc834 0 _ZN16QTableWidgetItemD0Ev
PUBLIC 6bcae4 0 _ZN16QTableWidgetItem8setFlagsE6QFlagsIN2Qt8ItemFlagEE
PUBLIC 6bcb38 0 _ZN16QTableWidgetItem7setDataEiRK8QVariant
PUBLIC 6bccb4 0 _ZN16QTableWidgetItemC2ERK7QStringi
PUBLIC 6bcd88 0 _ZN16QTableWidgetItemC2ERK5QIconRK7QStringi
PUBLIC 6bce94 0 _ZNK12QTableWidget3rowEPK16QTableWidgetItem
PUBLIC 6bcee0 0 _ZNK12QTableWidget6columnEPK16QTableWidgetItem
PUBLIC 6bcf2c 0 _ZN12QTableWidget14setCurrentItemEP16QTableWidgetItem
PUBLIC 6bcf84 0 _ZN12QTableWidget14setCurrentItemEP16QTableWidgetItem6QFlagsIN19QItemSelectionModel13SelectionFlagEE
PUBLIC 6bcff0 0 _ZN12QTableWidget8editItemEP16QTableWidgetItem
PUBLIC 6bd04c 0 _ZN12QTableWidget20openPersistentEditorEP16QTableWidgetItem
PUBLIC 6bd0a8 0 _ZN12QTableWidget21closePersistentEditorEP16QTableWidgetItem
PUBLIC 6bd104 0 _ZNK12QTableWidget14isItemSelectedEPK16QTableWidgetItem
PUBLIC 6bd160 0 _ZN12QTableWidget15setItemSelectedEPK16QTableWidgetItemb
PUBLIC 6bd1e0 0 _ZNK12QTableWidget14visualItemRectEPK16QTableWidgetItem
PUBLIC 6bd270 0 _ZN12QTableWidget12scrollToItemEPK16QTableWidgetItemN17QAbstractItemView10ScrollHintE
PUBLIC 6bd2d4 0 _ZNK12QTableWidget13indexFromItemEP16QTableWidgetItem
PUBLIC 6bd320 0 _ZN12QTableWidgetC1EP7QWidget
PUBLIC 6bd524 0 _ZN12QTableWidgetC2EiiP7QWidget
PUBLIC 6bd738 0 _ZN12QTableWidget12dropMimeDataEiiPK9QMimeDataN2Qt10DropActionE
PUBLIC 6bd814 0 _ZN12QTableWidget5eventEP6QEvent
PUBLIC 6bd818 0 _ZN12QTableWidget9dropEventEP10QDropEvent
PUBLIC 6bdae4 0 _ZN12QTableWidget11qt_metacastEPKc
PUBLIC 6bdb28 0 _ZN12QTableWidget11qt_metacallEN11QMetaObject4CallEiPPv
PUBLIC 6bf474 0 _ZN11QTreeWidget8setModelEP18QAbstractItemModel
PUBLIC 6bf478 0 _ZNK11QTreeWidget10metaObjectEv
PUBLIC 6bf5f0 0 _ZNK15QTreeWidgetItem5writeER11QDataStream
PUBLIC 6bf718 0 _ZN11QTreeWidgetD1Ev
PUBLIC 6bf754 0 _ZThn8_N11QTreeWidgetD1Ev
PUBLIC 6bf75c 0 _ZN11QTreeWidgetD0Ev
PUBLIC 6bf778 0 _ZThn8_N11QTreeWidgetD0Ev
PUBLIC 6bf780 0 _ZNK11QTreeWidget9mimeTypesEv
PUBLIC 6bf7a4 0 _ZNK11QTreeWidget20supportedDropActionsEv
PUBLIC 6c029c 0 _ZN15QTreeWidgetItem23setChildIndicatorPolicyENS_20ChildIndicatorPolicyE
PUBLIC 6c02c0 0 _ZNK15QTreeWidgetItem20childIndicatorPolicyEv
PUBLIC 6c02cc 0 _ZNK15QTreeWidgetItem5flagsEv
PUBLIC 6c0328 0 _ZNK15QTreeWidgetItem18childrenCheckStateEi
PUBLIC 6c0494 0 _ZNK15QTreeWidgetItem4dataEii
PUBLIC 6c05c4 0 _ZN15QTreeWidgetItem11itemChangedEv
PUBLIC 6c0610 0 _ZN15QTreeWidgetItem15emitDataChangedEv
PUBLIC 6c0614 0 _ZNK15QTreeWidgetItem18executePendingSortEv
PUBLIC 6c086c 0 _ZlsR11QDataStreamRK15QTreeWidgetItem
PUBLIC 6c0890 0 _ZrsR11QDataStreamR15QTreeWidgetItem
PUBLIC 6c0918 0 _ZNK11QTreeWidget11columnCountEv
PUBLIC 6c0954 0 _ZNK11QTreeWidget17invisibleRootItemEv
PUBLIC 6c0984 0 _ZNK11QTreeWidget12topLevelItemEi
PUBLIC 6c09fc 0 _ZNK11QTreeWidget17topLevelItemCountEv
PUBLIC 6c0a3c 0 _ZNK11QTreeWidget10headerItemEv
PUBLIC 6c0a6c 0 _ZN11QTreeWidget13setHeaderItemEP15QTreeWidgetItem
PUBLIC 6c0ba4 0 _ZNK11QTreeWidget11currentItemEv
PUBLIC 6c0c1c 0 _ZNK11QTreeWidget13currentColumnEv
PUBLIC 6c0c3c 0 _ZN11QTreeWidget14setCurrentItemEP15QTreeWidgetItemi
PUBLIC 6c0c9c 0 _ZN11QTreeWidget14setCurrentItemEP15QTreeWidgetItem
PUBLIC 6c0ca4 0 _ZN11QTreeWidget14setCurrentItemEP15QTreeWidgetItemi6QFlagsIN19QItemSelectionModel13SelectionFlagEE
PUBLIC 6c0d18 0 _ZNK11QTreeWidget6itemAtERK6QPoint
PUBLIC 6c0d9c 0 _ZNK11QTreeWidget14visualItemRectEPK15QTreeWidgetItem
PUBLIC 6c1010 0 _ZNK11QTreeWidget10sortColumnEv
PUBLIC 6c1038 0 _ZNK15QTreeWidgetItemltERKS_
PUBLIC 6c10e0 0 _ZN11QTreeWidget9sortItemsEiN2Qt9SortOrderE
PUBLIC 6c111c 0 _ZN11QTreeWidget17setSortingEnabledEb
PUBLIC 6c1120 0 _ZNK11QTreeWidget16isSortingEnabledEv
PUBLIC 6c1124 0 _ZN11QTreeWidget8editItemEP15QTreeWidgetItemi
PUBLIC 6c1184 0 _ZN11QTreeWidget20openPersistentEditorEP15QTreeWidgetItemi
PUBLIC 6c11e4 0 _ZN11QTreeWidget21closePersistentEditorEP15QTreeWidgetItemi
PUBLIC 6c1244 0 _ZNK11QTreeWidget10itemWidgetEP15QTreeWidgetItemi
PUBLIC 6c12a4 0 _ZN11QTreeWidget13setItemWidgetEP15QTreeWidgetItemiP7QWidget
PUBLIC 6c130c 0 _ZNK11QTreeWidget14isItemSelectedEPK15QTreeWidgetItem
PUBLIC 6c1328 0 _ZN11QTreeWidget15setItemSelectedEPK15QTreeWidgetItemb
PUBLIC 6c13cc 0 _ZN11QTreeWidget13setItemHiddenEPK15QTreeWidgetItemb
PUBLIC 6c14b4 0 _ZNK11QTreeWidget14isItemExpandedEPK15QTreeWidgetItem
PUBLIC 6c153c 0 _ZN11QTreeWidget15setItemExpandedEPK15QTreeWidgetItemb
PUBLIC 6c15cc 0 _ZNK11QTreeWidget24isFirstItemColumnSpannedEPK15QTreeWidgetItem
PUBLIC 6c1690 0 _ZN11QTreeWidget25setFirstItemColumnSpannedEPK15QTreeWidgetItemb
PUBLIC 6c1758 0 _ZNK11QTreeWidget9itemAboveEPK15QTreeWidgetItem
PUBLIC 6c1810 0 _ZNK11QTreeWidget9itemBelowEPK15QTreeWidgetItem
PUBLIC 6c18c8 0 _ZN11QTreeWidget12scrollToItemEPK15QTreeWidgetItemN17QAbstractItemView10ScrollHintE
PUBLIC 6c192c 0 _ZN11QTreeWidget10expandItemEPK15QTreeWidgetItem
PUBLIC 6c19b4 0 _ZN11QTreeWidget12collapseItemEPK15QTreeWidgetItem
PUBLIC 6c1a3c 0 _ZNK11QTreeWidget5itemsEPK9QMimeData
PUBLIC 6c1a88 0 _ZNK11QTreeWidget13indexFromItemEP15QTreeWidgetItemi
PUBLIC 6c1adc 0 _ZN11QTreeWidget12dropMimeDataEP15QTreeWidgetItemiPK9QMimeDataN2Qt10DropActionE
PUBLIC 6c1b68 0 _ZNK11QTreeWidget13itemFromIndexERK11QModelIndex
PUBLIC 6c1bcc 0 _ZN11QTreeWidget11itemPressedEP15QTreeWidgetItemi
PUBLIC 6c1c8c 0 _ZN11QTreeWidget11itemClickedEP15QTreeWidgetItemi
PUBLIC 6c1d4c 0 _ZN11QTreeWidget17itemDoubleClickedEP15QTreeWidgetItemi
PUBLIC 6c1e0c 0 _ZN11QTreeWidget13itemActivatedEP15QTreeWidgetItemi
PUBLIC 6c1ecc 0 _ZN11QTreeWidget11itemEnteredEP15QTreeWidgetItemi
PUBLIC 6c1f8c 0 _ZN11QTreeWidget11itemChangedEP15QTreeWidgetItemi
PUBLIC 6c2048 0 _ZN11QTreeWidget12itemExpandedEP15QTreeWidgetItem
PUBLIC 6c20fc 0 _ZN11QTreeWidget13itemCollapsedEP15QTreeWidgetItem
PUBLIC 6c21b0 0 _ZN11QTreeWidget18currentItemChangedEP15QTreeWidgetItemS1_
PUBLIC 6c22bc 0 _ZN11QTreeWidget20itemSelectionChangedEv
PUBLIC 6c22e0 0 _ZN11QTreeWidget19indexOfTopLevelItemEP15QTreeWidgetItem
PUBLIC 6c23cc 0 _ZNK11QTreeWidget19indexOfTopLevelItemEP15QTreeWidgetItem
PUBLIC 6c24b8 0 _ZN15QTreeWidgetItemC2Ei
PUBLIC 6c26c8 0 _ZNK11QTreeWidget12isItemHiddenEPK15QTreeWidgetItem
PUBLIC 6c2ccc 0 _ZN11QTreeWidget14setColumnCountEi
PUBLIC 6c2d08 0 _ZN11QTreeWidget15setHeaderLabelsERK11QStringList
PUBLIC 6c2dec 0 _ZNK11QTreeWidget9findItemsERK7QString6QFlagsIN2Qt9MatchFlagEEi
PUBLIC 6c3188 0 _ZNK11QTreeWidget8mimeDataE5QListIP15QTreeWidgetItemE
PUBLIC 6c347c 0 _ZN11QTreeWidget5clearEv
PUBLIC 6c4110 0 _ZN15QTreeWidgetItem11insertChildEiPS_
PUBLIC 6c4464 0 _ZN15QTreeWidgetItemC2EP11QTreeWidgetPS_i
PUBLIC 6c460c 0 _ZN15QTreeWidgetItemC1EPS_S0_i
PUBLIC 6c4758 0 _ZN15QTreeWidgetItem8addChildEPS_
PUBLIC 6c47a0 0 _ZN15QTreeWidgetItemC2EP11QTreeWidgeti
PUBLIC 6c4934 0 _ZN15QTreeWidgetItemC2EPS_i
PUBLIC 6c4a60 0 _ZN11QTreeWidget18insertTopLevelItemEiP15QTreeWidgetItem
PUBLIC 6c4aa4 0 _ZN11QTreeWidget15addTopLevelItemEP15QTreeWidgetItem
PUBLIC 6c4ac8 0 _ZN15QTreeWidgetItem8setFlagsE6QFlagsIN2Qt8ItemFlagEE
PUBLIC 6c4d04 0 _ZN15QTreeWidgetItem14insertChildrenEiRK5QListIPS_E
PUBLIC 6c5188 0 _ZN15QTreeWidgetItem11addChildrenERK5QListIPS_E
PUBLIC 6c51a0 0 _ZN11QTreeWidget19insertTopLevelItemsEiRK5QListIP15QTreeWidgetItemE
PUBLIC 6c51e4 0 _ZN11QTreeWidget16addTopLevelItemsERK5QListIP15QTreeWidgetItemE
PUBLIC 6c56c4 0 _ZN15QTreeWidgetItemC2ERKS_
PUBLIC 6c5890 0 _ZNK15QTreeWidgetItem5cloneEv
PUBLIC 6c5c00 0 _ZN15QTreeWidgetItem7setDataEiiRK8QVariant
PUBLIC 6c61c8 0 _ZN15QTreeWidgetItemC2ERK11QStringListi
PUBLIC 6c635c 0 _ZN15QTreeWidgetItemC1EPS_RK11QStringListi
PUBLIC 6c6508 0 _ZN15QTreeWidgetItemC1EP11QTreeWidgetRK11QStringListi
PUBLIC 6c6728 0 _ZN15QTreeWidgetItemaSERKS_
PUBLIC 6c67ec 0 _ZN15QTreeWidgetItem4readER11QDataStream
PUBLIC 6c7b40 0 _ZN15QTreeWidgetItem12sortChildrenEiN2Qt9SortOrderEb
PUBLIC 6c7d98 0 _ZN15QTreeWidgetItemD2Ev
PUBLIC 6c80bc 0 _ZN15QTreeWidgetItemD0Ev
PUBLIC 6c80d8 0 _ZN15QTreeWidgetItem9takeChildEi
PUBLIC 6c8530 0 _ZN15QTreeWidgetItem11removeChildEPS_
PUBLIC 6c8568 0 _ZN11QTreeWidget16takeTopLevelItemEi
PUBLIC 6c85a4 0 _ZN15QTreeWidgetItem12takeChildrenEv
PUBLIC 6c89e0 0 _ZNK11QTreeWidget13selectedItemsEv
PUBLIC 6c8d44 0 _ZN11QTreeWidgetC1EP7QWidget
PUBLIC 6c9268 0 _ZN11QTreeWidget17setSelectionModelEP19QItemSelectionModel
PUBLIC 6c931c 0 _ZN11QTreeWidget9dropEventEP10QDropEvent
PUBLIC 6c9994 0 _ZN11QTreeWidget5eventEP6QEvent
PUBLIC 6c9a74 0 _ZN11QTreeWidget11qt_metacastEPKc
PUBLIC 6c9ab8 0 _ZN11QTreeWidget11qt_metacallEN11QMetaObject4CallEiPPv
PUBLIC 6cbc14 0 _ZNK11QProxyModel10headerDataEiN2Qt11OrientationEi
PUBLIC 6cbc48 0 _ZN11QProxyModel13setHeaderDataEiN2Qt11OrientationERK8QVarianti
PUBLIC 6cbc74 0 _ZNK11QProxyModel9mimeTypesEv
PUBLIC 6cbc98 0 _ZNK11QProxyModel20supportedDropActionsEv
PUBLIC 6cbcbc 0 _ZN11QProxyModel9fetchMoreERK11QModelIndex
PUBLIC 6cbcd8 0 _ZN11QProxyModel4sortEiN2Qt9SortOrderE
PUBLIC 6cbcf4 0 _ZNK11QProxyModel5matchERK11QModelIndexiRK8QVarianti6QFlagsIN2Qt9MatchFlagEE
PUBLIC 6cbd44 0 _ZN11QProxyModel6submitEv
PUBLIC 6cbd60 0 _ZN11QProxyModel6revertEv
PUBLIC 6cbd7c 0 _ZNK11QProxyModel10metaObjectEv
PUBLIC 6cbda8 0 _ZN11QProxyModelD1Ev
PUBLIC 6cbddc 0 _ZN11QProxyModelD0Ev
PUBLIC 6cbdf8 0 _ZN11QProxyModel11qt_metacastEPKc
PUBLIC 6cbeb0 0 _ZNK11QProxyModel5modelEv
PUBLIC 6cbebc 0 _ZNK11QProxyModel13setProxyModelERK11QModelIndex
PUBLIC 6cbefc 0 _ZNK11QProxyModel14setSourceModelERK11QModelIndex
PUBLIC 6cbf24 0 _ZNK11QProxyModel5indexEiiRK11QModelIndex
PUBLIC 6cbf94 0 _ZNK11QProxyModel6parentERK11QModelIndex
PUBLIC 6cbfec 0 _ZNK11QProxyModel8rowCountERK11QModelIndex
PUBLIC 6cc028 0 _ZNK11QProxyModel11columnCountERK11QModelIndex
PUBLIC 6cc064 0 _ZNK11QProxyModel11hasChildrenERK11QModelIndex
PUBLIC 6cc0a0 0 _ZNK11QProxyModel4dataERK11QModelIndexi
PUBLIC 6cc0e8 0 _ZN11QProxyModel7setDataERK11QModelIndexRK8QVarianti
PUBLIC 6cc134 0 _ZN11QProxyModel12dropMimeDataEPK9QMimeDataN2Qt10DropActionEiiRK11QModelIndex
PUBLIC 6cc194 0 _ZN11QProxyModel10insertRowsEiiRK11QModelIndex
PUBLIC 6cc1e0 0 _ZN11QProxyModel13insertColumnsEiiRK11QModelIndex
PUBLIC 6cc22c 0 _ZNK11QProxyModel5flagsERK11QModelIndex
PUBLIC 6cc26c 0 _ZNK11QProxyModel4spanERK11QModelIndex
PUBLIC 6cc2ac 0 _ZNK11QProxyModel14connectToModelEPK18QAbstractItemModel
PUBLIC 6cc4b0 0 _ZNK11QProxyModel19disconnectFromModelEPK18QAbstractItemModel
PUBLIC 6cc674 0 _ZN11QProxyModel8setModelEP18QAbstractItemModel
PUBLIC 6cc6c4 0 _ZN11QProxyModelC2ER18QProxyModelPrivateP7QObject
PUBLIC 6cc880 0 _ZN11QProxyModel11qt_metacallEN11QMetaObject4CallEiPPv
PUBLIC 6cc9b4 0 _ZNK11QProxyModel8mimeDataERK5QListI11QModelIndexE
PUBLIC 6ccaa8 0 _ZN11QProxyModelC2EP7QObject
PUBLIC 6cd43c 0 _ZN19QAbstractProxyModel6submitEv
PUBLIC 6cd458 0 _ZN19QAbstractProxyModel6revertEv
PUBLIC 6cd474 0 _ZNK19QAbstractProxyModel4dataERK11QModelIndexi
PUBLIC 6cd4c4 0 _ZNK19QAbstractProxyModel10headerDataEiN2Qt11OrientationEi
PUBLIC 6cd5c0 0 _ZNK19QAbstractProxyModel8itemDataERK11QModelIndex
PUBLIC 6cd604 0 _ZNK19QAbstractProxyModel5flagsERK11QModelIndex
PUBLIC 6cd648 0 _ZN19QAbstractProxyModel7setDataERK11QModelIndexRK8QVarianti
PUBLIC 6cd69c 0 _ZN19QAbstractProxyModel13setHeaderDataEiN2Qt11OrientationERK8QVarianti
PUBLIC 6cd7a0 0 _ZNK19QAbstractProxyModel10metaObjectEv
PUBLIC 6cd7e0 0 _ZN19QAbstractProxyModelD1Ev
PUBLIC 6cd814 0 _ZN19QAbstractProxyModelD0Ev
PUBLIC 6cd8b8 0 _ZNK19QAbstractProxyModel11sourceModelEv
PUBLIC 6cd8d8 0 _ZN19QAbstractProxyModel14setSourceModelEP18QAbstractItemModel
PUBLIC 6cda08 0 _ZN19QAbstractProxyModelC2ER26QAbstractProxyModelPrivateP7QObject
PUBLIC 6cda5c 0 _ZN19QAbstractProxyModelC2EP7QObject
PUBLIC 6cdc54 0 _ZNK19QAbstractProxyModel20mapSelectionToSourceERK14QItemSelection
PUBLIC 6cdddc 0 _ZNK19QAbstractProxyModel22mapSelectionFromSourceERK14QItemSelection
PUBLIC 6cdf64 0 _ZN19QAbstractProxyModel11qt_metacastEPKc
PUBLIC 6cdfa8 0 _ZN19QAbstractProxyModel11qt_metacallEN11QMetaObject4CallEiPPv
PUBLIC 6ce5c0 0 _ZNK21QSortFilterProxyModel6parentERK11QModelIndex
PUBLIC 6ce658 0 _ZNK21QSortFilterProxyModel4dataERK11QModelIndexi
PUBLIC 6ce718 0 _ZN21QSortFilterProxyModel7setDataERK11QModelIndexRK8QVarianti
PUBLIC 6ce7c4 0 _ZNK21QSortFilterProxyModel9mimeTypesEv
PUBLIC 6ce7e8 0 _ZNK21QSortFilterProxyModel20supportedDropActionsEv
PUBLIC 6ce80c 0 _ZN21QSortFilterProxyModel12dropMimeDataEPK9QMimeDataN2Qt10DropActionEiiRK11QModelIndex
PUBLIC 6ce9c4 0 _ZN21QSortFilterProxyModel9fetchMoreERK11QModelIndex
PUBLIC 6cea50 0 _ZNK21QSortFilterProxyModel12canFetchMoreERK11QModelIndex
PUBLIC 6ceadc 0 _ZNK21QSortFilterProxyModel5flagsERK11QModelIndex
PUBLIC 6ceb70 0 _ZNK21QSortFilterProxyModel5buddyERK11QModelIndex
PUBLIC 6cec6c 0 _ZNK21QSortFilterProxyModel4spanERK11QModelIndex
PUBLIC 6ced14 0 _ZNK21QSortFilterProxyModel19filterAcceptsColumnEiRK11QModelIndex
PUBLIC 6ced1c 0 _ZNK21QSortFilterProxyModel10metaObjectEv
PUBLIC 6cf000 0 _ZNK21QSortFilterProxyModel8lessThanERK11QModelIndexS2_
PUBLIC 6cf4cc 0 _ZNK21QSortFilterProxyModel16filterAcceptsRowEiRK11QModelIndex
PUBLIC 6cf85c 0 _ZNK21QSortFilterProxyModel10sortColumnEv
PUBLIC 6cf868 0 _ZNK21QSortFilterProxyModel9sortOrderEv
PUBLIC 6cf874 0 _ZNK21QSortFilterProxyModel12filterRegExpEv
PUBLIC 6cf890 0 _ZNK21QSortFilterProxyModel15filterKeyColumnEv
PUBLIC 6cf89c 0 _ZNK21QSortFilterProxyModel21filterCaseSensitivityEv
PUBLIC 6cf8a8 0 _ZNK21QSortFilterProxyModel19sortCaseSensitivityEv
PUBLIC 6cf8b4 0 _ZNK21QSortFilterProxyModel17isSortLocaleAwareEv
PUBLIC 6cf8c0 0 _ZNK21QSortFilterProxyModel17dynamicSortFilterEv
PUBLIC 6cf8cc 0 _ZNK21QSortFilterProxyModel8sortRoleEv
PUBLIC 6cf8d8 0 _ZNK21QSortFilterProxyModel10filterRoleEv
PUBLIC 6cf8e4 0 _ZN21QSortFilterProxyModelC2EP7QObject
PUBLIC 6d08c0 0 _ZNK21QSortFilterProxyModel8mimeDataERK5QListI11QModelIndexE
PUBLIC 6d17f4 0 _ZN21QSortFilterProxyModelD2Ev
PUBLIC 6d196c 0 _ZN21QSortFilterProxyModelD0Ev
PUBLIC 6d24f0 0 _ZN21QSortFilterProxyModel5clearEv
PUBLIC 6d2514 0 _ZN21QSortFilterProxyModel10invalidateEv
PUBLIC 6d28b0 0 _ZNK21QSortFilterProxyModel5indexEiiRK11QModelIndex
PUBLIC 6d2948 0 _ZNK21QSortFilterProxyModel8rowCountERK11QModelIndex
PUBLIC 6d29e8 0 _ZNK21QSortFilterProxyModel11columnCountERK11QModelIndex
PUBLIC 6d2a88 0 _ZNK21QSortFilterProxyModel11hasChildrenERK11QModelIndex
PUBLIC 6d2b78 0 _ZN21QSortFilterProxyModel10insertRowsEiiRK11QModelIndex
PUBLIC 6d2c54 0 _ZN21QSortFilterProxyModel13insertColumnsEiiRK11QModelIndex
PUBLIC 6d2d30 0 _ZN21QSortFilterProxyModel10removeRowsEiiRK11QModelIndex
PUBLIC 6d2fd0 0 _ZN21QSortFilterProxyModel13removeColumnsEiiRK11QModelIndex
PUBLIC 6d35a0 0 _ZN21QSortFilterProxyModel4sortEiN2Qt9SortOrderE
PUBLIC 6d35ec 0 _ZN21QSortFilterProxyModel22setSortCaseSensitivityEN2Qt15CaseSensitivityE
PUBLIC 6d3604 0 _ZN21QSortFilterProxyModel18setSortLocaleAwareEb
PUBLIC 6d361c 0 _ZN21QSortFilterProxyModel20setDynamicSortFilterEb
PUBLIC 6d3630 0 _ZN21QSortFilterProxyModel11setSortRoleEi
PUBLIC 6d491c 0 _ZN21QSortFilterProxyModel15setFilterRegExpERK7QRegExp
PUBLIC 6d4958 0 _ZN21QSortFilterProxyModel18setFilterKeyColumnEi
PUBLIC 6d498c 0 _ZN21QSortFilterProxyModel24setFilterCaseSensitivityEN2Qt15CaseSensitivityE
PUBLIC 6d49e4 0 _ZN21QSortFilterProxyModel15setFilterRegExpERK7QString
PUBLIC 6d4a38 0 _ZN21QSortFilterProxyModel17setFilterWildcardERK7QString
PUBLIC 6d4a8c 0 _ZN21QSortFilterProxyModel20setFilterFixedStringERK7QString
PUBLIC 6d4ae0 0 _ZN21QSortFilterProxyModel13setFilterRoleEi
PUBLIC 6d4b20 0 _ZN21QSortFilterProxyModel13filterChangedEv
PUBLIC 6d4b50 0 _ZN21QSortFilterProxyModel16invalidateFilterEv
PUBLIC 6d5988 0 _ZNK21QSortFilterProxyModel11mapToSourceERK11QModelIndex
PUBLIC 6d5cc0 0 _ZNK21QSortFilterProxyModel13mapFromSourceERK11QModelIndex
PUBLIC 6d5cd8 0 _ZN21QSortFilterProxyModel14setSourceModelEP18QAbstractItemModel
PUBLIC 6d615c 0 _ZNK21QSortFilterProxyModel10headerDataEiN2Qt11OrientationEi
PUBLIC 6d6270 0 _ZN21QSortFilterProxyModel13setHeaderDataEiN2Qt11OrientationERK8QVarianti
PUBLIC 6d6360 0 _ZNK21QSortFilterProxyModel5matchERK11QModelIndexiRK8QVarianti6QFlagsIN2Qt9MatchFlagEE
PUBLIC 6d63a0 0 _ZNK21QSortFilterProxyModel20mapSelectionToSourceERK14QItemSelection
PUBLIC 6d63b4 0 _ZNK21QSortFilterProxyModel22mapSelectionFromSourceERK14QItemSelection
PUBLIC 6d63c8 0 _ZN21QSortFilterProxyModel11qt_metacastEPKc
PUBLIC 6d640c 0 _ZN21QSortFilterProxyModel11qt_metacallEN11QMetaObject4CallEiPPv
PUBLIC 6d9084 0 _ZN18QItemEditorFactory14defaultFactoryEv
PUBLIC 6d9184 0 _ZNK18QItemEditorFactory12createEditorEN8QVariant4TypeEP7QWidget
PUBLIC 6d920c 0 _ZNK18QItemEditorFactory17valuePropertyNameEN8QVariant4TypeE
PUBLIC 6d92d8 0 _ZN18QItemEditorFactory17setDefaultFactoryEPS_
PUBLIC 6d9c7c 0 _ZN18QItemEditorFactory14registerEditorEN8QVariant4TypeEP22QItemEditorCreatorBase
PUBLIC 6d9e98 0 _ZN18QItemEditorFactoryD1Ev
PUBLIC 6da064 0 _ZN18QItemEditorFactoryD0Ev
PUBLIC 6da9a0 0 _ZN13QStandardItemD2Ev
PUBLIC 6da9f0 0 _ZNK13QStandardItem4typeEv
PUBLIC 6da9f8 0 _ZNK18QStandardItemModel20supportedDropActionsEv
PUBLIC 6daa04 0 _ZNK18QStandardItemModel10metaObjectEv
PUBLIC 6daa30 0 _ZN13QStandardItemD0Ev
PUBLIC 6daa4c 0 _ZNK13QStandardItem4dataEi
PUBLIC 6daae0 0 _ZN18QStandardItemModelD2Ev
PUBLIC 6dab14 0 _ZN18QStandardItemModelD0Ev
PUBLIC 6dada0 0 _ZN13QStandardItemC2ER20QStandardItemPrivate
PUBLIC 6dadcc 0 _ZNK13QStandardItem6parentEv
PUBLIC 6dadfc 0 _ZN13QStandardItem8setFlagsE6QFlagsIN2Qt8ItemFlagEE
PUBLIC 6dae48 0 _ZNK13QStandardItem5flagsEv
PUBLIC 6daf14 0 _ZNK13QStandardItem5writeER11QDataStream
PUBLIC 6dafb4 0 _ZN13QStandardItem10setEnabledEb
PUBLIC 6dafd8 0 _ZN13QStandardItem11setEditableEb
PUBLIC 6daffc 0 _ZN13QStandardItem13setSelectableEb
PUBLIC 6db020 0 _ZN13QStandardItem12setCheckableEb
PUBLIC 6db0dc 0 _ZN13QStandardItem11setTristateEb
PUBLIC 6db100 0 _ZN13QStandardItem14setDragEnabledEb
PUBLIC 6db124 0 _ZN13QStandardItem14setDropEnabledEb
PUBLIC 6db148 0 _ZNK13QStandardItem5modelEv
PUBLIC 6db154 0 _ZNK13QStandardItem8rowCountEv
PUBLIC 6db160 0 _ZNK13QStandardItem11columnCountEv
PUBLIC 6db16c 0 _ZNK13QStandardItem11hasChildrenEv
PUBLIC 6db1a0 0 _ZNK13QStandardItem5childEii
PUBLIC 6db1f4 0 _ZNK18QStandardItemModel11columnCountERK11QModelIndex
PUBLIC 6db260 0 _ZNK18QStandardItemModel11hasChildrenERK11QModelIndex
PUBLIC 6db2cc 0 _ZNK18QStandardItemModel8rowCountERK11QModelIndex
PUBLIC 6db338 0 _ZNK18QStandardItemModel5indexEiiRK11QModelIndex
PUBLIC 6db414 0 _ZNK18QStandardItemModel4dataERK11QModelIndexi
PUBLIC 6db4c4 0 _ZNK18QStandardItemModel5flagsERK11QModelIndex
PUBLIC 6db550 0 _ZrsR11QDataStreamR13QStandardItem
PUBLIC 6db574 0 _ZlsR11QDataStreamRK13QStandardItem
PUBLIC 6db598 0 _ZN18QStandardItemModelC2ER25QStandardItemModelPrivateP7QObject
PUBLIC 6db614 0 _ZNK18QStandardItemModel4itemEii
PUBLIC 6db620 0 _ZNK18QStandardItemModel17invisibleRootItemEv
PUBLIC 6db62c 0 _ZNK18QStandardItemModel20horizontalHeaderItemEi
PUBLIC 6db68c 0 _ZNK18QStandardItemModel18verticalHeaderItemEi
PUBLIC 6db6ec 0 _ZN18QStandardItemModel16setItemPrototypeEPK13QStandardItem
PUBLIC 6db720 0 _ZNK18QStandardItemModel13itemPrototypeEv
PUBLIC 6db72c 0 _ZNK18QStandardItemModel8sortRoleEv
PUBLIC 6db738 0 _ZNK13QStandardItemltERKS_
PUBLIC 6dbb00 0 _ZN18QStandardItemModel11setSortRoleEi
PUBLIC 6dbb0c 0 _ZN18QStandardItemModel11itemChangedEP13QStandardItem
PUBLIC 6dbc6c 0 _ZN13QStandardItemC2Ev
PUBLIC 6dbe94 0 _ZNK13QStandardItem3rowEv
PUBLIC 6dbeb4 0 _ZNK13QStandardItem6columnEv
PUBLIC 6dbed4 0 _ZNK18QStandardItemModel13indexFromItemEPK13QStandardItem
PUBLIC 6dc050 0 _ZNK13QStandardItem5indexEv
PUBLIC 6dc094 0 _ZNK18QStandardItemModel6parentERK11QModelIndex
PUBLIC 6dc1a4 0 _ZN13QStandardItem15emitDataChangedEv
PUBLIC 6dcb78 0 _ZN13QStandardItemaSERKS_
PUBLIC 6dcb9c 0 _ZN13QStandardItemC2ERKS_
PUBLIC 6dcca8 0 _ZNK13QStandardItem5cloneEv
PUBLIC 6dccd8 0 _ZN13QStandardItem4readER11QDataStream
PUBLIC 6dcd20 0 _ZN13QStandardItem7setDataERK8QVarianti
PUBLIC 6dcf84 0 _ZN13QStandardItemC1ERK7QString
PUBLIC 6dd0bc 0 _ZN13QStandardItemC2ERK5QIconRK7QString
PUBLIC 6ddde4 0 _ZN13QStandardItem10insertRowsEii
PUBLIC 6de1ac 0 _ZN13QStandardItem13insertColumnsEii
PUBLIC 6de260 0 _ZN13QStandardItem9takeChildEii
PUBLIC 6de308 0 _ZN18QStandardItemModel8takeItemEii
PUBLIC 6de314 0 _ZN18QStandardItemModel24takeHorizontalHeaderItemEi
