MODULE Linux arm EFE0EB715F7802602D39F80B03F651800 libidirectfbwindows_default.so
FUNC 858 10 0 GetType
FUNC 868 10 0 GetImplementation
FUNC 878 40 0 IDirectFBWindows_AddRef
FUNC 8b8 20 0 IDirectFBWindows_WM_Reaction_WindowAdd
FUNC 8d8 20 0 IDirectFBWindows_WM_Reaction_WindowRemove
FUNC 8f8 2c 0 IDirectFBWindows_WM_Reaction_WindowConfig
FUNC 924 24 0 IDirectFBWindows_WM_Reaction_WindowState
FUNC 948 20 0 IDirectFBWindows_WM_Reaction_WindowRestack
FUNC 968 20 0 IDirectFBWindows_WM_Reaction_WindowFocus
FUNC 988 10 0 Probe
FUNC 998 a8 0 Construct
FUNC a40 38 0 Deallocate
FUNC a78 15c 0 IDirectFBWindows_UnregisterWatcher
FUNC bd4 16c 0 IDirectFBWindows_Release
FUNC d40 68 0 Allocate
FUNC da8 468 0 IDirectFBWindows_RegisterWatcher
FUNC 1210 10 0 IDirectFBWindows_default_ctor
FUNC 1220 10 0 IDirectFBWindows_default_dtor
STACK CFI INIT 858 10 .cfa: sp 0 + .ra: lr
STACK CFI INIT 868 10 .cfa: sp 0 + .ra: lr
STACK CFI INIT 878 40 .cfa: sp 0 + .ra: lr
STACK CFI INIT 8b8 20 .cfa: sp 0 + .ra: lr
STACK CFI 8c0 .cfa: sp 8 +
STACK CFI 8c8 .ra: .cfa -4 + ^ r3: .cfa -8 + ^
STACK CFI INIT 8d8 20 .cfa: sp 0 + .ra: lr
STACK CFI 8e0 .cfa: sp 8 +
STACK CFI 8e8 .ra: .cfa -4 + ^ r3: .cfa -8 + ^
STACK CFI INIT 8f8 2c .cfa: sp 0 + .ra: lr
STACK CFI 8fc .cfa: sp 8 +
STACK CFI 904 .ra: .cfa -4 + ^ r3: .cfa -8 + ^
STACK CFI INIT 924 24 .cfa: sp 0 + .ra: lr
STACK CFI 930 .cfa: sp 8 +
STACK CFI 93c .ra: .cfa -4 + ^ r3: .cfa -8 + ^
STACK CFI INIT 948 20 .cfa: sp 0 + .ra: lr
STACK CFI 950 .cfa: sp 8 +
STACK CFI 958 .ra: .cfa -4 + ^ r3: .cfa -8 + ^
STACK CFI INIT 968 20 .cfa: sp 0 + .ra: lr
STACK CFI 970 .cfa: sp 8 +
STACK CFI 978 .ra: .cfa -4 + ^ r3: .cfa -8 + ^
STACK CFI INIT 988 10 .cfa: sp 0 + .ra: lr
STACK CFI 98c .cfa: sp 16 +
STACK CFI 990 r0: .cfa -16 + ^ r1: .cfa -12 + ^ r2: .cfa -8 + ^ r3: .cfa -4 + ^
STACK CFI INIT 998 a8 .cfa: sp 0 + .ra: lr
STACK CFI 99c .cfa: sp 16 +
STACK CFI 9a0 .cfa: sp 24 +
STACK CFI 9a4 .cfa: sp 32 +
STACK CFI 9a8 .ra: .cfa -20 + ^ r0: .cfa -16 + ^ r1: .cfa -12 + ^ r2: .cfa -8 + ^ r3: .cfa -4 + ^ r4: .cfa -24 + ^
STACK CFI INIT a40 38 .cfa: sp 0 + .ra: lr
STACK CFI a44 .cfa: sp 16 +
STACK CFI a48 .ra: .cfa -4 + ^ r3: .cfa -16 + ^ r4: .cfa -12 + ^ r5: .cfa -8 + ^
STACK CFI INIT a78 15c .cfa: sp 0 + .ra: lr
STACK CFI a80 .cfa: sp 16 +
STACK CFI a84 .ra: .cfa -4 + ^ r3: .cfa -16 + ^ r4: .cfa -12 + ^ r5: .cfa -8 + ^
STACK CFI INIT bd4 16c .cfa: sp 0 + .ra: lr
STACK CFI bd8 .cfa: sp 24 +
STACK CFI bdc .ra: .cfa -4 + ^ r3: .cfa -24 + ^ r4: .cfa -20 + ^ r5: .cfa -16 + ^ r6: .cfa -12 + ^ r7: .cfa -8 + ^
STACK CFI INIT d40 68 .cfa: sp 0 + .ra: lr
STACK CFI d44 .cfa: sp 8 +
STACK CFI d4c .ra: .cfa -4 + ^ r4: .cfa -8 + ^
STACK CFI INIT da8 468 .cfa: sp 0 + .ra: lr
STACK CFI dac .cfa: sp 28 +
STACK CFI db0 .ra: .cfa -4 + ^ r10: .cfa -8 + ^ r4: .cfa -28 + ^ r5: .cfa -24 + ^ r6: .cfa -20 + ^ r7: .cfa -16 + ^ r8: .cfa -12 + ^
STACK CFI dbc .cfa: sp 40 +
STACK CFI INIT 1210 10 .cfa: sp 0 + .ra: lr
STACK CFI INIT 1220 10 .cfa: sp 0 + .ra: lr
