MODULE Linux arm 2F180AC4BE2C31F8E62824D4888089760 libc-2.18.so
PUBLIC 174c1 0 __libc_init_first
PUBLIC 17559 0 __libc_start_main
PUBLIC 176e5 0 gnu_get_libc_release
PUBLIC 176f1 0 gnu_get_libc_version
PUBLIC 178a1 0 __errno_location
PUBLIC 178b5 0 __aeabi_assert
PUBLIC 178bd 0 __aeabi_errno_addr
PUBLIC 178d1 0 __aeabi_MB_CUR_MAX
PUBLIC 178e9 0 __aeabi_atexit
PUBLIC 178f5 0 __aeabi_memclr4
PUBLIC 178fd 0 __aeabi_memmove4
PUBLIC 17901 0 __aeabi_memset4
PUBLIC 1790d 0 __aeabi_localeconv
PUBLIC 17e0d 0 iconv_open
PUBLIC 17f51 0 iconv
PUBLIC 18089 0 iconv_close
PUBLIC 188a1 0 __gconv_get_modules_db
PUBLIC 188ad 0 __gconv_get_alias_db
PUBLIC 1e8a5 0 __gconv_get_cache
PUBLIC 1eef5 0 __ctype_get_mb_cur_max
PUBLIC 1f089 0 setlocale
PUBLIC 20581 0 localeconv
PUBLIC 2067d 0 nl_langinfo
PUBLIC 20691 0 __nl_langinfo_l
PUBLIC 206dd 0 __newlocale
PUBLIC 20ba1 0 duplocale
PUBLIC 20cc1 0 __freelocale
PUBLIC 20d51 0 uselocale
PUBLIC 20ffd 0 __assert_fail
PUBLIC 2102d 0 __assert_perror_fail
PUBLIC 21069 0 __assert
PUBLIC 21071 0 isalnum
PUBLIC 2108d 0 isalpha
PUBLIC 210a9 0 iscntrl
PUBLIC 210c5 0 isdigit
PUBLIC 210e1 0 islower
PUBLIC 210fd 0 isgraph
PUBLIC 21119 0 isprint
PUBLIC 21135 0 ispunct
PUBLIC 21151 0 isspace
PUBLIC 2116d 0 isupper
PUBLIC 21189 0 isxdigit
PUBLIC 211a5 0 tolower
PUBLIC 211c9 0 toupper
PUBLIC 211ed 0 isblank
PUBLIC 21209 0 _tolower
PUBLIC 21225 0 _toupper
PUBLIC 21241 0 __toascii_l
PUBLIC 21249 0 __isascii_l
PUBLIC 21255 0 isblank_l
PUBLIC 21261 0 isalnum_l
PUBLIC 2126d 0 isalpha_l
PUBLIC 21279 0 iscntrl_l
PUBLIC 21285 0 isdigit_l
PUBLIC 21291 0 __islower_l
PUBLIC 2129d 0 __isgraph_l
PUBLIC 212a9 0 isprint_l
PUBLIC 212b5 0 ispunct_l
PUBLIC 212c1 0 isspace_l
PUBLIC 212cd 0 isupper_l
PUBLIC 212d9 0 __isxdigit_l
PUBLIC 212e5 0 __tolower_l
PUBLIC 212ed 0 toupper_l
PUBLIC 212f5 0 isctype
PUBLIC 21315 0 __ctype_b_loc
PUBLIC 21329 0 __ctype_toupper_loc
PUBLIC 2133d 0 __ctype_tolower_loc
PUBLIC 21351 0 __ctype_init
PUBLIC 2161d 0 bindtextdomain
PUBLIC 21645 0 bind_textdomain_codeset
PUBLIC 2166d 0 dcgettext
PUBLIC 21685 0 dgettext
PUBLIC 2168d 0 gettext
PUBLIC 22775 0 dcngettext
PUBLIC 22789 0 dngettext
PUBLIC 22799 0 ngettext
PUBLIC 23f6d 0 textdomain
PUBLIC 24c95 0 catopen
PUBLIC 24d95 0 catgets
PUBLIC 24e19 0 catclose
PUBLIC 24e65 0 __open_catalog
PUBLIC 25389 0 isinf
PUBLIC 253a5 0 isnan
PUBLIC 253bd 0 finite
PUBLIC 253c9 0 copysign
PUBLIC 253dd 0 modfl
PUBLIC 254a1 0 scalbnl
PUBLIC 255b1 0 frexp
PUBLIC 25625 0 ldexpl
PUBLIC 25685 0 __signbit
PUBLIC 2568d 0 __isinff
PUBLIC 2569d 0 __isnanf
PUBLIC 256a9 0 finitef
PUBLIC 256b5 0 copysignf
PUBLIC 256c1 0 modff
PUBLIC 25719 0 scalbnf
PUBLIC 257dd 0 frexpf
PUBLIC 25829 0 ldexpf
PUBLIC 25881 0 __signbitf
PUBLIC 258d0 0 __sigsetjmp
PUBLIC 25961 0 setjmp
PUBLIC 25971 0 _setjmp
PUBLIC 25981 0 _longjmp
PUBLIC 25a35 0 signal
PUBLIC 25abd 0 gsignal
PUBLIC 25b11 0 killpg
PUBLIC 25c35 0 sigaction
PUBLIC 25c59 0 sigprocmask
PUBLIC 25cc1 0 kill
PUBLIC 25ce1 0 sigpending
PUBLIC 25d11 0 sigsuspend
PUBLIC 25e1d 0 sigwait
PUBLIC 25e51 0 sigblock
PUBLIC 25e7d 0 sigsetmask
PUBLIC 25eed 0 __sigpause
PUBLIC 25f21 0 sigpause
PUBLIC 25f25 0 __xpg_sigpause
PUBLIC 25f29 0 sigvec
PUBLIC 25fad 0 sigstack
PUBLIC 26001 0 sigaltstack
PUBLIC 26021 0 siginterrupt
PUBLIC 2609d 0 __sigismember
PUBLIC 260b9 0 __sigaddset
PUBLIC 260dd 0 __sigdelset
PUBLIC 26101 0 sigemptyset
PUBLIC 26129 0 sigfillset
PUBLIC 26165 0 sigaddset
PUBLIC 261b1 0 sigdelset
PUBLIC 26201 0 sigismember
PUBLIC 26249 0 sigreturn
PUBLIC 26261 0 siggetmask
PUBLIC 26269 0 sysv_signal
PUBLIC 262c9 0 sigisemptyset
PUBLIC 26301 0 sigandset
PUBLIC 26349 0 sigorset
PUBLIC 26391 0 __libc_current_sigrtmin_private
PUBLIC 2639d 0 __libc_current_sigrtmax
PUBLIC 263a9 0 __libc_allocate_rtsig_private
PUBLIC 26445 0 sigtimedwait
PUBLIC 264ed 0 sigwaitinfo
PUBLIC 26521 0 sigqueue
PUBLIC 2657d 0 sighold
PUBLIC 265b1 0 sigrelse
PUBLIC 265e5 0 sigignore
PUBLIC 26611 0 sigset
PUBLIC 26711 0 __default_sa_restorer_v1
PUBLIC 26721 0 __default_sa_restorer_v2
PUBLIC 26731 0 __default_rt_sa_restorer_v1
PUBLIC 26741 0 __default_rt_sa_restorer_v2
PUBLIC 282c5 0 atof
PUBLIC 282cd 0 atoi
PUBLIC 282d5 0 atol
PUBLIC 282dd 0 atoll
PUBLIC 282e5 0 abort
PUBLIC 284d5 0 bsearch
PUBLIC 289b9 0 qsort_r
PUBLIC 28bc1 0 qsort
PUBLIC 28bd1 0 getenv
PUBLIC 28c6d 0 putenv
PUBLIC 2916d 0 setenv
PUBLIC 291b1 0 unsetenv
PUBLIC 292b1 0 clearenv
PUBLIC 2936d 0 __libc_secure_getenv
PUBLIC 29425 0 exit
PUBLIC 29435 0 on_exit
PUBLIC 295cd 0 __cxa_atexit
PUBLIC 295d9 0 __cxa_finalize
PUBLIC 296c1 0 quick_exit
PUBLIC 296d1 0 __cxa_at_quick_exit
PUBLIC 296e1 0 __cxa_thread_atexit_impl
PUBLIC 297a5 0 __call_tls_dtors
PUBLIC 29845 0 abs
PUBLIC 2984d 0 labs
PUBLIC 29855 0 llabs
PUBLIC 29865 0 div
PUBLIC 29895 0 ldiv
PUBLIC 298c5 0 imaxdiv
PUBLIC 2991d 0 srand
PUBLIC 299b1 0 initstate
PUBLIC 29a61 0 setstate
PUBLIC 29b05 0 random
PUBLIC 29b9d 0 setstate_r
PUBLIC 29c41 0 random_r
PUBLIC 29cc5 0 srandom_r
PUBLIC 29d79 0 initstate_r
PUBLIC 29e2d 0 rand
PUBLIC 29e31 0 rand_r
PUBLIC 29e79 0 drand48
PUBLIC 29e99 0 erand48
PUBLIC 29eb5 0 lrand48
PUBLIC 29ed1 0 nrand48
PUBLIC 29eed 0 mrand48
PUBLIC 29f09 0 jrand48
PUBLIC 29f25 0 srand48
PUBLIC 29f31 0 seed48
PUBLIC 29f45 0 lcong48
PUBLIC 29f51 0 drand48_r
PUBLIC 29f59 0 erand48_r
PUBLIC 29fad 0 lrand48_r
PUBLIC 29fbd 0 nrand48_r
PUBLIC 29fe1 0 mrand48_r
PUBLIC 29ff1 0 jrand48_r
PUBLIC 2a019 0 srand48_r
PUBLIC 2a049 0 seed48_r
PUBLIC 2a089 0 lcong48_r
PUBLIC 2a139 0 __strtol_internal
PUBLIC 2a159 0 strtol
PUBLIC 2a179 0 __strtoul_internal
PUBLIC 2a199 0 strtoul
PUBLIC 2a1b9 0 __strtoll_internal
PUBLIC 2a1d9 0 strtoll
PUBLIC 2a1f9 0 __strtoull_internal
PUBLIC 2a219 0 strtouq
PUBLIC 2a581 0 strtol_l
PUBLIC 2a891 0 strtoul_l
PUBLIC 2ad6d 0 strtoll_l
PUBLIC 2b1ed 0 strtoull_l
PUBLIC 2b201 0 __strtof_internal
PUBLIC 2b21d 0 strtof
PUBLIC 2b239 0 __strtod_internal
PUBLIC 2b255 0 strtod
PUBLIC 2b271 0 __strtold_internal
PUBLIC 2b28d 0 strtold
PUBLIC 2d331 0 strtof_l
PUBLIC 2f58d 0 __strtod_l
PUBLIC 2f599 0 strtold_l
PUBLIC 2fa9d 0 __libc_system
PUBLIC 2fae5 0 realpath
PUBLIC 2fe99 0 canonicalize_file_name
PUBLIC 2fea1 0 a64l
PUBLIC 2fed9 0 l64a
PUBLIC 2ff19 0 getsubopt
PUBLIC 2ffc5 0 __xpg_basename
PUBLIC 30059 0 strtoimax
PUBLIC 30061 0 strtoumax
PUBLIC 30071 0 getcontext
PUBLIC 300f0 0 setcontext
PUBLIC 30191 0 makecontext
PUBLIC 30241 0 swapcontext
PUBLIC 30271 0 strfmon
PUBLIC 30ea5 0 strfmon_l
PUBLIC 30ec5 0 mblen
PUBLIC 30f3d 0 mbstowcs
PUBLIC 30f59 0 mbtowc
PUBLIC 30fc9 0 wcstombs
PUBLIC 30fe5 0 wctomb
PUBLIC 31045 0 wcstoimax
PUBLIC 3104d 0 wcstoumax
PUBLIC 310b1 0 rpmatch
PUBLIC 31351 0 fmtmsg
PUBLIC 317ed 0 addseverity
PUBLIC 31afd 0 ctermid
PUBLIC 31b21 0 cuserid
PUBLIC 323f9 0 _IO_vfprintf
PUBLIC 35d3d 0 vprintf
PUBLIC 35e7d 0 __printf_fp
PUBLIC 375a9 0 register_printf_specifier
PUBLIC 376a9 0 register_printf_function
PUBLIC 376ad 0 parse_printf_format
PUBLIC 384e1 0 register_printf_modifier
PUBLIC 387bd 0 register_printf_type
PUBLIC 388a9 0 printf_size
PUBLIC 38d45 0 printf_size_info
PUBLIC 38d5d 0 _IO_fprintf
PUBLIC 38d7d 0 _IO_printf
PUBLIC 38dad 0 snprintf
PUBLIC 38dcd 0 sprintf
PUBLIC 38ded 0 asprintf
PUBLIC 38e0d 0 dprintf
PUBLIC 38e2d 0 _IO_vfscanf
PUBLIC 3e1e9 0 vfscanf
PUBLIC 3e1f1 0 fscanf
PUBLIC 3e211 0 scanf
PUBLIC 3e245 0 _IO_sscanf
PUBLIC 3e2b9 0 perror
PUBLIC 3e351 0 psignal
PUBLIC 3e429 0 tmpfile
PUBLIC 3e491 0 tmpfile64
PUBLIC 3e4f9 0 tmpnam
PUBLIC 3e54d 0 tmpnam_r
PUBLIC 3e57d 0 tempnam
PUBLIC 3e975 0 getline
PUBLIC 3e97d 0 getw
PUBLIC 3e9a1 0 putw
PUBLIC 3e9c5 0 remove
PUBLIC 3ea01 0 rename
PUBLIC 3eb81 0 renameat
PUBLIC 3ecc9 0 flockfile
PUBLIC 3ed0d 0 ftrylockfile
PUBLIC 3ed5d 0 _IO_funlockfile
PUBLIC 3edad 0 __isoc99_scanf
PUBLIC 3eef5 0 __isoc99_vscanf
PUBLIC 3f035 0 __isoc99_fscanf
PUBLIC 3f165 0 __isoc99_vfscanf
PUBLIC 3f285 0 __isoc99_sscanf
PUBLIC 3f2a5 0 __isoc99_vsscanf
PUBLIC 3f2fd 0 psiginfo
PUBLIC 3f6f1 0 vfwprintf
PUBLIC 47d21 0 vfwscanf
PUBLIC 487f9 0 _IO_file_doallocate
PUBLIC 488b1 0 fclose
PUBLIC 48ab9 0 fdopen
PUBLIC 48c45 0 fflush
PUBLIC 48d59 0 fgetpos
PUBLIC 48f21 0 fgets
PUBLIC 49135 0 fopen
PUBLIC 49235 0 fopencookie
PUBLIC 492b9 0 fputs
PUBLIC 493e1 0 fread
PUBLIC 4950d 0 fsetpos
PUBLIC 49675 0 ftell
PUBLIC 49809 0 fwrite
PUBLIC 49955 0 getdelim
PUBLIC 49b85 0 _IO_getline_info
PUBLIC 49c71 0 _IO_getline
PUBLIC 49c85 0 gets
PUBLIC 49e15 0 _IO_padn
PUBLIC 49e95 0 _IO_proc_close
PUBLIC 4a0a5 0 _IO_proc_open
PUBLIC 4a415 0 popen
PUBLIC 4a465 0 _IO_puts
PUBLIC 4a679 0 _IO_seekoff
PUBLIC 4a7dd 0 _IO_seekpos
PUBLIC 4a8f5 0 setbuffer
PUBLIC 4aa21 0 _IO_setvbuf
PUBLIC 4aba9 0 _IO_ungetc
PUBLIC 4aca9 0 vsprintf
PUBLIC 4ad15 0 vsscanf
PUBLIC 4ad65 0 _IO_fgetpos64
PUBLIC 4af09 0 fopen64
PUBLIC 4af11 0 fsetpos64
PUBLIC 4b07d 0 putchar
PUBLIC 4b1ad 0 putchar_unlocked
PUBLIC 4b531 0 clearerr
PUBLIC 4b5e5 0 _IO_feof
PUBLIC 4b691 0 _IO_ferror
PUBLIC 4b73d 0 fileno_unlocked
PUBLIC 4b765 0 fputc
PUBLIC 4b87d 0 freopen
PUBLIC 4badd 0 fseek
PUBLIC 4bbf9 0 getc
PUBLIC 4bd09 0 getchar
PUBLIC 4beb1 0 open_memstream
PUBLIC 4bf39 0 pclose
PUBLIC 4bf3d 0 _IO_putc
PUBLIC 4c055 0 rewind
PUBLIC 4c165 0 setbuf
PUBLIC 4c16d 0 setlinebuf
PUBLIC 4c179 0 vasprintf
PUBLIC 4c25d 0 vdprintf
PUBLIC 4c325 0 vscanf
PUBLIC 4c37d 0 vsnprintf
PUBLIC 4c4a1 0 obstack_vprintf
PUBLIC 4c599 0 obstack_printf
PUBLIC 4c5b9 0 fcloseall
PUBLIC 4c5bd 0 fseeko
PUBLIC 4c6d9 0 ftello
PUBLIC 4c86d 0 freopen64
PUBLIC 4cac5 0 fseeko64
PUBLIC 4cbe9 0 ftello64
PUBLIC 4cd55 0 __fbufsize
PUBLIC 4cd75 0 __freading
PUBLIC 4cd99 0 __fwriting
PUBLIC 4cda5 0 __freadable
PUBLIC 4cdb5 0 __fwritable
PUBLIC 4cdc5 0 __flbf
PUBLIC 4cdcd 0 __fpurge
PUBLIC 4ce05 0 __fpending
PUBLIC 4ce25 0 __fsetlocking
PUBLIC 4d035 0 __libc_fatal
PUBLIC 4d219 0 fmemopen
PUBLIC 4d30d 0 clearerr_unlocked
PUBLIC 4d319 0 feof_unlocked
PUBLIC 4d321 0 ferror_unlocked
PUBLIC 4d329 0 fputc_unlocked
PUBLIC 4d351 0 getc_unlocked
PUBLIC 4d365 0 getchar_unlocked
PUBLIC 4d385 0 fflush_unlocked
PUBLIC 4d3a5 0 putc_unlocked
PUBLIC 4d3cd 0 _IO_peekc_locked
PUBLIC 4d4e1 0 fread_unlocked
PUBLIC 4d50d 0 fwrite_unlocked
PUBLIC 4d551 0 fgets_unlocked
PUBLIC 4d5c1 0 fputs_unlocked
PUBLIC 4d6e5 0 swprintf
PUBLIC 4d73d 0 vswprintf
PUBLIC 4d7ad 0 vswscanf
PUBLIC 4d7fd 0 swscanf
PUBLIC 4d971 0 _IO_least_wmarker
PUBLIC 4d98d 0 _IO_switch_to_main_wget_area
PUBLIC 4d9b1 0 _IO_switch_to_wbackup_area
PUBLIC 4d9d5 0 _IO_wsetb
PUBLIC 4da31 0 _IO_wdefault_pbackfail
PUBLIC 4db1d 0 _IO_wdefault_finish
PUBLIC 4db75 0 _IO_wdefault_uflow
PUBLIC 4db95 0 __woverflow
PUBLIC 4dbb5 0 _IO_wdefault_xsputn
PUBLIC 4dc55 0 _IO_wdoallocbuf
PUBLIC 4dc85 0 _IO_wdefault_doallocate
PUBLIC 4dcbd 0 _IO_switch_to_wget_mode
PUBLIC 4dd09 0 _IO_free_wbackup_area
PUBLIC 4dd45 0 __wuflow
PUBLIC 4ddf1 0 __wunderflow
PUBLIC 4de95 0 _IO_wdefault_xsgetn
PUBLIC 4df09 0 _IO_sputbackwc
PUBLIC 4df3d 0 _IO_sungetwc
PUBLIC 4df71 0 _IO_adjust_wcolumn
PUBLIC 4dfa5 0 _IO_init_wmarker
PUBLIC 4dfd9 0 _IO_wmarker_delta
PUBLIC 4dffd 0 _IO_seekwmark
PUBLIC 4e065 0 _IO_unsave_wmarkers
PUBLIC 4e5ad 0 _IO_wfile_underflow
PUBLIC 4ea1d 0 _IO_wfile_seekoff
PUBLIC 4f0a1 0 _IO_wdo_write
PUBLIC 4f159 0 _IO_wfile_overflow
PUBLIC 4f2dd 0 _IO_wfile_sync
PUBLIC 4f3b5 0 _IO_wfile_xsputn
PUBLIC 4f54d 0 open_wmemstream
PUBLIC 4f5e9 0 fputwc
PUBLIC 4f715 0 fputwc_unlocked
PUBLIC 4f751 0 fgetwc
PUBLIC 4f865 0 getwc_unlocked
PUBLIC 4f87d 0 getwchar
PUBLIC 4f9ad 0 getwchar_unlocked
PUBLIC 4f9d1 0 fgetws
PUBLIC 4fb35 0 fgetws_unlocked
PUBLIC 4fba5 0 fputws
PUBLIC 4fcc9 0 fputws_unlocked
PUBLIC 4fe1d 0 ungetwc
PUBLIC 4ff25 0 putwc
PUBLIC 50041 0 putwc_unlocked
PUBLIC 50065 0 putwchar
PUBLIC 50199 0 putwchar_unlocked
PUBLIC 501c5 0 fwprintf
PUBLIC 501e5 0 vwprintf
PUBLIC 50205 0 wprintf
PUBLIC 50235 0 wscanf
PUBLIC 50269 0 fwscanf
PUBLIC 50289 0 vwscanf
PUBLIC 502a5 0 fwide
PUBLIC 503fd 0 _IO_file_sync
PUBLIC 50495 0 _IO_file_close
PUBLIC 504c5 0 _IO_file_setbuf
PUBLIC 505c5 0 _IO_file_seekoff
PUBLIC 50b3d 0 _IO_file_seek
PUBLIC 50cfd 0 _IO_file_stat
PUBLIC 50d09 0 _IO_file_write
PUBLIC 51061 0 _IO_file_read
PUBLIC 510a1 0 _IO_file_xsputn
PUBLIC 511b1 0 _IO_file_init
PUBLIC 511d9 0 _IO_file_close_it
PUBLIC 512b1 0 _IO_file_finish
PUBLIC 51305 0 _IO_file_open
PUBLIC 513e5 0 _IO_file_fopen
PUBLIC 5177d 0 _IO_file_attach
PUBLIC 51801 0 _IO_do_write
PUBLIC 51819 0 _IO_file_underflow
PUBLIC 51a09 0 _IO_file_overflow
PUBLIC 51bf9 0 _IO_un_link
PUBLIC 51e11 0 _IO_link_in
PUBLIC 52141 0 _IO_switch_to_get_mode
PUBLIC 52189 0 _IO_free_backup_area
PUBLIC 521a9 0 __overflow
PUBLIC 521c1 0 __underflow
PUBLIC 52231 0 __uflow
PUBLIC 522a5 0 _IO_setb
PUBLIC 522f5 0 _IO_doallocbuf
PUBLIC 52335 0 _IO_default_uflow
PUBLIC 52351 0 _IO_default_xsputn
PUBLIC 523cd 0 _IO_sgetn
PUBLIC 523d9 0 _IO_default_xsgetn
PUBLIC 524c1 0 _IO_default_doallocate
PUBLIC 52575 0 _IO_init
PUBLIC 52591 0 _IO_default_finish
PUBLIC 525ed 0 _IO_sputbackc
PUBLIC 52625 0 _IO_sungetc
PUBLIC 52655 0 _IO_adjust_column
PUBLIC 529f1 0 _IO_flush_all
PUBLIC 529f9 0 _IO_flush_all_linebuffered
PUBLIC 52c01 0 _IO_init_marker
PUBLIC 52c31 0 _IO_remove_marker
PUBLIC 52c59 0 _IO_marker_difference
PUBLIC 52c61 0 _IO_marker_delta
PUBLIC 52c81 0 _IO_seekmark
PUBLIC 52cc5 0 _IO_unsave_markers
PUBLIC 52cd9 0 _IO_default_pbackfail
PUBLIC 52dad 0 _IO_iter_begin
PUBLIC 52db9 0 _IO_iter_end
PUBLIC 52dbd 0 _IO_iter_next
PUBLIC 52dc1 0 _IO_iter_file
PUBLIC 52dc5 0 _IO_list_lock
PUBLIC 52e25 0 _IO_list_unlock
PUBLIC 52e89 0 _IO_list_resetlock
PUBLIC 52e9d 0 _IO_str_underflow
PUBLIC 52edd 0 _IO_str_overflow
PUBLIC 5311d 0 _IO_str_pbackfail
PUBLIC 531a5 0 _IO_str_init_static
PUBLIC 531ad 0 _IO_str_init_readonly
PUBLIC 531d9 0 _IO_str_seekoff
PUBLIC 56c35 0 __libc_malloc
PUBLIC 56e81 0 malloc_get_state
PUBLIC 57015 0 cfree
PUBLIC 57095 0 realloc
PUBLIC 57295 0 __libc_memalign
PUBLIC 57419 0 __libc_calloc
PUBLIC 576b1 0 malloc_usable_size
PUBLIC 57751 0 __libc_mallopt
PUBLIC 57d8d 0 malloc_set_state
PUBLIC 581cd 0 __libc_valloc
PUBLIC 58371 0 pvalloc
PUBLIC 58519 0 malloc_trim
PUBLIC 58735 0 __libc_mallinfo
PUBLIC 58805 0 malloc_stats
PUBLIC 589bd 0 posix_memalign
PUBLIC 58a05 0 malloc_info
PUBLIC 58a91 0 __default_morecore
PUBLIC 58bcd 0 mcheck_check_all
PUBLIC 5901d 0 mcheck
PUBLIC 590e5 0 mcheck_pedantic
PUBLIC 590fd 0 mprobe
PUBLIC 596e1 0 tr_break
PUBLIC 596e5 0 mtrace
PUBLIC 59845 0 muntrace
PUBLIC 59915 0 _obstack_begin
PUBLIC 59999 0 _obstack_begin_1
PUBLIC 59a29 0 _obstack_newchunk
PUBLIC 59b19 0 _obstack_allocated_p
PUBLIC 59b35 0 obstack_free
PUBLIC 59b95 0 _obstack_memory_used
PUBLIC 59bad 0 strcat
PUBLIC 59be1 0 index
PUBLIC 59c91 0 strcmp
PUBLIC 59ca9 0 strcoll
PUBLIC 59cc1 0 __stpcpy
PUBLIC 59cd1 0 strcpy
PUBLIC 59ee1 0 strcspn
PUBLIC 59f09 0 __strverscmp
PUBLIC 59fc9 0 __strdup
PUBLIC 59fe9 0 strndup
PUBLIC 5a00d 0 strerror
PUBLIC 5a085 0 __strerror_r
PUBLIC 5a191 0 strlen
PUBLIC 5a211 0 strnlen
PUBLIC 5a299 0 strncat
PUBLIC 5a311 0 strncmp
PUBLIC 5a3dd 0 strncpy
PUBLIC 5a461 0 strrchr
PUBLIC 5a511 0 strpbrk
PUBLIC 5a5ad 0 strsignal
PUBLIC 5a719 0 strspn
PUBLIC 5aa3d 0 strstr
PUBLIC 5acd9 0 strtok
PUBLIC 5ad45 0 strtok_r
PUBLIC 5ad8d 0 strxfrm
PUBLIC 5adb1 0 memchr
PUBLIC 5ae51 0 memcmp
PUBLIC 5b150 0 memmove
PUBLIC 5b490 0 memset
PUBLIC 5b511 0 mempcpy
PUBLIC 5b51d 0 bcopy
PUBLIC 5b5f5 0 bzero
PUBLIC 5b681 0 ffs
PUBLIC 5b691 0 ffsll
PUBLIC 5b6b1 0 stpncpy
PUBLIC 5b735 0 __strcasecmp
PUBLIC 5b779 0 strncasecmp
PUBLIC 5b7c9 0 __strcasecmp_l
PUBLIC 5b7fd 0 __strncasecmp_l
PUBLIC 5b83d 0 memccpy
PUBLIC 5b8c0 0 __aeabi_memcpy4
PUBLIC 5c005 0 __strsep_g
PUBLIC 5c439 0 strcasestr
PUBLIC 5c74d 0 swab
PUBLIC 5c779 0 strfry
PUBLIC 5c7fd 0 memfrob
PUBLIC 5cad9 0 memmem
PUBLIC 5ccc1 0 __rawmemchr
PUBLIC 5cd41 0 strchrnul
PUBLIC 5cde5 0 argz_append
PUBLIC 5ce1d 0 argz_add
PUBLIC 5ce3d 0 argz_count
PUBLIC 5ce61 0 argz_create
PUBLIC 5cec9 0 argz_create_sep
PUBLIC 5cf5d 0 argz_next
PUBLIC 5cf85 0 argz_delete
PUBLIC 5cfbd 0 argz_extract
PUBLIC 5cfe1 0 argz_insert
PUBLIC 5d079 0 argz_stringify
PUBLIC 5d0a1 0 argz_add_sep
PUBLIC 5d16d 0 argz_replace
PUBLIC 5d325 0 basename
PUBLIC 5d339 0 strcoll_l
PUBLIC 5de69 0 strxfrm_l
PUBLIC 5e5d1 0 __mempcpy_small
PUBLIC 5e679 0 __strcpy_small
PUBLIC 5e725 0 __stpcpy_small
PUBLIC 5e7d1 0 __strcspn_c1
PUBLIC 5e7f9 0 __strcspn_c2
PUBLIC 5e82d 0 __strcspn_c3
PUBLIC 5e869 0 __strspn_c1
PUBLIC 5e889 0 __strspn_c2
PUBLIC 5e8a5 0 __strspn_c3
PUBLIC 5e8c1 0 __strpbrk_c2
PUBLIC 5e8ed 0 __strpbrk_c3
PUBLIC 5e921 0 __strtok_r_1c
PUBLIC 5e971 0 __strsep_1c
PUBLIC 5e991 0 __strsep_2c
PUBLIC 5e9cd 0 __strsep_3c
PUBLIC 5ea11 0 memrchr
PUBLIC 5eabd 0 __xpg_strerror_r
PUBLIC 5eb7d 0 strerror_l
PUBLIC 5ec2d 0 envz_entry
PUBLIC 5ec9d 0 envz_get
PUBLIC 5ecc9 0 envz_remove
PUBLIC 5ece9 0 envz_add
PUBLIC 5ed7d 0 envz_merge
PUBLIC 5eded 0 envz_strip
PUBLIC 5f941 0 wmemcpy
PUBLIC 5f949 0 wmemset
PUBLIC 5f98d 0 wcscat
PUBLIC 5f9b5 0 wcschr
PUBLIC 5f9cd 0 wcscmp
PUBLIC 5f9e9 0 wcscpy
PUBLIC 5fa01 0 wcscspn
PUBLIC 5fa29 0 wcsdup
PUBLIC 5fa4d 0 wcslen
PUBLIC 5fa99 0 wcsncat
PUBLIC 5fb0d 0 wcsncmp
PUBLIC 5fbd1 0 wcsncpy
PUBLIC 5fc59 0 wcspbrk
PUBLIC 5fc81 0 wcsrchr
PUBLIC 5fc9d 0 wcsspn
PUBLIC 5fcd9 0 wcstok
PUBLIC 5fd35 0 wcswcs
PUBLIC 5fde9 0 wmemchr
PUBLIC 5fe65 0 wmemcmp
PUBLIC 5fee5 0 wmemmove
PUBLIC 5feed 0 wcpcpy
PUBLIC 5ff09 0 wcpncpy
PUBLIC 5ff99 0 wmempcpy
PUBLIC 5ffa1 0 btowc
PUBLIC 6007d 0 wctob
PUBLIC 60139 0 mbsinit
PUBLIC 6014d 0 __mbrlen
PUBLIC 6016d 0 mbrtowc
PUBLIC 602c9 0 wcrtomb
PUBLIC 603fd 0 mbsrtowcs
PUBLIC 60429 0 wcsrtombs
PUBLIC 60621 0 mbsnrtowcs
PUBLIC 60821 0 wcsnrtombs
PUBLIC 60a01 0 wcsnlen
PUBLIC 60a75 0 wcschrnul
PUBLIC 60a91 0 __wcstol_internal
PUBLIC 60ab1 0 wcstol
PUBLIC 60ad1 0 __wcstoul_internal
PUBLIC 60af1 0 wcstoul
PUBLIC 60b11 0 __wcstoll_internal
PUBLIC 60b31 0 wcstoll
PUBLIC 60b51 0 __wcstoull_internal
PUBLIC 60b71 0 wcstouq
PUBLIC 60b91 0 __wcstod_internal
PUBLIC 60bad 0 wcstod
PUBLIC 60bc9 0 __wcstold_internal
PUBLIC 60be5 0 wcstold
PUBLIC 60c01 0 __wcstof_internal
PUBLIC 60c1d 0 wcstof
PUBLIC 60f0d 0 __wcstol_l
PUBLIC 611a1 0 wcstoul_l
PUBLIC 615f1 0 wcstoll_l
PUBLIC 619d5 0 __wcstoull_l
PUBLIC 63a3d 0 __wcstod_l
PUBLIC 63a49 0 wcstold_l
PUBLIC 65891 0 __wcstof_l
PUBLIC 65899 0 wcscoll
PUBLIC 658ad 0 wcsxfrm
PUBLIC 658c9 0 wcwidth
PUBLIC 65929 0 wcswidth
PUBLIC 659c9 0 __wcscoll_l
PUBLIC 662dd 0 wcsxfrm_l
PUBLIC 668c1 0 wcscasecmp
PUBLIC 668f1 0 wcsncasecmp
PUBLIC 66935 0 __wcscasecmp_l
PUBLIC 66969 0 wcsncasecmp_l
PUBLIC 66ebd 0 __isoc99_swscanf
PUBLIC 66edd 0 __isoc99_vswscanf
PUBLIC 66f35 0 mbrtoc16
PUBLIC 670dd 0 c16rtomb
PUBLIC 670f1 0 __isoc99_wscanf
PUBLIC 67239 0 __isoc99_vwscanf
PUBLIC 67379 0 __isoc99_fwscanf
PUBLIC 674a9 0 __isoc99_vfwscanf
PUBLIC 6792d 0 asctime_r
PUBLIC 67931 0 asctime
PUBLIC 6793d 0 clock
PUBLIC 67979 0 ctime
PUBLIC 67989 0 ctime_r
PUBLIC 679a1 0 difftime
PUBLIC 679c1 0 __gmtime_r
PUBLIC 679c9 0 gmtime
PUBLIC 679d9 0 localtime_r
PUBLIC 679e1 0 localtime
PUBLIC 67f4d 0 timelocal
PUBLIC 67f71 0 time
PUBLIC 67f91 0 __gettimeofday
PUBLIC 67fb1 0 settimeofday
PUBLIC 67fd1 0 adjtime
PUBLIC 68b69 0 tzset
PUBLIC 69cb1 0 getitimer
PUBLIC 69cd1 0 setitimer
PUBLIC 69cf1 0 stime
PUBLIC 69d25 0 dysize
PUBLIC 69d75 0 timegm
PUBLIC 69d8d 0 ftime
PUBLIC 69de5 0 getdate_r
PUBLIC 6a1dd 0 getdate
PUBLIC 6a20d 0 strptime
PUBLIC 6c7f1 0 strptime_l
PUBLIC 6c805 0 strftime
PUBLIC 6da59 0 strftime_l
PUBLIC 6da75 0 timespec_get
PUBLIC 6da9d 0 wcsftime
PUBLIC 6ed19 0 wcsftime_l
PUBLIC 6f2a9 0 ntp_gettime
PUBLIC 6f2d9 0 ntp_gettimex
PUBLIC 6f42d 0 opendir
PUBLIC 6f439 0 closedir
PUBLIC 6f485 0 readdir
PUBLIC 6f569 0 readdir_r
PUBLIC 6f691 0 rewinddir
PUBLIC 6f711 0 seekdir
PUBLIC 6f791 0 telldir
PUBLIC 6f795 0 scandir
PUBLIC 6f7b1 0 alphasort
PUBLIC 6f7bd 0 versionsort
PUBLIC 6f859 0 dirfd
PUBLIC 6f85d 0 readdir64
PUBLIC 6f951 0 readdir64_r
PUBLIC 6fa9d 0 scandir64
PUBLIC 6fab9 0 alphasort64
PUBLIC 6fac5 0 versionsort64
PUBLIC 6fad1 0 fdopendir
PUBLIC 6fb75 0 scandirat
PUBLIC 6fc99 0 scandirat64
PUBLIC 6fdbd 0 getdirentries
PUBLIC 6fde9 0 getdirentries64
PUBLIC 6fe21 0 fgetgrent
PUBLIC 703cd 0 getgrouplist
PUBLIC 70435 0 initgroups
PUBLIC 704b1 0 setgroups
PUBLIC 70509 0 getgrent
PUBLIC 705d1 0 getgrgid
PUBLIC 70711 0 getgrnam
PUBLIC 70851 0 putgrent
PUBLIC 70a59 0 setgrent
PUBLIC 70b21 0 endgrent
PUBLIC 70be9 0 getgrent_r
PUBLIC 70cdd 0 getgrgid_r
PUBLIC 70e51 0 getgrnam_r
PUBLIC 70fc5 0 _nss_files_parse_grent
PUBLIC 71195 0 fgetgrent_r
PUBLIC 713a5 0 fgetpwent
PUBLIC 71531 0 getpw
PUBLIC 715b1 0 putpwent
PUBLIC 71695 0 getpwent
PUBLIC 7175d 0 getpwnam
PUBLIC 7189d 0 getpwuid
PUBLIC 719dd 0 setpwent
PUBLIC 71aa5 0 endpwent
PUBLIC 71b6d 0 getpwent_r
PUBLIC 71c61 0 getpwnam_r
PUBLIC 71dd5 0 getpwuid_r
PUBLIC 71f49 0 _nss_files_parse_pwent
PUBLIC 720c9 0 fgetpwent_r
PUBLIC 722c1 0 uname
PUBLIC 722e1 0 times
PUBLIC 72321 0 wait
PUBLIC 723a9 0 waitpid
PUBLIC 72425 0 wait3
PUBLIC 72441 0 wait4
PUBLIC 72461 0 waitid
PUBLIC 724e9 0 alarm
PUBLIC 72529 0 sleep
PUBLIC 72701 0 pause
PUBLIC 72781 0 nanosleep
PUBLIC 727e1 0 __libc_fork
PUBLIC 72a31 0 vfork
PUBLIC 72a71 0 _exit
PUBLIC 72ac9 0 execve
PUBLIC 72af5 0 fexecve
PUBLIC 72b8d 0 execv
PUBLIC 72ba5 0 execle
PUBLIC 72c99 0 execl
PUBLIC 72d91 0 execvp
PUBLIC 72da9 0 execlp
PUBLIC 72e81 0 execvpe
PUBLIC 73179 0 getpid
PUBLIC 731b1 0 getppid
PUBLIC 731c1 0 getuid
PUBLIC 731d1 0 geteuid
PUBLIC 731e1 0 getgid
PUBLIC 731f1 0 getegid
PUBLIC 73201 0 getgroups
PUBLIC 7322d 0 setuid
PUBLIC 73281 0 setgid
PUBLIC 732d5 0 group_member
PUBLIC 73321 0 getpgid
PUBLIC 73341 0 setpgid
PUBLIC 73361 0 getpgrp
PUBLIC 73371 0 __bsd_getpgrp
PUBLIC 73375 0 setpgrp
PUBLIC 73381 0 getsid
PUBLIC 733a1 0 setsid
PUBLIC 733c1 0 getresuid
PUBLIC 733ed 0 getresgid
PUBLIC 73419 0 setresuid
PUBLIC 73471 0 setresgid
PUBLIC 739f9 0 pathconf
PUBLIC 73b55 0 __sysconf
PUBLIC 74209 0 fpathconf
PUBLIC 74481 0 globfree
PUBLIC 749e1 0 glob
PUBLIC 75abd 0 glob_pattern_p
PUBLIC 76061 0 globfree64
PUBLIC 76091 0 glob64
PUBLIC 791c9 0 fnmatch
PUBLIC 79451 0 confstr
PUBLIC 7a30d 0 getopt
PUBLIC 7a325 0 __posix_getopt
PUBLIC 7a33d 0 getopt_long
PUBLIC 7a371 0 getopt_long_only
PUBLIC 7a3b1 0 sched_setparam
PUBLIC 7a3d1 0 __sched_getparam
PUBLIC 7a3f1 0 sched_setscheduler
PUBLIC 7a411 0 __sched_getscheduler
PUBLIC 7a431 0 __sched_yield
PUBLIC 7a451 0 __sched_get_priority_max
PUBLIC 7a471 0 sched_get_priority_min
PUBLIC 7a491 0 sched_rr_get_interval
PUBLIC 7a4b1 0 sched_getaffinity
PUBLIC 7a4f5 0 sched_setaffinity
PUBLIC 7a5f9 0 pread
PUBLIC 7a685 0 __libc_pwrite
PUBLIC 7a711 0 pread64
PUBLIC 7a799 0 __pwrite64
PUBLIC 7a821 0 posix_madvise
PUBLIC 7a859 0 __sched_cpucount
PUBLIC 7a8b1 0 __sched_cpualloc
PUBLIC 7a8bd 0 __sched_cpufree
PUBLIC 7d04d 0 freeaddrinfo
PUBLIC 7d06d 0 getaddrinfo
PUBLIC 7d7b5 0 gai_strerror
PUBLIC 86145 0 re_compile_pattern
PUBLIC 861a1 0 re_set_syntax
PUBLIC 861b9 0 re_compile_fastmap
PUBLIC 865d1 0 regcomp
PUBLIC 86681 0 regerror
PUBLIC 866dd 0 regfree
PUBLIC 86701 0 re_comp
PUBLIC 86815 0 regexec
PUBLIC 86915 0 re_match
PUBLIC 86931 0 re_search
PUBLIC 8694d 0 re_match_2
PUBLIC 86971 0 re_search_2
PUBLIC 86995 0 re_set_registers
PUBLIC 869c1 0 re_exec
PUBLIC 86a0d 0 posix_spawn_file_actions_init
PUBLIC 86a1d 0 posix_spawn_file_actions_destroy
PUBLIC 86a29 0 posix_spawn_file_actions_addclose
PUBLIC 86a79 0 posix_spawn_file_actions_addopen
PUBLIC 86ae5 0 posix_spawn_file_actions_adddup2
PUBLIC 86b3d 0 posix_spawnattr_init
PUBLIC 86b4d 0 posix_spawnattr_destroy
PUBLIC 86b51 0 posix_spawnattr_getsigdefault
PUBLIC 86b65 0 posix_spawnattr_setsigdefault
PUBLIC 86b75 0 posix_spawnattr_getflags
PUBLIC 86b7d 0 posix_spawnattr_setflags
PUBLIC 86b8d 0 posix_spawnattr_getpgroup
PUBLIC 86b95 0 posix_spawnattr_setpgroup
PUBLIC 86b9d 0 posix_spawn
PUBLIC 86bb5 0 posix_spawnp
PUBLIC 870b1 0 posix_spawnattr_getsigmask
PUBLIC 870c5 0 posix_spawnattr_getschedpolicy
PUBLIC 870d1 0 posix_spawnattr_getschedparam
PUBLIC 870dd 0 posix_spawnattr_setsigmask
PUBLIC 870ed 0 posix_spawnattr_setschedpolicy
PUBLIC 870fd 0 posix_spawnattr_setschedparam
PUBLIC 88f89 0 wordfree
PUBLIC 88fb9 0 wordexp
PUBLIC 896a1 0 sched_getcpu
PUBLIC 896dd 0 utime
PUBLIC 896fd 0 mkfifo
PUBLIC 8971d 0 mkfifoat
PUBLIC 89741 0 __xstat
PUBLIC 897b1 0 __fxstat
PUBLIC 89821 0 __lxstat
PUBLIC 89891 0 __xstat64
PUBLIC 898c1 0 __fxstat64
PUBLIC 898f1 0 __lxstat64
PUBLIC 89921 0 __xmknod
PUBLIC 8997d 0 __xmknodat
PUBLIC 89aa5 0 __fxstatat
PUBLIC 89bdd 0 __fxstatat64
PUBLIC 89d01 0 __statfs
PUBLIC 89d21 0 fstatfs
PUBLIC 89d41 0 statfs64
PUBLIC 89d71 0 fstatfs64
PUBLIC 89da1 0 statvfs
PUBLIC 89de1 0 fstatvfs
PUBLIC 89e21 0 statvfs64
PUBLIC 89e61 0 fstatvfs64
PUBLIC 89ea1 0 umask
PUBLIC 89eb1 0 chmod
PUBLIC 89ed1 0 fchmod
PUBLIC 89ef1 0 fchmodat
PUBLIC 8a011 0 mkdir
PUBLIC 8a031 0 mkdirat
PUBLIC 8a131 0 __open
PUBLIC 8a191 0 __open_2
PUBLIC 8a1ad 0 __open64
PUBLIC 8a24d 0 __open64_2
PUBLIC 8a3b9 0 openat
PUBLIC 8a411 0 __openat_2
PUBLIC 8a519 0 openat64
PUBLIC 8a571 0 __openat64_2
PUBLIC 8a5b1 0 __read
PUBLIC 8a631 0 __write
PUBLIC 8a691 0 lseek
PUBLIC 8a6b1 0 access
PUBLIC 8a6d1 0 eaccess
PUBLIC 8a781 0 faccessat
PUBLIC 8a9a9 0 fcntl
PUBLIC 8aa51 0 flock
PUBLIC 8aa71 0 lockf
PUBLIC 8ab15 0 lockf64
PUBLIC 8ac31 0 close
PUBLIC 8ac91 0 dup
PUBLIC 8acb1 0 __dup2
PUBLIC 8acd1 0 dup3
PUBLIC 8acf1 0 pipe
PUBLIC 8ad11 0 pipe2
PUBLIC 8ad51 0 creat
PUBLIC 8adb1 0 creat64
PUBLIC 8adc1 0 chdir
PUBLIC 8ade1 0 fchdir
PUBLIC 8ae01 0 getcwd
PUBLIC 8b5e5 0 getwd
PUBLIC 8b641 0 get_current_dir_name
PUBLIC 8b6b1 0 chown
PUBLIC 8b6d1 0 fchown
PUBLIC 8b6fd 0 lchown
PUBLIC 8b729 0 fchownat
PUBLIC 8b835 0 ttyname
PUBLIC 8ba25 0 ttyname_r
PUBLIC 8bc5d 0 isatty
PUBLIC 8bc81 0 link
PUBLIC 8bca1 0 linkat
PUBLIC 8bdf1 0 symlink
PUBLIC 8be11 0 symlinkat
PUBLIC 8bef1 0 readlink
PUBLIC 8bf11 0 readlinkat
PUBLIC 8c001 0 unlink
PUBLIC 8c021 0 unlinkat
PUBLIC 8c121 0 rmdir
PUBLIC 8c161 0 __poll
PUBLIC 8c1c1 0 ppoll
PUBLIC 8c31d 0 posix_fadvise
PUBLIC 8c339 0 posix_fadvise64
PUBLIC 8c355 0 posix_fallocate
PUBLIC 8c4e1 0 posix_fallocate64
PUBLIC 8c6b1 0 sendfile
PUBLIC 8c6d1 0 sendfile64
PUBLIC 8c6f1 0 utimensat
PUBLIC 8c739 0 futimens
PUBLIC 8c789 0 lchmod
PUBLIC 8d285 0 ftw
PUBLIC 8d29d 0 nftw
PUBLIC 8ddcd 0 ftw64
PUBLIC 8dde5 0 nftw64
PUBLIC 8e629 0 fts_open
PUBLIC 8e85d 0 fts_close
PUBLIC 8e915 0 fts_read
PUBLIC 8ecd1 0 fts_set
PUBLIC 8ecf5 0 fts_children
PUBLIC 8f561 0 sync_file_range
PUBLIC 8f5ed 0 fallocate
PUBLIC 8f679 0 fallocate64
PUBLIC 8f701 0 cfgetospeed
PUBLIC 8f70d 0 cfgetispeed
PUBLIC 8f721 0 cfsetospeed
PUBLIC 8f765 0 cfsetispeed
PUBLIC 8f7cd 0 cfsetspeed
PUBLIC 8f835 0 tcsetattr
PUBLIC 8f8e9 0 tcgetattr
PUBLIC 8f98d 0 tcgetpgrp
PUBLIC 8f9ad 0 tcsetpgrp
PUBLIC 8f9c5 0 tcdrain
PUBLIC 8fa45 0 tcflow
PUBLIC 8fa51 0 tcflush
PUBLIC 8fa5d 0 tcsendbreak
PUBLIC 8fa91 0 cfmakeraw
PUBLIC 8facd 0 tcgetsid
PUBLIC 8fb71 0 getrlimit
PUBLIC 8fb91 0 setrlimit
PUBLIC 8fbbd 0 getrlimit64
PUBLIC 8fc59 0 setrlimit64
PUBLIC 8fcf1 0 getrusage
PUBLIC 8fd11 0 ulimit
PUBLIC 8fda1 0 vlimit
PUBLIC 8fe71 0 vtimes
PUBLIC 8fe95 0 getpriority
PUBLIC 8fed1 0 setpriority
PUBLIC 8fef1 0 nice
PUBLIC 8ff7d 0 brk
PUBLIC 8ffe1 0 __sbrk
PUBLIC 9003d 0 sstk
PUBLIC 90061 0 ioctl
PUBLIC 90185 0 readv
PUBLIC 90335 0 writev
PUBLIC 904dd 0 preadv
PUBLIC 90691 0 preadv64
PUBLIC 9082d 0 pwritev
PUBLIC 909c9 0 pwritev64
PUBLIC 90a7d 0 setreuid
PUBLIC 90ad5 0 setregid
PUBLIC 90b2d 0 seteuid
PUBLIC 90ba9 0 setegid
PUBLIC 90c25 0 getpagesize
PUBLIC 90c5d 0 getdtablesize
PUBLIC 90c79 0 gethostname
PUBLIC 90cd1 0 sethostname
PUBLIC 90cf1 0 getdomainname
PUBLIC 90d31 0 setdomainname
PUBLIC 90d71 0 __select
PUBLIC 90dd1 0 pselect
PUBLIC 90f01 0 acct
PUBLIC 90f21 0 chroot
PUBLIC 90f61 0 fsync
PUBLIC 90fc1 0 sync
PUBLIC 91001 0 fdatasync
PUBLIC 91061 0 syncfs
PUBLIC 91081 0 reboot
PUBLIC 910c1 0 gethostid
PUBLIC 911f9 0 sethostid
PUBLIC 912b1 0 vhangup
PUBLIC 912d1 0 swapon
PUBLIC 912f1 0 swapoff
PUBLIC 91311 0 __mktemp
PUBLIC 9132d 0 mkstemp
PUBLIC 91339 0 mkstemp64
PUBLIC 91345 0 mkdtemp
PUBLIC 9135d 0 mkostemp
PUBLIC 91369 0 mkostemp64
PUBLIC 91375 0 mkstemps
PUBLIC 91399 0 mkstemps64
PUBLIC 913c1 0 mkostemps
PUBLIC 913e5 0 mkostemps64
PUBLIC 9140d 0 ualarm
PUBLIC 91445 0 usleep
PUBLIC 9147d 0 gtty
PUBLIC 914b1 0 stty
PUBLIC 914e5 0 ptrace
PUBLIC 9156d 0 getmntent
PUBLIC 9167d 0 setmntent
PUBLIC 916c9 0 endmntent
PUBLIC 916d5 0 __getmntent_r
PUBLIC 918c9 0 addmntent
PUBLIC 91ce1 0 hasmntopt
PUBLIC 91d29 0 utimes
PUBLIC 91d55 0 lutimes
PUBLIC 91dd9 0 futimes
PUBLIC 91f65 0 futimesat
PUBLIC 92071 0 truncate
PUBLIC 92091 0 ftruncate
PUBLIC 920b1 0 truncate64
PUBLIC 920e1 0 ftruncate64
PUBLIC 92111 0 insque
PUBLIC 92129 0 remque
PUBLIC 921ed 0 setttyent
PUBLIC 9222d 0 getttyent
PUBLIC 924c5 0 endttyent
PUBLIC 924e9 0 getttynam
PUBLIC 9268d 0 getusershell
PUBLIC 926b9 0 endusershell
PUBLIC 926d9 0 setusershell
PUBLIC 926ed 0 getpass
PUBLIC 9283d 0 ttyslot
PUBLIC 92ac5 0 __vsyslog_chk
PUBLIC 92ef5 0 syslog
PUBLIC 92f19 0 __syslog_chk
PUBLIC 92f39 0 vsyslog
PUBLIC 92f45 0 openlog
PUBLIC 92fa5 0 closelog
PUBLIC 9301d 0 setlogmask
PUBLIC 93031 0 syscall
PUBLIC 93051 0 daemon
PUBLIC 93151 0 mmap
PUBLIC 93191 0 mmap64
PUBLIC 931e1 0 munmap
PUBLIC 93201 0 mprotect
PUBLIC 93241 0 msync
PUBLIC 932a1 0 madvise
PUBLIC 932c1 0 mincore
PUBLIC 932e1 0 remap_file_pages
PUBLIC 93301 0 mlock
PUBLIC 93321 0 munlock
PUBLIC 93341 0 mlockall
PUBLIC 93361 0 munlockall
PUBLIC 93381 0 hdestroy
PUBLIC 9338d 0 hsearch
PUBLIC 933b1 0 hcreate
PUBLIC 933bd 0 hcreate_r
PUBLIC 93459 0 hdestroy_r
PUBLIC 93481 0 hsearch_r
PUBLIC 93715 0 tsearch
PUBLIC 937d9 0 tfind
PUBLIC 93805 0 tdelete
PUBLIC 93af1 0 twalk
PUBLIC 93b01 0 tdestroy
PUBLIC 93b09 0 lsearch
PUBLIC 93b61 0 lfind
PUBLIC 93c6d 0 vwarnx
PUBLIC 93cf1 0 vwarn
PUBLIC 93dc1 0 warn
PUBLIC 93de1 0 warnx
PUBLIC 93e01 0 verr
PUBLIC 93e15 0 verrx
PUBLIC 93e29 0 err
PUBLIC 93e3d 0 errx
PUBLIC 93fcd 0 error
PUBLIC 94071 0 error_at_line
PUBLIC 94179 0 ustat
PUBLIC 943e1 0 get_nprocs
PUBLIC 94605 0 get_nprocs_conf
PUBLIC 94689 0 get_phys_pages
PUBLIC 94695 0 get_avphys_pages
PUBLIC 946a1 0 dirname
PUBLIC 94721 0 getloadavg
PUBLIC 94811 0 fgetxattr
PUBLIC 94831 0 flistxattr
PUBLIC 94851 0 fremovexattr
PUBLIC 94871 0 fsetxattr
PUBLIC 94891 0 getxattr
PUBLIC 948b1 0 listxattr
PUBLIC 948d1 0 lgetxattr
PUBLIC 948f1 0 llistxattr
PUBLIC 94911 0 lremovexattr
PUBLIC 94931 0 lsetxattr
PUBLIC 94951 0 removexattr
PUBLIC 94971 0 setxattr
PUBLIC 94991 0 getauxval
PUBLIC 949cd 0 __libc_ifunc_impl_list
PUBLIC 94a55 0 step
PUBLIC 94aa1 0 advance
PUBLIC 94bd9 0 setfsent
PUBLIC 94be9 0 getfsent
PUBLIC 94c15 0 getfsspec
PUBLIC 94c51 0 getfsfile
PUBLIC 94c8d 0 endfsent
PUBLIC 94ca5 0 chflags
PUBLIC 94cd9 0 fchflags
PUBLIC 94d0d 0 revoke
PUBLIC 94d25 0 fcvt
PUBLIC 94dad 0 ecvt
PUBLIC 94dd1 0 gcvt
PUBLIC 94df9 0 fcvt_r
PUBLIC 95009 0 ecvt_r
PUBLIC 951d1 0 qfcvt
PUBLIC 95259 0 qecvt
PUBLIC 9527d 0 qgcvt
PUBLIC 952a1 0 qfcvt_r
PUBLIC 954b1 0 qecvt_r
PUBLIC 95839 0 ioperm
PUBLIC 958e1 0 iopl
PUBLIC 9590d 0 outb
PUBLIC 95921 0 outw
PUBLIC 95935 0 outl
PUBLIC 95949 0 inb
PUBLIC 9595d 0 inw
PUBLIC 95971 0 inl
PUBLIC 95985 0 __sysctl
PUBLIC 959d1 0 clone
PUBLIC 95a41 0 llseek
PUBLIC 95a81 0 umount
PUBLIC 95a91 0 umount2
PUBLIC 95ab1 0 readahead
PUBLIC 95ae1 0 setfsuid
PUBLIC 95af1 0 setfsgid
PUBLIC 95b01 0 gnu_dev_major
PUBLIC 95b11 0 gnu_dev_minor
PUBLIC 95b21 0 gnu_dev_makedev
PUBLIC 95b4d 0 epoll_pwait
PUBLIC 95bd9 0 signalfd
PUBLIC 95c59 0 eventfd
PUBLIC 95cd1 0 eventfd_read
PUBLIC 95ce5 0 eventfd_write
PUBLIC 95d05 0 prlimit
PUBLIC 95e21 0 prlimit64
PUBLIC 95e41 0 fanotify_mark
PUBLIC 95e61 0 ntp_adjtime
PUBLIC 95e81 0 bdflush
PUBLIC 95ea1 0 capget
PUBLIC 95ec1 0 capset
PUBLIC 95ee1 0 clock_adjtime
PUBLIC 95f01 0 delete_module
PUBLIC 95f21 0 epoll_create
PUBLIC 95f41 0 epoll_create1
PUBLIC 95f61 0 epoll_ctl
PUBLIC 95fa1 0 epoll_wait
PUBLIC 96001 0 init_module
PUBLIC 96021 0 inotify_add_watch
PUBLIC 96041 0 inotify_init
PUBLIC 96061 0 inotify_init1
PUBLIC 96081 0 inotify_rm_watch
PUBLIC 960a1 0 klogctl
PUBLIC 960c1 0 mount
PUBLIC 960e1 0 mremap
PUBLIC 96101 0 nfsservctl
PUBLIC 96121 0 personality
PUBLIC 96141 0 pivot_root
PUBLIC 96161 0 prctl
PUBLIC 96181 0 quotactl
PUBLIC 961c1 0 splice
PUBLIC 96221 0 sysinfo
PUBLIC 96261 0 tee
PUBLIC 962c1 0 unshare
PUBLIC 962e1 0 uselib
PUBLIC 96321 0 vmsplice
PUBLIC 96381 0 timerfd_create
PUBLIC 963a1 0 timerfd_settime
PUBLIC 963c1 0 timerfd_gettime
PUBLIC 963e1 0 fanotify_init
PUBLIC 96401 0 name_to_handle_at
PUBLIC 96441 0 open_by_handle_at
PUBLIC 964a1 0 setns
PUBLIC 964c1 0 process_vm_readv
PUBLIC 964e1 0 process_vm_writev
PUBLIC 96501 0 get_kernel_syms
PUBLIC 96541 0 accept
PUBLIC 965a1 0 bind
PUBLIC 965e1 0 connect
PUBLIC 96641 0 getpeername
PUBLIC 96661 0 getsockname
PUBLIC 96681 0 getsockopt
PUBLIC 966a1 0 listen
PUBLIC 966e1 0 recv
PUBLIC 96761 0 recvfrom
PUBLIC 967e1 0 recvmsg
PUBLIC 96861 0 __send
PUBLIC 968e1 0 sendmsg
PUBLIC 96961 0 sendto
PUBLIC 969c1 0 setsockopt
PUBLIC 969e1 0 shutdown
PUBLIC 96a01 0 socket
PUBLIC 96a21 0 socketpair
PUBLIC 96a41 0 isfdtype
PUBLIC 96c6d 0 sockatmark
PUBLIC 96c89 0 accept4
PUBLIC 96d0d 0 recvmmsg
PUBLIC 96d95 0 __sendmmsg
PUBLIC 96e19 0 __cmsg_nxthdr
PUBLIC 96e55 0 __libc_sa_len
PUBLIC 96e71 0 ftok
PUBLIC 96ec1 0 msgsnd
PUBLIC 96f41 0 msgrcv
PUBLIC 96fa1 0 msgget
PUBLIC 96fc1 0 msgctl
PUBLIC 96ff1 0 semop
PUBLIC 97011 0 semget
PUBLIC 97031 0 semctl
PUBLIC 97081 0 semtimedop
PUBLIC 970a1 0 shmat
PUBLIC 970c1 0 shmdt
PUBLIC 970e1 0 shmget
PUBLIC 97101 0 shmctl
PUBLIC 974e5 0 moncontrol
PUBLIC 97521 0 __monstartup
PUBLIC 97671 0 _mcleanup
PUBLIC 977a1 0 profil_counter
PUBLIC 977dd 0 profil
PUBLIC 97aed 0 sprofil
PUBLIC 97e19 0 __profile_frequency
PUBLIC 97e31 0 __gnu_mcount_nc
PUBLIC 97e51 0 _mcount
PUBLIC 97e71 0 wctrans
PUBLIC 97ebd 0 towctrans
PUBLIC 97ef9 0 __towctrans_l
PUBLIC 97f35 0 iswalnum
PUBLIC 97fc9 0 iswalpha
PUBLIC 9805d 0 iswblank
PUBLIC 980f1 0 iswcntrl
PUBLIC 98185 0 iswdigit
PUBLIC 98209 0 iswlower
PUBLIC 9829d 0 iswgraph
PUBLIC 98331 0 iswprint
PUBLIC 983c5 0 iswpunct
PUBLIC 98459 0 iswspace
PUBLIC 984ed 0 iswupper
PUBLIC 98581 0 iswxdigit
PUBLIC 98615 0 towlower
PUBLIC 9866d 0 towupper
PUBLIC 986c5 0 wctype
PUBLIC 98729 0 __iswctype
PUBLIC 98785 0 __iswalnum_l
PUBLIC 987f9 0 __iswalpha_l
PUBLIC 9886d 0 __iswblank_l
PUBLIC 988dd 0 iswcntrl_l
PUBLIC 98951 0 iswdigit_l
PUBLIC 989c1 0 __iswlower_l
PUBLIC 98a35 0 __iswgraph_l
PUBLIC 98aa9 0 __iswprint_l
PUBLIC 98b1d 0 __iswpunct_l
PUBLIC 98b91 0 __iswspace_l
PUBLIC 98c05 0 __iswupper_l
PUBLIC 98c79 0 iswxdigit_l
PUBLIC 98ced 0 __towlower_l
PUBLIC 98d31 0 __towupper_l
PUBLIC 98d75 0 __wctype_l
PUBLIC 98dcd 0 iswctype_l
PUBLIC 98e29 0 wctrans_l
PUBLIC 98e65 0 getspent
PUBLIC 98f2d 0 getspnam
PUBLIC 9906d 0 sgetspent
PUBLIC 991d9 0 fgetspent
PUBLIC 99365 0 putspent
PUBLIC 99625 0 setspent
PUBLIC 996ed 0 endspent
PUBLIC 997b5 0 getspent_r
PUBLIC 998a9 0 getspnam_r
PUBLIC 999d1 0 _nss_files_parse_spent
PUBLIC 99bed 0 sgetspent_r
PUBLIC 99c4d 0 fgetspent_r
PUBLIC 99e45 0 lckpwdf
PUBLIC 9a1b5 0 ulckpwdf
PUBLIC 9a265 0 getsgent
PUBLIC 9a335 0 getsgnam
PUBLIC 9a475 0 sgetsgent
PUBLIC 9a5ed 0 fgetsgent
PUBLIC 9a779 0 putsgent
PUBLIC 9a92d 0 setsgent
PUBLIC 9a9f5 0 endsgent
PUBLIC 9aabd 0 getsgent_r
PUBLIC 9abb1 0 getsgnam_r
PUBLIC 9acd9 0 _nss_files_parse_sgent
PUBLIC 9af09 0 sgetsgent_r
PUBLIC 9af79 0 fgetsgent_r
PUBLIC 9ca5d 0 argp_failure
PUBLIC 9d8c9 0 argp_help
PUBLIC 9d8e1 0 argp_state_help
PUBLIC 9d95d 0 argp_error
PUBLIC 9dd59 0 argp_parse
PUBLIC 9e7bd 0 argp_usage
PUBLIC 9e82d 0 __libc_alloca_cutoff
PUBLIC 9e851 0 pthread_equal
PUBLIC 9e871 0 pthread_attr_destroy
PUBLIC 9e891 0 pthread_attr_init
PUBLIC 9e8b1 0 pthread_attr_getdetachstate
PUBLIC 9e8d1 0 pthread_attr_setdetachstate
PUBLIC 9e8f1 0 pthread_attr_getinheritsched
PUBLIC 9e911 0 pthread_attr_setinheritsched
PUBLIC 9e931 0 pthread_attr_getschedparam
PUBLIC 9e951 0 pthread_attr_setschedparam
PUBLIC 9e971 0 pthread_attr_getschedpolicy
PUBLIC 9e991 0 pthread_attr_setschedpolicy
PUBLIC 9e9b1 0 pthread_attr_getscope
PUBLIC 9e9d1 0 pthread_attr_setscope
PUBLIC 9e9f1 0 pthread_condattr_destroy
PUBLIC 9ea11 0 pthread_condattr_init
PUBLIC 9ea31 0 pthread_cond_broadcast
PUBLIC 9ea51 0 pthread_cond_destroy
PUBLIC 9ea71 0 pthread_cond_init
PUBLIC 9ea91 0 pthread_cond_signal
PUBLIC 9eab1 0 pthread_cond_wait
PUBLIC 9ead1 0 pthread_cond_timedwait
PUBLIC 9eaf1 0 pthread_exit
PUBLIC 9eb11 0 pthread_getschedparam
PUBLIC 9eb31 0 pthread_setschedparam
PUBLIC 9eb51 0 pthread_mutex_destroy
PUBLIC 9eb71 0 pthread_mutex_init
PUBLIC 9eb95 0 pthread_mutex_lock
PUBLIC 9ebb9 0 pthread_mutex_unlock
PUBLIC 9ebdd 0 pthread_self
PUBLIC 9ebfd 0 pthread_setcancelstate
PUBLIC 9ec21 0 pthread_setcanceltype
PUBLIC 9edbd 0 __register_atfork
PUBLIC 9f045 0 __libc_pthread_init
PUBLIC 9f08d 0 clock_getcpuclockid
PUBLIC 9f0c1 0 __clock_getres
PUBLIC 9f129 0 __clock_gettime
PUBLIC 9f17d 0 clock_settime
PUBLIC 9f1f1 0 clock_nanosleep
PUBLIC 9f259 0 __cyg_profile_func_enter
PUBLIC 9f25d 0 __memcpy_chk
PUBLIC 9f2d1 0 __memmove_chk
PUBLIC 9f3b5 0 __mempcpy_chk
PUBLIC 9f429 0 __memset_chk
PUBLIC 9f4c1 0 __stpcpy_chk
PUBLIC 9f4e5 0 __strcat_chk
PUBLIC 9f525 0 __strcpy_chk
PUBLIC 9f591 0 __strncat_chk
PUBLIC 9f651 0 __strncpy_chk
PUBLIC 9f6dd 0 __stpncpy_chk
PUBLIC 9f765 0 __sprintf_chk
PUBLIC 9f78d 0 __vsprintf_chk
PUBLIC 9f7f9 0 __snprintf_chk
PUBLIC 9f811 0 __vsnprintf_chk
PUBLIC 9f891 0 __printf_chk
PUBLIC 9f9e5 0 __fprintf_chk
PUBLIC 9fb21 0 __vprintf_chk
PUBLIC 9fc75 0 __vfprintf_chk
PUBLIC 9fda9 0 __gets_chk
PUBLIC 9ff51 0 __chk_fail
PUBLIC a0081 0 __fgets_chk
PUBLIC a01ed 0 __fgets_unlocked_chk
PUBLIC a0261 0 __read_chk
PUBLIC a0295 0 __pread_chk
PUBLIC a02a9 0 __pread64_chk
PUBLIC a02c5 0 __recv_chk
PUBLIC a02dd 0 __recvfrom_chk
PUBLIC a02fd 0 __readlink_chk
PUBLIC a0331 0 __readlinkat_chk
PUBLIC a0345 0 __getwd_chk
PUBLIC a0369 0 __getcwd_chk
PUBLIC a037d 0 __realpath_chk
PUBLIC a0391 0 __fread_chk
PUBLIC a04e1 0 __fread_unlocked_chk
PUBLIC a0539 0 __confstr_chk
PUBLIC a054d 0 __getgroups_chk
PUBLIC a057d 0 __ttyname_r_chk
PUBLIC a0591 0 __gethostname_chk
PUBLIC a05a5 0 __getdomainname_chk
PUBLIC a05b9 0 __asprintf_chk
PUBLIC a05d9 0 __vasprintf_chk
PUBLIC a06cd 0 __dprintf_chk
PUBLIC a06ed 0 __vdprintf_chk
PUBLIC a0781 0 __obstack_vprintf_chk
PUBLIC a0889 0 __obstack_printf_chk
PUBLIC a08a9 0 __longjmp_chk
PUBLIC a09c1 0 __fdelt_warn
PUBLIC a09d1 0 __poll_chk
PUBLIC a09e5 0 __ppoll_chk
PUBLIC a09fd 0 __stack_chk_fail
PUBLIC a0a0d 0 __fortify_fail
PUBLIC a0ad9 0 backtrace
PUBLIC a0b85 0 __backtrace_symbols
PUBLIC a0d89 0 backtrace_symbols_fd
PUBLIC a0f79 0 __wprintf_chk
PUBLIC a10cd 0 __fwprintf_chk
PUBLIC a1209 0 __vwprintf_chk
PUBLIC a135d 0 __vfwprintf_chk
PUBLIC a1491 0 __fgetws_chk
PUBLIC a15fd 0 __fgetws_unlocked_chk
PUBLIC a1671 0 __wctomb_chk
PUBLIC a16a1 0 __wcscpy_chk
PUBLIC a16c9 0 __wmemcpy_chk
PUBLIC a16dd 0 __wmemmove_chk
PUBLIC a16f1 0 __wmempcpy_chk
PUBLIC a1705 0 __wcpcpy_chk
PUBLIC a172d 0 __wcsncpy_chk
PUBLIC a1741 0 __wcscat_chk
PUBLIC a1779 0 __wcsncat_chk
PUBLIC a1829 0 __wmemset_chk
PUBLIC a183d 0 __wcpncpy_chk
PUBLIC a1851 0 __swprintf_chk
PUBLIC a1869 0 __vswprintf_chk
PUBLIC a18f5 0 __wcrtomb_chk
PUBLIC a191d 0 __mbsnrtowcs_chk
PUBLIC a1935 0 __wcsnrtombs_chk
PUBLIC a194d 0 __mbsrtowcs_chk
PUBLIC a1961 0 __wcsrtombs_chk
PUBLIC a1975 0 __mbstowcs_chk
PUBLIC a1999 0 __wcstombs_chk
PUBLIC a1b7d 0 htonl
PUBLIC a1b81 0 htons
PUBLIC a1b8d 0 inet_lnaof
PUBLIC a1ba9 0 inet_makeaddr
PUBLIC a1bd9 0 inet_netof
PUBLIC a1bf5 0 inet_ntoa
PUBLIC a1c39 0 inet_network
PUBLIC a1d3d 0 __h_errno_location
PUBLIC a1d51 0 gethostbyaddr
PUBLIC a1ecd 0 gethostbyaddr_r
PUBLIC a2121 0 gethostbyname
PUBLIC a22a1 0 gethostbyname2
PUBLIC a2429 0 gethostbyname2_r
PUBLIC a2679 0 gethostbyname_r
PUBLIC a28c9 0 gethostent
PUBLIC a29a1 0 sethostent
PUBLIC a2a71 0 endhostent
PUBLIC a2b3d 0 gethostent_r
PUBLIC a2c3d 0 getnetbyaddr
PUBLIC a2da5 0 getnetbyaddr_r
PUBLIC a2f49 0 getnetbyname
PUBLIC a30b1 0 getnetent
PUBLIC a3189 0 setnetent
PUBLIC a3259 0 endnetent
PUBLIC a3325 0 getnetent_r
PUBLIC a3425 0 getnetbyname_r
PUBLIC a35c5 0 getprotobynumber
PUBLIC a3705 0 getprotobynumber_r
PUBLIC a382d 0 getprotoent
PUBLIC a38f5 0 setprotoent
PUBLIC a39c1 0 endprotoent
PUBLIC a3a89 0 getprotoent_r
PUBLIC a3b81 0 getprotobyname
PUBLIC a3cc1 0 getprotobyname_r
PUBLIC a3de9 0 getservbyname
PUBLIC a3f2d 0 getservbyname_r
PUBLIC a40a9 0 getservbyport
PUBLIC a41ed 0 getservbyport_r
PUBLIC a4369 0 getservent
PUBLIC a4431 0 setservent
PUBLIC a44fd 0 endservent
PUBLIC a45c5 0 getservent_r
PUBLIC a46bd 0 getrpcent
PUBLIC a4785 0 getrpcbyname
PUBLIC a48c5 0 getrpcbynumber
PUBLIC a4a05 0 setrpcent
PUBLIC a4ad1 0 endrpcent
PUBLIC a4b99 0 getrpcent_r
PUBLIC a4c91 0 getrpcbyname_r
PUBLIC a4db9 0 getrpcbynumber_r
PUBLIC a4ee1 0 ether_aton
PUBLIC a4eed 0 ether_aton_r
PUBLIC a4fcd 0 ether_hostton
PUBLIC a50a1 0 ether_line
PUBLIC a5211 0 ether_ntoa
PUBLIC a521d 0 ether_ntoa_r
PUBLIC a5251 0 ether_ntohost
PUBLIC a5519 0 __internal_setnetgrent
PUBLIC a5545 0 setnetgrent
PUBLIC a5635 0 __internal_endnetgrent
PUBLIC a564d 0 endnetgrent
PUBLIC a56f1 0 __internal_getnetgrent_r
PUBLIC a5811 0 getnetgrent_r
PUBLIC a58d9 0 innetgr
PUBLIC a5b35 0 getnetgrent
PUBLIC a5e89 0 getnameinfo
PUBLIC a6455 0 if_nametoindex
PUBLIC a64c5 0 if_freenameindex
PUBLIC a64f1 0 if_nameindex
PUBLIC a66ad 0 if_indextoname
PUBLIC a71c9 0 getifaddrs
PUBLIC a71dd 0 freeifaddrs
PUBLIC a71e1 0 getipv4sourcefilter
PUBLIC a72a1 0 setipv4sourcefilter
PUBLIC a73c1 0 getsourcefilter
PUBLIC a74ad 0 setsourcefilter
PUBLIC a7b15 0 rresvport_af
PUBLIC a7c11 0 rcmd_af
PUBLIC a82ed 0 rcmd
PUBLIC a8305 0 rresvport
PUBLIC a8309 0 ruserok_af
PUBLIC a8381 0 ruserok
PUBLIC a8391 0 iruserok_af
PUBLIC a8401 0 iruserok
PUBLIC a8419 0 __ivaliduser
PUBLIC a8449 0 rexec_af
PUBLIC a87c9 0 rexec
PUBLIC a8941 0 ruserpass
PUBLIC a8c2d 0 setaliasent
PUBLIC a8cf5 0 endaliasent
PUBLIC a8dbd 0 getaliasent_r
PUBLIC a8eb1 0 getaliasent
PUBLIC a8f79 0 getaliasbyname
PUBLIC a90b9 0 getaliasbyname_r
PUBLIC a92dd 0 inet6_option_space
PUBLIC a92e9 0 inet6_option_init
PUBLIC a9315 0 inet6_option_append
PUBLIC a933d 0 inet6_option_alloc
PUBLIC a9341 0 inet6_option_next
PUBLIC a93ad 0 inet6_option_find
PUBLIC a945d 0 inet6_opt_init
PUBLIC a9481 0 inet6_opt_append
PUBLIC a9509 0 inet6_opt_finish
PUBLIC a9535 0 inet6_opt_set_val
PUBLIC a9549 0 inet6_opt_next
PUBLIC a959d 0 inet6_opt_find
PUBLIC a95fd 0 inet6_opt_get_val
PUBLIC a9611 0 inet6_rth_space
PUBLIC a9621 0 inet6_rth_init
PUBLIC a9651 0 inet6_rth_add
PUBLIC a9689 0 inet6_rth_reverse
PUBLIC a9741 0 inet6_rth_segments
PUBLIC a9751 0 inet6_rth_getaddr
PUBLIC aa08d 0 hstrerror
PUBLIC aa0f1 0 herror
PUBLIC aa15d 0 inet_aton
PUBLIC aa249 0 inet_addr
PUBLIC aa2bd 0 inet_ntop
PUBLIC aa511 0 inet_pton
PUBLIC aa6ad 0 inet_nsap_addr
PUBLIC aa779 0 inet_nsap_ntoa
PUBLIC ab121 0 __res_ninit
PUBLIC ab129 0 __res_randomid
PUBLIC ab135 0 __res_iclose
PUBLIC ab1a9 0 __res_nclose
PUBLIC abaf5 0 __res_init
PUBLIC abc11 0 __res_maybe_init
PUBLIC abd55 0 __res_state
PUBLIC abd69 0 __gai_sigqueue
PUBLIC ac269 0 __nss_database_lookup
PUBLIC ac5b5 0 __nss_configure_lookup
PUBLIC ac6d5 0 __nss_lookup_function
PUBLIC ac845 0 __nss_lookup
PUBLIC ac8b1 0 __nss_next2
PUBLIC ac935 0 __nss_disable_nscd
PUBLIC acd75 0 __nss_group_lookup2
PUBLIC acdc9 0 __nss_passwd_lookup2
PUBLIC acf19 0 __nss_services_lookup2
PUBLIC acf65 0 __nss_hosts_lookup2
PUBLIC ad191 0 __nss_hostname_digits_dots
PUBLIC ad595 0 authnone_create
PUBLIC ad5e9 0 xdr_authunix_parms
PUBLIC ad64d 0 bindresvport
PUBLIC ad9d9 0 clntraw_create
PUBLIC ada95 0 callrpc
PUBLIC adc9d 0 _rpc_dtablesize
PUBLIC adcb5 0 getrpcport
PUBLIC addcd 0 pmap_set
PUBLIC adea1 0 pmap_unset
PUBLIC adf4d 0 pmap_getmaps
PUBLIC ae025 0 xdr_pmap
PUBLIC ae05d 0 xdr_pmaplist
PUBLIC ae0dd 0 xdr_rmtcallres
PUBLIC ae121 0 xdr_rmtcall_args
PUBLIC ae1bd 0 pmap_rmtcall
PUBLIC ae269 0 clnt_broadcast
PUBLIC ae69d 0 xdr_rejected_reply
PUBLIC ae6d9 0 xdr_opaque_auth
PUBLIC ae6fd 0 xdr_accepted_reply
PUBLIC ae74d 0 xdr_des_block
PUBLIC ae755 0 xdr_replymsg
PUBLIC ae799 0 xdr_callhdr
PUBLIC ae7ed 0 _seterr_reply
PUBLIC ae879 0 xdr_callmsg
PUBLIC aead5 0 _authenticate
PUBLIC aece1 0 svcraw_create
PUBLIC aee8d 0 registerrpc
PUBLIC aefc5 0 xdr_float
PUBLIC aefe9 0 xdr_double
PUBLIC af3c1 0 xdrrec_create
PUBLIC af4a5 0 xdrrec_skiprecord
PUBLIC af4e1 0 xdrrec_eof
PUBLIC af521 0 xdrrec_endofrecord
PUBLIC af559 0 getpublickey
PUBLIC af60d 0 getsecretkey
PUBLIC af6c9 0 xdr_authdes_cred
PUBLIC af725 0 xdr_authdes_verf
PUBLIC af749 0 xdr_keystatus
PUBLIC af759 0 xdr_keybuf
PUBLIC af769 0 xdr_netnamestr
PUBLIC af779 0 xdr_cryptkeyarg
PUBLIC af799 0 xdr_cryptkeyarg2
PUBLIC af7c9 0 xdr_cryptkeyres
PUBLIC af7f1 0 xdr_unixcred
PUBLIC af839 0 xdr_getcredres
PUBLIC af861 0 xdr_key_netstarg
PUBLIC af895 0 xdr_key_netstres
PUBLIC af9ad 0 rtime
PUBLIC affcd 0 authdes_getucred
PUBLIC b0629 0 clntunix_create
PUBLIC b0b71 0 svcunix_create
PUBLIC b0ced 0 svcunixfd_create
PUBLIC b0db5 0 cbc_crypt
PUBLIC b0ead 0 ecb_crypt
PUBLIC b16e9 0 des_setparity
PUBLIC b19bd 0 authdes_pk_create
PUBLIC b1b01 0 authdes_create
PUBLIC b1cf9 0 authunix_create
PUBLIC b1e21 0 authunix_create_default
PUBLIC b1f01 0 clnt_create
PUBLIC b20cd 0 clnt_sperrno
PUBLIC b211d 0 clnt_sperror
PUBLIC b22a1 0 clnt_perror
PUBLIC b22bd 0 clnt_perrno
PUBLIC b22d9 0 clnt_spcreateerror
PUBLIC b2369 0 clnt_pcreateerror
PUBLIC b2755 0 clnttcp_create
PUBLIC b2f05 0 __libc_clntudp_bufcreate
PUBLIC b3159 0 clntudp_bufcreate
PUBLIC b3185 0 clntudp_create
PUBLIC b31b1 0 get_myaddress
PUBLIC b3469 0 key_setsecret
PUBLIC b34a1 0 key_secretkey_is_set
PUBLIC b34e1 0 key_encryptsession
PUBLIC b3529 0 key_decryptsession
PUBLIC b3571 0 key_encryptsession_pk
PUBLIC b35ed 0 key_decryptsession_pk
PUBLIC b3669 0 key_gendes
PUBLIC b3711 0 key_setnet
PUBLIC b374d 0 key_get_conv
PUBLIC b37bd 0 user2netname
PUBLIC b3831 0 host2netname
PUBLIC b3901 0 getnetname
PUBLIC b3921 0 netname2user
PUBLIC b39d5 0 netname2host
PUBLIC b3a61 0 __libc_rpc_getport
PUBLIC b3b75 0 pmap_getport
PUBLIC b3c39 0 __rpc_thread_svc_fdset
PUBLIC b3c61 0 __rpc_thread_createerr
PUBLIC b3c89 0 __rpc_thread_svc_pollfd
PUBLIC b3cb1 0 __rpc_thread_svc_max_pollfd
PUBLIC b3d15 0 xprt_register
PUBLIC b3ded 0 xprt_unregister
PUBLIC b3e81 0 svc_register
PUBLIC b3ef1 0 svc_unregister
PUBLIC b3f3d 0 svc_sendreply
PUBLIC b3f6d 0 svcerr_noproc
PUBLIC b3f99 0 svcerr_decode
PUBLIC b3fc5 0 svcerr_systemerr
PUBLIC b3ff1 0 svcerr_auth
PUBLIC b400d 0 svcerr_weakauth
PUBLIC b4029 0 svcerr_noprog
PUBLIC b4055 0 svcerr_progvers
PUBLIC b4089 0 svc_getreq_common
PUBLIC b41b5 0 svc_getreqset
PUBLIC b4209 0 svc_getreq
PUBLIC b4231 0 svc_getreq_poll
PUBLIC b4595 0 svctcp_create
PUBLIC b4709 0 svcfd_create
PUBLIC b4b91 0 svcudp_bufcreate
PUBLIC b4d45 0 svcudp_create
PUBLIC b4d4d 0 svcudp_enablecache
PUBLIC b4e45 0 xdr_array
PUBLIC b4f29 0 xdr_vector
PUBLIC b4fc9 0 xdr_free
PUBLIC b4fe1 0 xdr_void
PUBLIC b4fe5 0 xdr_long
PUBLIC b5009 0 xdr_int
PUBLIC b500d 0 xdr_u_long
PUBLIC b5045 0 xdr_u_int
PUBLIC b5049 0 xdr_hyper
PUBLIC b50b9 0 xdr_u_hyper
PUBLIC b5129 0 xdr_longlong_t
PUBLIC b512d 0 xdr_u_longlong_t
PUBLIC b5131 0 xdr_short
PUBLIC b5175 0 xdr_u_short
PUBLIC b51b5 0 xdr_char
PUBLIC b51d5 0 xdr_u_char
PUBLIC b51f5 0 xdr_bool
PUBLIC b5241 0 xdr_enum
PUBLIC b5245 0 xdr_opaque
PUBLIC b524d 0 xdr_bytes
PUBLIC b5301 0 xdr_netobj
PUBLIC b530d 0 xdr_union
PUBLIC b5365 0 xdr_string
PUBLIC b541d 0 xdr_wrapstring
PUBLIC b5431 0 xdr_int64_t
PUBLIC b54a1 0 xdr_quad_t
PUBLIC b54a5 0 xdr_uint64_t
PUBLIC b5515 0 xdr_u_quad_t
PUBLIC b5519 0 xdr_int32_t
PUBLIC b553d 0 xdr_uint32_t
PUBLIC b5561 0 xdr_int16_t
PUBLIC b55a5 0 xdr_uint16_t
PUBLIC b55e5 0 xdr_int8_t
PUBLIC b5629 0 xdr_uint8_t
PUBLIC b57a5 0 xdrmem_create
PUBLIC b57c1 0 xdr_reference
PUBLIC b584d 0 xdr_pointer
PUBLIC b591d 0 xdr_sizeof
PUBLIC b5aa5 0 xdrstdio_create
PUBLIC b5ac1 0 svc_exit
PUBLIC b5add 0 svc_run
PUBLIC b5c7d 0 passwd2des
PUBLIC b5cc5 0 xencrypt
PUBLIC b5d31 0 xdecrypt
PUBLIC b85cd 0 isastream
PUBLIC b85d9 0 getmsg
PUBLIC b85f1 0 getpmsg
PUBLIC b8609 0 putmsg
PUBLIC b8621 0 putpmsg
PUBLIC b8639 0 fattach
PUBLIC b8651 0 fdetach
PUBLIC b8669 0 posix_openpt
PUBLIC b87c1 0 getpt
PUBLIC b87d9 0 grantpt
PUBLIC b89a5 0 unlockpt
PUBLIC b8c35 0 ptsname_r
PUBLIC b8c45 0 ptsname
PUBLIC b8c61 0 __ptsname_r_chk
PUBLIC b8c75 0 getutent
PUBLIC b8d99 0 setutent
PUBLIC b8e2d 0 getutent_r
PUBLIC b8ed1 0 pututline
PUBLIC b8f6d 0 endutent
PUBLIC b9009 0 getutid
PUBLIC b9041 0 getutline
PUBLIC b9079 0 getutid_r
PUBLIC b9149 0 getutline_r
PUBLIC b9fc1 0 utmpname
PUBLIC ba0c5 0 updwtmp
PUBLIC ba219 0 getlogin
PUBLIC ba525 0 getlogin_r
PUBLIC ba541 0 __getlogin_r_chk
PUBLIC ba555 0 setlogin
PUBLIC ba56d 0 setutxent
PUBLIC ba571 0 getutxent
PUBLIC ba575 0 endutxent
PUBLIC ba579 0 getutxid
PUBLIC ba57d 0 getutxline
PUBLIC ba581 0 pututxline
PUBLIC ba585 0 utmpxname
PUBLIC ba589 0 updwtmpx
PUBLIC ba58d 0 getutmp
PUBLIC ba59d 0 dl_iterate_phdr
PUBLIC ba6dd 0 _dl_addr
PUBLIC ba8e9 0 _dl_mcount_wrapper
PUBLIC ba909 0 _dl_mcount_wrapper_check
PUBLIC baa35 0 __libc_dlopen_mode
PUBLIC baa71 0 __libc_dlsym
PUBLIC baab1 0 __libc_dlclose
PUBLIC bae39 0 _dl_vsym
PUBLIC bae99 0 _dl_sym
PUBLIC baead 0 __libc_dl_error_tsd
PUBLIC baf35 0 __gnu_Unwind_Find_exidx
PUBLIC baf6d 0 posix_spawn
PUBLIC baf85 0 posix_spawnp
PUBLIC bb2ed 0 __nss_next
PUBLIC bb305 0 __nss_group_lookup
PUBLIC bb30d 0 __nss_passwd_lookup
PUBLIC bb32d 0 __nss_hosts_lookup
PUBLIC bd401 0 __libc_freeres
PUBLIC bd91d 0 __libc_thread_freeres
STACK CFI INIT 174c0 2 .cfa: sp 0 + .ra: lr
STACK CFI INIT 174c4 8c .cfa: sp 0 + .ra: lr
STACK CFI 174c6 .cfa: sp 24 + .ra: .cfa -4 + ^ r3: .cfa -24 + ^ r4: .cfa -20 + ^ r5: .cfa -16 + ^ r6: .cfa -12 + ^ r7: .cfa -8 + ^
STACK CFI INIT 17550 6 .cfa: sp 0 + .ra: lr
STACK CFI 17552 .cfa: sp 8 + .ra: .cfa -4 + ^ r3: .cfa -8 + ^
STACK CFI INIT 17558 14c .cfa: sp 0 + .ra: lr
STACK CFI 1755c .cfa: sp 24 + .ra: .cfa -4 + ^ r4: .cfa -24 + ^ r5: .cfa -20 + ^ r6: .cfa -16 + ^ r7: .cfa -12 + ^ r8: .cfa -8 + ^
STACK CFI 1755e .cfa: sp 320 +
STACK CFI INIT 176b0 1c .cfa: sp 0 + .ra: lr
STACK CFI INIT 176d0 14 .cfa: sp 0 + .ra: lr
STACK CFI INIT 176e4 c .cfa: sp 0 + .ra: lr
STACK CFI INIT 176f0 c .cfa: sp 0 + .ra: lr
STACK CFI INIT 176fc c .cfa: sp 0 + .ra: lr
STACK CFI 176fe .cfa: sp 8 + .ra: .cfa -4 + ^ r3: .cfa -8 + ^
STACK CFI INIT 17708 a8 .cfa: sp 0 + .ra: lr
STACK CFI 1770c .cfa: sp 24 + .ra: .cfa -4 + ^ r4: .cfa -24 + ^ r5: .cfa -20 + ^ r6: .cfa -16 + ^ r7: .cfa -12 + ^ r8: .cfa -8 + ^
STACK CFI 17710 .cfa: sp 128 +
STACK CFI INIT 177b0 22 .cfa: sp 0 + .ra: lr
STACK CFI 177b2 .cfa: sp 8 + .ra: .cfa -4 + ^ r3: .cfa -8 + ^
STACK CFI INIT 177d4 20 .cfa: sp 0 + .ra: lr
STACK CFI 177d6 .cfa: sp 16 + .ra: .cfa -4 + ^ r4: .cfa -16 + ^ r5: .cfa -12 + ^ r6: .cfa -8 + ^
STACK CFI 177ea .cfa: sp 0 + .ra: .ra r4: r4 r5: r5 r6: r6
STACK CFI 177ec .cfa: sp 16 + .ra: .cfa -4 + ^ r4: .cfa -16 + ^ r5: .cfa -12 + ^ r6: .cfa -8 + ^
STACK CFI INIT 177fc 54 .cfa: sp 0 + .ra: lr
STACK CFI 17802 .cfa: sp 16 + .ra: .cfa -4 + ^ r3: .cfa -16 + ^ r4: .cfa -12 + ^ r5: .cfa -8 + ^
STACK CFI INIT 17850 2c .cfa: sp 0 + .ra: lr
STACK CFI 17852 .cfa: sp 8 + .ra: .cfa -4 + ^ r4: .cfa -8 + ^
STACK CFI 17854 .cfa: sp 24 +
STACK CFI INIT 17880 6 .cfa: sp 0 + .ra: lr
STACK CFI INIT 17890 8 .cfa: sp 0 + .ra: lr
STACK CFI 17892 .cfa: sp 8 + .ra: .cfa -4 + ^ r7: .cfa -8 + ^
STACK CFI INIT 178a0 14 .cfa: sp 0 + .ra: lr
STACK CFI INIT 178b4 8 .cfa: sp 0 + .ra: lr
STACK CFI 178b6 .cfa: sp 8 + .ra: .cfa -4 + ^ r3: .cfa -8 + ^
STACK CFI INIT 178bc 14 .cfa: sp 0 + .ra: lr
STACK CFI INIT 178d0 18 .cfa: sp 0 + .ra: lr
STACK CFI INIT 178e8 a .cfa: sp 0 + .ra: lr
STACK CFI INIT 178f4 8 .cfa: sp 0 + .ra: lr
STACK CFI INIT 178fc 4 .cfa: sp 0 + .ra: lr
STACK CFI INIT 17900 a .cfa: sp 0 + .ra: lr
STACK CFI INIT 1790c 4 .cfa: sp 0 + .ra: lr
STACK CFI INIT 17910 3ae .cfa: sp 0 + .ra: lr
STACK CFI 17914 .cfa: sp 36 + .ra: .cfa -4 + ^ r10: .cfa -12 + ^ r11: .cfa -8 + ^ r4: .cfa -36 + ^ r5: .cfa -32 + ^ r6: .cfa -28 + ^ r7: .cfa -24 + ^ r8: .cfa -20 + ^ r9: .cfa -16 + ^
STACK CFI 17916 .cfa: sp 56 +
STACK CFI INIT 17cc0 48 .cfa: sp 0 + .ra: lr
STACK CFI 17cc2 .cfa: sp 12 + .ra: .cfa -4 + ^ r4: .cfa -12 + ^ r5: .cfa -8 + ^
STACK CFI 17cca .cfa: sp 24 +
STACK CFI INIT 17d08 58 .cfa: sp 0 + .ra: lr
STACK CFI 17d0a .cfa: sp 20 + .ra: .cfa -4 + ^ r4: .cfa -20 + ^ r5: .cfa -16 + ^ r6: .cfa -12 + ^ r7: .cfa -8 + ^
STACK CFI 17d10 .cfa: sp 40 +
STACK CFI INIT 17d60 10 .cfa: sp 0 + .ra: lr
STACK CFI 17d62 .cfa: sp 8 + .ra: .cfa -4 + ^ r4: .cfa -8 + ^
STACK CFI 17d64 .cfa: sp 16 +
STACK CFI INIT 17d70 14 .cfa: sp 0 + .ra: lr
STACK CFI 17d72 .cfa: sp 8 + .ra: .cfa -4 + ^ r4: .cfa -8 + ^
STACK CFI 17d74 .cfa: sp 24 +
STACK CFI INIT 17d84 88 .cfa: sp 0 + .ra: lr
STACK CFI 17d86 .cfa: sp 16 + r4: .cfa -16 + ^ r5: .cfa -12 + ^ r6: .cfa -8 + ^ r7: .cfa -4 + ^
STACK CFI INIT 17e0c 144 .cfa: sp 0 + .ra: lr
STACK CFI 17e10 .cfa: sp 28 + .ra: .cfa -4 + ^ r4: .cfa -28 + ^ r5: .cfa -24 + ^ r6: .cfa -20 + ^ r7: .cfa -16 + ^ r8: .cfa -12 + ^ r9: .cfa -8 + ^
STACK CFI 17e12 .cfa: sp 40 +
STACK CFI 17e14 .cfa: r7 40 +
STACK CFI INIT 17f50 138 .cfa: sp 0 + .ra: lr
STACK CFI 17f54 .cfa: sp 28 + .ra: .cfa -4 + ^ r4: .cfa -28 + ^ r5: .cfa -24 + ^ r6: .cfa -20 + ^ r7: .cfa -16 + ^ r8: .cfa -12 + ^ r9: .cfa -8 + ^
STACK CFI 17f56 .cfa: sp 48 +
STACK CFI INIT 18088 28 .cfa: sp 0 + .ra: lr
STACK CFI 1808c .cfa: sp 8 + .ra: .cfa -4 + ^ r4: .cfa -8 + ^
STACK CFI INIT 180b0 5d0 .cfa: sp 0 + .ra: lr
STACK CFI 180b4 .cfa: sp 36 + .ra: .cfa -4 + ^ r10: .cfa -12 + ^ r11: .cfa -8 + ^ r4: .cfa -36 + ^ r5: .cfa -32 + ^ r6: .cfa -28 + ^ r7: .cfa -24 + ^ r8: .cfa -20 + ^ r9: .cfa -16 + ^
STACK CFI 180b6 .cfa: sp 96 +
STACK CFI 180b8 .cfa: r7 88 +
STACK CFI INIT 18680 16c .cfa: sp 0 + .ra: lr
STACK CFI 18684 .cfa: sp 36 + .ra: .cfa -4 + ^ r10: .cfa -12 + ^ r11: .cfa -8 + ^ r4: .cfa -36 + ^ r5: .cfa -32 + ^ r6: .cfa -28 + ^ r7: .cfa -24 + ^ r8: .cfa -20 + ^ r9: .cfa -16 + ^
STACK CFI 18688 .cfa: sp 72 +
STACK CFI INIT 187ec 5e .cfa: sp 0 + .ra: lr
STACK CFI 187f0 .cfa: sp 32 + .ra: .cfa -4 + ^ r3: .cfa -32 + ^ r4: .cfa -28 + ^ r5: .cfa -24 + ^ r6: .cfa -20 + ^ r7: .cfa -16 + ^ r8: .cfa -12 + ^ r9: .cfa -8 + ^
STACK CFI INIT 1884c 8 .cfa: sp 0 + .ra: lr
STACK CFI INIT 18854 2c .cfa: sp 0 + .ra: lr
STACK CFI 18856 .cfa: sp 4 + .ra: .cfa -4 + ^
STACK CFI 18858 .cfa: sp 16 +
STACK CFI INIT bcec0 84 .cfa: sp 0 + .ra: lr
STACK CFI bcec2 .cfa: sp 24 + .ra: .cfa -4 + ^ r3: .cfa -24 + ^ r4: .cfa -20 + ^ r5: .cfa -16 + ^ r6: .cfa -12 + ^ r7: .cfa -8 + ^
STACK CFI INIT bcf44 38 .cfa: sp 0 + .ra: lr
STACK CFI bcf46 .cfa: sp 16 + .ra: .cfa -4 + ^ r3: .cfa -16 + ^ r4: .cfa -12 + ^ r5: .cfa -8 + ^
STACK CFI INIT bcf7c 58 .cfa: sp 0 + .ra: lr
STACK CFI bcf7e .cfa: sp 8 + .ra: .cfa -4 + ^ r4: .cfa -8 + ^
STACK CFI INIT 18880 1e .cfa: sp 0 + .ra: lr
STACK CFI 18882 .cfa: sp 16 + .ra: .cfa -4 + ^ r3: .cfa -16 + ^ r4: .cfa -12 + ^ r5: .cfa -8 + ^
STACK CFI INIT 188a0 c .cfa: sp 0 + .ra: lr
STACK CFI INIT 188ac c .cfa: sp 0 + .ra: lr
STACK CFI INIT 188b8 50 .cfa: sp 0 + .ra: lr
STACK CFI 188ba .cfa: sp 16 + .ra: .cfa -4 + ^ r3: .cfa -16 + ^ r4: .cfa -12 + ^ r5: .cfa -8 + ^
STACK CFI INIT 18908 668 .cfa: sp 0 + .ra: lr
STACK CFI 1890c .cfa: sp 36 + .ra: .cfa -4 + ^ r10: .cfa -12 + ^ r11: .cfa -8 + ^ r4: .cfa -36 + ^ r5: .cfa -32 + ^ r6: .cfa -28 + ^ r7: .cfa -24 + ^ r8: .cfa -20 + ^ r9: .cfa -16 + ^
STACK CFI 1890e .cfa: sp 104 +
STACK CFI 18910 .cfa: r7 104 +
STACK CFI INIT 18f70 88 .cfa: sp 0 + .ra: lr
STACK CFI 18f74 .cfa: sp 16 + .ra: .cfa -4 + ^ r4: .cfa -16 + ^ r5: .cfa -12 + ^ r6: .cfa -8 + ^
STACK CFI 18f78 .cfa: sp 24 +
STACK CFI INIT 18ff8 280 .cfa: sp 0 + .ra: lr
STACK CFI 18ffc .cfa: sp 32 + .ra: .cfa -4 + ^ r10: .cfa -8 + ^ r4: .cfa -32 + ^ r5: .cfa -28 + ^ r6: .cfa -24 + ^ r7: .cfa -20 + ^ r8: .cfa -16 + ^ r9: .cfa -12 + ^
STACK CFI 19002 .cfa: sp 40 +
STACK CFI INIT 19278 ac .cfa: sp 0 + .ra: lr
STACK CFI 1927a .cfa: sp 24 + .ra: .cfa -4 + ^ r3: .cfa -24 + ^ r4: .cfa -20 + ^ r5: .cfa -16 + ^ r6: .cfa -12 + ^ r7: .cfa -8 + ^
STACK CFI INIT bcfd4 20 .cfa: sp 0 + .ra: lr
STACK CFI INIT 19324 94 .cfa: sp 0 + .ra: lr
STACK CFI 19328 .cfa: sp 24 + .ra: .cfa -4 + ^ r4: .cfa -24 + ^ r5: .cfa -20 + ^ r6: .cfa -16 + ^ r7: .cfa -12 + ^ r8: .cfa -8 + ^
STACK CFI INIT 193b8 30 .cfa: sp 0 + .ra: lr
STACK CFI 193ba .cfa: sp 16 + .ra: .cfa -4 + ^ r3: .cfa -16 + ^ r4: .cfa -12 + ^ r5: .cfa -8 + ^
STACK CFI INIT 193e8 274 .cfa: sp 0 + .ra: lr
STACK CFI 193ec .cfa: sp 36 + .ra: .cfa -4 + ^ r10: .cfa -12 + ^ r11: .cfa -8 + ^ r4: .cfa -36 + ^ r5: .cfa -32 + ^ r6: .cfa -28 + ^ r7: .cfa -24 + ^ r8: .cfa -20 + ^ r9: .cfa -16 + ^
STACK CFI 193ee .cfa: sp 72 +
STACK CFI 193fc .cfa: r7 72 +
STACK CFI INIT 1965c 50 .cfa: sp 0 + .ra: lr
STACK CFI 1965e .cfa: sp 24 + .ra: .cfa -4 + ^ r3: .cfa -24 + ^ r4: .cfa -20 + ^ r5: .cfa -16 + ^ r6: .cfa -12 + ^ r7: .cfa -8 + ^
STACK CFI INIT 196ac 2ec .cfa: sp 0 + .ra: lr
STACK CFI 196b0 .cfa: sp 36 + .ra: .cfa -4 + ^ r10: .cfa -12 + ^ r11: .cfa -8 + ^ r4: .cfa -36 + ^ r5: .cfa -32 + ^ r6: .cfa -28 + ^ r7: .cfa -24 + ^ r8: .cfa -20 + ^ r9: .cfa -16 + ^
STACK CFI 196b2 .cfa: sp 56 +
STACK CFI 196b8 .cfa: r7 56 +
STACK CFI INIT 19998 370 .cfa: sp 0 + .ra: lr
STACK CFI 1999c .cfa: sp 36 + .ra: .cfa -4 + ^ r10: .cfa -12 + ^ r11: .cfa -8 + ^ r4: .cfa -36 + ^ r5: .cfa -32 + ^ r6: .cfa -28 + ^ r7: .cfa -24 + ^ r8: .cfa -20 + ^ r9: .cfa -16 + ^
STACK CFI 1999e .cfa: sp 104 +
STACK CFI 199a2 .cfa: r7 104 +
STACK CFI INIT 19d08 88 .cfa: sp 0 + .ra: lr
STACK CFI 19d0c .cfa: sp 24 + .ra: .cfa -4 + ^ r4: .cfa -24 + ^ r5: .cfa -20 + ^ r6: .cfa -16 + ^ r7: .cfa -12 + ^ r8: .cfa -8 + ^
STACK CFI INIT 19d90 e .cfa: sp 0 + .ra: lr
STACK CFI INIT 19da0 36c .cfa: sp 0 + .ra: lr
STACK CFI 19da4 .cfa: sp 36 + .ra: .cfa -4 + ^ r10: .cfa -12 + ^ r11: .cfa -8 + ^ r4: .cfa -36 + ^ r5: .cfa -32 + ^ r6: .cfa -28 + ^ r7: .cfa -24 + ^ r8: .cfa -20 + ^ r9: .cfa -16 + ^
STACK CFI 19db0 .cfa: sp 96 +
STACK CFI INIT 1a10c 448 .cfa: sp 0 + .ra: lr
STACK CFI 1a110 .cfa: sp 36 + .ra: .cfa -4 + ^ r10: .cfa -12 + ^ r11: .cfa -8 + ^ r4: .cfa -36 + ^ r5: .cfa -32 + ^ r6: .cfa -28 + ^ r7: .cfa -24 + ^ r8: .cfa -20 + ^ r9: .cfa -16 + ^
STACK CFI 1a112 .cfa: sp 96 +
STACK CFI INIT 1a554 368 .cfa: sp 0 + .ra: lr
STACK CFI 1a558 .cfa: sp 36 + .ra: .cfa -4 + ^ r10: .cfa -12 + ^ r11: .cfa -8 + ^ r4: .cfa -36 + ^ r5: .cfa -32 + ^ r6: .cfa -28 + ^ r7: .cfa -24 + ^ r8: .cfa -20 + ^ r9: .cfa -16 + ^
STACK CFI 1a564 .cfa: sp 96 +
STACK CFI INIT 1a8bc 494 .cfa: sp 0 + .ra: lr
STACK CFI 1a8c0 .cfa: sp 36 + .ra: .cfa -4 + ^ r10: .cfa -12 + ^ r11: .cfa -8 + ^ r4: .cfa -36 + ^ r5: .cfa -32 + ^ r6: .cfa -28 + ^ r7: .cfa -24 + ^ r8: .cfa -20 + ^ r9: .cfa -16 + ^
STACK CFI 1a8c2 .cfa: sp 96 +
STACK CFI INIT 1ad50 248 .cfa: sp 0 + .ra: lr
STACK CFI 1ad54 .cfa: sp 36 + .ra: .cfa -4 + ^ r10: .cfa -12 + ^ r11: .cfa -8 + ^ r4: .cfa -36 + ^ r5: .cfa -32 + ^ r6: .cfa -28 + ^ r7: .cfa -24 + ^ r8: .cfa -20 + ^ r9: .cfa -16 + ^
STACK CFI 1ad5a .cfa: sp 96 +
STACK CFI INIT 1af98 620 .cfa: sp 0 + .ra: lr
STACK CFI 1af9c .cfa: sp 36 + .ra: .cfa -4 + ^ r10: .cfa -12 + ^ r11: .cfa -8 + ^ r4: .cfa -36 + ^ r5: .cfa -32 + ^ r6: .cfa -28 + ^ r7: .cfa -24 + ^ r8: .cfa -20 + ^ r9: .cfa -16 + ^
STACK CFI 1af9e .cfa: sp 112 +
STACK CFI INIT 1b5b8 8cc .cfa: sp 0 + .ra: lr
STACK CFI 1b5bc .cfa: sp 36 + .ra: .cfa -4 + ^ r10: .cfa -12 + ^ r11: .cfa -8 + ^ r4: .cfa -36 + ^ r5: .cfa -32 + ^ r6: .cfa -28 + ^ r7: .cfa -24 + ^ r8: .cfa -20 + ^ r9: .cfa -16 + ^
STACK CFI 1b5be .cfa: sp 120 +
STACK CFI INIT 1be84 9d8 .cfa: sp 0 + .ra: lr
STACK CFI 1be8c .cfa: sp 36 + .ra: .cfa -4 + ^ r10: .cfa -12 + ^ r11: .cfa -8 + ^ r4: .cfa -36 + ^ r5: .cfa -32 + ^ r6: .cfa -28 + ^ r7: .cfa -24 + ^ r8: .cfa -20 + ^ r9: .cfa -16 + ^
STACK CFI 1be92 .cfa: sp 120 +
STACK CFI INIT 1c85c 528 .cfa: sp 0 + .ra: lr
STACK CFI 1c860 .cfa: sp 36 + .ra: .cfa -4 + ^ r10: .cfa -12 + ^ r11: .cfa -8 + ^ r4: .cfa -36 + ^ r5: .cfa -32 + ^ r6: .cfa -28 + ^ r7: .cfa -24 + ^ r8: .cfa -20 + ^ r9: .cfa -16 + ^
STACK CFI 1c862 .cfa: sp 96 +
STACK CFI INIT 1cd84 7d8 .cfa: sp 0 + .ra: lr
STACK CFI 1cd88 .cfa: sp 36 + .ra: .cfa -4 + ^ r10: .cfa -12 + ^ r11: .cfa -8 + ^ r4: .cfa -36 + ^ r5: .cfa -32 + ^ r6: .cfa -28 + ^ r7: .cfa -24 + ^ r8: .cfa -20 + ^ r9: .cfa -16 + ^
STACK CFI 1cd8a .cfa: sp 120 +
STACK CFI INIT 1d55c 518 .cfa: sp 0 + .ra: lr
STACK CFI 1d560 .cfa: sp 36 + .ra: .cfa -4 + ^ r10: .cfa -12 + ^ r11: .cfa -8 + ^ r4: .cfa -36 + ^ r5: .cfa -32 + ^ r6: .cfa -28 + ^ r7: .cfa -24 + ^ r8: .cfa -20 + ^ r9: .cfa -16 + ^
STACK CFI 1d562 .cfa: sp 104 +
STACK CFI INIT 1da74 7e8 .cfa: sp 0 + .ra: lr
STACK CFI 1da78 .cfa: sp 36 + .ra: .cfa -4 + ^ r10: .cfa -12 + ^ r11: .cfa -8 + ^ r4: .cfa -36 + ^ r5: .cfa -32 + ^ r6: .cfa -28 + ^ r7: .cfa -24 + ^ r8: .cfa -20 + ^ r9: .cfa -16 + ^
STACK CFI 1da7a .cfa: sp 120 +
STACK CFI INIT 1e25c 8 .cfa: sp 0 + .ra: lr
STACK CFI INIT 1e264 90 .cfa: sp 0 + .ra: lr
STACK CFI 1e268 .cfa: sp 16 + .ra: .cfa -4 + ^ r4: .cfa -16 + ^ r5: .cfa -12 + ^ r6: .cfa -8 + ^
STACK CFI INIT 1e2f4 28c .cfa: sp 0 + .ra: lr
STACK CFI 1e2f8 .cfa: sp 36 + .ra: .cfa -4 + ^ r10: .cfa -12 + ^ r11: .cfa -8 + ^ r4: .cfa -36 + ^ r5: .cfa -32 + ^ r6: .cfa -28 + ^ r7: .cfa -24 + ^ r8: .cfa -20 + ^ r9: .cfa -16 + ^
STACK CFI 1e2fa .cfa: sp 128 +
STACK CFI INIT 1e580 220 .cfa: sp 0 + .ra: lr
STACK CFI 1e586 .cfa: sp 28 + .ra: .cfa -4 + ^ r4: .cfa -28 + ^ r5: .cfa -24 + ^ r6: .cfa -20 + ^ r7: .cfa -16 + ^ r8: .cfa -12 + ^ r9: .cfa -8 + ^
STACK CFI 1e58a .cfa: sp 40 +
STACK CFI INIT 1e7a0 90 .cfa: sp 0 + .ra: lr
STACK CFI 1e7a4 .cfa: sp 36 + .ra: .cfa -4 + ^ r10: .cfa -12 + ^ r11: .cfa -8 + ^ r4: .cfa -36 + ^ r5: .cfa -32 + ^ r6: .cfa -28 + ^ r7: .cfa -24 + ^ r8: .cfa -20 + ^ r9: .cfa -16 + ^
STACK CFI 1e7a6 .cfa: sp 48 +
STACK CFI INIT 1e830 72 .cfa: sp 0 + .ra: lr
STACK CFI 1e834 .cfa: sp 24 + .ra: .cfa -4 + ^ r4: .cfa -24 + ^ r5: .cfa -20 + ^ r6: .cfa -16 + ^ r7: .cfa -12 + ^ r8: .cfa -8 + ^
STACK CFI 1e836 .cfa: r7 24 +
STACK CFI INIT bcff4 1c .cfa: sp 0 + .ra: lr
STACK CFI INIT 1e8a4 c .cfa: sp 0 + .ra: lr
STACK CFI INIT 1e8b0 158 .cfa: sp 0 + .ra: lr
STACK CFI 1e8b4 .cfa: sp 20 + .ra: .cfa -4 + ^ r4: .cfa -20 + ^ r5: .cfa -16 + ^ r6: .cfa -12 + ^ r7: .cfa -8 + ^
STACK CFI 1e8b8 .cfa: sp 136 +
STACK CFI INIT 1ea08 54 .cfa: sp 0 + .ra: lr
STACK CFI 1ea0c .cfa: sp 16 + .ra: .cfa -4 + ^ r4: .cfa -16 + ^ r5: .cfa -12 + ^ r6: .cfa -8 + ^
STACK CFI 1ea10 .cfa: sp 24 +
STACK CFI INIT 1ea5c 2e4 .cfa: sp 0 + .ra: lr
STACK CFI 1ea60 .cfa: sp 36 + .ra: .cfa -4 + ^ r10: .cfa -12 + ^ r11: .cfa -8 + ^ r4: .cfa -36 + ^ r5: .cfa -32 + ^ r6: .cfa -28 + ^ r7: .cfa -24 + ^ r8: .cfa -20 + ^ r9: .cfa -16 + ^
STACK CFI 1ea68 .cfa: sp 96 +
STACK CFI INIT 1ed40 14 .cfa: sp 0 + .ra: lr
STACK CFI INIT 1ed54 8 .cfa: sp 0 + .ra: lr
STACK CFI INIT bd010 16 .cfa: sp 0 + .ra: lr
STACK CFI bd012 .cfa: sp 8 + .ra: .cfa -4 + ^ r4: .cfa -8 + ^
STACK CFI INIT bd028 20 .cfa: sp 0 + .ra: lr
STACK CFI bd02a .cfa: sp 8 + .ra: .cfa -4 + ^ r4: .cfa -8 + ^
STACK CFI INIT 1ed5c 64 .cfa: sp 0 + .ra: lr
STACK CFI 1ed64 .cfa: sp 16 + .ra: .cfa -4 + ^ r3: .cfa -16 + ^ r4: .cfa -12 + ^ r5: .cfa -8 + ^
STACK CFI INIT 1edc0 18 .cfa: sp 0 + .ra: lr
STACK CFI INIT 1edd8 11c .cfa: sp 0 + .ra: lr
STACK CFI 1eddc .cfa: sp 32 + .ra: .cfa -4 + ^ r10: .cfa -8 + ^ r4: .cfa -32 + ^ r5: .cfa -28 + ^ r6: .cfa -24 + ^ r7: .cfa -20 + ^ r8: .cfa -16 + ^ r9: .cfa -12 + ^
STACK CFI 1edde .cfa: sp 40 +
STACK CFI INIT 1eef4 18 .cfa: sp 0 + .ra: lr
STACK CFI INIT 1ef0c 17c .cfa: sp 0 + .ra: lr
STACK CFI 1ef12 .cfa: sp 36 + .ra: .cfa -4 + ^ r10: .cfa -12 + ^ r11: .cfa -8 + ^ r4: .cfa -36 + ^ r5: .cfa -32 + ^ r6: .cfa -28 + ^ r7: .cfa -24 + ^ r8: .cfa -20 + ^ r9: .cfa -16 + ^
STACK CFI 1ef14 .cfa: sp 56 +
STACK CFI INIT 1f088 558 .cfa: sp 0 + .ra: lr
STACK CFI 1f08c .cfa: sp 36 + .ra: .cfa -4 + ^ r10: .cfa -12 + ^ r11: .cfa -8 + ^ r4: .cfa -36 + ^ r5: .cfa -32 + ^ r6: .cfa -28 + ^ r7: .cfa -24 + ^ r8: .cfa -20 + ^ r9: .cfa -16 + ^
STACK CFI 1f08e .cfa: sp 176 +
STACK CFI 1f092 .cfa: r7 176 +
STACK CFI INIT bd048 fc .cfa: sp 0 + .ra: lr
STACK CFI bd04c .cfa: sp 36 + .ra: .cfa -4 + ^ r10: .cfa -12 + ^ r11: .cfa -8 + ^ r4: .cfa -36 + ^ r5: .cfa -32 + ^ r6: .cfa -28 + ^ r7: .cfa -24 + ^ r8: .cfa -20 + ^ r9: .cfa -16 + ^
STACK CFI bd04e .cfa: sp 64 +
STACK CFI INIT 15c40 68 .cfa: sp 0 + .ra: lr
STACK CFI 15c46 .cfa: sp 16 + r4: .cfa -16 + ^ r5: .cfa -12 + ^ r6: .cfa -8 + ^ r7: .cfa -4 + ^
STACK CFI INIT 1f5e0 348 .cfa: sp 0 + .ra: lr
STACK CFI 1f5e4 .cfa: sp 36 + .ra: .cfa -4 + ^ r10: .cfa -12 + ^ r11: .cfa -8 + ^ r4: .cfa -36 + ^ r5: .cfa -32 + ^ r6: .cfa -28 + ^ r7: .cfa -24 + ^ r8: .cfa -20 + ^ r9: .cfa -16 + ^
STACK CFI 1f5e6 .cfa: sp 96 +
STACK CFI 1f5f2 .cfa: r7 64 +
STACK CFI INIT 1f928 38 .cfa: sp 0 + .ra: lr
STACK CFI INIT 1f960 2b8 .cfa: sp 0 + .ra: lr
STACK CFI 1f966 .cfa: sp 40 + .ra: .cfa -4 + ^ r10: .cfa -12 + ^ r11: .cfa -8 + ^ r3: .cfa -40 + ^ r4: .cfa -36 + ^ r5: .cfa -32 + ^ r6: .cfa -28 + ^ r7: .cfa -24 + ^ r8: .cfa -20 + ^ r9: .cfa -16 + ^
STACK CFI INIT 1fc18 23c .cfa: sp 0 + .ra: lr
STACK CFI 1fc1c .cfa: sp 36 + .ra: .cfa -4 + ^ r10: .cfa -12 + ^ r11: .cfa -8 + ^ r4: .cfa -36 + ^ r5: .cfa -32 + ^ r6: .cfa -28 + ^ r7: .cfa -24 + ^ r8: .cfa -20 + ^ r9: .cfa -16 + ^
STACK CFI 1fc1e .cfa: sp 160 +
STACK CFI 1fc2c .cfa: r7 152 +
STACK CFI INIT 1fe54 3c .cfa: sp 0 + .ra: lr
STACK CFI 1fe58 .cfa: sp 8 + .ra: .cfa -4 + ^ r4: .cfa -8 + ^
STACK CFI INIT 1fe90 8 .cfa: sp 0 + .ra: lr
STACK CFI INIT 1fe98 6e8 .cfa: sp 0 + .ra: lr
STACK CFI 1fe9c .cfa: sp 36 + .ra: .cfa -4 + ^ r10: .cfa -12 + ^ r11: .cfa -8 + ^ r4: .cfa -36 + ^ r5: .cfa -32 + ^ r6: .cfa -28 + ^ r7: .cfa -24 + ^ r8: .cfa -20 + ^ r9: .cfa -16 + ^
STACK CFI 1fe9e .cfa: sp 512 +
STACK CFI 1fea0 .cfa: r7 496 +
STACK CFI INIT bd144 a4 .cfa: sp 0 + .ra: lr
STACK CFI bd146 .cfa: sp 24 + .ra: .cfa -4 + ^ r3: .cfa -24 + ^ r4: .cfa -20 + ^ r5: .cfa -16 + ^ r6: .cfa -12 + ^ r7: .cfa -8 + ^
STACK CFI INIT 20580 fc .cfa: sp 0 + .ra: lr
STACK CFI 2058a .cfa: sp 20 + r4: .cfa -20 + ^ r5: .cfa -16 + ^ r6: .cfa -12 + ^ r7: .cfa -8 + ^ r8: .cfa -4 + ^
STACK CFI INIT 2067c 14 .cfa: sp 0 + .ra: lr
STACK CFI INIT 20690 4c .cfa: sp 0 + .ra: lr
STACK CFI INIT 206dc 4c4 .cfa: sp 0 + .ra: lr
STACK CFI 206e0 .cfa: sp 36 + .ra: .cfa -4 + ^ r10: .cfa -12 + ^ r11: .cfa -8 + ^ r4: .cfa -36 + ^ r5: .cfa -32 + ^ r6: .cfa -28 + ^ r7: .cfa -24 + ^ r8: .cfa -20 + ^ r9: .cfa -16 + ^
STACK CFI 206e2 .cfa: sp 248 +
STACK CFI 206e6 .cfa: r7 248 +
STACK CFI INIT 20ba0 120 .cfa: sp 0 + .ra: lr
STACK CFI 20ba6 .cfa: sp 28 + .ra: .cfa -4 + ^ r4: .cfa -28 + ^ r5: .cfa -24 + ^ r6: .cfa -20 + ^ r7: .cfa -16 + ^ r8: .cfa -12 + ^ r9: .cfa -8 + ^
STACK CFI 20bac .cfa: sp 40 +
STACK CFI INIT 20cc0 90 .cfa: sp 0 + .ra: lr
STACK CFI 20cc4 .cfa: sp 16 + .ra: .cfa -4 + ^ r4: .cfa -16 + ^ r5: .cfa -12 + ^ r6: .cfa -8 + ^
STACK CFI INIT 20d50 74 .cfa: sp 0 + .ra: lr
STACK CFI 20d58 .cfa: sp 12 + r4: .cfa -12 + ^ r5: .cfa -8 + ^ r6: .cfa -4 + ^
STACK CFI INIT 20dc4 44 .cfa: sp 0 + .ra: lr
STACK CFI 20dd0 .cfa: sp 4 + r4: .cfa -4 + ^
STACK CFI INIT 20e08 42 .cfa: sp 0 + .ra: lr
STACK CFI 20e14 .cfa: sp 4 + r4: .cfa -4 + ^
STACK CFI INIT 20e4c 64 .cfa: sp 0 + .ra: lr
STACK CFI 20e54 .cfa: sp 12 + r4: .cfa -12 + ^ r5: .cfa -8 + ^ r6: .cfa -4 + ^
STACK CFI INIT 20eb0 18 .cfa: sp 0 + .ra: lr
STACK CFI INIT 20ec8 134 .cfa: sp 0 + .ra: lr
STACK CFI 20ece .cfa: sp 8 + .ra: .cfa -4 + ^ r7: .cfa -8 + ^
STACK CFI 20ed2 .cfa: sp 40 +
STACK CFI INIT 20ffc 30 .cfa: sp 0 + .ra: lr
STACK CFI 2100a .cfa: sp 8 + .ra: .cfa -4 + ^ r7: .cfa -8 + ^
STACK CFI 2100c .cfa: sp 16 +
STACK CFI INIT 2102c 3c .cfa: sp 0 + .ra: lr
STACK CFI 2102e .cfa: sp 8 + .ra: .cfa -4 + ^ r7: .cfa -8 + ^
STACK CFI 21032 .cfa: sp 1040 +
STACK CFI INIT 21068 8 .cfa: sp 0 + .ra: lr
STACK CFI 2106a .cfa: sp 8 + .ra: .cfa -4 + ^ r3: .cfa -8 + ^
STACK CFI INIT 21070 1c .cfa: sp 0 + .ra: lr
STACK CFI INIT 2108c 1c .cfa: sp 0 + .ra: lr
STACK CFI INIT 210a8 1c .cfa: sp 0 + .ra: lr
STACK CFI INIT 210c4 1c .cfa: sp 0 + .ra: lr
STACK CFI INIT 210e0 1c .cfa: sp 0 + .ra: lr
STACK CFI INIT 210fc 1c .cfa: sp 0 + .ra: lr
STACK CFI INIT 21118 1c .cfa: sp 0 + .ra: lr
STACK CFI INIT 21134 1c .cfa: sp 0 + .ra: lr
STACK CFI INIT 21150 1c .cfa: sp 0 + .ra: lr
STACK CFI INIT 2116c 1c .cfa: sp 0 + .ra: lr
STACK CFI INIT 21188 1c .cfa: sp 0 + .ra: lr
STACK CFI INIT 211a4 24 .cfa: sp 0 + .ra: lr
STACK CFI INIT 211c8 24 .cfa: sp 0 + .ra: lr
STACK CFI INIT 211ec 1c .cfa: sp 0 + .ra: lr
STACK CFI INIT 21208 1c .cfa: sp 0 + .ra: lr
STACK CFI INIT 21224 1c .cfa: sp 0 + .ra: lr
STACK CFI INIT 21240 6 .cfa: sp 0 + .ra: lr
STACK CFI INIT 21248 c .cfa: sp 0 + .ra: lr
STACK CFI INIT 21254 c .cfa: sp 0 + .ra: lr
STACK CFI INIT 21260 c .cfa: sp 0 + .ra: lr
STACK CFI INIT 2126c c .cfa: sp 0 + .ra: lr
STACK CFI INIT 21278 c .cfa: sp 0 + .ra: lr
STACK CFI INIT 21284 c .cfa: sp 0 + .ra: lr
STACK CFI INIT 21290 c .cfa: sp 0 + .ra: lr
STACK CFI INIT 2129c c .cfa: sp 0 + .ra: lr
STACK CFI INIT 212a8 c .cfa: sp 0 + .ra: lr
STACK CFI INIT 212b4 c .cfa: sp 0 + .ra: lr
STACK CFI INIT 212c0 c .cfa: sp 0 + .ra: lr
STACK CFI INIT 212cc c .cfa: sp 0 + .ra: lr
STACK CFI INIT 212d8 c .cfa: sp 0 + .ra: lr
STACK CFI INIT 212e4 8 .cfa: sp 0 + .ra: lr
STACK CFI INIT 212ec 8 .cfa: sp 0 + .ra: lr
STACK CFI INIT 212f4 20 .cfa: sp 0 + .ra: lr
STACK CFI INIT 21314 14 .cfa: sp 0 + .ra: lr
STACK CFI INIT 21328 14 .cfa: sp 0 + .ra: lr
STACK CFI INIT 2133c 14 .cfa: sp 0 + .ra: lr
STACK CFI INIT 21350 50 .cfa: sp 0 + .ra: lr
STACK CFI 21358 .cfa: sp 12 + r4: .cfa -12 + ^ r5: .cfa -8 + ^ r6: .cfa -4 + ^
STACK CFI INIT 213a0 27c .cfa: sp 0 + .ra: lr
STACK CFI 213a4 .cfa: sp 40 + .ra: .cfa -4 + ^ r10: .cfa -12 + ^ r11: .cfa -8 + ^ r3: .cfa -40 + ^ r4: .cfa -36 + ^ r5: .cfa -32 + ^ r6: .cfa -28 + ^ r7: .cfa -24 + ^ r8: .cfa -20 + ^ r9: .cfa -16 + ^
STACK CFI INIT 2161c 26 .cfa: sp 0 + .ra: lr
STACK CFI 2161e .cfa: sp 4 + .ra: .cfa -4 + ^
STACK CFI 21620 .cfa: sp 16 +
STACK CFI INIT 21644 26 .cfa: sp 0 + .ra: lr
STACK CFI 21646 .cfa: sp 4 + .ra: .cfa -4 + ^
STACK CFI 21648 .cfa: sp 16 +
STACK CFI INIT 2166c 16 .cfa: sp 0 + .ra: lr
STACK CFI 2166e .cfa: sp 4 + .ra: .cfa -4 + ^
STACK CFI 21670 .cfa: sp 16 +
STACK CFI INIT 21684 6 .cfa: sp 0 + .ra: lr
STACK CFI INIT 2168c a .cfa: sp 0 + .ra: lr
STACK CFI INIT 21698 f6 .cfa: sp 0 + .ra: lr
STACK CFI 2169a .cfa: sp 24 + .ra: .cfa -4 + ^ r3: .cfa -24 + ^ r4: .cfa -20 + ^ r5: .cfa -16 + ^ r6: .cfa -12 + ^ r7: .cfa -8 + ^
STACK CFI INIT bd1e8 8c .cfa: sp 0 + .ra: lr
STACK CFI bd1ea .cfa: sp 24 + .ra: .cfa -4 + ^ r3: .cfa -24 + ^ r4: .cfa -20 + ^ r5: .cfa -16 + ^ r6: .cfa -12 + ^ r7: .cfa -8 + ^
STACK CFI INIT 21790 3e .cfa: sp 0 + .ra: lr
STACK CFI 21792 .cfa: sp 16 + .ra: .cfa -4 + ^ r3: .cfa -16 + ^ r4: .cfa -12 + ^ r5: .cfa -8 + ^
STACK CFI INIT 217d0 3a .cfa: sp 0 + .ra: lr
STACK CFI 217d2 .cfa: sp 24 + .ra: .cfa -4 + ^ r3: .cfa -24 + ^ r4: .cfa -20 + ^ r5: .cfa -16 + ^ r6: .cfa -12 + ^ r7: .cfa -8 + ^
STACK CFI INIT 2180c 900 .cfa: sp 0 + .ra: lr
STACK CFI 21810 .cfa: sp 36 + .ra: .cfa -4 + ^ r10: .cfa -12 + ^ r11: .cfa -8 + ^ r4: .cfa -36 + ^ r5: .cfa -32 + ^ r6: .cfa -28 + ^ r7: .cfa -24 + ^ r8: .cfa -20 + ^ r9: .cfa -16 + ^
STACK CFI 21812 .cfa: sp 96 +
STACK CFI 21814 .cfa: r7 88 +
STACK CFI INIT 2210c 668 .cfa: sp 0 + .ra: lr
STACK CFI 22110 .cfa: sp 36 + .ra: .cfa -4 + ^ r10: .cfa -12 + ^ r11: .cfa -8 + ^ r4: .cfa -36 + ^ r5: .cfa -32 + ^ r6: .cfa -28 + ^ r7: .cfa -24 + ^ r8: .cfa -20 + ^ r9: .cfa -16 + ^
STACK CFI 22112 .cfa: sp 144 +
STACK CFI 22116 .cfa: r7 136 +
STACK CFI INIT 22774 14 .cfa: sp 0 + .ra: lr
STACK CFI 22776 .cfa: sp 8 + .ra: .cfa -4 + ^ r4: .cfa -8 + ^
STACK CFI 22778 .cfa: sp 16 +
STACK CFI INIT 22788 10 .cfa: sp 0 + .ra: lr
STACK CFI 2278a .cfa: sp 8 + .ra: .cfa -4 + ^ r4: .cfa -8 + ^
STACK CFI 2278c .cfa: sp 16 +
STACK CFI INIT 22798 1a .cfa: sp 0 + .ra: lr
STACK CFI 2279a .cfa: sp 8 + .ra: .cfa -4 + ^ r4: .cfa -8 + ^
STACK CFI 2279c .cfa: sp 16 +
STACK CFI INIT 227b4 1e8 .cfa: sp 0 + .ra: lr
STACK CFI 227b8 .cfa: sp 36 + .ra: .cfa -4 + ^ r10: .cfa -12 + ^ r11: .cfa -8 + ^ r4: .cfa -36 + ^ r5: .cfa -32 + ^ r6: .cfa -28 + ^ r7: .cfa -24 + ^ r8: .cfa -20 + ^ r9: .cfa -16 + ^
STACK CFI 227ba .cfa: sp 96 +
STACK CFI 227c0 .cfa: r7 64 +
STACK CFI INIT bd274 30 .cfa: sp 0 + .ra: lr
STACK CFI bd276 .cfa: sp 16 + .ra: .cfa -4 + ^ r3: .cfa -16 + ^ r4: .cfa -12 + ^ r5: .cfa -8 + ^
STACK CFI INIT 2299c 10d8 .cfa: sp 0 + .ra: lr
STACK CFI 229a4 .cfa: sp 36 + .ra: .cfa -4 + ^ r10: .cfa -12 + ^ r11: .cfa -8 + ^ r4: .cfa -36 + ^ r5: .cfa -32 + ^ r6: .cfa -28 + ^ r7: .cfa -24 + ^ r8: .cfa -20 + ^ r9: .cfa -16 + ^
STACK CFI 229a6 .cfa: sp 264 +
STACK CFI 229ae .cfa: r7 256 +
STACK CFI INIT bd2a4 80 .cfa: sp 0 + .ra: lr
STACK CFI bd2a6 .cfa: sp 24 + .ra: .cfa -4 + ^ r3: .cfa -24 + ^ r4: .cfa -20 + ^ r5: .cfa -16 + ^ r6: .cfa -12 + ^ r7: .cfa -8 + ^
STACK CFI INIT 23a74 10 .cfa: sp 0 + .ra: lr
STACK CFI INIT 23a84 378 .cfa: sp 0 + .ra: lr
STACK CFI 23a90 .cfa: sp 36 + .ra: .cfa -4 + ^ r10: .cfa -12 + ^ r11: .cfa -8 + ^ r4: .cfa -36 + ^ r5: .cfa -32 + ^ r6: .cfa -28 + ^ r7: .cfa -24 + ^ r8: .cfa -20 + ^ r9: .cfa -16 + ^
STACK CFI 23a96 .cfa: sp 520 +
STACK CFI 23a98 .cfa: r7 520 +
STACK CFI INIT 23dfc 170 .cfa: sp 0 + .ra: lr
STACK CFI 23e04 .cfa: sp 36 + .ra: .cfa -4 + ^ r10: .cfa -12 + ^ r11: .cfa -8 + ^ r4: .cfa -36 + ^ r5: .cfa -32 + ^ r6: .cfa -28 + ^ r7: .cfa -24 + ^ r8: .cfa -20 + ^ r9: .cfa -16 + ^
STACK CFI 23e08 .cfa: sp 64 +
STACK CFI INIT 23f6c f4 .cfa: sp 0 + .ra: lr
STACK CFI 23f6e .cfa: sp 24 + .ra: .cfa -4 + ^ r3: .cfa -24 + ^ r4: .cfa -20 + ^ r5: .cfa -16 + ^ r6: .cfa -12 + ^ r7: .cfa -8 + ^
STACK CFI INIT 24060 2e0 .cfa: sp 0 + .ra: lr
STACK CFI 24064 .cfa: sp 36 + .ra: .cfa -4 + ^ r10: .cfa -12 + ^ r11: .cfa -8 + ^ r4: .cfa -36 + ^ r5: .cfa -32 + ^ r6: .cfa -28 + ^ r7: .cfa -24 + ^ r8: .cfa -20 + ^ r9: .cfa -16 + ^
STACK CFI 24066 .cfa: sp 104 +
STACK CFI INIT 24340 c0 .cfa: sp 0 + .ra: lr
STACK CFI 24344 .cfa: sp 24 + .ra: .cfa -4 + ^ r4: .cfa -24 + ^ r5: .cfa -20 + ^ r6: .cfa -16 + ^ r7: .cfa -12 + ^ r8: .cfa -8 + ^
STACK CFI 24348 .cfa: sp 32 +
STACK CFI INIT 24400 162 .cfa: sp 0 + .ra: lr
STACK CFI 24404 .cfa: sp 40 + .ra: .cfa -4 + ^ r10: .cfa -12 + ^ r11: .cfa -8 + ^ r3: .cfa -40 + ^ r4: .cfa -36 + ^ r5: .cfa -32 + ^ r6: .cfa -28 + ^ r7: .cfa -24 + ^ r8: .cfa -20 + ^ r9: .cfa -16 + ^
STACK CFI INIT 24564 3c .cfa: sp 0 + .ra: lr
STACK CFI 24566 .cfa: sp 8 + .ra: .cfa -4 + ^ r4: .cfa -8 + ^
STACK CFI INIT 245a0 8e .cfa: sp 0 + .ra: lr
STACK CFI 245a2 .cfa: sp 20 + .ra: .cfa -4 + ^ r4: .cfa -20 + ^ r5: .cfa -16 + ^ r6: .cfa -12 + ^ r7: .cfa -8 + ^
STACK CFI 245a6 .cfa: sp 32 +
STACK CFI INIT 24630 584 .cfa: sp 0 + .ra: lr
STACK CFI 24634 .cfa: sp 36 + .ra: .cfa -4 + ^ r10: .cfa -12 + ^ r11: .cfa -8 + ^ r4: .cfa -36 + ^ r5: .cfa -32 + ^ r6: .cfa -28 + ^ r7: .cfa -24 + ^ r8: .cfa -20 + ^ r9: .cfa -16 + ^
STACK CFI 24638 .cfa: sp 1312 +
STACK CFI INIT 24bb4 bc .cfa: sp 0 + .ra: lr
STACK CFI 24bb8 .cfa: sp 32 + .ra: .cfa -4 + ^ r10: .cfa -8 + ^ r4: .cfa -32 + ^ r5: .cfa -28 + ^ r6: .cfa -24 + ^ r7: .cfa -20 + ^ r8: .cfa -16 + ^ r9: .cfa -12 + ^
STACK CFI 24bbc .cfa: sp 48 +
STACK CFI INIT 24c70 22 .cfa: sp 0 + .ra: lr
STACK CFI INIT 24c94 100 .cfa: sp 0 + .ra: lr
STACK CFI 24c98 .cfa: sp 24 + .ra: .cfa -4 + ^ r4: .cfa -24 + ^ r5: .cfa -20 + ^ r6: .cfa -16 + ^ r7: .cfa -12 + ^ r8: .cfa -8 + ^
STACK CFI 24c9c .cfa: r7 24 +
STACK CFI INIT 24d94 84 .cfa: sp 0 + .ra: lr
STACK CFI 24d98 .cfa: sp 40 + .ra: .cfa -4 + ^ r10: .cfa -12 + ^ r11: .cfa -8 + ^ r3: .cfa -40 + ^ r4: .cfa -36 + ^ r5: .cfa -32 + ^ r6: .cfa -28 + ^ r7: .cfa -24 + ^ r8: .cfa -20 + ^ r9: .cfa -16 + ^
STACK CFI INIT 24e18 4c .cfa: sp 0 + .ra: lr
STACK CFI 24e1c .cfa: sp 8 + .ra: .cfa -4 + ^ r4: .cfa -8 + ^
STACK CFI INIT 24e64 524 .cfa: sp 0 + .ra: lr
STACK CFI 24e68 .cfa: sp 36 + .ra: .cfa -4 + ^ r10: .cfa -12 + ^ r11: .cfa -8 + ^ r4: .cfa -36 + ^ r5: .cfa -32 + ^ r6: .cfa -28 + ^ r7: .cfa -24 + ^ r8: .cfa -20 + ^ r9: .cfa -16 + ^
STACK CFI 24e6a .cfa: sp 168 +
STACK CFI 24e6c .cfa: r7 160 +
STACK CFI INIT 25388 1a .cfa: sp 0 + .ra: lr
STACK CFI INIT 253a4 18 .cfa: sp 0 + .ra: lr
STACK CFI INIT 253bc c .cfa: sp 0 + .ra: lr
STACK CFI INIT 253c8 14 .cfa: sp 0 + .ra: lr
STACK CFI 253ca .cfa: sp 4 + r4: .cfa -4 + ^
STACK CFI INIT 253dc be .cfa: sp 0 + .ra: lr
STACK CFI 253e4 .cfa: sp 32 + .ra: .cfa -4 + ^ r3: .cfa -32 + ^ r4: .cfa -28 + ^ r5: .cfa -24 + ^ r6: .cfa -20 + ^ r7: .cfa -16 + ^ r8: .cfa -12 + ^ r9: .cfa -8 + ^
STACK CFI INIT 254a0 110 .cfa: sp 0 + .ra: lr
STACK CFI 254a2 .cfa: sp 24 + .ra: .cfa -4 + ^ r3: .cfa -24 + ^ r4: .cfa -20 + ^ r5: .cfa -16 + ^ r6: .cfa -12 + ^ r7: .cfa -8 + ^
STACK CFI INIT 255b0 74 .cfa: sp 0 + .ra: lr
STACK CFI 255b4 .cfa: sp 32 + .ra: .cfa -4 + ^ r3: .cfa -32 + ^ r4: .cfa -28 + ^ r5: .cfa -24 + ^ r6: .cfa -20 + ^ r7: .cfa -16 + ^ r8: .cfa -12 + ^ r9: .cfa -8 + ^
STACK CFI INIT 25624 60 .cfa: sp 0 + .ra: lr
STACK CFI 25626 .cfa: sp 16 + .ra: .cfa -4 + ^ r4: .cfa -16 + ^ r5: .cfa -12 + ^ r6: .cfa -8 + ^
STACK CFI INIT 25684 6 .cfa: sp 0 + .ra: lr
STACK CFI INIT 2568c 10 .cfa: sp 0 + .ra: lr
STACK CFI INIT 2569c c .cfa: sp 0 + .ra: lr
STACK CFI INIT 256a8 c .cfa: sp 0 + .ra: lr
STACK CFI INIT 256b4 c .cfa: sp 0 + .ra: lr
STACK CFI INIT 256c0 56 .cfa: sp 0 + .ra: lr
STACK CFI 256ca .cfa: sp 16 + .ra: .cfa -4 + ^ r3: .cfa -16 + ^ r4: .cfa -12 + ^ r5: .cfa -8 + ^
STACK CFI INIT 25718 c2 .cfa: sp 0 + .ra: lr
STACK CFI 25720 .cfa: sp 16 + .ra: .cfa -4 + ^ r4: .cfa -16 + ^ r5: .cfa -12 + ^ r6: .cfa -8 + ^
STACK CFI INIT 257dc 4c .cfa: sp 0 + .ra: lr
STACK CFI 257e4 .cfa: sp 16 + .ra: .cfa -4 + ^ r4: .cfa -16 + ^ r5: .cfa -12 + ^ r6: .cfa -8 + ^
STACK CFI INIT 25828 58 .cfa: sp 0 + .ra: lr
STACK CFI 2582a .cfa: sp 16 + .ra: .cfa -4 + ^ r4: .cfa -16 + ^ r5: .cfa -12 + ^ r6: .cfa -8 + ^
STACK CFI INIT 25880 6 .cfa: sp 0 + .ra: lr
STACK CFI INIT 25888 44 .cfa: sp 0 + .ra: lr
STACK CFI 25890 .cfa: sp 8 + r4: .cfa -8 + ^ r5: .cfa -4 + ^
STACK CFI INIT 258d0 54 .cfa: sp 0 + .ra: lr
STACK CFI INIT 25930 24 .cfa: sp 0 + .ra: lr
STACK CFI 25932 .cfa: sp 8 + .ra: .cfa -4 + ^ r4: .cfa -8 + ^
STACK CFI INIT 25960 8 .cfa: sp 0 + .ra: lr
STACK CFI INIT 25970 8 .cfa: sp 0 + .ra: lr
STACK CFI INIT 25980 2c .cfa: sp 0 + .ra: lr
STACK CFI 25982 .cfa: sp 16 + .ra: .cfa -4 + ^ r3: .cfa -16 + ^ r4: .cfa -12 + ^ r5: .cfa -8 + ^
STACK CFI INIT 259b0 5c .cfa: sp 0 + .ra: lr
STACK CFI 259c0 .ra: .ra r10: r10 r11: r11 r4: r4 r5: r5 r6: r6 r7: r7 r8: r8 r9: r9 sp: sp
STACK CFI INIT 25a10 24 .cfa: sp 0 + .ra: lr
STACK CFI 25a14 .cfa: sp 8 + .ra: .cfa -4 + ^ r7: .cfa -8 + ^
STACK CFI 25a18 .cfa: r7 8 +
STACK CFI INIT 25a34 88 .cfa: sp 0 + .ra: lr
STACK CFI 25a3e .cfa: sp 20 + .ra: .cfa -4 + ^ r4: .cfa -20 + ^ r5: .cfa -16 + ^ r6: .cfa -12 + ^ r7: .cfa -8 + ^
STACK CFI 25a44 .cfa: sp 304 +
STACK CFI INIT 25abc 54 .cfa: sp 0 + .ra: lr
STACK CFI 25abe .cfa: sp 8 + .ra: .cfa -4 + ^ r4: .cfa -8 + ^
STACK CFI INIT 25b10 24 .cfa: sp 0 + .ra: lr
STACK CFI INIT 25b34 100 .cfa: sp 0 + .ra: lr
STACK CFI 25b38 .cfa: sp 24 + .ra: .cfa -4 + ^ r4: .cfa -24 + ^ r5: .cfa -20 + ^ r6: .cfa -16 + ^ r7: .cfa -12 + ^ r8: .cfa -8 + ^
STACK CFI 25b3e .cfa: sp 304 +
STACK CFI INIT 25c34 24 .cfa: sp 0 + .ra: lr
STACK CFI INIT 25c58 64 .cfa: sp 0 + .ra: lr
STACK CFI 25c5a .cfa: sp 12 + .ra: .cfa -4 + ^ r4: .cfa -12 + ^ r5: .cfa -8 + ^
STACK CFI 25c5e .cfa: sp 144 +
STACK CFI INIT 25cc0 14 .cfa: sp 0 + .ra: lr
STACK CFI 25cc2 .cfa: sp 4 + r7: .cfa -4 + ^
STACK CFI 25cc8 .cfa: sp 0 + r7: r7
STACK CFI INIT 25ce0 30 .cfa: sp 0 + .ra: lr
STACK CFI 25ce2 .cfa: sp 4 + .ra: .cfa -4 + ^
STACK CFI INIT 25d10 78 .cfa: sp 0 + .ra: lr
STACK CFI 25d14 .cfa: sp 8 + .ra: .cfa -4 + ^ r4: .cfa -8 + ^
STACK CFI INIT 25d88 30 .cfa: sp 0 + .ra: lr
STACK CFI 25d8a .cfa: sp 4 + .ra: .cfa -4 + ^
STACK CFI INIT 25db8 62 .cfa: sp 0 + .ra: lr
STACK CFI 25dba .cfa: sp 12 + .ra: .cfa -4 + ^ r4: .cfa -12 + ^ r5: .cfa -8 + ^
STACK CFI 25dbe .cfa: sp 144 +
STACK CFI INIT 25e1c 34 .cfa: sp 0 + .ra: lr
STACK CFI 25e20 .cfa: sp 16 + .ra: .cfa -4 + ^ r4: .cfa -16 + ^ r5: .cfa -12 + ^ r6: .cfa -8 + ^
STACK CFI INIT 25e50 2a .cfa: sp 0 + .ra: lr
STACK CFI 25e52 .cfa: sp 8 + .ra: .cfa -4 + ^ r4: .cfa -8 + ^
STACK CFI 25e54 .cfa: sp 264 +
STACK CFI INIT 25e7c 2a .cfa: sp 0 + .ra: lr
STACK CFI 25e7e .cfa: sp 8 + .ra: .cfa -4 + ^ r4: .cfa -8 + ^
STACK CFI 25e80 .cfa: sp 264 +
STACK CFI INIT 25ea8 42 .cfa: sp 0 + .ra: lr
STACK CFI 25eaa .cfa: sp 12 + .ra: .cfa -4 + ^ r4: .cfa -12 + ^ r5: .cfa -8 + ^
STACK CFI 25eae .cfa: sp 144 +
STACK CFI INIT 25eec 34 .cfa: sp 0 + .ra: lr
STACK CFI 25ef0 .cfa: sp 16 + .ra: .cfa -4 + ^ r4: .cfa -16 + ^ r5: .cfa -12 + ^ r6: .cfa -8 + ^
STACK CFI INIT 25f20 4 .cfa: sp 0 + .ra: lr
STACK CFI INIT 25f24 4 .cfa: sp 0 + .ra: lr
STACK CFI INIT 25f28 84 .cfa: sp 0 + .ra: lr
STACK CFI 25f2a .cfa: sp 20 + .ra: .cfa -4 + ^ r4: .cfa -20 + ^ r5: .cfa -16 + ^ r6: .cfa -12 + ^ r7: .cfa -8 + ^
STACK CFI 25f2e .cfa: sp 304 +
STACK CFI INIT 25fac 4a .cfa: sp 0 + .ra: lr
STACK CFI 25fae .cfa: sp 8 + .ra: .cfa -4 + ^ r4: .cfa -8 + ^
STACK CFI 25fb2 .cfa: sp 32 +
STACK CFI INIT 26000 14 .cfa: sp 0 + .ra: lr
STACK CFI 26002 .cfa: sp 4 + r7: .cfa -4 + ^
STACK CFI 26008 .cfa: sp 0 + r7: r7
STACK CFI INIT 26020 7c .cfa: sp 0 + .ra: lr
STACK CFI 26022 .cfa: sp 16 + .ra: .cfa -4 + ^ r4: .cfa -16 + ^ r5: .cfa -12 + ^ r6: .cfa -8 + ^
STACK CFI 26024 .cfa: sp 160 +
STACK CFI INIT 2609c 1c .cfa: sp 0 + .ra: lr
STACK CFI INIT 260b8 22 .cfa: sp 0 + .ra: lr
STACK CFI 260be .cfa: sp 4 + r4: .cfa -4 + ^
STACK CFI INIT 260dc 24 .cfa: sp 0 + .ra: lr
STACK CFI 260e2 .cfa: sp 4 + r4: .cfa -4 + ^
STACK CFI INIT 26100 28 .cfa: sp 0 + .ra: lr
STACK CFI 26102 .cfa: sp 8 + .ra: .cfa -4 + ^ r3: .cfa -8 + ^
STACK CFI INIT 26128 3c .cfa: sp 0 + .ra: lr
STACK CFI 2612a .cfa: sp 8 + .ra: .cfa -4 + ^ r4: .cfa -8 + ^
STACK CFI INIT 26164 4c .cfa: sp 0 + .ra: lr
STACK CFI 2617c .cfa: sp 8 + r4: .cfa -8 + ^ r5: .cfa -4 + ^
STACK CFI INIT 261b0 50 .cfa: sp 0 + .ra: lr
STACK CFI 261c8 .cfa: sp 8 + r4: .cfa -8 + ^ r5: .cfa -4 + ^
STACK CFI INIT 26200 48 .cfa: sp 0 + .ra: lr
STACK CFI INIT 26248 18 .cfa: sp 0 + .ra: lr
STACK CFI INIT 26260 6 .cfa: sp 0 + .ra: lr
STACK CFI INIT 26268 60 .cfa: sp 0 + .ra: lr
STACK CFI 2626e .cfa: sp 12 + .ra: .cfa -4 + ^ r4: .cfa -12 + ^ r5: .cfa -8 + ^
STACK CFI 26276 .cfa: sp 296 +
STACK CFI INIT 262c8 38 .cfa: sp 0 + .ra: lr
STACK CFI INIT 26300 48 .cfa: sp 0 + .ra: lr
STACK CFI 26308 .cfa: sp 12 + r4: .cfa -12 + ^ r5: .cfa -8 + ^ r6: .cfa -4 + ^
STACK CFI INIT 26348 48 .cfa: sp 0 + .ra: lr
STACK CFI 26350 .cfa: sp 12 + r4: .cfa -12 + ^ r5: .cfa -8 + ^ r6: .cfa -4 + ^
STACK CFI INIT 26390 c .cfa: sp 0 + .ra: lr
STACK CFI INIT 2639c c .cfa: sp 0 + .ra: lr
STACK CFI INIT 263a8 30 .cfa: sp 0 + .ra: lr
STACK CFI INIT 263d8 6c .cfa: sp 0 + .ra: lr
STACK CFI 263da .cfa: sp 12 + .ra: .cfa -4 + ^ r4: .cfa -12 + ^ r5: .cfa -8 + ^
STACK CFI 263de .cfa: sp 144 +
STACK CFI INIT 26444 38 .cfa: sp 0 + .ra: lr
STACK CFI 26446 .cfa: sp 24 + .ra: .cfa -4 + ^ r3: .cfa -24 + ^ r4: .cfa -20 + ^ r5: .cfa -16 + ^ r6: .cfa -12 + ^ r7: .cfa -8 + ^
STACK CFI INIT 2647c 70 .cfa: sp 0 + .ra: lr
STACK CFI 2647e .cfa: sp 8 + .ra: .cfa -4 + ^ r4: .cfa -8 + ^
STACK CFI 26482 .cfa: sp 136 +
STACK CFI INIT 264ec 34 .cfa: sp 0 + .ra: lr
STACK CFI 264f0 .cfa: sp 16 + .ra: .cfa -4 + ^ r4: .cfa -16 + ^ r5: .cfa -12 + ^ r6: .cfa -8 + ^
STACK CFI INIT 26520 5c .cfa: sp 0 + .ra: lr
STACK CFI 26522 .cfa: sp 20 + .ra: .cfa -4 + ^ r4: .cfa -20 + ^ r5: .cfa -16 + ^ r6: .cfa -12 + ^ r7: .cfa -8 + ^
STACK CFI 26524 .cfa: sp 152 +
STACK CFI INIT 2657c 34 .cfa: sp 0 + .ra: lr
STACK CFI 2657e .cfa: sp 12 + .ra: .cfa -4 + ^ r4: .cfa -12 + ^ r5: .cfa -8 + ^
STACK CFI 26580 .cfa: sp 144 +
STACK CFI INIT 265b0 34 .cfa: sp 0 + .ra: lr
STACK CFI 265b2 .cfa: sp 12 + .ra: .cfa -4 + ^ r4: .cfa -12 + ^ r5: .cfa -8 + ^
STACK CFI 265b4 .cfa: sp 144 +
STACK CFI INIT 265e4 2a .cfa: sp 0 + .ra: lr
STACK CFI 265e6 .cfa: sp 12 + .ra: .cfa -4 + ^ r4: .cfa -12 + ^ r5: .cfa -8 + ^
STACK CFI 265e8 .cfa: sp 160 +
STACK CFI INIT 26610 e8 .cfa: sp 0 + .ra: lr
STACK CFI 26618 .cfa: sp 24 + .ra: .cfa -4 + ^ r4: .cfa -24 + ^ r5: .cfa -20 + ^ r6: .cfa -16 + ^ r7: .cfa -12 + ^ r8: .cfa -8 + ^
STACK CFI 2661e .cfa: sp 560 +
STACK CFI INIT 26750 4a .cfa: sp 0 + .ra: lr
STACK CFI 26752 .cfa: sp 8 + r4: .cfa -8 + ^ r5: .cfa -4 + ^
STACK CFI INIT 2679c 38 .cfa: sp 0 + .ra: lr
STACK CFI 267a0 .cfa: sp 24 + .ra: .cfa -4 + ^ r4: .cfa -24 + ^ r5: .cfa -20 + ^ r6: .cfa -16 + ^ r7: .cfa -12 + ^ r8: .cfa -8 + ^
STACK CFI INIT 267d4 4a .cfa: sp 0 + .ra: lr
STACK CFI 267d6 .cfa: sp 8 + r4: .cfa -8 + ^ r5: .cfa -4 + ^
STACK CFI INIT 26820 38 .cfa: sp 0 + .ra: lr
STACK CFI 26824 .cfa: sp 24 + .ra: .cfa -4 + ^ r4: .cfa -24 + ^ r5: .cfa -20 + ^ r6: .cfa -16 + ^ r7: .cfa -12 + ^ r8: .cfa -8 + ^
STACK CFI INIT 26860 66 .cfa: sp 0 + .ra: lr
STACK CFI 26864 .cfa: sp 28 + .ra: .cfa -4 + ^ r10: .cfa -8 + ^ r4: .cfa -28 + ^ r5: .cfa -24 + ^ r6: .cfa -20 + ^ r7: .cfa -16 + ^ r8: .cfa -12 + ^
STACK CFI INIT 268d0 36 .cfa: sp 0 + .ra: lr
STACK CFI 268d2 .cfa: sp 16 + r4: .cfa -16 + ^ r5: .cfa -12 + ^ r6: .cfa -8 + ^ r7: .cfa -4 + ^
STACK CFI 26904 .cfa: sp 0 + r4: r4 r5: r5 r6: r6 r7: r7
STACK CFI INIT 26910 50 .cfa: sp 0 + .ra: lr
STACK CFI 26914 .cfa: sp 8 + r4: .cfa -8 + ^ r5: .cfa -4 + ^
STACK CFI INIT 26960 54a .cfa: sp 0 + .ra: lr
STACK CFI 26964 .cfa: sp 36 + .ra: .cfa -4 + ^ r10: .cfa -12 + ^ r11: .cfa -8 + ^ r4: .cfa -36 + ^ r5: .cfa -32 + ^ r6: .cfa -28 + ^ r7: .cfa -24 + ^ r8: .cfa -20 + ^ r9: .cfa -16 + ^
STACK CFI 26966 .cfa: sp 72 +
STACK CFI INIT 26eac 51e .cfa: sp 0 + .ra: lr
STACK CFI 26eb0 .cfa: sp 36 + .ra: .cfa -4 + ^ r10: .cfa -12 + ^ r11: .cfa -8 + ^ r4: .cfa -36 + ^ r5: .cfa -32 + ^ r6: .cfa -28 + ^ r7: .cfa -24 + ^ r8: .cfa -20 + ^ r9: .cfa -16 + ^
STACK CFI 26eb2 .cfa: sp 96 +
STACK CFI INIT 273cc 52 .cfa: sp 0 + .ra: lr
STACK CFI 273d0 .cfa: sp 20 + r4: .cfa -20 + ^ r5: .cfa -16 + ^ r6: .cfa -12 + ^ r7: .cfa -8 + ^ r8: .cfa -4 + ^
STACK CFI INIT 27420 4e .cfa: sp 0 + .ra: lr
STACK CFI 27424 .cfa: sp 28 + r10: .cfa -4 + ^ r4: .cfa -28 + ^ r5: .cfa -24 + ^ r6: .cfa -20 + ^ r7: .cfa -16 + ^ r8: .cfa -12 + ^ r9: .cfa -8 + ^
STACK CFI INIT 27470 466 .cfa: sp 0 + .ra: lr
STACK CFI 27474 .cfa: sp 36 + .ra: .cfa -4 + ^ r10: .cfa -12 + ^ r11: .cfa -8 + ^ r4: .cfa -36 + ^ r5: .cfa -32 + ^ r6: .cfa -28 + ^ r7: .cfa -24 + ^ r8: .cfa -20 + ^ r9: .cfa -16 + ^
STACK CFI 27478 .cfa: sp 64 +
STACK CFI INIT 278d8 21e .cfa: sp 0 + .ra: lr
STACK CFI 278dc .cfa: sp 36 + .ra: .cfa -4 + ^ r10: .cfa -12 + ^ r11: .cfa -8 + ^ r4: .cfa -36 + ^ r5: .cfa -32 + ^ r6: .cfa -28 + ^ r7: .cfa -24 + ^ r8: .cfa -20 + ^ r9: .cfa -16 + ^
STACK CFI 278de .cfa: sp 80 +
STACK CFI 278e0 .cfa: r7 72 +
STACK CFI INIT 27af8 2a .cfa: sp 0 + .ra: lr
STACK CFI 27afa .cfa: sp 16 + r4: .cfa -16 + ^ r5: .cfa -12 + ^ r6: .cfa -8 + ^ r7: .cfa -4 + ^
STACK CFI INIT 27b24 ac .cfa: sp 0 + .ra: lr
STACK CFI 27b28 .cfa: sp 32 + .ra: .cfa -4 + ^ r10: .cfa -8 + ^ r4: .cfa -32 + ^ r5: .cfa -28 + ^ r6: .cfa -24 + ^ r7: .cfa -20 + ^ r8: .cfa -16 + ^ r9: .cfa -12 + ^
STACK CFI INIT 27bd0 258 .cfa: sp 0 + .ra: lr
STACK CFI 27bd4 .cfa: sp 36 + .ra: .cfa -4 + ^ r10: .cfa -12 + ^ r11: .cfa -8 + ^ r4: .cfa -36 + ^ r5: .cfa -32 + ^ r6: .cfa -28 + ^ r7: .cfa -24 + ^ r8: .cfa -20 + ^ r9: .cfa -16 + ^
STACK CFI 27bd8 .cfa: sp 80 +
STACK CFI INIT 27e28 ac .cfa: sp 0 + .ra: lr
STACK CFI 27e2e .cfa: sp 32 + .ra: .cfa -4 + ^ r10: .cfa -8 + ^ r4: .cfa -32 + ^ r5: .cfa -28 + ^ r6: .cfa -24 + ^ r7: .cfa -20 + ^ r8: .cfa -16 + ^ r9: .cfa -12 + ^
STACK CFI INIT 27ed4 1fc .cfa: sp 0 + .ra: lr
STACK CFI 27ed8 .cfa: sp 36 + .ra: .cfa -4 + ^ r10: .cfa -12 + ^ r11: .cfa -8 + ^ r4: .cfa -36 + ^ r5: .cfa -32 + ^ r6: .cfa -28 + ^ r7: .cfa -24 + ^ r8: .cfa -20 + ^ r9: .cfa -16 + ^
STACK CFI 27ede .cfa: sp 56 +
STACK CFI INIT 280d0 4e .cfa: sp 0 + .ra: lr
STACK CFI 280d4 .cfa: sp 12 + .ra: .cfa -4 + ^ r4: .cfa -12 + ^ r7: .cfa -8 + ^
STACK CFI 280d6 .cfa: sp 24 +
STACK CFI 280da .cfa: r7 16 +
STACK CFI INIT 28120 64 .cfa: sp 0 + .ra: lr
STACK CFI 28124 .cfa: sp 28 + .ra: .cfa -4 + ^ r10: .cfa -8 + ^ r4: .cfa -28 + ^ r5: .cfa -24 + ^ r6: .cfa -20 + ^ r7: .cfa -16 + ^ r8: .cfa -12 + ^
STACK CFI INIT 28190 42 .cfa: sp 0 + .ra: lr
STACK CFI 28192 .cfa: sp 16 + r4: .cfa -16 + ^ r5: .cfa -12 + ^ r6: .cfa -8 + ^ r7: .cfa -4 + ^
STACK CFI INIT 281e0 a4 .cfa: sp 0 + .ra: lr
STACK CFI 281e2 .cfa: sp 16 + r4: .cfa -16 + ^ r5: .cfa -12 + ^ r6: .cfa -8 + ^ r7: .cfa -4 + ^
STACK CFI INIT 28284 16 .cfa: sp 0 + .ra: lr
STACK CFI INIT 2829c 26 .cfa: sp 0 + .ra: lr
STACK CFI 2829e .cfa: sp 8 + r4: .cfa -8 + ^ r5: .cfa -4 + ^
STACK CFI INIT 282c4 6 .cfa: sp 0 + .ra: lr
STACK CFI INIT 282cc 8 .cfa: sp 0 + .ra: lr
STACK CFI INIT 282d4 8 .cfa: sp 0 + .ra: lr
STACK CFI INIT 282dc 8 .cfa: sp 0 + .ra: lr
STACK CFI INIT 282e4 1f0 .cfa: sp 0 + .ra: lr
STACK CFI 282f2 .cfa: sp 8 + .ra: .cfa -4 + ^ r7: .cfa -8 + ^
STACK CFI 282f4 .cfa: sp 280 +
STACK CFI INIT 284d4 44 .cfa: sp 0 + .ra: lr
STACK CFI 284d8 .cfa: sp 40 + .ra: .cfa -4 + ^ r10: .cfa -12 + ^ r11: .cfa -8 + ^ r3: .cfa -40 + ^ r4: .cfa -36 + ^ r5: .cfa -32 + ^ r6: .cfa -28 + ^ r7: .cfa -24 + ^ r8: .cfa -20 + ^ r9: .cfa -16 + ^
STACK CFI INIT 28518 27e .cfa: sp 0 + .ra: lr
STACK CFI 2851c .cfa: sp 36 + .ra: .cfa -4 + ^ r10: .cfa -12 + ^ r11: .cfa -8 + ^ r4: .cfa -36 + ^ r5: .cfa -32 + ^ r6: .cfa -28 + ^ r7: .cfa -24 + ^ r8: .cfa -20 + ^ r9: .cfa -16 + ^
STACK CFI 2851e .cfa: sp 320 +
STACK CFI INIT 28798 21e .cfa: sp 0 + .ra: lr
STACK CFI 2879c .cfa: sp 36 + .ra: .cfa -4 + ^ r10: .cfa -12 + ^ r11: .cfa -8 + ^ r4: .cfa -36 + ^ r5: .cfa -32 + ^ r6: .cfa -28 + ^ r7: .cfa -24 + ^ r8: .cfa -20 + ^ r9: .cfa -16 + ^
STACK CFI 287a2 .cfa: sp 56 +
STACK CFI INIT 289b8 208 .cfa: sp 0 + .ra: lr
STACK CFI 289bc .cfa: sp 36 + .ra: .cfa -4 + ^ r10: .cfa -12 + ^ r11: .cfa -8 + ^ r4: .cfa -36 + ^ r5: .cfa -32 + ^ r6: .cfa -28 + ^ r7: .cfa -24 + ^ r8: .cfa -20 + ^ r9: .cfa -16 + ^
STACK CFI 289be .cfa: sp 96 +
STACK CFI 289c2 .cfa: r7 88 +
STACK CFI INIT 28bc0 10 .cfa: sp 0 + .ra: lr
STACK CFI 28bc2 .cfa: sp 8 + .ra: .cfa -4 + ^ r4: .cfa -8 + ^
STACK CFI 28bc4 .cfa: sp 16 +
STACK CFI INIT 28bd0 9c .cfa: sp 0 + .ra: lr
STACK CFI 28bd4 .cfa: sp 32 + .ra: .cfa -4 + ^ r3: .cfa -32 + ^ r4: .cfa -28 + ^ r5: .cfa -24 + ^ r6: .cfa -20 + ^ r7: .cfa -16 + ^ r8: .cfa -12 + ^ r9: .cfa -8 + ^
STACK CFI INIT 28c6c 90 .cfa: sp 0 + .ra: lr
STACK CFI 28c6e .cfa: sp 20 + .ra: .cfa -4 + ^ r4: .cfa -20 + ^ r5: .cfa -16 + ^ r6: .cfa -12 + ^ r7: .cfa -8 + ^
STACK CFI 28c70 .cfa: sp 32 +
STACK CFI 28c74 .cfa: r7 32 +
STACK CFI INIT 28cfc 470 .cfa: sp 0 + .ra: lr
STACK CFI 28d00 .cfa: sp 36 + .ra: .cfa -4 + ^ r10: .cfa -12 + ^ r11: .cfa -8 + ^ r4: .cfa -36 + ^ r5: .cfa -32 + ^ r6: .cfa -28 + ^ r7: .cfa -24 + ^ r8: .cfa -20 + ^ r9: .cfa -16 + ^
STACK CFI 28d02 .cfa: sp 56 +
STACK CFI 28d04 .cfa: r7 56 +
STACK CFI INIT 2916c 44 .cfa: sp 0 + .ra: lr
STACK CFI 29170 .cfa: sp 24 + .ra: .cfa -4 + ^ r4: .cfa -24 + ^ r5: .cfa -20 + ^ r6: .cfa -16 + ^ r7: .cfa -12 + ^ r8: .cfa -8 + ^
STACK CFI INIT 291b0 100 .cfa: sp 0 + .ra: lr
STACK CFI 291b2 .cfa: sp 24 + .ra: .cfa -4 + ^ r3: .cfa -24 + ^ r4: .cfa -20 + ^ r5: .cfa -16 + ^ r6: .cfa -12 + ^ r7: .cfa -8 + ^
STACK CFI INIT 292b0 bc .cfa: sp 0 + .ra: lr
STACK CFI 292b2 .cfa: sp 16 + .ra: .cfa -4 + ^ r3: .cfa -16 + ^ r4: .cfa -12 + ^ r5: .cfa -8 + ^
STACK CFI INIT bd324 2c .cfa: sp 0 + .ra: lr
STACK CFI bd326 .cfa: sp 8 + .ra: .cfa -4 + ^ r4: .cfa -8 + ^
STACK CFI INIT 2936c 1c .cfa: sp 0 + .ra: lr
STACK CFI INIT 29388 9c .cfa: sp 0 + .ra: lr
STACK CFI 2938c .cfa: sp 32 + .ra: .cfa -4 + ^ r3: .cfa -32 + ^ r4: .cfa -28 + ^ r5: .cfa -24 + ^ r6: .cfa -20 + ^ r7: .cfa -16 + ^ r8: .cfa -12 + ^ r9: .cfa -8 + ^
STACK CFI INIT 29424 10 .cfa: sp 0 + .ra: lr
STACK CFI 2942a .cfa: sp 8 + .ra: .cfa -4 + ^ r3: .cfa -8 + ^
STACK CFI INIT 29434 2c .cfa: sp 0 + .ra: lr
STACK CFI 29436 .cfa: sp 16 + .ra: .cfa -4 + ^ r3: .cfa -16 + ^ r4: .cfa -12 + ^ r5: .cfa -8 + ^
STACK CFI INIT 29460 140 .cfa: sp 0 + .ra: lr
STACK CFI 29462 .cfa: sp 24 + .ra: .cfa -4 + ^ r3: .cfa -24 + ^ r4: .cfa -20 + ^ r5: .cfa -16 + ^ r6: .cfa -12 + ^ r7: .cfa -8 + ^
STACK CFI INIT 295a0 2a .cfa: sp 0 + .ra: lr
STACK CFI 295a2 .cfa: sp 16 + .ra: .cfa -4 + ^ r4: .cfa -16 + ^ r5: .cfa -12 + ^ r6: .cfa -8 + ^
STACK CFI INIT 295cc c .cfa: sp 0 + .ra: lr
STACK CFI INIT 295d8 e8 .cfa: sp 0 + .ra: lr
STACK CFI 295dc .cfa: sp 36 + .ra: .cfa -4 + ^ r10: .cfa -12 + ^ r11: .cfa -8 + ^ r4: .cfa -36 + ^ r5: .cfa -32 + ^ r6: .cfa -28 + ^ r7: .cfa -24 + ^ r8: .cfa -20 + ^ r9: .cfa -16 + ^
STACK CFI 295e4 .cfa: sp 48 +
STACK CFI INIT 296c0 10 .cfa: sp 0 + .ra: lr
STACK CFI 296c6 .cfa: sp 8 + .ra: .cfa -4 + ^ r3: .cfa -8 + ^
STACK CFI INIT 296d0 10 .cfa: sp 0 + .ra: lr
STACK CFI INIT 296e0 c4 .cfa: sp 0 + .ra: lr
STACK CFI 296e4 .cfa: sp 24 + .ra: .cfa -4 + ^ r4: .cfa -24 + ^ r5: .cfa -20 + ^ r6: .cfa -16 + ^ r7: .cfa -12 + ^ r8: .cfa -8 + ^
STACK CFI INIT 297a4 a0 .cfa: sp 0 + .ra: lr
STACK CFI 297aa .cfa: sp 32 + .ra: .cfa -4 + ^ r3: .cfa -32 + ^ r4: .cfa -28 + ^ r5: .cfa -24 + ^ r6: .cfa -20 + ^ r7: .cfa -16 + ^ r8: .cfa -12 + ^ r9: .cfa -8 + ^
STACK CFI INIT 29844 8 .cfa: sp 0 + .ra: lr
STACK CFI INIT 2984c 8 .cfa: sp 0 + .ra: lr
STACK CFI INIT 29854 10 .cfa: sp 0 + .ra: lr
STACK CFI INIT 29864 30 .cfa: sp 0 + .ra: lr
STACK CFI 29866 .cfa: sp 24 + .ra: .cfa -4 + ^ r3: .cfa -24 + ^ r4: .cfa -20 + ^ r5: .cfa -16 + ^ r6: .cfa -12 + ^ r7: .cfa -8 + ^
STACK CFI INIT 29894 30 .cfa: sp 0 + .ra: lr
STACK CFI 29896 .cfa: sp 24 + .ra: .cfa -4 + ^ r3: .cfa -24 + ^ r4: .cfa -20 + ^ r5: .cfa -16 + ^ r6: .cfa -12 + ^ r7: .cfa -8 + ^
STACK CFI INIT 298c4 56 .cfa: sp 0 + .ra: lr
STACK CFI 298c8 .cfa: sp 32 + .ra: .cfa -4 + ^ r10: .cfa -8 + ^ r4: .cfa -32 + ^ r5: .cfa -28 + ^ r6: .cfa -24 + ^ r7: .cfa -20 + ^ r8: .cfa -16 + ^ r9: .cfa -12 + ^
STACK CFI INIT 2991c 94 .cfa: sp 0 + .ra: lr
STACK CFI 29922 .cfa: sp 8 + .ra: .cfa -4 + ^ r4: .cfa -8 + ^
STACK CFI INIT 299b0 b0 .cfa: sp 0 + .ra: lr
STACK CFI 299b4 .cfa: sp 16 + .ra: .cfa -4 + ^ r4: .cfa -16 + ^ r5: .cfa -12 + ^ r6: .cfa -8 + ^
STACK CFI 299b8 .cfa: sp 24 +
STACK CFI INIT 29a60 a4 .cfa: sp 0 + .ra: lr
STACK CFI 29a62 .cfa: sp 16 + .ra: .cfa -4 + ^ r3: .cfa -16 + ^ r4: .cfa -12 + ^ r5: .cfa -8 + ^
STACK CFI INIT 29b04 98 .cfa: sp 0 + .ra: lr
STACK CFI 29b0a .cfa: sp 8 + .ra: .cfa -4 + ^ r4: .cfa -8 + ^
STACK CFI 29b0e .cfa: sp 16 +
STACK CFI INIT 29b9c a4 .cfa: sp 0 + .ra: lr
STACK CFI 29ba4 .cfa: sp 24 + .ra: .cfa -4 + ^ r3: .cfa -24 + ^ r4: .cfa -20 + ^ r5: .cfa -16 + ^ r6: .cfa -12 + ^ r7: .cfa -8 + ^
STACK CFI INIT 29c40 84 .cfa: sp 0 + .ra: lr
STACK CFI 29c4a .cfa: sp 16 + r4: .cfa -16 + ^ r5: .cfa -12 + ^ r6: .cfa -8 + ^ r7: .cfa -4 + ^
STACK CFI INIT 29cc4 b2 .cfa: sp 0 + .ra: lr
STACK CFI 29cc8 .cfa: sp 32 + .ra: .cfa -4 + ^ r10: .cfa -8 + ^ r4: .cfa -32 + ^ r5: .cfa -28 + ^ r6: .cfa -24 + ^ r7: .cfa -20 + ^ r8: .cfa -16 + ^ r9: .cfa -12 + ^
STACK CFI 29ccc .cfa: sp 40 +
STACK CFI INIT 29d78 b4 .cfa: sp 0 + .ra: lr
STACK CFI 29d7a .cfa: sp 24 + .ra: .cfa -4 + ^ r3: .cfa -24 + ^ r4: .cfa -20 + ^ r5: .cfa -16 + ^ r6: .cfa -12 + ^ r7: .cfa -8 + ^
STACK CFI INIT 29e2c 4 .cfa: sp 0 + .ra: lr
STACK CFI INIT 29e30 46 .cfa: sp 0 + .ra: lr
STACK CFI 29e3c .cfa: sp 4 + r4: .cfa -4 + ^
STACK CFI INIT 29e78 20 .cfa: sp 0 + .ra: lr
STACK CFI 29e7c .cfa: sp 4 + .ra: .cfa -4 + ^
STACK CFI 29e80 .cfa: sp 16 +
STACK CFI INIT 29e98 1c .cfa: sp 0 + .ra: lr
STACK CFI 29e9c .cfa: sp 4 + .ra: .cfa -4 + ^
STACK CFI 29e9e .cfa: sp 16 +
STACK CFI INIT 29eb4 1c .cfa: sp 0 + .ra: lr
STACK CFI 29eb8 .cfa: sp 4 + .ra: .cfa -4 + ^
STACK CFI 29ebc .cfa: sp 16 +
STACK CFI INIT 29ed0 1c .cfa: sp 0 + .ra: lr
STACK CFI 29ed4 .cfa: sp 4 + .ra: .cfa -4 + ^
STACK CFI 29ed6 .cfa: sp 16 +
STACK CFI INIT 29eec 1c .cfa: sp 0 + .ra: lr
STACK CFI 29ef0 .cfa: sp 4 + .ra: .cfa -4 + ^
STACK CFI 29ef4 .cfa: sp 16 +
STACK CFI INIT 29f08 1c .cfa: sp 0 + .ra: lr
STACK CFI 29f0c .cfa: sp 4 + .ra: .cfa -4 + ^
STACK CFI 29f0e .cfa: sp 16 +
STACK CFI INIT 29f24 c .cfa: sp 0 + .ra: lr
STACK CFI INIT 29f30 14 .cfa: sp 0 + .ra: lr
STACK CFI 29f32 .cfa: sp 8 + .ra: .cfa -4 + ^ r4: .cfa -8 + ^
STACK CFI INIT 29f44 c .cfa: sp 0 + .ra: lr
STACK CFI INIT 29f50 8 .cfa: sp 0 + .ra: lr
STACK CFI INIT 29f58 54 .cfa: sp 0 + .ra: lr
STACK CFI 29f5a .cfa: sp 24 + .ra: .cfa -4 + ^ r3: .cfa -24 + ^ r4: .cfa -20 + ^ r5: .cfa -16 + ^ r6: .cfa -12 + ^ r7: .cfa -8 + ^
STACK CFI INIT 29fac 10 .cfa: sp 0 + .ra: lr
STACK CFI INIT 29fbc 24 .cfa: sp 0 + .ra: lr
STACK CFI 29fbe .cfa: sp 16 + .ra: .cfa -4 + ^ r3: .cfa -16 + ^ r4: .cfa -12 + ^ r5: .cfa -8 + ^
STACK CFI INIT 29fe0 10 .cfa: sp 0 + .ra: lr
STACK CFI INIT 29ff0 22 .cfa: sp 0 + .ra: lr
STACK CFI 29ff2 .cfa: sp 16 + .ra: .cfa -4 + ^ r3: .cfa -16 + ^ r4: .cfa -12 + ^ r5: .cfa -8 + ^
STACK CFI INIT 2a018 30 .cfa: sp 0 + .ra: lr
STACK CFI 2a020 .cfa: sp 16 + r4: .cfa -16 + ^ r5: .cfa -12 + ^ r6: .cfa -8 + ^ r7: .cfa -4 + ^
STACK CFI INIT 2a048 40 .cfa: sp 0 + .ra: lr
STACK CFI 2a04a .cfa: sp 16 + r4: .cfa -16 + ^ r5: .cfa -12 + ^ r6: .cfa -8 + ^ r7: .cfa -4 + ^
STACK CFI INIT 2a088 36 .cfa: sp 0 + .ra: lr
STACK CFI 2a08a .cfa: sp 16 + r4: .cfa -16 + ^ r5: .cfa -12 + ^ r6: .cfa -8 + ^ r7: .cfa -4 + ^
STACK CFI INIT 2a0c0 78 .cfa: sp 0 + .ra: lr
STACK CFI 2a0c6 .cfa: sp 24 + r4: .cfa -24 + ^ r5: .cfa -20 + ^ r6: .cfa -16 + ^ r7: .cfa -12 + ^ r8: .cfa -8 + ^ r9: .cfa -4 + ^
STACK CFI INIT 2a138 20 .cfa: sp 0 + .ra: lr
STACK CFI 2a13a .cfa: sp 12 + .ra: .cfa -4 + ^ r4: .cfa -12 + ^ r5: .cfa -8 + ^
STACK CFI 2a142 .cfa: sp 24 +
STACK CFI INIT 2a158 20 .cfa: sp 0 + .ra: lr
STACK CFI 2a15a .cfa: sp 12 + .ra: .cfa -4 + ^ r4: .cfa -12 + ^ r5: .cfa -8 + ^
STACK CFI 2a162 .cfa: sp 24 +
STACK CFI INIT 2a178 20 .cfa: sp 0 + .ra: lr
STACK CFI 2a17a .cfa: sp 12 + .ra: .cfa -4 + ^ r4: .cfa -12 + ^ r5: .cfa -8 + ^
STACK CFI 2a182 .cfa: sp 24 +
STACK CFI INIT 2a198 20 .cfa: sp 0 + .ra: lr
STACK CFI 2a19a .cfa: sp 12 + .ra: .cfa -4 + ^ r4: .cfa -12 + ^ r5: .cfa -8 + ^
STACK CFI 2a1a2 .cfa: sp 24 +
STACK CFI INIT 2a1b8 20 .cfa: sp 0 + .ra: lr
STACK CFI 2a1ba .cfa: sp 12 + .ra: .cfa -4 + ^ r4: .cfa -12 + ^ r5: .cfa -8 + ^
STACK CFI 2a1c2 .cfa: sp 24 +
STACK CFI INIT 2a1d8 20 .cfa: sp 0 + .ra: lr
STACK CFI 2a1da .cfa: sp 12 + .ra: .cfa -4 + ^ r4: .cfa -12 + ^ r5: .cfa -8 + ^
STACK CFI 2a1e2 .cfa: sp 24 +
STACK CFI INIT 2a1f8 20 .cfa: sp 0 + .ra: lr
STACK CFI 2a1fa .cfa: sp 12 + .ra: .cfa -4 + ^ r4: .cfa -12 + ^ r5: .cfa -8 + ^
STACK CFI 2a202 .cfa: sp 24 +
STACK CFI INIT 2a218 20 .cfa: sp 0 + .ra: lr
STACK CFI 2a21a .cfa: sp 12 + .ra: .cfa -4 + ^ r4: .cfa -12 + ^ r5: .cfa -8 + ^
STACK CFI 2a222 .cfa: sp 24 +
STACK CFI INIT 2a238 348 .cfa: sp 0 + .ra: lr
STACK CFI 2a23c .cfa: sp 36 + .ra: .cfa -4 + ^ r10: .cfa -12 + ^ r11: .cfa -8 + ^ r4: .cfa -36 + ^ r5: .cfa -32 + ^ r6: .cfa -28 + ^ r7: .cfa -24 + ^ r8: .cfa -20 + ^ r9: .cfa -16 + ^
STACK CFI 2a23e .cfa: sp 80 +
STACK CFI INIT 2a580 12 .cfa: sp 0 + .ra: lr
STACK CFI 2a582 .cfa: sp 4 + .ra: .cfa -4 + ^
STACK CFI 2a584 .cfa: sp 16 +
STACK CFI INIT 2a594 2fc .cfa: sp 0 + .ra: lr
STACK CFI 2a598 .cfa: sp 36 + .ra: .cfa -4 + ^ r10: .cfa -12 + ^ r11: .cfa -8 + ^ r4: .cfa -36 + ^ r5: .cfa -32 + ^ r6: .cfa -28 + ^ r7: .cfa -24 + ^ r8: .cfa -20 + ^ r9: .cfa -16 + ^
STACK CFI 2a59a .cfa: sp 80 +
STACK CFI INIT 2a890 12 .cfa: sp 0 + .ra: lr
STACK CFI 2a892 .cfa: sp 4 + .ra: .cfa -4 + ^
STACK CFI 2a894 .cfa: sp 16 +
STACK CFI INIT 2a8a4 4c6 .cfa: sp 0 + .ra: lr
STACK CFI 2a8a8 .cfa: sp 36 + .ra: .cfa -4 + ^ r10: .cfa -12 + ^ r11: .cfa -8 + ^ r4: .cfa -36 + ^ r5: .cfa -32 + ^ r6: .cfa -28 + ^ r7: .cfa -24 + ^ r8: .cfa -20 + ^ r9: .cfa -16 + ^
STACK CFI 2a8aa .cfa: sp 104 +
STACK CFI INIT 2ad6c 12 .cfa: sp 0 + .ra: lr
STACK CFI 2ad6e .cfa: sp 4 + .ra: .cfa -4 + ^
STACK CFI 2ad70 .cfa: sp 16 +
STACK CFI INIT 2ad80 46a .cfa: sp 0 + .ra: lr
STACK CFI 2ad84 .cfa: sp 36 + .ra: .cfa -4 + ^ r10: .cfa -12 + ^ r11: .cfa -8 + ^ r4: .cfa -36 + ^ r5: .cfa -32 + ^ r6: .cfa -28 + ^ r7: .cfa -24 + ^ r8: .cfa -20 + ^ r9: .cfa -16 + ^
STACK CFI 2ad86 .cfa: sp 104 +
STACK CFI INIT 2b1ec 12 .cfa: sp 0 + .ra: lr
STACK CFI 2b1ee .cfa: sp 4 + .ra: .cfa -4 + ^
STACK CFI 2b1f0 .cfa: sp 16 +
STACK CFI INIT 2b200 1c .cfa: sp 0 + .ra: lr
STACK CFI 2b204 .cfa: sp 4 + r4: .cfa -4 + ^
STACK CFI INIT 2b21c 1c .cfa: sp 0 + .ra: lr
STACK CFI 2b222 .cfa: sp 4 + r4: .cfa -4 + ^
STACK CFI INIT 2b238 1c .cfa: sp 0 + .ra: lr
STACK CFI 2b23c .cfa: sp 4 + r4: .cfa -4 + ^
STACK CFI INIT 2b254 1c .cfa: sp 0 + .ra: lr
STACK CFI 2b25a .cfa: sp 4 + r4: .cfa -4 + ^
STACK CFI INIT 2b270 1c .cfa: sp 0 + .ra: lr
STACK CFI 2b274 .cfa: sp 4 + r4: .cfa -4 + ^
STACK CFI INIT 2b28c 1c .cfa: sp 0 + .ra: lr
STACK CFI 2b292 .cfa: sp 4 + r4: .cfa -4 + ^
STACK CFI INIT 2b2a8 24c .cfa: sp 0 + .ra: lr
STACK CFI 2b2ac .cfa: sp 36 + .ra: .cfa -4 + ^ r10: .cfa -12 + ^ r11: .cfa -8 + ^ r4: .cfa -36 + ^ r5: .cfa -32 + ^ r6: .cfa -28 + ^ r7: .cfa -24 + ^ r8: .cfa -20 + ^ r9: .cfa -16 + ^
STACK CFI 2b2c2 .cfa: sp 48 +
STACK CFI INIT 2b4f4 240 .cfa: sp 0 + .ra: lr
STACK CFI 2b4f8 .cfa: sp 36 + .ra: .cfa -4 + ^ r10: .cfa -12 + ^ r11: .cfa -8 + ^ r4: .cfa -36 + ^ r5: .cfa -32 + ^ r6: .cfa -28 + ^ r7: .cfa -24 + ^ r8: .cfa -20 + ^ r9: .cfa -16 + ^
STACK CFI 2b4fc .cfa: sp 48 +
STACK CFI INIT 2b734 1bfc .cfa: sp 0 + .ra: lr
STACK CFI 2b738 .cfa: sp 36 + .ra: .cfa -4 + ^ r10: .cfa -12 + ^ r11: .cfa -8 + ^ r4: .cfa -36 + ^ r5: .cfa -32 + ^ r6: .cfa -28 + ^ r7: .cfa -24 + ^ r8: .cfa -20 + ^ r9: .cfa -16 + ^
STACK CFI 2b73a .cfa: sp 304 +
STACK CFI INIT 2d330 8 .cfa: sp 0 + .ra: lr
STACK CFI INIT 2d338 310 .cfa: sp 0 + .ra: lr
STACK CFI 2d33c .cfa: sp 32 + .ra: .cfa -4 + ^ r10: .cfa -8 + ^ r4: .cfa -32 + ^ r5: .cfa -28 + ^ r6: .cfa -24 + ^ r7: .cfa -20 + ^ r8: .cfa -16 + ^ r9: .cfa -12 + ^
STACK CFI 2d352 .cfa: sp 40 +
STACK CFI INIT 2d648 240 .cfa: sp 0 + .ra: lr
STACK CFI 2d64c .cfa: sp 36 + .ra: .cfa -4 + ^ r10: .cfa -12 + ^ r11: .cfa -8 + ^ r4: .cfa -36 + ^ r5: .cfa -32 + ^ r6: .cfa -28 + ^ r7: .cfa -24 + ^ r8: .cfa -20 + ^ r9: .cfa -16 + ^
STACK CFI 2d650 .cfa: sp 48 +
STACK CFI INIT 2d888 1d04 .cfa: sp 0 + .ra: lr
STACK CFI 2d88c .cfa: sp 36 + .ra: .cfa -4 + ^ r10: .cfa -12 + ^ r11: .cfa -8 + ^ r4: .cfa -36 + ^ r5: .cfa -32 + ^ r6: .cfa -28 + ^ r7: .cfa -24 + ^ r8: .cfa -20 + ^ r9: .cfa -16 + ^
STACK CFI 2d890 .cfa: sp 1088 +
STACK CFI INIT 2f58c 8 .cfa: sp 0 + .ra: lr
STACK CFI INIT 2f594 4 .cfa: sp 0 + .ra: lr
STACK CFI INIT 2f598 8 .cfa: sp 0 + .ra: lr
STACK CFI INIT 2f5a0 418 .cfa: sp 0 + .ra: lr
STACK CFI 2f5a4 .cfa: sp 32 + .ra: .cfa -4 + ^ r10: .cfa -8 + ^ r4: .cfa -32 + ^ r5: .cfa -28 + ^ r6: .cfa -24 + ^ r7: .cfa -20 + ^ r8: .cfa -16 + ^ r9: .cfa -12 + ^
STACK CFI 2f5a6 .cfa: sp 336 +
STACK CFI INIT 2f9b8 e4 .cfa: sp 0 + .ra: lr
STACK CFI 2f9ba .cfa: sp 16 + .ra: .cfa -4 + ^ r3: .cfa -16 + ^ r4: .cfa -12 + ^ r5: .cfa -8 + ^
STACK CFI INIT 2fa9c 48 .cfa: sp 0 + .ra: lr
STACK CFI 2fa9e .cfa: sp 16 + .ra: .cfa -4 + ^ r3: .cfa -16 + ^ r4: .cfa -12 + ^ r5: .cfa -8 + ^
STACK CFI INIT 2fae4 3b4 .cfa: sp 0 + .ra: lr
STACK CFI 2fae8 .cfa: sp 36 + .ra: .cfa -4 + ^ r10: .cfa -12 + ^ r11: .cfa -8 + ^ r4: .cfa -36 + ^ r5: .cfa -32 + ^ r6: .cfa -28 + ^ r7: .cfa -24 + ^ r8: .cfa -20 + ^ r9: .cfa -16 + ^
STACK CFI 2faea .cfa: sp 168 +
STACK CFI 2faee .cfa: r7 168 +
STACK CFI INIT 2fe98 6 .cfa: sp 0 + .ra: lr
STACK CFI INIT 2fea0 38 .cfa: sp 0 + .ra: lr
STACK CFI 2fea2 .cfa: sp 4 + r4: .cfa -4 + ^
STACK CFI INIT 2fed8 40 .cfa: sp 0 + .ra: lr
STACK CFI 2feda .cfa: sp 4 + r4: .cfa -4 + ^
STACK CFI INIT 2ff18 aa .cfa: sp 0 + .ra: lr
STACK CFI 2ff1c .cfa: sp 36 + .ra: .cfa -4 + ^ r10: .cfa -12 + ^ r11: .cfa -8 + ^ r4: .cfa -36 + ^ r5: .cfa -32 + ^ r6: .cfa -28 + ^ r7: .cfa -24 + ^ r8: .cfa -20 + ^ r9: .cfa -16 + ^
STACK CFI 2ff1e .cfa: sp 48 +
STACK CFI INIT 2ffc4 94 .cfa: sp 0 + .ra: lr
STACK CFI 2ffc6 .cfa: sp 8 + .ra: .cfa -4 + ^ r4: .cfa -8 + ^
STACK CFI INIT 30058 6 .cfa: sp 0 + .ra: lr
STACK CFI INIT 30060 6 .cfa: sp 0 + .ra: lr
STACK CFI INIT 30070 78 .cfa: sp 0 + .ra: lr
STACK CFI INIT 300f0 74 .cfa: sp 0 + .ra: lr
STACK CFI INIT 30170 c .cfa: sp 0 + .ra: lr
STACK CFI INIT 30190 a4 .cfa: sp 0 + .ra: lr
STACK CFI 30192 .cfa: sp 8 + r2: .cfa -8 + ^ r3: .cfa -4 + ^
STACK CFI 30194 .cfa: sp 24 + r4: .cfa -24 + ^ r5: .cfa -20 + ^ r6: .cfa -16 + ^ r7: .cfa -12 + ^
STACK CFI 30196 .cfa: sp 32 +
STACK CFI INIT 30240 26 .cfa: sp 0 + .ra: lr
STACK CFI 30242 .cfa: sp 16 + .ra: .cfa -4 + ^ r0: .cfa -16 + ^ r1: .cfa -12 + ^ r3: .cfa -8 + ^
STACK CFI 3024c .cfa: sp 0 + .ra: .ra r0: r0 r1: r1 r3: r3
STACK CFI INIT 30270 30 .cfa: sp 0 + .ra: lr
STACK CFI 30272 .cfa: sp 8 + r2: .cfa -8 + ^ r3: .cfa -4 + ^
STACK CFI 30274 .cfa: sp 20 + .ra: .cfa -12 + ^ r4: .cfa -20 + ^ r5: .cfa -16 + ^
STACK CFI 30276 .cfa: sp 40 +
STACK CFI INIT 302a0 c04 .cfa: sp 0 + .ra: lr
STACK CFI 302a4 .cfa: sp 36 + .ra: .cfa -4 + ^ r10: .cfa -12 + ^ r11: .cfa -8 + ^ r4: .cfa -36 + ^ r5: .cfa -32 + ^ r6: .cfa -28 + ^ r7: .cfa -24 + ^ r8: .cfa -20 + ^ r9: .cfa -16 + ^
STACK CFI 302a6 .cfa: sp 344 +
STACK CFI INIT 30ea4 1e .cfa: sp 0 + .ra: lr
STACK CFI 30ea6 .cfa: sp 4 + r3: .cfa -4 + ^
STACK CFI 30ea8 .cfa: sp 12 + .ra: .cfa -8 + ^ r4: .cfa -12 + ^
STACK CFI 30eaa .cfa: sp 32 +
STACK CFI INIT 30ec4 78 .cfa: sp 0 + .ra: lr
STACK CFI 30ec6 .cfa: sp 16 + .ra: .cfa -4 + ^ r3: .cfa -16 + ^ r4: .cfa -12 + ^ r5: .cfa -8 + ^
STACK CFI INIT 30f3c 1a .cfa: sp 0 + .ra: lr
STACK CFI 30f3e .cfa: sp 12 + .ra: .cfa -4 + ^ r4: .cfa -12 + ^ r5: .cfa -8 + ^
STACK CFI 30f40 .cfa: sp 32 +
STACK CFI INIT 30f58 70 .cfa: sp 0 + .ra: lr
STACK CFI 30f5a .cfa: sp 8 + .ra: .cfa -4 + ^ r4: .cfa -8 + ^
STACK CFI INIT 30fc8 1a .cfa: sp 0 + .ra: lr
STACK CFI 30fca .cfa: sp 12 + .ra: .cfa -4 + ^ r4: .cfa -12 + ^ r5: .cfa -8 + ^
STACK CFI 30fcc .cfa: sp 32 +
STACK CFI INIT 30fe4 60 .cfa: sp 0 + .ra: lr
STACK CFI 30fe6 .cfa: sp 8 + .ra: .cfa -4 + ^ r4: .cfa -8 + ^
STACK CFI INIT 31044 6 .cfa: sp 0 + .ra: lr
STACK CFI INIT 3104c 6 .cfa: sp 0 + .ra: lr
STACK CFI INIT 31054 5a .cfa: sp 0 + .ra: lr
STACK CFI 31058 .cfa: sp 28 + .ra: .cfa -4 + ^ r4: .cfa -28 + ^ r5: .cfa -24 + ^ r6: .cfa -20 + ^ r7: .cfa -16 + ^ r8: .cfa -12 + ^ r9: .cfa -8 + ^
STACK CFI 3105a .cfa: sp 40 +
STACK CFI INIT 310b0 48 .cfa: sp 0 + .ra: lr
STACK CFI 310b2 .cfa: sp 12 + .ra: .cfa -4 + ^ r4: .cfa -12 + ^ r5: .cfa -8 + ^
STACK CFI 310b4 .cfa: sp 32 +
STACK CFI INIT bd350 28 .cfa: sp 0 + .ra: lr
STACK CFI bd354 .cfa: sp 8 + .ra: .cfa -4 + ^ r4: .cfa -8 + ^
STACK CFI INIT 310f8 7c .cfa: sp 0 + .ra: lr
STACK CFI 310fc .cfa: sp 16 + .ra: .cfa -4 + ^ r4: .cfa -16 + ^ r5: .cfa -12 + ^ r6: .cfa -8 + ^
STACK CFI 31100 .cfa: sp 24 +
STACK CFI INIT 31174 1dc .cfa: sp 0 + .ra: lr
STACK CFI 3117a .cfa: sp 36 + .ra: .cfa -4 + ^ r10: .cfa -12 + ^ r11: .cfa -8 + ^ r4: .cfa -36 + ^ r5: .cfa -32 + ^ r6: .cfa -28 + ^ r7: .cfa -24 + ^ r8: .cfa -20 + ^ r9: .cfa -16 + ^
STACK CFI 3117e .cfa: sp 48 +
STACK CFI INIT 31350 49c .cfa: sp 0 + .ra: lr
STACK CFI 31354 .cfa: sp 36 + .ra: .cfa -4 + ^ r10: .cfa -12 + ^ r11: .cfa -8 + ^ r4: .cfa -36 + ^ r5: .cfa -32 + ^ r6: .cfa -28 + ^ r7: .cfa -24 + ^ r8: .cfa -20 + ^ r9: .cfa -16 + ^
STACK CFI 3135a .cfa: sp 104 +
STACK CFI INIT 317ec b0 .cfa: sp 0 + .ra: lr
STACK CFI 317f0 .cfa: sp 16 + .ra: .cfa -4 + ^ r4: .cfa -16 + ^ r5: .cfa -12 + ^ r6: .cfa -8 + ^
STACK CFI 317f4 .cfa: sp 24 +
STACK CFI INIT 3189c 170 .cfa: sp 0 + .ra: lr
STACK CFI 318a0 .cfa: sp 36 + .ra: .cfa -4 + ^ r10: .cfa -12 + ^ r11: .cfa -8 + ^ r4: .cfa -36 + ^ r5: .cfa -32 + ^ r6: .cfa -28 + ^ r7: .cfa -24 + ^ r8: .cfa -20 + ^ r9: .cfa -16 + ^
STACK CFI 318a2 .cfa: sp 56 +
STACK CFI INIT 31a0c ee .cfa: sp 0 + .ra: lr
STACK CFI 31a10 .cfa: sp 24 + r4: .cfa -24 + ^ r5: .cfa -20 + ^ r6: .cfa -16 + ^ r7: .cfa -12 + ^ r8: .cfa -8 + ^ r9: .cfa -4 + ^
STACK CFI INIT 31afc 24 .cfa: sp 0 + .ra: lr
STACK CFI INIT 31b20 54 .cfa: sp 0 + .ra: lr
STACK CFI 31b22 .cfa: sp 12 + .ra: .cfa -4 + ^ r4: .cfa -12 + ^ r5: .cfa -8 + ^
STACK CFI 31b26 .cfa: sp 1080 +
STACK CFI INIT 31b74 ac .cfa: sp 0 + .ra: lr
STACK CFI 31b78 .cfa: sp 24 + .ra: .cfa -4 + ^ r4: .cfa -24 + ^ r5: .cfa -20 + ^ r6: .cfa -16 + ^ r7: .cfa -12 + ^ r8: .cfa -8 + ^
STACK CFI INIT 31c20 38c .cfa: sp 0 + .ra: lr
STACK CFI 31c24 .cfa: sp 32 + r10: .cfa -8 + ^ r11: .cfa -4 + ^ r4: .cfa -32 + ^ r5: .cfa -28 + ^ r6: .cfa -24 + ^ r7: .cfa -20 + ^ r8: .cfa -16 + ^ r9: .cfa -12 + ^
STACK CFI 31c26 .cfa: sp 80 +
STACK CFI INIT 31fac 2e .cfa: sp 0 + .ra: lr
STACK CFI 31fae .cfa: sp 12 + .ra: .cfa -4 + ^ r4: .cfa -12 + ^ r5: .cfa -8 + ^
STACK CFI 31fb0 .cfa: sp 32 +
STACK CFI INIT 31fdc 32 .cfa: sp 0 + .ra: lr
STACK CFI 31fde .cfa: sp 12 + .ra: .cfa -4 + ^ r4: .cfa -12 + ^ r5: .cfa -8 + ^
STACK CFI 31fe0 .cfa: sp 56 +
STACK CFI INIT 32010 390 .cfa: sp 0 + .ra: lr
STACK CFI 32014 .cfa: sp 32 + r10: .cfa -8 + ^ r11: .cfa -4 + ^ r4: .cfa -32 + ^ r5: .cfa -28 + ^ r6: .cfa -24 + ^ r7: .cfa -20 + ^ r8: .cfa -16 + ^ r9: .cfa -12 + ^
STACK CFI 32016 .cfa: sp 80 +
STACK CFI INIT 15ca8 4c .cfa: sp 0 + .ra: lr
STACK CFI 15cac .cfa: sp 12 + r4: .cfa -12 + ^ r5: .cfa -8 + ^ r6: .cfa -4 + ^
STACK CFI INIT 323a0 58 .cfa: sp 0 + .ra: lr
STACK CFI 323a2 .cfa: sp 24 + .ra: .cfa -4 + ^ r3: .cfa -24 + ^ r4: .cfa -20 + ^ r5: .cfa -16 + ^ r6: .cfa -12 + ^ r7: .cfa -8 + ^
STACK CFI INIT 15cf4 ac .cfa: sp 0 + .ra: lr
STACK CFI 15cf8 .cfa: sp 32 + .ra: .cfa -4 + ^ r10: .cfa -8 + ^ r4: .cfa -32 + ^ r5: .cfa -28 + ^ r6: .cfa -24 + ^ r7: .cfa -20 + ^ r8: .cfa -16 + ^ r9: .cfa -12 + ^
STACK CFI 15cfc .cfa: r7 32 +
STACK CFI INIT 15da0 16c .cfa: sp 0 + .ra: lr
STACK CFI 15da4 .cfa: sp 36 + .ra: .cfa -4 + ^ r10: .cfa -12 + ^ r11: .cfa -8 + ^ r4: .cfa -36 + ^ r5: .cfa -32 + ^ r6: .cfa -28 + ^ r7: .cfa -24 + ^ r8: .cfa -20 + ^ r9: .cfa -16 + ^
STACK CFI 15daa .cfa: sp 96 +
STACK CFI 15dac .cfa: r7 96 +
STACK CFI INIT 323f8 37c0 .cfa: sp 0 + .ra: lr
STACK CFI 323fc .cfa: sp 36 + .ra: .cfa -4 + ^ r10: .cfa -12 + ^ r11: .cfa -8 + ^ r4: .cfa -36 + ^ r5: .cfa -32 + ^ r6: .cfa -28 + ^ r7: .cfa -24 + ^ r8: .cfa -20 + ^ r9: .cfa -16 + ^
STACK CFI 32402 .cfa: sp 1336 +
STACK CFI 3240e .cfa: r7 1328 +
STACK CFI INIT 35bb8 184 .cfa: sp 0 + .ra: lr
STACK CFI 35bbc .cfa: sp 28 + .ra: .cfa -4 + ^ r4: .cfa -28 + ^ r5: .cfa -24 + ^ r6: .cfa -20 + ^ r7: .cfa -16 + ^ r8: .cfa -12 + ^ r9: .cfa -8 + ^
STACK CFI 35bc0 .cfa: sp 8412 +
STACK CFI 35bc4 .cfa: sp 8416 +
STACK CFI INIT 35d3c 20 .cfa: sp 0 + .ra: lr
STACK CFI 35d42 .cfa: sp 4 + r4: .cfa -4 + ^
STACK CFI INIT 35d5c de .cfa: sp 0 + .ra: lr
STACK CFI 35d62 .cfa: sp 16 + .ra: .cfa -4 + ^ r4: .cfa -16 + ^ r5: .cfa -12 + ^ r6: .cfa -8 + ^
STACK CFI 35d66 .cfa: sp 24 +
STACK CFI INIT 15f0c 16c .cfa: sp 0 + .ra: lr
STACK CFI 15f10 .cfa: sp 36 + .ra: .cfa -4 + ^ r10: .cfa -12 + ^ r11: .cfa -8 + ^ r4: .cfa -36 + ^ r5: .cfa -32 + ^ r6: .cfa -28 + ^ r7: .cfa -24 + ^ r8: .cfa -20 + ^ r9: .cfa -16 + ^
STACK CFI 15f16 .cfa: sp 96 +
STACK CFI 15f18 .cfa: r7 96 +
STACK CFI INIT 35e3c 3e .cfa: sp 0 + .ra: lr
STACK CFI 35e3e .cfa: sp 8 + .ra: .cfa -4 + ^ r4: .cfa -8 + ^
STACK CFI INIT 35e7c 172c .cfa: sp 0 + .ra: lr
STACK CFI 35e80 .cfa: sp 36 + .ra: .cfa -4 + ^ r10: .cfa -12 + ^ r11: .cfa -8 + ^ r4: .cfa -36 + ^ r5: .cfa -32 + ^ r6: .cfa -28 + ^ r7: .cfa -24 + ^ r8: .cfa -20 + ^ r9: .cfa -16 + ^
STACK CFI 35e82 .cfa: sp 192 +
STACK CFI 35e86 .cfa: r7 184 +
STACK CFI INIT 375a8 100 .cfa: sp 0 + .ra: lr
STACK CFI 375ac .cfa: sp 16 + .ra: .cfa -4 + ^ r4: .cfa -16 + ^ r5: .cfa -12 + ^ r6: .cfa -8 + ^
STACK CFI 375b0 .cfa: sp 24 +
STACK CFI INIT 376a8 4 .cfa: sp 0 + .ra: lr
STACK CFI INIT 376ac a8 .cfa: sp 0 + .ra: lr
STACK CFI 376b0 .cfa: sp 36 + .ra: .cfa -4 + ^ r10: .cfa -12 + ^ r11: .cfa -8 + ^ r4: .cfa -36 + ^ r5: .cfa -32 + ^ r6: .cfa -28 + ^ r7: .cfa -24 + ^ r8: .cfa -20 + ^ r9: .cfa -16 + ^
STACK CFI 376b2 .cfa: sp 104 +
STACK CFI INIT 37754 d8c .cfa: sp 0 + .ra: lr
STACK CFI 37758 .cfa: sp 36 + .ra: .cfa -4 + ^ r10: .cfa -12 + ^ r11: .cfa -8 + ^ r4: .cfa -36 + ^ r5: .cfa -32 + ^ r6: .cfa -28 + ^ r7: .cfa -24 + ^ r8: .cfa -20 + ^ r9: .cfa -16 + ^
STACK CFI 3775a .cfa: sp 304 +
STACK CFI INIT bd378 40 .cfa: sp 0 + .ra: lr
STACK CFI bd37c .cfa: sp 16 + .ra: .cfa -4 + ^ r4: .cfa -16 + ^ r5: .cfa -12 + ^ r6: .cfa -8 + ^
STACK CFI INIT 384e0 170 .cfa: sp 0 + .ra: lr
STACK CFI 384e6 .cfa: sp 24 + .ra: .cfa -4 + ^ r4: .cfa -24 + ^ r5: .cfa -20 + ^ r6: .cfa -16 + ^ r7: .cfa -12 + ^ r8: .cfa -8 + ^
STACK CFI INIT 38650 b4 .cfa: sp 0 + .ra: lr
STACK CFI 38654 .cfa: sp 32 + r10: .cfa -8 + ^ r11: .cfa -4 + ^ r4: .cfa -32 + ^ r5: .cfa -28 + ^ r6: .cfa -24 + ^ r7: .cfa -20 + ^ r8: .cfa -16 + ^ r9: .cfa -12 + ^
STACK CFI 3865a .cfa: sp 40 +
STACK CFI INIT 38704 b8 .cfa: sp 0 + .ra: lr
STACK CFI 38708 .cfa: sp 32 + r10: .cfa -8 + ^ r11: .cfa -4 + ^ r4: .cfa -32 + ^ r5: .cfa -28 + ^ r6: .cfa -24 + ^ r7: .cfa -20 + ^ r8: .cfa -16 + ^ r9: .cfa -12 + ^
STACK CFI 3870e .cfa: sp 40 +
STACK CFI INIT 387bc ec .cfa: sp 0 + .ra: lr
STACK CFI 387be .cfa: sp 16 + .ra: .cfa -4 + ^ r3: .cfa -16 + ^ r4: .cfa -12 + ^ r5: .cfa -8 + ^
STACK CFI INIT 388a8 49c .cfa: sp 0 + .ra: lr
STACK CFI 388ae .cfa: sp 36 + .ra: .cfa -4 + ^ r10: .cfa -12 + ^ r11: .cfa -8 + ^ r4: .cfa -36 + ^ r5: .cfa -32 + ^ r6: .cfa -28 + ^ r7: .cfa -24 + ^ r8: .cfa -20 + ^ r9: .cfa -16 + ^
STACK CFI 388bc .cfa: sp 96 +
STACK CFI INIT 38d44 16 .cfa: sp 0 + .ra: lr
STACK CFI INIT 38d5c 1e .cfa: sp 0 + .ra: lr
STACK CFI 38d5e .cfa: sp 12 + r1: .cfa -12 + ^ r2: .cfa -8 + ^ r3: .cfa -4 + ^
STACK CFI 38d60 .cfa: sp 16 + .ra: .cfa -16 + ^
STACK CFI 38d62 .cfa: sp 24 +
STACK CFI INIT 38d7c 30 .cfa: sp 0 + .ra: lr
STACK CFI 38d7e .cfa: sp 16 + r0: .cfa -16 + ^ r1: .cfa -12 + ^ r2: .cfa -8 + ^ r3: .cfa -4 + ^
STACK CFI 38d80 .cfa: sp 24 + .ra: .cfa -20 + ^ r4: .cfa -24 + ^
STACK CFI 38d82 .cfa: sp 32 +
STACK CFI INIT 38dac 1e .cfa: sp 0 + .ra: lr
STACK CFI 38dae .cfa: sp 8 + r2: .cfa -8 + ^ r3: .cfa -4 + ^
STACK CFI 38db0 .cfa: sp 16 + .ra: .cfa -12 + ^ r4: .cfa -16 + ^
STACK CFI 38db2 .cfa: sp 24 +
STACK CFI INIT 38dcc 1e .cfa: sp 0 + .ra: lr
STACK CFI 38dce .cfa: sp 12 + r1: .cfa -12 + ^ r2: .cfa -8 + ^ r3: .cfa -4 + ^
STACK CFI 38dd0 .cfa: sp 16 + .ra: .cfa -16 + ^
STACK CFI 38dd2 .cfa: sp 24 +
STACK CFI INIT 38dec 1e .cfa: sp 0 + .ra: lr
STACK CFI 38dee .cfa: sp 12 + r1: .cfa -12 + ^ r2: .cfa -8 + ^ r3: .cfa -4 + ^
STACK CFI 38df0 .cfa: sp 16 + .ra: .cfa -16 + ^
STACK CFI 38df2 .cfa: sp 24 +
STACK CFI INIT 38e0c 1e .cfa: sp 0 + .ra: lr
STACK CFI 38e0e .cfa: sp 12 + r1: .cfa -12 + ^ r2: .cfa -8 + ^ r3: .cfa -4 + ^
STACK CFI 38e10 .cfa: sp 16 + .ra: .cfa -16 + ^
STACK CFI 38e12 .cfa: sp 24 +
STACK CFI INIT 38e2c 53bc .cfa: sp 0 + .ra: lr
STACK CFI 38e30 .cfa: sp 36 + .ra: .cfa -4 + ^ r10: .cfa -12 + ^ r11: .cfa -8 + ^ r4: .cfa -36 + ^ r5: .cfa -32 + ^ r6: .cfa -28 + ^ r7: .cfa -24 + ^ r8: .cfa -20 + ^ r9: .cfa -16 + ^
STACK CFI 38e32 .cfa: sp 520 +
STACK CFI 38e34 .cfa: r7 520 +
STACK CFI INIT 3e1e8 6 .cfa: sp 0 + .ra: lr
STACK CFI INIT 3e1f0 1e .cfa: sp 0 + .ra: lr
STACK CFI 3e1f2 .cfa: sp 12 + r1: .cfa -12 + ^ r2: .cfa -8 + ^ r3: .cfa -4 + ^
STACK CFI 3e1f4 .cfa: sp 16 + .ra: .cfa -16 + ^
STACK CFI 3e1f6 .cfa: sp 24 +
STACK CFI INIT 3e210 34 .cfa: sp 0 + .ra: lr
STACK CFI 3e212 .cfa: sp 16 + r0: .cfa -16 + ^ r1: .cfa -12 + ^ r2: .cfa -8 + ^ r3: .cfa -4 + ^
STACK CFI 3e216 .cfa: sp 28 + .ra: .cfa -20 + ^ r4: .cfa -28 + ^ r5: .cfa -24 + ^
STACK CFI 3e218 .cfa: sp 40 +
STACK CFI INIT 3e244 1e .cfa: sp 0 + .ra: lr
STACK CFI 3e246 .cfa: sp 12 + r1: .cfa -12 + ^ r2: .cfa -8 + ^ r3: .cfa -4 + ^
STACK CFI 3e248 .cfa: sp 16 + .ra: .cfa -16 + ^
STACK CFI 3e24a .cfa: sp 24 +
STACK CFI INIT 3e264 54 .cfa: sp 0 + .ra: lr
STACK CFI 3e266 .cfa: sp 16 + .ra: .cfa -4 + ^ r4: .cfa -16 + ^ r5: .cfa -12 + ^ r6: .cfa -8 + ^
STACK CFI 3e26c .cfa: sp 1048 +
STACK CFI INIT 3e2b8 98 .cfa: sp 0 + .ra: lr
STACK CFI 3e2c0 .cfa: sp 20 + .ra: .cfa -4 + ^ r4: .cfa -20 + ^ r5: .cfa -16 + ^ r6: .cfa -12 + ^ r7: .cfa -8 + ^
STACK CFI 3e2ca .cfa: sp 32 +
STACK CFI INIT 3e350 d8 .cfa: sp 0 + .ra: lr
STACK CFI 3e352 .cfa: sp 20 + .ra: .cfa -4 + ^ r4: .cfa -20 + ^ r5: .cfa -16 + ^ r6: .cfa -12 + ^ r7: .cfa -8 + ^
STACK CFI 3e356 .cfa: sp 40 +
STACK CFI INIT 3e428 68 .cfa: sp 0 + .ra: lr
STACK CFI 3e42a .cfa: sp 12 + .ra: .cfa -4 + ^ r4: .cfa -12 + ^ r5: .cfa -8 + ^
STACK CFI 3e42e .cfa: sp 4108 +
STACK CFI 3e430 .cfa: sp 4120 +
STACK CFI INIT 3e490 68 .cfa: sp 0 + .ra: lr
STACK CFI 3e492 .cfa: sp 12 + .ra: .cfa -4 + ^ r4: .cfa -12 + ^ r5: .cfa -8 + ^
STACK CFI 3e496 .cfa: sp 4108 +
STACK CFI 3e498 .cfa: sp 4120 +
STACK CFI INIT 3e4f8 54 .cfa: sp 0 + .ra: lr
STACK CFI 3e4fa .cfa: sp 16 + .ra: .cfa -4 + ^ r4: .cfa -16 + ^ r5: .cfa -12 + ^ r6: .cfa -8 + ^
STACK CFI 3e4fc .cfa: sp 48 +
STACK CFI INIT 3e54c 30 .cfa: sp 0 + .ra: lr
STACK CFI 3e54e .cfa: sp 8 + .ra: .cfa -4 + ^ r4: .cfa -8 + ^
STACK CFI 3e552 .cfa: sp 16 +
STACK CFI INIT 3e57c 44 .cfa: sp 0 + .ra: lr
STACK CFI 3e57e .cfa: sp 12 + .ra: .cfa -4 + ^ r4: .cfa -12 + ^ r5: .cfa -8 + ^
STACK CFI 3e582 .cfa: sp 4108 +
STACK CFI 3e584 .cfa: sp 4120 +
STACK CFI INIT 3e5c0 2c .cfa: sp 0 + .ra: lr
STACK CFI 3e5c2 .cfa: sp 4 + .ra: .cfa -4 + ^
STACK CFI 3e5c4 .cfa: sp 112 +
STACK CFI INIT 3e5ec 124 .cfa: sp 0 + .ra: lr
STACK CFI 3e5f0 .cfa: sp 36 + .ra: .cfa -4 + ^ r10: .cfa -12 + ^ r11: .cfa -8 + ^ r4: .cfa -36 + ^ r5: .cfa -32 + ^ r6: .cfa -28 + ^ r7: .cfa -24 + ^ r8: .cfa -20 + ^ r9: .cfa -16 + ^
STACK CFI 3e5f2 .cfa: sp 56 +
STACK CFI INIT 3e710 264 .cfa: sp 0 + .ra: lr
STACK CFI 3e714 .cfa: sp 36 + .ra: .cfa -4 + ^ r10: .cfa -12 + ^ r11: .cfa -8 + ^ r4: .cfa -36 + ^ r5: .cfa -32 + ^ r6: .cfa -28 + ^ r7: .cfa -24 + ^ r8: .cfa -20 + ^ r9: .cfa -16 + ^
STACK CFI 3e716 .cfa: sp 176 +
STACK CFI INIT 3e974 8 .cfa: sp 0 + .ra: lr
STACK CFI INIT 3e97c 22 .cfa: sp 0 + .ra: lr
STACK CFI 3e97e .cfa: sp 4 + .ra: .cfa -4 + ^
STACK CFI 3e982 .cfa: sp 16 +
STACK CFI INIT 3e9a0 24 .cfa: sp 0 + .ra: lr
STACK CFI 3e9a2 .cfa: sp 8 + .ra: .cfa -4 + ^ r4: .cfa -8 + ^
STACK CFI 3e9a4 .cfa: sp 16 +
STACK CFI INIT 3e9c4 34 .cfa: sp 0 + .ra: lr
STACK CFI 3e9c6 .cfa: sp 8 + .ra: .cfa -4 + ^ r4: .cfa -8 + ^
STACK CFI INIT 3ea00 14 .cfa: sp 0 + .ra: lr
STACK CFI 3ea02 .cfa: sp 4 + r7: .cfa -4 + ^
STACK CFI 3ea08 .cfa: sp 0 + r7: r7
STACK CFI INIT 3ea20 160 .cfa: sp 0 + .ra: lr
STACK CFI 3ea22 .cfa: sp 20 + .ra: .cfa -4 + ^ r4: .cfa -20 + ^ r5: .cfa -16 + ^ r6: .cfa -12 + ^ r7: .cfa -8 + ^
STACK CFI 3ea24 .cfa: sp 136 +
STACK CFI INIT 3eb80 148 .cfa: sp 0 + .ra: lr
STACK CFI 3eb84 .cfa: sp 32 + .ra: .cfa -4 + ^ r10: .cfa -8 + ^ r4: .cfa -32 + ^ r5: .cfa -28 + ^ r6: .cfa -24 + ^ r7: .cfa -20 + ^ r8: .cfa -16 + ^ r9: .cfa -12 + ^
STACK CFI 3eb86 .cfa: sp 40 +
STACK CFI 3eb8c .cfa: r7 32 +
STACK CFI INIT 3ecc8 44 .cfa: sp 0 + .ra: lr
STACK CFI 3ecca .cfa: sp 16 + .ra: .cfa -4 + ^ r3: .cfa -16 + ^ r4: .cfa -12 + ^ r5: .cfa -8 + ^
STACK CFI INIT 3ed0c 4e .cfa: sp 0 + .ra: lr
STACK CFI 3ed18 .cfa: sp 8 + r4: .cfa -8 + ^ r5: .cfa -4 + ^
STACK CFI INIT 3ed5c 4e .cfa: sp 0 + .ra: lr
STACK CFI 3ed60 .cfa: sp 8 + .ra: .cfa -4 + ^ r4: .cfa -8 + ^
STACK CFI INIT 3edac 148 .cfa: sp 0 + .ra: lr
STACK CFI 3edae .cfa: sp 16 + r0: .cfa -16 + ^ r1: .cfa -12 + ^ r2: .cfa -8 + ^ r3: .cfa -4 + ^
STACK CFI 3edb6 .cfa: sp 36 + .ra: .cfa -20 + ^ r4: .cfa -36 + ^ r5: .cfa -32 + ^ r6: .cfa -28 + ^ r7: .cfa -24 + ^
STACK CFI 3edb8 .cfa: sp 48 +
STACK CFI INIT 3eef4 140 .cfa: sp 0 + .ra: lr
STACK CFI 3eefe .cfa: sp 24 + .ra: .cfa -4 + ^ r4: .cfa -24 + ^ r5: .cfa -20 + ^ r6: .cfa -16 + ^ r7: .cfa -12 + ^ r8: .cfa -8 + ^
STACK CFI INIT 3f034 12e .cfa: sp 0 + .ra: lr
STACK CFI 3f036 .cfa: sp 12 + r1: .cfa -12 + ^ r2: .cfa -8 + ^ r3: .cfa -4 + ^
STACK CFI 3f03a .cfa: sp 28 + .ra: .cfa -16 + ^ r4: .cfa -28 + ^ r5: .cfa -24 + ^ r6: .cfa -20 + ^
STACK CFI 3f03e .cfa: sp 40 +
STACK CFI INIT 3f164 120 .cfa: sp 0 + .ra: lr
STACK CFI 3f166 .cfa: sp 24 + .ra: .cfa -4 + ^ r3: .cfa -24 + ^ r4: .cfa -20 + ^ r5: .cfa -16 + ^ r6: .cfa -12 + ^ r7: .cfa -8 + ^
STACK CFI INIT 3f284 1e .cfa: sp 0 + .ra: lr
STACK CFI 3f286 .cfa: sp 12 + r1: .cfa -12 + ^ r2: .cfa -8 + ^ r3: .cfa -4 + ^
STACK CFI 3f288 .cfa: sp 16 + .ra: .cfa -16 + ^
STACK CFI 3f28a .cfa: sp 24 +
STACK CFI INIT 3f2a4 58 .cfa: sp 0 + .ra: lr
STACK CFI 3f2a8 .cfa: sp 24 + .ra: .cfa -4 + ^ r4: .cfa -24 + ^ r5: .cfa -20 + ^ r6: .cfa -16 + ^ r7: .cfa -12 + ^ r8: .cfa -8 + ^
STACK CFI 3f2aa .cfa: sp 200 +
STACK CFI INIT 3f2fc 38c .cfa: sp 0 + .ra: lr
STACK CFI 3f300 .cfa: sp 24 + .ra: .cfa -4 + ^ r4: .cfa -24 + ^ r5: .cfa -20 + ^ r6: .cfa -16 + ^ r7: .cfa -12 + ^ r8: .cfa -8 + ^
STACK CFI 3f304 .cfa: sp 544 +
STACK CFI INIT 16078 4c .cfa: sp 0 + .ra: lr
STACK CFI 1607c .cfa: sp 16 + r4: .cfa -16 + ^ r5: .cfa -12 + ^ r6: .cfa -8 + ^ r7: .cfa -4 + ^
STACK CFI INIT 3f688 66 .cfa: sp 0 + .ra: lr
STACK CFI 3f68a .cfa: sp 24 + .ra: .cfa -4 + ^ r3: .cfa -24 + ^ r4: .cfa -20 + ^ r5: .cfa -16 + ^ r6: .cfa -12 + ^ r7: .cfa -8 + ^
STACK CFI INIT 160c4 90 .cfa: sp 0 + .ra: lr
STACK CFI 160c8 .cfa: sp 28 + .ra: .cfa -4 + ^ r4: .cfa -28 + ^ r5: .cfa -24 + ^ r6: .cfa -20 + ^ r7: .cfa -16 + ^ r8: .cfa -12 + ^ r9: .cfa -8 + ^
STACK CFI 160ca .cfa: sp 40 +
STACK CFI 160ce .cfa: r7 40 +
STACK CFI INIT 16154 e4 .cfa: sp 0 + .ra: lr
STACK CFI 16158 .cfa: sp 36 + .ra: .cfa -4 + ^ r10: .cfa -12 + ^ r11: .cfa -8 + ^ r4: .cfa -36 + ^ r5: .cfa -32 + ^ r6: .cfa -28 + ^ r7: .cfa -24 + ^ r8: .cfa -20 + ^ r9: .cfa -16 + ^
STACK CFI 1615e .cfa: sp 48 +
STACK CFI 16160 .cfa: r7 48 +
STACK CFI INIT 3f6f0 3b48 .cfa: sp 0 + .ra: lr
STACK CFI 3f6f4 .cfa: sp 36 + .ra: .cfa -4 + ^ r10: .cfa -12 + ^ r11: .cfa -8 + ^ r4: .cfa -36 + ^ r5: .cfa -32 + ^ r6: .cfa -28 + ^ r7: .cfa -24 + ^ r8: .cfa -20 + ^ r9: .cfa -16 + ^
STACK CFI 3f6f8 .cfa: sp 4356 +
STACK CFI 3f6fa .cfa: sp 4360 +
STACK CFI 3f706 .cfa: r7 4352 +
STACK CFI INIT 43238 1a4 .cfa: sp 0 + .ra: lr
STACK CFI 4323c .cfa: sp 32 + .ra: .cfa -4 + ^ r10: .cfa -8 + ^ r4: .cfa -32 + ^ r5: .cfa -28 + ^ r6: .cfa -24 + ^ r7: .cfa -20 + ^ r8: .cfa -16 + ^ r9: .cfa -12 + ^
STACK CFI 43240 .cfa: sp 33056 +
STACK CFI 43242 .cfa: sp 33184 +
STACK CFI INIT 433dc 4942 .cfa: sp 0 + .ra: lr
STACK CFI 433e0 .cfa: sp 36 + .ra: .cfa -4 + ^ r10: .cfa -12 + ^ r11: .cfa -8 + ^ r4: .cfa -36 + ^ r5: .cfa -32 + ^ r6: .cfa -28 + ^ r7: .cfa -24 + ^ r8: .cfa -20 + ^ r9: .cfa -16 + ^
STACK CFI 433e2 .cfa: sp 304 +
STACK CFI 433e4 .cfa: r7 304 +
STACK CFI INIT 47d20 6 .cfa: sp 0 + .ra: lr
STACK CFI INIT 47d28 4c .cfa: sp 0 + .ra: lr
STACK CFI 47d2c .cfa: sp 12 + r4: .cfa -12 + ^ r5: .cfa -8 + ^ r6: .cfa -4 + ^
STACK CFI INIT 47d74 4b4 .cfa: sp 0 + .ra: lr
STACK CFI 47d78 .cfa: sp 24 + .ra: .cfa -4 + ^ r4: .cfa -24 + ^ r5: .cfa -20 + ^ r6: .cfa -16 + ^ r7: .cfa -12 + ^ r8: .cfa -8 + ^
STACK CFI 47d84 .cfa: sp 32 +
STACK CFI INIT 48228 b4 .cfa: sp 0 + .ra: lr
STACK CFI 4822a .cfa: sp 12 + r1: .cfa -12 + ^ r2: .cfa -8 + ^ r3: .cfa -4 + ^
STACK CFI 4822e .cfa: sp 36 + .ra: .cfa -16 + ^ r4: .cfa -36 + ^ r5: .cfa -32 + ^ r7: .cfa -28 + ^ r8: .cfa -24 + ^ r9: .cfa -20 + ^
STACK CFI 48230 .cfa: sp 48 +
STACK CFI 48234 .cfa: r7 48 +
STACK CFI INIT 482dc 4c .cfa: sp 0 + .ra: lr
STACK CFI 482e0 .cfa: sp 12 + r4: .cfa -12 + ^ r5: .cfa -8 + ^ r6: .cfa -4 + ^
STACK CFI INIT 48328 4d0 .cfa: sp 0 + .ra: lr
STACK CFI 4832c .cfa: sp 24 + .ra: .cfa -4 + ^ r4: .cfa -24 + ^ r5: .cfa -20 + ^ r6: .cfa -16 + ^ r7: .cfa -12 + ^ r8: .cfa -8 + ^
STACK CFI 48354 .cfa: sp 32 +
STACK CFI INIT 487f8 b8 .cfa: sp 0 + .ra: lr
STACK CFI 487fc .cfa: sp 16 + .ra: .cfa -4 + ^ r4: .cfa -16 + ^ r5: .cfa -12 + ^ r6: .cfa -8 + ^
STACK CFI 48800 .cfa: sp 128 +
STACK CFI INIT 488b0 208 .cfa: sp 0 + .ra: lr
STACK CFI 488b4 .cfa: sp 16 + .ra: .cfa -4 + ^ r4: .cfa -16 + ^ r5: .cfa -12 + ^ r6: .cfa -8 + ^
STACK CFI INIT 48ab8 18c .cfa: sp 0 + .ra: lr
STACK CFI 48abc .cfa: sp 24 + .ra: .cfa -4 + ^ r4: .cfa -24 + ^ r5: .cfa -20 + ^ r6: .cfa -16 + ^ r7: .cfa -12 + ^ r8: .cfa -8 + ^
STACK CFI 48ac2 .cfa: sp 32 +
STACK CFI INIT 48c44 114 .cfa: sp 0 + .ra: lr
STACK CFI 48c46 .cfa: sp 16 + .ra: .cfa -4 + ^ r3: .cfa -16 + ^ r4: .cfa -12 + ^ r5: .cfa -8 + ^
STACK CFI INIT 48d58 1c8 .cfa: sp 0 + .ra: lr
STACK CFI 48d5e .cfa: sp 24 + .ra: .cfa -4 + ^ r4: .cfa -24 + ^ r5: .cfa -20 + ^ r6: .cfa -16 + ^ r7: .cfa -12 + ^ r8: .cfa -8 + ^
STACK CFI 48d62 .cfa: sp 32 +
STACK CFI INIT 48f20 164 .cfa: sp 0 + .ra: lr
STACK CFI 48f24 .cfa: sp 24 + .ra: .cfa -4 + ^ r4: .cfa -24 + ^ r5: .cfa -20 + ^ r6: .cfa -16 + ^ r7: .cfa -12 + ^ r8: .cfa -8 + ^
STACK CFI 48f28 .cfa: sp 32 +
STACK CFI INIT 49084 3c .cfa: sp 0 + .ra: lr
STACK CFI INIT 490c0 74 .cfa: sp 0 + .ra: lr
STACK CFI 490c2 .cfa: sp 20 + .ra: .cfa -4 + ^ r4: .cfa -20 + ^ r5: .cfa -16 + ^ r6: .cfa -12 + ^ r7: .cfa -8 + ^
STACK CFI 490c6 .cfa: sp 32 +
STACK CFI INIT 49134 6 .cfa: sp 0 + .ra: lr
STACK CFI INIT 4913c 16 .cfa: sp 0 + .ra: lr
STACK CFI 4913e .cfa: sp 8 + .ra: .cfa -4 + ^ r3: .cfa -8 + ^
STACK CFI INIT 49154 2c .cfa: sp 0 + .ra: lr
STACK CFI 49156 .cfa: sp 16 + .ra: .cfa -4 + ^ r3: .cfa -16 + ^ r4: .cfa -12 + ^ r5: .cfa -8 + ^
STACK CFI INIT 49180 30 .cfa: sp 0 + .ra: lr
STACK CFI 49182 .cfa: sp 4 + .ra: .cfa -4 + ^
STACK CFI 49184 .cfa: sp 16 +
STACK CFI INIT 491b0 14 .cfa: sp 0 + .ra: lr
STACK CFI 491b2 .cfa: sp 8 + .ra: .cfa -4 + ^ r3: .cfa -8 + ^
STACK CFI INIT 491c4 14 .cfa: sp 0 + .ra: lr
STACK CFI 491c6 .cfa: sp 12 + r4: .cfa -12 + ^ r5: .cfa -8 + ^ r6: .cfa -4 + ^
STACK CFI INIT 491d8 5c .cfa: sp 0 + .ra: lr
STACK CFI 491da .cfa: sp 8 +
STACK CFI 491dc .cfa: sp 32 + .ra: .cfa -12 + ^ r3: .cfa -32 + ^ r4: .cfa -28 + ^ r5: .cfa -24 + ^ r6: .cfa -20 + ^ r7: .cfa -16 + ^
STACK CFI INIT 49234 82 .cfa: sp 0 + .ra: lr
STACK CFI 49236 .cfa: sp 8 +
STACK CFI 49238 .cfa: sp 28 + .ra: .cfa -12 + ^ r4: .cfa -28 + ^ r5: .cfa -24 + ^ r6: .cfa -20 + ^ r7: .cfa -16 + ^
STACK CFI 4923a .cfa: sp 48 +
STACK CFI INIT 492b8 126 .cfa: sp 0 + .ra: lr
STACK CFI 492ba .cfa: sp 24 + .ra: .cfa -4 + ^ r3: .cfa -24 + ^ r4: .cfa -20 + ^ r5: .cfa -16 + ^ r6: .cfa -12 + ^ r7: .cfa -8 + ^
STACK CFI INIT 493e0 12c .cfa: sp 0 + .ra: lr
STACK CFI 493e4 .cfa: sp 32 + .ra: .cfa -4 + ^ r3: .cfa -32 + ^ r4: .cfa -28 + ^ r5: .cfa -24 + ^ r6: .cfa -20 + ^ r7: .cfa -16 + ^ r8: .cfa -12 + ^ r9: .cfa -8 + ^
STACK CFI INIT 4950c 168 .cfa: sp 0 + .ra: lr
STACK CFI 49510 .cfa: sp 16 + .ra: .cfa -4 + ^ r4: .cfa -16 + ^ r5: .cfa -12 + ^ r6: .cfa -8 + ^
STACK CFI 49516 .cfa: sp 24 +
STACK CFI INIT 49674 194 .cfa: sp 0 + .ra: lr
STACK CFI 49678 .cfa: sp 16 + .ra: .cfa -4 + ^ r4: .cfa -16 + ^ r5: .cfa -12 + ^ r6: .cfa -8 + ^
STACK CFI 4967e .cfa: sp 24 +
STACK CFI INIT 49808 14c .cfa: sp 0 + .ra: lr
STACK CFI 4980c .cfa: sp 32 + .ra: .cfa -4 + ^ r3: .cfa -32 + ^ r4: .cfa -28 + ^ r5: .cfa -24 + ^ r6: .cfa -20 + ^ r7: .cfa -16 + ^ r8: .cfa -12 + ^ r9: .cfa -8 + ^
STACK CFI INIT 49954 230 .cfa: sp 0 + .ra: lr
STACK CFI 49958 .cfa: sp 36 + .ra: .cfa -4 + ^ r10: .cfa -12 + ^ r11: .cfa -8 + ^ r4: .cfa -36 + ^ r5: .cfa -32 + ^ r6: .cfa -28 + ^ r7: .cfa -24 + ^ r8: .cfa -20 + ^ r9: .cfa -16 + ^
STACK CFI 49960 .cfa: sp 48 +
STACK CFI INIT 49b84 ec .cfa: sp 0 + .ra: lr
STACK CFI 49b88 .cfa: sp 36 + .ra: .cfa -4 + ^ r10: .cfa -12 + ^ r11: .cfa -8 + ^ r4: .cfa -36 + ^ r5: .cfa -32 + ^ r6: .cfa -28 + ^ r7: .cfa -24 + ^ r8: .cfa -20 + ^ r9: .cfa -16 + ^
STACK CFI 49b8a .cfa: sp 48 +
STACK CFI INIT 49c70 14 .cfa: sp 0 + .ra: lr
STACK CFI 49c72 .cfa: sp 12 + .ra: .cfa -4 + ^ r4: .cfa -12 + ^ r5: .cfa -8 + ^
STACK CFI 49c74 .cfa: sp 24 +
STACK CFI INIT 49c84 190 .cfa: sp 0 + .ra: lr
STACK CFI 49c8a .cfa: sp 24 + .ra: .cfa -4 + ^ r4: .cfa -24 + ^ r5: .cfa -20 + ^ r6: .cfa -16 + ^ r7: .cfa -12 + ^ r8: .cfa -8 + ^
STACK CFI 49c8e .cfa: sp 32 +
STACK CFI INIT 49e14 80 .cfa: sp 0 + .ra: lr
STACK CFI 49e18 .cfa: sp 20 + .ra: .cfa -4 + ^ r4: .cfa -20 + ^ r5: .cfa -16 + ^ r6: .cfa -12 + ^ r7: .cfa -8 + ^
STACK CFI 49e1c .cfa: sp 40 +
STACK CFI INIT 49e94 1ac .cfa: sp 0 + .ra: lr
STACK CFI 49e9a .cfa: sp 28 + .ra: .cfa -4 + ^ r4: .cfa -28 + ^ r5: .cfa -24 + ^ r6: .cfa -20 + ^ r7: .cfa -16 + ^ r8: .cfa -12 + ^ r9: .cfa -8 + ^
STACK CFI 49e9e .cfa: sp 48 +
STACK CFI INIT 4a040 64 .cfa: sp 0 + .ra: lr
STACK CFI 4a044 .cfa: sp 12 + .ra: .cfa -4 + ^ r4: .cfa -12 + ^ r5: .cfa -8 + ^
STACK CFI INIT 4a0a4 370 .cfa: sp 0 + .ra: lr
STACK CFI 4a0a8 .cfa: sp 32 + .ra: .cfa -4 + ^ r10: .cfa -8 + ^ r4: .cfa -32 + ^ r5: .cfa -28 + ^ r6: .cfa -24 + ^ r7: .cfa -20 + ^ r8: .cfa -16 + ^ r9: .cfa -12 + ^
STACK CFI 4a0ac .cfa: sp 64 +
STACK CFI INIT 4a414 50 .cfa: sp 0 + .ra: lr
STACK CFI 4a416 .cfa: sp 16 + .ra: .cfa -4 + ^ r4: .cfa -16 + ^ r5: .cfa -12 + ^ r6: .cfa -8 + ^
STACK CFI INIT 4a464 178 .cfa: sp 0 + .ra: lr
STACK CFI 4a466 .cfa: sp 24 + .ra: .cfa -4 + ^ r3: .cfa -24 + ^ r4: .cfa -20 + ^ r5: .cfa -16 + ^ r6: .cfa -12 + ^ r7: .cfa -8 + ^
STACK CFI INIT 4a5dc 9c .cfa: sp 0 + .ra: lr
STACK CFI 4a5e0 .cfa: sp 24 + .ra: .cfa -4 + ^ r4: .cfa -24 + ^ r5: .cfa -20 + ^ r6: .cfa -16 + ^ r7: .cfa -12 + ^ r8: .cfa -8 + ^
STACK CFI 4a5e2 .cfa: sp 32 +
STACK CFI INIT 4a678 124 .cfa: sp 0 + .ra: lr
STACK CFI 4a67c .cfa: sp 28 + .ra: .cfa -4 + ^ r4: .cfa -28 + ^ r5: .cfa -24 + ^ r6: .cfa -20 + ^ r7: .cfa -16 + ^ r8: .cfa -12 + ^ r9: .cfa -8 + ^
STACK CFI 4a682 .cfa: sp 40 +
STACK CFI INIT 4a79c 40 .cfa: sp 0 + .ra: lr
STACK CFI 4a79e .cfa: sp 20 + .ra: .cfa -4 + ^ r4: .cfa -20 + ^ r5: .cfa -16 + ^ r6: .cfa -12 + ^ r7: .cfa -8 + ^
STACK CFI 4a7a4 .cfa: sp 32 +
STACK CFI INIT 4a7dc 116 .cfa: sp 0 + .ra: lr
STACK CFI 4a7e0 .cfa: sp 24 + .ra: .cfa -4 + ^ r4: .cfa -24 + ^ r5: .cfa -20 + ^ r6: .cfa -16 + ^ r7: .cfa -12 + ^ r8: .cfa -8 + ^
STACK CFI 4a7e6 .cfa: sp 32 +
STACK CFI INIT 4a8f4 12c .cfa: sp 0 + .ra: lr
STACK CFI 4a8f6 .cfa: sp 24 + .ra: .cfa -4 + ^ r3: .cfa -24 + ^ r4: .cfa -20 + ^ r5: .cfa -16 + ^ r6: .cfa -12 + ^ r7: .cfa -8 + ^
STACK CFI INIT 4aa20 186 .cfa: sp 0 + .ra: lr
STACK CFI 4aa24 .cfa: sp 32 + .ra: .cfa -4 + ^ r3: .cfa -32 + ^ r4: .cfa -28 + ^ r5: .cfa -24 + ^ r6: .cfa -20 + ^ r7: .cfa -16 + ^ r8: .cfa -12 + ^ r9: .cfa -8 + ^
STACK CFI INIT 4aba8 fe .cfa: sp 0 + .ra: lr
STACK CFI 4abaa .cfa: sp 16 + .ra: .cfa -4 + ^ r4: .cfa -16 + ^ r5: .cfa -12 + ^ r6: .cfa -8 + ^
STACK CFI INIT 4aca8 6c .cfa: sp 0 + .ra: lr
STACK CFI 4acac .cfa: sp 24 + .ra: .cfa -4 + ^ r4: .cfa -24 + ^ r5: .cfa -20 + ^ r6: .cfa -16 + ^ r7: .cfa -12 + ^ r8: .cfa -8 + ^
STACK CFI 4acae .cfa: sp 200 +
STACK CFI INIT 4ad14 50 .cfa: sp 0 + .ra: lr
STACK CFI 4ad18 .cfa: sp 24 + .ra: .cfa -4 + ^ r4: .cfa -24 + ^ r5: .cfa -20 + ^ r6: .cfa -16 + ^ r7: .cfa -12 + ^ r8: .cfa -8 + ^
STACK CFI 4ad1a .cfa: sp 200 +
STACK CFI INIT 4ad64 1a4 .cfa: sp 0 + .ra: lr
STACK CFI 4ad68 .cfa: sp 16 + .ra: .cfa -4 + ^ r4: .cfa -16 + ^ r5: .cfa -12 + ^ r6: .cfa -8 + ^
STACK CFI 4ad6e .cfa: sp 24 +
STACK CFI INIT 4af08 6 .cfa: sp 0 + .ra: lr
STACK CFI INIT 4af10 16c .cfa: sp 0 + .ra: lr
STACK CFI 4af14 .cfa: sp 16 + .ra: .cfa -4 + ^ r4: .cfa -16 + ^ r5: .cfa -12 + ^ r6: .cfa -8 + ^
STACK CFI 4af1a .cfa: sp 24 +
STACK CFI INIT 4b07c 130 .cfa: sp 0 + .ra: lr
STACK CFI 4b080 .cfa: sp 16 + .ra: .cfa -4 + ^ r4: .cfa -16 + ^ r5: .cfa -12 + ^ r6: .cfa -8 + ^
STACK CFI INIT 4b1ac 30 .cfa: sp 0 + .ra: lr
STACK CFI 4b1b2 .cfa: sp 4 + r4: .cfa -4 + ^
STACK CFI INIT 4b1dc 1a .cfa: sp 0 + .ra: lr
STACK CFI INIT 4b1f8 4 .cfa: sp 0 + .ra: lr
STACK CFI INIT 4b1fc 6 .cfa: sp 0 + .ra: lr
STACK CFI INIT 4b204 70 .cfa: sp 0 + .ra: lr
STACK CFI 4b208 .cfa: sp 24 + .ra: .cfa -4 + ^ r10: .cfa -8 + ^ r4: .cfa -24 + ^ r5: .cfa -20 + ^ r6: .cfa -16 + ^ r7: .cfa -12 + ^
STACK CFI 4b20a .cfa: sp 48 +
STACK CFI INIT 4b274 58 .cfa: sp 0 + .ra: lr
STACK CFI 4b276 .cfa: sp 20 + .ra: .cfa -4 + ^ r4: .cfa -20 + ^ r5: .cfa -16 + ^ r6: .cfa -12 + ^ r7: .cfa -8 + ^
STACK CFI 4b27c .cfa: sp 48 +
STACK CFI INIT 4b2cc 70 .cfa: sp 0 + .ra: lr
STACK CFI 4b2d0 .cfa: sp 24 + .ra: .cfa -4 + ^ r10: .cfa -8 + ^ r4: .cfa -24 + ^ r5: .cfa -20 + ^ r6: .cfa -16 + ^ r7: .cfa -12 + ^
STACK CFI 4b2d2 .cfa: sp 48 +
STACK CFI INIT 4b33c 64 .cfa: sp 0 + .ra: lr
STACK CFI 4b340 .cfa: sp 32 + .ra: .cfa -4 + ^ r10: .cfa -8 + ^ r4: .cfa -32 + ^ r5: .cfa -28 + ^ r6: .cfa -24 + ^ r7: .cfa -20 + ^ r8: .cfa -16 + ^ r9: .cfa -12 + ^
STACK CFI 4b342 .cfa: sp 56 +
STACK CFI 4b344 .cfa: r7 40 +
STACK CFI INIT 4b3a0 190 .cfa: sp 0 + .ra: lr
STACK CFI 4b3a6 .cfa: sp 36 + .ra: .cfa -4 + ^ r10: .cfa -12 + ^ r11: .cfa -8 + ^ r4: .cfa -36 + ^ r5: .cfa -32 + ^ r6: .cfa -28 + ^ r7: .cfa -24 + ^ r8: .cfa -20 + ^ r9: .cfa -16 + ^
STACK CFI 4b3aa .cfa: sp 64 +
STACK CFI INIT 4b530 b2 .cfa: sp 0 + .ra: lr
STACK CFI 4b534 .cfa: sp 16 + .ra: .cfa -4 + ^ r3: .cfa -16 + ^ r4: .cfa -12 + ^ r5: .cfa -8 + ^
STACK CFI INIT 4b5e4 aa .cfa: sp 0 + .ra: lr
STACK CFI 4b5e8 .cfa: sp 16 + .ra: .cfa -4 + ^ r4: .cfa -16 + ^ r5: .cfa -12 + ^ r6: .cfa -8 + ^
STACK CFI INIT 4b690 aa .cfa: sp 0 + .ra: lr
STACK CFI 4b694 .cfa: sp 16 + .ra: .cfa -4 + ^ r4: .cfa -16 + ^ r5: .cfa -12 + ^ r6: .cfa -8 + ^
STACK CFI INIT 4b73c 28 .cfa: sp 0 + .ra: lr
STACK CFI INIT 4b764 116 .cfa: sp 0 + .ra: lr
STACK CFI 4b768 .cfa: sp 16 + .ra: .cfa -4 + ^ r4: .cfa -16 + ^ r5: .cfa -12 + ^ r6: .cfa -8 + ^
STACK CFI INIT 4b87c 260 .cfa: sp 0 + .ra: lr
STACK CFI 4b882 .cfa: sp 28 + .ra: .cfa -4 + ^ r4: .cfa -28 + ^ r5: .cfa -24 + ^ r6: .cfa -20 + ^ r7: .cfa -16 + ^ r8: .cfa -12 + ^ r9: .cfa -8 + ^
STACK CFI 4b88a .cfa: sp 136 +
STACK CFI INIT 4badc 11c .cfa: sp 0 + .ra: lr
STACK CFI 4bae0 .cfa: sp 20 + .ra: .cfa -4 + ^ r4: .cfa -20 + ^ r5: .cfa -16 + ^ r6: .cfa -12 + ^ r7: .cfa -8 + ^
STACK CFI 4bae6 .cfa: sp 32 +
STACK CFI INIT 4bbf8 10e .cfa: sp 0 + .ra: lr
STACK CFI 4bbfa .cfa: sp 16 + .ra: .cfa -4 + ^ r3: .cfa -16 + ^ r4: .cfa -12 + ^ r5: .cfa -8 + ^
STACK CFI INIT 4bd08 128 .cfa: sp 0 + .ra: lr
STACK CFI 4bd0a .cfa: sp 16 + .ra: .cfa -4 + ^ r3: .cfa -16 + ^ r4: .cfa -12 + ^ r5: .cfa -8 + ^
STACK CFI INIT 4be30 3a .cfa: sp 0 + .ra: lr
STACK CFI 4be36 .cfa: sp 8 + .ra: .cfa -4 + ^ r4: .cfa -8 + ^
STACK CFI INIT 4be6c 44 .cfa: sp 0 + .ra: lr
STACK CFI 4be6e .cfa: sp 16 + .ra: .cfa -4 + ^ r3: .cfa -16 + ^ r4: .cfa -12 + ^ r5: .cfa -8 + ^
STACK CFI INIT 4beb0 88 .cfa: sp 0 + .ra: lr
STACK CFI 4beb4 .cfa: sp 24 + .ra: .cfa -4 + ^ r4: .cfa -24 + ^ r5: .cfa -20 + ^ r6: .cfa -16 + ^ r7: .cfa -12 + ^ r8: .cfa -8 + ^
STACK CFI INIT 4bf38 4 .cfa: sp 0 + .ra: lr
STACK CFI INIT 4bf3c 116 .cfa: sp 0 + .ra: lr
STACK CFI 4bf40 .cfa: sp 16 + .ra: .cfa -4 + ^ r4: .cfa -16 + ^ r5: .cfa -12 + ^ r6: .cfa -8 + ^
STACK CFI INIT 4c054 110 .cfa: sp 0 + .ra: lr
STACK CFI 4c058 .cfa: sp 12 + .ra: .cfa -4 + ^ r4: .cfa -12 + ^ r5: .cfa -8 + ^
STACK CFI 4c05c .cfa: sp 24 +
STACK CFI INIT 4c164 8 .cfa: sp 0 + .ra: lr
STACK CFI INIT 4c16c a .cfa: sp 0 + .ra: lr
STACK CFI INIT 4c178 e4 .cfa: sp 0 + .ra: lr
STACK CFI 4c17c .cfa: sp 32 + .ra: .cfa -4 + ^ r10: .cfa -8 + ^ r4: .cfa -32 + ^ r5: .cfa -28 + ^ r6: .cfa -24 + ^ r7: .cfa -20 + ^ r8: .cfa -16 + ^ r9: .cfa -12 + ^
STACK CFI 4c180 .cfa: sp 208 +
STACK CFI INIT 4c25c c8 .cfa: sp 0 + .ra: lr
STACK CFI 4c260 .cfa: sp 24 + .ra: .cfa -4 + ^ r4: .cfa -24 + ^ r5: .cfa -20 + ^ r6: .cfa -16 + ^ r7: .cfa -12 + ^ r8: .cfa -8 + ^
STACK CFI 4c262 .cfa: sp 384 +
STACK CFI INIT 4c324 1c .cfa: sp 0 + .ra: lr
STACK CFI 4c326 .cfa: sp 4 + r4: .cfa -4 + ^
STACK CFI INIT 4c340 3c .cfa: sp 0 + .ra: lr
STACK CFI 4c346 .cfa: sp 24 + .ra: .cfa -4 + ^ r4: .cfa -24 + ^ r5: .cfa -20 + ^ r6: .cfa -16 + ^ r7: .cfa -12 + ^ r8: .cfa -8 + ^
STACK CFI INIT 4c37c 6c .cfa: sp 0 + .ra: lr
STACK CFI 4c380 .cfa: sp 32 + .ra: .cfa -4 + ^ r10: .cfa -8 + ^ r4: .cfa -32 + ^ r5: .cfa -28 + ^ r6: .cfa -24 + ^ r7: .cfa -20 + ^ r8: .cfa -16 + ^ r9: .cfa -12 + ^
STACK CFI 4c382 .cfa: sp 272 +
STACK CFI INIT 4c3e8 5e .cfa: sp 0 + .ra: lr
STACK CFI 4c3ec .cfa: sp 24 + .ra: .cfa -4 + ^ r4: .cfa -24 + ^ r5: .cfa -20 + ^ r6: .cfa -16 + ^ r7: .cfa -12 + ^ r8: .cfa -8 + ^
STACK CFI INIT 4c448 58 .cfa: sp 0 + .ra: lr
STACK CFI 4c44c .cfa: sp 16 + .ra: .cfa -4 + ^ r4: .cfa -16 + ^ r5: .cfa -12 + ^ r6: .cfa -8 + ^
STACK CFI INIT 4c4a0 f8 .cfa: sp 0 + .ra: lr
STACK CFI 4c4a4 .cfa: sp 32 + .ra: .cfa -4 + ^ r10: .cfa -8 + ^ r4: .cfa -32 + ^ r5: .cfa -28 + ^ r6: .cfa -24 + ^ r7: .cfa -20 + ^ r8: .cfa -16 + ^ r9: .cfa -12 + ^
STACK CFI 4c4a6 .cfa: sp 208 +
STACK CFI INIT 4c598 1e .cfa: sp 0 + .ra: lr
STACK CFI 4c59a .cfa: sp 12 + r1: .cfa -12 + ^ r2: .cfa -8 + ^ r3: .cfa -4 + ^
STACK CFI 4c59c .cfa: sp 16 + .ra: .cfa -16 + ^
STACK CFI 4c59e .cfa: sp 24 +
STACK CFI INIT 4c5b8 4 .cfa: sp 0 + .ra: lr
STACK CFI INIT 4c5bc 11c .cfa: sp 0 + .ra: lr
STACK CFI 4c5c0 .cfa: sp 20 + .ra: .cfa -4 + ^ r4: .cfa -20 + ^ r5: .cfa -16 + ^ r6: .cfa -12 + ^ r7: .cfa -8 + ^
STACK CFI 4c5c6 .cfa: sp 32 +
STACK CFI INIT 4c6d8 194 .cfa: sp 0 + .ra: lr
STACK CFI 4c6dc .cfa: sp 16 + .ra: .cfa -4 + ^ r4: .cfa -16 + ^ r5: .cfa -12 + ^ r6: .cfa -8 + ^
STACK CFI 4c6e2 .cfa: sp 24 +
STACK CFI INIT 4c86c 258 .cfa: sp 0 + .ra: lr
STACK CFI 4c872 .cfa: sp 28 + .ra: .cfa -4 + ^ r4: .cfa -28 + ^ r5: .cfa -24 + ^ r6: .cfa -20 + ^ r7: .cfa -16 + ^ r8: .cfa -12 + ^ r9: .cfa -8 + ^
STACK CFI 4c87a .cfa: sp 136 +
STACK CFI INIT 4cac4 122 .cfa: sp 0 + .ra: lr
STACK CFI 4cac8 .cfa: sp 24 + .ra: .cfa -4 + ^ r4: .cfa -24 + ^ r5: .cfa -20 + ^ r6: .cfa -16 + ^ r7: .cfa -12 + ^ r8: .cfa -8 + ^
STACK CFI 4cace .cfa: sp 32 +
STACK CFI INIT 4cbe8 16c .cfa: sp 0 + .ra: lr
STACK CFI 4cbec .cfa: sp 16 + .ra: .cfa -4 + ^ r4: .cfa -16 + ^ r5: .cfa -12 + ^ r6: .cfa -8 + ^
STACK CFI 4cbf2 .cfa: sp 24 +
STACK CFI INIT 4cd54 1e .cfa: sp 0 + .ra: lr
STACK CFI INIT 4cd74 22 .cfa: sp 0 + .ra: lr
STACK CFI INIT 4cd98 a .cfa: sp 0 + .ra: lr
STACK CFI INIT 4cda4 e .cfa: sp 0 + .ra: lr
STACK CFI INIT 4cdb4 e .cfa: sp 0 + .ra: lr
STACK CFI INIT 4cdc4 8 .cfa: sp 0 + .ra: lr
STACK CFI INIT 4cdcc 36 .cfa: sp 0 + .ra: lr
STACK CFI 4cdd0 .cfa: sp 8 + .ra: .cfa -4 + ^ r4: .cfa -8 + ^
STACK CFI INIT 4ce04 1e .cfa: sp 0 + .ra: lr
STACK CFI INIT 4ce24 20 .cfa: sp 0 + .ra: lr
STACK CFI INIT 16238 130 .cfa: sp 0 + .ra: lr
STACK CFI 1623e .cfa: sp 28 + .ra: .cfa -4 + ^ r4: .cfa -28 + ^ r5: .cfa -24 + ^ r6: .cfa -20 + ^ r7: .cfa -16 + ^ r8: .cfa -12 + ^ r9: .cfa -8 + ^
STACK CFI 16244 .cfa: sp 1312 +
STACK CFI INIT 4ce44 1f0 .cfa: sp 0 + .ra: lr
STACK CFI 4ce46 .cfa: sp 12 + r1: .cfa -12 + ^ r2: .cfa -8 + ^ r3: .cfa -4 + ^
STACK CFI 4ce4a .cfa: sp 48 + .ra: .cfa -16 + ^ r10: .cfa -24 + ^ r11: .cfa -20 + ^ r4: .cfa -48 + ^ r5: .cfa -44 + ^ r6: .cfa -40 + ^ r7: .cfa -36 + ^ r8: .cfa -32 + ^ r9: .cfa -28 + ^
STACK CFI 4ce4c .cfa: sp 80 +
STACK CFI 4ce4e .cfa: r7 72 +
STACK CFI INIT 4d034 18 .cfa: sp 0 + .ra: lr
STACK CFI 4d03a .cfa: sp 8 + .ra: .cfa -4 + ^ r3: .cfa -8 + ^
STACK CFI INIT 4d04c 5c .cfa: sp 0 + .ra: lr
STACK CFI 4d050 .cfa: sp 8 + r4: .cfa -8 + ^ r5: .cfa -4 + ^
STACK CFI INIT 4d0a8 18 .cfa: sp 0 + .ra: lr
STACK CFI 4d0ac .cfa: sp 8 + .ra: .cfa -4 + ^ r4: .cfa -8 + ^
STACK CFI INIT 4d0c0 e8 .cfa: sp 0 + .ra: lr
STACK CFI 4d0c8 .cfa: sp 36 + .ra: .cfa -4 + ^ r10: .cfa -12 + ^ r11: .cfa -8 + ^ r4: .cfa -36 + ^ r5: .cfa -32 + ^ r6: .cfa -28 + ^ r7: .cfa -24 + ^ r8: .cfa -20 + ^ r9: .cfa -16 + ^
STACK CFI 4d0cc .cfa: sp 56 +
STACK CFI INIT 4d1a8 70 .cfa: sp 0 + .ra: lr
STACK CFI 4d1ac .cfa: sp 36 + .ra: .cfa -4 + ^ r10: .cfa -12 + ^ r11: .cfa -8 + ^ r4: .cfa -36 + ^ r5: .cfa -32 + ^ r6: .cfa -28 + ^ r7: .cfa -24 + ^ r8: .cfa -20 + ^ r9: .cfa -16 + ^
STACK CFI 4d1d0 .cfa: sp 48 +
STACK CFI INIT 4d218 f4 .cfa: sp 0 + .ra: lr
STACK CFI 4d21c .cfa: sp 24 + .ra: .cfa -4 + ^ r4: .cfa -24 + ^ r5: .cfa -20 + ^ r6: .cfa -16 + ^ r7: .cfa -12 + ^ r8: .cfa -8 + ^
STACK CFI 4d220 .cfa: sp 48 +
STACK CFI INIT 4d30c a .cfa: sp 0 + .ra: lr
STACK CFI INIT 4d318 8 .cfa: sp 0 + .ra: lr
STACK CFI INIT 4d320 8 .cfa: sp 0 + .ra: lr
STACK CFI INIT 4d328 26 .cfa: sp 0 + .ra: lr
STACK CFI 4d330 .cfa: sp 4 + r4: .cfa -4 + ^
STACK CFI INIT 4d350 14 .cfa: sp 0 + .ra: lr
STACK CFI INIT 4d364 20 .cfa: sp 0 + .ra: lr
STACK CFI INIT 4d384 1e .cfa: sp 0 + .ra: lr
STACK CFI 4d386 .cfa: sp 8 + .ra: .cfa -4 + ^ r3: .cfa -8 + ^
STACK CFI INIT 4d3a4 26 .cfa: sp 0 + .ra: lr
STACK CFI 4d3ac .cfa: sp 4 + r4: .cfa -4 + ^
STACK CFI INIT 4d3cc 112 .cfa: sp 0 + .ra: lr
STACK CFI 4d3ce .cfa: sp 16 + .ra: .cfa -4 + ^ r3: .cfa -16 + ^ r4: .cfa -12 + ^ r5: .cfa -8 + ^
STACK CFI INIT 4d4e0 2a .cfa: sp 0 + .ra: lr
STACK CFI 4d4e2 .cfa: sp 16 + .ra: .cfa -4 + ^ r4: .cfa -16 + ^ r5: .cfa -12 + ^ r6: .cfa -8 + ^
STACK CFI INIT 4d50c 44 .cfa: sp 0 + .ra: lr
STACK CFI 4d50e .cfa: sp 24 + .ra: .cfa -4 + ^ r3: .cfa -24 + ^ r4: .cfa -20 + ^ r5: .cfa -16 + ^ r6: .cfa -12 + ^ r7: .cfa -8 + ^
STACK CFI INIT 4d550 70 .cfa: sp 0 + .ra: lr
STACK CFI 4d554 .cfa: sp 16 + .ra: .cfa -4 + ^ r4: .cfa -16 + ^ r5: .cfa -12 + ^ r6: .cfa -8 + ^
STACK CFI 4d558 .cfa: sp 24 +
STACK CFI INIT 4d5c0 36 .cfa: sp 0 + .ra: lr
STACK CFI 4d5c2 .cfa: sp 16 + .ra: .cfa -4 + ^ r4: .cfa -16 + ^ r5: .cfa -12 + ^ r6: .cfa -8 + ^
STACK CFI INIT 4d5f8 64 .cfa: sp 0 + .ra: lr
STACK CFI 4d5fc .cfa: sp 12 + .ra: .cfa -4 + ^ r4: .cfa -12 + ^ r5: .cfa -8 + ^
STACK CFI 4d600 .cfa: sp 24 +
STACK CFI INIT 4d65c 88 .cfa: sp 0 + .ra: lr
STACK CFI 4d662 .cfa: sp 24 + .ra: .cfa -4 + ^ r4: .cfa -24 + ^ r5: .cfa -20 + ^ r6: .cfa -16 + ^ r7: .cfa -12 + ^ r8: .cfa -8 + ^
STACK CFI 4d666 .cfa: sp 88 +
STACK CFI INIT 4d6e4 1e .cfa: sp 0 + .ra: lr
STACK CFI 4d6e6 .cfa: sp 8 + r2: .cfa -8 + ^ r3: .cfa -4 + ^
STACK CFI 4d6e8 .cfa: sp 16 + .ra: .cfa -12 + ^ r4: .cfa -16 + ^
STACK CFI 4d6ea .cfa: sp 24 +
STACK CFI INIT 4d704 38 .cfa: sp 0 + .ra: lr
STACK CFI 4d70a .cfa: sp 24 + .ra: .cfa -4 + ^ r4: .cfa -24 + ^ r5: .cfa -20 + ^ r6: .cfa -16 + ^ r7: .cfa -12 + ^ r8: .cfa -8 + ^
STACK CFI INIT 4d73c 70 .cfa: sp 0 + .ra: lr
STACK CFI 4d740 .cfa: sp 28 + .ra: .cfa -4 + ^ r4: .cfa -28 + ^ r5: .cfa -24 + ^ r6: .cfa -20 + ^ r7: .cfa -16 + ^ r8: .cfa -12 + ^ r9: .cfa -8 + ^
STACK CFI 4d744 .cfa: sp 656 +
STACK CFI INIT 4d7ac 50 .cfa: sp 0 + .ra: lr
STACK CFI 4d7b0 .cfa: sp 24 + .ra: .cfa -4 + ^ r4: .cfa -24 + ^ r5: .cfa -20 + ^ r6: .cfa -16 + ^ r7: .cfa -12 + ^ r8: .cfa -8 + ^
STACK CFI 4d7b2 .cfa: sp 392 +
STACK CFI INIT 4d7fc 1e .cfa: sp 0 + .ra: lr
STACK CFI 4d7fe .cfa: sp 12 + r1: .cfa -12 + ^ r2: .cfa -8 + ^ r3: .cfa -4 + ^
STACK CFI 4d800 .cfa: sp 16 + .ra: .cfa -16 + ^
STACK CFI 4d802 .cfa: sp 24 +
STACK CFI INIT 4d81c 152 .cfa: sp 0 + .ra: lr
STACK CFI 4d820 .cfa: sp 36 + .ra: .cfa -4 + ^ r10: .cfa -12 + ^ r11: .cfa -8 + ^ r4: .cfa -36 + ^ r5: .cfa -32 + ^ r6: .cfa -28 + ^ r7: .cfa -24 + ^ r8: .cfa -20 + ^ r9: .cfa -16 + ^
STACK CFI 4d826 .cfa: sp 48 +
STACK CFI INIT 4d970 1c .cfa: sp 0 + .ra: lr
STACK CFI INIT 4d98c 22 .cfa: sp 0 + .ra: lr
STACK CFI 4d992 .cfa: sp 12 + r4: .cfa -12 + ^ r5: .cfa -8 + ^ r6: .cfa -4 + ^
STACK CFI INIT 4d9b0 22 .cfa: sp 0 + .ra: lr
STACK CFI 4d9b6 .cfa: sp 12 + r4: .cfa -12 + ^ r5: .cfa -8 + ^ r6: .cfa -4 + ^
STACK CFI INIT 4d9d4 5a .cfa: sp 0 + .ra: lr
STACK CFI 4d9d8 .cfa: sp 24 + .ra: .cfa -4 + ^ r4: .cfa -24 + ^ r5: .cfa -20 + ^ r6: .cfa -16 + ^ r7: .cfa -12 + ^ r8: .cfa -8 + ^
STACK CFI 4d9de .cfa: sp 32 +
STACK CFI INIT 4da30 ea .cfa: sp 0 + .ra: lr
STACK CFI 4da34 .cfa: sp 32 + .ra: .cfa -4 + ^ r3: .cfa -32 + ^ r4: .cfa -28 + ^ r5: .cfa -24 + ^ r6: .cfa -20 + ^ r7: .cfa -16 + ^ r8: .cfa -12 + ^ r9: .cfa -8 + ^
STACK CFI INIT 4db1c 56 .cfa: sp 0 + .ra: lr
STACK CFI 4db20 .cfa: sp 16 + .ra: .cfa -4 + ^ r3: .cfa -16 + ^ r4: .cfa -12 + ^ r5: .cfa -8 + ^
STACK CFI INIT 4db74 1e .cfa: sp 0 + .ra: lr
STACK CFI 4db7a .cfa: sp 8 + .ra: .cfa -4 + ^ r4: .cfa -8 + ^
STACK CFI INIT 4db94 1e .cfa: sp 0 + .ra: lr
STACK CFI 4db96 .cfa: sp 16 + .ra: .cfa -4 + ^ r3: .cfa -16 + ^ r4: .cfa -12 + ^ r5: .cfa -8 + ^
STACK CFI INIT 4dbb4 9e .cfa: sp 0 + .ra: lr
STACK CFI 4dbb8 .cfa: sp 36 + .ra: .cfa -4 + ^ r10: .cfa -12 + ^ r11: .cfa -8 + ^ r4: .cfa -36 + ^ r5: .cfa -32 + ^ r6: .cfa -28 + ^ r7: .cfa -24 + ^ r8: .cfa -20 + ^ r9: .cfa -16 + ^
STACK CFI 4dbbc .cfa: sp 48 +
STACK CFI INIT 4dc54 30 .cfa: sp 0 + .ra: lr
STACK CFI 4dc58 .cfa: sp 8 + .ra: .cfa -4 + ^ r4: .cfa -8 + ^
STACK CFI INIT 4dc84 36 .cfa: sp 0 + .ra: lr
STACK CFI 4dc86 .cfa: sp 8 + .ra: .cfa -4 + ^ r4: .cfa -8 + ^
STACK CFI 4dc88 .cfa: sp 16 +
STACK CFI INIT 4dcbc 4c .cfa: sp 0 + .ra: lr
STACK CFI 4dcbe .cfa: sp 16 + .ra: .cfa -4 + ^ r3: .cfa -16 + ^ r4: .cfa -12 + ^ r5: .cfa -8 + ^
STACK CFI INIT 4dd08 3a .cfa: sp 0 + .ra: lr
STACK CFI 4dd0c .cfa: sp 16 + .ra: .cfa -4 + ^ r4: .cfa -16 + ^ r5: .cfa -12 + ^ r6: .cfa -8 + ^
STACK CFI INIT 4dd44 ac .cfa: sp 0 + .ra: lr
STACK CFI 4dd48 .cfa: sp 16 + .ra: .cfa -4 + ^ r4: .cfa -16 + ^ r5: .cfa -12 + ^ r6: .cfa -8 + ^
STACK CFI INIT 4ddf0 a2 .cfa: sp 0 + .ra: lr
STACK CFI 4ddf4 .cfa: sp 16 + .ra: .cfa -4 + ^ r4: .cfa -16 + ^ r5: .cfa -12 + ^ r6: .cfa -8 + ^
STACK CFI INIT 4de94 72 .cfa: sp 0 + .ra: lr
STACK CFI 4de98 .cfa: sp 32 + .ra: .cfa -4 + ^ r10: .cfa -8 + ^ r4: .cfa -32 + ^ r5: .cfa -28 + ^ r6: .cfa -24 + ^ r7: .cfa -20 + ^ r8: .cfa -16 + ^ r9: .cfa -12 + ^
STACK CFI INIT 4df08 34 .cfa: sp 0 + .ra: lr
STACK CFI 4df0c .cfa: sp 8 + .ra: .cfa -4 + ^ r4: .cfa -8 + ^
STACK CFI INIT 4df3c 32 .cfa: sp 0 + .ra: lr
STACK CFI 4df40 .cfa: sp 8 + .ra: .cfa -4 + ^ r4: .cfa -8 + ^
STACK CFI INIT 4df70 32 .cfa: sp 0 + .ra: lr
STACK CFI 4df72 .cfa: sp 8 + r4: .cfa -8 + ^ r5: .cfa -4 + ^
STACK CFI INIT 4dfa4 34 .cfa: sp 0 + .ra: lr
STACK CFI 4dfa6 .cfa: sp 16 + .ra: .cfa -4 + ^ r3: .cfa -16 + ^ r4: .cfa -12 + ^ r5: .cfa -8 + ^
STACK CFI INIT 4dfd8 24 .cfa: sp 0 + .ra: lr
STACK CFI INIT 4dffc 66 .cfa: sp 0 + .ra: lr
STACK CFI 4e000 .cfa: sp 8 + r4: .cfa -8 + ^ r5: .cfa -4 + ^
STACK CFI INIT 4e064 10 .cfa: sp 0 + .ra: lr
STACK CFI INIT 4e074 3c .cfa: sp 0 + .ra: lr
STACK CFI 4e078 .cfa: sp 8 + r4: .cfa -8 + ^ r5: .cfa -4 + ^
STACK CFI INIT 4e0b0 116 .cfa: sp 0 + .ra: lr
STACK CFI 4e0ba .cfa: sp 36 + .ra: .cfa -4 + ^ r10: .cfa -12 + ^ r11: .cfa -8 + ^ r4: .cfa -36 + ^ r5: .cfa -32 + ^ r6: .cfa -28 + ^ r7: .cfa -24 + ^ r8: .cfa -20 + ^ r9: .cfa -16 + ^
STACK CFI 4e0cc .cfa: sp 48 +
STACK CFI INIT 4e1c8 14 .cfa: sp 0 + .ra: lr
STACK CFI INIT 4e1dc 26 .cfa: sp 0 + .ra: lr
STACK CFI 4e1e0 .cfa: sp 8 + .ra: .cfa -4 + ^ r4: .cfa -8 + ^
STACK CFI INIT 4e204 154 .cfa: sp 0 + .ra: lr
STACK CFI 4e208 .cfa: sp 36 + .ra: .cfa -4 + ^ r10: .cfa -12 + ^ r11: .cfa -8 + ^ r4: .cfa -36 + ^ r5: .cfa -32 + ^ r6: .cfa -28 + ^ r7: .cfa -24 + ^ r8: .cfa -20 + ^ r9: .cfa -16 + ^
STACK CFI 4e212 .cfa: sp 48 +
STACK CFI INIT 4e358 58 .cfa: sp 0 + .ra: lr
STACK CFI 4e35a .cfa: sp 24 + .ra: .cfa -4 + ^ r3: .cfa -24 + ^ r4: .cfa -20 + ^ r5: .cfa -16 + ^ r6: .cfa -12 + ^ r7: .cfa -8 + ^
STACK CFI INIT 4e3b0 18 .cfa: sp 0 + .ra: lr
STACK CFI INIT 4e3c8 14a .cfa: sp 0 + .ra: lr
STACK CFI 4e3cc .cfa: sp 24 + .ra: .cfa -4 + ^ r4: .cfa -24 + ^ r5: .cfa -20 + ^ r6: .cfa -16 + ^ r7: .cfa -12 + ^ r8: .cfa -8 + ^
STACK CFI 4e3ce .cfa: sp 32 +
STACK CFI INIT 4e514 98 .cfa: sp 0 + .ra: lr
STACK CFI 4e516 .cfa: sp 20 + .ra: .cfa -4 + ^ r4: .cfa -20 + ^ r5: .cfa -16 + ^ r6: .cfa -12 + ^ r7: .cfa -8 + ^
STACK CFI 4e51c .cfa: sp 48 +
STACK CFI INIT 4e5ac 470 .cfa: sp 0 + .ra: lr
STACK CFI 4e5b2 .cfa: sp 36 + .ra: .cfa -4 + ^ r10: .cfa -12 + ^ r11: .cfa -8 + ^ r4: .cfa -36 + ^ r5: .cfa -32 + ^ r6: .cfa -28 + ^ r7: .cfa -24 + ^ r8: .cfa -20 + ^ r9: .cfa -16 + ^
STACK CFI 4e5b8 .cfa: sp 80 +
STACK CFI INIT 4ea1c 590 .cfa: sp 0 + .ra: lr
STACK CFI 4ea20 .cfa: sp 36 + .ra: .cfa -4 + ^ r10: .cfa -12 + ^ r11: .cfa -8 + ^ r4: .cfa -36 + ^ r5: .cfa -32 + ^ r6: .cfa -28 + ^ r7: .cfa -24 + ^ r8: .cfa -20 + ^ r9: .cfa -16 + ^
STACK CFI 4ea2a .cfa: sp 192 +
STACK CFI INIT 4efac d8 .cfa: sp 0 + .ra: lr
STACK CFI 4efb0 .cfa: sp 20 + .ra: .cfa -4 + ^ r4: .cfa -20 + ^ r5: .cfa -16 + ^ r6: .cfa -12 + ^ r7: .cfa -8 + ^
STACK CFI 4efb4 .cfa: sp 48 +
STACK CFI INIT 4f084 1a .cfa: sp 0 + .ra: lr
STACK CFI 4f086 .cfa: sp 8 + .ra: .cfa -4 + ^ r4: .cfa -8 + ^
STACK CFI INIT 4f0a0 b8 .cfa: sp 0 + .ra: lr
STACK CFI 4f0a4 .cfa: sp 32 + .ra: .cfa -4 + ^ r10: .cfa -8 + ^ r4: .cfa -32 + ^ r5: .cfa -28 + ^ r6: .cfa -24 + ^ r7: .cfa -20 + ^ r8: .cfa -16 + ^ r9: .cfa -12 + ^
STACK CFI 4f0a8 .cfa: sp 56 +
STACK CFI INIT 4f158 184 .cfa: sp 0 + .ra: lr
STACK CFI 4f15c .cfa: sp 32 + .ra: .cfa -4 + ^ r3: .cfa -32 + ^ r4: .cfa -28 + ^ r5: .cfa -24 + ^ r6: .cfa -20 + ^ r7: .cfa -16 + ^ r8: .cfa -12 + ^ r9: .cfa -8 + ^
STACK CFI INIT 4f2dc d8 .cfa: sp 0 + .ra: lr
STACK CFI 4f2e0 .cfa: sp 16 + .ra: .cfa -4 + ^ r4: .cfa -16 + ^ r5: .cfa -12 + ^ r6: .cfa -8 + ^
STACK CFI 4f2e6 .cfa: sp 24 +
STACK CFI INIT 4f3b4 108 .cfa: sp 0 + .ra: lr
STACK CFI 4f3b8 .cfa: sp 36 + .ra: .cfa -4 + ^ r10: .cfa -12 + ^ r11: .cfa -8 + ^ r4: .cfa -36 + ^ r5: .cfa -32 + ^ r6: .cfa -28 + ^ r7: .cfa -24 + ^ r8: .cfa -20 + ^ r9: .cfa -16 + ^
STACK CFI 4f3bc .cfa: sp 48 +
STACK CFI INIT 4f4bc 42 .cfa: sp 0 + .ra: lr
STACK CFI 4f4c0 .cfa: sp 8 + .ra: .cfa -4 + ^ r4: .cfa -8 + ^
STACK CFI INIT 4f500 4a .cfa: sp 0 + .ra: lr
STACK CFI 4f504 .cfa: sp 16 + .ra: .cfa -4 + ^ r4: .cfa -16 + ^ r5: .cfa -12 + ^ r6: .cfa -8 + ^
STACK CFI INIT 4f54c 9c .cfa: sp 0 + .ra: lr
STACK CFI 4f550 .cfa: sp 24 + .ra: .cfa -4 + ^ r4: .cfa -24 + ^ r5: .cfa -20 + ^ r6: .cfa -16 + ^ r7: .cfa -12 + ^ r8: .cfa -8 + ^
STACK CFI 4f554 .cfa: sp 32 +
STACK CFI INIT 4f5e8 12c .cfa: sp 0 + .ra: lr
STACK CFI 4f5ec .cfa: sp 16 + .ra: .cfa -4 + ^ r4: .cfa -16 + ^ r5: .cfa -12 + ^ r6: .cfa -8 + ^
STACK CFI INIT 4f714 3a .cfa: sp 0 + .ra: lr
STACK CFI 4f716 .cfa: sp 16 + .ra: .cfa -4 + ^ r3: .cfa -16 + ^ r4: .cfa -12 + ^ r5: .cfa -8 + ^
STACK CFI INIT 4f750 112 .cfa: sp 0 + .ra: lr
STACK CFI 4f752 .cfa: sp 16 + .ra: .cfa -4 + ^ r3: .cfa -16 + ^ r4: .cfa -12 + ^ r5: .cfa -8 + ^
STACK CFI INIT 4f864 18 .cfa: sp 0 + .ra: lr
STACK CFI INIT 4f87c 130 .cfa: sp 0 + .ra: lr
STACK CFI 4f87e .cfa: sp 16 + .ra: .cfa -4 + ^ r3: .cfa -16 + ^ r4: .cfa -12 + ^ r5: .cfa -8 + ^
STACK CFI INIT 4f9ac 24 .cfa: sp 0 + .ra: lr
STACK CFI INIT 4f9d0 164 .cfa: sp 0 + .ra: lr
STACK CFI 4f9d4 .cfa: sp 24 + .ra: .cfa -4 + ^ r4: .cfa -24 + ^ r5: .cfa -20 + ^ r6: .cfa -16 + ^ r7: .cfa -12 + ^ r8: .cfa -8 + ^
STACK CFI 4f9d8 .cfa: sp 32 +
STACK CFI INIT 4fb34 70 .cfa: sp 0 + .ra: lr
STACK CFI 4fb38 .cfa: sp 16 + .ra: .cfa -4 + ^ r4: .cfa -16 + ^ r5: .cfa -12 + ^ r6: .cfa -8 + ^
STACK CFI 4fb3c .cfa: sp 24 +
STACK CFI INIT 4fba4 124 .cfa: sp 0 + .ra: lr
STACK CFI 4fba6 .cfa: sp 24 + .ra: .cfa -4 + ^ r3: .cfa -24 + ^ r4: .cfa -20 + ^ r5: .cfa -16 + ^ r6: .cfa -12 + ^ r7: .cfa -8 + ^
STACK CFI INIT 4fcc8 36 .cfa: sp 0 + .ra: lr
STACK CFI 4fcca .cfa: sp 24 + .ra: .cfa -4 + ^ r3: .cfa -24 + ^ r4: .cfa -20 + ^ r5: .cfa -16 + ^ r6: .cfa -12 + ^ r7: .cfa -8 + ^
STACK CFI INIT 4fd00 108 .cfa: sp 0 + .ra: lr
STACK CFI 4fd04 .cfa: sp 36 + .ra: .cfa -4 + ^ r10: .cfa -12 + ^ r11: .cfa -8 + ^ r4: .cfa -36 + ^ r5: .cfa -32 + ^ r6: .cfa -28 + ^ r7: .cfa -24 + ^ r8: .cfa -20 + ^ r9: .cfa -16 + ^
STACK CFI 4fd06 .cfa: sp 48 +
STACK CFI INIT 4fe08 14 .cfa: sp 0 + .ra: lr
STACK CFI 4fe0a .cfa: sp 12 + .ra: .cfa -4 + ^ r4: .cfa -12 + ^ r5: .cfa -8 + ^
STACK CFI 4fe0c .cfa: sp 24 +
STACK CFI INIT 4fe1c 106 .cfa: sp 0 + .ra: lr
STACK CFI 4fe20 .cfa: sp 16 + .ra: .cfa -4 + ^ r4: .cfa -16 + ^ r5: .cfa -12 + ^ r6: .cfa -8 + ^
STACK CFI INIT 4ff24 11a .cfa: sp 0 + .ra: lr
STACK CFI 4ff28 .cfa: sp 16 + .ra: .cfa -4 + ^ r4: .cfa -16 + ^ r5: .cfa -12 + ^ r6: .cfa -8 + ^
STACK CFI INIT 50040 24 .cfa: sp 0 + .ra: lr
STACK CFI 50044 .cfa: sp 8 + r4: .cfa -8 + ^ r5: .cfa -4 + ^
STACK CFI INIT 50064 134 .cfa: sp 0 + .ra: lr
STACK CFI 50068 .cfa: sp 16 + .ra: .cfa -4 + ^ r4: .cfa -16 + ^ r5: .cfa -12 + ^ r6: .cfa -8 + ^
STACK CFI INIT 50198 2c .cfa: sp 0 + .ra: lr
STACK CFI 5019e .cfa: sp 8 + r4: .cfa -8 + ^ r5: .cfa -4 + ^
STACK CFI INIT 501c4 1e .cfa: sp 0 + .ra: lr
STACK CFI 501c6 .cfa: sp 12 + r1: .cfa -12 + ^ r2: .cfa -8 + ^ r3: .cfa -4 + ^
STACK CFI 501c8 .cfa: sp 16 + .ra: .cfa -16 + ^
STACK CFI 501ca .cfa: sp 24 +
STACK CFI INIT 501e4 20 .cfa: sp 0 + .ra: lr
STACK CFI 501ea .cfa: sp 4 + r4: .cfa -4 + ^
STACK CFI INIT 50204 30 .cfa: sp 0 + .ra: lr
STACK CFI 50206 .cfa: sp 16 + r0: .cfa -16 + ^ r1: .cfa -12 + ^ r2: .cfa -8 + ^ r3: .cfa -4 + ^
STACK CFI 50208 .cfa: sp 24 + .ra: .cfa -20 + ^ r4: .cfa -24 + ^
STACK CFI 5020a .cfa: sp 32 +
STACK CFI INIT 50234 34 .cfa: sp 0 + .ra: lr
STACK CFI 50236 .cfa: sp 16 + r0: .cfa -16 + ^ r1: .cfa -12 + ^ r2: .cfa -8 + ^ r3: .cfa -4 + ^
STACK CFI 5023a .cfa: sp 28 + .ra: .cfa -20 + ^ r4: .cfa -28 + ^ r5: .cfa -24 + ^
STACK CFI 5023c .cfa: sp 40 +
STACK CFI INIT 50268 1e .cfa: sp 0 + .ra: lr
STACK CFI 5026a .cfa: sp 12 + r1: .cfa -12 + ^ r2: .cfa -8 + ^ r3: .cfa -4 + ^
STACK CFI 5026c .cfa: sp 16 + .ra: .cfa -16 + ^
STACK CFI 5026e .cfa: sp 24 +
STACK CFI INIT 50288 1c .cfa: sp 0 + .ra: lr
STACK CFI 5028a .cfa: sp 4 + r4: .cfa -4 + ^
STACK CFI INIT 502a4 122 .cfa: sp 0 + .ra: lr
STACK CFI 502a8 .cfa: sp 16 + .ra: .cfa -4 + ^ r4: .cfa -16 + ^ r5: .cfa -12 + ^ r6: .cfa -8 + ^
STACK CFI INIT 503c8 32 .cfa: sp 0 + .ra: lr
STACK CFI 503ca .cfa: sp 12 + .ra: .cfa -4 + ^ r4: .cfa -12 + ^ r5: .cfa -8 + ^
STACK CFI 503cc .cfa: sp 24 +
STACK CFI INIT 503fc 98 .cfa: sp 0 + .ra: lr
STACK CFI 50402 .cfa: sp 8 + .ra: .cfa -4 + ^ r4: .cfa -8 + ^
STACK CFI 50406 .cfa: sp 16 +
STACK CFI INIT 50494 30 .cfa: sp 0 + .ra: lr
STACK CFI 50496 .cfa: sp 4 + .ra: .cfa -4 + ^
STACK CFI INIT 504c4 1c .cfa: sp 0 + .ra: lr
STACK CFI 504c6 .cfa: sp 8 + .ra: .cfa -4 + ^ r4: .cfa -8 + ^
STACK CFI INIT 504e0 3c .cfa: sp 0 + .ra: lr
STACK CFI 504e4 .cfa: sp 16 + .ra: .cfa -4 + ^ r4: .cfa -16 + ^ r5: .cfa -12 + ^ r6: .cfa -8 + ^
STACK CFI INIT 5051c a6 .cfa: sp 0 + .ra: lr
STACK CFI 50522 .cfa: sp 28 + .ra: .cfa -4 + ^ r4: .cfa -28 + ^ r5: .cfa -24 + ^ r6: .cfa -20 + ^ r7: .cfa -16 + ^ r8: .cfa -12 + ^ r9: .cfa -8 + ^
STACK CFI 50528 .cfa: sp 40 +
STACK CFI INIT 505c4 384 .cfa: sp 0 + .ra: lr
STACK CFI 505c8 .cfa: sp 36 + .ra: .cfa -4 + ^ r10: .cfa -12 + ^ r11: .cfa -8 + ^ r4: .cfa -36 + ^ r5: .cfa -32 + ^ r6: .cfa -28 + ^ r7: .cfa -24 + ^ r8: .cfa -20 + ^ r9: .cfa -16 + ^
STACK CFI 505d2 .cfa: sp 160 +
STACK CFI INIT 50948 40 .cfa: sp 0 + .ra: lr
STACK CFI 5094a .cfa: sp 8 + .ra: .cfa -4 + ^ r4: .cfa -8 + ^
STACK CFI INIT 50988 1b4 .cfa: sp 0 + .ra: lr
STACK CFI 50990 .cfa: sp 36 + .ra: .cfa -4 + ^ r10: .cfa -12 + ^ r11: .cfa -8 + ^ r4: .cfa -36 + ^ r5: .cfa -32 + ^ r6: .cfa -28 + ^ r7: .cfa -24 + ^ r8: .cfa -20 + ^ r9: .cfa -16 + ^
STACK CFI 50992 .cfa: sp 168 +
STACK CFI INIT 50b3c 6 .cfa: sp 0 + .ra: lr
STACK CFI INIT 50b44 52 .cfa: sp 0 + .ra: lr
STACK CFI 50b4a .cfa: sp 8 + .ra: .cfa -4 + ^ r4: .cfa -8 + ^
STACK CFI 50b4e .cfa: sp 16 +
STACK CFI INIT 50b98 134 .cfa: sp 0 + .ra: lr
STACK CFI 50ba0 .cfa: sp 24 + .ra: .cfa -4 + ^ r4: .cfa -24 + ^ r5: .cfa -20 + ^ r6: .cfa -16 + ^ r7: .cfa -12 + ^ r8: .cfa -8 + ^
STACK CFI 50ba2 .cfa: sp 144 +
STACK CFI INIT 50ccc 14 .cfa: sp 0 + .ra: lr
STACK CFI 50cce .cfa: sp 8 + .ra: .cfa -4 + ^ r4: .cfa -8 + ^
STACK CFI INIT 50ce0 1c .cfa: sp 0 + .ra: lr
STACK CFI 50ce2 .cfa: sp 16 + .ra: .cfa -4 + ^ r4: .cfa -16 + ^ r5: .cfa -12 + ^ r6: .cfa -8 + ^
STACK CFI INIT 50cfc c .cfa: sp 0 + .ra: lr
STACK CFI INIT 50d08 88 .cfa: sp 0 + .ra: lr
STACK CFI 50d0a .cfa: sp 24 + .ra: .cfa -4 + ^ r3: .cfa -24 + ^ r4: .cfa -20 + ^ r5: .cfa -16 + ^ r6: .cfa -12 + ^ r7: .cfa -8 + ^
STACK CFI INIT 50d90 9c .cfa: sp 0 + .ra: lr
STACK CFI 50d94 .cfa: sp 24 + .ra: .cfa -4 + ^ r4: .cfa -24 + ^ r5: .cfa -20 + ^ r6: .cfa -16 + ^ r7: .cfa -12 + ^ r8: .cfa -8 + ^
STACK CFI INIT 50e2c 116 .cfa: sp 0 + .ra: lr
STACK CFI 50e30 .cfa: sp 32 + .ra: .cfa -4 + ^ r3: .cfa -32 + ^ r4: .cfa -28 + ^ r5: .cfa -24 + ^ r6: .cfa -20 + ^ r7: .cfa -16 + ^ r8: .cfa -12 + ^ r9: .cfa -8 + ^
STACK CFI INIT 50f44 e4 .cfa: sp 0 + .ra: lr
STACK CFI 50f48 .cfa: sp 24 + .ra: .cfa -4 + ^ r4: .cfa -24 + ^ r5: .cfa -20 + ^ r6: .cfa -16 + ^ r7: .cfa -12 + ^ r8: .cfa -8 + ^
STACK CFI 50f4a .cfa: sp 32 +
STACK CFI INIT 51028 38 .cfa: sp 0 + .ra: lr
STACK CFI 5102e .cfa: sp 8 + .ra: .cfa -4 + ^ r4: .cfa -8 + ^
STACK CFI INIT 51060 40 .cfa: sp 0 + .ra: lr
STACK CFI 51064 .cfa: sp 4 + .ra: .cfa -4 + ^
STACK CFI INIT 510a0 10e .cfa: sp 0 + .ra: lr
STACK CFI 510a4 .cfa: sp 24 + .ra: .cfa -4 + ^ r4: .cfa -24 + ^ r5: .cfa -20 + ^ r6: .cfa -16 + ^ r7: .cfa -12 + ^ r8: .cfa -8 + ^
STACK CFI INIT 511b0 28 .cfa: sp 0 + .ra: lr
STACK CFI 511b8 .cfa: sp 8 + .ra: .cfa -4 + ^ r4: .cfa -8 + ^
STACK CFI INIT 511d8 d8 .cfa: sp 0 + .ra: lr
STACK CFI 511dc .cfa: sp 16 + .ra: .cfa -4 + ^ r4: .cfa -16 + ^ r5: .cfa -12 + ^ r6: .cfa -8 + ^
STACK CFI INIT 512b0 54 .cfa: sp 0 + .ra: lr
STACK CFI 512b4 .cfa: sp 8 + .ra: .cfa -4 + ^ r4: .cfa -8 + ^
STACK CFI INIT 51304 e0 .cfa: sp 0 + .ra: lr
STACK CFI 51306 .cfa: sp 20 + .ra: .cfa -4 + ^ r4: .cfa -20 + ^ r5: .cfa -16 + ^ r6: .cfa -12 + ^ r7: .cfa -8 + ^
STACK CFI 51308 .cfa: sp 32 +
STACK CFI INIT 513e4 398 .cfa: sp 0 + .ra: lr
STACK CFI 513e8 .cfa: sp 36 + .ra: .cfa -4 + ^ r10: .cfa -12 + ^ r11: .cfa -8 + ^ r4: .cfa -36 + ^ r5: .cfa -32 + ^ r6: .cfa -28 + ^ r7: .cfa -24 + ^ r8: .cfa -20 + ^ r9: .cfa -16 + ^
STACK CFI 513ea .cfa: sp 64 +
STACK CFI 513ee .cfa: r7 56 +
STACK CFI INIT 5177c 84 .cfa: sp 0 + .ra: lr
STACK CFI 51780 .cfa: sp 20 + .ra: .cfa -4 + ^ r4: .cfa -20 + ^ r5: .cfa -16 + ^ r6: .cfa -12 + ^ r7: .cfa -8 + ^
STACK CFI 51784 .cfa: sp 32 +
STACK CFI INIT 51800 18 .cfa: sp 0 + .ra: lr
STACK CFI 51802 .cfa: sp 8 + .ra: .cfa -4 + ^ r4: .cfa -8 + ^
STACK CFI INIT 51818 1f0 .cfa: sp 0 + .ra: lr
STACK CFI 5181c .cfa: sp 16 + .ra: .cfa -4 + ^ r4: .cfa -16 + ^ r5: .cfa -12 + ^ r6: .cfa -8 + ^
STACK CFI INIT 51a08 12c .cfa: sp 0 + .ra: lr
STACK CFI 51a0a .cfa: sp 24 + .ra: .cfa -4 + ^ r3: .cfa -24 + ^ r4: .cfa -20 + ^ r5: .cfa -16 + ^ r6: .cfa -12 + ^ r7: .cfa -8 + ^
STACK CFI INIT 51b34 c4 .cfa: sp 0 + .ra: lr
STACK CFI 51b38 .cfa: sp 12 + .ra: .cfa -4 + ^ r4: .cfa -12 + ^ r5: .cfa -8 + ^
STACK CFI INIT bd3b8 34 .cfa: sp 0 + .ra: lr
STACK CFI bd3ba .cfa: sp 8 + .ra: .cfa -4 + ^ r4: .cfa -8 + ^
STACK CFI INIT 51bf8 218 .cfa: sp 0 + .ra: lr
STACK CFI 51bfc .cfa: sp 20 + .ra: .cfa -4 + ^ r4: .cfa -20 + ^ r5: .cfa -16 + ^ r6: .cfa -12 + ^ r7: .cfa -8 + ^
STACK CFI 51c00 .cfa: sp 40 +
STACK CFI INIT 51e10 1f4 .cfa: sp 0 + .ra: lr
STACK CFI 51e16 .cfa: sp 24 + .ra: .cfa -4 + ^ r4: .cfa -24 + ^ r5: .cfa -20 + ^ r6: .cfa -16 + ^ r7: .cfa -12 + ^ r8: .cfa -8 + ^
STACK CFI 51e1c .cfa: sp 40 +
STACK CFI INIT 52004 18 .cfa: sp 0 + .ra: lr
STACK CFI INIT 5201c e2 .cfa: sp 0 + .ra: lr
STACK CFI 52020 .cfa: sp 36 + .ra: .cfa -4 + ^ r10: .cfa -12 + ^ r11: .cfa -8 + ^ r4: .cfa -36 + ^ r5: .cfa -32 + ^ r6: .cfa -28 + ^ r7: .cfa -24 + ^ r8: .cfa -20 + ^ r9: .cfa -16 + ^
STACK CFI 52022 .cfa: sp 48 +
STACK CFI INIT 52100 20 .cfa: sp 0 + .ra: lr
STACK CFI 52102 .cfa: sp 8 + r4: .cfa -8 + ^ r5: .cfa -4 + ^
STACK CFI INIT 52120 20 .cfa: sp 0 + .ra: lr
STACK CFI 52122 .cfa: sp 8 + r4: .cfa -8 + ^ r5: .cfa -4 + ^
STACK CFI INIT 52140 48 .cfa: sp 0 + .ra: lr
STACK CFI 52146 .cfa: sp 8 + .ra: .cfa -4 + ^ r4: .cfa -8 + ^
STACK CFI INIT 52188 1e .cfa: sp 0 + .ra: lr
STACK CFI 5218c .cfa: sp 8 + .ra: .cfa -4 + ^ r4: .cfa -8 + ^
STACK CFI INIT 521a8 16 .cfa: sp 0 + .ra: lr
STACK CFI 521aa .cfa: sp 8 + .ra: .cfa -4 + ^ r3: .cfa -8 + ^
STACK CFI INIT 521c0 70 .cfa: sp 0 + .ra: lr
STACK CFI 521c4 .cfa: sp 8 + .ra: .cfa -4 + ^ r4: .cfa -8 + ^
STACK CFI INIT 52230 74 .cfa: sp 0 + .ra: lr
STACK CFI 52234 .cfa: sp 8 + .ra: .cfa -4 + ^ r4: .cfa -8 + ^
STACK CFI INIT 522a4 4e .cfa: sp 0 + .ra: lr
STACK CFI 522a6 .cfa: sp 20 + .ra: .cfa -4 + ^ r4: .cfa -20 + ^ r5: .cfa -16 + ^ r6: .cfa -12 + ^ r7: .cfa -8 + ^
STACK CFI 522ac .cfa: sp 32 +
STACK CFI INIT 522f4 36 .cfa: sp 0 + .ra: lr
STACK CFI 522f8 .cfa: sp 8 + .ra: .cfa -4 + ^ r4: .cfa -8 + ^
STACK CFI INIT 5232c 6 .cfa: sp 0 + .ra: lr
STACK CFI INIT 52334 1a .cfa: sp 0 + .ra: lr
STACK CFI 5233a .cfa: sp 8 + .ra: .cfa -4 + ^ r4: .cfa -8 + ^
STACK CFI INIT 52350 7c .cfa: sp 0 + .ra: lr
STACK CFI 52354 .cfa: sp 32 + .ra: .cfa -4 + ^ r3: .cfa -32 + ^ r4: .cfa -28 + ^ r5: .cfa -24 + ^ r6: .cfa -20 + ^ r7: .cfa -16 + ^ r8: .cfa -12 + ^ r9: .cfa -8 + ^
STACK CFI INIT 523cc c .cfa: sp 0 + .ra: lr
STACK CFI 523ce .cfa: sp 8 + .ra: .cfa -4 + ^ r3: .cfa -8 + ^
STACK CFI INIT 523d8 6a .cfa: sp 0 + .ra: lr
STACK CFI 523dc .cfa: sp 32 + .ra: .cfa -4 + ^ r3: .cfa -32 + ^ r4: .cfa -28 + ^ r5: .cfa -24 + ^ r6: .cfa -20 + ^ r7: .cfa -16 + ^ r8: .cfa -12 + ^ r9: .cfa -8 + ^
STACK CFI INIT 52444 64 .cfa: sp 0 + .ra: lr
STACK CFI 5244a .cfa: sp 16 + .ra: .cfa -4 + ^ r4: .cfa -16 + ^ r5: .cfa -12 + ^ r6: .cfa -8 + ^
STACK CFI INIT 524a8 18 .cfa: sp 0 + .ra: lr
STACK CFI 524aa .cfa: sp 12 + .ra: .cfa -4 + ^ r4: .cfa -12 + ^ r5: .cfa -8 + ^
STACK CFI 524ac .cfa: sp 24 +
STACK CFI INIT 524c0 36 .cfa: sp 0 + .ra: lr
STACK CFI 524c2 .cfa: sp 8 + .ra: .cfa -4 + ^ r4: .cfa -8 + ^
STACK CFI 524c4 .cfa: sp 16 +
STACK CFI INIT 524f8 38 .cfa: sp 0 + .ra: lr
STACK CFI INIT 52530 44 .cfa: sp 0 + .ra: lr
STACK CFI 52532 .cfa: sp 16 + .ra: .cfa -4 + ^ r4: .cfa -16 + ^ r5: .cfa -12 + ^ r6: .cfa -8 + ^
STACK CFI INIT 52574 16 .cfa: sp 0 + .ra: lr
STACK CFI 52576 .cfa: sp 4 + .ra: .cfa -4 + ^
STACK CFI 52578 .cfa: sp 16 +
STACK CFI INIT 5258c 4 .cfa: sp 0 + .ra: lr
STACK CFI INIT 52590 50 .cfa: sp 0 + .ra: lr
STACK CFI 52594 .cfa: sp 16 + .ra: .cfa -4 + ^ r3: .cfa -16 + ^ r4: .cfa -12 + ^ r5: .cfa -8 + ^
STACK CFI INIT 525e0 a .cfa: sp 0 + .ra: lr
STACK CFI INIT 525ec 36 .cfa: sp 0 + .ra: lr
STACK CFI 525f2 .cfa: sp 8 + .ra: .cfa -4 + ^ r4: .cfa -8 + ^
STACK CFI INIT 52624 30 .cfa: sp 0 + .ra: lr
STACK CFI 5262a .cfa: sp 8 + .ra: .cfa -4 + ^ r4: .cfa -8 + ^
STACK CFI INIT 52654 3a .cfa: sp 0 + .ra: lr
STACK CFI 52656 .cfa: sp 12 + r4: .cfa -12 + ^ r5: .cfa -8 + ^ r6: .cfa -4 + ^
STACK CFI INIT 52690 248 .cfa: sp 0 + .ra: lr
STACK CFI 52694 .cfa: sp 36 + .ra: .cfa -4 + ^ r10: .cfa -12 + ^ r11: .cfa -8 + ^ r4: .cfa -36 + ^ r5: .cfa -32 + ^ r6: .cfa -28 + ^ r7: .cfa -24 + ^ r8: .cfa -20 + ^ r9: .cfa -16 + ^
STACK CFI 52698 .cfa: sp 64 +
STACK CFI INIT 528d8 118 .cfa: sp 0 + .ra: lr
STACK CFI 528dc .cfa: sp 32 + .ra: .cfa -4 + ^ r10: .cfa -8 + ^ r4: .cfa -32 + ^ r5: .cfa -28 + ^ r6: .cfa -24 + ^ r7: .cfa -20 + ^ r8: .cfa -16 + ^ r9: .cfa -12 + ^
STACK CFI INIT 529f0 6 .cfa: sp 0 + .ra: lr
STACK CFI INIT 529f8 208 .cfa: sp 0 + .ra: lr
STACK CFI 529fe .cfa: sp 36 + .ra: .cfa -4 + ^ r10: .cfa -12 + ^ r11: .cfa -8 + ^ r4: .cfa -36 + ^ r5: .cfa -32 + ^ r6: .cfa -28 + ^ r7: .cfa -24 + ^ r8: .cfa -20 + ^ r9: .cfa -16 + ^
STACK CFI 52a02 .cfa: sp 64 +
STACK CFI INIT 52c00 2e .cfa: sp 0 + .ra: lr
STACK CFI 52c02 .cfa: sp 16 + .ra: .cfa -4 + ^ r3: .cfa -16 + ^ r4: .cfa -12 + ^ r5: .cfa -8 + ^
STACK CFI INIT 52c30 26 .cfa: sp 0 + .ra: lr
STACK CFI INIT 52c58 8 .cfa: sp 0 + .ra: lr
STACK CFI INIT 52c60 20 .cfa: sp 0 + .ra: lr
STACK CFI INIT 52c80 44 .cfa: sp 0 + .ra: lr
STACK CFI 52c82 .cfa: sp 16 + .ra: .cfa -4 + ^ r3: .cfa -16 + ^ r4: .cfa -12 + ^ r5: .cfa -8 + ^
STACK CFI INIT 52cc4 12 .cfa: sp 0 + .ra: lr
STACK CFI INIT 52cd8 a6 .cfa: sp 0 + .ra: lr
STACK CFI 52cdc .cfa: sp 32 + .ra: .cfa -4 + ^ r3: .cfa -32 + ^ r4: .cfa -28 + ^ r5: .cfa -24 + ^ r6: .cfa -20 + ^ r7: .cfa -16 + ^ r8: .cfa -12 + ^ r9: .cfa -8 + ^
STACK CFI INIT 52d80 a .cfa: sp 0 + .ra: lr
STACK CFI INIT 52d8c 6 .cfa: sp 0 + .ra: lr
STACK CFI INIT 52d94 6 .cfa: sp 0 + .ra: lr
STACK CFI INIT 52d9c 4 .cfa: sp 0 + .ra: lr
STACK CFI INIT 52da0 6 .cfa: sp 0 + .ra: lr
STACK CFI INIT 52da8 2 .cfa: sp 0 + .ra: lr
STACK CFI INIT 52dac c .cfa: sp 0 + .ra: lr
STACK CFI INIT 52db8 4 .cfa: sp 0 + .ra: lr
STACK CFI INIT 52dbc 4 .cfa: sp 0 + .ra: lr
STACK CFI INIT 52dc0 2 .cfa: sp 0 + .ra: lr
STACK CFI INIT 52dc4 60 .cfa: sp 0 + .ra: lr
STACK CFI 52dc8 .cfa: sp 8 + .ra: .cfa -4 + ^ r4: .cfa -8 + ^
STACK CFI INIT 52e24 64 .cfa: sp 0 + .ra: lr
STACK CFI 52e28 .cfa: sp 12 + .ra: .cfa -4 + ^ r4: .cfa -12 + ^ r5: .cfa -8 + ^
STACK CFI INIT 52e88 14 .cfa: sp 0 + .ra: lr
STACK CFI INIT 52e9c 3e .cfa: sp 0 + .ra: lr
STACK CFI 52ea0 .cfa: sp 4 + r4: .cfa -4 + ^
STACK CFI INIT 52edc f4 .cfa: sp 0 + .ra: lr
STACK CFI 52ee0 .cfa: sp 40 + .ra: .cfa -4 + ^ r10: .cfa -12 + ^ r11: .cfa -8 + ^ r3: .cfa -40 + ^ r4: .cfa -36 + ^ r5: .cfa -32 + ^ r6: .cfa -28 + ^ r7: .cfa -24 + ^ r8: .cfa -20 + ^ r9: .cfa -16 + ^
STACK CFI INIT 52fd0 14c .cfa: sp 0 + .ra: lr
STACK CFI 52fd4 .cfa: sp 36 + .ra: .cfa -4 + ^ r10: .cfa -12 + ^ r11: .cfa -8 + ^ r4: .cfa -36 + ^ r5: .cfa -32 + ^ r6: .cfa -28 + ^ r7: .cfa -24 + ^ r8: .cfa -20 + ^ r9: .cfa -16 + ^
STACK CFI 52fdc .cfa: sp 48 +
STACK CFI INIT 5311c 14 .cfa: sp 0 + .ra: lr
STACK CFI INIT 53130 22 .cfa: sp 0 + .ra: lr
STACK CFI 53132 .cfa: sp 8 + .ra: .cfa -4 + ^ r4: .cfa -8 + ^
STACK CFI INIT 53154 50 .cfa: sp 0 + .ra: lr
STACK CFI 53156 .cfa: sp 24 + .ra: .cfa -4 + ^ r3: .cfa -24 + ^ r4: .cfa -20 + ^ r5: .cfa -16 + ^ r6: .cfa -12 + ^ r7: .cfa -8 + ^
STACK CFI INIT 531a4 8 .cfa: sp 0 + .ra: lr
STACK CFI INIT 531ac 18 .cfa: sp 0 + .ra: lr
STACK CFI 531ae .cfa: sp 8 + .ra: .cfa -4 + ^ r4: .cfa -8 + ^
STACK CFI INIT 531c4 14 .cfa: sp 0 + .ra: lr
STACK CFI INIT 531d8 11c .cfa: sp 0 + .ra: lr
STACK CFI 531dc .cfa: sp 24 + .ra: .cfa -4 + ^ r4: .cfa -24 + ^ r5: .cfa -20 + ^ r6: .cfa -16 + ^ r7: .cfa -12 + ^ r8: .cfa -8 + ^
STACK CFI 531de .cfa: sp 32 +
STACK CFI INIT 532f4 48 .cfa: sp 0 + .ra: lr
STACK CFI 532fe .cfa: sp 4 + r4: .cfa -4 + ^
STACK CFI INIT 5333c 98 .cfa: sp 0 + .ra: lr
STACK CFI 53342 .cfa: sp 24 + r4: .cfa -24 + ^ r5: .cfa -20 + ^ r6: .cfa -16 + ^ r7: .cfa -12 + ^ r8: .cfa -8 + ^ r9: .cfa -4 + ^
STACK CFI INIT 533d4 4 .cfa: sp 0 + .ra: lr
STACK CFI INIT 533d8 4c .cfa: sp 0 + .ra: lr
STACK CFI 533da .cfa: sp 8 + r4: .cfa -8 + ^ r5: .cfa -4 + ^
STACK CFI INIT 53424 1b0 .cfa: sp 0 + .ra: lr
STACK CFI 53428 .cfa: sp 20 + r4: .cfa -20 + ^ r5: .cfa -16 + ^ r6: .cfa -12 + ^ r7: .cfa -8 + ^ r8: .cfa -4 + ^
STACK CFI INIT 535d4 78 .cfa: sp 0 + .ra: lr
STACK CFI 535d6 .cfa: sp 20 + .ra: .cfa -4 + ^ r4: .cfa -20 + ^ r5: .cfa -16 + ^ r6: .cfa -12 + ^ r7: .cfa -8 + ^
STACK CFI 535e0 .cfa: sp 48 +
STACK CFI INIT 5364c 11c .cfa: sp 0 + .ra: lr
STACK CFI 5365a .cfa: sp 20 + .ra: .cfa -4 + ^ r4: .cfa -20 + ^ r5: .cfa -16 + ^ r6: .cfa -12 + ^ r7: .cfa -8 + ^
STACK CFI 5365c .cfa: sp 32 +
STACK CFI INIT 53768 104 .cfa: sp 0 + .ra: lr
STACK CFI 5376a .cfa: sp 24 + .ra: .cfa -4 + ^ r3: .cfa -24 + ^ r4: .cfa -20 + ^ r5: .cfa -16 + ^ r6: .cfa -12 + ^ r7: .cfa -8 + ^
STACK CFI INIT 5386c 338 .cfa: sp 0 + .ra: lr
STACK CFI 53870 .cfa: sp 36 + .ra: .cfa -4 + ^ r10: .cfa -12 + ^ r11: .cfa -8 + ^ r4: .cfa -36 + ^ r5: .cfa -32 + ^ r6: .cfa -28 + ^ r7: .cfa -24 + ^ r8: .cfa -20 + ^ r9: .cfa -16 + ^
STACK CFI 53874 .cfa: sp 2272 +
STACK CFI INIT 53ba4 9c .cfa: sp 0 + .ra: lr
STACK CFI 53ba8 .cfa: sp 32 + .ra: .cfa -4 + ^ r10: .cfa -8 + ^ r4: .cfa -32 + ^ r5: .cfa -28 + ^ r6: .cfa -24 + ^ r7: .cfa -20 + ^ r8: .cfa -16 + ^ r9: .cfa -12 + ^
STACK CFI INIT 53c40 fc .cfa: sp 0 + .ra: lr
STACK CFI 53c4e .cfa: sp 24 + .ra: .cfa -4 + ^ r4: .cfa -24 + ^ r5: .cfa -20 + ^ r6: .cfa -16 + ^ r7: .cfa -12 + ^ r8: .cfa -8 + ^
STACK CFI INIT 53d3c 130 .cfa: sp 0 + .ra: lr
STACK CFI 53d42 .cfa: sp 24 + .ra: .cfa -4 + ^ r4: .cfa -24 + ^ r5: .cfa -20 + ^ r6: .cfa -16 + ^ r7: .cfa -12 + ^ r8: .cfa -8 + ^
STACK CFI INIT bd870 ac .cfa: sp 0 + .ra: lr
STACK CFI bd876 .cfa: sp 16 + .ra: .cfa -4 + ^ r4: .cfa -16 + ^ r5: .cfa -12 + ^ r6: .cfa -8 + ^
STACK CFI INIT 53e6c 88 .cfa: sp 0 + .ra: lr
STACK CFI 53e6e .cfa: sp 20 + .ra: .cfa -4 + ^ r4: .cfa -20 + ^ r5: .cfa -16 + ^ r6: .cfa -12 + ^ r7: .cfa -8 + ^
STACK CFI 53e76 .cfa: sp 48 +
STACK CFI INIT 53ef4 28c .cfa: sp 0 + .ra: lr
STACK CFI 53efa .cfa: sp 36 + .ra: .cfa -4 + ^ r10: .cfa -12 + ^ r11: .cfa -8 + ^ r4: .cfa -36 + ^ r5: .cfa -32 + ^ r6: .cfa -28 + ^ r7: .cfa -24 + ^ r8: .cfa -20 + ^ r9: .cfa -16 + ^
STACK CFI 53efe .cfa: sp 64 +
STACK CFI INIT 54180 cc .cfa: sp 0 + .ra: lr
STACK CFI 54186 .cfa: sp 32 + .ra: .cfa -4 + ^ r10: .cfa -8 + ^ r4: .cfa -32 + ^ r5: .cfa -28 + ^ r6: .cfa -24 + ^ r7: .cfa -20 + ^ r8: .cfa -16 + ^ r9: .cfa -12 + ^
STACK CFI INIT 5424c 114 .cfa: sp 0 + .ra: lr
STACK CFI 54252 .cfa: sp 24 + .ra: .cfa -4 + ^ r4: .cfa -24 + ^ r5: .cfa -20 + ^ r6: .cfa -16 + ^ r7: .cfa -12 + ^ r8: .cfa -8 + ^
STACK CFI INIT 54360 88 .cfa: sp 0 + .ra: lr
STACK CFI 54362 .cfa: sp 16 + .ra: .cfa -4 + ^ r3: .cfa -16 + ^ r4: .cfa -12 + ^ r5: .cfa -8 + ^
STACK CFI INIT 543e8 a18 .cfa: sp 0 + .ra: lr
STACK CFI 543ec .cfa: sp 36 + .ra: .cfa -4 + ^ r10: .cfa -12 + ^ r11: .cfa -8 + ^ r4: .cfa -36 + ^ r5: .cfa -32 + ^ r6: .cfa -28 + ^ r7: .cfa -24 + ^ r8: .cfa -20 + ^ r9: .cfa -16 + ^
STACK CFI 543ee .cfa: sp 88 +
STACK CFI INIT 54e00 f20 .cfa: sp 0 + .ra: lr
STACK CFI 54e04 .cfa: sp 36 + .ra: .cfa -4 + ^ r10: .cfa -12 + ^ r11: .cfa -8 + ^ r4: .cfa -36 + ^ r5: .cfa -32 + ^ r6: .cfa -28 + ^ r7: .cfa -24 + ^ r8: .cfa -20 + ^ r9: .cfa -16 + ^
STACK CFI 54e06 .cfa: sp 120 +
STACK CFI INIT 55d20 c8 .cfa: sp 0 + .ra: lr
STACK CFI 55d24 .cfa: sp 16 + .ra: .cfa -4 + ^ r4: .cfa -16 + ^ r5: .cfa -12 + ^ r6: .cfa -8 + ^
STACK CFI INIT 55de8 18c .cfa: sp 0 + .ra: lr
STACK CFI 55dee .cfa: sp 32 + .ra: .cfa -4 + ^ r10: .cfa -8 + ^ r4: .cfa -32 + ^ r5: .cfa -28 + ^ r6: .cfa -24 + ^ r7: .cfa -20 + ^ r8: .cfa -16 + ^ r9: .cfa -12 + ^
STACK CFI INIT 55f74 e0 .cfa: sp 0 + .ra: lr
STACK CFI 55f78 .cfa: sp 16 + .ra: .cfa -4 + ^ r4: .cfa -16 + ^ r5: .cfa -12 + ^ r6: .cfa -8 + ^
STACK CFI INIT 56054 2ec .cfa: sp 0 + .ra: lr
STACK CFI 56058 .cfa: sp 32 + .ra: .cfa -4 + ^ r3: .cfa -32 + ^ r4: .cfa -28 + ^ r5: .cfa -24 + ^ r6: .cfa -20 + ^ r7: .cfa -16 + ^ r8: .cfa -12 + ^ r9: .cfa -8 + ^
STACK CFI INIT 56340 48 .cfa: sp 0 + .ra: lr
STACK CFI INIT 56388 16c .cfa: sp 0 + .ra: lr
STACK CFI 5638a .cfa: sp 16 + .ra: .cfa -4 + ^ r3: .cfa -16 + ^ r4: .cfa -12 + ^ r5: .cfa -8 + ^
STACK CFI INIT 564f4 248 .cfa: sp 0 + .ra: lr
STACK CFI 564fa .cfa: sp 32 + .ra: .cfa -4 + ^ r10: .cfa -8 + ^ r4: .cfa -32 + ^ r5: .cfa -28 + ^ r6: .cfa -24 + ^ r7: .cfa -20 + ^ r8: .cfa -16 + ^ r9: .cfa -12 + ^
STACK CFI 564fe .cfa: sp 40 +
STACK CFI INIT 5673c 3a4 .cfa: sp 0 + .ra: lr
STACK CFI 56742 .cfa: sp 24 + .ra: .cfa -4 + ^ r4: .cfa -24 + ^ r5: .cfa -20 + ^ r6: .cfa -16 + ^ r7: .cfa -12 + ^ r8: .cfa -8 + ^
STACK CFI INIT 56ae0 e4 .cfa: sp 0 + .ra: lr
STACK CFI 56ae2 .cfa: sp 16 + .ra: .cfa -4 + ^ r3: .cfa -16 + ^ r4: .cfa -12 + ^ r5: .cfa -8 + ^
STACK CFI INIT 56bc4 70 .cfa: sp 0 + .ra: lr
STACK CFI 56bd0 .cfa: sp 8 + r4: .cfa -8 + ^ r5: .cfa -4 + ^
STACK CFI INIT 56c34 158 .cfa: sp 0 + .ra: lr
STACK CFI 56c36 .cfa: sp 24 + .ra: .cfa -4 + ^ r3: .cfa -24 + ^ r4: .cfa -20 + ^ r5: .cfa -16 + ^ r6: .cfa -12 + ^ r7: .cfa -8 + ^
STACK CFI INIT 56d8c f4 .cfa: sp 0 + .ra: lr
STACK CFI 56d8e .cfa: sp 24 + .ra: .cfa -4 + ^ r3: .cfa -24 + ^ r4: .cfa -20 + ^ r5: .cfa -16 + ^ r6: .cfa -12 + ^ r7: .cfa -8 + ^
STACK CFI INIT 56e80 194 .cfa: sp 0 + .ra: lr
STACK CFI 56e84 .cfa: sp 32 + .ra: .cfa -4 + ^ r10: .cfa -12 + ^ r11: .cfa -8 + ^ r4: .cfa -32 + ^ r5: .cfa -28 + ^ r6: .cfa -24 + ^ r7: .cfa -20 + ^ r8: .cfa -16 + ^
STACK CFI INIT 57014 80 .cfa: sp 0 + .ra: lr
STACK CFI 5701c .cfa: sp 8 + .ra: .cfa -4 + ^ r4: .cfa -8 + ^
STACK CFI INIT 57094 200 .cfa: sp 0 + .ra: lr
STACK CFI 5709c .cfa: sp 32 + .ra: .cfa -4 + ^ r10: .cfa -8 + ^ r4: .cfa -32 + ^ r5: .cfa -28 + ^ r6: .cfa -24 + ^ r7: .cfa -20 + ^ r8: .cfa -16 + ^ r9: .cfa -12 + ^
STACK CFI INIT 57294 184 .cfa: sp 0 + .ra: lr
STACK CFI 5729c .cfa: sp 24 + .ra: .cfa -4 + ^ r4: .cfa -24 + ^ r5: .cfa -20 + ^ r6: .cfa -16 + ^ r7: .cfa -12 + ^ r8: .cfa -8 + ^
STACK CFI INIT 57418 298 .cfa: sp 0 + .ra: lr
STACK CFI 57420 .cfa: sp 32 + .ra: .cfa -4 + ^ r3: .cfa -32 + ^ r4: .cfa -28 + ^ r5: .cfa -24 + ^ r6: .cfa -20 + ^ r7: .cfa -16 + ^ r8: .cfa -12 + ^ r9: .cfa -8 + ^
STACK CFI INIT 576b0 a0 .cfa: sp 0 + .ra: lr
STACK CFI 576b2 .cfa: sp 16 + .ra: .cfa -4 + ^ r4: .cfa -16 + ^ r5: .cfa -12 + ^ r6: .cfa -8 + ^
STACK CFI INIT 57750 178 .cfa: sp 0 + .ra: lr
STACK CFI 57752 .cfa: sp 16 + .ra: .cfa -4 + ^ r3: .cfa -16 + ^ r4: .cfa -12 + ^ r5: .cfa -8 + ^
STACK CFI INIT 578c8 3d4 .cfa: sp 0 + .ra: lr
STACK CFI 578d4 .cfa: sp 36 + .ra: .cfa -4 + ^ r10: .cfa -12 + ^ r11: .cfa -8 + ^ r4: .cfa -36 + ^ r5: .cfa -32 + ^ r6: .cfa -28 + ^ r7: .cfa -24 + ^ r8: .cfa -20 + ^ r9: .cfa -16 + ^
STACK CFI 578da .cfa: sp 80 +
STACK CFI INIT 57c9c 14 .cfa: sp 0 + .ra: lr
STACK CFI INIT 57cb0 44 .cfa: sp 0 + .ra: lr
STACK CFI 57cb8 .cfa: sp 8 + .ra: .cfa -4 + ^ r4: .cfa -8 + ^
STACK CFI 57cc2 .cfa: sp 16 +
STACK CFI INIT 57cf4 50 .cfa: sp 0 + .ra: lr
STACK CFI 57cfa .cfa: sp 16 + .ra: .cfa -4 + ^ r4: .cfa -16 + ^ r5: .cfa -12 + ^ r6: .cfa -8 + ^
STACK CFI 57d00 .cfa: sp 24 +
STACK CFI INIT 57d44 48 .cfa: sp 0 + .ra: lr
STACK CFI 57d46 .cfa: sp 12 + .ra: .cfa -4 + ^ r4: .cfa -12 + ^ r5: .cfa -8 + ^
STACK CFI 57d4c .cfa: sp 24 +
STACK CFI INIT 57d8c 440 .cfa: sp 0 + .ra: lr
STACK CFI 57d98 .cfa: sp 36 + .ra: .cfa -4 + ^ r10: .cfa -12 + ^ r11: .cfa -8 + ^ r4: .cfa -36 + ^ r5: .cfa -32 + ^ r6: .cfa -28 + ^ r7: .cfa -24 + ^ r8: .cfa -20 + ^ r9: .cfa -16 + ^
STACK CFI 57d9e .cfa: sp 48 +
STACK CFI INIT 581cc 1a4 .cfa: sp 0 + .ra: lr
STACK CFI 581d2 .cfa: sp 24 + .ra: .cfa -4 + ^ r4: .cfa -24 + ^ r5: .cfa -20 + ^ r6: .cfa -16 + ^ r7: .cfa -12 + ^ r8: .cfa -8 + ^
STACK CFI INIT 58370 1a8 .cfa: sp 0 + .ra: lr
STACK CFI 58374 .cfa: sp 32 + .ra: .cfa -4 + ^ r3: .cfa -32 + ^ r4: .cfa -28 + ^ r5: .cfa -24 + ^ r6: .cfa -20 + ^ r7: .cfa -16 + ^ r8: .cfa -12 + ^ r9: .cfa -8 + ^
STACK CFI INIT 58518 21c .cfa: sp 0 + .ra: lr
STACK CFI 5851e .cfa: sp 36 + .ra: .cfa -4 + ^ r10: .cfa -12 + ^ r11: .cfa -8 + ^ r4: .cfa -36 + ^ r5: .cfa -32 + ^ r6: .cfa -28 + ^ r7: .cfa -24 + ^ r8: .cfa -20 + ^ r9: .cfa -16 + ^
STACK CFI 58522 .cfa: sp 72 +
STACK CFI INIT 58734 d0 .cfa: sp 0 + .ra: lr
STACK CFI 5873a .cfa: sp 32 + .ra: .cfa -4 + ^ r10: .cfa -8 + ^ r4: .cfa -32 + ^ r5: .cfa -28 + ^ r6: .cfa -24 + ^ r7: .cfa -20 + ^ r8: .cfa -16 + ^ r9: .cfa -12 + ^
STACK CFI 5873e .cfa: sp 72 +
STACK CFI INIT 58804 1b8 .cfa: sp 0 + .ra: lr
STACK CFI 5880a .cfa: sp 36 + .ra: .cfa -4 + ^ r10: .cfa -12 + ^ r11: .cfa -8 + ^ r4: .cfa -36 + ^ r5: .cfa -32 + ^ r6: .cfa -28 + ^ r7: .cfa -24 + ^ r8: .cfa -20 + ^ r9: .cfa -16 + ^
STACK CFI 58810 .cfa: sp 136 +
STACK CFI INIT 589bc 48 .cfa: sp 0 + .ra: lr
STACK CFI 589be .cfa: sp 16 + .ra: .cfa -4 + ^ r4: .cfa -16 + ^ r5: .cfa -12 + ^ r6: .cfa -8 + ^
STACK CFI INIT 58a04 8c .cfa: sp 0 + .ra: lr
STACK CFI 58a06 .cfa: sp 20 + .ra: .cfa -4 + ^ r4: .cfa -20 + ^ r5: .cfa -16 + ^ r6: .cfa -12 + ^ r7: .cfa -8 + ^
STACK CFI 58a08 .cfa: sp 88 +
STACK CFI INIT 58a90 10 .cfa: sp 0 + .ra: lr
STACK CFI 58a92 .cfa: sp 8 + .ra: .cfa -4 + ^ r3: .cfa -8 + ^
STACK CFI INIT 58aa0 88 .cfa: sp 0 + .ra: lr
STACK CFI 58aa2 .cfa: sp 8 + .ra: .cfa -4 + ^ r3: .cfa -8 + ^
STACK CFI INIT 58b28 60 .cfa: sp 0 + .ra: lr
STACK CFI 58b2c .cfa: sp 16 + .ra: .cfa -4 + ^ r3: .cfa -16 + ^ r4: .cfa -12 + ^ r5: .cfa -8 + ^
STACK CFI INIT 58b88 44 .cfa: sp 0 + .ra: lr
STACK CFI 58b8a .cfa: sp 4 + r4: .cfa -4 + ^
STACK CFI INIT 58bcc 38 .cfa: sp 0 + .ra: lr
STACK CFI 58bce .cfa: sp 16 + .ra: .cfa -4 + ^ r3: .cfa -16 + ^ r4: .cfa -12 + ^ r5: .cfa -8 + ^
STACK CFI INIT 58c04 f0 .cfa: sp 0 + .ra: lr
STACK CFI 58c08 .cfa: sp 16 + .ra: .cfa -4 + ^ r4: .cfa -16 + ^ r5: .cfa -12 + ^ r6: .cfa -8 + ^
STACK CFI 58c0e .cfa: sp 24 +
STACK CFI INIT 58cf4 e0 .cfa: sp 0 + .ra: lr
STACK CFI 58cf8 .cfa: sp 16 + .ra: .cfa -4 + ^ r4: .cfa -16 + ^ r5: .cfa -12 + ^ r6: .cfa -8 + ^
STACK CFI 58cfe .cfa: sp 24 +
STACK CFI INIT 58dd4 9c .cfa: sp 0 + .ra: lr
STACK CFI 58dd8 .cfa: sp 16 + .ra: .cfa -4 + ^ r4: .cfa -16 + ^ r5: .cfa -12 + ^ r6: .cfa -8 + ^
STACK CFI INIT 58e70 1ac .cfa: sp 0 + .ra: lr
STACK CFI 58e74 .cfa: sp 40 + .ra: .cfa -4 + ^ r10: .cfa -12 + ^ r11: .cfa -8 + ^ r3: .cfa -40 + ^ r4: .cfa -36 + ^ r5: .cfa -32 + ^ r6: .cfa -28 + ^ r7: .cfa -24 + ^ r8: .cfa -20 + ^ r9: .cfa -16 + ^
STACK CFI INIT 5901c c8 .cfa: sp 0 + .ra: lr
STACK CFI 59020 .cfa: sp 28 + .ra: .cfa -4 + ^ r4: .cfa -28 + ^ r5: .cfa -24 + ^ r6: .cfa -20 + ^ r7: .cfa -16 + ^ r8: .cfa -12 + ^ r9: .cfa -8 + ^
STACK CFI 59022 .cfa: sp 40 +
STACK CFI INIT 590e4 18 .cfa: sp 0 + .ra: lr
STACK CFI 590e6 .cfa: sp 8 + .ra: .cfa -4 + ^ r3: .cfa -8 + ^
STACK CFI INIT 590fc 18 .cfa: sp 0 + .ra: lr
STACK CFI INIT bd3ec 14 .cfa: sp 0 + .ra: lr
STACK CFI INIT 59114 54 .cfa: sp 0 + .ra: lr
STACK CFI 59116 .cfa: sp 8 + .ra: .cfa -4 + ^ r4: .cfa -8 + ^
STACK CFI INIT 59168 f4 .cfa: sp 0 + .ra: lr
STACK CFI 5916c .cfa: sp 28 + .ra: .cfa -4 + ^ r4: .cfa -28 + ^ r5: .cfa -24 + ^ r6: .cfa -20 + ^ r7: .cfa -16 + ^ r8: .cfa -12 + ^ r9: .cfa -8 + ^
STACK CFI 5916e .cfa: sp 40 +
STACK CFI 59172 .cfa: r7 32 +
STACK CFI INIT 5925c e0 .cfa: sp 0 + .ra: lr
STACK CFI 59260 .cfa: sp 32 + .ra: .cfa -4 + ^ r10: .cfa -8 + ^ r4: .cfa -32 + ^ r5: .cfa -28 + ^ r6: .cfa -24 + ^ r7: .cfa -20 + ^ r8: .cfa -16 + ^ r9: .cfa -12 + ^
STACK CFI 59262 .cfa: sp 48 +
STACK CFI INIT 5933c c4 .cfa: sp 0 + .ra: lr
STACK CFI 59340 .cfa: sp 24 + .ra: .cfa -4 + ^ r4: .cfa -24 + ^ r5: .cfa -20 + ^ r6: .cfa -16 + ^ r7: .cfa -12 + ^ r8: .cfa -8 + ^
STACK CFI 59344 .cfa: sp 40 +
STACK CFI INIT 59400 188 .cfa: sp 0 + .ra: lr
STACK CFI 59404 .cfa: sp 36 + .ra: .cfa -4 + ^ r10: .cfa -12 + ^ r11: .cfa -8 + ^ r4: .cfa -36 + ^ r5: .cfa -32 + ^ r6: .cfa -28 + ^ r7: .cfa -24 + ^ r8: .cfa -20 + ^ r9: .cfa -16 + ^
STACK CFI 59406 .cfa: sp 56 +
STACK CFI INIT 59588 158 .cfa: sp 0 + .ra: lr
STACK CFI 5958a .cfa: sp 20 + .ra: .cfa -4 + ^ r4: .cfa -20 + ^ r5: .cfa -16 + ^ r6: .cfa -12 + ^ r7: .cfa -8 + ^
STACK CFI 59590 .cfa: sp 40 +
STACK CFI INIT 596e0 2 .cfa: sp 0 + .ra: lr
STACK CFI INIT 596e4 160 .cfa: sp 0 + .ra: lr
STACK CFI 596ea .cfa: sp 24 + .ra: .cfa -4 + ^ r4: .cfa -24 + ^ r5: .cfa -20 + ^ r6: .cfa -16 + ^ r7: .cfa -12 + ^ r8: .cfa -8 + ^
STACK CFI INIT 59844 90 .cfa: sp 0 + .ra: lr
STACK CFI 59848 .cfa: sp 24 + .ra: .cfa -4 + ^ r4: .cfa -24 + ^ r5: .cfa -20 + ^ r6: .cfa -16 + ^ r7: .cfa -12 + ^ r8: .cfa -8 + ^
STACK CFI 5984a .cfa: sp 32 +
STACK CFI INIT 598d4 40 .cfa: sp 0 + .ra: lr
STACK CFI 598dc .cfa: sp 8 + .ra: .cfa -4 + ^ r3: .cfa -8 + ^
STACK CFI INIT 59914 84 .cfa: sp 0 + .ra: lr
STACK CFI 59918 .cfa: sp 24 + .ra: .cfa -4 + ^ r4: .cfa -24 + ^ r5: .cfa -20 + ^ r6: .cfa -16 + ^ r7: .cfa -12 + ^ r8: .cfa -8 + ^
STACK CFI INIT 59998 90 .cfa: sp 0 + .ra: lr
STACK CFI 5999c .cfa: sp 24 + .ra: .cfa -4 + ^ r4: .cfa -24 + ^ r5: .cfa -20 + ^ r6: .cfa -16 + ^ r7: .cfa -12 + ^ r8: .cfa -8 + ^
STACK CFI INIT 59a28 f0 .cfa: sp 0 + .ra: lr
STACK CFI 59a2c .cfa: sp 24 + .ra: .cfa -4 + ^ r4: .cfa -24 + ^ r5: .cfa -20 + ^ r6: .cfa -16 + ^ r7: .cfa -12 + ^ r8: .cfa -8 + ^
STACK CFI 59a32 .cfa: sp 32 +
STACK CFI INIT 59b18 1c .cfa: sp 0 + .ra: lr
STACK CFI INIT 59b34 5e .cfa: sp 0 + .ra: lr
STACK CFI 59b36 .cfa: sp 16 + .ra: .cfa -4 + ^ r4: .cfa -16 + ^ r5: .cfa -12 + ^ r6: .cfa -8 + ^
STACK CFI INIT 59b94 18 .cfa: sp 0 + .ra: lr
STACK CFI INIT bd400 88 .cfa: sp 0 + .ra: lr
STACK CFI bd406 .cfa: sp 16 + .ra: .cfa -4 + ^ r4: .cfa -16 + ^ r5: .cfa -12 + ^ r6: .cfa -8 + ^
STACK CFI INIT bd91c 30 .cfa: sp 0 + .ra: lr
STACK CFI bd91e .cfa: sp 16 + .ra: .cfa -4 + ^ r4: .cfa -16 + ^ r5: .cfa -12 + ^ r6: .cfa -8 + ^
STACK CFI INIT 59bac 26 .cfa: sp 0 + .ra: lr
STACK CFI 59bae .cfa: sp 4 + r4: .cfa -4 + ^
STACK CFI INIT 59be0 a8 .cfa: sp 0 + .ra: lr
STACK CFI 59c12 .cfa: sp 16 + r4: .cfa -16 + ^ r5: .cfa -12 + ^ r6: .cfa -8 + ^ r7: .cfa -4 + ^
STACK CFI 59c80 .cfa: sp 0 + r4: r4 r5: r5 r6: r6 r7: r7
STACK CFI INIT 59c90 16 .cfa: sp 0 + .ra: lr
STACK CFI INIT 59ca8 14 .cfa: sp 0 + .ra: lr
STACK CFI INIT 59cc0 6 .cfa: sp 0 + .ra: lr
STACK CFI INIT 59cd0 20a .cfa: sp 0 + .ra: lr
STACK CFI 59d04 .cfa: sp 16 + r4: .cfa -16 + ^ r5: .cfa -12 + ^ r6: .cfa -8 + ^ r7: .cfa -4 + ^
STACK CFI 59d5c .cfa: sp 0 + r4: r4 r5: r5 r6: r6 r7: r7
STACK CFI 59d68 .cfa: sp 16 + r4: .cfa -16 + ^ r5: .cfa -12 + ^ r6: .cfa -8 + ^ r7: .cfa -4 + ^
STACK CFI INIT 59ee0 28 .cfa: sp 0 + .ra: lr
STACK CFI 59ee2 .cfa: sp 16 + .ra: .cfa -4 + ^ r4: .cfa -16 + ^ r5: .cfa -12 + ^ r6: .cfa -8 + ^
STACK CFI INIT 59f08 c0 .cfa: sp 0 + .ra: lr
STACK CFI 59f0c .cfa: sp 16 + r4: .cfa -16 + ^ r5: .cfa -12 + ^ r6: .cfa -8 + ^ r7: .cfa -4 + ^
STACK CFI INIT 59fc8 20 .cfa: sp 0 + .ra: lr
STACK CFI 59fca .cfa: sp 16 + .ra: .cfa -4 + ^ r3: .cfa -16 + ^ r4: .cfa -12 + ^ r5: .cfa -8 + ^
STACK CFI INIT 59fe8 24 .cfa: sp 0 + .ra: lr
STACK CFI 59fea .cfa: sp 16 + .ra: .cfa -4 + ^ r3: .cfa -16 + ^ r4: .cfa -12 + ^ r5: .cfa -8 + ^
STACK CFI INIT 5a00c 78 .cfa: sp 0 + .ra: lr
STACK CFI 5a010 .cfa: sp 24 + .ra: .cfa -4 + ^ r3: .cfa -24 + ^ r4: .cfa -20 + ^ r5: .cfa -16 + ^ r6: .cfa -12 + ^ r7: .cfa -8 + ^
STACK CFI INIT 5a084 10c .cfa: sp 0 + .ra: lr
STACK CFI 5a088 .cfa: sp 24 + .ra: .cfa -4 + ^ r4: .cfa -24 + ^ r5: .cfa -20 + ^ r6: .cfa -16 + ^ r7: .cfa -12 + ^ r8: .cfa -8 + ^
STACK CFI 5a08c .cfa: sp 48 +
STACK CFI INIT 5a190 72 .cfa: sp 0 + .ra: lr
STACK CFI INIT 5a210 86 .cfa: sp 0 + .ra: lr
STACK CFI 5a212 .cfa: sp 8 + r4: .cfa -8 + ^ r5: .cfa -4 + ^
STACK CFI INIT 5a298 78 .cfa: sp 0 + .ra: lr
STACK CFI 5a29a .cfa: sp 8 + r4: .cfa -8 + ^ r5: .cfa -4 + ^
STACK CFI INIT 5a310 ca .cfa: sp 0 + .ra: lr
STACK CFI 5a314 .cfa: sp 12 + r4: .cfa -12 + ^ r5: .cfa -8 + ^ r6: .cfa -4 + ^
STACK CFI INIT 5a3dc 84 .cfa: sp 0 + .ra: lr
STACK CFI 5a3e4 .cfa: sp 8 + r4: .cfa -8 + ^ r5: .cfa -4 + ^
STACK CFI INIT 5a460 a2 .cfa: sp 0 + .ra: lr
STACK CFI 5a486 .cfa: sp 16 + r4: .cfa -16 + ^ r5: .cfa -12 + ^ r6: .cfa -8 + ^ r7: .cfa -4 + ^
STACK CFI 5a4f0 .cfa: sp 0 + r4: r4 r5: r5 r6: r6 r7: r7
STACK CFI INIT 5a510 28 .cfa: sp 0 + .ra: lr
STACK CFI 5a512 .cfa: sp 4 + r4: .cfa -4 + ^
STACK CFI INIT 5a538 44 .cfa: sp 0 + .ra: lr
STACK CFI 5a53a .cfa: sp 8 + .ra: .cfa -4 + ^ r3: .cfa -8 + ^
STACK CFI INIT 5a57c 30 .cfa: sp 0 + .ra: lr
STACK CFI 5a57e .cfa: sp 8 + .ra: .cfa -4 + ^ r3: .cfa -8 + ^
STACK CFI INIT 5a5ac 16c .cfa: sp 0 + .ra: lr
STACK CFI 5a5b0 .cfa: sp 16 + .ra: .cfa -4 + ^ r4: .cfa -16 + ^ r5: .cfa -12 + ^ r6: .cfa -8 + ^
STACK CFI INIT 5a718 3c .cfa: sp 0 + .ra: lr
STACK CFI 5a71a .cfa: sp 12 + r4: .cfa -12 + ^ r5: .cfa -8 + ^ r6: .cfa -4 + ^
STACK CFI INIT 5a754 ba .cfa: sp 0 + .ra: lr
STACK CFI 5a75c .cfa: sp 24 + r4: .cfa -24 + ^ r5: .cfa -20 + ^ r6: .cfa -16 + ^ r7: .cfa -12 + ^ r8: .cfa -8 + ^ r9: .cfa -4 + ^
STACK CFI INIT 5a810 22c .cfa: sp 0 + .ra: lr
STACK CFI 5a814 .cfa: sp 36 + .ra: .cfa -4 + ^ r10: .cfa -12 + ^ r11: .cfa -8 + ^ r4: .cfa -36 + ^ r5: .cfa -32 + ^ r6: .cfa -28 + ^ r7: .cfa -24 + ^ r8: .cfa -20 + ^ r9: .cfa -16 + ^
STACK CFI 5a818 .cfa: sp 1104 +
STACK CFI INIT 5aa3c 29a .cfa: sp 0 + .ra: lr
STACK CFI 5aa40 .cfa: sp 36 + .ra: .cfa -4 + ^ r10: .cfa -12 + ^ r11: .cfa -8 + ^ r4: .cfa -36 + ^ r5: .cfa -32 + ^ r6: .cfa -28 + ^ r7: .cfa -24 + ^ r8: .cfa -20 + ^ r9: .cfa -16 + ^
STACK CFI 5aa46 .cfa: sp 80 +
STACK CFI INIT 5acd8 6c .cfa: sp 0 + .ra: lr
STACK CFI 5acda .cfa: sp 16 + .ra: .cfa -4 + ^ r4: .cfa -16 + ^ r5: .cfa -12 + ^ r6: .cfa -8 + ^
STACK CFI INIT 5ad44 48 .cfa: sp 0 + .ra: lr
STACK CFI 5ad46 .cfa: sp 24 + .ra: .cfa -4 + ^ r3: .cfa -24 + ^ r4: .cfa -20 + ^ r5: .cfa -16 + ^ r6: .cfa -12 + ^ r7: .cfa -8 + ^
STACK CFI INIT 5ad8c 1c .cfa: sp 0 + .ra: lr
STACK CFI 5ad90 .cfa: sp 4 + r4: .cfa -4 + ^
STACK CFI INIT 5adb0 9c .cfa: sp 0 + .ra: lr
STACK CFI 5add0 .cfa: sp 16 + r4: .cfa -16 + ^ r5: .cfa -12 + ^ r6: .cfa -8 + ^ r7: .cfa -4 + ^
STACK CFI 5ae06 .cfa: sp 0 + r4: r4 r5: r5 r6: r6 r7: r7
STACK CFI 5ae26 .cfa: sp 16 + r4: .cfa -16 + ^ r5: .cfa -12 + ^ r6: .cfa -8 + ^ r7: .cfa -4 + ^
STACK CFI 5ae48 .cfa: sp 0 + r4: r4 r5: r5 r6: r6 r7: r7
STACK CFI INIT 5ae50 300 .cfa: sp 0 + .ra: lr
STACK CFI 5ae58 .cfa: sp 32 + r10: .cfa -8 + ^ r11: .cfa -4 + ^ r4: .cfa -32 + ^ r5: .cfa -28 + ^ r6: .cfa -24 + ^ r7: .cfa -20 + ^ r8: .cfa -16 + ^ r9: .cfa -12 + ^
STACK CFI 5ae5c .cfa: sp 112 +
STACK CFI INIT 5b150 340 .cfa: sp 0 + .ra: lr
STACK CFI 5b160 .cfa: sp 12 + .ra: .cfa -4 + ^ r4: .cfa -8 + ^
STACK CFI 5b18c .cfa: sp 28 + r5: .cfa -28 + ^ r6: .cfa -24 + ^ r7: .cfa -20 + ^ r8: .cfa -16 + ^
STACK CFI 5b220 .cfa: sp 12 + r5: r5 r6: r6 r7: r7 r8: r8
STACK CFI 5b240 r5: r5 r6: r6 r7: r7 r8: r8
STACK CFI 5b28c .cfa: sp 32 + r10: .cfa -16 + ^ r5: .cfa -32 + ^ r6: .cfa -28 + ^ r7: .cfa -24 + ^ r8: .cfa -20 + ^
STACK CFI 5b308 .cfa: sp 12 + r10: r10 r5: r5 r6: r6 r7: r7 r8: r8
STACK CFI 5b33c .cfa: sp 32 + r10: .cfa -16 + ^ r5: .cfa -32 + ^ r6: .cfa -28 + ^ r7: .cfa -24 + ^ r8: .cfa -20 + ^
STACK CFI 5b3b8 .cfa: sp 12 + r10: r10 r5: r5 r6: r6 r7: r7 r8: r8
STACK CFI 5b3ec .cfa: sp 32 + r10: .cfa -16 + ^ r5: .cfa -32 + ^ r6: .cfa -28 + ^ r7: .cfa -24 + ^ r8: .cfa -20 + ^
STACK CFI 5b468 .cfa: sp 12 + r10: r10 r5: r5 r6: r6 r7: r7 r8: r8
STACK CFI INIT 5b490 7c .cfa: sp 0 + .ra: lr
STACK CFI INIT 5b510 c .cfa: sp 0 + .ra: lr
STACK CFI 5b512 .cfa: sp 8 + .ra: .cfa -4 + ^ r4: .cfa -8 + ^
STACK CFI INIT 5b51c d6 .cfa: sp 0 + .ra: lr
STACK CFI 5b524 .cfa: sp 24 + .ra: .cfa -4 + ^ r4: .cfa -24 + ^ r5: .cfa -20 + ^ r6: .cfa -16 + ^ r7: .cfa -12 + ^ r8: .cfa -8 + ^
STACK CFI INIT 5b5f4 8a .cfa: sp 0 + .ra: lr
STACK CFI 5b5fa .cfa: sp 8 + r4: .cfa -8 + ^ r5: .cfa -4 + ^
STACK CFI INIT 5b680 10 .cfa: sp 0 + .ra: lr
STACK CFI INIT 5b690 1c .cfa: sp 0 + .ra: lr
STACK CFI INIT 5b6b0 84 .cfa: sp 0 + .ra: lr
STACK CFI 5b6b4 .cfa: sp 8 + r4: .cfa -8 + ^ r5: .cfa -4 + ^
STACK CFI INIT 5b734 44 .cfa: sp 0 + .ra: lr
STACK CFI 5b73c .cfa: sp 12 + r4: .cfa -12 + ^ r5: .cfa -8 + ^ r6: .cfa -4 + ^
STACK CFI INIT 5b778 50 .cfa: sp 0 + .ra: lr
STACK CFI 5b782 .cfa: sp 16 + r4: .cfa -16 + ^ r5: .cfa -12 + ^ r6: .cfa -8 + ^ r7: .cfa -4 + ^
STACK CFI INIT 5b7c8 34 .cfa: sp 0 + .ra: lr
STACK CFI 5b7cc .cfa: sp 12 + r4: .cfa -12 + ^ r5: .cfa -8 + ^ r6: .cfa -4 + ^
STACK CFI INIT 5b7fc 40 .cfa: sp 0 + .ra: lr
STACK CFI 5b804 .cfa: sp 16 + r4: .cfa -16 + ^ r5: .cfa -12 + ^ r6: .cfa -8 + ^ r7: .cfa -4 + ^
STACK CFI INIT 5b83c 20 .cfa: sp 0 + .ra: lr
STACK CFI 5b83e .cfa: sp 4 + r4: .cfa -4 + ^
STACK CFI INIT 5b880 28 .cfa: sp 0 + .ra: lr
STACK CFI INIT 5b8c0 420 .cfa: sp 0 + .ra: lr
STACK CFI 5b974 .cfa: sp 32 + r8: .cfa -32 + ^
STACK CFI 5ba1c .cfa: sp 0 + r8: r8
STACK CFI 5ba20 .cfa: sp 32 + r8: .cfa -32 + ^
STACK CFI 5ba98 .cfa: sp 0 + r8: r8
STACK CFI 5ba9c .cfa: sp 32 + r8: .cfa -32 + ^
STACK CFI 5babc r4: .cfa -24 + ^ r5: .cfa -20 + ^
STACK CFI 5bac4 r6: .cfa -16 + ^ r7: .cfa -12 + ^
STACK CFI 5bacc r10: .cfa -8 + ^ r11: .cfa -4 + ^
STACK CFI 5bb5c r4: r4 r5: r5
STACK CFI 5bb64 r6: r6 r7: r7
STACK CFI 5bb6c r10: r10 r11: r11
STACK CFI 5bb7c .cfa: sp 0 + r8: r8
STACK CFI 5bb80 .cfa: sp 32 + r10: r10 r11: r11 r4: r4 r5: r5 r6: r6 r7: r7 r8: .cfa -32 + ^
STACK CFI 5bbe4 r4: .cfa -24 + ^ r5: .cfa -20 + ^
STACK CFI 5bbf0 r6: .cfa -16 + ^ r7: .cfa -12 + ^
STACK CFI 5bbfc r10: .cfa -8 + ^ r11: .cfa -4 + ^
STACK CFI 5bcbc r4: r4 r5: r5
STACK CFI 5bcc4 r6: r6 r7: r7
STACK CFI 5bccc r10: r10 r11: r11
STACK CFI 5bcd8 .cfa: sp 0 + r8: r8
STACK CFI INIT 5bd00 b6 .cfa: sp 0 + .ra: lr
STACK CFI 5bd08 .cfa: sp 12 + r4: .cfa -12 + ^ r5: .cfa -8 + ^ r6: .cfa -4 + ^
STACK CFI INIT 5bdb8 c0 .cfa: sp 0 + .ra: lr
STACK CFI 5bdbc .cfa: sp 20 + r4: .cfa -20 + ^ r5: .cfa -16 + ^ r6: .cfa -12 + ^ r7: .cfa -8 + ^ r8: .cfa -4 + ^
STACK CFI INIT 5be78 c8 .cfa: sp 0 + .ra: lr
STACK CFI 5be80 .cfa: sp 12 + r4: .cfa -12 + ^ r5: .cfa -8 + ^ r6: .cfa -4 + ^
STACK CFI INIT 5bf40 c4 .cfa: sp 0 + .ra: lr
STACK CFI 5bf44 .cfa: sp 24 + r4: .cfa -24 + ^ r5: .cfa -20 + ^ r6: .cfa -16 + ^ r7: .cfa -12 + ^ r8: .cfa -8 + ^ r9: .cfa -4 + ^
STACK CFI INIT 5c004 44 .cfa: sp 0 + .ra: lr
STACK CFI 5c006 .cfa: sp 16 + .ra: .cfa -4 + ^ r3: .cfa -16 + ^ r4: .cfa -12 + ^ r5: .cfa -8 + ^
STACK CFI INIT 5c048 f0 .cfa: sp 0 + .ra: lr
STACK CFI 5c052 .cfa: sp 28 + r10: .cfa -4 + ^ r4: .cfa -28 + ^ r5: .cfa -24 + ^ r6: .cfa -20 + ^ r7: .cfa -16 + ^ r8: .cfa -12 + ^ r9: .cfa -8 + ^
STACK CFI INIT 5c138 300 .cfa: sp 0 + .ra: lr
STACK CFI 5c13c .cfa: sp 36 + .ra: .cfa -4 + ^ r10: .cfa -12 + ^ r11: .cfa -8 + ^ r4: .cfa -36 + ^ r5: .cfa -32 + ^ r6: .cfa -28 + ^ r7: .cfa -24 + ^ r8: .cfa -20 + ^ r9: .cfa -16 + ^
STACK CFI 5c140 .cfa: sp 1104 +
STACK CFI INIT 5c438 312 .cfa: sp 0 + .ra: lr
STACK CFI 5c43c .cfa: sp 36 + .ra: .cfa -4 + ^ r10: .cfa -12 + ^ r11: .cfa -8 + ^ r4: .cfa -36 + ^ r5: .cfa -32 + ^ r6: .cfa -28 + ^ r7: .cfa -24 + ^ r8: .cfa -20 + ^ r9: .cfa -16 + ^
STACK CFI 5c442 .cfa: sp 80 +
STACK CFI INIT 5c74c 2a .cfa: sp 0 + .ra: lr
STACK CFI 5c754 .cfa: sp 4 + r4: .cfa -4 + ^
STACK CFI INIT 5c778 84 .cfa: sp 0 + .ra: lr
STACK CFI 5c77c .cfa: sp 32 + .ra: .cfa -4 + ^ r10: .cfa -8 + ^ r4: .cfa -32 + ^ r5: .cfa -28 + ^ r6: .cfa -24 + ^ r7: .cfa -20 + ^ r8: .cfa -16 + ^ r9: .cfa -12 + ^
STACK CFI 5c782 .cfa: sp 40 +
STACK CFI INIT 5c7fc 18 .cfa: sp 0 + .ra: lr
STACK CFI INIT 5c814 ba .cfa: sp 0 + .ra: lr
STACK CFI 5c81c .cfa: sp 24 + r4: .cfa -24 + ^ r5: .cfa -20 + ^ r6: .cfa -16 + ^ r7: .cfa -12 + ^ r8: .cfa -8 + ^ r9: .cfa -4 + ^
STACK CFI INIT 5c8d0 208 .cfa: sp 0 + .ra: lr
STACK CFI 5c8d4 .cfa: sp 36 + .ra: .cfa -4 + ^ r10: .cfa -12 + ^ r11: .cfa -8 + ^ r4: .cfa -36 + ^ r5: .cfa -32 + ^ r6: .cfa -28 + ^ r7: .cfa -24 + ^ r8: .cfa -20 + ^ r9: .cfa -16 + ^
STACK CFI 5c8d8 .cfa: sp 1104 +
STACK CFI INIT 5cad8 1e8 .cfa: sp 0 + .ra: lr
STACK CFI 5cadc .cfa: sp 36 + .ra: .cfa -4 + ^ r10: .cfa -12 + ^ r11: .cfa -8 + ^ r4: .cfa -36 + ^ r5: .cfa -32 + ^ r6: .cfa -28 + ^ r7: .cfa -24 + ^ r8: .cfa -20 + ^ r9: .cfa -16 + ^
STACK CFI 5cae0 .cfa: sp 72 +
STACK CFI INIT 5ccc0 76 .cfa: sp 0 + .ra: lr
STACK CFI INIT 5cd40 a2 .cfa: sp 0 + .ra: lr
STACK CFI 5cd44 .cfa: sp 20 + r4: .cfa -20 + ^ r5: .cfa -16 + ^ r6: .cfa -12 + ^ r7: .cfa -8 + ^ r8: .cfa -4 + ^
STACK CFI INIT 5cde4 38 .cfa: sp 0 + .ra: lr
STACK CFI 5cde8 .cfa: sp 32 + .ra: .cfa -4 + ^ r3: .cfa -32 + ^ r4: .cfa -28 + ^ r5: .cfa -24 + ^ r6: .cfa -20 + ^ r7: .cfa -16 + ^ r8: .cfa -12 + ^ r9: .cfa -8 + ^
STACK CFI INIT 5ce1c 1e .cfa: sp 0 + .ra: lr
STACK CFI 5ce1e .cfa: sp 16 + .ra: .cfa -4 + ^ r4: .cfa -16 + ^ r5: .cfa -12 + ^ r6: .cfa -8 + ^
STACK CFI INIT 5ce3c 24 .cfa: sp 0 + .ra: lr
STACK CFI 5ce3e .cfa: sp 16 + .ra: .cfa -4 + ^ r4: .cfa -16 + ^ r5: .cfa -12 + ^ r6: .cfa -8 + ^
STACK CFI INIT 5ce60 66 .cfa: sp 0 + .ra: lr
STACK CFI 5ce66 .cfa: sp 24 + .ra: .cfa -4 + ^ r4: .cfa -24 + ^ r5: .cfa -20 + ^ r7: .cfa -16 + ^ r8: .cfa -12 + ^ r9: .cfa -8 + ^
STACK CFI INIT 5cec8 94 .cfa: sp 0 + .ra: lr
STACK CFI 5cecc .cfa: sp 32 + .ra: .cfa -4 + ^ r10: .cfa -8 + ^ r3: .cfa -32 + ^ r5: .cfa -28 + ^ r6: .cfa -24 + ^ r7: .cfa -20 + ^ r8: .cfa -16 + ^ r9: .cfa -12 + ^
STACK CFI INIT 5cf5c 28 .cfa: sp 0 + .ra: lr
STACK CFI 5cf5e .cfa: sp 8 + .ra: .cfa -4 + ^ r4: .cfa -8 + ^
STACK CFI INIT 5cf84 36 .cfa: sp 0 + .ra: lr
STACK CFI 5cf86 .cfa: sp 16 + .ra: .cfa -4 + ^ r4: .cfa -16 + ^ r5: .cfa -12 + ^ r6: .cfa -8 + ^
STACK CFI INIT 5cfbc 24 .cfa: sp 0 + .ra: lr
STACK CFI 5cfbe .cfa: sp 16 + .ra: .cfa -4 + ^ r4: .cfa -16 + ^ r5: .cfa -12 + ^ r6: .cfa -8 + ^
STACK CFI INIT 5cfe0 98 .cfa: sp 0 + .ra: lr
STACK CFI 5cfe4 .cfa: sp 36 + .ra: .cfa -4 + ^ r10: .cfa -12 + ^ r11: .cfa -8 + ^ r4: .cfa -36 + ^ r5: .cfa -32 + ^ r6: .cfa -28 + ^ r7: .cfa -24 + ^ r8: .cfa -20 + ^ r9: .cfa -16 + ^
STACK CFI 5cfe8 .cfa: sp 48 +
STACK CFI INIT 5d078 28 .cfa: sp 0 + .ra: lr
STACK CFI 5d07a .cfa: sp 16 + .ra: .cfa -4 + ^ r4: .cfa -16 + ^ r5: .cfa -12 + ^ r6: .cfa -8 + ^
STACK CFI INIT 5d0a0 8a .cfa: sp 0 + .ra: lr
STACK CFI 5d0a4 .cfa: sp 32 + .ra: .cfa -4 + ^ r3: .cfa -32 + ^ r4: .cfa -28 + ^ r5: .cfa -24 + ^ r6: .cfa -20 + ^ r7: .cfa -16 + ^ r8: .cfa -12 + ^ r9: .cfa -8 + ^
STACK CFI INIT 5d12c 40 .cfa: sp 0 + .ra: lr
STACK CFI 5d130 .cfa: sp 32 + .ra: .cfa -4 + ^ r3: .cfa -32 + ^ r4: .cfa -28 + ^ r5: .cfa -24 + ^ r6: .cfa -20 + ^ r7: .cfa -16 + ^ r8: .cfa -12 + ^ r9: .cfa -8 + ^
STACK CFI INIT 5d16c 1b6 .cfa: sp 0 + .ra: lr
STACK CFI 5d170 .cfa: sp 36 + .ra: .cfa -4 + ^ r10: .cfa -12 + ^ r11: .cfa -8 + ^ r4: .cfa -36 + ^ r5: .cfa -32 + ^ r6: .cfa -28 + ^ r7: .cfa -24 + ^ r8: .cfa -20 + ^ r9: .cfa -16 + ^
STACK CFI 5d172 .cfa: sp 96 +
STACK CFI INIT 5d324 14 .cfa: sp 0 + .ra: lr
STACK CFI 5d326 .cfa: sp 8 + .ra: .cfa -4 + ^ r4: .cfa -8 + ^
STACK CFI INIT 5d338 ac8 .cfa: sp 0 + .ra: lr
STACK CFI 5d33c .cfa: sp 36 + .ra: .cfa -4 + ^ r10: .cfa -12 + ^ r11: .cfa -8 + ^ r4: .cfa -36 + ^ r5: .cfa -32 + ^ r6: .cfa -28 + ^ r7: .cfa -24 + ^ r8: .cfa -20 + ^ r9: .cfa -16 + ^
STACK CFI 5d33e .cfa: sp 168 +
STACK CFI 5d340 .cfa: r7 168 +
STACK CFI INIT 5de00 66 .cfa: sp 0 + .ra: lr
STACK CFI 5de0a .cfa: sp 4 + r4: .cfa -4 + ^
STACK CFI INIT 5de68 768 .cfa: sp 0 + .ra: lr
STACK CFI 5de6c .cfa: sp 36 + .ra: .cfa -4 + ^ r10: .cfa -12 + ^ r11: .cfa -8 + ^ r4: .cfa -36 + ^ r5: .cfa -32 + ^ r6: .cfa -28 + ^ r7: .cfa -24 + ^ r8: .cfa -20 + ^ r9: .cfa -16 + ^
STACK CFI 5de6e .cfa: sp 112 +
STACK CFI 5de70 .cfa: r7 112 +
STACK CFI INIT 5e5d0 a8 .cfa: sp 0 + .ra: lr
STACK CFI 5e5d2 .cfa: sp 8 + r4: .cfa -8 + ^ r5: .cfa -4 + ^
STACK CFI 5e5d4 .cfa: sp 16 +
STACK CFI INIT 5e678 aa .cfa: sp 0 + .ra: lr
STACK CFI 5e67a .cfa: sp 8 + r4: .cfa -8 + ^ r5: .cfa -4 + ^
STACK CFI 5e67c .cfa: sp 24 +
STACK CFI INIT 5e724 aa .cfa: sp 0 + .ra: lr
STACK CFI 5e726 .cfa: sp 8 + r4: .cfa -8 + ^ r5: .cfa -4 + ^
STACK CFI 5e728 .cfa: sp 24 +
STACK CFI INIT 5e7d0 28 .cfa: sp 0 + .ra: lr
STACK CFI INIT 5e7f8 34 .cfa: sp 0 + .ra: lr
STACK CFI 5e7fa .cfa: sp 4 + r4: .cfa -4 + ^
STACK CFI INIT 5e82c 3a .cfa: sp 0 + .ra: lr
STACK CFI 5e82e .cfa: sp 8 + r4: .cfa -8 + ^ r5: .cfa -4 + ^
STACK CFI INIT 5e868 20 .cfa: sp 0 + .ra: lr
STACK CFI 5e86a .cfa: sp 4 + r4: .cfa -4 + ^
STACK CFI INIT 5e888 1a .cfa: sp 0 + .ra: lr
STACK CFI 5e88a .cfa: sp 4 + r4: .cfa -4 + ^
STACK CFI INIT 5e8a4 1c .cfa: sp 0 + .ra: lr
STACK CFI 5e8a6 .cfa: sp 8 + r4: .cfa -8 + ^ r5: .cfa -4 + ^
STACK CFI INIT 5e8c0 2c .cfa: sp 0 + .ra: lr
STACK CFI 5e8c2 .cfa: sp 4 + r4: .cfa -4 + ^
STACK CFI INIT 5e8ec 32 .cfa: sp 0 + .ra: lr
STACK CFI 5e8ee .cfa: sp 8 + r4: .cfa -8 + ^ r5: .cfa -4 + ^
STACK CFI INIT 5e920 4e .cfa: sp 0 + .ra: lr
STACK CFI 5e922 .cfa: sp 8 + r4: .cfa -8 + ^ r5: .cfa -4 + ^
STACK CFI INIT 5e970 20 .cfa: sp 0 + .ra: lr
STACK CFI 5e972 .cfa: sp 16 + .ra: .cfa -4 + ^ r3: .cfa -16 + ^ r4: .cfa -12 + ^ r5: .cfa -8 + ^
STACK CFI INIT 5e990 3c .cfa: sp 0 + .ra: lr
STACK CFI 5e992 .cfa: sp 12 + r4: .cfa -12 + ^ r5: .cfa -8 + ^ r6: .cfa -4 + ^
STACK CFI INIT 5e9cc 44 .cfa: sp 0 + .ra: lr
STACK CFI 5e9ce .cfa: sp 16 + r4: .cfa -16 + ^ r5: .cfa -12 + ^ r6: .cfa -8 + ^ r7: .cfa -4 + ^
STACK CFI INIT 5ea10 aa .cfa: sp 0 + .ra: lr
STACK CFI 5ea12 .cfa: sp 16 + r4: .cfa -16 + ^ r5: .cfa -12 + ^ r6: .cfa -8 + ^ r7: .cfa -4 + ^
STACK CFI INIT 5eabc c0 .cfa: sp 0 + .ra: lr
STACK CFI 5eabe .cfa: sp 24 + .ra: .cfa -4 + ^ r3: .cfa -24 + ^ r4: .cfa -20 + ^ r5: .cfa -16 + ^ r6: .cfa -12 + ^ r7: .cfa -8 + ^
STACK CFI INIT bd94c 20 .cfa: sp 0 + .ra: lr
STACK CFI bd950 .cfa: sp 8 + .ra: .cfa -4 + ^ r3: .cfa -8 + ^
STACK CFI INIT 5eb7c b0 .cfa: sp 0 + .ra: lr
STACK CFI 5eb80 .cfa: sp 32 + .ra: .cfa -4 + ^ r3: .cfa -32 + ^ r4: .cfa -28 + ^ r5: .cfa -24 + ^ r6: .cfa -20 + ^ r7: .cfa -16 + ^ r8: .cfa -12 + ^ r9: .cfa -8 + ^
STACK CFI INIT 5ec2c 70 .cfa: sp 0 + .ra: lr
STACK CFI 5ec2e .cfa: sp 16 + r4: .cfa -16 + ^ r5: .cfa -12 + ^ r6: .cfa -8 + ^ r7: .cfa -4 + ^
STACK CFI INIT 5ec9c 2c .cfa: sp 0 + .ra: lr
STACK CFI 5ec9e .cfa: sp 8 + .ra: .cfa -4 + ^ r3: .cfa -8 + ^
STACK CFI INIT 5ecc8 20 .cfa: sp 0 + .ra: lr
STACK CFI 5ecca .cfa: sp 16 + .ra: .cfa -4 + ^ r3: .cfa -16 + ^ r4: .cfa -12 + ^ r5: .cfa -8 + ^
STACK CFI INIT 5ece8 94 .cfa: sp 0 + .ra: lr
STACK CFI 5ecec .cfa: sp 36 + .ra: .cfa -4 + ^ r10: .cfa -12 + ^ r11: .cfa -8 + ^ r4: .cfa -36 + ^ r5: .cfa -32 + ^ r6: .cfa -28 + ^ r7: .cfa -24 + ^ r8: .cfa -20 + ^ r9: .cfa -16 + ^
STACK CFI 5ecf0 .cfa: sp 48 +
STACK CFI INIT 5ed7c 70 .cfa: sp 0 + .ra: lr
STACK CFI 5ed80 .cfa: sp 32 + .ra: .cfa -4 + ^ r10: .cfa -8 + ^ r4: .cfa -32 + ^ r5: .cfa -28 + ^ r6: .cfa -24 + ^ r7: .cfa -20 + ^ r8: .cfa -16 + ^ r9: .cfa -12 + ^
STACK CFI INIT 5edec 48 .cfa: sp 0 + .ra: lr
STACK CFI 5edf0 .cfa: sp 24 + .ra: .cfa -4 + ^ r4: .cfa -24 + ^ r5: .cfa -20 + ^ r6: .cfa -16 + ^ r7: .cfa -12 + ^ r8: .cfa -8 + ^
STACK CFI INIT 5ee40 4e0 .cfa: sp 0 + .ra: lr
STACK CFI 5eeb8 .cfa: sp 4 + r8: .cfa -4 + ^
STACK CFI 5efd0 .cfa: sp 0 + r8: r8
STACK CFI 5efd4 .cfa: sp 4 + r8: .cfa -4 + ^
STACK CFI 5f318 .cfa: sp 0 + r8: r8
STACK CFI INIT 5f340 5e0 .cfa: sp 0 + .ra: lr
STACK CFI 5f3f4 .cfa: sp 32 + r8: .cfa -32 + ^
STACK CFI 5f50c .cfa: sp 0 + r8: r8
STACK CFI 5f510 .cfa: sp 32 + r8: .cfa -32 + ^
STACK CFI 5f830 r4: .cfa -24 + ^ r5: .cfa -20 + ^
STACK CFI 5f83c r6: .cfa -16 + ^ r7: .cfa -12 + ^
STACK CFI 5f848 r10: .cfa -8 + ^ r11: .cfa -4 + ^
STACK CFI 5f8fc r4: r4 r5: r5
STACK CFI 5f904 r6: r6 r7: r7
STACK CFI 5f90c r10: r10 r11: r11
STACK CFI 5f918 .cfa: sp 0 + r8: r8
STACK CFI INIT 5f940 6 .cfa: sp 0 + .ra: lr
STACK CFI INIT 5f948 42 .cfa: sp 0 + .ra: lr
STACK CFI 5f94e .cfa: sp 4 + r4: .cfa -4 + ^
STACK CFI INIT 5f98c 26 .cfa: sp 0 + .ra: lr
STACK CFI 5f98e .cfa: sp 4 + r4: .cfa -4 + ^
STACK CFI INIT 5f9b4 16 .cfa: sp 0 + .ra: lr
STACK CFI INIT 5f9cc 1c .cfa: sp 0 + .ra: lr
STACK CFI INIT 5f9e8 18 .cfa: sp 0 + .ra: lr
STACK CFI INIT 5fa00 28 .cfa: sp 0 + .ra: lr
STACK CFI 5fa02 .cfa: sp 16 + .ra: .cfa -4 + ^ r4: .cfa -16 + ^ r5: .cfa -12 + ^ r6: .cfa -8 + ^
STACK CFI INIT 5fa28 22 .cfa: sp 0 + .ra: lr
STACK CFI 5fa2a .cfa: sp 16 + .ra: .cfa -4 + ^ r3: .cfa -16 + ^ r4: .cfa -12 + ^ r5: .cfa -8 + ^
STACK CFI INIT 5fa4c 4a .cfa: sp 0 + .ra: lr
STACK CFI 5fa4e .cfa: sp 8 + r4: .cfa -8 + ^ r5: .cfa -4 + ^
STACK CFI INIT 5fa98 74 .cfa: sp 0 + .ra: lr
STACK CFI 5fa9a .cfa: sp 8 + r4: .cfa -8 + ^ r5: .cfa -4 + ^
STACK CFI INIT 5fb0c c4 .cfa: sp 0 + .ra: lr
STACK CFI 5fb10 .cfa: sp 12 + r4: .cfa -12 + ^ r5: .cfa -8 + ^ r6: .cfa -4 + ^
STACK CFI INIT 5fbd0 88 .cfa: sp 0 + .ra: lr
STACK CFI 5fbd8 .cfa: sp 8 + r4: .cfa -8 + ^ r5: .cfa -4 + ^
STACK CFI INIT 5fc58 26 .cfa: sp 0 + .ra: lr
STACK CFI 5fc5a .cfa: sp 16 + .ra: .cfa -4 + ^ r3: .cfa -16 + ^ r4: .cfa -12 + ^ r5: .cfa -8 + ^
STACK CFI INIT 5fc80 1c .cfa: sp 0 + .ra: lr
STACK CFI 5fc86 .cfa: sp 4 + r4: .cfa -4 + ^
STACK CFI INIT 5fc9c 3c .cfa: sp 0 + .ra: lr
STACK CFI 5fc9e .cfa: sp 12 + r4: .cfa -12 + ^ r5: .cfa -8 + ^ r6: .cfa -4 + ^
STACK CFI INIT 5fcd8 5c .cfa: sp 0 + .ra: lr
STACK CFI 5fcda .cfa: sp 16 + .ra: .cfa -4 + ^ r4: .cfa -16 + ^ r5: .cfa -12 + ^ r6: .cfa -8 + ^
STACK CFI INIT 5fd34 b4 .cfa: sp 0 + .ra: lr
STACK CFI 5fd38 .cfa: sp 20 + r4: .cfa -20 + ^ r5: .cfa -16 + ^ r6: .cfa -12 + ^ r7: .cfa -8 + ^ r8: .cfa -4 + ^
STACK CFI INIT 5fde8 7c .cfa: sp 0 + .ra: lr
STACK CFI 5fdec .cfa: sp 4 + r4: .cfa -4 + ^
STACK CFI INIT 5fe64 7e .cfa: sp 0 + .ra: lr
STACK CFI 5fe68 .cfa: sp 4 + r4: .cfa -4 + ^
STACK CFI INIT 5fee4 6 .cfa: sp 0 + .ra: lr
STACK CFI INIT 5feec 1a .cfa: sp 0 + .ra: lr
STACK CFI INIT 5ff08 90 .cfa: sp 0 + .ra: lr
STACK CFI 5ff0c .cfa: sp 8 + r4: .cfa -8 + ^ r5: .cfa -4 + ^
STACK CFI INIT 5ff98 6 .cfa: sp 0 + .ra: lr
STACK CFI INIT 5ffa0 dc .cfa: sp 0 + .ra: lr
STACK CFI 5ffac .cfa: sp 24 + .ra: .cfa -4 + ^ r4: .cfa -24 + ^ r5: .cfa -20 + ^ r6: .cfa -16 + ^ r7: .cfa -12 + ^ r8: .cfa -8 + ^
STACK CFI 5ffb0 .cfa: sp 96 +
STACK CFI INIT 6007c bc .cfa: sp 0 + .ra: lr
STACK CFI 60080 .cfa: sp 20 + .ra: .cfa -4 + ^ r4: .cfa -20 + ^ r5: .cfa -16 + ^ r6: .cfa -12 + ^ r7: .cfa -8 + ^
STACK CFI 60084 .cfa: sp 104 +
STACK CFI INIT 60138 12 .cfa: sp 0 + .ra: lr
STACK CFI INIT 6014c 20 .cfa: sp 0 + .ra: lr
STACK CFI INIT 6016c 15c .cfa: sp 0 + .ra: lr
STACK CFI 60170 .cfa: sp 28 + .ra: .cfa -4 + ^ r4: .cfa -28 + ^ r5: .cfa -24 + ^ r6: .cfa -20 + ^ r7: .cfa -16 + ^ r8: .cfa -12 + ^ r9: .cfa -8 + ^
STACK CFI 60174 .cfa: sp 104 +
STACK CFI INIT 602c8 134 .cfa: sp 0 + .ra: lr
STACK CFI 602cc .cfa: sp 24 + .ra: .cfa -4 + ^ r4: .cfa -24 + ^ r5: .cfa -20 + ^ r6: .cfa -16 + ^ r7: .cfa -12 + ^ r8: .cfa -8 + ^
STACK CFI 602ce .cfa: sp 112 +
STACK CFI INIT 603fc 2c .cfa: sp 0 + .ra: lr
STACK CFI 603fe .cfa: sp 12 + .ra: .cfa -4 + ^ r4: .cfa -12 + ^ r5: .cfa -8 + ^
STACK CFI 60400 .cfa: sp 24 +
STACK CFI INIT 60428 1f8 .cfa: sp 0 + .ra: lr
STACK CFI 6042c .cfa: sp 36 + .ra: .cfa -4 + ^ r10: .cfa -12 + ^ r11: .cfa -8 + ^ r4: .cfa -36 + ^ r5: .cfa -32 + ^ r6: .cfa -28 + ^ r7: .cfa -24 + ^ r8: .cfa -20 + ^ r9: .cfa -16 + ^
STACK CFI 6042e .cfa: sp 376 +
STACK CFI INIT 60620 200 .cfa: sp 0 + .ra: lr
STACK CFI 60624 .cfa: sp 36 + .ra: .cfa -4 + ^ r10: .cfa -12 + ^ r11: .cfa -8 + ^ r4: .cfa -36 + ^ r5: .cfa -32 + ^ r6: .cfa -28 + ^ r7: .cfa -24 + ^ r8: .cfa -20 + ^ r9: .cfa -16 + ^
STACK CFI 60626 .cfa: sp 384 +
STACK CFI INIT 60820 1e0 .cfa: sp 0 + .ra: lr
STACK CFI 60824 .cfa: sp 36 + .ra: .cfa -4 + ^ r10: .cfa -12 + ^ r11: .cfa -8 + ^ r4: .cfa -36 + ^ r5: .cfa -32 + ^ r6: .cfa -28 + ^ r7: .cfa -24 + ^ r8: .cfa -20 + ^ r9: .cfa -16 + ^
STACK CFI 60826 .cfa: sp 384 +
STACK CFI INIT 60a00 74 .cfa: sp 0 + .ra: lr
STACK CFI 60a02 .cfa: sp 16 + r4: .cfa -16 + ^ r5: .cfa -12 + ^ r6: .cfa -8 + ^ r7: .cfa -4 + ^
STACK CFI INIT 60a74 1c .cfa: sp 0 + .ra: lr
STACK CFI INIT 60a90 20 .cfa: sp 0 + .ra: lr
STACK CFI 60a92 .cfa: sp 12 + .ra: .cfa -4 + ^ r4: .cfa -12 + ^ r5: .cfa -8 + ^
STACK CFI 60a9a .cfa: sp 24 +
STACK CFI INIT 60ab0 20 .cfa: sp 0 + .ra: lr
STACK CFI 60ab2 .cfa: sp 12 + .ra: .cfa -4 + ^ r4: .cfa -12 + ^ r5: .cfa -8 + ^
STACK CFI 60aba .cfa: sp 24 +
STACK CFI INIT 60ad0 20 .cfa: sp 0 + .ra: lr
STACK CFI 60ad2 .cfa: sp 12 + .ra: .cfa -4 + ^ r4: .cfa -12 + ^ r5: .cfa -8 + ^
STACK CFI 60ada .cfa: sp 24 +
STACK CFI INIT 60af0 20 .cfa: sp 0 + .ra: lr
STACK CFI 60af2 .cfa: sp 12 + .ra: .cfa -4 + ^ r4: .cfa -12 + ^ r5: .cfa -8 + ^
STACK CFI 60afa .cfa: sp 24 +
STACK CFI INIT 60b10 20 .cfa: sp 0 + .ra: lr
STACK CFI 60b12 .cfa: sp 12 + .ra: .cfa -4 + ^ r4: .cfa -12 + ^ r5: .cfa -8 + ^
STACK CFI 60b1a .cfa: sp 24 +
STACK CFI INIT 60b30 20 .cfa: sp 0 + .ra: lr
STACK CFI 60b32 .cfa: sp 12 + .ra: .cfa -4 + ^ r4: .cfa -12 + ^ r5: .cfa -8 + ^
STACK CFI 60b3a .cfa: sp 24 +
STACK CFI INIT 60b50 20 .cfa: sp 0 + .ra: lr
STACK CFI 60b52 .cfa: sp 12 + .ra: .cfa -4 + ^ r4: .cfa -12 + ^ r5: .cfa -8 + ^
STACK CFI 60b5a .cfa: sp 24 +
STACK CFI INIT 60b70 20 .cfa: sp 0 + .ra: lr
STACK CFI 60b72 .cfa: sp 12 + .ra: .cfa -4 + ^ r4: .cfa -12 + ^ r5: .cfa -8 + ^
STACK CFI 60b7a .cfa: sp 24 +
STACK CFI INIT 60b90 1c .cfa: sp 0 + .ra: lr
STACK CFI 60b94 .cfa: sp 4 + r4: .cfa -4 + ^
STACK CFI INIT 60bac 1c .cfa: sp 0 + .ra: lr
STACK CFI 60bb2 .cfa: sp 4 + r4: .cfa -4 + ^
STACK CFI INIT 60bc8 1c .cfa: sp 0 + .ra: lr
STACK CFI 60bcc .cfa: sp 4 + r4: .cfa -4 + ^
STACK CFI INIT 60be4 1c .cfa: sp 0 + .ra: lr
STACK CFI 60bea .cfa: sp 4 + r4: .cfa -4 + ^
STACK CFI INIT 60c00 1c .cfa: sp 0 + .ra: lr
STACK CFI 60c04 .cfa: sp 4 + r4: .cfa -4 + ^
STACK CFI INIT 60c1c 1c .cfa: sp 0 + .ra: lr
STACK CFI 60c22 .cfa: sp 4 + r4: .cfa -4 + ^
STACK CFI INIT 60c38 2d4 .cfa: sp 0 + .ra: lr
STACK CFI 60c3c .cfa: sp 36 + .ra: .cfa -4 + ^ r10: .cfa -12 + ^ r11: .cfa -8 + ^ r4: .cfa -36 + ^ r5: .cfa -32 + ^ r6: .cfa -28 + ^ r7: .cfa -24 + ^ r8: .cfa -20 + ^ r9: .cfa -16 + ^
STACK CFI 60c3e .cfa: sp 72 +
STACK CFI INIT 60f0c 12 .cfa: sp 0 + .ra: lr
STACK CFI 60f0e .cfa: sp 4 + .ra: .cfa -4 + ^
STACK CFI 60f10 .cfa: sp 16 +
STACK CFI INIT 60f20 280 .cfa: sp 0 + .ra: lr
STACK CFI 60f24 .cfa: sp 36 + .ra: .cfa -4 + ^ r10: .cfa -12 + ^ r11: .cfa -8 + ^ r4: .cfa -36 + ^ r5: .cfa -32 + ^ r6: .cfa -28 + ^ r7: .cfa -24 + ^ r8: .cfa -20 + ^ r9: .cfa -16 + ^
STACK CFI 60f26 .cfa: sp 72 +
STACK CFI INIT 611a0 12 .cfa: sp 0 + .ra: lr
STACK CFI 611a2 .cfa: sp 4 + .ra: .cfa -4 + ^
STACK CFI 611a4 .cfa: sp 16 +
STACK CFI INIT 611b4 43c .cfa: sp 0 + .ra: lr
STACK CFI 611b8 .cfa: sp 36 + .ra: .cfa -4 + ^ r10: .cfa -12 + ^ r11: .cfa -8 + ^ r4: .cfa -36 + ^ r5: .cfa -32 + ^ r6: .cfa -28 + ^ r7: .cfa -24 + ^ r8: .cfa -20 + ^ r9: .cfa -16 + ^
STACK CFI 611ba .cfa: sp 96 +
STACK CFI INIT 615f0 12 .cfa: sp 0 + .ra: lr
STACK CFI 615f2 .cfa: sp 4 + .ra: .cfa -4 + ^
STACK CFI 615f4 .cfa: sp 16 +
STACK CFI INIT 61604 3d0 .cfa: sp 0 + .ra: lr
STACK CFI 61608 .cfa: sp 36 + .ra: .cfa -4 + ^ r10: .cfa -12 + ^ r11: .cfa -8 + ^ r4: .cfa -36 + ^ r5: .cfa -32 + ^ r6: .cfa -28 + ^ r7: .cfa -24 + ^ r8: .cfa -20 + ^ r9: .cfa -16 + ^
STACK CFI 6160a .cfa: sp 96 +
STACK CFI INIT 619d4 12 .cfa: sp 0 + .ra: lr
STACK CFI 619d6 .cfa: sp 4 + .ra: .cfa -4 + ^
STACK CFI 619d8 .cfa: sp 16 +
STACK CFI INIT 619e8 1e8 .cfa: sp 0 + .ra: lr
STACK CFI 619ec .cfa: sp 40 + .ra: .cfa -4 + ^ r10: .cfa -12 + ^ r11: .cfa -8 + ^ r3: .cfa -40 + ^ r4: .cfa -36 + ^ r5: .cfa -32 + ^ r6: .cfa -28 + ^ r7: .cfa -24 + ^ r8: .cfa -20 + ^ r9: .cfa -16 + ^
STACK CFI INIT 61bd0 310 .cfa: sp 0 + .ra: lr
STACK CFI 61bd4 .cfa: sp 32 + .ra: .cfa -4 + ^ r10: .cfa -8 + ^ r4: .cfa -32 + ^ r5: .cfa -28 + ^ r6: .cfa -24 + ^ r7: .cfa -20 + ^ r8: .cfa -16 + ^ r9: .cfa -12 + ^
STACK CFI 61bea .cfa: sp 40 +
STACK CFI INIT 61ee0 1b5c .cfa: sp 0 + .ra: lr
STACK CFI 61ee4 .cfa: sp 36 + .ra: .cfa -4 + ^ r10: .cfa -12 + ^ r11: .cfa -8 + ^ r4: .cfa -36 + ^ r5: .cfa -32 + ^ r6: .cfa -28 + ^ r7: .cfa -24 + ^ r8: .cfa -20 + ^ r9: .cfa -16 + ^
STACK CFI 61ee8 .cfa: sp 1088 +
STACK CFI INIT 63a3c 8 .cfa: sp 0 + .ra: lr
STACK CFI INIT 63a44 4 .cfa: sp 0 + .ra: lr
STACK CFI INIT 63a48 8 .cfa: sp 0 + .ra: lr
STACK CFI INIT 63a50 1e8 .cfa: sp 0 + .ra: lr
STACK CFI 63a54 .cfa: sp 40 + .ra: .cfa -4 + ^ r10: .cfa -12 + ^ r11: .cfa -8 + ^ r3: .cfa -40 + ^ r4: .cfa -36 + ^ r5: .cfa -32 + ^ r6: .cfa -28 + ^ r7: .cfa -24 + ^ r8: .cfa -20 + ^ r9: .cfa -16 + ^
STACK CFI INIT 63c38 24c .cfa: sp 0 + .ra: lr
STACK CFI 63c3c .cfa: sp 36 + .ra: .cfa -4 + ^ r10: .cfa -12 + ^ r11: .cfa -8 + ^ r4: .cfa -36 + ^ r5: .cfa -32 + ^ r6: .cfa -28 + ^ r7: .cfa -24 + ^ r8: .cfa -20 + ^ r9: .cfa -16 + ^
STACK CFI 63c52 .cfa: sp 48 +
STACK CFI INIT 63e84 1a0c .cfa: sp 0 + .ra: lr
STACK CFI 63e88 .cfa: sp 36 + .ra: .cfa -4 + ^ r10: .cfa -12 + ^ r11: .cfa -8 + ^ r4: .cfa -36 + ^ r5: .cfa -32 + ^ r6: .cfa -28 + ^ r7: .cfa -24 + ^ r8: .cfa -20 + ^ r9: .cfa -16 + ^
STACK CFI 63e8a .cfa: sp 288 +
STACK CFI INIT 65890 8 .cfa: sp 0 + .ra: lr
STACK CFI INIT 65898 14 .cfa: sp 0 + .ra: lr
STACK CFI INIT 658ac 1c .cfa: sp 0 + .ra: lr
STACK CFI 658b0 .cfa: sp 4 + r4: .cfa -4 + ^
STACK CFI INIT 658c8 60 .cfa: sp 0 + .ra: lr
STACK CFI 658d0 .cfa: sp 4 + r4: .cfa -4 + ^
STACK CFI INIT 65928 a0 .cfa: sp 0 + .ra: lr
STACK CFI 6592c .cfa: sp 28 + r10: .cfa -4 + ^ r4: .cfa -28 + ^ r5: .cfa -24 + ^ r6: .cfa -20 + ^ r7: .cfa -16 + ^ r8: .cfa -12 + ^ r9: .cfa -8 + ^
STACK CFI INIT 659c8 914 .cfa: sp 0 + .ra: lr
STACK CFI 659cc .cfa: sp 36 + .ra: .cfa -4 + ^ r10: .cfa -12 + ^ r11: .cfa -8 + ^ r4: .cfa -36 + ^ r5: .cfa -32 + ^ r6: .cfa -28 + ^ r7: .cfa -24 + ^ r8: .cfa -20 + ^ r9: .cfa -16 + ^
STACK CFI 659ce .cfa: sp 160 +
STACK CFI 659d0 .cfa: r7 160 +
STACK CFI INIT 662dc 5e4 .cfa: sp 0 + .ra: lr
STACK CFI 662e0 .cfa: sp 36 + .ra: .cfa -4 + ^ r10: .cfa -12 + ^ r11: .cfa -8 + ^ r4: .cfa -36 + ^ r5: .cfa -32 + ^ r6: .cfa -28 + ^ r7: .cfa -24 + ^ r8: .cfa -20 + ^ r9: .cfa -16 + ^
STACK CFI 662e2 .cfa: sp 96 +
STACK CFI 662e4 .cfa: r7 96 +
STACK CFI INIT 668c0 2e .cfa: sp 0 + .ra: lr
STACK CFI 668c4 .cfa: sp 16 + .ra: .cfa -4 + ^ r4: .cfa -16 + ^ r5: .cfa -12 + ^ r6: .cfa -8 + ^
STACK CFI INIT 668f0 44 .cfa: sp 0 + .ra: lr
STACK CFI 668f8 .cfa: sp 24 + .ra: .cfa -4 + ^ r3: .cfa -24 + ^ r4: .cfa -20 + ^ r5: .cfa -16 + ^ r6: .cfa -12 + ^ r7: .cfa -8 + ^
STACK CFI INIT 66934 34 .cfa: sp 0 + .ra: lr
STACK CFI 66938 .cfa: sp 24 + .ra: .cfa -4 + ^ r3: .cfa -24 + ^ r4: .cfa -20 + ^ r5: .cfa -16 + ^ r6: .cfa -12 + ^ r7: .cfa -8 + ^
STACK CFI INIT 66968 50 .cfa: sp 0 + .ra: lr
STACK CFI 66972 .cfa: sp 24 + .ra: .cfa -4 + ^ r4: .cfa -24 + ^ r5: .cfa -20 + ^ r6: .cfa -16 + ^ r7: .cfa -12 + ^ r8: .cfa -8 + ^
STACK CFI INIT 669b8 28 .cfa: sp 0 + .ra: lr
STACK CFI 669ba .cfa: sp 8 + .ra: .cfa -4 + ^ r4: .cfa -8 + ^
STACK CFI INIT 669e0 36 .cfa: sp 0 + .ra: lr
STACK CFI 669e2 .cfa: sp 16 + .ra: .cfa -4 + ^ r4: .cfa -16 + ^ r5: .cfa -12 + ^ r6: .cfa -8 + ^
STACK CFI 669e4 .cfa: sp 32 +
STACK CFI INIT 66a18 16c .cfa: sp 0 + .ra: lr
STACK CFI 66a1c .cfa: sp 32 + .ra: .cfa -4 + ^ r3: .cfa -32 + ^ r4: .cfa -28 + ^ r5: .cfa -24 + ^ r6: .cfa -20 + ^ r7: .cfa -16 + ^ r8: .cfa -12 + ^ r9: .cfa -8 + ^
STACK CFI 66a22 .cfa: r7 32 +
STACK CFI INIT 66b84 58 .cfa: sp 0 + .ra: lr
STACK CFI 66b86 .cfa: sp 16 + .ra: .cfa -4 + ^ r3: .cfa -16 + ^ r4: .cfa -12 + ^ r5: .cfa -8 + ^
STACK CFI INIT 66bdc 40 .cfa: sp 0 + .ra: lr
STACK CFI 66bde .cfa: sp 16 + .ra: .cfa -4 + ^ r4: .cfa -16 + ^ r5: .cfa -12 + ^ r6: .cfa -8 + ^
STACK CFI INIT 66c1c 2a0 .cfa: sp 0 + .ra: lr
STACK CFI 66c20 .cfa: sp 36 + .ra: .cfa -4 + ^ r10: .cfa -12 + ^ r11: .cfa -8 + ^ r4: .cfa -36 + ^ r5: .cfa -32 + ^ r6: .cfa -28 + ^ r7: .cfa -24 + ^ r8: .cfa -20 + ^ r9: .cfa -16 + ^
STACK CFI 66c22 .cfa: sp 384 +
STACK CFI INIT 66ebc 1e .cfa: sp 0 + .ra: lr
STACK CFI 66ebe .cfa: sp 12 + r1: .cfa -12 + ^ r2: .cfa -8 + ^ r3: .cfa -4 + ^
STACK CFI 66ec0 .cfa: sp 16 + .ra: .cfa -16 + ^
STACK CFI 66ec2 .cfa: sp 24 +
STACK CFI INIT 66edc 58 .cfa: sp 0 + .ra: lr
STACK CFI 66ee0 .cfa: sp 24 + .ra: .cfa -4 + ^ r4: .cfa -24 + ^ r5: .cfa -20 + ^ r6: .cfa -16 + ^ r7: .cfa -12 + ^ r8: .cfa -8 + ^
STACK CFI 66ee2 .cfa: sp 392 +
STACK CFI INIT 66f34 1a8 .cfa: sp 0 + .ra: lr
STACK CFI 66f38 .cfa: sp 36 + .ra: .cfa -4 + ^ r10: .cfa -12 + ^ r11: .cfa -8 + ^ r4: .cfa -36 + ^ r5: .cfa -32 + ^ r6: .cfa -28 + ^ r7: .cfa -24 + ^ r8: .cfa -20 + ^ r9: .cfa -16 + ^
STACK CFI 66f3c .cfa: sp 112 +
STACK CFI INIT 670dc 14 .cfa: sp 0 + .ra: lr
STACK CFI INIT 670f0 148 .cfa: sp 0 + .ra: lr
STACK CFI 670f2 .cfa: sp 16 + r0: .cfa -16 + ^ r1: .cfa -12 + ^ r2: .cfa -8 + ^ r3: .cfa -4 + ^
STACK CFI 670fa .cfa: sp 36 + .ra: .cfa -20 + ^ r4: .cfa -36 + ^ r5: .cfa -32 + ^ r6: .cfa -28 + ^ r7: .cfa -24 + ^
STACK CFI 670fc .cfa: sp 48 +
STACK CFI INIT 67238 140 .cfa: sp 0 + .ra: lr
STACK CFI 67242 .cfa: sp 24 + .ra: .cfa -4 + ^ r4: .cfa -24 + ^ r5: .cfa -20 + ^ r6: .cfa -16 + ^ r7: .cfa -12 + ^ r8: .cfa -8 + ^
STACK CFI INIT 67378 12e .cfa: sp 0 + .ra: lr
STACK CFI 6737a .cfa: sp 12 + r1: .cfa -12 + ^ r2: .cfa -8 + ^ r3: .cfa -4 + ^
STACK CFI 6737e .cfa: sp 28 + .ra: .cfa -16 + ^ r4: .cfa -28 + ^ r5: .cfa -24 + ^ r6: .cfa -20 + ^
STACK CFI 67382 .cfa: sp 40 +
STACK CFI INIT 674a8 120 .cfa: sp 0 + .ra: lr
STACK CFI 674aa .cfa: sp 24 + .ra: .cfa -4 + ^ r3: .cfa -24 + ^ r4: .cfa -20 + ^ r5: .cfa -16 + ^ r6: .cfa -12 + ^ r7: .cfa -8 + ^
STACK CFI INIT 675c8 2a0 .cfa: sp 0 + .ra: lr
STACK CFI 675d2 .cfa: sp 32 + r10: .cfa -8 + ^ r11: .cfa -4 + ^ r4: .cfa -32 + ^ r5: .cfa -28 + ^ r6: .cfa -24 + ^ r7: .cfa -20 + ^ r8: .cfa -16 + ^ r9: .cfa -12 + ^
STACK CFI 675d8 .cfa: sp 56 +
STACK CFI INIT 67868 c4 .cfa: sp 0 + .ra: lr
STACK CFI 6786a .cfa: sp 20 + .ra: .cfa -4 + ^ r4: .cfa -20 + ^ r5: .cfa -16 + ^ r6: .cfa -12 + ^ r7: .cfa -8 + ^
STACK CFI 6786e .cfa: sp 48 +
STACK CFI INIT 6792c 4 .cfa: sp 0 + .ra: lr
STACK CFI INIT 67930 c .cfa: sp 0 + .ra: lr
STACK CFI INIT 6793c 3a .cfa: sp 0 + .ra: lr
STACK CFI 6793e .cfa: sp 12 + .ra: .cfa -4 + ^ r4: .cfa -12 + ^ r5: .cfa -8 + ^
STACK CFI 67940 .cfa: sp 24 +
STACK CFI INIT 67978 e .cfa: sp 0 + .ra: lr
STACK CFI 6797a .cfa: sp 8 + .ra: .cfa -4 + ^ r3: .cfa -8 + ^
STACK CFI INIT 67988 16 .cfa: sp 0 + .ra: lr
STACK CFI 6798a .cfa: sp 8 + .ra: .cfa -4 + ^ r4: .cfa -8 + ^
STACK CFI 6798c .cfa: sp 56 +
STACK CFI INIT 679a0 20 .cfa: sp 0 + .ra: lr
STACK CFI 679a2 .cfa: sp 16 + .ra: .cfa -4 + ^ r4: .cfa -16 + ^ r5: .cfa -12 + ^ r6: .cfa -8 + ^
STACK CFI INIT 679c0 8 .cfa: sp 0 + .ra: lr
STACK CFI INIT 679c8 10 .cfa: sp 0 + .ra: lr
STACK CFI INIT 679d8 8 .cfa: sp 0 + .ra: lr
STACK CFI INIT 679e0 10 .cfa: sp 0 + .ra: lr
STACK CFI INIT 679f0 70 .cfa: sp 0 + .ra: lr
STACK CFI 679f4 .cfa: sp 32 + .ra: .cfa -4 + ^ r3: .cfa -32 + ^ r4: .cfa -28 + ^ r5: .cfa -24 + ^ r6: .cfa -20 + ^ r7: .cfa -16 + ^ r8: .cfa -12 + ^ r9: .cfa -8 + ^
STACK CFI INIT 67a60 11a .cfa: sp 0 + .ra: lr
STACK CFI 67a64 .cfa: sp 32 + r10: .cfa -8 + ^ r11: .cfa -4 + ^ r4: .cfa -32 + ^ r5: .cfa -28 + ^ r6: .cfa -24 + ^ r7: .cfa -20 + ^ r8: .cfa -16 + ^ r9: .cfa -12 + ^
STACK CFI 67a66 .cfa: sp 40 +
STACK CFI INIT 67b7c 3d0 .cfa: sp 0 + .ra: lr
STACK CFI 67b80 .cfa: sp 36 + .ra: .cfa -4 + ^ r10: .cfa -12 + ^ r11: .cfa -8 + ^ r4: .cfa -36 + ^ r5: .cfa -32 + ^ r6: .cfa -28 + ^ r7: .cfa -24 + ^ r8: .cfa -20 + ^ r9: .cfa -16 + ^
STACK CFI 67b82 .cfa: sp 232 +
STACK CFI INIT 67f4c 24 .cfa: sp 0 + .ra: lr
STACK CFI 67f4e .cfa: sp 8 + .ra: .cfa -4 + ^ r4: .cfa -8 + ^
STACK CFI INIT 67f70 20 .cfa: sp 0 + .ra: lr
STACK CFI 67f72 .cfa: sp 8 + .ra: .cfa -4 + ^ r4: .cfa -8 + ^
STACK CFI 67f74 .cfa: sp 16 +
STACK CFI INIT 67f90 14 .cfa: sp 0 + .ra: lr
STACK CFI 67f92 .cfa: sp 4 + r7: .cfa -4 + ^
STACK CFI 67f98 .cfa: sp 0 + r7: r7
STACK CFI INIT 67fb0 14 .cfa: sp 0 + .ra: lr
STACK CFI 67fb2 .cfa: sp 4 + r7: .cfa -4 + ^
STACK CFI 67fb8 .cfa: sp 0 + r7: r7
STACK CFI INIT 67fd0 118 .cfa: sp 0 + .ra: lr
STACK CFI 67fd4 .cfa: sp 32 + .ra: .cfa -4 + ^ r10: .cfa -8 + ^ r4: .cfa -32 + ^ r5: .cfa -28 + ^ r6: .cfa -24 + ^ r7: .cfa -20 + ^ r8: .cfa -16 + ^ r9: .cfa -12 + ^
STACK CFI 67fd8 .cfa: sp 160 +
STACK CFI INIT 680e8 28 .cfa: sp 0 + .ra: lr
STACK CFI INIT 68110 24c .cfa: sp 0 + .ra: lr
STACK CFI 68114 .cfa: sp 32 + r10: .cfa -8 + ^ r11: .cfa -4 + ^ r4: .cfa -32 + ^ r5: .cfa -28 + ^ r6: .cfa -24 + ^ r7: .cfa -20 + ^ r8: .cfa -16 + ^ r9: .cfa -12 + ^
STACK CFI 68118 .cfa: sp 40 +
STACK CFI INIT 6835c 74 .cfa: sp 0 + .ra: lr
STACK CFI 6835e .cfa: sp 24 + .ra: .cfa -4 + ^ r3: .cfa -24 + ^ r4: .cfa -20 + ^ r5: .cfa -16 + ^ r6: .cfa -12 + ^ r7: .cfa -8 + ^
STACK CFI INIT bd488 34 .cfa: sp 0 + .ra: lr
STACK CFI bd48a .cfa: sp 16 + .ra: .cfa -4 + ^ r3: .cfa -16 + ^ r4: .cfa -12 + ^ r5: .cfa -8 + ^
STACK CFI INIT 683d0 70 .cfa: sp 0 + .ra: lr
STACK CFI 683d2 .cfa: sp 24 + .ra: .cfa -4 + ^ r3: .cfa -24 + ^ r4: .cfa -20 + ^ r5: .cfa -16 + ^ r6: .cfa -12 + ^ r7: .cfa -8 + ^
STACK CFI INIT 68440 4c8 .cfa: sp 0 + .ra: lr
STACK CFI 68444 .cfa: sp 36 + .ra: .cfa -4 + ^ r10: .cfa -12 + ^ r11: .cfa -8 + ^ r4: .cfa -36 + ^ r5: .cfa -32 + ^ r6: .cfa -28 + ^ r7: .cfa -24 + ^ r8: .cfa -20 + ^ r9: .cfa -16 + ^
STACK CFI 68446 .cfa: sp 96 +
STACK CFI 68450 .cfa: r7 80 +
STACK CFI INIT 68908 138 .cfa: sp 0 + .ra: lr
STACK CFI 6890c .cfa: sp 16 + .ra: .cfa -4 + ^ r4: .cfa -16 + ^ r5: .cfa -12 + ^ r6: .cfa -8 + ^
STACK CFI INIT 68a40 a0 .cfa: sp 0 + .ra: lr
STACK CFI 68a42 .cfa: sp 16 + .ra: .cfa -4 + ^ r3: .cfa -16 + ^ r4: .cfa -12 + ^ r5: .cfa -8 + ^
STACK CFI INIT 68ae0 88 .cfa: sp 0 + .ra: lr
STACK CFI 68ae4 .cfa: sp 24 + .ra: .cfa -4 + ^ r4: .cfa -24 + ^ r5: .cfa -20 + ^ r6: .cfa -16 + ^ r7: .cfa -12 + ^ r8: .cfa -8 + ^
STACK CFI INIT 68b68 c4 .cfa: sp 0 + .ra: lr
STACK CFI 68b6a .cfa: sp 16 + .ra: .cfa -4 + ^ r3: .cfa -16 + ^ r4: .cfa -12 + ^ r5: .cfa -8 + ^
STACK CFI INIT 68c2c 14c .cfa: sp 0 + .ra: lr
STACK CFI 68c2e .cfa: sp 16 + .ra: .cfa -4 + ^ r4: .cfa -16 + ^ r5: .cfa -12 + ^ r6: .cfa -8 + ^
STACK CFI 68c32 .cfa: sp 32 +
STACK CFI INIT 68d78 40 .cfa: sp 0 + .ra: lr
STACK CFI 68d7c .cfa: sp 8 + r4: .cfa -8 + ^ r5: .cfa -4 + ^
STACK CFI INIT 68db8 8b0 .cfa: sp 0 + .ra: lr
STACK CFI 68dc0 .cfa: sp 36 + .ra: .cfa -4 + ^ r10: .cfa -12 + ^ r11: .cfa -8 + ^ r4: .cfa -36 + ^ r5: .cfa -32 + ^ r6: .cfa -28 + ^ r7: .cfa -24 + ^ r8: .cfa -20 + ^ r9: .cfa -16 + ^
STACK CFI 68dc2 .cfa: sp 232 +
STACK CFI 68dc6 .cfa: r7 232 +
STACK CFI INIT 69668 158 .cfa: sp 0 + .ra: lr
STACK CFI 6966c .cfa: sp 36 + .ra: .cfa -4 + ^ r10: .cfa -12 + ^ r11: .cfa -8 + ^ r4: .cfa -36 + ^ r5: .cfa -32 + ^ r6: .cfa -28 + ^ r7: .cfa -24 + ^ r8: .cfa -20 + ^ r9: .cfa -16 + ^
STACK CFI 6966e .cfa: sp 64 +
STACK CFI INIT 697c0 4f0 .cfa: sp 0 + .ra: lr
STACK CFI 697c4 .cfa: sp 36 + .ra: .cfa -4 + ^ r10: .cfa -12 + ^ r11: .cfa -8 + ^ r4: .cfa -36 + ^ r5: .cfa -32 + ^ r6: .cfa -28 + ^ r7: .cfa -24 + ^ r8: .cfa -20 + ^ r9: .cfa -16 + ^
STACK CFI 697c6 .cfa: sp 48 +
STACK CFI INIT 69cb0 14 .cfa: sp 0 + .ra: lr
STACK CFI 69cb2 .cfa: sp 4 + r7: .cfa -4 + ^
STACK CFI 69cb8 .cfa: sp 0 + r7: r7
STACK CFI INIT 69cd0 14 .cfa: sp 0 + .ra: lr
STACK CFI 69cd2 .cfa: sp 4 + r7: .cfa -4 + ^
STACK CFI 69cd8 .cfa: sp 0 + r7: r7
STACK CFI INIT 69cf0 34 .cfa: sp 0 + .ra: lr
STACK CFI 69cf2 .cfa: sp 4 + .ra: .cfa -4 + ^
STACK CFI 69cf4 .cfa: sp 16 +
STACK CFI INIT 69d24 50 .cfa: sp 0 + .ra: lr
STACK CFI 69d28 .cfa: sp 4 + r4: .cfa -4 + ^
STACK CFI INIT 69d74 18 .cfa: sp 0 + .ra: lr
STACK CFI INIT 69d8c 56 .cfa: sp 0 + .ra: lr
STACK CFI 69d8e .cfa: sp 8 + .ra: .cfa -4 + ^ r4: .cfa -8 + ^
STACK CFI 69d90 .cfa: sp 24 +
STACK CFI INIT 69de4 3f8 .cfa: sp 0 + .ra: lr
STACK CFI 69de8 .cfa: sp 36 + .ra: .cfa -4 + ^ r10: .cfa -12 + ^ r11: .cfa -8 + ^ r4: .cfa -36 + ^ r5: .cfa -32 + ^ r6: .cfa -28 + ^ r7: .cfa -24 + ^ r8: .cfa -20 + ^ r9: .cfa -16 + ^
STACK CFI 69dee .cfa: sp 256 +
STACK CFI 69df0 .cfa: r7 256 +
STACK CFI INIT 6a1dc 30 .cfa: sp 0 + .ra: lr
STACK CFI 6a1de .cfa: sp 16 + .ra: .cfa -4 + ^ r3: .cfa -16 + ^ r4: .cfa -12 + ^ r5: .cfa -8 + ^
STACK CFI INIT 6a20c 20 .cfa: sp 0 + .ra: lr
STACK CFI 6a20e .cfa: sp 12 + .ra: .cfa -4 + ^ r4: .cfa -12 + ^ r5: .cfa -8 + ^
STACK CFI 6a216 .cfa: sp 24 +
STACK CFI INIT 6a22c b4 .cfa: sp 0 + .ra: lr
STACK CFI 6a230 .cfa: sp 32 + r10: .cfa -8 + ^ r11: .cfa -4 + ^ r4: .cfa -32 + ^ r5: .cfa -28 + ^ r6: .cfa -24 + ^ r7: .cfa -20 + ^ r8: .cfa -16 + ^ r9: .cfa -12 + ^
STACK CFI INIT 6a2e0 2510 .cfa: sp 0 + .ra: lr
STACK CFI 6a2e4 .cfa: sp 36 + .ra: .cfa -4 + ^ r10: .cfa -12 + ^ r11: .cfa -8 + ^ r4: .cfa -36 + ^ r5: .cfa -32 + ^ r6: .cfa -28 + ^ r7: .cfa -24 + ^ r8: .cfa -20 + ^ r9: .cfa -16 + ^
STACK CFI 6a2e6 .cfa: sp 184 +
STACK CFI INIT 6c7f0 12 .cfa: sp 0 + .ra: lr
STACK CFI 6c7f2 .cfa: sp 4 + .ra: .cfa -4 + ^
STACK CFI 6c7f4 .cfa: sp 16 +
STACK CFI INIT 6c804 20 .cfa: sp 0 + .ra: lr
STACK CFI 6c806 .cfa: sp 12 + .ra: .cfa -4 + ^ r4: .cfa -12 + ^ r5: .cfa -8 + ^
STACK CFI 6c80e .cfa: sp 24 +
STACK CFI INIT 6c824 1234 .cfa: sp 0 + .ra: lr
STACK CFI 6c828 .cfa: sp 36 + .ra: .cfa -4 + ^ r10: .cfa -12 + ^ r11: .cfa -8 + ^ r4: .cfa -36 + ^ r5: .cfa -32 + ^ r6: .cfa -28 + ^ r7: .cfa -24 + ^ r8: .cfa -20 + ^ r9: .cfa -16 + ^
STACK CFI 6c82a .cfa: sp 184 +
STACK CFI INIT 6da58 1a .cfa: sp 0 + .ra: lr
STACK CFI 6da5a .cfa: sp 16 + .ra: .cfa -4 + ^ r4: .cfa -16 + ^ r5: .cfa -12 + ^ r6: .cfa -8 + ^
STACK CFI 6da5c .cfa: sp 32 +
STACK CFI INIT 6da74 26 .cfa: sp 0 + .ra: lr
STACK CFI 6da78 .cfa: sp 4 + .ra: .cfa -4 + ^
STACK CFI INIT 6da9c 20 .cfa: sp 0 + .ra: lr
STACK CFI 6da9e .cfa: sp 12 + .ra: .cfa -4 + ^ r4: .cfa -12 + ^ r5: .cfa -8 + ^
STACK CFI 6daa6 .cfa: sp 24 +
STACK CFI INIT 6dabc 2a .cfa: sp 0 + .ra: lr
STACK CFI 6dac0 .cfa: sp 24 + .ra: .cfa -4 + ^ r4: .cfa -24 + ^ r5: .cfa -20 + ^ r6: .cfa -16 + ^ r7: .cfa -12 + ^ r8: .cfa -8 + ^
STACK CFI INIT 6dae8 1230 .cfa: sp 0 + .ra: lr
STACK CFI 6daec .cfa: sp 36 + .ra: .cfa -4 + ^ r10: .cfa -12 + ^ r11: .cfa -8 + ^ r4: .cfa -36 + ^ r5: .cfa -32 + ^ r6: .cfa -28 + ^ r7: .cfa -24 + ^ r8: .cfa -20 + ^ r9: .cfa -16 + ^
STACK CFI 6daee .cfa: sp 232 +
STACK CFI 6daf0 .cfa: r7 224 +
STACK CFI INIT 6ed18 1a .cfa: sp 0 + .ra: lr
STACK CFI 6ed1a .cfa: sp 16 + .ra: .cfa -4 + ^ r4: .cfa -16 + ^ r5: .cfa -12 + ^ r6: .cfa -8 + ^
STACK CFI 6ed1c .cfa: sp 32 +
STACK CFI INIT 6ed34 74 .cfa: sp 0 + .ra: lr
STACK CFI 6ed36 .cfa: sp 16 + .ra: .cfa -4 + ^ r4: .cfa -16 + ^ r5: .cfa -12 + ^ r6: .cfa -8 + ^
STACK CFI INIT 6eda8 84 .cfa: sp 0 + .ra: lr
STACK CFI 6edac .cfa: sp 16 + .ra: .cfa -4 + ^ r3: .cfa -16 + ^ r4: .cfa -12 + ^ r5: .cfa -8 + ^
STACK CFI INIT 6ee2c e0 .cfa: sp 0 + .ra: lr
STACK CFI 6ee30 .cfa: sp 24 + .ra: .cfa -4 + ^ r3: .cfa -24 + ^ r4: .cfa -20 + ^ r5: .cfa -16 + ^ r6: .cfa -12 + ^ r7: .cfa -8 + ^
STACK CFI INIT 6ef0c d4 .cfa: sp 0 + .ra: lr
STACK CFI 6ef10 .cfa: sp 40 + .ra: .cfa -4 + ^ r10: .cfa -12 + ^ r11: .cfa -8 + ^ r3: .cfa -40 + ^ r4: .cfa -36 + ^ r5: .cfa -32 + ^ r6: .cfa -28 + ^ r7: .cfa -24 + ^ r8: .cfa -20 + ^ r9: .cfa -16 + ^
STACK CFI INIT 6efe0 1b0 .cfa: sp 0 + .ra: lr
STACK CFI 6efe6 .cfa: sp 32 + .ra: .cfa -4 + ^ r10: .cfa -8 + ^ r4: .cfa -32 + ^ r5: .cfa -28 + ^ r6: .cfa -24 + ^ r7: .cfa -20 + ^ r8: .cfa -16 + ^ r9: .cfa -12 + ^
STACK CFI 6efea .cfa: sp 40 +
STACK CFI INIT 6f190 b0 .cfa: sp 0 + .ra: lr
STACK CFI 6f192 .cfa: sp 20 + .ra: .cfa -4 + ^ r4: .cfa -20 + ^ r5: .cfa -16 + ^ r6: .cfa -12 + ^ r7: .cfa -8 + ^
STACK CFI 6f198 .cfa: sp 32 +
STACK CFI INIT 6f240 3a .cfa: sp 0 + .ra: lr
STACK CFI 6f242 .cfa: sp 8 + .ra: .cfa -4 + ^ r4: .cfa -8 + ^
STACK CFI 6f248 .cfa: sp 16 +
STACK CFI INIT 6f27c 2a .cfa: sp 0 + .ra: lr
STACK CFI 6f27e .cfa: sp 8 + .ra: .cfa -4 + ^ r4: .cfa -8 + ^
STACK CFI INIT 6f2a8 2e .cfa: sp 0 + .ra: lr
STACK CFI 6f2aa .cfa: sp 16 + .ra: .cfa -4 + ^ r4: .cfa -16 + ^ r5: .cfa -12 + ^ r6: .cfa -8 + ^
STACK CFI 6f2ac .cfa: sp 144 +
STACK CFI INIT 6f2d8 3a .cfa: sp 0 + .ra: lr
STACK CFI 6f2da .cfa: sp 20 + .ra: .cfa -4 + ^ r4: .cfa -20 + ^ r5: .cfa -16 + ^ r6: .cfa -12 + ^ r7: .cfa -8 + ^
STACK CFI 6f2dc .cfa: sp 152 +
STACK CFI INIT 6f314 dc .cfa: sp 0 + .ra: lr
STACK CFI 6f316 .cfa: sp 24 + .ra: .cfa -4 + ^ r3: .cfa -24 + ^ r4: .cfa -20 + ^ r5: .cfa -16 + ^ r6: .cfa -12 + ^ r7: .cfa -8 + ^
STACK CFI INIT 6f3f0 3c .cfa: sp 0 + .ra: lr
STACK CFI 6f3f2 .cfa: sp 8 + .ra: .cfa -4 + ^ r4: .cfa -8 + ^
STACK CFI INIT 6f42c a .cfa: sp 0 + .ra: lr
STACK CFI INIT 6f438 4c .cfa: sp 0 + .ra: lr
STACK CFI 6f43a .cfa: sp 8 + .ra: .cfa -4 + ^ r4: .cfa -8 + ^
STACK CFI INIT 6f484 e4 .cfa: sp 0 + .ra: lr
STACK CFI 6f488 .cfa: sp 32 + .ra: .cfa -4 + ^ r3: .cfa -32 + ^ r4: .cfa -28 + ^ r5: .cfa -24 + ^ r6: .cfa -20 + ^ r7: .cfa -16 + ^ r8: .cfa -12 + ^ r9: .cfa -8 + ^
STACK CFI INIT 6f568 128 .cfa: sp 0 + .ra: lr
STACK CFI 6f56e .cfa: sp 36 + .ra: .cfa -4 + ^ r10: .cfa -12 + ^ r11: .cfa -8 + ^ r4: .cfa -36 + ^ r5: .cfa -32 + ^ r6: .cfa -28 + ^ r7: .cfa -24 + ^ r8: .cfa -20 + ^ r9: .cfa -16 + ^
STACK CFI 6f578 .cfa: sp 48 +
STACK CFI INIT 6f690 7e .cfa: sp 0 + .ra: lr
STACK CFI 6f692 .cfa: sp 16 + .ra: .cfa -4 + ^ r3: .cfa -16 + ^ r4: .cfa -12 + ^ r5: .cfa -8 + ^
STACK CFI INIT 6f710 80 .cfa: sp 0 + .ra: lr
STACK CFI 6f712 .cfa: sp 16 + .ra: .cfa -4 + ^ r4: .cfa -16 + ^ r5: .cfa -12 + ^ r6: .cfa -8 + ^
STACK CFI INIT 6f790 4 .cfa: sp 0 + .ra: lr
STACK CFI INIT 6f794 1c .cfa: sp 0 + .ra: lr
STACK CFI 6f796 .cfa: sp 12 + .ra: .cfa -4 + ^ r4: .cfa -12 + ^ r5: .cfa -8 + ^
STACK CFI 6f798 .cfa: sp 24 +
STACK CFI INIT 6f7b0 c .cfa: sp 0 + .ra: lr
STACK CFI INIT 6f7bc c .cfa: sp 0 + .ra: lr
STACK CFI INIT 6f7c8 64 .cfa: sp 0 + .ra: lr
STACK CFI 6f7cc .cfa: sp 24 + .ra: .cfa -4 + ^ r4: .cfa -24 + ^ r5: .cfa -20 + ^ r6: .cfa -16 + ^ r7: .cfa -12 + ^ r8: .cfa -8 + ^
STACK CFI INIT 6f82c 2c .cfa: sp 0 + .ra: lr
STACK CFI 6f82e .cfa: sp 4 + .ra: .cfa -4 + ^
STACK CFI INIT 6f858 4 .cfa: sp 0 + .ra: lr
STACK CFI INIT 6f85c f4 .cfa: sp 0 + .ra: lr
STACK CFI 6f860 .cfa: sp 32 + .ra: .cfa -4 + ^ r10: .cfa -8 + ^ r3: .cfa -32 + ^ r4: .cfa -28 + ^ r5: .cfa -24 + ^ r6: .cfa -20 + ^ r7: .cfa -16 + ^ r8: .cfa -12 + ^
STACK CFI INIT 6f950 14c .cfa: sp 0 + .ra: lr
STACK CFI 6f954 .cfa: sp 36 + .ra: .cfa -4 + ^ r10: .cfa -12 + ^ r11: .cfa -8 + ^ r4: .cfa -36 + ^ r5: .cfa -32 + ^ r6: .cfa -28 + ^ r7: .cfa -24 + ^ r8: .cfa -20 + ^ r9: .cfa -16 + ^
STACK CFI 6f95c .cfa: sp 48 +
STACK CFI INIT 6fa9c 1c .cfa: sp 0 + .ra: lr
STACK CFI 6fa9e .cfa: sp 12 + .ra: .cfa -4 + ^ r4: .cfa -12 + ^ r5: .cfa -8 + ^
STACK CFI 6faa0 .cfa: sp 24 +
STACK CFI INIT 6fab8 c .cfa: sp 0 + .ra: lr
STACK CFI INIT 6fac4 c .cfa: sp 0 + .ra: lr
STACK CFI INIT 6fad0 74 .cfa: sp 0 + .ra: lr
STACK CFI 6fad2 .cfa: sp 12 + .ra: .cfa -4 + ^ r4: .cfa -12 + ^ r5: .cfa -8 + ^
STACK CFI 6fad4 .cfa: sp 120 +
STACK CFI INIT 6fb44 2e .cfa: sp 0 + .ra: lr
STACK CFI 6fb46 .cfa: sp 24 + .ra: .cfa -4 + ^ r3: .cfa -24 + ^ r4: .cfa -20 + ^ r5: .cfa -16 + ^ r6: .cfa -12 + ^ r7: .cfa -8 + ^
STACK CFI INIT 6fb74 124 .cfa: sp 0 + .ra: lr
STACK CFI 6fb78 .cfa: sp 36 + .ra: .cfa -4 + ^ r10: .cfa -12 + ^ r11: .cfa -8 + ^ r4: .cfa -36 + ^ r5: .cfa -32 + ^ r6: .cfa -28 + ^ r7: .cfa -24 + ^ r8: .cfa -20 + ^ r9: .cfa -16 + ^
STACK CFI 6fb7a .cfa: sp 56 +
STACK CFI INIT 6fc98 124 .cfa: sp 0 + .ra: lr
STACK CFI 6fc9c .cfa: sp 36 + .ra: .cfa -4 + ^ r10: .cfa -12 + ^ r11: .cfa -8 + ^ r4: .cfa -36 + ^ r5: .cfa -32 + ^ r6: .cfa -28 + ^ r7: .cfa -24 + ^ r8: .cfa -20 + ^ r9: .cfa -16 + ^
STACK CFI 6fc9e .cfa: sp 56 +
STACK CFI INIT 6fdbc 2c .cfa: sp 0 + .ra: lr
STACK CFI 6fdc0 .cfa: sp 24 + .ra: .cfa -4 + ^ r4: .cfa -24 + ^ r5: .cfa -20 + ^ r6: .cfa -16 + ^ r7: .cfa -12 + ^ r8: .cfa -8 + ^
STACK CFI INIT 6fde8 36 .cfa: sp 0 + .ra: lr
STACK CFI 6fdec .cfa: sp 28 + .ra: .cfa -4 + ^ r4: .cfa -28 + ^ r5: .cfa -24 + ^ r6: .cfa -20 + ^ r7: .cfa -16 + ^ r8: .cfa -12 + ^ r9: .cfa -8 + ^
STACK CFI 6fdee .cfa: sp 40 +
STACK CFI INIT 6fe20 194 .cfa: sp 0 + .ra: lr
STACK CFI 6fe24 .cfa: sp 36 + .ra: .cfa -4 + ^ r10: .cfa -12 + ^ r11: .cfa -8 + ^ r4: .cfa -36 + ^ r5: .cfa -32 + ^ r6: .cfa -28 + ^ r7: .cfa -24 + ^ r8: .cfa -20 + ^ r9: .cfa -16 + ^
STACK CFI 6fe26 .cfa: sp 72 +
STACK CFI INIT 6ffb4 1d8 .cfa: sp 0 + .ra: lr
STACK CFI 6ffb8 .cfa: sp 36 + .ra: .cfa -4 + ^ r10: .cfa -12 + ^ r11: .cfa -8 + ^ r4: .cfa -36 + ^ r5: .cfa -32 + ^ r6: .cfa -28 + ^ r7: .cfa -24 + ^ r8: .cfa -20 + ^ r9: .cfa -16 + ^
STACK CFI 6ffba .cfa: sp 80 +
STACK CFI 6ffbc .cfa: r7 80 +
STACK CFI INIT 7018c 240 .cfa: sp 0 + .ra: lr
STACK CFI 70190 .cfa: sp 36 + .ra: .cfa -4 + ^ r10: .cfa -12 + ^ r11: .cfa -8 + ^ r4: .cfa -36 + ^ r5: .cfa -32 + ^ r6: .cfa -28 + ^ r7: .cfa -24 + ^ r8: .cfa -20 + ^ r9: .cfa -16 + ^
STACK CFI 70196 .cfa: sp 88 +
STACK CFI INIT 703cc 68 .cfa: sp 0 + .ra: lr
STACK CFI 703ce .cfa: sp 20 + .ra: .cfa -4 + ^ r4: .cfa -20 + ^ r5: .cfa -16 + ^ r6: .cfa -12 + ^ r7: .cfa -8 + ^
STACK CFI 703d4 .cfa: sp 40 +
STACK CFI INIT 70434 7c .cfa: sp 0 + .ra: lr
STACK CFI 70436 .cfa: sp 16 + .ra: .cfa -4 + ^ r4: .cfa -16 + ^ r5: .cfa -12 + ^ r6: .cfa -8 + ^
STACK CFI 7043a .cfa: sp 32 +
STACK CFI INIT 704b0 58 .cfa: sp 0 + .ra: lr
STACK CFI 704b6 .cfa: sp 8 + .ra: .cfa -4 + ^ r4: .cfa -8 + ^
STACK CFI 704ba .cfa: sp 32 +
STACK CFI INIT 70508 c8 .cfa: sp 0 + .ra: lr
STACK CFI 7050e .cfa: sp 20 + .ra: .cfa -4 + ^ r4: .cfa -20 + ^ r5: .cfa -16 + ^ r6: .cfa -12 + ^ r7: .cfa -8 + ^
STACK CFI 70512 .cfa: sp 32 +
STACK CFI INIT 705d0 140 .cfa: sp 0 + .ra: lr
STACK CFI 705d8 .cfa: sp 36 + .ra: .cfa -4 + ^ r10: .cfa -12 + ^ r11: .cfa -8 + ^ r4: .cfa -36 + ^ r5: .cfa -32 + ^ r6: .cfa -28 + ^ r7: .cfa -24 + ^ r8: .cfa -20 + ^ r9: .cfa -16 + ^
STACK CFI 705dc .cfa: sp 56 +
STACK CFI INIT 70710 140 .cfa: sp 0 + .ra: lr
STACK CFI 70718 .cfa: sp 36 + .ra: .cfa -4 + ^ r10: .cfa -12 + ^ r11: .cfa -8 + ^ r4: .cfa -36 + ^ r5: .cfa -32 + ^ r6: .cfa -28 + ^ r7: .cfa -24 + ^ r8: .cfa -20 + ^ r9: .cfa -16 + ^
STACK CFI 7071c .cfa: sp 56 +
STACK CFI INIT 70850 208 .cfa: sp 0 + .ra: lr
STACK CFI 70854 .cfa: sp 24 + .ra: .cfa -4 + ^ r4: .cfa -24 + ^ r5: .cfa -20 + ^ r6: .cfa -16 + ^ r7: .cfa -12 + ^ r8: .cfa -8 + ^
STACK CFI 70858 .cfa: sp 32 +
STACK CFI INIT 70a58 c8 .cfa: sp 0 + .ra: lr
STACK CFI 70a5e .cfa: sp 20 + .ra: .cfa -4 + ^ r4: .cfa -20 + ^ r5: .cfa -16 + ^ r6: .cfa -12 + ^ r7: .cfa -8 + ^
STACK CFI 70a62 .cfa: sp 40 +
STACK CFI INIT 70b20 c8 .cfa: sp 0 + .ra: lr
STACK CFI 70b24 .cfa: sp 20 + .ra: .cfa -4 + ^ r4: .cfa -20 + ^ r5: .cfa -16 + ^ r6: .cfa -12 + ^ r7: .cfa -8 + ^
STACK CFI 70b28 .cfa: sp 32 +
STACK CFI INIT 70be8 f4 .cfa: sp 0 + .ra: lr
STACK CFI 70bec .cfa: sp 24 + .ra: .cfa -4 + ^ r4: .cfa -24 + ^ r5: .cfa -20 + ^ r6: .cfa -16 + ^ r7: .cfa -12 + ^ r8: .cfa -8 + ^
STACK CFI 70bf2 .cfa: sp 80 +
STACK CFI INIT 70cdc 174 .cfa: sp 0 + .ra: lr
STACK CFI 70ce0 .cfa: sp 36 + .ra: .cfa -4 + ^ r10: .cfa -12 + ^ r11: .cfa -8 + ^ r4: .cfa -36 + ^ r5: .cfa -32 + ^ r6: .cfa -28 + ^ r7: .cfa -24 + ^ r8: .cfa -20 + ^ r9: .cfa -16 + ^
STACK CFI 70cea .cfa: sp 72 +
STACK CFI INIT 70e50 174 .cfa: sp 0 + .ra: lr
STACK CFI 70e54 .cfa: sp 36 + .ra: .cfa -4 + ^ r10: .cfa -12 + ^ r11: .cfa -8 + ^ r4: .cfa -36 + ^ r5: .cfa -32 + ^ r6: .cfa -28 + ^ r7: .cfa -24 + ^ r8: .cfa -20 + ^ r9: .cfa -16 + ^
STACK CFI 70e5e .cfa: sp 72 +
STACK CFI INIT 70fc4 1d0 .cfa: sp 0 + .ra: lr
STACK CFI 70fca .cfa: sp 32 + .ra: .cfa -4 + ^ r10: .cfa -8 + ^ r4: .cfa -32 + ^ r5: .cfa -28 + ^ r6: .cfa -24 + ^ r7: .cfa -20 + ^ r8: .cfa -16 + ^ r9: .cfa -12 + ^
STACK CFI 70fce .cfa: sp 40 +
STACK CFI INIT 71194 210 .cfa: sp 0 + .ra: lr
STACK CFI 71198 .cfa: sp 36 + .ra: .cfa -4 + ^ r10: .cfa -12 + ^ r11: .cfa -8 + ^ r4: .cfa -36 + ^ r5: .cfa -32 + ^ r6: .cfa -28 + ^ r7: .cfa -24 + ^ r8: .cfa -20 + ^ r9: .cfa -16 + ^
STACK CFI 7119e .cfa: sp 48 +
STACK CFI INIT 713a4 18c .cfa: sp 0 + .ra: lr
STACK CFI 713a8 .cfa: sp 36 + .ra: .cfa -4 + ^ r10: .cfa -12 + ^ r11: .cfa -8 + ^ r4: .cfa -36 + ^ r5: .cfa -32 + ^ r6: .cfa -28 + ^ r7: .cfa -24 + ^ r8: .cfa -20 + ^ r9: .cfa -16 + ^
STACK CFI 713aa .cfa: sp 72 +
STACK CFI INIT 71530 80 .cfa: sp 0 + .ra: lr
STACK CFI 71532 .cfa: sp 16 + .ra: .cfa -4 + ^ r4: .cfa -16 + ^ r5: .cfa -12 + ^ r7: .cfa -8 + ^
STACK CFI 71534 .cfa: sp 72 +
STACK CFI 71538 .cfa: r7 48 +
STACK CFI INIT 715b0 e4 .cfa: sp 0 + .ra: lr
STACK CFI 715b8 .cfa: sp 20 + .ra: .cfa -4 + ^ r4: .cfa -20 + ^ r5: .cfa -16 + ^ r6: .cfa -12 + ^ r7: .cfa -8 + ^
STACK CFI 715ba .cfa: sp 48 +
STACK CFI INIT 71694 c8 .cfa: sp 0 + .ra: lr
STACK CFI 7169a .cfa: sp 20 + .ra: .cfa -4 + ^ r4: .cfa -20 + ^ r5: .cfa -16 + ^ r6: .cfa -12 + ^ r7: .cfa -8 + ^
STACK CFI 7169e .cfa: sp 32 +
STACK CFI INIT 7175c 140 .cfa: sp 0 + .ra: lr
STACK CFI 71764 .cfa: sp 36 + .ra: .cfa -4 + ^ r10: .cfa -12 + ^ r11: .cfa -8 + ^ r4: .cfa -36 + ^ r5: .cfa -32 + ^ r6: .cfa -28 + ^ r7: .cfa -24 + ^ r8: .cfa -20 + ^ r9: .cfa -16 + ^
STACK CFI 71768 .cfa: sp 56 +
STACK CFI INIT 7189c 140 .cfa: sp 0 + .ra: lr
STACK CFI 718a4 .cfa: sp 36 + .ra: .cfa -4 + ^ r10: .cfa -12 + ^ r11: .cfa -8 + ^ r4: .cfa -36 + ^ r5: .cfa -32 + ^ r6: .cfa -28 + ^ r7: .cfa -24 + ^ r8: .cfa -20 + ^ r9: .cfa -16 + ^
STACK CFI 718a8 .cfa: sp 56 +
STACK CFI INIT 719dc c8 .cfa: sp 0 + .ra: lr
STACK CFI 719e2 .cfa: sp 20 + .ra: .cfa -4 + ^ r4: .cfa -20 + ^ r5: .cfa -16 + ^ r6: .cfa -12 + ^ r7: .cfa -8 + ^
STACK CFI 719e6 .cfa: sp 40 +
STACK CFI INIT 71aa4 c8 .cfa: sp 0 + .ra: lr
STACK CFI 71aa8 .cfa: sp 20 + .ra: .cfa -4 + ^ r4: .cfa -20 + ^ r5: .cfa -16 + ^ r6: .cfa -12 + ^ r7: .cfa -8 + ^
STACK CFI 71aac .cfa: sp 32 +
STACK CFI INIT 71b6c f4 .cfa: sp 0 + .ra: lr
STACK CFI 71b70 .cfa: sp 24 + .ra: .cfa -4 + ^ r4: .cfa -24 + ^ r5: .cfa -20 + ^ r6: .cfa -16 + ^ r7: .cfa -12 + ^ r8: .cfa -8 + ^
STACK CFI 71b76 .cfa: sp 80 +
STACK CFI INIT 71c60 174 .cfa: sp 0 + .ra: lr
STACK CFI 71c64 .cfa: sp 36 + .ra: .cfa -4 + ^ r10: .cfa -12 + ^ r11: .cfa -8 + ^ r4: .cfa -36 + ^ r5: .cfa -32 + ^ r6: .cfa -28 + ^ r7: .cfa -24 + ^ r8: .cfa -20 + ^ r9: .cfa -16 + ^
STACK CFI 71c6e .cfa: sp 72 +
STACK CFI INIT 71dd4 174 .cfa: sp 0 + .ra: lr
STACK CFI 71dd8 .cfa: sp 36 + .ra: .cfa -4 + ^ r10: .cfa -12 + ^ r11: .cfa -8 + ^ r4: .cfa -36 + ^ r5: .cfa -32 + ^ r6: .cfa -28 + ^ r7: .cfa -24 + ^ r8: .cfa -20 + ^ r9: .cfa -16 + ^
STACK CFI 71de2 .cfa: sp 72 +
STACK CFI INIT 71f48 180 .cfa: sp 0 + .ra: lr
STACK CFI 71f4a .cfa: sp 16 + .ra: .cfa -4 + ^ r4: .cfa -16 + ^ r5: .cfa -12 + ^ r6: .cfa -8 + ^
STACK CFI 71f4e .cfa: sp 24 +
STACK CFI INIT 720c8 1f4 .cfa: sp 0 + .ra: lr
STACK CFI 720cc .cfa: sp 36 + .ra: .cfa -4 + ^ r10: .cfa -12 + ^ r11: .cfa -8 + ^ r4: .cfa -36 + ^ r5: .cfa -32 + ^ r6: .cfa -28 + ^ r7: .cfa -24 + ^ r8: .cfa -20 + ^ r9: .cfa -16 + ^
STACK CFI 720d2 .cfa: sp 48 +
STACK CFI INIT 722c0 14 .cfa: sp 0 + .ra: lr
STACK CFI 722c2 .cfa: sp 4 + r7: .cfa -4 + ^
STACK CFI 722c8 .cfa: sp 0 + r7: r7
STACK CFI INIT 722e0 3e .cfa: sp 0 + .ra: lr
STACK CFI 722e2 .cfa: sp 4 + .ra: .cfa -4 + ^
STACK CFI INIT 72320 88 .cfa: sp 0 + .ra: lr
STACK CFI 72326 .cfa: sp 12 + .ra: .cfa -4 + ^ r4: .cfa -12 + ^ r5: .cfa -8 + ^
STACK CFI 7232a .cfa: sp 24 +
STACK CFI INIT 723a8 7c .cfa: sp 0 + .ra: lr
STACK CFI 723aa .cfa: sp 24 + .ra: .cfa -4 + ^ r3: .cfa -24 + ^ r4: .cfa -20 + ^ r5: .cfa -16 + ^ r6: .cfa -12 + ^ r7: .cfa -8 + ^
STACK CFI INIT 72424 16 .cfa: sp 0 + .ra: lr
STACK CFI 72426 .cfa: sp 4 + r4: .cfa -4 + ^
STACK CFI INIT 72440 14 .cfa: sp 0 + .ra: lr
STACK CFI 72442 .cfa: sp 4 + r7: .cfa -4 + ^
STACK CFI 72448 .cfa: sp 0 + r7: r7
STACK CFI INIT 72460 88 .cfa: sp 0 + .ra: lr
STACK CFI 72464 .cfa: sp 32 + .ra: .cfa -4 + ^ r3: .cfa -32 + ^ r4: .cfa -28 + ^ r5: .cfa -24 + ^ r6: .cfa -20 + ^ r7: .cfa -16 + ^ r8: .cfa -12 + ^ r9: .cfa -8 + ^
STACK CFI INIT 724e8 3e .cfa: sp 0 + .ra: lr
STACK CFI 724ea .cfa: sp 8 + .ra: .cfa -4 + ^ r4: .cfa -8 + ^
STACK CFI 724ec .cfa: sp 40 +
STACK CFI INIT 72528 1b0 .cfa: sp 0 + .ra: lr
STACK CFI 7252c .cfa: sp 36 + .ra: .cfa -4 + ^ r10: .cfa -12 + ^ r11: .cfa -8 + ^ r4: .cfa -36 + ^ r5: .cfa -32 + ^ r6: .cfa -28 + ^ r7: .cfa -24 + ^ r8: .cfa -20 + ^ r9: .cfa -16 + ^
STACK CFI 72530 .cfa: sp 448 +
STACK CFI INIT 726e0 14 .cfa: sp 0 + .ra: lr
STACK CFI 726e2 .cfa: sp 4 + r7: .cfa -4 + ^
STACK CFI 726e8 .cfa: sp 0 + r7: r7
STACK CFI INIT 72700 4c .cfa: sp 0 + .ra: lr
STACK CFI 72710 .cfa: sp 4 + r7: .cfa -4 + ^
STACK CFI 72718 .cfa: sp 0 + r7: r7
STACK CFI 72724 .cfa: sp 4 + r7: .cfa -4 + ^
STACK CFI 72726 .cfa: sp 8 + .ra: .cfa -8 + ^
STACK CFI 7273e .cfa: sp 4 + .ra: .ra
STACK CFI 72740 .cfa: sp 0 + r7: r7
STACK CFI INIT 72760 14 .cfa: sp 0 + .ra: lr
STACK CFI 72762 .cfa: sp 4 + r7: .cfa -4 + ^
STACK CFI 72768 .cfa: sp 0 + r7: r7
STACK CFI INIT 72780 4e .cfa: sp 0 + .ra: lr
STACK CFI 72790 .cfa: sp 4 + r7: .cfa -4 + ^
STACK CFI 72798 .cfa: sp 0 + r7: r7
STACK CFI 727a4 .cfa: sp 4 + r7: .cfa -4 + ^
STACK CFI 727a6 .cfa: sp 16 + .ra: .cfa -8 + ^
STACK CFI 727ae .cfa: sp 8 +
STACK CFI 727c0 .cfa: sp 4 + .ra: .ra
STACK CFI 727c2 .cfa: sp 0 + r7: r7
STACK CFI INIT 727e0 248 .cfa: sp 0 + .ra: lr
STACK CFI 727e6 .cfa: sp 40 + .ra: .cfa -4 + ^ r10: .cfa -12 + ^ r11: .cfa -8 + ^ r3: .cfa -40 + ^ r4: .cfa -36 + ^ r5: .cfa -32 + ^ r6: .cfa -28 + ^ r7: .cfa -24 + ^ r8: .cfa -20 + ^ r9: .cfa -16 + ^
STACK CFI 727ee .cfa: r7 40 +
STACK CFI INIT 72a30 32 .cfa: sp 0 + .ra: lr
STACK CFI 72a46 r7: r12
STACK CFI 72a48 .cfa: sp 4 +
STACK CFI 72a4e .cfa: sp 0 +
STACK CFI 72a50 r7: r7
STACK CFI INIT 72a70 58 .cfa: sp 0 + .ra: lr
STACK CFI 72a72 .cfa: sp 4 + .ra: .cfa -4 + ^
STACK CFI INIT 72ac8 2c .cfa: sp 0 + .ra: lr
STACK CFI 72aca .cfa: sp 4 + .ra: .cfa -4 + ^
STACK CFI INIT 72af4 98 .cfa: sp 0 + .ra: lr
STACK CFI 72afe .cfa: sp 20 + .ra: .cfa -4 + ^ r4: .cfa -20 + ^ r5: .cfa -16 + ^ r6: .cfa -12 + ^ r7: .cfa -8 + ^
STACK CFI 72b04 .cfa: sp 144 +
STACK CFI INIT 72b8c 18 .cfa: sp 0 + .ra: lr
STACK CFI INIT 72ba4 f2 .cfa: sp 0 + .ra: lr
STACK CFI 72ba6 .cfa: sp 12 + r1: .cfa -12 + ^ r2: .cfa -8 + ^ r3: .cfa -4 + ^
STACK CFI 72bac .cfa: sp 48 + .ra: .cfa -16 + ^ r10: .cfa -24 + ^ r11: .cfa -20 + ^ r4: .cfa -48 + ^ r5: .cfa -44 + ^ r6: .cfa -40 + ^ r7: .cfa -36 + ^ r8: .cfa -32 + ^ r9: .cfa -28 + ^
STACK CFI 72bb0 .cfa: sp 4144 +
STACK CFI 72bb2 .cfa: sp 4160 +
STACK CFI INIT 72c98 f8 .cfa: sp 0 + .ra: lr
STACK CFI 72c9a .cfa: sp 12 + r1: .cfa -12 + ^ r2: .cfa -8 + ^ r3: .cfa -4 + ^
STACK CFI 72ca0 .cfa: sp 48 + .ra: .cfa -16 + ^ r10: .cfa -24 + ^ r11: .cfa -20 + ^ r4: .cfa -48 + ^ r5: .cfa -44 + ^ r6: .cfa -40 + ^ r7: .cfa -36 + ^ r8: .cfa -32 + ^ r9: .cfa -28 + ^
STACK CFI 72ca4 .cfa: sp 4144 +
STACK CFI 72ca6 .cfa: sp 4160 +
STACK CFI INIT 72d90 18 .cfa: sp 0 + .ra: lr
STACK CFI INIT 72da8 d8 .cfa: sp 0 + .ra: lr
STACK CFI 72daa .cfa: sp 12 + r1: .cfa -12 + ^ r2: .cfa -8 + ^ r3: .cfa -4 + ^
STACK CFI 72db0 .cfa: sp 48 + .ra: .cfa -16 + ^ r10: .cfa -24 + ^ r11: .cfa -20 + ^ r4: .cfa -48 + ^ r5: .cfa -44 + ^ r6: .cfa -40 + ^ r7: .cfa -36 + ^ r8: .cfa -32 + ^ r9: .cfa -28 + ^
STACK CFI 72db4 .cfa: sp 4144 +
STACK CFI 72db6 .cfa: sp 4160 +
STACK CFI INIT 72e80 2f8 .cfa: sp 0 + .ra: lr
STACK CFI 72e84 .cfa: sp 36 + .ra: .cfa -4 + ^ r10: .cfa -12 + ^ r11: .cfa -8 + ^ r4: .cfa -36 + ^ r5: .cfa -32 + ^ r6: .cfa -28 + ^ r7: .cfa -24 + ^ r8: .cfa -20 + ^ r9: .cfa -16 + ^
STACK CFI 72e86 .cfa: sp 72 +
STACK CFI 72e8a .cfa: r7 72 +
STACK CFI INIT 73178 34 .cfa: sp 0 + .ra: lr
STACK CFI 73182 .cfa: sp 4 + .ra: .cfa -4 + ^
STACK CFI INIT 731b0 a .cfa: sp 0 + .ra: lr
STACK CFI 731b2 .cfa: sp 4 + r7: .cfa -4 + ^
STACK CFI 731b8 .cfa: sp 0 + r7: r7
STACK CFI INIT 731c0 e .cfa: sp 0 + .ra: lr
STACK CFI 731c2 .cfa: sp 4 + .ra: .cfa -4 + ^
STACK CFI INIT 731d0 e .cfa: sp 0 + .ra: lr
STACK CFI 731d2 .cfa: sp 4 + .ra: .cfa -4 + ^
STACK CFI INIT 731e0 e .cfa: sp 0 + .ra: lr
STACK CFI 731e2 .cfa: sp 4 + .ra: .cfa -4 + ^
STACK CFI INIT 731f0 e .cfa: sp 0 + .ra: lr
STACK CFI 731f2 .cfa: sp 4 + .ra: .cfa -4 + ^
STACK CFI INIT 73200 2c .cfa: sp 0 + .ra: lr
STACK CFI 73202 .cfa: sp 4 + .ra: .cfa -4 + ^
STACK CFI INIT 7322c 54 .cfa: sp 0 + .ra: lr
STACK CFI 73230 .cfa: sp 4 + .ra: .cfa -4 + ^
STACK CFI 73234 .cfa: sp 32 +
STACK CFI INIT 73280 54 .cfa: sp 0 + .ra: lr
STACK CFI 73284 .cfa: sp 4 + .ra: .cfa -4 + ^
STACK CFI 73288 .cfa: sp 32 +
STACK CFI INIT 732d4 46 .cfa: sp 0 + .ra: lr
STACK CFI 732d6 .cfa: sp 24 + .ra: .cfa -4 + ^ r3: .cfa -24 + ^ r4: .cfa -20 + ^ r5: .cfa -16 + ^ r6: .cfa -12 + ^ r7: .cfa -8 + ^
STACK CFI 732da .cfa: r7 24 +
STACK CFI INIT 73320 14 .cfa: sp 0 + .ra: lr
STACK CFI 73322 .cfa: sp 4 + r7: .cfa -4 + ^
STACK CFI 73328 .cfa: sp 0 + r7: r7
STACK CFI INIT 73340 14 .cfa: sp 0 + .ra: lr
STACK CFI 73342 .cfa: sp 4 + r7: .cfa -4 + ^
STACK CFI 73348 .cfa: sp 0 + r7: r7
STACK CFI INIT 73360 a .cfa: sp 0 + .ra: lr
STACK CFI 73362 .cfa: sp 4 + r7: .cfa -4 + ^
STACK CFI 73368 .cfa: sp 0 + r7: r7
STACK CFI INIT 73370 4 .cfa: sp 0 + .ra: lr
STACK CFI INIT 73374 8 .cfa: sp 0 + .ra: lr
STACK CFI INIT 73380 14 .cfa: sp 0 + .ra: lr
STACK CFI 73382 .cfa: sp 4 + r7: .cfa -4 + ^
STACK CFI 73388 .cfa: sp 0 + r7: r7
STACK CFI INIT 733a0 14 .cfa: sp 0 + .ra: lr
STACK CFI 733a2 .cfa: sp 4 + r7: .cfa -4 + ^
STACK CFI 733a8 .cfa: sp 0 + r7: r7
STACK CFI INIT 733c0 2c .cfa: sp 0 + .ra: lr
STACK CFI 733c2 .cfa: sp 4 + .ra: .cfa -4 + ^
STACK CFI INIT 733ec 2c .cfa: sp 0 + .ra: lr
STACK CFI 733ee .cfa: sp 4 + .ra: .cfa -4 + ^
STACK CFI INIT 73418 58 .cfa: sp 0 + .ra: lr
STACK CFI 7341c .cfa: sp 16 + .ra: .cfa -4 + ^ r4: .cfa -16 + ^ r5: .cfa -12 + ^ r6: .cfa -8 + ^
STACK CFI 73420 .cfa: sp 40 +
STACK CFI INIT 73470 58 .cfa: sp 0 + .ra: lr
STACK CFI 73474 .cfa: sp 16 + .ra: .cfa -4 + ^ r4: .cfa -16 + ^ r5: .cfa -12 + ^ r6: .cfa -8 + ^
STACK CFI 73478 .cfa: sp 40 +
STACK CFI INIT 734c8 1d4 .cfa: sp 0 + .ra: lr
STACK CFI 734cc .cfa: sp 36 + .ra: .cfa -4 + ^ r10: .cfa -12 + ^ r11: .cfa -8 + ^ r4: .cfa -36 + ^ r5: .cfa -32 + ^ r6: .cfa -28 + ^ r7: .cfa -24 + ^ r8: .cfa -20 + ^ r9: .cfa -16 + ^
STACK CFI 734d0 .cfa: sp 5444 +
STACK CFI 734d2 .cfa: sp 5472 +
STACK CFI 734d4 .cfa: r7 5464 +
STACK CFI INIT 7369c 108 .cfa: sp 0 + .ra: lr
STACK CFI 736a0 .cfa: sp 8 + r4: .cfa -8 + ^ r5: .cfa -4 + ^
STACK CFI INIT 737a4 fc .cfa: sp 0 + .ra: lr
STACK CFI INIT 738a0 98 .cfa: sp 0 + .ra: lr
STACK CFI INIT 73938 c0 .cfa: sp 0 + .ra: lr
STACK CFI 7393c .cfa: sp 20 + .ra: .cfa -4 + ^ r4: .cfa -20 + ^ r5: .cfa -16 + ^ r6: .cfa -12 + ^ r7: .cfa -8 + ^
STACK CFI 7393e .cfa: sp 32 +
STACK CFI INIT 739f8 15c .cfa: sp 0 + .ra: lr
STACK CFI 739fa .cfa: sp 12 + .ra: .cfa -4 + ^ r4: .cfa -12 + ^ r5: .cfa -8 + ^
STACK CFI 739fe .cfa: sp 120 +
STACK CFI INIT 73b54 6b4 .cfa: sp 0 + .ra: lr
STACK CFI 73b5a .cfa: sp 20 + .ra: .cfa -4 + ^ r4: .cfa -20 + ^ r5: .cfa -16 + ^ r6: .cfa -12 + ^ r7: .cfa -8 + ^
STACK CFI 73b5e .cfa: sp 64 +
STACK CFI INIT 74208 170 .cfa: sp 0 + .ra: lr
STACK CFI 7420a .cfa: sp 12 + .ra: .cfa -4 + ^ r4: .cfa -12 + ^ r5: .cfa -8 + ^
STACK CFI 7420e .cfa: sp 120 +
STACK CFI INIT 74378 4a .cfa: sp 0 + .ra: lr
STACK CFI INIT 743c4 9c .cfa: sp 0 + .ra: lr
STACK CFI 743c8 .cfa: sp 36 + .ra: .cfa -4 + ^ r10: .cfa -12 + ^ r11: .cfa -8 + ^ r4: .cfa -36 + ^ r5: .cfa -32 + ^ r6: .cfa -28 + ^ r7: .cfa -24 + ^ r8: .cfa -20 + ^ r9: .cfa -16 + ^
STACK CFI 743ca .cfa: sp 48 +
STACK CFI INIT 74460 1e .cfa: sp 0 + .ra: lr
STACK CFI INIT 16368 56 .cfa: sp 0 + .ra: lr
STACK CFI 1636c .cfa: sp 28 + .ra: .cfa -4 + ^ r4: .cfa -28 + ^ r5: .cfa -24 + ^ r6: .cfa -20 + ^ r7: .cfa -16 + ^ r8: .cfa -12 + ^ r9: .cfa -8 + ^
STACK CFI 1636e .cfa: sp 120 +
STACK CFI 16372 .cfa: r7 120 +
STACK CFI INIT 74480 2e .cfa: sp 0 + .ra: lr
STACK CFI 74482 .cfa: sp 16 + .ra: .cfa -4 + ^ r3: .cfa -16 + ^ r4: .cfa -12 + ^ r5: .cfa -8 + ^
STACK CFI INIT 744b0 4e .cfa: sp 0 + .ra: lr
STACK CFI INIT 74500 4e0 .cfa: sp 0 + .ra: lr
STACK CFI 74504 .cfa: sp 36 + .ra: .cfa -4 + ^ r10: .cfa -12 + ^ r11: .cfa -8 + ^ r4: .cfa -36 + ^ r5: .cfa -32 + ^ r6: .cfa -28 + ^ r7: .cfa -24 + ^ r8: .cfa -20 + ^ r9: .cfa -16 + ^
STACK CFI 74508 .cfa: sp 760 +
STACK CFI 7450a .cfa: r7 752 +
STACK CFI INIT 749e0 10da .cfa: sp 0 + .ra: lr
STACK CFI 749e4 .cfa: sp 36 + .ra: .cfa -4 + ^ r10: .cfa -12 + ^ r11: .cfa -8 + ^ r4: .cfa -36 + ^ r5: .cfa -32 + ^ r6: .cfa -28 + ^ r7: .cfa -24 + ^ r8: .cfa -20 + ^ r9: .cfa -16 + ^
STACK CFI 749e6 .cfa: sp 360 +
STACK CFI 749ee .cfa: r7 352 +
STACK CFI INIT 75abc e .cfa: sp 0 + .ra: lr
STACK CFI 75abe .cfa: sp 8 + .ra: .cfa -4 + ^ r3: .cfa -8 + ^
STACK CFI INIT 75acc 4a .cfa: sp 0 + .ra: lr
STACK CFI INIT 75b18 9c .cfa: sp 0 + .ra: lr
STACK CFI 75b1c .cfa: sp 36 + .ra: .cfa -4 + ^ r10: .cfa -12 + ^ r11: .cfa -8 + ^ r4: .cfa -36 + ^ r5: .cfa -32 + ^ r6: .cfa -28 + ^ r7: .cfa -24 + ^ r8: .cfa -20 + ^ r9: .cfa -16 + ^
STACK CFI 75b1e .cfa: sp 48 +
STACK CFI INIT 75bb4 1e .cfa: sp 0 + .ra: lr
STACK CFI INIT 163c0 56 .cfa: sp 0 + .ra: lr
STACK CFI 163c4 .cfa: sp 28 + .ra: .cfa -4 + ^ r4: .cfa -28 + ^ r5: .cfa -24 + ^ r6: .cfa -20 + ^ r7: .cfa -16 + ^ r8: .cfa -12 + ^ r9: .cfa -8 + ^
STACK CFI 163c6 .cfa: sp 136 +
STACK CFI 163ca .cfa: r7 136 +
STACK CFI INIT 75bd4 48c .cfa: sp 0 + .ra: lr
STACK CFI 75bd8 .cfa: sp 36 + .ra: .cfa -4 + ^ r10: .cfa -12 + ^ r11: .cfa -8 + ^ r4: .cfa -36 + ^ r5: .cfa -32 + ^ r6: .cfa -28 + ^ r7: .cfa -24 + ^ r8: .cfa -20 + ^ r9: .cfa -16 + ^
STACK CFI 75bda .cfa: sp 472 +
STACK CFI 75bdc .cfa: r7 464 +
STACK CFI INIT 76060 2e .cfa: sp 0 + .ra: lr
STACK CFI 76062 .cfa: sp 16 + .ra: .cfa -4 + ^ r3: .cfa -16 + ^ r4: .cfa -12 + ^ r5: .cfa -8 + ^
STACK CFI INIT 76090 10da .cfa: sp 0 + .ra: lr
STACK CFI 76094 .cfa: sp 36 + .ra: .cfa -4 + ^ r10: .cfa -12 + ^ r11: .cfa -8 + ^ r4: .cfa -36 + ^ r5: .cfa -32 + ^ r6: .cfa -28 + ^ r7: .cfa -24 + ^ r8: .cfa -20 + ^ r9: .cfa -16 + ^
STACK CFI 76096 .cfa: sp 376 +
STACK CFI 7609e .cfa: r7 368 +
STACK CFI INIT 7716c d0 .cfa: sp 0 + .ra: lr
STACK CFI 77170 .cfa: sp 32 + .ra: .cfa -4 + ^ r3: .cfa -32 + ^ r4: .cfa -28 + ^ r5: .cfa -24 + ^ r6: .cfa -20 + ^ r7: .cfa -16 + ^ r8: .cfa -12 + ^ r9: .cfa -8 + ^
STACK CFI INIT 7723c c8 .cfa: sp 0 + .ra: lr
STACK CFI 77240 .cfa: sp 32 + .ra: .cfa -4 + ^ r3: .cfa -32 + ^ r4: .cfa -28 + ^ r5: .cfa -24 + ^ r6: .cfa -20 + ^ r7: .cfa -16 + ^ r8: .cfa -12 + ^ r9: .cfa -8 + ^
STACK CFI INIT 16418 4c8 .cfa: sp 0 + .ra: lr
STACK CFI 1641c .cfa: sp 36 + .ra: .cfa -4 + ^ r10: .cfa -12 + ^ r11: .cfa -8 + ^ r4: .cfa -36 + ^ r5: .cfa -32 + ^ r6: .cfa -28 + ^ r7: .cfa -24 + ^ r8: .cfa -20 + ^ r9: .cfa -16 + ^
STACK CFI 1641e .cfa: sp 112 +
STACK CFI 16424 .cfa: r7 96 +
STACK CFI INIT 77304 f92 .cfa: sp 0 + .ra: lr
STACK CFI 77308 .cfa: sp 36 + .ra: .cfa -4 + ^ r10: .cfa -12 + ^ r11: .cfa -8 + ^ r4: .cfa -36 + ^ r5: .cfa -32 + ^ r6: .cfa -28 + ^ r7: .cfa -24 + ^ r8: .cfa -20 + ^ r9: .cfa -16 + ^
STACK CFI 7730c .cfa: sp 10404 +
STACK CFI 7730e .cfa: sp 10408 +
STACK CFI 77314 .cfa: r7 10392 +
STACK CFI INIT 168e0 4b4 .cfa: sp 0 + .ra: lr
STACK CFI 168e4 .cfa: sp 36 + .ra: .cfa -4 + ^ r10: .cfa -12 + ^ r11: .cfa -8 + ^ r4: .cfa -36 + ^ r5: .cfa -32 + ^ r6: .cfa -28 + ^ r7: .cfa -24 + ^ r8: .cfa -20 + ^ r9: .cfa -16 + ^
STACK CFI 168e6 .cfa: sp 112 +
STACK CFI 168e8 .cfa: r7 96 +
STACK CFI INIT 78298 f30 .cfa: sp 0 + .ra: lr
STACK CFI 7829c .cfa: sp 36 + .ra: .cfa -4 + ^ r10: .cfa -12 + ^ r11: .cfa -8 + ^ r4: .cfa -36 + ^ r5: .cfa -32 + ^ r6: .cfa -28 + ^ r7: .cfa -24 + ^ r8: .cfa -20 + ^ r9: .cfa -16 + ^
STACK CFI 782a0 .cfa: sp 2208 +
STACK CFI INIT 791c8 288 .cfa: sp 0 + .ra: lr
STACK CFI 791cc .cfa: sp 36 + .ra: .cfa -4 + ^ r10: .cfa -12 + ^ r11: .cfa -8 + ^ r4: .cfa -36 + ^ r5: .cfa -32 + ^ r6: .cfa -28 + ^ r7: .cfa -24 + ^ r8: .cfa -20 + ^ r9: .cfa -16 + ^
STACK CFI 791ce .cfa: sp 96 +
STACK CFI 791d2 .cfa: r7 80 +
STACK CFI INIT 79450 1fc .cfa: sp 0 + .ra: lr
STACK CFI 7945a .cfa: sp 32 + .ra: .cfa -4 + ^ r10: .cfa -8 + ^ r4: .cfa -32 + ^ r5: .cfa -28 + ^ r6: .cfa -24 + ^ r7: .cfa -20 + ^ r8: .cfa -16 + ^ r9: .cfa -12 + ^
STACK CFI 7945e .cfa: sp 120 +
STACK CFI INIT 7964c a4 .cfa: sp 0 + .ra: lr
STACK CFI 79650 .cfa: sp 32 + r10: .cfa -8 + ^ r11: .cfa -4 + ^ r4: .cfa -32 + ^ r5: .cfa -28 + ^ r6: .cfa -24 + ^ r7: .cfa -20 + ^ r8: .cfa -16 + ^ r9: .cfa -12 + ^
STACK CFI 79652 .cfa: sp 40 +
STACK CFI INIT 796f0 bac .cfa: sp 0 + .ra: lr
STACK CFI 796f4 .cfa: sp 36 + .ra: .cfa -4 + ^ r10: .cfa -12 + ^ r11: .cfa -8 + ^ r4: .cfa -36 + ^ r5: .cfa -32 + ^ r6: .cfa -28 + ^ r7: .cfa -24 + ^ r8: .cfa -20 + ^ r9: .cfa -16 + ^
STACK CFI 796f6 .cfa: sp 120 +
STACK CFI 796f8 .cfa: r7 112 +
STACK CFI INIT 7a29c 70 .cfa: sp 0 + .ra: lr
STACK CFI 7a2a0 .cfa: sp 24 + .ra: .cfa -4 + ^ r4: .cfa -24 + ^ r5: .cfa -20 + ^ r6: .cfa -16 + ^ r7: .cfa -12 + ^ r9: .cfa -8 + ^
STACK CFI 7a2a2 .cfa: sp 40 +
STACK CFI INIT 7a30c 16 .cfa: sp 0 + .ra: lr
STACK CFI 7a30e .cfa: sp 8 + .ra: .cfa -4 + ^ r4: .cfa -8 + ^
STACK CFI 7a310 .cfa: sp 24 +
STACK CFI INIT 7a324 18 .cfa: sp 0 + .ra: lr
STACK CFI 7a326 .cfa: sp 12 + .ra: .cfa -4 + ^ r4: .cfa -12 + ^ r5: .cfa -8 + ^
STACK CFI 7a328 .cfa: sp 32 +
STACK CFI INIT 7a33c 16 .cfa: sp 0 + .ra: lr
STACK CFI 7a33e .cfa: sp 12 + .ra: .cfa -4 + ^ r4: .cfa -12 + ^ r5: .cfa -8 + ^
STACK CFI 7a340 .cfa: sp 32 +
STACK CFI INIT 7a354 1a .cfa: sp 0 + .ra: lr
STACK CFI 7a356 .cfa: sp 16 + .ra: .cfa -4 + ^ r4: .cfa -16 + ^ r5: .cfa -12 + ^ r6: .cfa -8 + ^
STACK CFI 7a358 .cfa: sp 32 +
STACK CFI INIT 7a370 18 .cfa: sp 0 + .ra: lr
STACK CFI 7a372 .cfa: sp 16 + .ra: .cfa -4 + ^ r4: .cfa -16 + ^ r5: .cfa -12 + ^ r6: .cfa -8 + ^
STACK CFI 7a374 .cfa: sp 32 +
STACK CFI INIT 7a388 1c .cfa: sp 0 + .ra: lr
STACK CFI 7a38a .cfa: sp 20 + .ra: .cfa -4 + ^ r4: .cfa -20 + ^ r5: .cfa -16 + ^ r6: .cfa -12 + ^ r7: .cfa -8 + ^
STACK CFI 7a38c .cfa: sp 40 +
STACK CFI INIT 7a3b0 14 .cfa: sp 0 + .ra: lr
STACK CFI 7a3b2 .cfa: sp 4 + r7: .cfa -4 + ^
STACK CFI 7a3b8 .cfa: sp 0 + r7: r7
STACK CFI INIT 7a3d0 14 .cfa: sp 0 + .ra: lr
STACK CFI 7a3d2 .cfa: sp 4 + r7: .cfa -4 + ^
STACK CFI 7a3d8 .cfa: sp 0 + r7: r7
STACK CFI INIT 7a3f0 14 .cfa: sp 0 + .ra: lr
STACK CFI 7a3f2 .cfa: sp 4 + r7: .cfa -4 + ^
STACK CFI 7a3f8 .cfa: sp 0 + r7: r7
STACK CFI INIT 7a410 14 .cfa: sp 0 + .ra: lr
STACK CFI 7a412 .cfa: sp 4 + r7: .cfa -4 + ^
STACK CFI 7a418 .cfa: sp 0 + r7: r7
STACK CFI INIT 7a430 14 .cfa: sp 0 + .ra: lr
STACK CFI 7a432 .cfa: sp 4 + r7: .cfa -4 + ^
STACK CFI 7a438 .cfa: sp 0 + r7: r7
STACK CFI INIT 7a450 14 .cfa: sp 0 + .ra: lr
STACK CFI 7a452 .cfa: sp 4 + r7: .cfa -4 + ^
STACK CFI 7a458 .cfa: sp 0 + r7: r7
STACK CFI INIT 7a470 14 .cfa: sp 0 + .ra: lr
STACK CFI 7a472 .cfa: sp 4 + r7: .cfa -4 + ^
STACK CFI 7a478 .cfa: sp 0 + r7: r7
STACK CFI INIT 7a490 14 .cfa: sp 0 + .ra: lr
STACK CFI 7a492 .cfa: sp 4 + r7: .cfa -4 + ^
STACK CFI 7a498 .cfa: sp 0 + r7: r7
STACK CFI INIT 7a4b0 44 .cfa: sp 0 + .ra: lr
STACK CFI 7a4b2 .cfa: sp 16 + .ra: .cfa -4 + ^ r3: .cfa -16 + ^ r4: .cfa -12 + ^ r5: .cfa -8 + ^
STACK CFI INIT 7a4f4 104 .cfa: sp 0 + .ra: lr
STACK CFI 7a4f8 .cfa: sp 32 + .ra: .cfa -4 + ^ r3: .cfa -32 + ^ r4: .cfa -28 + ^ r5: .cfa -24 + ^ r6: .cfa -20 + ^ r7: .cfa -16 + ^ r8: .cfa -12 + ^ r9: .cfa -8 + ^
STACK CFI 7a4fe .cfa: r7 32 +
STACK CFI INIT 7a5f8 8c .cfa: sp 0 + .ra: lr
STACK CFI 7a5fc .cfa: sp 32 + .ra: .cfa -4 + ^ r3: .cfa -32 + ^ r4: .cfa -28 + ^ r5: .cfa -24 + ^ r6: .cfa -20 + ^ r7: .cfa -16 + ^ r8: .cfa -12 + ^ r9: .cfa -8 + ^
STACK CFI INIT 7a684 8c .cfa: sp 0 + .ra: lr
STACK CFI 7a688 .cfa: sp 32 + .ra: .cfa -4 + ^ r3: .cfa -32 + ^ r4: .cfa -28 + ^ r5: .cfa -24 + ^ r6: .cfa -20 + ^ r7: .cfa -16 + ^ r8: .cfa -12 + ^ r9: .cfa -8 + ^
STACK CFI INIT 7a710 88 .cfa: sp 0 + .ra: lr
STACK CFI 7a714 .cfa: sp 32 + .ra: .cfa -4 + ^ r3: .cfa -32 + ^ r4: .cfa -28 + ^ r5: .cfa -24 + ^ r6: .cfa -20 + ^ r7: .cfa -16 + ^ r8: .cfa -12 + ^ r9: .cfa -8 + ^
STACK CFI INIT 7a798 88 .cfa: sp 0 + .ra: lr
STACK CFI 7a79c .cfa: sp 32 + .ra: .cfa -4 + ^ r3: .cfa -32 + ^ r4: .cfa -28 + ^ r5: .cfa -24 + ^ r6: .cfa -20 + ^ r7: .cfa -16 + ^ r8: .cfa -12 + ^ r9: .cfa -8 + ^
STACK CFI INIT 7a820 1a .cfa: sp 0 + .ra: lr
STACK CFI 7a824 .cfa: sp 4 + .ra: .cfa -4 + ^
STACK CFI INIT 7a83c 1c .cfa: sp 0 + .ra: lr
STACK CFI 7a83e .cfa: sp 4 + .ra: .cfa -4 + ^
STACK CFI 7a840 .cfa: sp 16 +
STACK CFI INIT 7a858 56 .cfa: sp 0 + .ra: lr
STACK CFI 7a85e .cfa: sp 8 + r4: .cfa -8 + ^ r5: .cfa -4 + ^
STACK CFI INIT 7a8b0 a .cfa: sp 0 + .ra: lr
STACK CFI INIT 7a8bc 4 .cfa: sp 0 + .ra: lr
STACK CFI INIT 7a8c0 16 .cfa: sp 0 + .ra: lr
STACK CFI INIT 7a8d8 16 .cfa: sp 0 + .ra: lr
STACK CFI INIT bd4bc 64 .cfa: sp 0 + .ra: lr
STACK CFI bd4be .cfa: sp 8 + .ra: .cfa -4 + ^ r3: .cfa -8 + ^
STACK CFI INIT 7a8f0 a .cfa: sp 0 + .ra: lr
STACK CFI INIT 7a8fc aa .cfa: sp 0 + .ra: lr
STACK CFI 7a902 .cfa: sp 24 + r4: .cfa -24 + ^ r5: .cfa -20 + ^ r6: .cfa -16 + ^ r7: .cfa -12 + ^ r8: .cfa -8 + ^ r9: .cfa -4 + ^
STACK CFI 7a906 .cfa: sp 56 +
STACK CFI INIT 7a9a8 894 .cfa: sp 0 + .ra: lr
STACK CFI 7a9b0 .cfa: sp 36 + .ra: .cfa -4 + ^ r10: .cfa -12 + ^ r11: .cfa -8 + ^ r4: .cfa -36 + ^ r5: .cfa -32 + ^ r6: .cfa -28 + ^ r7: .cfa -24 + ^ r8: .cfa -20 + ^ r9: .cfa -16 + ^
STACK CFI 7a9b2 .cfa: sp 224 +
STACK CFI INIT 7b23c 86 .cfa: sp 0 + .ra: lr
STACK CFI 7b240 .cfa: sp 36 + .ra: .cfa -4 + ^ r10: .cfa -12 + ^ r11: .cfa -8 + ^ r4: .cfa -36 + ^ r5: .cfa -32 + ^ r6: .cfa -28 + ^ r7: .cfa -24 + ^ r8: .cfa -20 + ^ r9: .cfa -16 + ^
STACK CFI 7b242 .cfa: sp 80 +
STACK CFI 7b244 .cfa: r7 72 +
STACK CFI INIT 7b2c4 1860 .cfa: sp 0 + .ra: lr
STACK CFI 7b2c8 .cfa: sp 36 + .ra: .cfa -4 + ^ r10: .cfa -12 + ^ r11: .cfa -8 + ^ r4: .cfa -36 + ^ r5: .cfa -32 + ^ r6: .cfa -28 + ^ r7: .cfa -24 + ^ r8: .cfa -20 + ^ r9: .cfa -16 + ^
STACK CFI 7b2ca .cfa: sp 216 +
STACK CFI 7b2d2 .cfa: r7 192 +
STACK CFI INIT 7cb24 8c .cfa: sp 0 + .ra: lr
STACK CFI 7cb28 .cfa: sp 8 + r4: .cfa -8 + ^ r5: .cfa -4 + ^
STACK CFI INIT 7cbb0 49c .cfa: sp 0 + .ra: lr
STACK CFI 7cbb6 .cfa: sp 36 + .ra: .cfa -4 + ^ r10: .cfa -12 + ^ r11: .cfa -8 + ^ r4: .cfa -36 + ^ r5: .cfa -32 + ^ r6: .cfa -28 + ^ r7: .cfa -24 + ^ r8: .cfa -20 + ^ r9: .cfa -16 + ^
STACK CFI 7cbbc .cfa: sp 80 +
STACK CFI INIT 7d04c 1e .cfa: sp 0 + .ra: lr
STACK CFI 7d04e .cfa: sp 16 + .ra: .cfa -4 + ^ r3: .cfa -16 + ^ r4: .cfa -12 + ^ r5: .cfa -8 + ^
STACK CFI INIT 7d06c 748 .cfa: sp 0 + .ra: lr
STACK CFI 7d070 .cfa: sp 36 + .ra: .cfa -4 + ^ r10: .cfa -12 + ^ r11: .cfa -8 + ^ r4: .cfa -36 + ^ r5: .cfa -32 + ^ r6: .cfa -28 + ^ r7: .cfa -24 + ^ r8: .cfa -20 + ^ r9: .cfa -16 + ^
STACK CFI 7d072 .cfa: sp 304 +
STACK CFI 7d074 .cfa: r7 296 +
STACK CFI INIT 7d7b4 40 .cfa: sp 0 + .ra: lr
STACK CFI 7d7ba .cfa: sp 4 + r4: .cfa -4 + ^
STACK CFI INIT 7d7f4 30 .cfa: sp 0 + .ra: lr
STACK CFI 7d7f6 .cfa: sp 8 + r4: .cfa -8 + ^ r5: .cfa -4 + ^
STACK CFI INIT 7d824 ca .cfa: sp 0 + .ra: lr
STACK CFI 7d826 .cfa: sp 8 + r4: .cfa -8 + ^ r5: .cfa -4 + ^
STACK CFI INIT 7d8f0 18 .cfa: sp 0 + .ra: lr
STACK CFI INIT 7d908 15c .cfa: sp 0 + .ra: lr
STACK CFI 7d90c .cfa: sp 36 + .ra: .cfa -4 + ^ r10: .cfa -12 + ^ r11: .cfa -8 + ^ r4: .cfa -36 + ^ r5: .cfa -32 + ^ r6: .cfa -28 + ^ r7: .cfa -24 + ^ r8: .cfa -20 + ^ r9: .cfa -16 + ^
STACK CFI 7d90e .cfa: sp 88 +
STACK CFI INIT 7da64 48 .cfa: sp 0 + .ra: lr
STACK CFI 7da66 .cfa: sp 12 + r4: .cfa -12 + ^ r5: .cfa -8 + ^ r6: .cfa -4 + ^
STACK CFI INIT 7daac 36 .cfa: sp 0 + .ra: lr
STACK CFI 7daae .cfa: sp 24 + .ra: .cfa -4 + ^ r3: .cfa -24 + ^ r4: .cfa -20 + ^ r5: .cfa -16 + ^ r6: .cfa -12 + ^ r7: .cfa -8 + ^
STACK CFI INIT 7dae4 32 .cfa: sp 0 + .ra: lr
STACK CFI 7dae6 .cfa: sp 24 + .ra: .cfa -4 + ^ r3: .cfa -24 + ^ r4: .cfa -20 + ^ r5: .cfa -16 + ^ r6: .cfa -12 + ^ r7: .cfa -8 + ^
STACK CFI INIT 7db18 52 .cfa: sp 0 + .ra: lr
STACK CFI 7db1c .cfa: sp 16 + .ra: .cfa -4 + ^ r4: .cfa -16 + ^ r5: .cfa -12 + ^ r6: .cfa -8 + ^
STACK CFI INIT 7db6c 3a .cfa: sp 0 + .ra: lr
STACK CFI 7db6e .cfa: sp 16 + .ra: .cfa -4 + ^ r3: .cfa -16 + ^ r4: .cfa -12 + ^ r5: .cfa -8 + ^
STACK CFI INIT 7dba8 160 .cfa: sp 0 + .ra: lr
STACK CFI 7dbac .cfa: sp 36 + .ra: .cfa -4 + ^ r10: .cfa -12 + ^ r11: .cfa -8 + ^ r4: .cfa -36 + ^ r5: .cfa -32 + ^ r6: .cfa -28 + ^ r7: .cfa -24 + ^ r8: .cfa -20 + ^ r9: .cfa -16 + ^
STACK CFI 7dbae .cfa: sp 48 +
STACK CFI INIT 7dd08 52 .cfa: sp 0 + .ra: lr
STACK CFI 7dd0a .cfa: sp 24 + .ra: .cfa -4 + ^ r3: .cfa -24 + ^ r4: .cfa -20 + ^ r5: .cfa -16 + ^ r6: .cfa -12 + ^ r7: .cfa -8 + ^
STACK CFI INIT 7dd5c 26 .cfa: sp 0 + .ra: lr
STACK CFI 7dd5e .cfa: sp 16 + .ra: .cfa -4 + ^ r3: .cfa -16 + ^ r4: .cfa -12 + ^ r5: .cfa -8 + ^
STACK CFI INIT 7dd84 a0 .cfa: sp 0 + .ra: lr
STACK CFI 7dd88 .cfa: sp 24 + .ra: .cfa -4 + ^ r4: .cfa -24 + ^ r5: .cfa -20 + ^ r6: .cfa -16 + ^ r7: .cfa -12 + ^ r8: .cfa -8 + ^
STACK CFI INIT 7de24 180 .cfa: sp 0 + .ra: lr
STACK CFI 7de28 .cfa: sp 24 + .ra: .cfa -4 + ^ r4: .cfa -24 + ^ r5: .cfa -20 + ^ r6: .cfa -16 + ^ r7: .cfa -12 + ^ r8: .cfa -8 + ^
STACK CFI INIT 7dfa4 13c .cfa: sp 0 + .ra: lr
STACK CFI 7dfaa .cfa: sp 36 + .ra: .cfa -4 + ^ r10: .cfa -12 + ^ r11: .cfa -8 + ^ r4: .cfa -36 + ^ r5: .cfa -32 + ^ r6: .cfa -28 + ^ r7: .cfa -24 + ^ r8: .cfa -20 + ^ r9: .cfa -16 + ^
STACK CFI 7dfae .cfa: sp 72 +
STACK CFI INIT 7e0e0 404 .cfa: sp 0 + .ra: lr
STACK CFI 7e0e6 .cfa: sp 36 + .ra: .cfa -4 + ^ r10: .cfa -12 + ^ r11: .cfa -8 + ^ r4: .cfa -36 + ^ r5: .cfa -32 + ^ r6: .cfa -28 + ^ r7: .cfa -24 + ^ r8: .cfa -20 + ^ r9: .cfa -16 + ^
STACK CFI 7e0ea .cfa: sp 104 +
STACK CFI INIT 7e4e4 70 .cfa: sp 0 + .ra: lr
STACK CFI 7e4e6 .cfa: sp 16 + r4: .cfa -16 + ^ r5: .cfa -12 + ^ r6: .cfa -8 + ^ r7: .cfa -4 + ^
STACK CFI INIT 7e554 76 .cfa: sp 0 + .ra: lr
STACK CFI 7e556 .cfa: sp 16 + .ra: .cfa -4 + ^ r3: .cfa -16 + ^ r4: .cfa -12 + ^ r5: .cfa -8 + ^
STACK CFI INIT 7e5cc 54 .cfa: sp 0 + .ra: lr
STACK CFI 7e5d0 .cfa: sp 16 + .ra: .cfa -4 + ^ r4: .cfa -16 + ^ r5: .cfa -12 + ^ r6: .cfa -8 + ^
STACK CFI INIT 7e620 86 .cfa: sp 0 + .ra: lr
STACK CFI 7e624 .cfa: sp 16 + .ra: .cfa -4 + ^ r3: .cfa -16 + ^ r4: .cfa -12 + ^ r5: .cfa -8 + ^
STACK CFI INIT 7e6a8 9c .cfa: sp 0 + .ra: lr
STACK CFI 7e6aa .cfa: sp 16 + .ra: .cfa -4 + ^ r4: .cfa -16 + ^ r5: .cfa -12 + ^ r6: .cfa -8 + ^
STACK CFI INIT 7e744 32 .cfa: sp 0 + .ra: lr
STACK CFI 7e746 .cfa: sp 8 + .ra: .cfa -4 + ^ r4: .cfa -8 + ^
STACK CFI INIT 7e778 1e .cfa: sp 0 + .ra: lr
STACK CFI INIT 7e798 e .cfa: sp 0 + .ra: lr
STACK CFI 7e79e .cfa: sp 8 + .ra: .cfa -4 + ^ r3: .cfa -8 + ^
STACK CFI INIT 7e7a8 40 .cfa: sp 0 + .ra: lr
STACK CFI 7e7aa .cfa: sp 8 + .ra: .cfa -4 + ^ r4: .cfa -8 + ^
STACK CFI INIT 7e7e8 22 .cfa: sp 0 + .ra: lr
STACK CFI 7e7ea .cfa: sp 8 + .ra: .cfa -4 + ^ r4: .cfa -8 + ^
STACK CFI INIT 7e80c f8 .cfa: sp 0 + .ra: lr
STACK CFI 7e80e .cfa: sp 24 + .ra: .cfa -4 + ^ r3: .cfa -24 + ^ r4: .cfa -20 + ^ r5: .cfa -16 + ^ r6: .cfa -12 + ^ r7: .cfa -8 + ^
STACK CFI INIT 7e904 70 .cfa: sp 0 + .ra: lr
STACK CFI 7e90a .cfa: sp 24 + .ra: .cfa -4 + ^ r4: .cfa -24 + ^ r5: .cfa -20 + ^ r6: .cfa -16 + ^ r7: .cfa -12 + ^ r8: .cfa -8 + ^
STACK CFI INIT 7e974 3a .cfa: sp 0 + .ra: lr
STACK CFI 7e976 .cfa: sp 16 + .ra: .cfa -4 + ^ r4: .cfa -16 + ^ r5: .cfa -12 + ^ r6: .cfa -8 + ^
STACK CFI INIT 7e9b0 4c6 .cfa: sp 0 + .ra: lr
STACK CFI 7e9b4 .cfa: sp 36 + .ra: .cfa -4 + ^ r10: .cfa -12 + ^ r11: .cfa -8 + ^ r4: .cfa -36 + ^ r5: .cfa -32 + ^ r6: .cfa -28 + ^ r7: .cfa -24 + ^ r8: .cfa -20 + ^ r9: .cfa -16 + ^
STACK CFI 7e9ba .cfa: sp 80 +
STACK CFI INIT 7ee78 34 .cfa: sp 0 + .ra: lr
STACK CFI 7ee7e .cfa: sp 8 + r4: .cfa -8 + ^ r5: .cfa -4 + ^
STACK CFI INIT 7eeac 52 .cfa: sp 0 + .ra: lr
STACK CFI 7eeb0 .cfa: sp 8 + r4: .cfa -8 + ^ r5: .cfa -4 + ^
STACK CFI INIT 7ef00 28 .cfa: sp 0 + .ra: lr
STACK CFI INIT 7ef28 74 .cfa: sp 0 + .ra: lr
STACK CFI 7ef2a .cfa: sp 4 + r4: .cfa -4 + ^
STACK CFI INIT 7ef9c 36 .cfa: sp 0 + .ra: lr
STACK CFI INIT 7efd4 6c .cfa: sp 0 + .ra: lr
STACK CFI 7efd6 .cfa: sp 16 + r4: .cfa -16 + ^ r5: .cfa -12 + ^ r6: .cfa -8 + ^ r7: .cfa -4 + ^
STACK CFI INIT 7f040 9e .cfa: sp 0 + .ra: lr
STACK CFI 7f044 .cfa: sp 36 + .ra: .cfa -4 + ^ r10: .cfa -12 + ^ r11: .cfa -8 + ^ r4: .cfa -36 + ^ r5: .cfa -32 + ^ r6: .cfa -28 + ^ r7: .cfa -24 + ^ r8: .cfa -20 + ^ r9: .cfa -16 + ^
STACK CFI 7f046 .cfa: sp 56 +
STACK CFI INIT 7f0e0 16e .cfa: sp 0 + .ra: lr
STACK CFI 7f0e4 .cfa: sp 32 + .ra: .cfa -4 + ^ r10: .cfa -8 + ^ r4: .cfa -32 + ^ r5: .cfa -28 + ^ r6: .cfa -24 + ^ r7: .cfa -20 + ^ r8: .cfa -16 + ^ r9: .cfa -12 + ^
STACK CFI 7f0ea .cfa: sp 40 +
STACK CFI INIT 7f250 52 .cfa: sp 0 + .ra: lr
STACK CFI 7f252 .cfa: sp 16 + .ra: .cfa -4 + ^ r3: .cfa -16 + ^ r4: .cfa -12 + ^ r5: .cfa -8 + ^
STACK CFI INIT 7f2a4 7a .cfa: sp 0 + .ra: lr
STACK CFI 7f2a6 .cfa: sp 20 + .ra: .cfa -4 + ^ r4: .cfa -20 + ^ r5: .cfa -16 + ^ r6: .cfa -12 + ^ r7: .cfa -8 + ^
STACK CFI 7f2ac .cfa: sp 40 +
STACK CFI INIT 7f320 70 .cfa: sp 0 + .ra: lr
STACK CFI 7f324 .cfa: sp 24 + .ra: .cfa -4 + ^ r4: .cfa -24 + ^ r5: .cfa -20 + ^ r6: .cfa -16 + ^ r7: .cfa -12 + ^ r8: .cfa -8 + ^
STACK CFI 7f326 .cfa: sp 40 +
STACK CFI INIT 7f390 160 .cfa: sp 0 + .ra: lr
STACK CFI 7f394 .cfa: sp 36 + .ra: .cfa -4 + ^ r10: .cfa -12 + ^ r11: .cfa -8 + ^ r4: .cfa -36 + ^ r5: .cfa -32 + ^ r6: .cfa -28 + ^ r7: .cfa -24 + ^ r8: .cfa -20 + ^ r9: .cfa -16 + ^
STACK CFI 7f39a .cfa: sp 56 +
STACK CFI INIT 7f4f0 4e .cfa: sp 0 + .ra: lr
STACK CFI 7f4f2 .cfa: sp 12 + .ra: .cfa -4 + ^ r4: .cfa -12 + ^ r5: .cfa -8 + ^
STACK CFI 7f4f4 .cfa: sp 24 +
STACK CFI INIT 7f540 9a .cfa: sp 0 + .ra: lr
STACK CFI 7f542 .cfa: sp 16 + .ra: .cfa -4 + ^ r3: .cfa -16 + ^ r4: .cfa -12 + ^ r5: .cfa -8 + ^
STACK CFI INIT 7f5dc 1ca .cfa: sp 0 + .ra: lr
STACK CFI 7f5e0 .cfa: sp 36 + .ra: .cfa -4 + ^ r10: .cfa -12 + ^ r11: .cfa -8 + ^ r4: .cfa -36 + ^ r5: .cfa -32 + ^ r6: .cfa -28 + ^ r7: .cfa -24 + ^ r8: .cfa -20 + ^ r9: .cfa -16 + ^
STACK CFI 7f5e2 .cfa: sp 56 +
STACK CFI INIT 7f7a8 9e .cfa: sp 0 + .ra: lr
STACK CFI 7f7ac .cfa: sp 32 + .ra: .cfa -4 + ^ r10: .cfa -8 + ^ r4: .cfa -32 + ^ r5: .cfa -28 + ^ r6: .cfa -24 + ^ r7: .cfa -20 + ^ r8: .cfa -16 + ^ r9: .cfa -12 + ^
STACK CFI 7f7ae .cfa: sp 40 +
STACK CFI INIT 7f848 b4 .cfa: sp 0 + .ra: lr
STACK CFI 7f84c .cfa: sp 36 + .ra: .cfa -4 + ^ r10: .cfa -12 + ^ r11: .cfa -8 + ^ r4: .cfa -36 + ^ r5: .cfa -32 + ^ r6: .cfa -28 + ^ r7: .cfa -24 + ^ r8: .cfa -20 + ^ r9: .cfa -16 + ^
STACK CFI 7f854 .cfa: sp 48 +
STACK CFI INIT 7f8fc 122 .cfa: sp 0 + .ra: lr
STACK CFI 7f900 .cfa: sp 32 + .ra: .cfa -4 + ^ r3: .cfa -32 + ^ r4: .cfa -28 + ^ r5: .cfa -24 + ^ r6: .cfa -20 + ^ r7: .cfa -16 + ^ r8: .cfa -12 + ^ r9: .cfa -8 + ^
STACK CFI INIT 7fa20 150 .cfa: sp 0 + .ra: lr
STACK CFI 7fa24 .cfa: sp 36 + .ra: .cfa -4 + ^ r10: .cfa -12 + ^ r11: .cfa -8 + ^ r4: .cfa -36 + ^ r5: .cfa -32 + ^ r6: .cfa -28 + ^ r7: .cfa -24 + ^ r8: .cfa -20 + ^ r9: .cfa -16 + ^
STACK CFI 7fa2c .cfa: sp 80 +
STACK CFI INIT 7fb70 cc .cfa: sp 0 + .ra: lr
STACK CFI 7fb74 .cfa: sp 36 + .ra: .cfa -4 + ^ r10: .cfa -12 + ^ r11: .cfa -8 + ^ r4: .cfa -36 + ^ r5: .cfa -32 + ^ r6: .cfa -28 + ^ r7: .cfa -24 + ^ r8: .cfa -20 + ^ r9: .cfa -16 + ^
STACK CFI 7fb76 .cfa: sp 72 +
STACK CFI INIT 7fc3c 68 .cfa: sp 0 + .ra: lr
STACK CFI 7fc3e .cfa: sp 16 + .ra: .cfa -4 + ^ r4: .cfa -16 + ^ r5: .cfa -12 + ^ r6: .cfa -8 + ^
STACK CFI INIT 7fca4 126 .cfa: sp 0 + .ra: lr
STACK CFI 7fca8 .cfa: sp 32 + .ra: .cfa -4 + ^ r10: .cfa -8 + ^ r4: .cfa -32 + ^ r5: .cfa -28 + ^ r6: .cfa -24 + ^ r7: .cfa -20 + ^ r8: .cfa -16 + ^ r9: .cfa -12 + ^
STACK CFI INIT 7fdcc 1d6 .cfa: sp 0 + .ra: lr
STACK CFI 7fdd0 .cfa: sp 36 + .ra: .cfa -4 + ^ r10: .cfa -12 + ^ r11: .cfa -8 + ^ r4: .cfa -36 + ^ r5: .cfa -32 + ^ r6: .cfa -28 + ^ r7: .cfa -24 + ^ r8: .cfa -20 + ^ r9: .cfa -16 + ^
STACK CFI 7fdd6 .cfa: sp 64 +
STACK CFI INIT 7ffa4 160 .cfa: sp 0 + .ra: lr
STACK CFI 7ffa8 .cfa: sp 40 + .ra: .cfa -4 + ^ r10: .cfa -12 + ^ r11: .cfa -8 + ^ r3: .cfa -40 + ^ r4: .cfa -36 + ^ r5: .cfa -32 + ^ r6: .cfa -28 + ^ r7: .cfa -24 + ^ r8: .cfa -20 + ^ r9: .cfa -16 + ^
STACK CFI INIT 80104 7a .cfa: sp 0 + .ra: lr
STACK CFI 80108 .cfa: sp 36 + .ra: .cfa -4 + ^ r10: .cfa -12 + ^ r11: .cfa -8 + ^ r4: .cfa -36 + ^ r5: .cfa -32 + ^ r6: .cfa -28 + ^ r7: .cfa -24 + ^ r8: .cfa -20 + ^ r9: .cfa -16 + ^
STACK CFI 8010e .cfa: sp 56 +
STACK CFI INIT 80180 16c .cfa: sp 0 + .ra: lr
STACK CFI 80184 .cfa: sp 36 + .ra: .cfa -4 + ^ r10: .cfa -12 + ^ r11: .cfa -8 + ^ r4: .cfa -36 + ^ r5: .cfa -32 + ^ r6: .cfa -28 + ^ r7: .cfa -24 + ^ r8: .cfa -20 + ^ r9: .cfa -16 + ^
STACK CFI 80186 .cfa: sp 80 +
STACK CFI INIT 16d94 720 .cfa: sp 0 + .ra: lr
STACK CFI 16d98 .cfa: sp 36 + .ra: .cfa -4 + ^ r10: .cfa -12 + ^ r11: .cfa -8 + ^ r4: .cfa -36 + ^ r5: .cfa -32 + ^ r6: .cfa -28 + ^ r7: .cfa -24 + ^ r8: .cfa -20 + ^ r9: .cfa -16 + ^
STACK CFI 16d9a .cfa: sp 192 +
STACK CFI 16d9c .cfa: r7 192 +
STACK CFI INIT 802ec 12c .cfa: sp 0 + .ra: lr
STACK CFI 802f0 .cfa: sp 32 + .ra: .cfa -4 + ^ r10: .cfa -8 + ^ r4: .cfa -32 + ^ r5: .cfa -28 + ^ r6: .cfa -24 + ^ r7: .cfa -20 + ^ r8: .cfa -16 + ^ r9: .cfa -12 + ^
STACK CFI 802f6 .cfa: sp 40 +
STACK CFI INIT 80418 148 .cfa: sp 0 + .ra: lr
STACK CFI 8041c .cfa: sp 36 + .ra: .cfa -4 + ^ r10: .cfa -12 + ^ r11: .cfa -8 + ^ r4: .cfa -36 + ^ r5: .cfa -32 + ^ r6: .cfa -28 + ^ r7: .cfa -24 + ^ r8: .cfa -20 + ^ r9: .cfa -16 + ^
STACK CFI 80426 .cfa: sp 80 +
STACK CFI INIT 80560 78 .cfa: sp 0 + .ra: lr
STACK CFI 80564 .cfa: sp 32 + .ra: .cfa -4 + ^ r3: .cfa -32 + ^ r4: .cfa -28 + ^ r5: .cfa -24 + ^ r6: .cfa -20 + ^ r7: .cfa -16 + ^ r8: .cfa -12 + ^ r9: .cfa -8 + ^
STACK CFI INIT 805d8 74 .cfa: sp 0 + .ra: lr
STACK CFI 805da .cfa: sp 24 + .ra: .cfa -4 + ^ r3: .cfa -24 + ^ r4: .cfa -20 + ^ r5: .cfa -16 + ^ r6: .cfa -12 + ^ r7: .cfa -8 + ^
STACK CFI INIT 8064c 758 .cfa: sp 0 + .ra: lr
STACK CFI 80650 .cfa: sp 32 + .ra: .cfa -4 + ^ r10: .cfa -8 + ^ r4: .cfa -32 + ^ r5: .cfa -28 + ^ r6: .cfa -24 + ^ r7: .cfa -20 + ^ r8: .cfa -16 + ^ r9: .cfa -12 + ^
STACK CFI INIT 80da4 18c .cfa: sp 0 + .ra: lr
STACK CFI 80da8 .cfa: sp 36 + .ra: .cfa -4 + ^ r10: .cfa -12 + ^ r11: .cfa -8 + ^ r4: .cfa -36 + ^ r5: .cfa -32 + ^ r6: .cfa -28 + ^ r7: .cfa -24 + ^ r8: .cfa -20 + ^ r9: .cfa -16 + ^
STACK CFI 80daa .cfa: sp 88 +
STACK CFI INIT 80f30 3aa .cfa: sp 0 + .ra: lr
STACK CFI 80f34 .cfa: sp 36 + .ra: .cfa -4 + ^ r10: .cfa -12 + ^ r11: .cfa -8 + ^ r4: .cfa -36 + ^ r5: .cfa -32 + ^ r6: .cfa -28 + ^ r7: .cfa -24 + ^ r8: .cfa -20 + ^ r9: .cfa -16 + ^
STACK CFI 80f36 .cfa: sp 344 +
STACK CFI 80f38 .cfa: r7 344 +
STACK CFI INIT 812dc 828 .cfa: sp 0 + .ra: lr
STACK CFI 812e0 .cfa: sp 36 + .ra: .cfa -4 + ^ r10: .cfa -12 + ^ r11: .cfa -8 + ^ r4: .cfa -36 + ^ r5: .cfa -32 + ^ r6: .cfa -28 + ^ r7: .cfa -24 + ^ r8: .cfa -20 + ^ r9: .cfa -16 + ^
STACK CFI 812e8 .cfa: sp 104 +
STACK CFI INIT 81b04 3b0 .cfa: sp 0 + .ra: lr
STACK CFI 81b08 .cfa: sp 36 + .ra: .cfa -4 + ^ r10: .cfa -12 + ^ r11: .cfa -8 + ^ r4: .cfa -36 + ^ r5: .cfa -32 + ^ r6: .cfa -28 + ^ r7: .cfa -24 + ^ r8: .cfa -20 + ^ r9: .cfa -16 + ^
STACK CFI 81b0e .cfa: sp 128 +
STACK CFI INIT 81eb4 488 .cfa: sp 0 + .ra: lr
STACK CFI 81eb8 .cfa: sp 36 + .ra: .cfa -4 + ^ r10: .cfa -12 + ^ r11: .cfa -8 + ^ r4: .cfa -36 + ^ r5: .cfa -32 + ^ r6: .cfa -28 + ^ r7: .cfa -24 + ^ r8: .cfa -20 + ^ r9: .cfa -16 + ^
STACK CFI 81eba .cfa: sp 128 +
STACK CFI 81ebc .cfa: r7 120 +
STACK CFI INIT 8233c ec .cfa: sp 0 + .ra: lr
STACK CFI 82340 .cfa: sp 36 + .ra: .cfa -4 + ^ r10: .cfa -12 + ^ r11: .cfa -8 + ^ r4: .cfa -36 + ^ r5: .cfa -32 + ^ r6: .cfa -28 + ^ r7: .cfa -24 + ^ r8: .cfa -20 + ^ r9: .cfa -16 + ^
STACK CFI 82342 .cfa: sp 56 +
STACK CFI INIT 82428 4f2 .cfa: sp 0 + .ra: lr
STACK CFI 8242c .cfa: sp 36 + .ra: .cfa -4 + ^ r10: .cfa -12 + ^ r11: .cfa -8 + ^ r4: .cfa -36 + ^ r5: .cfa -32 + ^ r6: .cfa -28 + ^ r7: .cfa -24 + ^ r8: .cfa -20 + ^ r9: .cfa -16 + ^
STACK CFI 8242e .cfa: sp 144 +
STACK CFI INIT 8291c e8 .cfa: sp 0 + .ra: lr
STACK CFI 82920 .cfa: sp 32 + .ra: .cfa -4 + ^ r10: .cfa -8 + ^ r4: .cfa -32 + ^ r5: .cfa -28 + ^ r6: .cfa -24 + ^ r7: .cfa -20 + ^ r8: .cfa -16 + ^ r9: .cfa -12 + ^
STACK CFI 82926 .cfa: sp 48 +
STACK CFI INIT 82a04 1d0 .cfa: sp 0 + .ra: lr
STACK CFI 82a08 .cfa: sp 36 + .ra: .cfa -4 + ^ r10: .cfa -12 + ^ r11: .cfa -8 + ^ r4: .cfa -36 + ^ r5: .cfa -32 + ^ r6: .cfa -28 + ^ r7: .cfa -24 + ^ r8: .cfa -20 + ^ r9: .cfa -16 + ^
STACK CFI 82a0c .cfa: sp 112 +
STACK CFI INIT 82bd4 cc0 .cfa: sp 0 + .ra: lr
STACK CFI 82bd8 .cfa: sp 36 + .ra: .cfa -4 + ^ r10: .cfa -12 + ^ r11: .cfa -8 + ^ r4: .cfa -36 + ^ r5: .cfa -32 + ^ r6: .cfa -28 + ^ r7: .cfa -24 + ^ r8: .cfa -20 + ^ r9: .cfa -16 + ^
STACK CFI 82bda .cfa: sp 344 +
STACK CFI INIT 83894 46c .cfa: sp 0 + .ra: lr
STACK CFI 83898 .cfa: sp 36 + .ra: .cfa -4 + ^ r10: .cfa -12 + ^ r11: .cfa -8 + ^ r4: .cfa -36 + ^ r5: .cfa -32 + ^ r6: .cfa -28 + ^ r7: .cfa -24 + ^ r8: .cfa -20 + ^ r9: .cfa -16 + ^
STACK CFI 8389a .cfa: sp 152 +
STACK CFI INIT 83d00 584 .cfa: sp 0 + .ra: lr
STACK CFI 83d04 .cfa: sp 28 + .ra: .cfa -4 + ^ r4: .cfa -28 + ^ r5: .cfa -24 + ^ r6: .cfa -20 + ^ r7: .cfa -16 + ^ r8: .cfa -12 + ^ r9: .cfa -8 + ^
STACK CFI 83d0a .cfa: sp 40 +
STACK CFI INIT 84284 78 .cfa: sp 0 + .ra: lr
STACK CFI 84288 .cfa: sp 32 + .ra: .cfa -4 + ^ r3: .cfa -32 + ^ r4: .cfa -28 + ^ r5: .cfa -24 + ^ r6: .cfa -20 + ^ r7: .cfa -16 + ^ r8: .cfa -12 + ^ r9: .cfa -8 + ^
STACK CFI INIT 842fc 13b4 .cfa: sp 0 + .ra: lr
STACK CFI 84300 .cfa: sp 36 + .ra: .cfa -4 + ^ r10: .cfa -12 + ^ r11: .cfa -8 + ^ r4: .cfa -36 + ^ r5: .cfa -32 + ^ r6: .cfa -28 + ^ r7: .cfa -24 + ^ r8: .cfa -20 + ^ r9: .cfa -16 + ^
STACK CFI 84302 .cfa: sp 272 +
STACK CFI INIT 856b0 f0 .cfa: sp 0 + .ra: lr
STACK CFI 856b4 .cfa: sp 36 + .ra: .cfa -4 + ^ r10: .cfa -12 + ^ r11: .cfa -8 + ^ r4: .cfa -36 + ^ r5: .cfa -32 + ^ r6: .cfa -28 + ^ r7: .cfa -24 + ^ r8: .cfa -20 + ^ r9: .cfa -16 + ^
STACK CFI 856b6 .cfa: sp 72 +
STACK CFI INIT 857a0 c2 .cfa: sp 0 + .ra: lr
STACK CFI 857a4 .cfa: sp 36 + .ra: .cfa -4 + ^ r10: .cfa -12 + ^ r11: .cfa -8 + ^ r4: .cfa -36 + ^ r5: .cfa -32 + ^ r6: .cfa -28 + ^ r7: .cfa -24 + ^ r8: .cfa -20 + ^ r9: .cfa -16 + ^
STACK CFI 857a6 .cfa: sp 72 +
STACK CFI INIT 85864 8e0 .cfa: sp 0 + .ra: lr
STACK CFI 85868 .cfa: sp 36 + .ra: .cfa -4 + ^ r10: .cfa -12 + ^ r11: .cfa -8 + ^ r4: .cfa -36 + ^ r5: .cfa -32 + ^ r6: .cfa -28 + ^ r7: .cfa -24 + ^ r8: .cfa -20 + ^ r9: .cfa -16 + ^
STACK CFI 8586c .cfa: sp 184 +
STACK CFI INIT 86144 5c .cfa: sp 0 + .ra: lr
STACK CFI 86148 .cfa: sp 16 + .ra: .cfa -4 + ^ r4: .cfa -16 + ^ r5: .cfa -12 + ^ r6: .cfa -8 + ^
STACK CFI INIT 861a0 18 .cfa: sp 0 + .ra: lr
STACK CFI INIT 861b8 72 .cfa: sp 0 + .ra: lr
STACK CFI 861ba .cfa: sp 16 + .ra: .cfa -4 + ^ r4: .cfa -16 + ^ r5: .cfa -12 + ^ r6: .cfa -8 + ^
STACK CFI INIT 8622c 320 .cfa: sp 0 + .ra: lr
STACK CFI 86232 .cfa: sp 36 + .ra: .cfa -4 + ^ r10: .cfa -12 + ^ r11: .cfa -8 + ^ r4: .cfa -36 + ^ r5: .cfa -32 + ^ r6: .cfa -28 + ^ r7: .cfa -24 + ^ r8: .cfa -20 + ^ r9: .cfa -16 + ^
STACK CFI 8623e .cfa: sp 80 +
STACK CFI INIT 8654c 82 .cfa: sp 0 + .ra: lr
STACK CFI 86550 .cfa: sp 36 + .ra: .cfa -4 + ^ r10: .cfa -12 + ^ r11: .cfa -8 + ^ r4: .cfa -36 + ^ r5: .cfa -32 + ^ r6: .cfa -28 + ^ r7: .cfa -24 + ^ r8: .cfa -20 + ^ r9: .cfa -16 + ^
STACK CFI 86552 .cfa: sp 56 +
STACK CFI INIT 865d0 ae .cfa: sp 0 + .ra: lr
STACK CFI 865d2 .cfa: sp 24 + .ra: .cfa -4 + ^ r3: .cfa -24 + ^ r4: .cfa -20 + ^ r5: .cfa -16 + ^ r6: .cfa -12 + ^ r7: .cfa -8 + ^
STACK CFI INIT 86680 5c .cfa: sp 0 + .ra: lr
STACK CFI 86684 .cfa: sp 24 + .ra: .cfa -4 + ^ r3: .cfa -24 + ^ r4: .cfa -20 + ^ r5: .cfa -16 + ^ r6: .cfa -12 + ^ r7: .cfa -8 + ^
STACK CFI INIT 866dc 24 .cfa: sp 0 + .ra: lr
STACK CFI 866de .cfa: sp 16 + .ra: .cfa -4 + ^ r3: .cfa -16 + ^ r4: .cfa -12 + ^ r5: .cfa -8 + ^
STACK CFI INIT bd520 c .cfa: sp 0 + .ra: lr
STACK CFI INIT 86700 114 .cfa: sp 0 + .ra: lr
STACK CFI 86704 .cfa: sp 24 + .ra: .cfa -4 + ^ r4: .cfa -24 + ^ r5: .cfa -20 + ^ r6: .cfa -16 + ^ r7: .cfa -12 + ^ r8: .cfa -8 + ^
STACK CFI INIT 86814 fe .cfa: sp 0 + .ra: lr
STACK CFI 86818 .cfa: sp 32 + .ra: .cfa -4 + ^ r10: .cfa -8 + ^ r4: .cfa -32 + ^ r5: .cfa -28 + ^ r6: .cfa -24 + ^ r7: .cfa -20 + ^ r8: .cfa -16 + ^ r9: .cfa -12 + ^
STACK CFI 8681a .cfa: sp 64 +
STACK CFI INIT 86914 1a .cfa: sp 0 + .ra: lr
STACK CFI 86916 .cfa: sp 16 + .ra: .cfa -4 + ^ r4: .cfa -16 + ^ r5: .cfa -12 + ^ r6: .cfa -8 + ^
STACK CFI 86918 .cfa: sp 32 +
STACK CFI INIT 86930 1a .cfa: sp 0 + .ra: lr
STACK CFI 86932 .cfa: sp 16 + .ra: .cfa -4 + ^ r4: .cfa -16 + ^ r5: .cfa -12 + ^ r6: .cfa -8 + ^
STACK CFI 86934 .cfa: sp 32 +
STACK CFI INIT 8694c 24 .cfa: sp 0 + .ra: lr
STACK CFI 8694e .cfa: sp 20 + .ra: .cfa -4 + ^ r4: .cfa -20 + ^ r5: .cfa -16 + ^ r6: .cfa -12 + ^ r7: .cfa -8 + ^
STACK CFI 86950 .cfa: sp 48 +
STACK CFI INIT 86970 24 .cfa: sp 0 + .ra: lr
STACK CFI 86972 .cfa: sp 20 + .ra: .cfa -4 + ^ r4: .cfa -20 + ^ r5: .cfa -16 + ^ r6: .cfa -12 + ^ r7: .cfa -8 + ^
STACK CFI 86974 .cfa: sp 48 +
STACK CFI INIT 86994 2c .cfa: sp 0 + .ra: lr
STACK CFI 86996 .cfa: sp 8 + r4: .cfa -8 + ^ r5: .cfa -4 + ^
STACK CFI INIT 869c0 28 .cfa: sp 0 + .ra: lr
STACK CFI 869c2 .cfa: sp 4 + .ra: .cfa -4 + ^
STACK CFI 869c6 .cfa: sp 16 +
STACK CFI INIT 869e8 22 .cfa: sp 0 + .ra: lr
STACK CFI 869ea .cfa: sp 16 + .ra: .cfa -4 + ^ r3: .cfa -16 + ^ r4: .cfa -12 + ^ r5: .cfa -8 + ^
STACK CFI INIT 86a0c e .cfa: sp 0 + .ra: lr
STACK CFI 86a0e .cfa: sp 8 + .ra: .cfa -4 + ^ r3: .cfa -8 + ^
STACK CFI INIT 86a1c c .cfa: sp 0 + .ra: lr
STACK CFI 86a1e .cfa: sp 8 + .ra: .cfa -4 + ^ r3: .cfa -8 + ^
STACK CFI INIT 86a28 4e .cfa: sp 0 + .ra: lr
STACK CFI 86a2a .cfa: sp 24 + .ra: .cfa -4 + ^ r3: .cfa -24 + ^ r4: .cfa -20 + ^ r5: .cfa -16 + ^ r6: .cfa -12 + ^ r7: .cfa -8 + ^
STACK CFI INIT 86a78 6a .cfa: sp 0 + .ra: lr
STACK CFI 86a7c .cfa: sp 24 + .ra: .cfa -4 + ^ r4: .cfa -24 + ^ r5: .cfa -20 + ^ r6: .cfa -16 + ^ r7: .cfa -12 + ^ r8: .cfa -8 + ^
STACK CFI INIT 86ae4 58 .cfa: sp 0 + .ra: lr
STACK CFI 86ae6 .cfa: sp 24 + .ra: .cfa -4 + ^ r3: .cfa -24 + ^ r4: .cfa -20 + ^ r5: .cfa -16 + ^ r6: .cfa -12 + ^ r7: .cfa -8 + ^
STACK CFI INIT 86b3c 10 .cfa: sp 0 + .ra: lr
STACK CFI 86b3e .cfa: sp 8 + .ra: .cfa -4 + ^ r3: .cfa -8 + ^
STACK CFI INIT 86b4c 4 .cfa: sp 0 + .ra: lr
STACK CFI INIT 86b50 14 .cfa: sp 0 + .ra: lr
STACK CFI 86b52 .cfa: sp 8 + .ra: .cfa -4 + ^ r3: .cfa -8 + ^
STACK CFI INIT 86b64 e .cfa: sp 0 + .ra: lr
STACK CFI 86b66 .cfa: sp 8 + .ra: .cfa -4 + ^ r3: .cfa -8 + ^
STACK CFI INIT 86b74 8 .cfa: sp 0 + .ra: lr
STACK CFI INIT 86b7c e .cfa: sp 0 + .ra: lr
STACK CFI INIT 86b8c 8 .cfa: sp 0 + .ra: lr
STACK CFI INIT 86b94 6 .cfa: sp 0 + .ra: lr
STACK CFI INIT 86b9c 18 .cfa: sp 0 + .ra: lr
STACK CFI 86b9e .cfa: sp 16 + .ra: .cfa -4 + ^ r4: .cfa -16 + ^ r5: .cfa -12 + ^ r6: .cfa -8 + ^
STACK CFI 86ba0 .cfa: sp 32 +
STACK CFI INIT baf6c 18 .cfa: sp 0 + .ra: lr
STACK CFI baf6e .cfa: sp 16 + .ra: .cfa -4 + ^ r4: .cfa -16 + ^ r5: .cfa -12 + ^ r6: .cfa -8 + ^
STACK CFI baf70 .cfa: sp 32 +
STACK CFI INIT 86bb4 18 .cfa: sp 0 + .ra: lr
STACK CFI 86bb6 .cfa: sp 16 + .ra: .cfa -4 + ^ r4: .cfa -16 + ^ r5: .cfa -12 + ^ r6: .cfa -8 + ^
STACK CFI 86bb8 .cfa: sp 32 +
STACK CFI INIT baf84 18 .cfa: sp 0 + .ra: lr
STACK CFI baf86 .cfa: sp 16 + .ra: .cfa -4 + ^ r4: .cfa -16 + ^ r5: .cfa -12 + ^ r6: .cfa -8 + ^
STACK CFI baf88 .cfa: sp 32 +
STACK CFI INIT 86bcc 60 .cfa: sp 0 + .ra: lr
STACK CFI 86bce .cfa: sp 24 + .ra: .cfa -4 + ^ r3: .cfa -24 + ^ r4: .cfa -20 + ^ r5: .cfa -16 + ^ r6: .cfa -12 + ^ r7: .cfa -8 + ^
STACK CFI 86bd2 .cfa: r7 24 +
STACK CFI INIT 86c2c 484 .cfa: sp 0 + .ra: lr
STACK CFI 86c30 .cfa: sp 36 + .ra: .cfa -4 + ^ r10: .cfa -12 + ^ r11: .cfa -8 + ^ r4: .cfa -36 + ^ r5: .cfa -32 + ^ r6: .cfa -28 + ^ r7: .cfa -24 + ^ r8: .cfa -20 + ^ r9: .cfa -16 + ^
STACK CFI 86c32 .cfa: sp 240 +
STACK CFI 86c34 .cfa: r7 240 +
STACK CFI INIT 870b0 14 .cfa: sp 0 + .ra: lr
STACK CFI 870b2 .cfa: sp 8 + .ra: .cfa -4 + ^ r3: .cfa -8 + ^
STACK CFI INIT 870c4 a .cfa: sp 0 + .ra: lr
STACK CFI INIT 870d0 a .cfa: sp 0 + .ra: lr
STACK CFI INIT 870dc e .cfa: sp 0 + .ra: lr
STACK CFI 870de .cfa: sp 8 + .ra: .cfa -4 + ^ r3: .cfa -8 + ^
STACK CFI INIT 870ec e .cfa: sp 0 + .ra: lr
STACK CFI INIT 870fc a .cfa: sp 0 + .ra: lr
STACK CFI INIT 87108 68 .cfa: sp 0 + .ra: lr
STACK CFI 8710a .cfa: sp 24 + .ra: .cfa -4 + ^ r3: .cfa -24 + ^ r4: .cfa -20 + ^ r5: .cfa -16 + ^ r6: .cfa -12 + ^ r7: .cfa -8 + ^
STACK CFI INIT 87170 68 .cfa: sp 0 + .ra: lr
STACK CFI 87172 .cfa: sp 16 + .ra: .cfa -4 + ^ r4: .cfa -16 + ^ r5: .cfa -12 + ^ r6: .cfa -8 + ^
STACK CFI INIT 871d8 34 .cfa: sp 0 + .ra: lr
STACK CFI 871da .cfa: sp 16 + .ra: .cfa -4 + ^ r4: .cfa -16 + ^ r5: .cfa -12 + ^ r6: .cfa -8 + ^
STACK CFI INIT 8720c 8a .cfa: sp 0 + .ra: lr
STACK CFI 87210 .cfa: sp 32 + .ra: .cfa -4 + ^ r10: .cfa -8 + ^ r4: .cfa -32 + ^ r5: .cfa -28 + ^ r6: .cfa -24 + ^ r7: .cfa -20 + ^ r8: .cfa -16 + ^ r9: .cfa -12 + ^
STACK CFI INIT 87298 88 .cfa: sp 0 + .ra: lr
STACK CFI 8729c .cfa: sp 24 + .ra: .cfa -4 + ^ r4: .cfa -24 + ^ r5: .cfa -20 + ^ r6: .cfa -16 + ^ r7: .cfa -12 + ^ r8: .cfa -8 + ^
STACK CFI INIT 87320 4f0 .cfa: sp 0 + .ra: lr
STACK CFI 87324 .cfa: sp 36 + .ra: .cfa -4 + ^ r10: .cfa -12 + ^ r11: .cfa -8 + ^ r4: .cfa -36 + ^ r5: .cfa -32 + ^ r6: .cfa -28 + ^ r7: .cfa -24 + ^ r8: .cfa -20 + ^ r9: .cfa -16 + ^
STACK CFI 87326 .cfa: sp 344 +
STACK CFI INIT 87810 dc .cfa: sp 0 + .ra: lr
STACK CFI 87814 .cfa: sp 36 + .ra: .cfa -4 + ^ r10: .cfa -12 + ^ r11: .cfa -8 + ^ r4: .cfa -36 + ^ r5: .cfa -32 + ^ r6: .cfa -28 + ^ r7: .cfa -24 + ^ r8: .cfa -20 + ^ r9: .cfa -16 + ^
STACK CFI 87816 .cfa: sp 80 +
STACK CFI INIT 878ec bc .cfa: sp 0 + .ra: lr
STACK CFI 878f0 .cfa: sp 36 + .ra: .cfa -4 + ^ r10: .cfa -12 + ^ r11: .cfa -8 + ^ r4: .cfa -36 + ^ r5: .cfa -32 + ^ r6: .cfa -28 + ^ r7: .cfa -24 + ^ r8: .cfa -20 + ^ r9: .cfa -16 + ^
STACK CFI 878f2 .cfa: sp 48 +
STACK CFI INIT 879a8 b4 .cfa: sp 0 + .ra: lr
STACK CFI 879ac .cfa: sp 32 + .ra: .cfa -4 + ^ r10: .cfa -8 + ^ r4: .cfa -32 + ^ r5: .cfa -28 + ^ r6: .cfa -24 + ^ r7: .cfa -20 + ^ r8: .cfa -16 + ^ r9: .cfa -12 + ^
STACK CFI 879ae .cfa: sp 48 +
STACK CFI INIT 87a5c ac .cfa: sp 0 + .ra: lr
STACK CFI 87a60 .cfa: sp 24 + .ra: .cfa -4 + ^ r4: .cfa -24 + ^ r5: .cfa -20 + ^ r6: .cfa -16 + ^ r7: .cfa -12 + ^ r8: .cfa -8 + ^
STACK CFI INIT 87b08 44 .cfa: sp 0 + .ra: lr
STACK CFI 87b0a .cfa: sp 20 + .ra: .cfa -4 + ^ r4: .cfa -20 + ^ r5: .cfa -16 + ^ r6: .cfa -12 + ^ r7: .cfa -8 + ^
STACK CFI 87b0e .cfa: sp 32 +
STACK CFI INIT 87b4c 268 .cfa: sp 0 + .ra: lr
STACK CFI 87b50 .cfa: sp 36 + .ra: .cfa -4 + ^ r10: .cfa -12 + ^ r11: .cfa -8 + ^ r4: .cfa -36 + ^ r5: .cfa -32 + ^ r6: .cfa -28 + ^ r7: .cfa -24 + ^ r8: .cfa -20 + ^ r9: .cfa -16 + ^
STACK CFI 87b52 .cfa: sp 96 +
STACK CFI 87b56 .cfa: r7 88 +
STACK CFI INIT 87db4 226 .cfa: sp 0 + .ra: lr
STACK CFI 87db8 .cfa: sp 36 + .ra: .cfa -4 + ^ r10: .cfa -12 + ^ r11: .cfa -8 + ^ r4: .cfa -36 + ^ r5: .cfa -32 + ^ r6: .cfa -28 + ^ r7: .cfa -24 + ^ r8: .cfa -20 + ^ r9: .cfa -16 + ^
STACK CFI 87dba .cfa: sp 120 +
STACK CFI INIT 87fdc fac .cfa: sp 0 + .ra: lr
STACK CFI 87fe0 .cfa: sp 36 + .ra: .cfa -4 + ^ r10: .cfa -12 + ^ r11: .cfa -8 + ^ r4: .cfa -36 + ^ r5: .cfa -32 + ^ r6: .cfa -28 + ^ r7: .cfa -24 + ^ r8: .cfa -20 + ^ r9: .cfa -16 + ^
STACK CFI 87fe2 .cfa: sp 192 +
STACK CFI INIT 88f88 30 .cfa: sp 0 + .ra: lr
STACK CFI 88f8a .cfa: sp 16 + .ra: .cfa -4 + ^ r3: .cfa -16 + ^ r4: .cfa -12 + ^ r5: .cfa -8 + ^
STACK CFI INIT 88fb8 6d0 .cfa: sp 0 + .ra: lr
STACK CFI 88fbc .cfa: sp 36 + .ra: .cfa -4 + ^ r10: .cfa -12 + ^ r11: .cfa -8 + ^ r4: .cfa -36 + ^ r5: .cfa -32 + ^ r6: .cfa -28 + ^ r7: .cfa -24 + ^ r8: .cfa -20 + ^ r9: .cfa -16 + ^
STACK CFI 88fbe .cfa: sp 192 +
STACK CFI INIT 89690 c .cfa: sp 0 + .ra: lr
STACK CFI 89692 .cfa: sp 4 + r7: .cfa -4 + ^
STACK CFI 89698 .cfa: sp 0 + r7: r7
STACK CFI INIT 896a0 3c .cfa: sp 0 + .ra: lr
STACK CFI 896a2 .cfa: sp 4 + .ra: .cfa -4 + ^
STACK CFI 896a6 .cfa: sp 16 +
STACK CFI INIT 896dc 1e .cfa: sp 0 + .ra: lr
STACK CFI 896de .cfa: sp 8 + .ra: .cfa -4 + ^ r4: .cfa -8 + ^
STACK CFI 896e0 .cfa: sp 24 +
STACK CFI INIT 896fc 20 .cfa: sp 0 + .ra: lr
STACK CFI 896fe .cfa: sp 12 + .ra: .cfa -4 + ^ r4: .cfa -12 + ^ r5: .cfa -8 + ^
STACK CFI 89700 .cfa: sp 24 +
STACK CFI INIT 8971c 24 .cfa: sp 0 + .ra: lr
STACK CFI 8971e .cfa: sp 16 + .ra: .cfa -4 + ^ r4: .cfa -16 + ^ r5: .cfa -12 + ^ r6: .cfa -8 + ^
STACK CFI 89720 .cfa: sp 32 +
STACK CFI INIT 89740 70 .cfa: sp 0 + .ra: lr
STACK CFI 89742 .cfa: sp 8 + .ra: .cfa -4 + ^ r4: .cfa -8 + ^
STACK CFI 89748 .cfa: sp 112 +
STACK CFI INIT 897b0 70 .cfa: sp 0 + .ra: lr
STACK CFI 897b2 .cfa: sp 8 + .ra: .cfa -4 + ^ r4: .cfa -8 + ^
STACK CFI 897b8 .cfa: sp 112 +
STACK CFI INIT 89820 70 .cfa: sp 0 + .ra: lr
STACK CFI 89822 .cfa: sp 8 + .ra: .cfa -4 + ^ r4: .cfa -8 + ^
STACK CFI 89828 .cfa: sp 112 +
STACK CFI INIT 89890 30 .cfa: sp 0 + .ra: lr
STACK CFI 89898 .cfa: sp 4 + .ra: .cfa -4 + ^
STACK CFI INIT 898c0 30 .cfa: sp 0 + .ra: lr
STACK CFI 898c8 .cfa: sp 4 + .ra: .cfa -4 + ^
STACK CFI INIT 898f0 30 .cfa: sp 0 + .ra: lr
STACK CFI 898f8 .cfa: sp 4 + .ra: .cfa -4 + ^
STACK CFI INIT 89920 5c .cfa: sp 0 + .ra: lr
STACK CFI 89924 .cfa: sp 20 + .ra: .cfa -4 + ^ r4: .cfa -20 + ^ r5: .cfa -16 + ^ r6: .cfa -12 + ^ r7: .cfa -8 + ^
STACK CFI INIT 8997c 128 .cfa: sp 0 + .ra: lr
STACK CFI 89982 .cfa: sp 36 + .ra: .cfa -4 + ^ r10: .cfa -12 + ^ r11: .cfa -8 + ^ r4: .cfa -36 + ^ r5: .cfa -32 + ^ r6: .cfa -28 + ^ r7: .cfa -24 + ^ r8: .cfa -20 + ^ r9: .cfa -16 + ^
STACK CFI 89984 .cfa: sp 48 +
STACK CFI 89988 .cfa: r7 40 +
STACK CFI INIT 89aa4 138 .cfa: sp 0 + .ra: lr
STACK CFI 89aa8 .cfa: sp 32 + .ra: .cfa -4 + ^ r10: .cfa -8 + ^ r4: .cfa -32 + ^ r5: .cfa -28 + ^ r6: .cfa -24 + ^ r7: .cfa -20 + ^ r8: .cfa -16 + ^ r9: .cfa -12 + ^
STACK CFI 89aaa .cfa: sp 144 +
STACK CFI 89ab0 .cfa: r7 136 +
STACK CFI INIT 89bdc 124 .cfa: sp 0 + .ra: lr
STACK CFI 89be0 .cfa: sp 28 + .ra: .cfa -4 + ^ r4: .cfa -28 + ^ r5: .cfa -24 + ^ r6: .cfa -20 + ^ r7: .cfa -16 + ^ r8: .cfa -12 + ^ r9: .cfa -8 + ^
STACK CFI 89be2 .cfa: sp 40 +
STACK CFI 89be6 .cfa: r7 32 +
STACK CFI INIT 89d00 14 .cfa: sp 0 + .ra: lr
STACK CFI 89d02 .cfa: sp 4 + r7: .cfa -4 + ^
STACK CFI 89d08 .cfa: sp 0 + r7: r7
STACK CFI INIT 89d20 14 .cfa: sp 0 + .ra: lr
STACK CFI 89d22 .cfa: sp 4 + r7: .cfa -4 + ^
STACK CFI 89d28 .cfa: sp 0 + r7: r7
STACK CFI INIT 89d40 30 .cfa: sp 0 + .ra: lr
STACK CFI 89d48 .cfa: sp 4 + .ra: .cfa -4 + ^
STACK CFI INIT 89d70 30 .cfa: sp 0 + .ra: lr
STACK CFI 89d78 .cfa: sp 4 + .ra: .cfa -4 + ^
STACK CFI INIT 89da0 3e .cfa: sp 0 + .ra: lr
STACK CFI 89da2 .cfa: sp 20 + .ra: .cfa -4 + ^ r4: .cfa -20 + ^ r5: .cfa -16 + ^ r6: .cfa -12 + ^ r7: .cfa -8 + ^
STACK CFI 89da4 .cfa: sp 192 +
STACK CFI INIT 89de0 3e .cfa: sp 0 + .ra: lr
STACK CFI 89de2 .cfa: sp 16 + .ra: .cfa -4 + ^ r4: .cfa -16 + ^ r5: .cfa -12 + ^ r6: .cfa -8 + ^
STACK CFI 89de4 .cfa: sp 184 +
STACK CFI INIT 89e20 3e .cfa: sp 0 + .ra: lr
STACK CFI 89e24 .cfa: sp 24 + .ra: .cfa -4 + ^ r4: .cfa -24 + ^ r5: .cfa -20 + ^ r6: .cfa -16 + ^ r7: .cfa -12 + ^ r8: .cfa -8 + ^
STACK CFI 89e26 .cfa: sp 216 +
STACK CFI INIT 89e60 38 .cfa: sp 0 + .ra: lr
STACK CFI 89e62 .cfa: sp 20 + .ra: .cfa -4 + ^ r4: .cfa -20 + ^ r5: .cfa -16 + ^ r6: .cfa -12 + ^ r7: .cfa -8 + ^
STACK CFI 89e64 .cfa: sp 216 +
STACK CFI INIT 89ea0 a .cfa: sp 0 + .ra: lr
STACK CFI 89ea2 .cfa: sp 4 + r7: .cfa -4 + ^
STACK CFI 89ea8 .cfa: sp 0 + r7: r7
STACK CFI INIT 89eb0 14 .cfa: sp 0 + .ra: lr
STACK CFI 89eb2 .cfa: sp 4 + r7: .cfa -4 + ^
STACK CFI 89eb8 .cfa: sp 0 + r7: r7
STACK CFI INIT 89ed0 14 .cfa: sp 0 + .ra: lr
STACK CFI 89ed2 .cfa: sp 4 + r7: .cfa -4 + ^
STACK CFI 89ed8 .cfa: sp 0 + r7: r7
STACK CFI INIT 89ef0 11c .cfa: sp 0 + .ra: lr
STACK CFI 89ef4 .cfa: sp 24 + .ra: .cfa -4 + ^ r4: .cfa -24 + ^ r5: .cfa -20 + ^ r6: .cfa -16 + ^ r7: .cfa -12 + ^ r8: .cfa -8 + ^
STACK CFI 89efa .cfa: sp 32 +
STACK CFI 89f00 .cfa: r7 24 +
STACK CFI INIT 8a010 14 .cfa: sp 0 + .ra: lr
STACK CFI 8a012 .cfa: sp 4 + r7: .cfa -4 + ^
STACK CFI 8a018 .cfa: sp 0 + r7: r7
STACK CFI INIT 8a030 e0 .cfa: sp 0 + .ra: lr
STACK CFI 8a034 .cfa: sp 24 + .ra: .cfa -4 + ^ r4: .cfa -24 + ^ r5: .cfa -20 + ^ r6: .cfa -16 + ^ r7: .cfa -12 + ^ r8: .cfa -8 + ^
STACK CFI 8a036 .cfa: sp 32 +
STACK CFI 8a03c .cfa: r7 24 +
STACK CFI INIT 8a110 14 .cfa: sp 0 + .ra: lr
STACK CFI 8a112 .cfa: sp 4 + r7: .cfa -4 + ^
STACK CFI 8a118 .cfa: sp 0 + r7: r7
STACK CFI INIT 8a130 4e .cfa: sp 0 + .ra: lr
STACK CFI 8a140 .cfa: sp 4 + r7: .cfa -4 + ^
STACK CFI 8a148 .cfa: sp 0 + r7: r7
STACK CFI 8a154 .cfa: sp 4 + r7: .cfa -4 + ^
STACK CFI 8a156 .cfa: sp 24 + .ra: .cfa -8 + ^
STACK CFI 8a15e .cfa: sp 8 +
STACK CFI 8a170 .cfa: sp 4 + .ra: .ra
STACK CFI 8a172 .cfa: sp 0 + r7: r7
STACK CFI INIT 8a190 1c .cfa: sp 0 + .ra: lr
STACK CFI 8a192 .cfa: sp 8 + .ra: .cfa -4 + ^ r3: .cfa -8 + ^
STACK CFI INIT 8a1ac a0 .cfa: sp 0 + .ra: lr
STACK CFI 8a1ae .cfa: sp 12 + r1: .cfa -12 + ^ r2: .cfa -8 + ^ r3: .cfa -4 + ^
STACK CFI 8a1b0 .cfa: sp 24 + .ra: .cfa -16 + ^ r4: .cfa -24 + ^ r5: .cfa -20 + ^
STACK CFI 8a1b2 .cfa: sp 40 +
STACK CFI INIT 8a24c 1c .cfa: sp 0 + .ra: lr
STACK CFI 8a24e .cfa: sp 8 + .ra: .cfa -4 + ^ r3: .cfa -8 + ^
STACK CFI INIT 8a268 68 .cfa: sp 0 + .ra: lr
STACK CFI 8a26a .cfa: sp 12 + .ra: .cfa -4 + ^ r4: .cfa -12 + ^ r5: .cfa -8 + ^
STACK CFI 8a26e .cfa: sp 120 +
STACK CFI INIT 8a2d0 e8 .cfa: sp 0 + .ra: lr
STACK CFI 8a2d4 .cfa: sp 28 + .ra: .cfa -4 + ^ r4: .cfa -28 + ^ r5: .cfa -24 + ^ r6: .cfa -20 + ^ r7: .cfa -16 + ^ r8: .cfa -12 + ^ r9: .cfa -8 + ^
STACK CFI 8a2d6 .cfa: sp 40 +
STACK CFI 8a2dc .cfa: r7 32 +
STACK CFI INIT 8a3b8 58 .cfa: sp 0 + .ra: lr
STACK CFI 8a3ba .cfa: sp 8 + r2: .cfa -8 + ^ r3: .cfa -4 + ^
STACK CFI 8a3bc .cfa: sp 20 + .ra: .cfa -12 + ^ r4: .cfa -20 + ^ r5: .cfa -16 + ^
STACK CFI 8a3be .cfa: sp 48 +
STACK CFI INIT 8a410 1c .cfa: sp 0 + .ra: lr
STACK CFI 8a412 .cfa: sp 8 + .ra: .cfa -4 + ^ r3: .cfa -8 + ^
STACK CFI INIT 8a42c ec .cfa: sp 0 + .ra: lr
STACK CFI 8a430 .cfa: sp 28 + .ra: .cfa -4 + ^ r4: .cfa -28 + ^ r5: .cfa -24 + ^ r6: .cfa -20 + ^ r7: .cfa -16 + ^ r8: .cfa -12 + ^ r9: .cfa -8 + ^
STACK CFI 8a432 .cfa: sp 40 +
STACK CFI 8a43a .cfa: r7 32 +
STACK CFI INIT 8a518 58 .cfa: sp 0 + .ra: lr
STACK CFI 8a51a .cfa: sp 8 + r2: .cfa -8 + ^ r3: .cfa -4 + ^
STACK CFI 8a51c .cfa: sp 20 + .ra: .cfa -12 + ^ r4: .cfa -20 + ^ r5: .cfa -16 + ^
STACK CFI 8a51e .cfa: sp 48 +
STACK CFI INIT 8a570 1c .cfa: sp 0 + .ra: lr
STACK CFI 8a572 .cfa: sp 8 + .ra: .cfa -4 + ^ r3: .cfa -8 + ^
STACK CFI INIT 8a590 14 .cfa: sp 0 + .ra: lr
STACK CFI 8a592 .cfa: sp 4 + r7: .cfa -4 + ^
STACK CFI 8a598 .cfa: sp 0 + r7: r7
STACK CFI INIT 8a5b0 4e .cfa: sp 0 + .ra: lr
STACK CFI 8a5c0 .cfa: sp 4 + r7: .cfa -4 + ^
STACK CFI 8a5c8 .cfa: sp 0 + r7: r7
STACK CFI 8a5d4 .cfa: sp 4 + r7: .cfa -4 + ^
STACK CFI 8a5d6 .cfa: sp 24 + .ra: .cfa -8 + ^
STACK CFI 8a5de .cfa: sp 8 +
STACK CFI 8a5f0 .cfa: sp 4 + .ra: .ra
STACK CFI 8a5f2 .cfa: sp 0 + r7: r7
STACK CFI INIT 8a610 14 .cfa: sp 0 + .ra: lr
STACK CFI 8a612 .cfa: sp 4 + r7: .cfa -4 + ^
STACK CFI 8a618 .cfa: sp 0 + r7: r7
STACK CFI INIT 8a630 4e .cfa: sp 0 + .ra: lr
STACK CFI 8a640 .cfa: sp 4 + r7: .cfa -4 + ^
STACK CFI 8a648 .cfa: sp 0 + r7: r7
STACK CFI 8a654 .cfa: sp 4 + r7: .cfa -4 + ^
STACK CFI 8a656 .cfa: sp 24 + .ra: .cfa -8 + ^
STACK CFI 8a65e .cfa: sp 8 +
STACK CFI 8a670 .cfa: sp 4 + .ra: .ra
STACK CFI 8a672 .cfa: sp 0 + r7: r7
STACK CFI INIT 8a690 14 .cfa: sp 0 + .ra: lr
STACK CFI 8a692 .cfa: sp 4 + r7: .cfa -4 + ^
STACK CFI 8a698 .cfa: sp 0 + r7: r7
STACK CFI INIT 8a6b0 14 .cfa: sp 0 + .ra: lr
STACK CFI 8a6b2 .cfa: sp 4 + r7: .cfa -4 + ^
STACK CFI 8a6b8 .cfa: sp 0 + r7: r7
STACK CFI INIT 8a6d0 b0 .cfa: sp 0 + .ra: lr
STACK CFI 8a6d4 .cfa: sp 28 + .ra: .cfa -4 + ^ r4: .cfa -28 + ^ r5: .cfa -24 + ^ r6: .cfa -20 + ^ r7: .cfa -16 + ^ r8: .cfa -12 + ^ r9: .cfa -8 + ^
STACK CFI 8a6d8 .cfa: sp 136 +
STACK CFI INIT 8a780 1e8 .cfa: sp 0 + .ra: lr
STACK CFI 8a784 .cfa: sp 32 + .ra: .cfa -4 + ^ r10: .cfa -8 + ^ r4: .cfa -32 + ^ r5: .cfa -28 + ^ r6: .cfa -24 + ^ r7: .cfa -20 + ^ r8: .cfa -16 + ^ r9: .cfa -12 + ^
STACK CFI 8a78e .cfa: sp 144 +
STACK CFI 8a794 .cfa: r7 136 +
STACK CFI INIT 8a968 40 .cfa: sp 0 + .ra: lr
STACK CFI 8a96a .cfa: sp 12 + r1: .cfa -12 + ^ r2: .cfa -8 + ^ r3: .cfa -4 + ^
STACK CFI 8a970 .cfa: sp 16 + .ra: .cfa -16 + ^
STACK CFI 8a972 .cfa: sp 24 +
STACK CFI INIT 8a9a8 9c .cfa: sp 0 + .ra: lr
STACK CFI 8a9aa .cfa: sp 12 + r1: .cfa -12 + ^ r2: .cfa -8 + ^ r3: .cfa -4 + ^
STACK CFI 8a9ac .cfa: sp 24 + .ra: .cfa -16 + ^ r4: .cfa -24 + ^ r5: .cfa -20 + ^
STACK CFI 8a9ae .cfa: sp 40 +
STACK CFI INIT 8aa50 14 .cfa: sp 0 + .ra: lr
STACK CFI 8aa52 .cfa: sp 4 + r7: .cfa -4 + ^
STACK CFI 8aa58 .cfa: sp 0 + r7: r7
STACK CFI INIT 8aa70 a4 .cfa: sp 0 + .ra: lr
STACK CFI 8aa72 .cfa: sp 8 + .ra: .cfa -4 + ^ r4: .cfa -8 + ^
STACK CFI 8aa74 .cfa: sp 24 +
STACK CFI INIT 8ab14 f0 .cfa: sp 0 + .ra: lr
STACK CFI 8ab16 .cfa: sp 8 + .ra: .cfa -4 + ^ r4: .cfa -8 + ^
STACK CFI 8ab18 .cfa: sp 40 +
STACK CFI INIT 8ac10 14 .cfa: sp 0 + .ra: lr
STACK CFI 8ac12 .cfa: sp 4 + r7: .cfa -4 + ^
STACK CFI 8ac18 .cfa: sp 0 + r7: r7
STACK CFI INIT 8ac30 50 .cfa: sp 0 + .ra: lr
STACK CFI 8ac40 .cfa: sp 4 + r7: .cfa -4 + ^
STACK CFI 8ac48 .cfa: sp 0 + r7: r7
STACK CFI 8ac54 .cfa: sp 4 + r7: .cfa -4 + ^
STACK CFI 8ac56 .cfa: sp 16 + .ra: .cfa -8 + ^
STACK CFI 8ac60 .cfa: sp 8 +
STACK CFI 8ac72 .cfa: sp 4 + .ra: .ra
STACK CFI 8ac74 .cfa: sp 0 + r7: r7
STACK CFI INIT 8ac90 14 .cfa: sp 0 + .ra: lr
STACK CFI 8ac92 .cfa: sp 4 + r7: .cfa -4 + ^
STACK CFI 8ac98 .cfa: sp 0 + r7: r7
STACK CFI INIT 8acb0 14 .cfa: sp 0 + .ra: lr
STACK CFI 8acb2 .cfa: sp 4 + r7: .cfa -4 + ^
STACK CFI 8acb8 .cfa: sp 0 + r7: r7
STACK CFI INIT 8acd0 14 .cfa: sp 0 + .ra: lr
STACK CFI 8acd2 .cfa: sp 4 + r7: .cfa -4 + ^
STACK CFI 8acd8 .cfa: sp 0 + r7: r7
STACK CFI INIT 8acf0 14 .cfa: sp 0 + .ra: lr
STACK CFI 8acf2 .cfa: sp 4 + r7: .cfa -4 + ^
STACK CFI 8acf8 .cfa: sp 0 + r7: r7
STACK CFI INIT 8ad10 14 .cfa: sp 0 + .ra: lr
STACK CFI 8ad12 .cfa: sp 4 + r7: .cfa -4 + ^
STACK CFI 8ad18 .cfa: sp 0 + r7: r7
STACK CFI INIT 8ad30 14 .cfa: sp 0 + .ra: lr
STACK CFI 8ad32 .cfa: sp 4 + r7: .cfa -4 + ^
STACK CFI 8ad38 .cfa: sp 0 + r7: r7
STACK CFI INIT 8ad50 4e .cfa: sp 0 + .ra: lr
STACK CFI 8ad60 .cfa: sp 4 + r7: .cfa -4 + ^
STACK CFI 8ad68 .cfa: sp 0 + r7: r7
STACK CFI 8ad74 .cfa: sp 4 + r7: .cfa -4 + ^
STACK CFI 8ad76 .cfa: sp 16 + .ra: .cfa -8 + ^
STACK CFI 8ad7e .cfa: sp 8 +
STACK CFI 8ad90 .cfa: sp 4 + .ra: .ra
STACK CFI 8ad92 .cfa: sp 0 + r7: r7
STACK CFI INIT 8adb0 a .cfa: sp 0 + .ra: lr
STACK CFI INIT 8adc0 14 .cfa: sp 0 + .ra: lr
STACK CFI 8adc2 .cfa: sp 4 + r7: .cfa -4 + ^
STACK CFI 8adc8 .cfa: sp 0 + r7: r7
STACK CFI INIT 8ade0 14 .cfa: sp 0 + .ra: lr
STACK CFI 8ade2 .cfa: sp 4 + r7: .cfa -4 + ^
STACK CFI 8ade8 .cfa: sp 0 + r7: r7
STACK CFI INIT 8ae00 7e4 .cfa: sp 0 + .ra: lr
STACK CFI 8ae04 .cfa: sp 36 + .ra: .cfa -4 + ^ r10: .cfa -12 + ^ r11: .cfa -8 + ^ r4: .cfa -36 + ^ r5: .cfa -32 + ^ r6: .cfa -28 + ^ r7: .cfa -24 + ^ r8: .cfa -20 + ^ r9: .cfa -16 + ^
STACK CFI 8ae06 .cfa: sp 280 +
STACK CFI 8ae0a .cfa: r7 272 +
STACK CFI INIT 8b5e4 5c .cfa: sp 0 + .ra: lr
STACK CFI 8b5e6 .cfa: sp 16 + .ra: .cfa -4 + ^ r4: .cfa -16 + ^ r5: .cfa -12 + ^ r6: .cfa -8 + ^
STACK CFI 8b5ec .cfa: sp 4112 +
STACK CFI INIT 8b640 68 .cfa: sp 0 + .ra: lr
STACK CFI 8b644 .cfa: sp 16 + .ra: .cfa -4 + ^ r4: .cfa -16 + ^ r5: .cfa -12 + ^ r6: .cfa -8 + ^
STACK CFI 8b648 .cfa: sp 224 +
STACK CFI INIT 8b6b0 14 .cfa: sp 0 + .ra: lr
STACK CFI 8b6b2 .cfa: sp 4 + r7: .cfa -4 + ^
STACK CFI 8b6b8 .cfa: sp 0 + r7: r7
STACK CFI INIT 8b6d0 2c .cfa: sp 0 + .ra: lr
STACK CFI 8b6d2 .cfa: sp 4 + .ra: .cfa -4 + ^
STACK CFI INIT 8b6fc 2c .cfa: sp 0 + .ra: lr
STACK CFI 8b6fe .cfa: sp 4 + .ra: .cfa -4 + ^
STACK CFI INIT 8b728 10c .cfa: sp 0 + .ra: lr
STACK CFI 8b72c .cfa: sp 32 + .ra: .cfa -4 + ^ r10: .cfa -8 + ^ r4: .cfa -32 + ^ r5: .cfa -28 + ^ r6: .cfa -24 + ^ r7: .cfa -20 + ^ r8: .cfa -16 + ^ r9: .cfa -12 + ^
STACK CFI 8b72e .cfa: sp 40 +
STACK CFI 8b732 .cfa: r7 32 +
STACK CFI INIT baf9c 1bc .cfa: sp 0 + .ra: lr
STACK CFI bafa0 .cfa: sp 36 + .ra: .cfa -4 + ^ r10: .cfa -12 + ^ r11: .cfa -8 + ^ r4: .cfa -36 + ^ r5: .cfa -32 + ^ r6: .cfa -28 + ^ r7: .cfa -24 + ^ r8: .cfa -20 + ^ r9: .cfa -16 + ^
STACK CFI bafa2 .cfa: sp 184 +
STACK CFI INIT 8b834 1f0 .cfa: sp 0 + .ra: lr
STACK CFI 8b838 .cfa: sp 36 + .ra: .cfa -4 + ^ r10: .cfa -12 + ^ r11: .cfa -8 + ^ r4: .cfa -36 + ^ r5: .cfa -32 + ^ r6: .cfa -28 + ^ r7: .cfa -24 + ^ r8: .cfa -20 + ^ r9: .cfa -16 + ^
STACK CFI 8b83a .cfa: sp 360 +
STACK CFI INIT bb158 168 .cfa: sp 0 + .ra: lr
STACK CFI bb15c .cfa: sp 36 + .ra: .cfa -4 + ^ r10: .cfa -12 + ^ r11: .cfa -8 + ^ r4: .cfa -36 + ^ r5: .cfa -32 + ^ r6: .cfa -28 + ^ r7: .cfa -24 + ^ r8: .cfa -20 + ^ r9: .cfa -16 + ^
STACK CFI bb15e .cfa: sp 168 +
STACK CFI INIT 8ba24 238 .cfa: sp 0 + .ra: lr
STACK CFI 8ba28 .cfa: sp 36 + .ra: .cfa -4 + ^ r10: .cfa -12 + ^ r11: .cfa -8 + ^ r4: .cfa -36 + ^ r5: .cfa -32 + ^ r6: .cfa -28 + ^ r7: .cfa -24 + ^ r8: .cfa -20 + ^ r9: .cfa -16 + ^
STACK CFI 8ba2a .cfa: sp 368 +
STACK CFI INIT 8bc5c 18 .cfa: sp 0 + .ra: lr
STACK CFI 8bc5e .cfa: sp 4 + .ra: .cfa -4 + ^
STACK CFI 8bc60 .cfa: sp 72 +
STACK CFI INIT 8bc80 14 .cfa: sp 0 + .ra: lr
STACK CFI 8bc82 .cfa: sp 4 + r7: .cfa -4 + ^
STACK CFI 8bc88 .cfa: sp 0 + r7: r7
STACK CFI INIT 8bca0 144 .cfa: sp 0 + .ra: lr
STACK CFI 8bca4 .cfa: sp 32 + .ra: .cfa -4 + ^ r10: .cfa -8 + ^ r4: .cfa -32 + ^ r5: .cfa -28 + ^ r6: .cfa -24 + ^ r7: .cfa -20 + ^ r8: .cfa -16 + ^ r9: .cfa -12 + ^
STACK CFI 8bca6 .cfa: sp 40 +
STACK CFI 8bcaa .cfa: r7 32 +
STACK CFI INIT 8bdf0 14 .cfa: sp 0 + .ra: lr
STACK CFI 8bdf2 .cfa: sp 4 + r7: .cfa -4 + ^
STACK CFI 8bdf8 .cfa: sp 0 + r7: r7
STACK CFI INIT 8be10 e0 .cfa: sp 0 + .ra: lr
STACK CFI 8be14 .cfa: sp 24 + .ra: .cfa -4 + ^ r4: .cfa -24 + ^ r5: .cfa -20 + ^ r6: .cfa -16 + ^ r7: .cfa -12 + ^ r8: .cfa -8 + ^
STACK CFI 8be16 .cfa: sp 32 +
STACK CFI 8be1c .cfa: r7 24 +
STACK CFI INIT 8bef0 14 .cfa: sp 0 + .ra: lr
STACK CFI 8bef2 .cfa: sp 4 + r7: .cfa -4 + ^
STACK CFI 8bef8 .cfa: sp 0 + r7: r7
STACK CFI INIT 8bf10 e8 .cfa: sp 0 + .ra: lr
STACK CFI 8bf14 .cfa: sp 28 + .ra: .cfa -4 + ^ r4: .cfa -28 + ^ r5: .cfa -24 + ^ r6: .cfa -20 + ^ r7: .cfa -16 + ^ r8: .cfa -12 + ^ r9: .cfa -8 + ^
STACK CFI 8bf16 .cfa: sp 40 +
STACK CFI 8bf1c .cfa: r7 32 +
STACK CFI INIT 8c000 14 .cfa: sp 0 + .ra: lr
STACK CFI 8c002 .cfa: sp 4 + r7: .cfa -4 + ^
STACK CFI 8c008 .cfa: sp 0 + r7: r7
STACK CFI INIT 8c020 100 .cfa: sp 0 + .ra: lr
STACK CFI 8c024 .cfa: sp 24 + .ra: .cfa -4 + ^ r4: .cfa -24 + ^ r5: .cfa -20 + ^ r6: .cfa -16 + ^ r7: .cfa -12 + ^ r8: .cfa -8 + ^
STACK CFI 8c026 .cfa: sp 32 +
STACK CFI 8c02c .cfa: r7 24 +
STACK CFI INIT 8c120 14 .cfa: sp 0 + .ra: lr
STACK CFI 8c122 .cfa: sp 4 + r7: .cfa -4 + ^
STACK CFI 8c128 .cfa: sp 0 + r7: r7
STACK CFI INIT 8c140 14 .cfa: sp 0 + .ra: lr
STACK CFI 8c142 .cfa: sp 4 + r7: .cfa -4 + ^
STACK CFI 8c148 .cfa: sp 0 + r7: r7
STACK CFI INIT 8c160 4e .cfa: sp 0 + .ra: lr
STACK CFI 8c170 .cfa: sp 4 + r7: .cfa -4 + ^
STACK CFI 8c178 .cfa: sp 0 + r7: r7
STACK CFI 8c184 .cfa: sp 4 + r7: .cfa -4 + ^
STACK CFI 8c186 .cfa: sp 24 + .ra: .cfa -8 + ^
STACK CFI 8c18e .cfa: sp 8 +
STACK CFI 8c1a0 .cfa: sp 4 + .ra: .ra
STACK CFI 8c1a2 .cfa: sp 0 + r7: r7
STACK CFI INIT 8c1c0 15c .cfa: sp 0 + .ra: lr
STACK CFI 8c1c4 .cfa: sp 28 + .ra: .cfa -4 + ^ r4: .cfa -28 + ^ r5: .cfa -24 + ^ r6: .cfa -20 + ^ r7: .cfa -16 + ^ r8: .cfa -12 + ^ r9: .cfa -8 + ^
STACK CFI 8c1c8 .cfa: sp 176 +
STACK CFI INIT 8c31c 1a .cfa: sp 0 + .ra: lr
STACK CFI 8c31e .cfa: sp 12 + .ra: .cfa -4 + ^ r4: .cfa -12 + ^ r5: .cfa -8 + ^
STACK CFI 8c320 .cfa: sp 32 +
STACK CFI INIT 8c338 1c .cfa: sp 0 + .ra: lr
STACK CFI 8c33a .cfa: sp 12 + .ra: .cfa -4 + ^ r4: .cfa -12 + ^ r5: .cfa -8 + ^
STACK CFI INIT 8c354 18c .cfa: sp 0 + .ra: lr
STACK CFI 8c35a .cfa: sp 36 + .ra: .cfa -4 + ^ r10: .cfa -12 + ^ r11: .cfa -8 + ^ r4: .cfa -36 + ^ r5: .cfa -32 + ^ r6: .cfa -28 + ^ r7: .cfa -24 + ^ r8: .cfa -20 + ^ r9: .cfa -16 + ^
STACK CFI 8c35e .cfa: sp 232 +
STACK CFI INIT 8c4e0 1c4 .cfa: sp 0 + .ra: lr
STACK CFI 8c4e6 .cfa: sp 36 + .ra: .cfa -4 + ^ r10: .cfa -12 + ^ r11: .cfa -8 + ^ r4: .cfa -36 + ^ r5: .cfa -32 + ^ r6: .cfa -28 + ^ r7: .cfa -24 + ^ r8: .cfa -20 + ^ r9: .cfa -16 + ^
STACK CFI 8c4ec .cfa: sp 256 +
STACK CFI INIT 8c6b0 14 .cfa: sp 0 + .ra: lr
STACK CFI 8c6b2 .cfa: sp 4 + r7: .cfa -4 + ^
STACK CFI 8c6b8 .cfa: sp 0 + r7: r7
STACK CFI INIT 8c6d0 14 .cfa: sp 0 + .ra: lr
STACK CFI 8c6d2 .cfa: sp 4 + r7: .cfa -4 + ^
STACK CFI 8c6d8 .cfa: sp 0 + r7: r7
STACK CFI INIT 8c6f0 48 .cfa: sp 0 + .ra: lr
STACK CFI 8c6f2 .cfa: sp 4 + .ra: .cfa -4 + ^
STACK CFI INIT 8c738 50 .cfa: sp 0 + .ra: lr
STACK CFI 8c73e .cfa: sp 4 + .ra: .cfa -4 + ^
STACK CFI INIT 8c788 18 .cfa: sp 0 + .ra: lr
STACK CFI INIT 8c7a0 3c .cfa: sp 0 + .ra: lr
STACK CFI 8c7a6 .cfa: sp 8 + r4: .cfa -8 + ^ r5: .cfa -4 + ^
STACK CFI INIT 8c7dc 40 .cfa: sp 0 + .ra: lr
STACK CFI 8c7de .cfa: sp 16 + .ra: .cfa -4 + ^ r4: .cfa -16 + ^ r5: .cfa -12 + ^ r6: .cfa -8 + ^
STACK CFI INIT 8c81c 1e8 .cfa: sp 0 + .ra: lr
STACK CFI 8c820 .cfa: sp 32 + .ra: .cfa -4 + ^ r10: .cfa -8 + ^ r4: .cfa -32 + ^ r5: .cfa -28 + ^ r6: .cfa -24 + ^ r7: .cfa -20 + ^ r8: .cfa -16 + ^ r9: .cfa -12 + ^
STACK CFI 8c826 .cfa: sp 144 +
STACK CFI INIT 8ca04 4d8 .cfa: sp 0 + .ra: lr
STACK CFI 8ca08 .cfa: sp 36 + .ra: .cfa -4 + ^ r10: .cfa -12 + ^ r11: .cfa -8 + ^ r4: .cfa -36 + ^ r5: .cfa -32 + ^ r6: .cfa -28 + ^ r7: .cfa -24 + ^ r8: .cfa -20 + ^ r9: .cfa -16 + ^
STACK CFI 8ca0a .cfa: sp 88 +
STACK CFI INIT 8cedc 3a8 .cfa: sp 0 + .ra: lr
STACK CFI 8cee0 .cfa: sp 36 + .ra: .cfa -4 + ^ r10: .cfa -12 + ^ r11: .cfa -8 + ^ r4: .cfa -36 + ^ r5: .cfa -32 + ^ r6: .cfa -28 + ^ r7: .cfa -24 + ^ r8: .cfa -20 + ^ r9: .cfa -16 + ^
STACK CFI 8cee2 .cfa: sp 192 +
STACK CFI 8cee6 .cfa: r7 192 +
STACK CFI INIT 8d284 16 .cfa: sp 0 + .ra: lr
STACK CFI 8d286 .cfa: sp 8 + .ra: .cfa -4 + ^ r4: .cfa -8 + ^
STACK CFI 8d288 .cfa: sp 16 +
STACK CFI INIT 8d29c 34 .cfa: sp 0 + .ra: lr
STACK CFI 8d29e .cfa: sp 8 + .ra: .cfa -4 + ^ r4: .cfa -8 + ^
STACK CFI 8d2a6 .cfa: sp 16 +
STACK CFI INIT 8d2d0 4c .cfa: sp 0 + .ra: lr
STACK CFI 8d2d6 .cfa: sp 12 + r4: .cfa -12 + ^ r5: .cfa -8 + ^ r6: .cfa -4 + ^
STACK CFI INIT 8d31c 44 .cfa: sp 0 + .ra: lr
STACK CFI 8d31e .cfa: sp 24 + .ra: .cfa -4 + ^ r3: .cfa -24 + ^ r4: .cfa -20 + ^ r5: .cfa -16 + ^ r6: .cfa -12 + ^ r7: .cfa -8 + ^
STACK CFI INIT 8d360 1ec .cfa: sp 0 + .ra: lr
STACK CFI 8d364 .cfa: sp 36 + .ra: .cfa -4 + ^ r10: .cfa -12 + ^ r11: .cfa -8 + ^ r4: .cfa -36 + ^ r5: .cfa -32 + ^ r6: .cfa -28 + ^ r7: .cfa -24 + ^ r8: .cfa -20 + ^ r9: .cfa -16 + ^
STACK CFI 8d36a .cfa: sp 168 +
STACK CFI INIT 8d54c 4d8 .cfa: sp 0 + .ra: lr
STACK CFI 8d550 .cfa: sp 36 + .ra: .cfa -4 + ^ r10: .cfa -12 + ^ r11: .cfa -8 + ^ r4: .cfa -36 + ^ r5: .cfa -32 + ^ r6: .cfa -28 + ^ r7: .cfa -24 + ^ r8: .cfa -20 + ^ r9: .cfa -16 + ^
STACK CFI 8d552 .cfa: sp 88 +
STACK CFI INIT 8da24 3a8 .cfa: sp 0 + .ra: lr
STACK CFI 8da28 .cfa: sp 36 + .ra: .cfa -4 + ^ r10: .cfa -12 + ^ r11: .cfa -8 + ^ r4: .cfa -36 + ^ r5: .cfa -32 + ^ r6: .cfa -28 + ^ r7: .cfa -24 + ^ r8: .cfa -20 + ^ r9: .cfa -16 + ^
STACK CFI 8da2a .cfa: sp 208 +
STACK CFI 8da2e .cfa: r7 208 +
STACK CFI INIT 8ddcc 16 .cfa: sp 0 + .ra: lr
STACK CFI 8ddce .cfa: sp 8 + .ra: .cfa -4 + ^ r4: .cfa -8 + ^
STACK CFI 8ddd0 .cfa: sp 16 +
STACK CFI INIT 8dde4 34 .cfa: sp 0 + .ra: lr
STACK CFI 8dde6 .cfa: sp 8 + .ra: .cfa -4 + ^ r4: .cfa -8 + ^
STACK CFI 8ddee .cfa: sp 16 +
STACK CFI INIT 8de18 8c .cfa: sp 0 + .ra: lr
STACK CFI 8de1e .cfa: sp 24 + .ra: .cfa -4 + ^ r4: .cfa -24 + ^ r5: .cfa -20 + ^ r6: .cfa -16 + ^ r7: .cfa -12 + ^ r8: .cfa -8 + ^
STACK CFI INIT 8dea4 54 .cfa: sp 0 + .ra: lr
STACK CFI 8dea6 .cfa: sp 16 + .ra: .cfa -4 + ^ r3: .cfa -16 + ^ r4: .cfa -12 + ^ r5: .cfa -8 + ^
STACK CFI INIT 8def8 10c .cfa: sp 0 + .ra: lr
STACK CFI 8df00 .cfa: sp 20 + .ra: .cfa -4 + ^ r4: .cfa -20 + ^ r5: .cfa -16 + ^ r6: .cfa -12 + ^ r7: .cfa -8 + ^
STACK CFI 8df02 .cfa: sp 112 +
STACK CFI INIT 8e004 62 .cfa: sp 0 + .ra: lr
STACK CFI 8e008 .cfa: sp 24 + .ra: .cfa -4 + ^ r4: .cfa -24 + ^ r5: .cfa -20 + ^ r6: .cfa -16 + ^ r7: .cfa -12 + ^ r8: .cfa -8 + ^
STACK CFI INIT 8e068 c8 .cfa: sp 0 + .ra: lr
STACK CFI 8e06c .cfa: sp 32 + .ra: .cfa -4 + ^ r10: .cfa -8 + ^ r4: .cfa -32 + ^ r5: .cfa -28 + ^ r6: .cfa -24 + ^ r7: .cfa -20 + ^ r8: .cfa -16 + ^ r9: .cfa -12 + ^
STACK CFI 8e072 .cfa: sp 136 +
STACK CFI INIT 8e130 4f8 .cfa: sp 0 + .ra: lr
STACK CFI 8e134 .cfa: sp 36 + .ra: .cfa -4 + ^ r10: .cfa -12 + ^ r11: .cfa -8 + ^ r4: .cfa -36 + ^ r5: .cfa -32 + ^ r6: .cfa -28 + ^ r7: .cfa -24 + ^ r8: .cfa -20 + ^ r9: .cfa -16 + ^
STACK CFI 8e136 .cfa: sp 96 +
STACK CFI INIT 8e628 234 .cfa: sp 0 + .ra: lr
STACK CFI 8e62c .cfa: sp 36 + .ra: .cfa -4 + ^ r10: .cfa -12 + ^ r11: .cfa -8 + ^ r4: .cfa -36 + ^ r5: .cfa -32 + ^ r6: .cfa -28 + ^ r7: .cfa -24 + ^ r8: .cfa -20 + ^ r9: .cfa -16 + ^
STACK CFI 8e632 .cfa: sp 48 +
STACK CFI INIT 8e85c b8 .cfa: sp 0 + .ra: lr
STACK CFI 8e860 .cfa: sp 16 + .ra: .cfa -4 + ^ r4: .cfa -16 + ^ r5: .cfa -12 + ^ r6: .cfa -8 + ^
STACK CFI INIT 8e914 3bc .cfa: sp 0 + .ra: lr
STACK CFI 8e918 .cfa: sp 24 + .ra: .cfa -4 + ^ r4: .cfa -24 + ^ r5: .cfa -20 + ^ r6: .cfa -16 + ^ r7: .cfa -12 + ^ r8: .cfa -8 + ^
STACK CFI INIT 8ecd0 24 .cfa: sp 0 + .ra: lr
STACK CFI INIT 8ecf4 d8 .cfa: sp 0 + .ra: lr
STACK CFI 8ecfa .cfa: sp 24 + .ra: .cfa -4 + ^ r3: .cfa -24 + ^ r4: .cfa -20 + ^ r5: .cfa -16 + ^ r6: .cfa -12 + ^ r7: .cfa -8 + ^
STACK CFI INIT 8edcc 94 .cfa: sp 0 + .ra: lr
STACK CFI 8edd2 .cfa: sp 32 + r10: .cfa -8 + ^ r11: .cfa -4 + ^ r4: .cfa -32 + ^ r5: .cfa -28 + ^ r6: .cfa -24 + ^ r7: .cfa -20 + ^ r8: .cfa -16 + ^ r9: .cfa -12 + ^
STACK CFI INIT 8ee60 f8 .cfa: sp 0 + .ra: lr
STACK CFI 8ee68 .cfa: sp 24 + r4: .cfa -24 + ^ r5: .cfa -20 + ^ r6: .cfa -16 + ^ r7: .cfa -12 + ^ r8: .cfa -8 + ^ r9: .cfa -4 + ^
STACK CFI INIT 8ef58 4f0 .cfa: sp 0 + .ra: lr
STACK CFI 8ef5c .cfa: sp 36 + .ra: .cfa -4 + ^ r10: .cfa -12 + ^ r11: .cfa -8 + ^ r4: .cfa -36 + ^ r5: .cfa -32 + ^ r6: .cfa -28 + ^ r7: .cfa -24 + ^ r8: .cfa -20 + ^ r9: .cfa -16 + ^
STACK CFI 8ef62 .cfa: sp 1216 +
STACK CFI INIT 8f448 7a .cfa: sp 0 + .ra: lr
STACK CFI 8f44c .cfa: sp 32 + .ra: .cfa -4 + ^ r10: .cfa -8 + ^ r4: .cfa -32 + ^ r5: .cfa -28 + ^ r6: .cfa -24 + ^ r7: .cfa -20 + ^ r8: .cfa -16 + ^ r9: .cfa -12 + ^
STACK CFI INIT 8f4c4 9a .cfa: sp 0 + .ra: lr
STACK CFI 8f4c8 .cfa: sp 40 + .ra: .cfa -4 + ^ r10: .cfa -12 + ^ r11: .cfa -8 + ^ r3: .cfa -40 + ^ r4: .cfa -36 + ^ r5: .cfa -32 + ^ r6: .cfa -28 + ^ r7: .cfa -24 + ^ r8: .cfa -20 + ^ r9: .cfa -16 + ^
STACK CFI INIT 8f560 8c .cfa: sp 0 + .ra: lr
STACK CFI 8f566 .cfa: sp 28 + .ra: .cfa -4 + ^ r4: .cfa -28 + ^ r5: .cfa -24 + ^ r6: .cfa -20 + ^ r7: .cfa -16 + ^ r8: .cfa -12 + ^ r9: .cfa -8 + ^
STACK CFI 8f56a .cfa: sp 40 +
STACK CFI INIT 8f5ec 8c .cfa: sp 0 + .ra: lr
STACK CFI 8f5f0 .cfa: sp 24 + .ra: .cfa -4 + ^ r4: .cfa -24 + ^ r5: .cfa -20 + ^ r6: .cfa -16 + ^ r7: .cfa -12 + ^ r8: .cfa -8 + ^
STACK CFI INIT 8f678 88 .cfa: sp 0 + .ra: lr
STACK CFI 8f67c .cfa: sp 32 + .ra: .cfa -4 + ^ r10: .cfa -8 + ^ r4: .cfa -32 + ^ r5: .cfa -28 + ^ r6: .cfa -24 + ^ r7: .cfa -20 + ^ r8: .cfa -16 + ^ r9: .cfa -12 + ^
STACK CFI INIT 8f700 a .cfa: sp 0 + .ra: lr
STACK CFI INIT 8f70c 12 .cfa: sp 0 + .ra: lr
STACK CFI INIT 8f720 44 .cfa: sp 0 + .ra: lr
STACK CFI INIT 8f764 68 .cfa: sp 0 + .ra: lr
STACK CFI 8f770 .cfa: sp 4 + r4: .cfa -4 + ^
STACK CFI INIT 8f7cc 68 .cfa: sp 0 + .ra: lr
STACK CFI 8f7d2 .cfa: sp 16 + .ra: .cfa -4 + ^ r4: .cfa -16 + ^ r5: .cfa -12 + ^ r6: .cfa -8 + ^
STACK CFI INIT 8f834 b4 .cfa: sp 0 + .ra: lr
STACK CFI 8f83a .cfa: sp 36 + .ra: .cfa -4 + ^ r10: .cfa -12 + ^ r11: .cfa -8 + ^ r4: .cfa -36 + ^ r5: .cfa -32 + ^ r6: .cfa -28 + ^ r7: .cfa -24 + ^ r8: .cfa -20 + ^ r9: .cfa -16 + ^
STACK CFI 8f83e .cfa: sp 80 +
STACK CFI INIT 8f8e8 a4 .cfa: sp 0 + .ra: lr
STACK CFI 8f8ec .cfa: sp 24 + .ra: .cfa -4 + ^ r4: .cfa -24 + ^ r5: .cfa -20 + ^ r6: .cfa -16 + ^ r7: .cfa -12 + ^ r8: .cfa -8 + ^
STACK CFI 8f8ee .cfa: sp 64 +
STACK CFI INIT 8f98c 1e .cfa: sp 0 + .ra: lr
STACK CFI 8f98e .cfa: sp 4 + .ra: .cfa -4 + ^
STACK CFI 8f990 .cfa: sp 16 +
STACK CFI INIT 8f9ac 18 .cfa: sp 0 + .ra: lr
STACK CFI 8f9ae .cfa: sp 4 + .ra: .cfa -4 + ^
STACK CFI 8f9b0 .cfa: sp 16 +
STACK CFI INIT 8f9c4 80 .cfa: sp 0 + .ra: lr
STACK CFI 8f9c6 .cfa: sp 16 + .ra: .cfa -4 + ^ r3: .cfa -16 + ^ r4: .cfa -12 + ^ r5: .cfa -8 + ^
STACK CFI INIT 8fa44 a .cfa: sp 0 + .ra: lr
STACK CFI INIT 8fa50 a .cfa: sp 0 + .ra: lr
STACK CFI INIT 8fa5c 32 .cfa: sp 0 + .ra: lr
STACK CFI 8fa60 .cfa: sp 8 + r4: .cfa -8 + ^ r5: .cfa -4 + ^
STACK CFI INIT 8fa90 3a .cfa: sp 0 + .ra: lr
STACK CFI 8fa98 .cfa: sp 12 + r4: .cfa -12 + ^ r5: .cfa -8 + ^ r6: .cfa -4 + ^
STACK CFI INIT 8facc 98 .cfa: sp 0 + .ra: lr
STACK CFI 8face .cfa: sp 20 + .ra: .cfa -4 + ^ r4: .cfa -20 + ^ r5: .cfa -16 + ^ r6: .cfa -12 + ^ r7: .cfa -8 + ^
STACK CFI 8fad4 .cfa: sp 32 +
STACK CFI INIT 8fb70 14 .cfa: sp 0 + .ra: lr
STACK CFI 8fb72 .cfa: sp 4 + r7: .cfa -4 + ^
STACK CFI 8fb78 .cfa: sp 0 + r7: r7
STACK CFI INIT 8fb90 2c .cfa: sp 0 + .ra: lr
STACK CFI 8fb92 .cfa: sp 4 + .ra: .cfa -4 + ^
STACK CFI INIT 8fbbc 9c .cfa: sp 0 + .ra: lr
STACK CFI 8fbbe .cfa: sp 12 + .ra: .cfa -4 + ^ r4: .cfa -12 + ^ r5: .cfa -8 + ^
STACK CFI 8fbc6 .cfa: sp 24 +
STACK CFI INIT 8fc58 8c .cfa: sp 0 + .ra: lr
STACK CFI 8fc5a .cfa: sp 20 + .ra: .cfa -4 + ^ r4: .cfa -20 + ^ r5: .cfa -16 + ^ r6: .cfa -12 + ^ r7: .cfa -8 + ^
STACK CFI 8fc62 .cfa: sp 32 +
STACK CFI INIT 8fcf0 14 .cfa: sp 0 + .ra: lr
STACK CFI 8fcf2 .cfa: sp 4 + r7: .cfa -4 + ^
STACK CFI 8fcf8 .cfa: sp 0 + r7: r7
STACK CFI INIT 8fd10 90 .cfa: sp 0 + .ra: lr
STACK CFI 8fd12 .cfa: sp 16 + r0: .cfa -16 + ^ r1: .cfa -12 + ^ r2: .cfa -8 + ^ r3: .cfa -4 + ^
STACK CFI 8fd14 .cfa: sp 24 + .ra: .cfa -20 + ^ r4: .cfa -24 + ^
STACK CFI 8fd16 .cfa: sp 40 +
STACK CFI INIT 8fda0 44 .cfa: sp 0 + .ra: lr
STACK CFI 8fda2 .cfa: sp 16 + .ra: .cfa -4 + ^ r4: .cfa -16 + ^ r5: .cfa -12 + ^ r6: .cfa -8 + ^
STACK CFI 8fda8 .cfa: sp 24 +
STACK CFI INIT 8fde4 8a .cfa: sp 0 + .ra: lr
STACK CFI 8fde8 .cfa: sp 36 + .ra: .cfa -4 + ^ r10: .cfa -12 + ^ r11: .cfa -8 + ^ r4: .cfa -36 + ^ r5: .cfa -32 + ^ r6: .cfa -28 + ^ r7: .cfa -24 + ^ r8: .cfa -20 + ^ r9: .cfa -16 + ^
STACK CFI 8fdec .cfa: sp 112 +
STACK CFI INIT 8fe70 22 .cfa: sp 0 + .ra: lr
STACK CFI 8fe72 .cfa: sp 8 + .ra: .cfa -4 + ^ r4: .cfa -8 + ^
STACK CFI INIT 8fe94 38 .cfa: sp 0 + .ra: lr
STACK CFI 8fe96 .cfa: sp 4 + .ra: .cfa -4 + ^
STACK CFI INIT 8fed0 14 .cfa: sp 0 + .ra: lr
STACK CFI 8fed2 .cfa: sp 4 + r7: .cfa -4 + ^
STACK CFI 8fed8 .cfa: sp 0 + r7: r7
STACK CFI INIT 8fef0 8c .cfa: sp 0 + .ra: lr
STACK CFI 8fef2 .cfa: sp 24 + .ra: .cfa -4 + ^ r3: .cfa -24 + ^ r4: .cfa -20 + ^ r5: .cfa -16 + ^ r6: .cfa -12 + ^ r7: .cfa -8 + ^
STACK CFI INIT 8ff7c 64 .cfa: sp 0 + .ra: lr
STACK CFI 8ff82 .cfa: sp 16 + .ra: .cfa -4 + ^ r4: .cfa -16 + ^ r5: .cfa -12 + ^ r6: .cfa -8 + ^
STACK CFI INIT 8ffe0 5c .cfa: sp 0 + .ra: lr
STACK CFI 8ffe8 .cfa: sp 16 + .ra: .cfa -4 + ^ r4: .cfa -16 + ^ r5: .cfa -12 + ^ r6: .cfa -8 + ^
STACK CFI INIT 9003c 18 .cfa: sp 0 + .ra: lr
STACK CFI INIT 90060 14 .cfa: sp 0 + .ra: lr
STACK CFI 90062 .cfa: sp 4 + r7: .cfa -4 + ^
STACK CFI 90068 .cfa: sp 0 + r7: r7
STACK CFI INIT 90080 104 .cfa: sp 0 + .ra: lr
STACK CFI 90084 .cfa: sp 36 + .ra: .cfa -4 + ^ r10: .cfa -12 + ^ r11: .cfa -8 + ^ r4: .cfa -36 + ^ r5: .cfa -32 + ^ r6: .cfa -28 + ^ r7: .cfa -24 + ^ r8: .cfa -20 + ^ r9: .cfa -16 + ^
STACK CFI 9008a .cfa: sp 48 +
STACK CFI 90090 .cfa: r7 48 +
STACK CFI INIT 90184 a8 .cfa: sp 0 + .ra: lr
STACK CFI 9018a .cfa: sp 24 + .ra: .cfa -4 + ^ r4: .cfa -24 + ^ r5: .cfa -20 + ^ r6: .cfa -16 + ^ r7: .cfa -12 + ^ r8: .cfa -8 + ^
STACK CFI INIT 9022c 108 .cfa: sp 0 + .ra: lr
STACK CFI 90230 .cfa: sp 36 + .ra: .cfa -4 + ^ r10: .cfa -12 + ^ r11: .cfa -8 + ^ r4: .cfa -36 + ^ r5: .cfa -32 + ^ r6: .cfa -28 + ^ r7: .cfa -24 + ^ r8: .cfa -20 + ^ r9: .cfa -16 + ^
STACK CFI 90236 .cfa: sp 48 +
STACK CFI 9023c .cfa: r7 48 +
STACK CFI INIT 90334 a8 .cfa: sp 0 + .ra: lr
STACK CFI 9033a .cfa: sp 24 + .ra: .cfa -4 + ^ r4: .cfa -24 + ^ r5: .cfa -20 + ^ r6: .cfa -16 + ^ r7: .cfa -12 + ^ r8: .cfa -8 + ^
STACK CFI INIT 903dc 100 .cfa: sp 0 + .ra: lr
STACK CFI 903e0 .cfa: sp 36 + .ra: .cfa -4 + ^ r10: .cfa -12 + ^ r11: .cfa -8 + ^ r4: .cfa -36 + ^ r5: .cfa -32 + ^ r6: .cfa -28 + ^ r7: .cfa -24 + ^ r8: .cfa -20 + ^ r9: .cfa -16 + ^
STACK CFI 903e6 .cfa: sp 56 +
STACK CFI 903ec .cfa: r7 56 +
STACK CFI INIT 904dc b4 .cfa: sp 0 + .ra: lr
STACK CFI 904e0 .cfa: sp 32 + .ra: .cfa -4 + ^ r10: .cfa -8 + ^ r4: .cfa -32 + ^ r5: .cfa -28 + ^ r6: .cfa -24 + ^ r7: .cfa -20 + ^ r8: .cfa -16 + ^ r9: .cfa -12 + ^
STACK CFI INIT 90590 100 .cfa: sp 0 + .ra: lr
STACK CFI 90594 .cfa: sp 36 + .ra: .cfa -4 + ^ r10: .cfa -12 + ^ r11: .cfa -8 + ^ r4: .cfa -36 + ^ r5: .cfa -32 + ^ r6: .cfa -28 + ^ r7: .cfa -24 + ^ r8: .cfa -20 + ^ r9: .cfa -16 + ^
STACK CFI 9059a .cfa: sp 56 +
STACK CFI 905a0 .cfa: r7 48 +
STACK CFI INIT 90690 b4 .cfa: sp 0 + .ra: lr
STACK CFI 90694 .cfa: sp 40 + .ra: .cfa -4 + ^ r10: .cfa -12 + ^ r11: .cfa -8 + ^ r3: .cfa -40 + ^ r4: .cfa -36 + ^ r5: .cfa -32 + ^ r6: .cfa -28 + ^ r7: .cfa -24 + ^ r8: .cfa -20 + ^ r9: .cfa -16 + ^
STACK CFI INIT 90744 e8 .cfa: sp 0 + .ra: lr
STACK CFI 90748 .cfa: sp 36 + .ra: .cfa -4 + ^ r10: .cfa -12 + ^ r11: .cfa -8 + ^ r4: .cfa -36 + ^ r5: .cfa -32 + ^ r6: .cfa -28 + ^ r7: .cfa -24 + ^ r8: .cfa -20 + ^ r9: .cfa -16 + ^
STACK CFI 9074e .cfa: sp 48 +
STACK CFI 90754 .cfa: r7 48 +
STACK CFI INIT 9082c b4 .cfa: sp 0 + .ra: lr
STACK CFI 90830 .cfa: sp 32 + .ra: .cfa -4 + ^ r10: .cfa -8 + ^ r4: .cfa -32 + ^ r5: .cfa -28 + ^ r6: .cfa -24 + ^ r7: .cfa -20 + ^ r8: .cfa -16 + ^ r9: .cfa -12 + ^
STACK CFI INIT 908e0 e8 .cfa: sp 0 + .ra: lr
STACK CFI 908e4 .cfa: sp 36 + .ra: .cfa -4 + ^ r10: .cfa -12 + ^ r11: .cfa -8 + ^ r4: .cfa -36 + ^ r5: .cfa -32 + ^ r6: .cfa -28 + ^ r7: .cfa -24 + ^ r8: .cfa -20 + ^ r9: .cfa -16 + ^
STACK CFI 908ea .cfa: sp 56 +
STACK CFI 908f0 .cfa: r7 48 +
STACK CFI INIT 909c8 b4 .cfa: sp 0 + .ra: lr
STACK CFI 909cc .cfa: sp 40 + .ra: .cfa -4 + ^ r10: .cfa -12 + ^ r11: .cfa -8 + ^ r3: .cfa -40 + ^ r4: .cfa -36 + ^ r5: .cfa -32 + ^ r6: .cfa -28 + ^ r7: .cfa -24 + ^ r8: .cfa -20 + ^ r9: .cfa -16 + ^
STACK CFI INIT 90a7c 58 .cfa: sp 0 + .ra: lr
STACK CFI 90a82 .cfa: sp 8 + .ra: .cfa -4 + ^ r4: .cfa -8 + ^
STACK CFI 90a86 .cfa: sp 32 +
STACK CFI INIT 90ad4 58 .cfa: sp 0 + .ra: lr
STACK CFI 90ada .cfa: sp 8 + .ra: .cfa -4 + ^ r4: .cfa -8 + ^
STACK CFI 90ade .cfa: sp 32 +
STACK CFI INIT 90b2c 7c .cfa: sp 0 + .ra: lr
STACK CFI 90b32 .cfa: sp 4 + .ra: .cfa -4 + ^
STACK CFI 90b34 .cfa: sp 32 +
STACK CFI INIT 90ba8 7c .cfa: sp 0 + .ra: lr
STACK CFI 90bae .cfa: sp 4 + .ra: .cfa -4 + ^
STACK CFI 90bb0 .cfa: sp 32 +
STACK CFI INIT 90c24 38 .cfa: sp 0 + .ra: lr
STACK CFI 90c26 .cfa: sp 8 + .ra: .cfa -4 + ^ r3: .cfa -8 + ^
STACK CFI INIT 90c5c 1c .cfa: sp 0 + .ra: lr
STACK CFI 90c5e .cfa: sp 4 + .ra: .cfa -4 + ^
STACK CFI 90c60 .cfa: sp 16 +
STACK CFI INIT 90c78 58 .cfa: sp 0 + .ra: lr
STACK CFI 90c7a .cfa: sp 20 + .ra: .cfa -4 + ^ r4: .cfa -20 + ^ r5: .cfa -16 + ^ r6: .cfa -12 + ^ r7: .cfa -8 + ^
STACK CFI 90c7c .cfa: sp 416 +
STACK CFI INIT 90cd0 14 .cfa: sp 0 + .ra: lr
STACK CFI 90cd2 .cfa: sp 4 + r7: .cfa -4 + ^
STACK CFI 90cd8 .cfa: sp 0 + r7: r7
STACK CFI INIT 90cf0 38 .cfa: sp 0 + .ra: lr
STACK CFI 90cf2 .cfa: sp 16 + .ra: .cfa -4 + ^ r4: .cfa -16 + ^ r5: .cfa -12 + ^ r6: .cfa -8 + ^
STACK CFI 90cf4 .cfa: sp 408 +
STACK CFI INIT 90d30 14 .cfa: sp 0 + .ra: lr
STACK CFI 90d32 .cfa: sp 4 + r7: .cfa -4 + ^
STACK CFI 90d38 .cfa: sp 0 + r7: r7
STACK CFI INIT 90d50 16 .cfa: sp 0 + .ra: lr
STACK CFI 90d52 .cfa: sp 8 + r4: .cfa -8 + ^ r7: .cfa -4 + ^
STACK CFI 90d5a .cfa: sp 0 + r4: r4 r7: r7
STACK CFI INIT 90d70 50 .cfa: sp 0 + .ra: lr
STACK CFI 90d80 .cfa: sp 8 + r4: .cfa -8 + ^ r7: .cfa -4 + ^
STACK CFI 90d8a .cfa: sp 0 + r4: r4 r7: r7
STACK CFI 90d96 .cfa: sp 8 + r4: .cfa -8 + ^ r7: .cfa -4 + ^
STACK CFI 90d98 .cfa: sp 32 + .ra: .cfa -12 + ^
STACK CFI 90da0 .cfa: sp 16 +
STACK CFI 90db2 .cfa: sp 8 + .ra: .ra
STACK CFI 90db4 .cfa: sp 0 + r4: r4 r7: r7
STACK CFI INIT 90dd0 12c .cfa: sp 0 + .ra: lr
STACK CFI 90dd4 .cfa: sp 36 + .ra: .cfa -4 + ^ r10: .cfa -12 + ^ r11: .cfa -8 + ^ r4: .cfa -36 + ^ r5: .cfa -32 + ^ r6: .cfa -28 + ^ r7: .cfa -24 + ^ r8: .cfa -20 + ^ r9: .cfa -16 + ^
STACK CFI 90dd6 .cfa: sp 208 +
STACK CFI INIT 90f00 14 .cfa: sp 0 + .ra: lr
STACK CFI 90f02 .cfa: sp 4 + r7: .cfa -4 + ^
STACK CFI 90f08 .cfa: sp 0 + r7: r7
STACK CFI INIT 90f20 14 .cfa: sp 0 + .ra: lr
STACK CFI 90f22 .cfa: sp 4 + r7: .cfa -4 + ^
STACK CFI 90f28 .cfa: sp 0 + r7: r7
STACK CFI INIT 90f40 14 .cfa: sp 0 + .ra: lr
STACK CFI 90f42 .cfa: sp 4 + r7: .cfa -4 + ^
STACK CFI 90f48 .cfa: sp 0 + r7: r7
STACK CFI INIT 90f60 50 .cfa: sp 0 + .ra: lr
STACK CFI 90f70 .cfa: sp 4 + r7: .cfa -4 + ^
STACK CFI 90f78 .cfa: sp 0 + r7: r7
STACK CFI 90f84 .cfa: sp 4 + r7: .cfa -4 + ^
STACK CFI 90f86 .cfa: sp 16 + .ra: .cfa -8 + ^
STACK CFI 90f90 .cfa: sp 8 +
STACK CFI 90fa2 .cfa: sp 4 + .ra: .ra
STACK CFI 90fa4 .cfa: sp 0 + r7: r7
STACK CFI INIT 90fc0 14 .cfa: sp 0 + .ra: lr
STACK CFI 90fc2 .cfa: sp 4 + r7: .cfa -4 + ^
STACK CFI 90fc8 .cfa: sp 0 + r7: r7
STACK CFI INIT 90fe0 14 .cfa: sp 0 + .ra: lr
STACK CFI 90fe2 .cfa: sp 4 + r7: .cfa -4 + ^
STACK CFI 90fe8 .cfa: sp 0 + r7: r7
STACK CFI INIT 91000 50 .cfa: sp 0 + .ra: lr
STACK CFI 91010 .cfa: sp 4 + r7: .cfa -4 + ^
STACK CFI 91018 .cfa: sp 0 + r7: r7
STACK CFI 91024 .cfa: sp 4 + r7: .cfa -4 + ^
STACK CFI 91026 .cfa: sp 16 + .ra: .cfa -8 + ^
STACK CFI 91030 .cfa: sp 8 +
STACK CFI 91042 .cfa: sp 4 + .ra: .ra
STACK CFI 91044 .cfa: sp 0 + r7: r7
STACK CFI INIT 91060 14 .cfa: sp 0 + .ra: lr
STACK CFI 91062 .cfa: sp 4 + r7: .cfa -4 + ^
STACK CFI 91068 .cfa: sp 0 + r7: r7
STACK CFI INIT 91080 40 .cfa: sp 0 + .ra: lr
STACK CFI 91090 .cfa: sp 4 + .ra: .cfa -4 + ^
STACK CFI INIT 910c0 138 .cfa: sp 0 + .ra: lr
STACK CFI 910ca .cfa: sp 36 + .ra: .cfa -4 + ^ r10: .cfa -12 + ^ r11: .cfa -8 + ^ r4: .cfa -36 + ^ r5: .cfa -32 + ^ r6: .cfa -28 + ^ r7: .cfa -24 + ^ r8: .cfa -20 + ^ r9: .cfa -16 + ^
STACK CFI 910cc .cfa: sp 160 +
STACK CFI 910d0 .cfa: r7 152 +
STACK CFI INIT 911f8 b8 .cfa: sp 0 + .ra: lr
STACK CFI 911fe .cfa: sp 8 + .ra: .cfa -4 + ^ r4: .cfa -8 + ^
STACK CFI 91202 .cfa: sp 16 +
STACK CFI INIT 912b0 14 .cfa: sp 0 + .ra: lr
STACK CFI 912b2 .cfa: sp 4 + r7: .cfa -4 + ^
STACK CFI 912b8 .cfa: sp 0 + r7: r7
STACK CFI INIT 912d0 14 .cfa: sp 0 + .ra: lr
STACK CFI 912d2 .cfa: sp 4 + r7: .cfa -4 + ^
STACK CFI 912d8 .cfa: sp 0 + r7: r7
STACK CFI INIT 912f0 14 .cfa: sp 0 + .ra: lr
STACK CFI 912f2 .cfa: sp 4 + r7: .cfa -4 + ^
STACK CFI 912f8 .cfa: sp 0 + r7: r7
STACK CFI INIT 91310 1a .cfa: sp 0 + .ra: lr
STACK CFI 91316 .cfa: sp 8 + .ra: .cfa -4 + ^ r4: .cfa -8 + ^
STACK CFI INIT 9132c a .cfa: sp 0 + .ra: lr
STACK CFI INIT 91338 c .cfa: sp 0 + .ra: lr
STACK CFI INIT 91344 18 .cfa: sp 0 + .ra: lr
STACK CFI 9134a .cfa: sp 8 + .ra: .cfa -4 + ^ r4: .cfa -8 + ^
STACK CFI INIT 9135c a .cfa: sp 0 + .ra: lr
STACK CFI INIT 91368 c .cfa: sp 0 + .ra: lr
STACK CFI INIT 91374 24 .cfa: sp 0 + .ra: lr
STACK CFI INIT 91398 28 .cfa: sp 0 + .ra: lr
STACK CFI INIT 913c0 24 .cfa: sp 0 + .ra: lr
STACK CFI INIT 913e4 28 .cfa: sp 0 + .ra: lr
STACK CFI INIT 9140c 38 .cfa: sp 0 + .ra: lr
STACK CFI 9140e .cfa: sp 4 + .ra: .cfa -4 + ^
STACK CFI 91410 .cfa: sp 40 +
STACK CFI INIT 91444 38 .cfa: sp 0 + .ra: lr
STACK CFI 91456 .cfa: sp 12 + .ra: .cfa -4 + ^ r4: .cfa -12 + ^ r5: .cfa -8 + ^
STACK CFI 9145e .cfa: sp 24 +
STACK CFI INIT 9147c 34 .cfa: sp 0 + .ra: lr
STACK CFI INIT 914b0 34 .cfa: sp 0 + .ra: lr
STACK CFI INIT 914e4 70 .cfa: sp 0 + .ra: lr
STACK CFI 914e6 .cfa: sp 16 + r0: .cfa -16 + ^ r1: .cfa -12 + ^ r2: .cfa -8 + ^ r3: .cfa -4 + ^
STACK CFI 914ec .cfa: sp 24 + .ra: .cfa -20 + ^ r4: .cfa -24 + ^
STACK CFI 914ee .cfa: sp 32 +
STACK CFI INIT 91554 18 .cfa: sp 0 + .ra: lr
STACK CFI 91556 .cfa: sp 8 + .ra: .cfa -4 + ^ r3: .cfa -8 + ^
STACK CFI INIT 9156c 88 .cfa: sp 0 + .ra: lr
STACK CFI 91570 .cfa: sp 16 + .ra: .cfa -4 + ^ r4: .cfa -16 + ^ r5: .cfa -12 + ^ r6: .cfa -8 + ^
STACK CFI INIT 915f4 86 .cfa: sp 0 + .ra: lr
STACK CFI 915f6 .cfa: sp 16 + r4: .cfa -16 + ^ r5: .cfa -12 + ^ r6: .cfa -8 + ^ r7: .cfa -4 + ^
STACK CFI INIT 9167c 4c .cfa: sp 0 + .ra: lr
STACK CFI 9167e .cfa: sp 16 + .ra: .cfa -4 + ^ r4: .cfa -16 + ^ r5: .cfa -12 + ^ r7: .cfa -8 + ^
STACK CFI 91682 .cfa: r7 16 +
STACK CFI INIT 916c8 c .cfa: sp 0 + .ra: lr
STACK CFI 916ca .cfa: sp 8 + .ra: .cfa -4 + ^ r3: .cfa -8 + ^
STACK CFI INIT 916d4 1f4 .cfa: sp 0 + .ra: lr
STACK CFI 916d8 .cfa: sp 36 + .ra: .cfa -4 + ^ r10: .cfa -12 + ^ r11: .cfa -8 + ^ r4: .cfa -36 + ^ r5: .cfa -32 + ^ r6: .cfa -28 + ^ r7: .cfa -24 + ^ r8: .cfa -20 + ^ r9: .cfa -16 + ^
STACK CFI 916de .cfa: sp 1064 +
STACK CFI INIT 918c8 418 .cfa: sp 0 + .ra: lr
STACK CFI 918cc .cfa: sp 36 + .ra: .cfa -4 + ^ r10: .cfa -12 + ^ r11: .cfa -8 + ^ r4: .cfa -36 + ^ r5: .cfa -32 + ^ r6: .cfa -28 + ^ r7: .cfa -24 + ^ r8: .cfa -20 + ^ r9: .cfa -16 + ^
STACK CFI 918ce .cfa: sp 72 +
STACK CFI 918d2 .cfa: r7 56 +
STACK CFI INIT 91ce0 48 .cfa: sp 0 + .ra: lr
STACK CFI 91ce2 .cfa: sp 16 + .ra: .cfa -4 + ^ r4: .cfa -16 + ^ r5: .cfa -12 + ^ r6: .cfa -8 + ^
STACK CFI INIT 91d28 2c .cfa: sp 0 + .ra: lr
STACK CFI 91d2a .cfa: sp 4 + .ra: .cfa -4 + ^
STACK CFI INIT 91d54 84 .cfa: sp 0 + .ra: lr
STACK CFI 91d56 .cfa: sp 16 + .ra: .cfa -4 + ^ r4: .cfa -16 + ^ r5: .cfa -12 + ^ r6: .cfa -8 + ^
STACK CFI 91d58 .cfa: sp 32 +
STACK CFI INIT 91dd8 18c .cfa: sp 0 + .ra: lr
STACK CFI 91dda .cfa: sp 20 + .ra: .cfa -4 + ^ r4: .cfa -20 + ^ r5: .cfa -16 + ^ r6: .cfa -12 + ^ r7: .cfa -8 + ^
STACK CFI 91dde .cfa: sp 72 +
STACK CFI INIT 91f64 10c .cfa: sp 0 + .ra: lr
STACK CFI 91f68 .cfa: sp 24 + .ra: .cfa -4 + ^ r4: .cfa -24 + ^ r5: .cfa -20 + ^ r6: .cfa -16 + ^ r7: .cfa -12 + ^ r8: .cfa -8 + ^
STACK CFI 91f6a .cfa: sp 32 +
STACK CFI 91f70 .cfa: r7 24 +
STACK CFI INIT 92070 14 .cfa: sp 0 + .ra: lr
STACK CFI 92072 .cfa: sp 4 + r7: .cfa -4 + ^
STACK CFI 92078 .cfa: sp 0 + r7: r7
STACK CFI INIT 92090 14 .cfa: sp 0 + .ra: lr
STACK CFI 92092 .cfa: sp 4 + r7: .cfa -4 + ^
STACK CFI 92098 .cfa: sp 0 + r7: r7
STACK CFI INIT 920b0 30 .cfa: sp 0 + .ra: lr
STACK CFI 920b2 .cfa: sp 4 + .ra: .cfa -4 + ^
STACK CFI INIT 920e0 30 .cfa: sp 0 + .ra: lr
STACK CFI 920e2 .cfa: sp 4 + .ra: .cfa -4 + ^
STACK CFI INIT 92110 16 .cfa: sp 0 + .ra: lr
STACK CFI INIT 92128 e .cfa: sp 0 + .ra: lr
STACK CFI INIT 92138 b4 .cfa: sp 0 + .ra: lr
STACK CFI 9213a .cfa: sp 8 + r4: .cfa -8 + ^ r5: .cfa -4 + ^
STACK CFI INIT 921ec 40 .cfa: sp 0 + .ra: lr
STACK CFI 921ee .cfa: sp 8 + .ra: .cfa -4 + ^ r4: .cfa -8 + ^
STACK CFI INIT 9222c 298 .cfa: sp 0 + .ra: lr
STACK CFI 92230 .cfa: sp 40 + .ra: .cfa -4 + ^ r10: .cfa -12 + ^ r11: .cfa -8 + ^ r3: .cfa -40 + ^ r4: .cfa -36 + ^ r5: .cfa -32 + ^ r6: .cfa -28 + ^ r7: .cfa -24 + ^ r8: .cfa -20 + ^ r9: .cfa -16 + ^
STACK CFI INIT 924c4 24 .cfa: sp 0 + .ra: lr
STACK CFI 924c6 .cfa: sp 8 + .ra: .cfa -4 + ^ r4: .cfa -8 + ^
STACK CFI INIT 924e8 26 .cfa: sp 0 + .ra: lr
STACK CFI 924ea .cfa: sp 16 + .ra: .cfa -4 + ^ r3: .cfa -16 + ^ r4: .cfa -12 + ^ r5: .cfa -8 + ^
STACK CFI INIT 92510 17c .cfa: sp 0 + .ra: lr
STACK CFI 92514 .cfa: sp 32 + .ra: .cfa -4 + ^ r10: .cfa -8 + ^ r4: .cfa -32 + ^ r5: .cfa -28 + ^ r6: .cfa -24 + ^ r7: .cfa -20 + ^ r8: .cfa -16 + ^ r9: .cfa -12 + ^
STACK CFI 92516 .cfa: sp 136 +
STACK CFI INIT 9268c 2c .cfa: sp 0 + .ra: lr
STACK CFI 9268e .cfa: sp 8 + .ra: .cfa -4 + ^ r4: .cfa -8 + ^
STACK CFI INIT 926b8 20 .cfa: sp 0 + .ra: lr
STACK CFI 926ba .cfa: sp 16 + .ra: .cfa -4 + ^ r3: .cfa -16 + ^ r4: .cfa -12 + ^ r5: .cfa -8 + ^
STACK CFI INIT 926d8 14 .cfa: sp 0 + .ra: lr
STACK CFI 926da .cfa: sp 8 + .ra: .cfa -4 + ^ r3: .cfa -8 + ^
STACK CFI INIT 926ec 150 .cfa: sp 0 + .ra: lr
STACK CFI 926f0 .cfa: sp 36 + .ra: .cfa -4 + ^ r10: .cfa -12 + ^ r11: .cfa -8 + ^ r4: .cfa -36 + ^ r5: .cfa -32 + ^ r6: .cfa -28 + ^ r7: .cfa -24 + ^ r8: .cfa -20 + ^ r9: .cfa -16 + ^
STACK CFI 926f6 .cfa: sp 160 +
STACK CFI INIT 9283c 6e .cfa: sp 0 + .ra: lr
STACK CFI 9283e .cfa: sp 24 + .ra: .cfa -4 + ^ r3: .cfa -24 + ^ r4: .cfa -20 + ^ r5: .cfa -16 + ^ r6: .cfa -12 + ^ r7: .cfa -8 + ^
STACK CFI 92842 .cfa: r7 24 +
STACK CFI INIT 928ac 19c .cfa: sp 0 + .ra: lr
STACK CFI 928b0 .cfa: sp 36 + .ra: .cfa -4 + ^ r10: .cfa -12 + ^ r11: .cfa -8 + ^ r4: .cfa -36 + ^ r5: .cfa -32 + ^ r6: .cfa -28 + ^ r7: .cfa -24 + ^ r8: .cfa -20 + ^ r9: .cfa -16 + ^
STACK CFI 928b2 .cfa: sp 56 +
STACK CFI INIT 92a48 24 .cfa: sp 0 + .ra: lr
STACK CFI 92a4a .cfa: sp 8 + .ra: .cfa -4 + ^ r4: .cfa -8 + ^
STACK CFI INIT 92a6c 58 .cfa: sp 0 + .ra: lr
STACK CFI 92a6e .cfa: sp 12 + .ra: .cfa -4 + ^ r4: .cfa -12 + ^ r5: .cfa -8 + ^
STACK CFI INIT 92ac4 430 .cfa: sp 0 + .ra: lr
STACK CFI 92ac8 .cfa: sp 36 + .ra: .cfa -4 + ^ r10: .cfa -12 + ^ r11: .cfa -8 + ^ r4: .cfa -36 + ^ r5: .cfa -32 + ^ r6: .cfa -28 + ^ r7: .cfa -24 + ^ r8: .cfa -20 + ^ r9: .cfa -16 + ^
STACK CFI 92acc .cfa: sp 160 +
STACK CFI INIT 92ef4 22 .cfa: sp 0 + .ra: lr
STACK CFI 92ef6 .cfa: sp 12 + r1: .cfa -12 + ^ r2: .cfa -8 + ^ r3: .cfa -4 + ^
STACK CFI 92efc .cfa: sp 20 + .ra: .cfa -16 + ^ r4: .cfa -20 + ^
STACK CFI 92efe .cfa: sp 32 +
STACK CFI INIT 92f18 1e .cfa: sp 0 + .ra: lr
STACK CFI 92f1a .cfa: sp 8 + r2: .cfa -8 + ^ r3: .cfa -4 + ^
STACK CFI 92f1c .cfa: sp 16 + .ra: .cfa -12 + ^ r4: .cfa -16 + ^
STACK CFI 92f1e .cfa: sp 24 +
STACK CFI INIT 92f38 a .cfa: sp 0 + .ra: lr
STACK CFI INIT 92f44 60 .cfa: sp 0 + .ra: lr
STACK CFI 92f48 .cfa: sp 16 + .ra: .cfa -4 + ^ r4: .cfa -16 + ^ r5: .cfa -12 + ^ r6: .cfa -8 + ^
STACK CFI INIT 92fa4 78 .cfa: sp 0 + .ra: lr
STACK CFI 92faa .cfa: sp 8 + .ra: .cfa -4 + ^ r4: .cfa -8 + ^
STACK CFI INIT 9301c 14 .cfa: sp 0 + .ra: lr
STACK CFI INIT 93030 20 .cfa: sp 0 + .ra: lr
STACK CFI 93034 .cfa: sp 16 + r4: .cfa -16 + ^ r5: .cfa -12 + ^ r6: .cfa -8 + ^ r7: .cfa -4 + ^
STACK CFI 93044 .cfa: sp 0 + r4: r4 r5: r5 r6: r6 r7: r7
STACK CFI INIT 93050 f4 .cfa: sp 0 + .ra: lr
STACK CFI 93052 .cfa: sp 20 + .ra: .cfa -4 + ^ r4: .cfa -20 + ^ r5: .cfa -16 + ^ r6: .cfa -12 + ^ r7: .cfa -8 + ^
STACK CFI 93054 .cfa: sp 128 +
STACK CFI INIT 93150 30 .cfa: sp 0 + .ra: lr
STACK CFI 93152 .cfa: sp 4 + r5: .cfa -4 + ^
STACK CFI 93156 .cfa: sp 8 + r4: .cfa -8 + ^
STACK CFI 93164 .cfa: sp 12 + r7: .cfa -12 + ^
STACK CFI 9316a .cfa: sp 8 + r7: r7
STACK CFI 9316c .cfa: sp 4 + r4: r4
STACK CFI 9316e .cfa: sp 0 + r5: r5
STACK CFI 9317a .cfa: sp 8 + r4: .cfa -8 + ^ r5: .cfa -4 + ^ r7: r7
STACK CFI INIT 93190 40 .cfa: sp 0 + .ra: lr
STACK CFI 93196 .cfa: sp 4 + r5: .cfa -4 + ^
STACK CFI 9319a .cfa: sp 8 + r4: .cfa -8 + ^
STACK CFI 931b2 .cfa: sp 12 + r7: .cfa -12 + ^
STACK CFI 931b8 .cfa: sp 8 + r7: r7
STACK CFI 931be .cfa: sp 0 + r4: r4 r5: r5
STACK CFI 931c6 .cfa: sp 8 + r4: .cfa -8 + ^ r5: .cfa -4 + ^ r7: r7
STACK CFI 931cc .cfa: sp 0 + r4: r4 r5: r5
STACK CFI INIT 931e0 14 .cfa: sp 0 + .ra: lr
STACK CFI 931e2 .cfa: sp 4 + r7: .cfa -4 + ^
STACK CFI 931e8 .cfa: sp 0 + r7: r7
STACK CFI INIT 93200 14 .cfa: sp 0 + .ra: lr
STACK CFI 93202 .cfa: sp 4 + r7: .cfa -4 + ^
STACK CFI 93208 .cfa: sp 0 + r7: r7
STACK CFI INIT 93220 14 .cfa: sp 0 + .ra: lr
STACK CFI 93222 .cfa: sp 4 + r7: .cfa -4 + ^
STACK CFI 93228 .cfa: sp 0 + r7: r7
STACK CFI INIT 93240 4e .cfa: sp 0 + .ra: lr
STACK CFI 93250 .cfa: sp 4 + r7: .cfa -4 + ^
STACK CFI 93258 .cfa: sp 0 + r7: r7
STACK CFI 93264 .cfa: sp 4 + r7: .cfa -4 + ^
STACK CFI 93266 .cfa: sp 24 + .ra: .cfa -8 + ^
STACK CFI 9326e .cfa: sp 8 +
STACK CFI 93280 .cfa: sp 4 + .ra: .ra
STACK CFI 93282 .cfa: sp 0 + r7: r7
STACK CFI INIT 932a0 14 .cfa: sp 0 + .ra: lr
STACK CFI 932a2 .cfa: sp 4 + r7: .cfa -4 + ^
STACK CFI 932a8 .cfa: sp 0 + r7: r7
STACK CFI INIT 932c0 14 .cfa: sp 0 + .ra: lr
STACK CFI 932c2 .cfa: sp 4 + r7: .cfa -4 + ^
STACK CFI 932c8 .cfa: sp 0 + r7: r7
STACK CFI INIT 932e0 16 .cfa: sp 0 + .ra: lr
STACK CFI 932e2 .cfa: sp 8 + r4: .cfa -8 + ^ r7: .cfa -4 + ^
STACK CFI 932ea .cfa: sp 0 + r4: r4 r7: r7
STACK CFI INIT 93300 14 .cfa: sp 0 + .ra: lr
STACK CFI 93302 .cfa: sp 4 + r7: .cfa -4 + ^
STACK CFI 93308 .cfa: sp 0 + r7: r7
STACK CFI INIT 93320 14 .cfa: sp 0 + .ra: lr
STACK CFI 93322 .cfa: sp 4 + r7: .cfa -4 + ^
STACK CFI 93328 .cfa: sp 0 + r7: r7
STACK CFI INIT 93340 14 .cfa: sp 0 + .ra: lr
STACK CFI 93342 .cfa: sp 4 + r7: .cfa -4 + ^
STACK CFI 93348 .cfa: sp 0 + r7: r7
STACK CFI INIT 93360 14 .cfa: sp 0 + .ra: lr
STACK CFI 93362 .cfa: sp 4 + r7: .cfa -4 + ^
STACK CFI 93368 .cfa: sp 0 + r7: r7
STACK CFI INIT 93380 c .cfa: sp 0 + .ra: lr
STACK CFI INIT 9338c 24 .cfa: sp 0 + .ra: lr
STACK CFI 9338e .cfa: sp 12 + .ra: .cfa -4 + ^ r4: .cfa -12 + ^ r5: .cfa -8 + ^
STACK CFI 93390 .cfa: sp 40 +
STACK CFI INIT 933b0 c .cfa: sp 0 + .ra: lr
STACK CFI INIT 933bc 9c .cfa: sp 0 + .ra: lr
STACK CFI 933be .cfa: sp 24 + .ra: .cfa -4 + ^ r3: .cfa -24 + ^ r4: .cfa -20 + ^ r5: .cfa -16 + ^ r6: .cfa -12 + ^ r7: .cfa -8 + ^
STACK CFI INIT 93458 28 .cfa: sp 0 + .ra: lr
STACK CFI 9345a .cfa: sp 8 + .ra: .cfa -4 + ^ r4: .cfa -8 + ^
STACK CFI INIT 93480 14c .cfa: sp 0 + .ra: lr
STACK CFI 93484 .cfa: sp 36 + .ra: .cfa -4 + ^ r10: .cfa -12 + ^ r11: .cfa -8 + ^ r4: .cfa -36 + ^ r5: .cfa -32 + ^ r6: .cfa -28 + ^ r7: .cfa -24 + ^ r8: .cfa -20 + ^ r9: .cfa -16 + ^
STACK CFI 93486 .cfa: sp 64 +
STACK CFI INIT 935cc 4a .cfa: sp 0 + .ra: lr
STACK CFI 935d0 .cfa: sp 16 + .ra: .cfa -4 + ^ r4: .cfa -16 + ^ r5: .cfa -12 + ^ r6: .cfa -8 + ^
STACK CFI INIT 93618 26 .cfa: sp 0 + .ra: lr
STACK CFI 9361a .cfa: sp 16 + .ra: .cfa -4 + ^ r3: .cfa -16 + ^ r4: .cfa -12 + ^ r5: .cfa -8 + ^
STACK CFI INIT 93640 d2 .cfa: sp 0 + .ra: lr
STACK CFI 93642 .cfa: sp 12 + r4: .cfa -12 + ^ r5: .cfa -8 + ^ r6: .cfa -4 + ^
STACK CFI INIT 93714 c4 .cfa: sp 0 + .ra: lr
STACK CFI 93718 .cfa: sp 36 + .ra: .cfa -4 + ^ r10: .cfa -12 + ^ r11: .cfa -8 + ^ r4: .cfa -36 + ^ r5: .cfa -32 + ^ r6: .cfa -28 + ^ r7: .cfa -24 + ^ r8: .cfa -20 + ^ r9: .cfa -16 + ^
STACK CFI 9371a .cfa: sp 64 +
STACK CFI INIT 937d8 2a .cfa: sp 0 + .ra: lr
STACK CFI 937da .cfa: sp 16 + .ra: .cfa -4 + ^ r4: .cfa -16 + ^ r5: .cfa -12 + ^ r6: .cfa -8 + ^
STACK CFI INIT 93804 2ec .cfa: sp 0 + .ra: lr
STACK CFI 93808 .cfa: sp 36 + .ra: .cfa -4 + ^ r10: .cfa -12 + ^ r11: .cfa -8 + ^ r4: .cfa -36 + ^ r5: .cfa -32 + ^ r6: .cfa -28 + ^ r7: .cfa -24 + ^ r8: .cfa -20 + ^ r9: .cfa -16 + ^
STACK CFI 9380a .cfa: sp 56 +
STACK CFI 9380c .cfa: r7 56 +
STACK CFI INIT 93af0 e .cfa: sp 0 + .ra: lr
STACK CFI INIT 93b00 6 .cfa: sp 0 + .ra: lr
STACK CFI INIT 93b08 58 .cfa: sp 0 + .ra: lr
STACK CFI 93b0c .cfa: sp 40 + .ra: .cfa -4 + ^ r10: .cfa -12 + ^ r11: .cfa -8 + ^ r3: .cfa -40 + ^ r4: .cfa -36 + ^ r5: .cfa -32 + ^ r6: .cfa -28 + ^ r7: .cfa -24 + ^ r8: .cfa -20 + ^ r9: .cfa -16 + ^
STACK CFI INIT 93b60 40 .cfa: sp 0 + .ra: lr
STACK CFI 93b64 .cfa: sp 32 + .ra: .cfa -4 + ^ r3: .cfa -32 + ^ r4: .cfa -28 + ^ r5: .cfa -24 + ^ r6: .cfa -20 + ^ r7: .cfa -16 + ^ r8: .cfa -12 + ^ r9: .cfa -8 + ^
STACK CFI INIT 93ba0 cc .cfa: sp 0 + .ra: lr
STACK CFI 93ba4 .cfa: sp 36 + .ra: .cfa -4 + ^ r10: .cfa -12 + ^ r11: .cfa -8 + ^ r4: .cfa -36 + ^ r5: .cfa -32 + ^ r6: .cfa -28 + ^ r7: .cfa -24 + ^ r8: .cfa -20 + ^ r9: .cfa -16 + ^
STACK CFI 93ba6 .cfa: sp 72 +
STACK CFI 93baa .cfa: r7 72 +
STACK CFI INIT 93c6c 84 .cfa: sp 0 + .ra: lr
STACK CFI 93c70 .cfa: sp 16 + .ra: .cfa -4 + ^ r4: .cfa -16 + ^ r6: .cfa -12 + ^ r7: .cfa -8 + ^
STACK CFI INIT 93cf0 d0 .cfa: sp 0 + .ra: lr
STACK CFI 93cf4 .cfa: sp 32 + .ra: .cfa -4 + ^ r3: .cfa -32 + ^ r4: .cfa -28 + ^ r5: .cfa -24 + ^ r6: .cfa -20 + ^ r7: .cfa -16 + ^ r8: .cfa -12 + ^ r9: .cfa -8 + ^
STACK CFI INIT 93dc0 1e .cfa: sp 0 + .ra: lr
STACK CFI 93dc2 .cfa: sp 16 + r0: .cfa -16 + ^ r1: .cfa -12 + ^ r2: .cfa -8 + ^ r3: .cfa -4 + ^
STACK CFI 93dc4 .cfa: sp 20 + .ra: .cfa -20 + ^
STACK CFI 93dc6 .cfa: sp 32 +
STACK CFI INIT 93de0 1e .cfa: sp 0 + .ra: lr
STACK CFI 93de2 .cfa: sp 16 + r0: .cfa -16 + ^ r1: .cfa -12 + ^ r2: .cfa -8 + ^ r3: .cfa -4 + ^
STACK CFI 93de4 .cfa: sp 20 + .ra: .cfa -20 + ^
STACK CFI 93de6 .cfa: sp 32 +
STACK CFI INIT 93e00 12 .cfa: sp 0 + .ra: lr
STACK CFI 93e02 .cfa: sp 8 + .ra: .cfa -4 + ^ r4: .cfa -8 + ^
STACK CFI INIT 93e14 12 .cfa: sp 0 + .ra: lr
STACK CFI 93e16 .cfa: sp 8 + .ra: .cfa -4 + ^ r4: .cfa -8 + ^
STACK CFI INIT 93e28 14 .cfa: sp 0 + .ra: lr
STACK CFI 93e2a .cfa: sp 12 + r1: .cfa -12 + ^ r2: .cfa -8 + ^ r3: .cfa -4 + ^
STACK CFI 93e2c .cfa: sp 16 + .ra: .cfa -16 + ^
STACK CFI 93e2e .cfa: sp 24 +
STACK CFI INIT 93e3c 14 .cfa: sp 0 + .ra: lr
STACK CFI 93e3e .cfa: sp 12 + r1: .cfa -12 + ^ r2: .cfa -8 + ^ r3: .cfa -4 + ^
STACK CFI 93e40 .cfa: sp 16 + .ra: .cfa -16 + ^
STACK CFI 93e42 .cfa: sp 24 +
STACK CFI INIT 93e50 28 .cfa: sp 0 + .ra: lr
STACK CFI 93e52 .cfa: sp 4 + .ra: .cfa -4 + ^
STACK CFI 93e56 .cfa: sp 1032 +
STACK CFI INIT 93e78 154 .cfa: sp 0 + .ra: lr
STACK CFI 93e7c .cfa: sp 36 + .ra: .cfa -4 + ^ r10: .cfa -12 + ^ r11: .cfa -8 + ^ r4: .cfa -36 + ^ r5: .cfa -32 + ^ r6: .cfa -28 + ^ r7: .cfa -24 + ^ r8: .cfa -20 + ^ r9: .cfa -16 + ^
STACK CFI 93e7e .cfa: sp 88 +
STACK CFI 93e80 .cfa: r7 88 +
STACK CFI INIT 93fcc a4 .cfa: sp 0 + .ra: lr
STACK CFI 93fce .cfa: sp 8 + r2: .cfa -8 + ^ r3: .cfa -4 + ^
STACK CFI 93fd4 .cfa: sp 28 + .ra: .cfa -12 + ^ r4: .cfa -28 + ^ r5: .cfa -24 + ^ r6: .cfa -20 + ^ r7: .cfa -16 + ^
STACK CFI 93fd8 .cfa: sp 40 +
STACK CFI INIT 94070 108 .cfa: sp 0 + .ra: lr
STACK CFI 94074 .cfa: sp 24 + .ra: .cfa -4 + ^ r4: .cfa -24 + ^ r5: .cfa -20 + ^ r6: .cfa -16 + ^ r7: .cfa -12 + ^ r8: .cfa -8 + ^
STACK CFI 9407e .cfa: sp 32 +
STACK CFI INIT 94178 50 .cfa: sp 0 + .ra: lr
STACK CFI 9417a .cfa: sp 12 + .ra: .cfa -4 + ^ r4: .cfa -12 + ^ r5: .cfa -8 + ^
STACK CFI INIT 941c8 174 .cfa: sp 0 + .ra: lr
STACK CFI 941cc .cfa: sp 40 + .ra: .cfa -4 + ^ r10: .cfa -12 + ^ r11: .cfa -8 + ^ r3: .cfa -40 + ^ r4: .cfa -36 + ^ r5: .cfa -32 + ^ r6: .cfa -28 + ^ r7: .cfa -24 + ^ r8: .cfa -20 + ^ r9: .cfa -16 + ^
STACK CFI INIT 9433c a4 .cfa: sp 0 + .ra: lr
STACK CFI 9433e .cfa: sp 20 + .ra: .cfa -4 + ^ r4: .cfa -20 + ^ r5: .cfa -16 + ^ r6: .cfa -12 + ^ r7: .cfa -8 + ^
STACK CFI 94342 .cfa: sp 8212 +
STACK CFI 94344 .cfa: sp 8224 +
STACK CFI INIT 943e0 224 .cfa: sp 0 + .ra: lr
STACK CFI 943e4 .cfa: sp 36 + .ra: .cfa -4 + ^ r10: .cfa -12 + ^ r11: .cfa -8 + ^ r4: .cfa -36 + ^ r5: .cfa -32 + ^ r6: .cfa -28 + ^ r7: .cfa -24 + ^ r8: .cfa -20 + ^ r9: .cfa -16 + ^
STACK CFI 943e6 .cfa: sp 80 +
STACK CFI 943ea .cfa: r7 72 +
STACK CFI INIT 94604 84 .cfa: sp 0 + .ra: lr
STACK CFI 9460a .cfa: sp 24 + .ra: .cfa -4 + ^ r4: .cfa -24 + ^ r5: .cfa -20 + ^ r6: .cfa -16 + ^ r7: .cfa -12 + ^ r8: .cfa -8 + ^
STACK CFI 9460e .cfa: sp 32 +
STACK CFI INIT 94688 c .cfa: sp 0 + .ra: lr
STACK CFI INIT 94694 c .cfa: sp 0 + .ra: lr
STACK CFI INIT 946a0 80 .cfa: sp 0 + .ra: lr
STACK CFI 946a2 .cfa: sp 8 + .ra: .cfa -4 + ^ r4: .cfa -8 + ^
STACK CFI INIT 94720 cc .cfa: sp 0 + .ra: lr
STACK CFI 94724 .cfa: sp 28 + .ra: .cfa -4 + ^ r4: .cfa -28 + ^ r5: .cfa -24 + ^ r6: .cfa -20 + ^ r7: .cfa -16 + ^ r8: .cfa -12 + ^ r9: .cfa -8 + ^
STACK CFI 9472c .cfa: sp 104 +
STACK CFI INIT 947ec 1c .cfa: sp 0 + .ra: lr
STACK CFI INIT 94810 14 .cfa: sp 0 + .ra: lr
STACK CFI 94812 .cfa: sp 4 + r7: .cfa -4 + ^
STACK CFI 94818 .cfa: sp 0 + r7: r7
STACK CFI INIT 94830 14 .cfa: sp 0 + .ra: lr
STACK CFI 94832 .cfa: sp 4 + r7: .cfa -4 + ^
STACK CFI 94838 .cfa: sp 0 + r7: r7
STACK CFI INIT 94850 14 .cfa: sp 0 + .ra: lr
STACK CFI 94852 .cfa: sp 4 + r7: .cfa -4 + ^
STACK CFI 94858 .cfa: sp 0 + r7: r7
STACK CFI INIT 94870 16 .cfa: sp 0 + .ra: lr
STACK CFI 94872 .cfa: sp 8 + r4: .cfa -8 + ^ r7: .cfa -4 + ^
STACK CFI 9487a .cfa: sp 0 + r4: r4 r7: r7
STACK CFI INIT 94890 14 .cfa: sp 0 + .ra: lr
STACK CFI 94892 .cfa: sp 4 + r7: .cfa -4 + ^
STACK CFI 94898 .cfa: sp 0 + r7: r7
STACK CFI INIT 948b0 14 .cfa: sp 0 + .ra: lr
STACK CFI 948b2 .cfa: sp 4 + r7: .cfa -4 + ^
STACK CFI 948b8 .cfa: sp 0 + r7: r7
STACK CFI INIT 948d0 14 .cfa: sp 0 + .ra: lr
STACK CFI 948d2 .cfa: sp 4 + r7: .cfa -4 + ^
STACK CFI 948d8 .cfa: sp 0 + r7: r7
STACK CFI INIT 948f0 14 .cfa: sp 0 + .ra: lr
STACK CFI 948f2 .cfa: sp 4 + r7: .cfa -4 + ^
STACK CFI 948f8 .cfa: sp 0 + r7: r7
STACK CFI INIT 94910 14 .cfa: sp 0 + .ra: lr
STACK CFI 94912 .cfa: sp 4 + r7: .cfa -4 + ^
STACK CFI 94918 .cfa: sp 0 + r7: r7
STACK CFI INIT 94930 16 .cfa: sp 0 + .ra: lr
STACK CFI 94932 .cfa: sp 8 + r4: .cfa -8 + ^ r7: .cfa -4 + ^
STACK CFI 9493a .cfa: sp 0 + r4: r4 r7: r7
STACK CFI INIT 94950 14 .cfa: sp 0 + .ra: lr
STACK CFI 94952 .cfa: sp 4 + r7: .cfa -4 + ^
STACK CFI 94958 .cfa: sp 0 + r7: r7
STACK CFI INIT 94970 16 .cfa: sp 0 + .ra: lr
STACK CFI 94972 .cfa: sp 8 + r4: .cfa -8 + ^ r7: .cfa -4 + ^
STACK CFI 9497a .cfa: sp 0 + r4: r4 r7: r7
STACK CFI INIT 94990 3c .cfa: sp 0 + .ra: lr
STACK CFI INIT 949cc 88 .cfa: sp 0 + .ra: lr
STACK CFI 949d6 .cfa: sp 32 + .ra: .cfa -4 + ^ r10: .cfa -8 + ^ r4: .cfa -32 + ^ r5: .cfa -28 + ^ r6: .cfa -24 + ^ r7: .cfa -20 + ^ r8: .cfa -16 + ^ r9: .cfa -12 + ^
STACK CFI INIT 94a54 4c .cfa: sp 0 + .ra: lr
STACK CFI 94a56 .cfa: sp 16 + .ra: .cfa -4 + ^ r4: .cfa -16 + ^ r5: .cfa -12 + ^ r6: .cfa -8 + ^
STACK CFI 94a58 .cfa: sp 32 +
STACK CFI INIT 94aa0 44 .cfa: sp 0 + .ra: lr
STACK CFI 94aa2 .cfa: sp 12 + .ra: .cfa -4 + ^ r4: .cfa -12 + ^ r5: .cfa -8 + ^
STACK CFI 94aa4 .cfa: sp 32 +
STACK CFI INIT 94ae4 9c .cfa: sp 0 + .ra: lr
STACK CFI 94ae8 .cfa: sp 32 + .ra: .cfa -4 + ^ r3: .cfa -32 + ^ r4: .cfa -28 + ^ r5: .cfa -24 + ^ r6: .cfa -20 + ^ r7: .cfa -16 + ^ r8: .cfa -12 + ^ r9: .cfa -8 + ^
STACK CFI INIT bd52c 10 .cfa: sp 0 + .ra: lr
STACK CFI INIT 94b80 58 .cfa: sp 0 + .ra: lr
STACK CFI 94b82 .cfa: sp 16 + .ra: .cfa -4 + ^ r3: .cfa -16 + ^ r4: .cfa -12 + ^ r5: .cfa -8 + ^
STACK CFI INIT 94bd8 10 .cfa: sp 0 + .ra: lr
STACK CFI 94bda .cfa: sp 8 + .ra: .cfa -4 + ^ r3: .cfa -8 + ^
STACK CFI INIT 94be8 2a .cfa: sp 0 + .ra: lr
STACK CFI 94bea .cfa: sp 8 + .ra: .cfa -4 + ^ r4: .cfa -8 + ^
STACK CFI INIT 94c14 3c .cfa: sp 0 + .ra: lr
STACK CFI 94c16 .cfa: sp 16 + .ra: .cfa -4 + ^ r4: .cfa -16 + ^ r5: .cfa -12 + ^ r6: .cfa -8 + ^
STACK CFI INIT 94c50 3c .cfa: sp 0 + .ra: lr
STACK CFI 94c52 .cfa: sp 16 + .ra: .cfa -4 + ^ r4: .cfa -16 + ^ r5: .cfa -12 + ^ r6: .cfa -8 + ^
STACK CFI INIT 94c8c 18 .cfa: sp 0 + .ra: lr
STACK CFI 94c8e .cfa: sp 8 + .ra: .cfa -4 + ^ r4: .cfa -8 + ^
STACK CFI INIT 94ca4 34 .cfa: sp 0 + .ra: lr
STACK CFI INIT 94cd8 34 .cfa: sp 0 + .ra: lr
STACK CFI INIT 94d0c 18 .cfa: sp 0 + .ra: lr
STACK CFI INIT 94d24 88 .cfa: sp 0 + .ra: lr
STACK CFI 94d28 .cfa: sp 32 + .ra: .cfa -4 + ^ r10: .cfa -8 + ^ r4: .cfa -32 + ^ r5: .cfa -28 + ^ r6: .cfa -24 + ^ r7: .cfa -20 + ^ r8: .cfa -16 + ^ r9: .cfa -12 + ^
STACK CFI 94d30 .cfa: sp 48 +
STACK CFI INIT 94dac 24 .cfa: sp 0 + .ra: lr
STACK CFI 94dae .cfa: sp 16 + .ra: .cfa -4 + ^ r4: .cfa -16 + ^ r5: .cfa -12 + ^ r6: .cfa -8 + ^
STACK CFI 94db0 .cfa: sp 32 +
STACK CFI INIT 94dd0 24 .cfa: sp 0 + .ra: lr
STACK CFI 94dd2 .cfa: sp 8 + .ra: .cfa -4 + ^ r4: .cfa -8 + ^
STACK CFI 94dd4 .cfa: sp 16 +
STACK CFI INIT 94df8 210 .cfa: sp 0 + .ra: lr
STACK CFI 94dfc .cfa: sp 36 + .ra: .cfa -4 + ^ r10: .cfa -12 + ^ r11: .cfa -8 + ^ r4: .cfa -36 + ^ r5: .cfa -32 + ^ r6: .cfa -28 + ^ r7: .cfa -24 + ^ r8: .cfa -20 + ^ r9: .cfa -16 + ^
STACK CFI 94dfe .cfa: sp 56 +
STACK CFI INIT 95008 1c8 .cfa: sp 0 + .ra: lr
STACK CFI 9500c .cfa: sp 36 + .ra: .cfa -4 + ^ r10: .cfa -12 + ^ r11: .cfa -8 + ^ r4: .cfa -36 + ^ r5: .cfa -32 + ^ r6: .cfa -28 + ^ r7: .cfa -24 + ^ r8: .cfa -20 + ^ r9: .cfa -16 + ^
STACK CFI 9500e .cfa: sp 64 +
STACK CFI INIT 951d0 88 .cfa: sp 0 + .ra: lr
STACK CFI 951d4 .cfa: sp 32 + .ra: .cfa -4 + ^ r10: .cfa -8 + ^ r4: .cfa -32 + ^ r5: .cfa -28 + ^ r6: .cfa -24 + ^ r7: .cfa -20 + ^ r8: .cfa -16 + ^ r9: .cfa -12 + ^
STACK CFI 951dc .cfa: sp 48 +
STACK CFI INIT 95258 24 .cfa: sp 0 + .ra: lr
STACK CFI 9525a .cfa: sp 16 + .ra: .cfa -4 + ^ r4: .cfa -16 + ^ r5: .cfa -12 + ^ r6: .cfa -8 + ^
STACK CFI 9525c .cfa: sp 32 +
STACK CFI INIT 9527c 24 .cfa: sp 0 + .ra: lr
STACK CFI 9527e .cfa: sp 8 + .ra: .cfa -4 + ^ r4: .cfa -8 + ^
STACK CFI 95280 .cfa: sp 16 +
STACK CFI INIT 952a0 210 .cfa: sp 0 + .ra: lr
STACK CFI 952a4 .cfa: sp 36 + .ra: .cfa -4 + ^ r10: .cfa -12 + ^ r11: .cfa -8 + ^ r4: .cfa -36 + ^ r5: .cfa -32 + ^ r6: .cfa -28 + ^ r7: .cfa -24 + ^ r8: .cfa -20 + ^ r9: .cfa -16 + ^
STACK CFI 952a6 .cfa: sp 56 +
STACK CFI INIT 954b0 1c8 .cfa: sp 0 + .ra: lr
STACK CFI 954b4 .cfa: sp 36 + .ra: .cfa -4 + ^ r10: .cfa -12 + ^ r11: .cfa -8 + ^ r4: .cfa -36 + ^ r5: .cfa -32 + ^ r6: .cfa -28 + ^ r7: .cfa -24 + ^ r8: .cfa -20 + ^ r9: .cfa -16 + ^
STACK CFI 954b6 .cfa: sp 64 +
STACK CFI INIT 95678 3c .cfa: sp 0 + .ra: lr
STACK CFI 9567a .cfa: sp 16 + .ra: .cfa -4 + ^ r4: .cfa -16 + ^ r5: .cfa -12 + ^ r6: .cfa -8 + ^
STACK CFI INIT 956b4 184 .cfa: sp 0 + .ra: lr
STACK CFI 956b8 .cfa: sp 24 + .ra: .cfa -4 + ^ r4: .cfa -24 + ^ r5: .cfa -20 + ^ r6: .cfa -16 + ^ r7: .cfa -12 + ^ r8: .cfa -8 + ^
STACK CFI 956ba .cfa: sp 296 +
STACK CFI INIT 95838 a8 .cfa: sp 0 + .ra: lr
STACK CFI 9583c .cfa: sp 20 + .ra: .cfa -4 + ^ r4: .cfa -20 + ^ r5: .cfa -16 + ^ r6: .cfa -12 + ^ r7: .cfa -8 + ^
STACK CFI 95840 .cfa: sp 32 +
STACK CFI INIT 958e0 2c .cfa: sp 0 + .ra: lr
STACK CFI INIT 9590c 14 .cfa: sp 0 + .ra: lr
STACK CFI INIT 95920 14 .cfa: sp 0 + .ra: lr
STACK CFI INIT 95934 14 .cfa: sp 0 + .ra: lr
STACK CFI INIT 95948 14 .cfa: sp 0 + .ra: lr
STACK CFI INIT 9595c 14 .cfa: sp 0 + .ra: lr
STACK CFI INIT 95970 14 .cfa: sp 0 + .ra: lr
STACK CFI INIT 95984 4c .cfa: sp 0 + .ra: lr
STACK CFI 95986 .cfa: sp 16 + .ra: .cfa -4 + ^ r4: .cfa -16 + ^ r5: .cfa -12 + ^ r6: .cfa -8 + ^
STACK CFI 95988 .cfa: sp 56 +
STACK CFI INIT 959d0 26 .cfa: sp 0 + .ra: lr
STACK CFI 959ec .cfa: sp 8 + r4: .cfa -8 + ^ r7: .cfa -4 + ^
STACK CFI INIT 95a02 0 .cfa: sp 0 + .ra: lr
STACK CFI INIT 95a40 40 .cfa: sp 0 + .ra: lr
STACK CFI 95a42 .cfa: sp 8 + .ra: .cfa -4 + ^ r4: .cfa -8 + ^
STACK CFI 95a44 .cfa: sp 16 +
STACK CFI INIT 95a80 6 .cfa: sp 0 + .ra: lr
STACK CFI INIT 95a90 14 .cfa: sp 0 + .ra: lr
STACK CFI 95a92 .cfa: sp 4 + r7: .cfa -4 + ^
STACK CFI 95a98 .cfa: sp 0 + r7: r7
STACK CFI INIT 95ab0 30 .cfa: sp 0 + .ra: lr
STACK CFI 95ab2 .cfa: sp 8 + .ra: .cfa -4 + ^ r4: .cfa -8 + ^
STACK CFI INIT 95ae0 e .cfa: sp 0 + .ra: lr
STACK CFI 95ae2 .cfa: sp 4 + .ra: .cfa -4 + ^
STACK CFI INIT 95af0 e .cfa: sp 0 + .ra: lr
STACK CFI 95af2 .cfa: sp 4 + .ra: .cfa -4 + ^
STACK CFI INIT 95b00 10 .cfa: sp 0 + .ra: lr
STACK CFI INIT 95b10 10 .cfa: sp 0 + .ra: lr
STACK CFI INIT 95b20 2c .cfa: sp 0 + .ra: lr
STACK CFI 95b22 .cfa: sp 16 + r4: .cfa -16 + ^ r5: .cfa -12 + ^ r6: .cfa -8 + ^ r7: .cfa -4 + ^
STACK CFI INIT 95b4c 8c .cfa: sp 0 + .ra: lr
STACK CFI 95b50 .cfa: sp 32 + .ra: .cfa -4 + ^ r10: .cfa -8 + ^ r4: .cfa -32 + ^ r5: .cfa -28 + ^ r6: .cfa -24 + ^ r7: .cfa -20 + ^ r8: .cfa -16 + ^ r9: .cfa -12 + ^
STACK CFI INIT 95bd8 80 .cfa: sp 0 + .ra: lr
STACK CFI 95bda .cfa: sp 20 + .ra: .cfa -4 + ^ r4: .cfa -20 + ^ r5: .cfa -16 + ^ r6: .cfa -12 + ^ r7: .cfa -8 + ^
STACK CFI INIT 95c58 78 .cfa: sp 0 + .ra: lr
STACK CFI 95c5a .cfa: sp 12 + .ra: .cfa -4 + ^ r4: .cfa -12 + ^ r5: .cfa -8 + ^
STACK CFI INIT 95cd0 12 .cfa: sp 0 + .ra: lr
STACK CFI 95cd2 .cfa: sp 8 + .ra: .cfa -4 + ^ r3: .cfa -8 + ^
STACK CFI INIT 95ce4 20 .cfa: sp 0 + .ra: lr
STACK CFI 95ce6 .cfa: sp 4 + .ra: .cfa -4 + ^
STACK CFI 95ce8 .cfa: sp 16 +
STACK CFI INIT 95d04 118 .cfa: sp 0 + .ra: lr
STACK CFI 95d06 .cfa: sp 20 + .ra: .cfa -4 + ^ r4: .cfa -20 + ^ r5: .cfa -16 + ^ r6: .cfa -12 + ^ r7: .cfa -8 + ^
STACK CFI 95d08 .cfa: sp 56 +
STACK CFI INIT 95e20 14 .cfa: sp 0 + .ra: lr
STACK CFI 95e22 .cfa: sp 4 + r7: .cfa -4 + ^
STACK CFI 95e28 .cfa: sp 0 + r7: r7
STACK CFI INIT 95e40 1a .cfa: sp 0 + .ra: lr
STACK CFI 95e44 .cfa: sp 12 + r4: .cfa -12 + ^ r5: .cfa -8 + ^ r7: .cfa -4 + ^
STACK CFI 95e4e .cfa: sp 0 + r4: r4 r5: r5 r7: r7
STACK CFI INIT 95e60 14 .cfa: sp 0 + .ra: lr
STACK CFI 95e62 .cfa: sp 4 + r7: .cfa -4 + ^
STACK CFI 95e68 .cfa: sp 0 + r7: r7
STACK CFI INIT 95e80 14 .cfa: sp 0 + .ra: lr
STACK CFI 95e82 .cfa: sp 4 + r7: .cfa -4 + ^
STACK CFI 95e88 .cfa: sp 0 + r7: r7
STACK CFI INIT 95ea0 14 .cfa: sp 0 + .ra: lr
STACK CFI 95ea2 .cfa: sp 4 + r7: .cfa -4 + ^
STACK CFI 95ea8 .cfa: sp 0 + r7: r7
STACK CFI INIT 95ec0 14 .cfa: sp 0 + .ra: lr
STACK CFI 95ec2 .cfa: sp 4 + r7: .cfa -4 + ^
STACK CFI 95ec8 .cfa: sp 0 + r7: r7
STACK CFI INIT 95ee0 14 .cfa: sp 0 + .ra: lr
STACK CFI 95ee2 .cfa: sp 4 + r7: .cfa -4 + ^
STACK CFI 95ee8 .cfa: sp 0 + r7: r7
STACK CFI INIT 95f00 14 .cfa: sp 0 + .ra: lr
STACK CFI 95f02 .cfa: sp 4 + r7: .cfa -4 + ^
STACK CFI 95f08 .cfa: sp 0 + r7: r7
STACK CFI INIT 95f20 14 .cfa: sp 0 + .ra: lr
STACK CFI 95f22 .cfa: sp 4 + r7: .cfa -4 + ^
STACK CFI 95f28 .cfa: sp 0 + r7: r7
STACK CFI INIT 95f40 14 .cfa: sp 0 + .ra: lr
STACK CFI 95f42 .cfa: sp 4 + r7: .cfa -4 + ^
STACK CFI 95f48 .cfa: sp 0 + r7: r7
STACK CFI INIT 95f60 14 .cfa: sp 0 + .ra: lr
STACK CFI 95f62 .cfa: sp 4 + r7: .cfa -4 + ^
STACK CFI 95f68 .cfa: sp 0 + r7: r7
STACK CFI INIT 95f80 14 .cfa: sp 0 + .ra: lr
STACK CFI 95f82 .cfa: sp 4 + r7: .cfa -4 + ^
STACK CFI 95f88 .cfa: sp 0 + r7: r7
STACK CFI INIT 95fa0 4e .cfa: sp 0 + .ra: lr
STACK CFI 95fb0 .cfa: sp 4 + r7: .cfa -4 + ^
STACK CFI 95fb8 .cfa: sp 0 + r7: r7
STACK CFI 95fc4 .cfa: sp 4 + r7: .cfa -4 + ^
STACK CFI 95fc6 .cfa: sp 24 + .ra: .cfa -8 + ^
STACK CFI 95fce .cfa: sp 8 +
STACK CFI 95fe0 .cfa: sp 4 + .ra: .ra
STACK CFI 95fe2 .cfa: sp 0 + r7: r7
STACK CFI INIT 96000 16 .cfa: sp 0 + .ra: lr
STACK CFI 96002 .cfa: sp 8 + r4: .cfa -8 + ^ r7: .cfa -4 + ^
STACK CFI 9600a .cfa: sp 0 + r4: r4 r7: r7
STACK CFI INIT 96020 14 .cfa: sp 0 + .ra: lr
STACK CFI 96022 .cfa: sp 4 + r7: .cfa -4 + ^
STACK CFI 96028 .cfa: sp 0 + r7: r7
STACK CFI INIT 96040 14 .cfa: sp 0 + .ra: lr
STACK CFI 96042 .cfa: sp 4 + r7: .cfa -4 + ^
STACK CFI 96048 .cfa: sp 0 + r7: r7
STACK CFI INIT 96060 14 .cfa: sp 0 + .ra: lr
STACK CFI 96062 .cfa: sp 4 + r7: .cfa -4 + ^
STACK CFI 96068 .cfa: sp 0 + r7: r7
STACK CFI INIT 96080 14 .cfa: sp 0 + .ra: lr
STACK CFI 96082 .cfa: sp 4 + r7: .cfa -4 + ^
STACK CFI 96088 .cfa: sp 0 + r7: r7
STACK CFI INIT 960a0 14 .cfa: sp 0 + .ra: lr
STACK CFI 960a2 .cfa: sp 4 + r7: .cfa -4 + ^
STACK CFI 960a8 .cfa: sp 0 + r7: r7
STACK CFI INIT 960c0 16 .cfa: sp 0 + .ra: lr
STACK CFI 960c2 .cfa: sp 8 + r4: .cfa -8 + ^ r7: .cfa -4 + ^
STACK CFI 960ca .cfa: sp 0 + r4: r4 r7: r7
STACK CFI INIT 960e0 16 .cfa: sp 0 + .ra: lr
STACK CFI 960e2 .cfa: sp 8 + r4: .cfa -8 + ^ r7: .cfa -4 + ^
STACK CFI 960ea .cfa: sp 0 + r4: r4 r7: r7
STACK CFI INIT 96100 14 .cfa: sp 0 + .ra: lr
STACK CFI 96102 .cfa: sp 4 + r7: .cfa -4 + ^
STACK CFI 96108 .cfa: sp 0 + r7: r7
STACK CFI INIT 96120 14 .cfa: sp 0 + .ra: lr
STACK CFI 96122 .cfa: sp 4 + r7: .cfa -4 + ^
STACK CFI 96128 .cfa: sp 0 + r7: r7
STACK CFI INIT 96140 14 .cfa: sp 0 + .ra: lr
STACK CFI 96142 .cfa: sp 4 + r7: .cfa -4 + ^
STACK CFI 96148 .cfa: sp 0 + r7: r7
STACK CFI INIT 96160 16 .cfa: sp 0 + .ra: lr
STACK CFI 96162 .cfa: sp 8 + r4: .cfa -8 + ^ r7: .cfa -4 + ^
STACK CFI 9616a .cfa: sp 0 + r4: r4 r7: r7
STACK CFI INIT 96180 14 .cfa: sp 0 + .ra: lr
STACK CFI 96182 .cfa: sp 4 + r7: .cfa -4 + ^
STACK CFI 96188 .cfa: sp 0 + r7: r7
STACK CFI INIT 961a0 1a .cfa: sp 0 + .ra: lr
STACK CFI 961a4 .cfa: sp 12 + r4: .cfa -12 + ^ r5: .cfa -8 + ^ r7: .cfa -4 + ^
STACK CFI 961ae .cfa: sp 0 + r4: r4 r5: r5 r7: r7
STACK CFI INIT 961c0 54 .cfa: sp 0 + .ra: lr
STACK CFI 961d2 .cfa: sp 12 + r4: .cfa -12 + ^ r5: .cfa -8 + ^ r7: .cfa -4 + ^
STACK CFI 961de .cfa: sp 0 + r4: r4 r5: r5 r7: r7
STACK CFI 961ea .cfa: sp 12 + r4: .cfa -12 + ^ r5: .cfa -8 + ^ r7: .cfa -4 + ^
STACK CFI 961ec .cfa: sp 32 + .ra: .cfa -16 + ^
STACK CFI 961f4 .cfa: sp 16 +
STACK CFI 96206 .cfa: sp 12 + .ra: .ra
STACK CFI 96208 .cfa: sp 0 + r4: r4 r5: r5 r7: r7
STACK CFI INIT 96220 14 .cfa: sp 0 + .ra: lr
STACK CFI 96222 .cfa: sp 4 + r7: .cfa -4 + ^
STACK CFI 96228 .cfa: sp 0 + r7: r7
STACK CFI INIT 96240 14 .cfa: sp 0 + .ra: lr
STACK CFI 96242 .cfa: sp 4 + r7: .cfa -4 + ^
STACK CFI 96248 .cfa: sp 0 + r7: r7
STACK CFI INIT 96260 4e .cfa: sp 0 + .ra: lr
STACK CFI 96270 .cfa: sp 4 + r7: .cfa -4 + ^
STACK CFI 96278 .cfa: sp 0 + r7: r7
STACK CFI 96284 .cfa: sp 4 + r7: .cfa -4 + ^
STACK CFI 96286 .cfa: sp 24 + .ra: .cfa -8 + ^
STACK CFI 9628e .cfa: sp 8 +
STACK CFI 962a0 .cfa: sp 4 + .ra: .ra
STACK CFI 962a2 .cfa: sp 0 + r7: r7
STACK CFI INIT 962c0 14 .cfa: sp 0 + .ra: lr
STACK CFI 962c2 .cfa: sp 4 + r7: .cfa -4 + ^
STACK CFI 962c8 .cfa: sp 0 + r7: r7
STACK CFI INIT 962e0 14 .cfa: sp 0 + .ra: lr
STACK CFI 962e2 .cfa: sp 4 + r7: .cfa -4 + ^
STACK CFI 962e8 .cfa: sp 0 + r7: r7
STACK CFI INIT 96300 14 .cfa: sp 0 + .ra: lr
STACK CFI 96302 .cfa: sp 4 + r7: .cfa -4 + ^
STACK CFI 96308 .cfa: sp 0 + r7: r7
STACK CFI INIT 96320 4e .cfa: sp 0 + .ra: lr
STACK CFI 96330 .cfa: sp 4 + r7: .cfa -4 + ^
STACK CFI 96338 .cfa: sp 0 + r7: r7
STACK CFI 96344 .cfa: sp 4 + r7: .cfa -4 + ^
STACK CFI 96346 .cfa: sp 24 + .ra: .cfa -8 + ^
STACK CFI 9634e .cfa: sp 8 +
STACK CFI 96360 .cfa: sp 4 + .ra: .ra
STACK CFI 96362 .cfa: sp 0 + r7: r7
STACK CFI INIT 96380 14 .cfa: sp 0 + .ra: lr
STACK CFI 96382 .cfa: sp 4 + r7: .cfa -4 + ^
STACK CFI 96388 .cfa: sp 0 + r7: r7
STACK CFI INIT 963a0 14 .cfa: sp 0 + .ra: lr
STACK CFI 963a2 .cfa: sp 4 + r7: .cfa -4 + ^
STACK CFI 963a8 .cfa: sp 0 + r7: r7
STACK CFI INIT 963c0 14 .cfa: sp 0 + .ra: lr
STACK CFI 963c2 .cfa: sp 4 + r7: .cfa -4 + ^
STACK CFI 963c8 .cfa: sp 0 + r7: r7
STACK CFI INIT 963e0 14 .cfa: sp 0 + .ra: lr
STACK CFI 963e2 .cfa: sp 4 + r7: .cfa -4 + ^
STACK CFI 963e8 .cfa: sp 0 + r7: r7
STACK CFI INIT 96400 16 .cfa: sp 0 + .ra: lr
STACK CFI 96402 .cfa: sp 8 + r4: .cfa -8 + ^ r7: .cfa -4 + ^
STACK CFI 9640a .cfa: sp 0 + r4: r4 r7: r7
STACK CFI INIT 96420 14 .cfa: sp 0 + .ra: lr
STACK CFI 96422 .cfa: sp 4 + r7: .cfa -4 + ^
STACK CFI 96428 .cfa: sp 0 + r7: r7
STACK CFI INIT 96440 4e .cfa: sp 0 + .ra: lr
STACK CFI 96450 .cfa: sp 4 + r7: .cfa -4 + ^
STACK CFI 96458 .cfa: sp 0 + r7: r7
STACK CFI 96464 .cfa: sp 4 + r7: .cfa -4 + ^
STACK CFI 96466 .cfa: sp 24 + .ra: .cfa -8 + ^
STACK CFI 9646e .cfa: sp 8 +
STACK CFI 96480 .cfa: sp 4 + .ra: .ra
STACK CFI 96482 .cfa: sp 0 + r7: r7
STACK CFI INIT 964a0 14 .cfa: sp 0 + .ra: lr
STACK CFI 964a2 .cfa: sp 4 + r7: .cfa -4 + ^
STACK CFI 964a8 .cfa: sp 0 + r7: r7
STACK CFI INIT 964c0 1a .cfa: sp 0 + .ra: lr
STACK CFI 964c4 .cfa: sp 12 + r4: .cfa -12 + ^ r5: .cfa -8 + ^ r7: .cfa -4 + ^
STACK CFI 964ce .cfa: sp 0 + r4: r4 r5: r5 r7: r7
STACK CFI INIT 964e0 1a .cfa: sp 0 + .ra: lr
STACK CFI 964e4 .cfa: sp 12 + r4: .cfa -12 + ^ r5: .cfa -8 + ^ r7: .cfa -4 + ^
STACK CFI 964ee .cfa: sp 0 + r4: r4 r5: r5 r7: r7
STACK CFI INIT 96500 18 .cfa: sp 0 + .ra: lr
STACK CFI INIT 96520 14 .cfa: sp 0 + .ra: lr
STACK CFI 96522 .cfa: sp 4 + r7: .cfa -4 + ^
STACK CFI 96528 .cfa: sp 0 + r7: r7
STACK CFI INIT 96540 4e .cfa: sp 0 + .ra: lr
STACK CFI 96550 .cfa: sp 4 + r7: .cfa -4 + ^
STACK CFI 96558 .cfa: sp 0 + r7: r7
STACK CFI 96564 .cfa: sp 4 + r7: .cfa -4 + ^
STACK CFI 96566 .cfa: sp 24 + .ra: .cfa -8 + ^
STACK CFI 9656e .cfa: sp 8 +
STACK CFI 96580 .cfa: sp 4 + .ra: .ra
STACK CFI 96582 .cfa: sp 0 + r7: r7
STACK CFI INIT 965a0 14 .cfa: sp 0 + .ra: lr
STACK CFI 965a2 .cfa: sp 4 + r7: .cfa -4 + ^
STACK CFI 965a8 .cfa: sp 0 + r7: r7
STACK CFI INIT 965c0 14 .cfa: sp 0 + .ra: lr
STACK CFI 965c2 .cfa: sp 4 + r7: .cfa -4 + ^
STACK CFI 965c8 .cfa: sp 0 + r7: r7
STACK CFI INIT 965e0 4e .cfa: sp 0 + .ra: lr
STACK CFI 965f0 .cfa: sp 4 + r7: .cfa -4 + ^
STACK CFI 965f8 .cfa: sp 0 + r7: r7
STACK CFI 96604 .cfa: sp 4 + r7: .cfa -4 + ^
STACK CFI 96606 .cfa: sp 24 + .ra: .cfa -8 + ^
STACK CFI 9660e .cfa: sp 8 +
STACK CFI 96620 .cfa: sp 4 + .ra: .ra
STACK CFI 96622 .cfa: sp 0 + r7: r7
STACK CFI INIT 96640 14 .cfa: sp 0 + .ra: lr
STACK CFI 96642 .cfa: sp 4 + r7: .cfa -4 + ^
STACK CFI 96648 .cfa: sp 0 + r7: r7
STACK CFI INIT 96660 14 .cfa: sp 0 + .ra: lr
STACK CFI 96662 .cfa: sp 4 + r7: .cfa -4 + ^
STACK CFI 96668 .cfa: sp 0 + r7: r7
STACK CFI INIT 96680 16 .cfa: sp 0 + .ra: lr
STACK CFI 96682 .cfa: sp 8 + r4: .cfa -8 + ^ r7: .cfa -4 + ^
STACK CFI 9668a .cfa: sp 0 + r4: r4 r7: r7
STACK CFI INIT 966a0 14 .cfa: sp 0 + .ra: lr
STACK CFI 966a2 .cfa: sp 4 + r7: .cfa -4 + ^
STACK CFI 966a8 .cfa: sp 0 + r7: r7
STACK CFI INIT 966c0 14 .cfa: sp 0 + .ra: lr
STACK CFI 966c2 .cfa: sp 4 + r7: .cfa -4 + ^
STACK CFI 966c8 .cfa: sp 0 + r7: r7
STACK CFI INIT 966e0 4e .cfa: sp 0 + .ra: lr
STACK CFI 966f0 .cfa: sp 4 + r7: .cfa -4 + ^
STACK CFI 966f8 .cfa: sp 0 + r7: r7
STACK CFI 96704 .cfa: sp 4 + r7: .cfa -4 + ^
STACK CFI 96706 .cfa: sp 24 + .ra: .cfa -8 + ^
STACK CFI 9670e .cfa: sp 8 +
STACK CFI 96720 .cfa: sp 4 + .ra: .ra
STACK CFI 96722 .cfa: sp 0 + r7: r7
STACK CFI INIT 96740 1a .cfa: sp 0 + .ra: lr
STACK CFI 96744 .cfa: sp 12 + r4: .cfa -12 + ^ r5: .cfa -8 + ^ r7: .cfa -4 + ^
STACK CFI 9674e .cfa: sp 0 + r4: r4 r5: r5 r7: r7
STACK CFI INIT 96760 54 .cfa: sp 0 + .ra: lr
STACK CFI 96772 .cfa: sp 12 + r4: .cfa -12 + ^ r5: .cfa -8 + ^ r7: .cfa -4 + ^
STACK CFI 9677e .cfa: sp 0 + r4: r4 r5: r5 r7: r7
STACK CFI 9678a .cfa: sp 12 + r4: .cfa -12 + ^ r5: .cfa -8 + ^ r7: .cfa -4 + ^
STACK CFI 9678c .cfa: sp 32 + .ra: .cfa -16 + ^
STACK CFI 96794 .cfa: sp 16 +
STACK CFI 967a6 .cfa: sp 12 + .ra: .ra
STACK CFI 967a8 .cfa: sp 0 + r4: r4 r5: r5 r7: r7
STACK CFI INIT 967c0 14 .cfa: sp 0 + .ra: lr
STACK CFI 967c2 .cfa: sp 4 + r7: .cfa -4 + ^
STACK CFI 967c8 .cfa: sp 0 + r7: r7
STACK CFI INIT 967e0 4e .cfa: sp 0 + .ra: lr
STACK CFI 967f0 .cfa: sp 4 + r7: .cfa -4 + ^
STACK CFI 967f8 .cfa: sp 0 + r7: r7
STACK CFI 96804 .cfa: sp 4 + r7: .cfa -4 + ^
STACK CFI 96806 .cfa: sp 24 + .ra: .cfa -8 + ^
STACK CFI 9680e .cfa: sp 8 +
STACK CFI 96820 .cfa: sp 4 + .ra: .ra
STACK CFI 96822 .cfa: sp 0 + r7: r7
STACK CFI INIT 96840 14 .cfa: sp 0 + .ra: lr
STACK CFI 96842 .cfa: sp 4 + r7: .cfa -4 + ^
STACK CFI 96848 .cfa: sp 0 + r7: r7
STACK CFI INIT 96860 4e .cfa: sp 0 + .ra: lr
STACK CFI 96870 .cfa: sp 4 + r7: .cfa -4 + ^
STACK CFI 96878 .cfa: sp 0 + r7: r7
STACK CFI 96884 .cfa: sp 4 + r7: .cfa -4 + ^
STACK CFI 96886 .cfa: sp 24 + .ra: .cfa -8 + ^
STACK CFI 9688e .cfa: sp 8 +
STACK CFI 968a0 .cfa: sp 4 + .ra: .ra
STACK CFI 968a2 .cfa: sp 0 + r7: r7
STACK CFI INIT 968c0 14 .cfa: sp 0 + .ra: lr
STACK CFI 968c2 .cfa: sp 4 + r7: .cfa -4 + ^
STACK CFI 968c8 .cfa: sp 0 + r7: r7
STACK CFI INIT 968e0 4e .cfa: sp 0 + .ra: lr
STACK CFI 968f0 .cfa: sp 4 + r7: .cfa -4 + ^
STACK CFI 968f8 .cfa: sp 0 + r7: r7
STACK CFI 96904 .cfa: sp 4 + r7: .cfa -4 + ^
STACK CFI 96906 .cfa: sp 24 + .ra: .cfa -8 + ^
STACK CFI 9690e .cfa: sp 8 +
STACK CFI 96920 .cfa: sp 4 + .ra: .ra
STACK CFI 96922 .cfa: sp 0 + r7: r7
STACK CFI INIT 96940 1a .cfa: sp 0 + .ra: lr
STACK CFI 96944 .cfa: sp 12 + r4: .cfa -12 + ^ r5: .cfa -8 + ^ r7: .cfa -4 + ^
STACK CFI 9694e .cfa: sp 0 + r4: r4 r5: r5 r7: r7
STACK CFI INIT 96960 54 .cfa: sp 0 + .ra: lr
STACK CFI 96972 .cfa: sp 12 + r4: .cfa -12 + ^ r5: .cfa -8 + ^ r7: .cfa -4 + ^
STACK CFI 9697e .cfa: sp 0 + r4: r4 r5: r5 r7: r7
STACK CFI 9698a .cfa: sp 12 + r4: .cfa -12 + ^ r5: .cfa -8 + ^ r7: .cfa -4 + ^
STACK CFI 9698c .cfa: sp 32 + .ra: .cfa -16 + ^
STACK CFI 96994 .cfa: sp 16 +
STACK CFI 969a6 .cfa: sp 12 + .ra: .ra
STACK CFI 969a8 .cfa: sp 0 + r4: r4 r5: r5 r7: r7
STACK CFI INIT 969c0 16 .cfa: sp 0 + .ra: lr
STACK CFI 969c2 .cfa: sp 8 + r4: .cfa -8 + ^ r7: .cfa -4 + ^
STACK CFI 969ca .cfa: sp 0 + r4: r4 r7: r7
STACK CFI INIT 969e0 14 .cfa: sp 0 + .ra: lr
STACK CFI 969e2 .cfa: sp 4 + r7: .cfa -4 + ^
STACK CFI 969e8 .cfa: sp 0 + r7: r7
STACK CFI INIT 96a00 14 .cfa: sp 0 + .ra: lr
STACK CFI 96a02 .cfa: sp 4 + r7: .cfa -4 + ^
STACK CFI 96a08 .cfa: sp 0 + r7: r7
STACK CFI INIT 96a20 14 .cfa: sp 0 + .ra: lr
STACK CFI 96a22 .cfa: sp 4 + r7: .cfa -4 + ^
STACK CFI 96a28 .cfa: sp 0 + r7: r7
STACK CFI INIT 96a40 40 .cfa: sp 0 + .ra: lr
STACK CFI 96a44 .cfa: sp 16 + .ra: .cfa -4 + ^ r4: .cfa -16 + ^ r5: .cfa -12 + ^ r6: .cfa -8 + ^
STACK CFI 96a4e .cfa: sp 120 +
STACK CFI INIT 96a80 1ec .cfa: sp 0 + .ra: lr
STACK CFI 96a86 .cfa: sp 36 + .ra: .cfa -4 + ^ r10: .cfa -12 + ^ r11: .cfa -8 + ^ r4: .cfa -36 + ^ r5: .cfa -32 + ^ r6: .cfa -28 + ^ r7: .cfa -24 + ^ r8: .cfa -20 + ^ r9: .cfa -16 + ^
STACK CFI 96a8a .cfa: sp 72 +
STACK CFI INIT 96c6c 1a .cfa: sp 0 + .ra: lr
STACK CFI 96c6e .cfa: sp 4 + .ra: .cfa -4 + ^
STACK CFI 96c70 .cfa: sp 16 +
STACK CFI INIT 96c88 84 .cfa: sp 0 + .ra: lr
STACK CFI 96c8c .cfa: sp 32 + .ra: .cfa -4 + ^ r3: .cfa -32 + ^ r4: .cfa -28 + ^ r5: .cfa -24 + ^ r6: .cfa -20 + ^ r7: .cfa -16 + ^ r8: .cfa -12 + ^ r9: .cfa -8 + ^
STACK CFI INIT 96d0c 88 .cfa: sp 0 + .ra: lr
STACK CFI 96d10 .cfa: sp 32 + .ra: .cfa -4 + ^ r3: .cfa -32 + ^ r4: .cfa -28 + ^ r5: .cfa -24 + ^ r6: .cfa -20 + ^ r7: .cfa -16 + ^ r8: .cfa -12 + ^ r9: .cfa -8 + ^
STACK CFI INIT 96d94 84 .cfa: sp 0 + .ra: lr
STACK CFI 96d98 .cfa: sp 32 + .ra: .cfa -4 + ^ r3: .cfa -32 + ^ r4: .cfa -28 + ^ r5: .cfa -24 + ^ r6: .cfa -20 + ^ r7: .cfa -16 + ^ r8: .cfa -12 + ^ r9: .cfa -8 + ^
STACK CFI INIT 96e18 3a .cfa: sp 0 + .ra: lr
STACK CFI 96e1c .cfa: sp 8 + r4: .cfa -8 + ^ r5: .cfa -4 + ^
STACK CFI INIT 96e54 1c .cfa: sp 0 + .ra: lr
STACK CFI INIT 96e70 30 .cfa: sp 0 + .ra: lr
STACK CFI 96e76 .cfa: sp 8 + .ra: .cfa -4 + ^ r4: .cfa -8 + ^
STACK CFI 96e78 .cfa: sp 112 +
STACK CFI INIT 96ea0 14 .cfa: sp 0 + .ra: lr
STACK CFI 96ea2 .cfa: sp 4 + r7: .cfa -4 + ^
STACK CFI 96ea8 .cfa: sp 0 + r7: r7
STACK CFI INIT 96ec0 4e .cfa: sp 0 + .ra: lr
STACK CFI 96ed0 .cfa: sp 4 + r7: .cfa -4 + ^
STACK CFI 96ed8 .cfa: sp 0 + r7: r7
STACK CFI 96ee4 .cfa: sp 4 + r7: .cfa -4 + ^
STACK CFI 96ee6 .cfa: sp 24 + .ra: .cfa -8 + ^
STACK CFI 96eee .cfa: sp 8 +
STACK CFI 96f00 .cfa: sp 4 + .ra: .ra
STACK CFI 96f02 .cfa: sp 0 + r7: r7
STACK CFI INIT 96f20 16 .cfa: sp 0 + .ra: lr
STACK CFI 96f22 .cfa: sp 8 + r4: .cfa -8 + ^ r7: .cfa -4 + ^
STACK CFI 96f2a .cfa: sp 0 + r4: r4 r7: r7
STACK CFI INIT 96f40 50 .cfa: sp 0 + .ra: lr
STACK CFI 96f50 .cfa: sp 8 + r4: .cfa -8 + ^ r7: .cfa -4 + ^
STACK CFI 96f5a .cfa: sp 0 + r4: r4 r7: r7
STACK CFI 96f66 .cfa: sp 8 + r4: .cfa -8 + ^ r7: .cfa -4 + ^
STACK CFI 96f68 .cfa: sp 32 + .ra: .cfa -12 + ^
STACK CFI 96f70 .cfa: sp 16 +
STACK CFI 96f82 .cfa: sp 8 + .ra: .ra
STACK CFI 96f84 .cfa: sp 0 + r4: r4 r7: r7
STACK CFI INIT 96fa0 14 .cfa: sp 0 + .ra: lr
STACK CFI 96fa2 .cfa: sp 4 + r7: .cfa -4 + ^
STACK CFI 96fa8 .cfa: sp 0 + r7: r7
STACK CFI INIT 96fc0 30 .cfa: sp 0 + .ra: lr
STACK CFI 96fc2 .cfa: sp 4 + .ra: .cfa -4 + ^
STACK CFI INIT 96ff0 14 .cfa: sp 0 + .ra: lr
STACK CFI 96ff2 .cfa: sp 4 + r7: .cfa -4 + ^
STACK CFI 96ff8 .cfa: sp 0 + r7: r7
STACK CFI INIT 97010 14 .cfa: sp 0 + .ra: lr
STACK CFI 97012 .cfa: sp 4 + r7: .cfa -4 + ^
STACK CFI 97018 .cfa: sp 0 + r7: r7
STACK CFI INIT 97030 44 .cfa: sp 0 + .ra: lr
STACK CFI 97032 .cfa: sp 8 + r2: .cfa -8 + ^ r3: .cfa -4 + ^
STACK CFI 97038 .cfa: sp 16 + .ra: .cfa -12 + ^ r4: .cfa -16 + ^
STACK CFI 9703a .cfa: sp 24 +
STACK CFI INIT 97080 14 .cfa: sp 0 + .ra: lr
STACK CFI 97082 .cfa: sp 4 + r7: .cfa -4 + ^
STACK CFI 97088 .cfa: sp 0 + r7: r7
STACK CFI INIT 970a0 14 .cfa: sp 0 + .ra: lr
STACK CFI 970a2 .cfa: sp 4 + r7: .cfa -4 + ^
STACK CFI 970a8 .cfa: sp 0 + r7: r7
STACK CFI INIT 970c0 14 .cfa: sp 0 + .ra: lr
STACK CFI 970c2 .cfa: sp 4 + r7: .cfa -4 + ^
STACK CFI 970c8 .cfa: sp 0 + r7: r7
STACK CFI INIT 970e0 14 .cfa: sp 0 + .ra: lr
STACK CFI 970e2 .cfa: sp 4 + r7: .cfa -4 + ^
STACK CFI 970e8 .cfa: sp 0 + r7: r7
STACK CFI INIT 97100 30 .cfa: sp 0 + .ra: lr
STACK CFI 97102 .cfa: sp 4 + .ra: .cfa -4 + ^
STACK CFI INIT 97130 3b4 .cfa: sp 0 + .ra: lr
STACK CFI 97136 .cfa: sp 36 + .ra: .cfa -4 + ^ r10: .cfa -12 + ^ r11: .cfa -8 + ^ r4: .cfa -36 + ^ r5: .cfa -32 + ^ r6: .cfa -28 + ^ r7: .cfa -24 + ^ r8: .cfa -20 + ^ r9: .cfa -16 + ^
STACK CFI 9713a .cfa: sp 1008 +
STACK CFI 9713e .cfa: r7 1000 +
STACK CFI INIT 974e4 3c .cfa: sp 0 + .ra: lr
STACK CFI 974e6 .cfa: sp 8 + .ra: .cfa -4 + ^ r4: .cfa -8 + ^
STACK CFI INIT 97520 12c .cfa: sp 0 + .ra: lr
STACK CFI 9752a .cfa: sp 24 + .ra: .cfa -4 + ^ r4: .cfa -24 + ^ r5: .cfa -20 + ^ r6: .cfa -16 + ^ r7: .cfa -12 + ^ r8: .cfa -8 + ^
STACK CFI INIT 9764c 24 .cfa: sp 0 + .ra: lr
STACK CFI 97652 .cfa: sp 8 + .ra: .cfa -4 + ^ r4: .cfa -8 + ^
STACK CFI INIT 97670 2c .cfa: sp 0 + .ra: lr
STACK CFI 97672 .cfa: sp 8 + .ra: .cfa -4 + ^ r3: .cfa -8 + ^
STACK CFI INIT 9769c 104 .cfa: sp 0 + .ra: lr
STACK CFI 976a0 .cfa: sp 16 + r4: .cfa -16 + ^ r5: .cfa -12 + ^ r6: .cfa -8 + ^ r7: .cfa -4 + ^
STACK CFI 976a4 .cfa: r7 16 +
STACK CFI INIT 977a0 3c .cfa: sp 0 + .ra: lr
STACK CFI 977a8 .cfa: sp 4 + r4: .cfa -4 + ^
STACK CFI INIT 977dc 128 .cfa: sp 0 + .ra: lr
STACK CFI 977e0 .cfa: sp 32 + .ra: .cfa -4 + ^ r10: .cfa -8 + ^ r4: .cfa -32 + ^ r5: .cfa -28 + ^ r6: .cfa -24 + ^ r7: .cfa -20 + ^ r8: .cfa -16 + ^ r9: .cfa -12 + ^
STACK CFI 977e8 .cfa: sp 192 +
STACK CFI INIT 97904 e8 .cfa: sp 0 + .ra: lr
STACK CFI 97908 .cfa: sp 16 + r4: .cfa -16 + ^ r5: .cfa -12 + ^ r6: .cfa -8 + ^ r7: .cfa -4 + ^
STACK CFI INIT 979ec c .cfa: sp 0 + .ra: lr
STACK CFI 979ee .cfa: sp 8 + .ra: .cfa -4 + ^ r3: .cfa -8 + ^
STACK CFI INIT 979f8 c .cfa: sp 0 + .ra: lr
STACK CFI 979fa .cfa: sp 8 + .ra: .cfa -4 + ^ r3: .cfa -8 + ^
STACK CFI INIT 97a04 1a .cfa: sp 0 + .ra: lr
STACK CFI INIT 97a20 cc .cfa: sp 0 + .ra: lr
STACK CFI 97a24 .cfa: sp 32 + .ra: .cfa -4 + ^ r10: .cfa -8 + ^ r4: .cfa -32 + ^ r5: .cfa -28 + ^ r6: .cfa -24 + ^ r7: .cfa -20 + ^ r8: .cfa -16 + ^ r9: .cfa -12 + ^
STACK CFI INIT 97aec 32c .cfa: sp 0 + .ra: lr
STACK CFI 97af0 .cfa: sp 36 + .ra: .cfa -4 + ^ r10: .cfa -12 + ^ r11: .cfa -8 + ^ r4: .cfa -36 + ^ r5: .cfa -32 + ^ r6: .cfa -28 + ^ r7: .cfa -24 + ^ r8: .cfa -20 + ^ r9: .cfa -16 + ^
STACK CFI 97af2 .cfa: sp 240 +
STACK CFI 97af4 .cfa: r7 232 +
STACK CFI INIT 97e18 14 .cfa: sp 0 + .ra: lr
STACK CFI INIT 97e30 12 .cfa: sp 0 + .ra: lr
STACK CFI 97e32 .cfa: sp 20 + .ra: .cfa -4 + ^ r0: .cfa -20 + ^ r1: .cfa -16 + ^ r2: .cfa -12 + ^ r3: .cfa -8 + ^
STACK CFI 97e40 .cfa: sp -4 + .ra: r12 r0: r0 r1: r1 r2: r2 r3: r3
STACK CFI INIT 97e50 1a .cfa: sp 0 + .ra: lr
STACK CFI 97e54 .cfa: sp 24 + .ra: .cfa -4 + ^ r0: .cfa -24 + ^ r1: .cfa -20 + ^ r11: .cfa -8 + ^ r2: .cfa -16 + ^ r3: .cfa -12 + ^
STACK CFI INIT 97e70 4c .cfa: sp 0 + .ra: lr
STACK CFI 97e72 .cfa: sp 24 + .ra: .cfa -4 + ^ r3: .cfa -24 + ^ r4: .cfa -20 + ^ r5: .cfa -16 + ^ r6: .cfa -12 + ^ r7: .cfa -8 + ^
STACK CFI INIT 97ebc 3c .cfa: sp 0 + .ra: lr
STACK CFI 97ebe .cfa: sp 4 + r4: .cfa -4 + ^
STACK CFI INIT 97ef8 3c .cfa: sp 0 + .ra: lr
STACK CFI 97efa .cfa: sp 4 + r4: .cfa -4 + ^
STACK CFI INIT 97f34 94 .cfa: sp 0 + .ra: lr
STACK CFI 97f3a .cfa: sp 4 + r4: .cfa -4 + ^
STACK CFI INIT 97fc8 94 .cfa: sp 0 + .ra: lr
STACK CFI 97fce .cfa: sp 4 + r4: .cfa -4 + ^
STACK CFI INIT 9805c 94 .cfa: sp 0 + .ra: lr
STACK CFI 98062 .cfa: sp 4 + r4: .cfa -4 + ^
STACK CFI INIT 980f0 94 .cfa: sp 0 + .ra: lr
STACK CFI 980f6 .cfa: sp 4 + r4: .cfa -4 + ^
STACK CFI INIT 98184 84 .cfa: sp 0 + .ra: lr
STACK CFI 9818a .cfa: sp 4 + r4: .cfa -4 + ^
STACK CFI INIT 98208 94 .cfa: sp 0 + .ra: lr
STACK CFI 9820e .cfa: sp 4 + r4: .cfa -4 + ^
STACK CFI INIT 9829c 94 .cfa: sp 0 + .ra: lr
STACK CFI 982a2 .cfa: sp 4 + r4: .cfa -4 + ^
STACK CFI INIT 98330 94 .cfa: sp 0 + .ra: lr
STACK CFI 98336 .cfa: sp 4 + r4: .cfa -4 + ^
STACK CFI INIT 983c4 94 .cfa: sp 0 + .ra: lr
STACK CFI 983ca .cfa: sp 4 + r4: .cfa -4 + ^
STACK CFI INIT 98458 94 .cfa: sp 0 + .ra: lr
STACK CFI 9845e .cfa: sp 4 + r4: .cfa -4 + ^
STACK CFI INIT 984ec 94 .cfa: sp 0 + .ra: lr
STACK CFI 984f2 .cfa: sp 4 + r4: .cfa -4 + ^
STACK CFI INIT 98580 94 .cfa: sp 0 + .ra: lr
STACK CFI 98586 .cfa: sp 4 + r4: .cfa -4 + ^
STACK CFI INIT 98614 58 .cfa: sp 0 + .ra: lr
STACK CFI 9861c .cfa: sp 4 + r4: .cfa -4 + ^
STACK CFI INIT 9866c 58 .cfa: sp 0 + .ra: lr
STACK CFI 98674 .cfa: sp 4 + r4: .cfa -4 + ^
STACK CFI INIT 986c4 64 .cfa: sp 0 + .ra: lr
STACK CFI 986c8 .cfa: sp 32 + .ra: .cfa -4 + ^ r3: .cfa -32 + ^ r4: .cfa -28 + ^ r5: .cfa -24 + ^ r6: .cfa -20 + ^ r7: .cfa -16 + ^ r8: .cfa -12 + ^ r9: .cfa -8 + ^
STACK CFI INIT 98728 5a .cfa: sp 0 + .ra: lr
STACK CFI 9872a .cfa: sp 4 + r4: .cfa -4 + ^
STACK CFI INIT 98784 72 .cfa: sp 0 + .ra: lr
STACK CFI 9878a .cfa: sp 4 + r4: .cfa -4 + ^
STACK CFI INIT 987f8 72 .cfa: sp 0 + .ra: lr
STACK CFI 987fe .cfa: sp 4 + r4: .cfa -4 + ^
STACK CFI INIT 9886c 70 .cfa: sp 0 + .ra: lr
STACK CFI 98872 .cfa: sp 4 + r4: .cfa -4 + ^
STACK CFI INIT 988dc 72 .cfa: sp 0 + .ra: lr
STACK CFI 988e2 .cfa: sp 4 + r4: .cfa -4 + ^
STACK CFI INIT 98950 70 .cfa: sp 0 + .ra: lr
STACK CFI 98956 .cfa: sp 4 + r4: .cfa -4 + ^
STACK CFI INIT 989c0 72 .cfa: sp 0 + .ra: lr
STACK CFI 989c6 .cfa: sp 4 + r4: .cfa -4 + ^
STACK CFI INIT 98a34 72 .cfa: sp 0 + .ra: lr
STACK CFI 98a3a .cfa: sp 4 + r4: .cfa -4 + ^
STACK CFI INIT 98aa8 72 .cfa: sp 0 + .ra: lr
STACK CFI 98aae .cfa: sp 4 + r4: .cfa -4 + ^
STACK CFI INIT 98b1c 72 .cfa: sp 0 + .ra: lr
STACK CFI 98b22 .cfa: sp 4 + r4: .cfa -4 + ^
STACK CFI INIT 98b90 72 .cfa: sp 0 + .ra: lr
STACK CFI 98b96 .cfa: sp 4 + r4: .cfa -4 + ^
STACK CFI INIT 98c04 72 .cfa: sp 0 + .ra: lr
STACK CFI 98c0a .cfa: sp 4 + r4: .cfa -4 + ^
STACK CFI INIT 98c78 72 .cfa: sp 0 + .ra: lr
STACK CFI 98c7e .cfa: sp 4 + r4: .cfa -4 + ^
STACK CFI INIT 98cec 44 .cfa: sp 0 + .ra: lr
STACK CFI 98cf0 .cfa: sp 4 + r4: .cfa -4 + ^
STACK CFI INIT 98d30 44 .cfa: sp 0 + .ra: lr
STACK CFI 98d34 .cfa: sp 4 + r4: .cfa -4 + ^
STACK CFI INIT 98d74 56 .cfa: sp 0 + .ra: lr
STACK CFI 98d78 .cfa: sp 32 + .ra: .cfa -4 + ^ r3: .cfa -32 + ^ r4: .cfa -28 + ^ r5: .cfa -24 + ^ r6: .cfa -20 + ^ r7: .cfa -16 + ^ r8: .cfa -12 + ^ r9: .cfa -8 + ^
STACK CFI INIT 98dcc 5a .cfa: sp 0 + .ra: lr
STACK CFI 98dce .cfa: sp 4 + r4: .cfa -4 + ^
STACK CFI INIT 98e28 3c .cfa: sp 0 + .ra: lr
STACK CFI 98e2a .cfa: sp 24 + .ra: .cfa -4 + ^ r3: .cfa -24 + ^ r4: .cfa -20 + ^ r5: .cfa -16 + ^ r6: .cfa -12 + ^ r7: .cfa -8 + ^
STACK CFI INIT 98e64 c8 .cfa: sp 0 + .ra: lr
STACK CFI 98e6a .cfa: sp 20 + .ra: .cfa -4 + ^ r4: .cfa -20 + ^ r5: .cfa -16 + ^ r6: .cfa -12 + ^ r7: .cfa -8 + ^
STACK CFI 98e6e .cfa: sp 32 +
STACK CFI INIT 98f2c 140 .cfa: sp 0 + .ra: lr
STACK CFI 98f34 .cfa: sp 36 + .ra: .cfa -4 + ^ r10: .cfa -12 + ^ r11: .cfa -8 + ^ r4: .cfa -36 + ^ r5: .cfa -32 + ^ r6: .cfa -28 + ^ r7: .cfa -24 + ^ r8: .cfa -20 + ^ r9: .cfa -16 + ^
STACK CFI 98f38 .cfa: sp 56 +
STACK CFI INIT 9906c 16c .cfa: sp 0 + .ra: lr
STACK CFI 99074 .cfa: sp 32 + .ra: .cfa -4 + ^ r10: .cfa -8 + ^ r4: .cfa -32 + ^ r5: .cfa -28 + ^ r6: .cfa -24 + ^ r7: .cfa -20 + ^ r8: .cfa -16 + ^ r9: .cfa -12 + ^
STACK CFI 99078 .cfa: sp 48 +
STACK CFI INIT 991d8 18c .cfa: sp 0 + .ra: lr
STACK CFI 991dc .cfa: sp 36 + .ra: .cfa -4 + ^ r10: .cfa -12 + ^ r11: .cfa -8 + ^ r4: .cfa -36 + ^ r5: .cfa -32 + ^ r6: .cfa -28 + ^ r7: .cfa -24 + ^ r8: .cfa -20 + ^ r9: .cfa -16 + ^
STACK CFI 991de .cfa: sp 72 +
STACK CFI INIT 99364 2c0 .cfa: sp 0 + .ra: lr
STACK CFI 99368 .cfa: sp 16 + .ra: .cfa -4 + ^ r4: .cfa -16 + ^ r5: .cfa -12 + ^ r6: .cfa -8 + ^
STACK CFI INIT 99624 c8 .cfa: sp 0 + .ra: lr
STACK CFI 9962a .cfa: sp 20 + .ra: .cfa -4 + ^ r4: .cfa -20 + ^ r5: .cfa -16 + ^ r6: .cfa -12 + ^ r7: .cfa -8 + ^
STACK CFI 9962e .cfa: sp 40 +
STACK CFI INIT 996ec c8 .cfa: sp 0 + .ra: lr
STACK CFI 996f0 .cfa: sp 20 + .ra: .cfa -4 + ^ r4: .cfa -20 + ^ r5: .cfa -16 + ^ r6: .cfa -12 + ^ r7: .cfa -8 + ^
STACK CFI 996f4 .cfa: sp 32 +
STACK CFI INIT 997b4 f4 .cfa: sp 0 + .ra: lr
STACK CFI 997b8 .cfa: sp 24 + .ra: .cfa -4 + ^ r4: .cfa -24 + ^ r5: .cfa -20 + ^ r6: .cfa -16 + ^ r7: .cfa -12 + ^ r8: .cfa -8 + ^
STACK CFI 997be .cfa: sp 80 +
STACK CFI INIT 998a8 128 .cfa: sp 0 + .ra: lr
STACK CFI 998ac .cfa: sp 36 + .ra: .cfa -4 + ^ r10: .cfa -12 + ^ r11: .cfa -8 + ^ r4: .cfa -36 + ^ r5: .cfa -32 + ^ r6: .cfa -28 + ^ r7: .cfa -24 + ^ r8: .cfa -20 + ^ r9: .cfa -16 + ^
STACK CFI 998b2 .cfa: sp 72 +
STACK CFI INIT 999d0 21c .cfa: sp 0 + .ra: lr
STACK CFI 999d2 .cfa: sp 20 + .ra: .cfa -4 + ^ r4: .cfa -20 + ^ r5: .cfa -16 + ^ r6: .cfa -12 + ^ r7: .cfa -8 + ^
STACK CFI 999d6 .cfa: sp 32 +
STACK CFI INIT 99bec 60 .cfa: sp 0 + .ra: lr
STACK CFI 99bee .cfa: sp 20 + .ra: .cfa -4 + ^ r4: .cfa -20 + ^ r5: .cfa -16 + ^ r6: .cfa -12 + ^ r7: .cfa -8 + ^
STACK CFI 99bf6 .cfa: sp 32 +
STACK CFI INIT 99c4c 1f4 .cfa: sp 0 + .ra: lr
STACK CFI 99c50 .cfa: sp 36 + .ra: .cfa -4 + ^ r10: .cfa -12 + ^ r11: .cfa -8 + ^ r4: .cfa -36 + ^ r5: .cfa -32 + ^ r6: .cfa -28 + ^ r7: .cfa -24 + ^ r8: .cfa -20 + ^ r9: .cfa -16 + ^
STACK CFI 99c56 .cfa: sp 48 +
STACK CFI INIT 99e40 2 .cfa: sp 0 + .ra: lr
STACK CFI INIT 99e44 370 .cfa: sp 0 + .ra: lr
STACK CFI 99e4a .cfa: sp 28 + .ra: .cfa -4 + ^ r4: .cfa -28 + ^ r5: .cfa -24 + ^ r6: .cfa -20 + ^ r7: .cfa -16 + ^ r8: .cfa -12 + ^ r9: .cfa -8 + ^
STACK CFI 99e50 .cfa: sp 584 +
STACK CFI INIT 9a1b4 b0 .cfa: sp 0 + .ra: lr
STACK CFI 9a1b6 .cfa: sp 16 + .ra: .cfa -4 + ^ r3: .cfa -16 + ^ r4: .cfa -12 + ^ r5: .cfa -8 + ^
STACK CFI INIT 9a264 d0 .cfa: sp 0 + .ra: lr
STACK CFI 9a26a .cfa: sp 20 + .ra: .cfa -4 + ^ r4: .cfa -20 + ^ r5: .cfa -16 + ^ r6: .cfa -12 + ^ r7: .cfa -8 + ^
STACK CFI 9a270 .cfa: sp 32 +
STACK CFI INIT 9a334 140 .cfa: sp 0 + .ra: lr
STACK CFI 9a33c .cfa: sp 36 + .ra: .cfa -4 + ^ r10: .cfa -12 + ^ r11: .cfa -8 + ^ r4: .cfa -36 + ^ r5: .cfa -32 + ^ r6: .cfa -28 + ^ r7: .cfa -24 + ^ r8: .cfa -20 + ^ r9: .cfa -16 + ^
STACK CFI 9a340 .cfa: sp 56 +
STACK CFI INIT 9a474 178 .cfa: sp 0 + .ra: lr
STACK CFI 9a47c .cfa: sp 36 + .ra: .cfa -4 + ^ r10: .cfa -12 + ^ r11: .cfa -8 + ^ r4: .cfa -36 + ^ r5: .cfa -32 + ^ r6: .cfa -28 + ^ r7: .cfa -24 + ^ r8: .cfa -20 + ^ r9: .cfa -16 + ^
STACK CFI 9a480 .cfa: sp 64 +
STACK CFI INIT 9a5ec 18c .cfa: sp 0 + .ra: lr
STACK CFI 9a5f0 .cfa: sp 36 + .ra: .cfa -4 + ^ r10: .cfa -12 + ^ r11: .cfa -8 + ^ r4: .cfa -36 + ^ r5: .cfa -32 + ^ r6: .cfa -28 + ^ r7: .cfa -24 + ^ r8: .cfa -20 + ^ r9: .cfa -16 + ^
STACK CFI 9a5f2 .cfa: sp 72 +
STACK CFI INIT 9a778 1b4 .cfa: sp 0 + .ra: lr
STACK CFI 9a77e .cfa: sp 32 + .ra: .cfa -4 + ^ r10: .cfa -8 + ^ r4: .cfa -32 + ^ r5: .cfa -28 + ^ r6: .cfa -24 + ^ r7: .cfa -20 + ^ r8: .cfa -16 + ^ r9: .cfa -12 + ^
STACK CFI INIT 9a92c c8 .cfa: sp 0 + .ra: lr
STACK CFI 9a932 .cfa: sp 20 + .ra: .cfa -4 + ^ r4: .cfa -20 + ^ r5: .cfa -16 + ^ r6: .cfa -12 + ^ r7: .cfa -8 + ^
STACK CFI 9a936 .cfa: sp 40 +
STACK CFI INIT 9a9f4 c8 .cfa: sp 0 + .ra: lr
STACK CFI 9a9f8 .cfa: sp 20 + .ra: .cfa -4 + ^ r4: .cfa -20 + ^ r5: .cfa -16 + ^ r6: .cfa -12 + ^ r7: .cfa -8 + ^
STACK CFI 9a9fc .cfa: sp 32 +
STACK CFI INIT 9aabc f4 .cfa: sp 0 + .ra: lr
STACK CFI 9aac0 .cfa: sp 24 + .ra: .cfa -4 + ^ r4: .cfa -24 + ^ r5: .cfa -20 + ^ r6: .cfa -16 + ^ r7: .cfa -12 + ^ r8: .cfa -8 + ^
STACK CFI 9aac6 .cfa: sp 80 +
STACK CFI INIT 9abb0 128 .cfa: sp 0 + .ra: lr
STACK CFI 9abb4 .cfa: sp 36 + .ra: .cfa -4 + ^ r10: .cfa -12 + ^ r11: .cfa -8 + ^ r4: .cfa -36 + ^ r5: .cfa -32 + ^ r6: .cfa -28 + ^ r7: .cfa -24 + ^ r8: .cfa -20 + ^ r9: .cfa -16 + ^
STACK CFI 9abba .cfa: sp 72 +
STACK CFI INIT 9acd8 230 .cfa: sp 0 + .ra: lr
STACK CFI 9acde .cfa: sp 32 + .ra: .cfa -4 + ^ r10: .cfa -8 + ^ r4: .cfa -32 + ^ r5: .cfa -28 + ^ r6: .cfa -24 + ^ r7: .cfa -20 + ^ r8: .cfa -16 + ^ r9: .cfa -12 + ^
STACK CFI INIT 9af08 70 .cfa: sp 0 + .ra: lr
STACK CFI 9af0c .cfa: sp 20 + .ra: .cfa -4 + ^ r4: .cfa -20 + ^ r5: .cfa -16 + ^ r6: .cfa -12 + ^ r7: .cfa -8 + ^
STACK CFI 9af10 .cfa: sp 32 +
STACK CFI INIT 9af78 1f4 .cfa: sp 0 + .ra: lr
STACK CFI 9af7c .cfa: sp 36 + .ra: .cfa -4 + ^ r10: .cfa -12 + ^ r11: .cfa -8 + ^ r4: .cfa -36 + ^ r5: .cfa -32 + ^ r6: .cfa -28 + ^ r7: .cfa -24 + ^ r8: .cfa -20 + ^ r9: .cfa -16 + ^
STACK CFI 9af84 .cfa: sp 48 +
STACK CFI INIT 9b16c 4a .cfa: sp 0 + .ra: lr
STACK CFI 9b170 .cfa: sp 24 + .ra: .cfa -4 + ^ r4: .cfa -24 + ^ r5: .cfa -20 + ^ r6: .cfa -16 + ^ r7: .cfa -12 + ^ r8: .cfa -8 + ^
STACK CFI INIT 9b1b8 388 .cfa: sp 0 + .ra: lr
STACK CFI 9b1bc .cfa: sp 36 + .ra: .cfa -4 + ^ r10: .cfa -12 + ^ r11: .cfa -8 + ^ r4: .cfa -36 + ^ r5: .cfa -32 + ^ r6: .cfa -28 + ^ r7: .cfa -24 + ^ r8: .cfa -20 + ^ r9: .cfa -16 + ^
STACK CFI 9b1be .cfa: sp 56 +
STACK CFI INIT 9b540 34 .cfa: sp 0 + .ra: lr
STACK CFI 9b542 .cfa: sp 8 + .ra: .cfa -4 + ^ r4: .cfa -8 + ^
STACK CFI INIT 9b574 70 .cfa: sp 0 + .ra: lr
STACK CFI 9b576 .cfa: sp 16 + .ra: .cfa -4 + ^ r3: .cfa -16 + ^ r4: .cfa -12 + ^ r5: .cfa -8 + ^
STACK CFI INIT 9b5e4 4e .cfa: sp 0 + .ra: lr
STACK CFI 9b5e6 .cfa: sp 12 + r1: .cfa -12 + ^ r2: .cfa -8 + ^ r3: .cfa -4 + ^
STACK CFI 9b5ea .cfa: sp 32 + .ra: .cfa -16 + ^ r4: .cfa -32 + ^ r5: .cfa -28 + ^ r6: .cfa -24 + ^ r7: .cfa -20 + ^
STACK CFI 9b5ec .cfa: sp 40 +
STACK CFI INIT 9b634 30 .cfa: sp 0 + .ra: lr
STACK CFI 9b636 .cfa: sp 24 + .ra: .cfa -4 + ^ r3: .cfa -24 + ^ r4: .cfa -20 + ^ r5: .cfa -16 + ^ r6: .cfa -12 + ^ r7: .cfa -8 + ^
STACK CFI INIT 9b664 26 .cfa: sp 0 + .ra: lr
STACK CFI 9b666 .cfa: sp 16 + .ra: .cfa -4 + ^ r4: .cfa -16 + ^ r5: .cfa -12 + ^ r6: .cfa -8 + ^
STACK CFI INIT 9b68c 2a .cfa: sp 0 + .ra: lr
STACK CFI 9b68e .cfa: sp 16 + .ra: .cfa -4 + ^ r3: .cfa -16 + ^ r4: .cfa -12 + ^ r5: .cfa -8 + ^
STACK CFI INIT 9b6b8 1c .cfa: sp 0 + .ra: lr
STACK CFI 9b6ba .cfa: sp 16 + .ra: .cfa -4 + ^ r4: .cfa -16 + ^ r5: .cfa -12 + ^ r6: .cfa -8 + ^
STACK CFI INIT 9b6d4 1c .cfa: sp 0 + .ra: lr
STACK CFI 9b6d6 .cfa: sp 16 + .ra: .cfa -4 + ^ r4: .cfa -16 + ^ r5: .cfa -12 + ^ r6: .cfa -8 + ^
STACK CFI INIT 9b6f0 1c .cfa: sp 0 + .ra: lr
STACK CFI 9b6f2 .cfa: sp 16 + .ra: .cfa -4 + ^ r4: .cfa -16 + ^ r5: .cfa -12 + ^ r6: .cfa -8 + ^
STACK CFI INIT 9b70c 1c .cfa: sp 0 + .ra: lr
STACK CFI 9b718 .cfa: sp 8 + .ra: .cfa -4 + ^ r4: .cfa -8 + ^
STACK CFI INIT 9b728 ac .cfa: sp 0 + .ra: lr
STACK CFI 9b72c .cfa: sp 36 + .ra: .cfa -4 + ^ r10: .cfa -12 + ^ r11: .cfa -8 + ^ r4: .cfa -36 + ^ r5: .cfa -32 + ^ r6: .cfa -28 + ^ r7: .cfa -24 + ^ r8: .cfa -20 + ^ r9: .cfa -16 + ^
STACK CFI 9b732 .cfa: sp 48 +
STACK CFI INIT 9b7d4 34 .cfa: sp 0 + .ra: lr
STACK CFI INIT 9b808 8c .cfa: sp 0 + .ra: lr
STACK CFI 9b80a .cfa: sp 16 + r4: .cfa -16 + ^ r5: .cfa -12 + ^ r6: .cfa -8 + ^ r7: .cfa -4 + ^
STACK CFI INIT 9b894 30 .cfa: sp 0 + .ra: lr
STACK CFI 9b896 .cfa: sp 16 + .ra: .cfa -4 + ^ r3: .cfa -16 + ^ r4: .cfa -12 + ^ r5: .cfa -8 + ^
STACK CFI INIT 9b8c4 1fc .cfa: sp 0 + .ra: lr
STACK CFI 9b8cc .cfa: sp 28 + .ra: .cfa -4 + ^ r10: .cfa -8 + ^ r4: .cfa -28 + ^ r5: .cfa -24 + ^ r6: .cfa -20 + ^ r7: .cfa -16 + ^ r9: .cfa -12 + ^
STACK CFI 9b8d2 .cfa: sp 40 +
STACK CFI INIT 9bac0 54 .cfa: sp 0 + .ra: lr
STACK CFI 9bac2 .cfa: sp 24 + .ra: .cfa -4 + ^ r3: .cfa -24 + ^ r4: .cfa -20 + ^ r5: .cfa -16 + ^ r6: .cfa -12 + ^ r7: .cfa -8 + ^
STACK CFI INIT 9bb14 26 .cfa: sp 0 + .ra: lr
STACK CFI 9bb16 .cfa: sp 16 + .ra: .cfa -4 + ^ r4: .cfa -16 + ^ r5: .cfa -12 + ^ r6: .cfa -8 + ^
STACK CFI INIT 9bb3c 16c .cfa: sp 0 + .ra: lr
STACK CFI 9bb40 .cfa: sp 36 + .ra: .cfa -4 + ^ r10: .cfa -12 + ^ r11: .cfa -8 + ^ r4: .cfa -36 + ^ r5: .cfa -32 + ^ r6: .cfa -28 + ^ r7: .cfa -24 + ^ r8: .cfa -20 + ^ r9: .cfa -16 + ^
STACK CFI 9bb44 .cfa: sp 48 +
STACK CFI INIT 9bca8 f0 .cfa: sp 0 + .ra: lr
STACK CFI 9bcae .cfa: sp 24 + .ra: .cfa -4 + ^ r4: .cfa -24 + ^ r5: .cfa -20 + ^ r6: .cfa -16 + ^ r7: .cfa -12 + ^ r8: .cfa -8 + ^
STACK CFI INIT 9bd98 37c .cfa: sp 0 + .ra: lr
STACK CFI 9bd9c .cfa: sp 36 + .ra: .cfa -4 + ^ r10: .cfa -12 + ^ r11: .cfa -8 + ^ r4: .cfa -36 + ^ r5: .cfa -32 + ^ r6: .cfa -28 + ^ r7: .cfa -24 + ^ r8: .cfa -20 + ^ r9: .cfa -16 + ^
STACK CFI 9bda0 .cfa: sp 72 +
STACK CFI INIT 9c114 68 .cfa: sp 0 + .ra: lr
STACK CFI 9c116 .cfa: sp 16 + .ra: .cfa -4 + ^ r4: .cfa -16 + ^ r5: .cfa -12 + ^ r6: .cfa -8 + ^
STACK CFI INIT 9c17c 74 .cfa: sp 0 + .ra: lr
STACK CFI 9c180 .cfa: sp 24 + .ra: .cfa -4 + ^ r4: .cfa -24 + ^ r5: .cfa -20 + ^ r6: .cfa -16 + ^ r7: .cfa -12 + ^ r8: .cfa -8 + ^
STACK CFI INIT 9c1f0 146 .cfa: sp 0 + .ra: lr
STACK CFI 9c1f4 .cfa: sp 36 + .ra: .cfa -4 + ^ r10: .cfa -12 + ^ r11: .cfa -8 + ^ r4: .cfa -36 + ^ r5: .cfa -32 + ^ r6: .cfa -28 + ^ r7: .cfa -24 + ^ r8: .cfa -20 + ^ r9: .cfa -16 + ^
STACK CFI 9c1fa .cfa: sp 72 +
STACK CFI INIT 9c338 26 .cfa: sp 0 + .ra: lr
STACK CFI INIT 9c360 164 .cfa: sp 0 + .ra: lr
STACK CFI 9c364 .cfa: sp 36 + .ra: .cfa -4 + ^ r10: .cfa -12 + ^ r11: .cfa -8 + ^ r4: .cfa -36 + ^ r5: .cfa -32 + ^ r6: .cfa -28 + ^ r7: .cfa -24 + ^ r8: .cfa -20 + ^ r9: .cfa -16 + ^
STACK CFI 9c366 .cfa: sp 64 +
STACK CFI 9c36a .cfa: r7 64 +
STACK CFI INIT 9c4c4 42 .cfa: sp 0 + .ra: lr
STACK CFI 9c4c8 .cfa: sp 24 + .ra: .cfa -4 + ^ r4: .cfa -24 + ^ r5: .cfa -20 + ^ r6: .cfa -16 + ^ r7: .cfa -12 + ^ r8: .cfa -8 + ^
STACK CFI INIT 9c508 4d0 .cfa: sp 0 + .ra: lr
STACK CFI 9c50c .cfa: sp 36 + .ra: .cfa -4 + ^ r10: .cfa -12 + ^ r11: .cfa -8 + ^ r4: .cfa -36 + ^ r5: .cfa -32 + ^ r6: .cfa -28 + ^ r7: .cfa -24 + ^ r8: .cfa -20 + ^ r9: .cfa -16 + ^
STACK CFI 9c50e .cfa: sp 80 +
STACK CFI INIT 9c9d8 54 .cfa: sp 0 + .ra: lr
STACK CFI 9c9dc .cfa: sp 32 + .ra: .cfa -4 + ^ r3: .cfa -32 + ^ r4: .cfa -28 + ^ r5: .cfa -24 + ^ r6: .cfa -20 + ^ r7: .cfa -16 + ^ r8: .cfa -12 + ^ r9: .cfa -8 + ^
STACK CFI INIT 9ca2c 30 .cfa: sp 0 + .ra: lr
STACK CFI 9ca2e .cfa: sp 16 + .ra: .cfa -4 + ^ r3: .cfa -16 + ^ r4: .cfa -12 + ^ r5: .cfa -8 + ^
STACK CFI INIT 9ca5c f8 .cfa: sp 0 + .ra: lr
STACK CFI 9ca5e .cfa: sp 4 + r3: .cfa -4 + ^
STACK CFI 9ca62 .cfa: sp 28 + .ra: .cfa -8 + ^ r4: .cfa -28 + ^ r5: .cfa -24 + ^ r6: .cfa -20 + ^ r7: .cfa -16 + ^ r8: .cfa -12 + ^
STACK CFI 9ca68 .cfa: sp 240 +
STACK CFI INIT 9cb54 d74 .cfa: sp 0 + .ra: lr
STACK CFI 9cb58 .cfa: sp 36 + .ra: .cfa -4 + ^ r10: .cfa -12 + ^ r11: .cfa -8 + ^ r4: .cfa -36 + ^ r5: .cfa -32 + ^ r6: .cfa -28 + ^ r7: .cfa -24 + ^ r8: .cfa -20 + ^ r9: .cfa -16 + ^
STACK CFI 9cb5a .cfa: sp 168 +
STACK CFI 9cb5e .cfa: r7 160 +
STACK CFI INIT 9d8c8 16 .cfa: sp 0 + .ra: lr
STACK CFI 9d8ca .cfa: sp 8 + .ra: .cfa -4 + ^ r4: .cfa -8 + ^
STACK CFI 9d8cc .cfa: sp 16 +
STACK CFI INIT 9d8e0 7c .cfa: sp 0 + .ra: lr
STACK CFI 9d8e2 .cfa: sp 20 + .ra: .cfa -4 + ^ r4: .cfa -20 + ^ r5: .cfa -16 + ^ r6: .cfa -12 + ^ r7: .cfa -8 + ^
STACK CFI 9d8e8 .cfa: sp 32 +
STACK CFI INIT 9d95c 88 .cfa: sp 0 + .ra: lr
STACK CFI 9d95e .cfa: sp 12 + r1: .cfa -12 + ^ r2: .cfa -8 + ^ r3: .cfa -4 + ^
STACK CFI 9d960 .cfa: sp 28 + .ra: .cfa -16 + ^ r4: .cfa -28 + ^ r5: .cfa -24 + ^ r6: .cfa -20 + ^
STACK CFI 9d966 .cfa: sp 40 +
STACK CFI INIT 9d9e4 78 .cfa: sp 0 + .ra: lr
STACK CFI 9d9e6 .cfa: sp 16 + .ra: .cfa -4 + ^ r3: .cfa -16 + ^ r4: .cfa -12 + ^ r5: .cfa -8 + ^
STACK CFI INIT 9da5c c4 .cfa: sp 0 + .ra: lr
STACK CFI 9da5e .cfa: sp 12 + .ra: .cfa -4 + ^ r4: .cfa -12 + ^ r5: .cfa -8 + ^
STACK CFI 9da66 .cfa: sp 24 +
STACK CFI INIT 9db20 1c8 .cfa: sp 0 + .ra: lr
STACK CFI 9db24 .cfa: sp 36 + .ra: .cfa -4 + ^ r10: .cfa -12 + ^ r11: .cfa -8 + ^ r4: .cfa -36 + ^ r5: .cfa -32 + ^ r6: .cfa -28 + ^ r7: .cfa -24 + ^ r8: .cfa -20 + ^ r9: .cfa -16 + ^
STACK CFI 9db26 .cfa: sp 72 +
STACK CFI INIT 9dce8 70 .cfa: sp 0 + .ra: lr
STACK CFI 9dcee .cfa: sp 8 + .ra: .cfa -4 + ^ r4: .cfa -8 + ^
STACK CFI INIT 9dd58 a3c .cfa: sp 0 + .ra: lr
STACK CFI 9dd5c .cfa: sp 36 + .ra: .cfa -4 + ^ r10: .cfa -12 + ^ r11: .cfa -8 + ^ r4: .cfa -36 + ^ r5: .cfa -32 + ^ r6: .cfa -28 + ^ r7: .cfa -24 + ^ r8: .cfa -20 + ^ r9: .cfa -16 + ^
STACK CFI 9dd5e .cfa: sp 288 +
STACK CFI 9dd64 .cfa: r7 280 +
STACK CFI INIT 9e794 26 .cfa: sp 0 + .ra: lr
STACK CFI INIT 9e7bc 1c .cfa: sp 0 + .ra: lr
STACK CFI INIT 9e7d8 30 .cfa: sp 0 + .ra: lr
STACK CFI INIT 9e808 24 .cfa: sp 0 + .ra: lr
STACK CFI INIT 9e82c 24 .cfa: sp 0 + .ra: lr
STACK CFI INIT 9e850 20 .cfa: sp 0 + .ra: lr
STACK CFI 9e852 .cfa: sp 8 + .ra: .cfa -4 + ^ r3: .cfa -8 + ^
STACK CFI INIT 9e870 20 .cfa: sp 0 + .ra: lr
STACK CFI 9e872 .cfa: sp 8 + .ra: .cfa -4 + ^ r3: .cfa -8 + ^
STACK CFI INIT 9e890 20 .cfa: sp 0 + .ra: lr
STACK CFI 9e892 .cfa: sp 8 + .ra: .cfa -4 + ^ r3: .cfa -8 + ^
STACK CFI INIT 9e8b0 20 .cfa: sp 0 + .ra: lr
STACK CFI 9e8b2 .cfa: sp 8 + .ra: .cfa -4 + ^ r3: .cfa -8 + ^
STACK CFI INIT 9e8d0 20 .cfa: sp 0 + .ra: lr
STACK CFI 9e8d2 .cfa: sp 8 + .ra: .cfa -4 + ^ r3: .cfa -8 + ^
STACK CFI INIT 9e8f0 20 .cfa: sp 0 + .ra: lr
STACK CFI 9e8f2 .cfa: sp 8 + .ra: .cfa -4 + ^ r3: .cfa -8 + ^
STACK CFI INIT 9e910 20 .cfa: sp 0 + .ra: lr
STACK CFI 9e912 .cfa: sp 8 + .ra: .cfa -4 + ^ r3: .cfa -8 + ^
STACK CFI INIT 9e930 20 .cfa: sp 0 + .ra: lr
STACK CFI 9e932 .cfa: sp 8 + .ra: .cfa -4 + ^ r3: .cfa -8 + ^
STACK CFI INIT 9e950 20 .cfa: sp 0 + .ra: lr
STACK CFI 9e952 .cfa: sp 8 + .ra: .cfa -4 + ^ r3: .cfa -8 + ^
STACK CFI INIT 9e970 20 .cfa: sp 0 + .ra: lr
STACK CFI 9e972 .cfa: sp 8 + .ra: .cfa -4 + ^ r3: .cfa -8 + ^
STACK CFI INIT 9e990 20 .cfa: sp 0 + .ra: lr
STACK CFI 9e992 .cfa: sp 8 + .ra: .cfa -4 + ^ r3: .cfa -8 + ^
STACK CFI INIT 9e9b0 20 .cfa: sp 0 + .ra: lr
STACK CFI 9e9b2 .cfa: sp 8 + .ra: .cfa -4 + ^ r3: .cfa -8 + ^
STACK CFI INIT 9e9d0 20 .cfa: sp 0 + .ra: lr
STACK CFI 9e9d2 .cfa: sp 8 + .ra: .cfa -4 + ^ r3: .cfa -8 + ^
STACK CFI INIT 9e9f0 20 .cfa: sp 0 + .ra: lr
STACK CFI 9e9f2 .cfa: sp 8 + .ra: .cfa -4 + ^ r3: .cfa -8 + ^
STACK CFI INIT 9ea10 20 .cfa: sp 0 + .ra: lr
STACK CFI 9ea12 .cfa: sp 8 + .ra: .cfa -4 + ^ r3: .cfa -8 + ^
STACK CFI INIT 9ea30 20 .cfa: sp 0 + .ra: lr
STACK CFI 9ea32 .cfa: sp 8 + .ra: .cfa -4 + ^ r3: .cfa -8 + ^
STACK CFI INIT 9ea50 20 .cfa: sp 0 + .ra: lr
STACK CFI 9ea52 .cfa: sp 8 + .ra: .cfa -4 + ^ r3: .cfa -8 + ^
STACK CFI INIT 9ea70 20 .cfa: sp 0 + .ra: lr
STACK CFI 9ea72 .cfa: sp 8 + .ra: .cfa -4 + ^ r3: .cfa -8 + ^
STACK CFI INIT 9ea90 20 .cfa: sp 0 + .ra: lr
STACK CFI 9ea92 .cfa: sp 8 + .ra: .cfa -4 + ^ r3: .cfa -8 + ^
STACK CFI INIT 9eab0 20 .cfa: sp 0 + .ra: lr
STACK CFI 9eab2 .cfa: sp 8 + .ra: .cfa -4 + ^ r3: .cfa -8 + ^
STACK CFI INIT 9ead0 20 .cfa: sp 0 + .ra: lr
STACK CFI 9ead2 .cfa: sp 8 + .ra: .cfa -4 + ^ r3: .cfa -8 + ^
STACK CFI INIT 9eaf0 20 .cfa: sp 0 + .ra: lr
STACK CFI 9eaf2 .cfa: sp 8 + .ra: .cfa -4 + ^ r3: .cfa -8 + ^
STACK CFI INIT 9eb10 20 .cfa: sp 0 + .ra: lr
STACK CFI 9eb12 .cfa: sp 8 + .ra: .cfa -4 + ^ r3: .cfa -8 + ^
STACK CFI INIT 9eb30 20 .cfa: sp 0 + .ra: lr
STACK CFI 9eb32 .cfa: sp 8 + .ra: .cfa -4 + ^ r3: .cfa -8 + ^
STACK CFI INIT 9eb50 20 .cfa: sp 0 + .ra: lr
STACK CFI 9eb52 .cfa: sp 8 + .ra: .cfa -4 + ^ r3: .cfa -8 + ^
STACK CFI INIT 9eb70 24 .cfa: sp 0 + .ra: lr
STACK CFI 9eb72 .cfa: sp 8 + .ra: .cfa -4 + ^ r3: .cfa -8 + ^
STACK CFI INIT 9eb94 24 .cfa: sp 0 + .ra: lr
STACK CFI 9eb96 .cfa: sp 8 + .ra: .cfa -4 + ^ r3: .cfa -8 + ^
STACK CFI INIT 9ebb8 24 .cfa: sp 0 + .ra: lr
STACK CFI 9ebba .cfa: sp 8 + .ra: .cfa -4 + ^ r3: .cfa -8 + ^
STACK CFI INIT 9ebdc 20 .cfa: sp 0 + .ra: lr
STACK CFI 9ebde .cfa: sp 8 + .ra: .cfa -4 + ^ r3: .cfa -8 + ^
STACK CFI INIT 9ebfc 24 .cfa: sp 0 + .ra: lr
STACK CFI 9ebfe .cfa: sp 8 + .ra: .cfa -4 + ^ r3: .cfa -8 + ^
STACK CFI INIT 9ec20 24 .cfa: sp 0 + .ra: lr
STACK CFI 9ec22 .cfa: sp 8 + .ra: .cfa -4 + ^ r3: .cfa -8 + ^
STACK CFI INIT bb2c0 2c .cfa: sp 0 + .ra: lr
STACK CFI bb2c4 .cfa: sp 8 + .ra: .cfa -4 + ^ r3: .cfa -8 + ^
STACK CFI INIT 9ec44 56 .cfa: sp 0 + .ra: lr
STACK CFI 9ec46 .cfa: sp 16 + .ra: .cfa -4 + ^ r4: .cfa -16 + ^ r5: .cfa -12 + ^ r6: .cfa -8 + ^
STACK CFI INIT 9ec9c 76 .cfa: sp 0 + .ra: lr
STACK CFI 9ec9e .cfa: sp 16 + .ra: .cfa -4 + ^ r3: .cfa -16 + ^ r4: .cfa -12 + ^ r5: .cfa -8 + ^
STACK CFI INIT 9ed14 66 .cfa: sp 0 + .ra: lr
STACK CFI 9ed18 .cfa: sp 16 + .ra: .cfa -4 + ^ r4: .cfa -16 + ^ r5: .cfa -12 + ^ r6: .cfa -8 + ^
STACK CFI INIT 9ed7c e .cfa: sp 0 + .ra: lr
STACK CFI 9ed7e .cfa: sp 8 + .ra: .cfa -4 + ^ r3: .cfa -8 + ^
STACK CFI INIT bd53c b4 .cfa: sp 0 + .ra: lr
STACK CFI bd542 .cfa: sp 16 + .ra: .cfa -4 + ^ r4: .cfa -16 + ^ r5: .cfa -12 + ^ r6: .cfa -8 + ^
STACK CFI INIT 9ed8c 30 .cfa: sp 0 + .ra: lr
STACK CFI 9ed90 .cfa: sp 4 + r4: .cfa -4 + ^
STACK CFI INIT 9edbc 114 .cfa: sp 0 + .ra: lr
STACK CFI 9edc0 .cfa: sp 28 + .ra: .cfa -4 + ^ r4: .cfa -28 + ^ r5: .cfa -24 + ^ r6: .cfa -20 + ^ r7: .cfa -16 + ^ r8: .cfa -12 + ^ r9: .cfa -8 + ^
STACK CFI 9edc6 .cfa: sp 40 +
STACK CFI INIT 9eed0 174 .cfa: sp 0 + .ra: lr
STACK CFI 9eed6 .cfa: sp 24 + .ra: .cfa -4 + ^ r4: .cfa -24 + ^ r5: .cfa -20 + ^ r6: .cfa -16 + ^ r7: .cfa -12 + ^ r8: .cfa -8 + ^
STACK CFI 9eeda .cfa: r7 24 +
STACK CFI INIT bd5f0 20 .cfa: sp 0 + .ra: lr
STACK CFI bd5f2 .cfa: sp 8 + .ra: .cfa -4 + ^ r3: .cfa -8 + ^
STACK CFI INIT 9f044 44 .cfa: sp 0 + .ra: lr
STACK CFI 9f048 .cfa: sp 8 + .ra: .cfa -4 + ^ r4: .cfa -8 + ^
STACK CFI INIT 9f088 4 .cfa: sp 0 + .ra: lr
STACK CFI INIT 9f08c 34 .cfa: sp 0 + .ra: lr
STACK CFI 9f09e .cfa: sp 4 + .ra: .cfa -4 + ^
STACK CFI INIT 9f0c0 68 .cfa: sp 0 + .ra: lr
STACK CFI 9f0c6 .cfa: sp 8 + .ra: .cfa -4 + ^ r4: .cfa -8 + ^
STACK CFI INIT 9f128 54 .cfa: sp 0 + .ra: lr
STACK CFI 9f130 .cfa: sp 4 + .ra: .cfa -4 + ^
STACK CFI INIT 9f17c 74 .cfa: sp 0 + .ra: lr
STACK CFI 9f18a .cfa: sp 8 + .ra: .cfa -4 + ^ r4: .cfa -8 + ^
STACK CFI INIT 9f1f0 68 .cfa: sp 0 + .ra: lr
STACK CFI 9f1f6 .cfa: sp 24 + .ra: .cfa -4 + ^ r4: .cfa -24 + ^ r5: .cfa -20 + ^ r6: .cfa -16 + ^ r7: .cfa -12 + ^ r8: .cfa -8 + ^
STACK CFI INIT 9f258 2 .cfa: sp 0 + .ra: lr
STACK CFI INIT 9f25c 72 .cfa: sp 0 + .ra: lr
STACK CFI 9f262 .cfa: sp 24 + .ra: .cfa -4 + ^ r4: .cfa -24 + ^ r5: .cfa -20 + ^ r6: .cfa -16 + ^ r7: .cfa -12 + ^ r8: .cfa -8 + ^
STACK CFI INIT 9f2d0 e4 .cfa: sp 0 + .ra: lr
STACK CFI 9f2d6 .cfa: sp 32 + .ra: .cfa -4 + ^ r3: .cfa -32 + ^ r4: .cfa -28 + ^ r5: .cfa -24 + ^ r6: .cfa -20 + ^ r7: .cfa -16 + ^ r8: .cfa -12 + ^ r9: .cfa -8 + ^
STACK CFI INIT 9f3b4 74 .cfa: sp 0 + .ra: lr
STACK CFI 9f3ba .cfa: sp 24 + .ra: .cfa -4 + ^ r4: .cfa -24 + ^ r5: .cfa -20 + ^ r6: .cfa -16 + ^ r7: .cfa -12 + ^ r8: .cfa -8 + ^
STACK CFI INIT 9f428 96 .cfa: sp 0 + .ra: lr
STACK CFI 9f42c .cfa: sp 24 + .ra: .cfa -4 + ^ r3: .cfa -24 + ^ r4: .cfa -20 + ^ r5: .cfa -16 + ^ r6: .cfa -12 + ^ r7: .cfa -8 + ^
STACK CFI INIT 9f4c0 22 .cfa: sp 0 + .ra: lr
STACK CFI 9f4c2 .cfa: sp 8 + .ra: .cfa -4 + ^ r4: .cfa -8 + ^
STACK CFI INIT 9f4e4 3e .cfa: sp 0 + .ra: lr
STACK CFI 9f4e6 .cfa: sp 16 + .ra: .cfa -4 + ^ r4: .cfa -16 + ^ r5: .cfa -12 + ^ r6: .cfa -8 + ^
STACK CFI INIT 9f524 6a .cfa: sp 0 + .ra: lr
STACK CFI 9f528 .cfa: sp 16 + .ra: .cfa -4 + ^ r3: .cfa -16 + ^ r4: .cfa -12 + ^ r5: .cfa -8 + ^
STACK CFI INIT 9f590 c0 .cfa: sp 0 + .ra: lr
STACK CFI 9f592 .cfa: sp 24 + .ra: .cfa -4 + ^ r3: .cfa -24 + ^ r4: .cfa -20 + ^ r5: .cfa -16 + ^ r6: .cfa -12 + ^ r7: .cfa -8 + ^
STACK CFI INIT 9f650 8a .cfa: sp 0 + .ra: lr
STACK CFI 9f654 .cfa: sp 16 + .ra: .cfa -4 + ^ r3: .cfa -16 + ^ r4: .cfa -12 + ^ r5: .cfa -8 + ^
STACK CFI INIT 9f6dc 88 .cfa: sp 0 + .ra: lr
STACK CFI 9f6e0 .cfa: sp 16 + .ra: .cfa -4 + ^ r3: .cfa -16 + ^ r4: .cfa -12 + ^ r5: .cfa -8 + ^
STACK CFI INIT 9f764 1e .cfa: sp 0 + .ra: lr
STACK CFI 9f766 .cfa: sp 4 + r3: .cfa -4 + ^
STACK CFI 9f768 .cfa: sp 12 + .ra: .cfa -8 + ^ r4: .cfa -12 + ^
STACK CFI 9f76a .cfa: sp 32 +
STACK CFI INIT 9f784 6 .cfa: sp 0 + .ra: lr
STACK CFI 9f786 .cfa: sp 8 + .ra: .cfa -4 + ^ r3: .cfa -8 + ^
STACK CFI INIT 9f78c 6c .cfa: sp 0 + .ra: lr
STACK CFI 9f790 .cfa: sp 28 + .ra: .cfa -4 + ^ r4: .cfa -28 + ^ r5: .cfa -24 + ^ r6: .cfa -20 + ^ r7: .cfa -16 + ^ r8: .cfa -12 + ^ r9: .cfa -8 + ^
STACK CFI 9f792 .cfa: sp 208 +
STACK CFI INIT 9f7f8 18 .cfa: sp 0 + .ra: lr
STACK CFI 9f7fa .cfa: sp 12 + .ra: .cfa -4 + ^ r4: .cfa -12 + ^ r5: .cfa -8 + ^
STACK CFI 9f7fc .cfa: sp 32 +
STACK CFI INIT 9f810 80 .cfa: sp 0 + .ra: lr
STACK CFI 9f816 .cfa: sp 28 + .ra: .cfa -4 + ^ r4: .cfa -28 + ^ r5: .cfa -24 + ^ r6: .cfa -20 + ^ r7: .cfa -16 + ^ r8: .cfa -12 + ^ r9: .cfa -8 + ^
STACK CFI 9f81a .cfa: sp 272 +
STACK CFI INIT 9f890 154 .cfa: sp 0 + .ra: lr
STACK CFI 9f892 .cfa: sp 12 + r1: .cfa -12 + ^ r2: .cfa -8 + ^ r3: .cfa -4 + ^
STACK CFI 9f89c .cfa: sp 36 + .ra: .cfa -16 + ^ r4: .cfa -36 + ^ r5: .cfa -32 + ^ r6: .cfa -28 + ^ r7: .cfa -24 + ^ r8: .cfa -20 + ^
STACK CFI 9f8a2 .cfa: sp 48 +
STACK CFI INIT 9f9e4 13c .cfa: sp 0 + .ra: lr
STACK CFI 9f9e6 .cfa: sp 8 + r2: .cfa -8 + ^ r3: .cfa -4 + ^
STACK CFI 9f9ea .cfa: sp 28 + .ra: .cfa -12 + ^ r4: .cfa -28 + ^ r5: .cfa -24 + ^ r6: .cfa -20 + ^ r7: .cfa -16 + ^
STACK CFI 9f9ee .cfa: sp 40 +
STACK CFI INIT 9fb20 154 .cfa: sp 0 + .ra: lr
STACK CFI 9fb26 .cfa: sp 32 + .ra: .cfa -4 + ^ r10: .cfa -8 + ^ r4: .cfa -32 + ^ r5: .cfa -28 + ^ r6: .cfa -24 + ^ r7: .cfa -20 + ^ r8: .cfa -16 + ^ r9: .cfa -12 + ^
STACK CFI INIT 9fc74 134 .cfa: sp 0 + .ra: lr
STACK CFI 9fc78 .cfa: sp 24 + .ra: .cfa -4 + ^ r4: .cfa -24 + ^ r5: .cfa -20 + ^ r6: .cfa -16 + ^ r7: .cfa -12 + ^ r8: .cfa -8 + ^
STACK CFI INIT 9fda8 1a8 .cfa: sp 0 + .ra: lr
STACK CFI 9fdac .cfa: sp 28 + .ra: .cfa -4 + ^ r4: .cfa -28 + ^ r5: .cfa -24 + ^ r6: .cfa -20 + ^ r7: .cfa -16 + ^ r8: .cfa -12 + ^ r9: .cfa -8 + ^
STACK CFI 9fdb0 .cfa: sp 40 +
STACK CFI INIT 9ff50 10 .cfa: sp 0 + .ra: lr
STACK CFI 9ff54 .cfa: sp 8 + .ra: .cfa -4 + ^ r3: .cfa -8 + ^
STACK CFI INIT 9ff60 120 .cfa: sp 0 + .ra: lr
STACK CFI 9ff64 .cfa: sp 36 + .ra: .cfa -4 + ^ r10: .cfa -12 + ^ r11: .cfa -8 + ^ r4: .cfa -36 + ^ r5: .cfa -32 + ^ r6: .cfa -28 + ^ r7: .cfa -24 + ^ r8: .cfa -20 + ^ r9: .cfa -16 + ^
STACK CFI 9ff70 .cfa: sp 64 +
STACK CFI INIT a0080 16c .cfa: sp 0 + .ra: lr
STACK CFI a0084 .cfa: sp 28 + .ra: .cfa -4 + ^ r4: .cfa -28 + ^ r5: .cfa -24 + ^ r6: .cfa -20 + ^ r7: .cfa -16 + ^ r8: .cfa -12 + ^ r9: .cfa -8 + ^
STACK CFI a008a .cfa: sp 40 +
STACK CFI INIT a01ec 74 .cfa: sp 0 + .ra: lr
STACK CFI a01f0 .cfa: sp 20 + .ra: .cfa -4 + ^ r4: .cfa -20 + ^ r5: .cfa -16 + ^ r6: .cfa -12 + ^ r7: .cfa -8 + ^
STACK CFI a01f4 .cfa: sp 32 +
STACK CFI INIT a0260 34 .cfa: sp 0 + .ra: lr
STACK CFI a0264 .cfa: sp 8 + .ra: .cfa -4 + ^ r3: .cfa -8 + ^
STACK CFI INIT a0294 14 .cfa: sp 0 + .ra: lr
STACK CFI a0296 .cfa: sp 8 + .ra: .cfa -4 + ^ r4: .cfa -8 + ^
STACK CFI INIT a02a8 1c .cfa: sp 0 + .ra: lr
STACK CFI a02aa .cfa: sp 16 + .ra: .cfa -4 + ^ r3: .cfa -16 + ^ r4: .cfa -12 + ^ r5: .cfa -8 + ^
STACK CFI INIT a02c4 16 .cfa: sp 0 + .ra: lr
STACK CFI a02c8 .cfa: sp 8 + .ra: .cfa -4 + ^ r4: .cfa -8 + ^
STACK CFI INIT a02dc 1e .cfa: sp 0 + .ra: lr
STACK CFI a02e0 .cfa: sp 16 + .ra: .cfa -4 + ^ r4: .cfa -16 + ^ r5: .cfa -12 + ^ r6: .cfa -8 + ^
STACK CFI INIT a02fc 34 .cfa: sp 0 + .ra: lr
STACK CFI a0300 .cfa: sp 8 + .ra: .cfa -4 + ^ r3: .cfa -8 + ^
STACK CFI INIT a0330 14 .cfa: sp 0 + .ra: lr
STACK CFI a0332 .cfa: sp 8 + .ra: .cfa -4 + ^ r4: .cfa -8 + ^
STACK CFI INIT a0344 24 .cfa: sp 0 + .ra: lr
STACK CFI a0346 .cfa: sp 8 + .ra: .cfa -4 + ^ r3: .cfa -8 + ^
STACK CFI INIT a0368 12 .cfa: sp 0 + .ra: lr
STACK CFI a036c .cfa: sp 8 + .ra: .cfa -4 + ^ r3: .cfa -8 + ^
STACK CFI INIT a037c 14 .cfa: sp 0 + .ra: lr
STACK CFI a0382 .cfa: sp 8 + .ra: .cfa -4 + ^ r3: .cfa -8 + ^
STACK CFI INIT a0390 14e .cfa: sp 0 + .ra: lr
STACK CFI a0394 .cfa: sp 32 + .ra: .cfa -4 + ^ r3: .cfa -32 + ^ r4: .cfa -28 + ^ r5: .cfa -24 + ^ r6: .cfa -20 + ^ r7: .cfa -16 + ^ r8: .cfa -12 + ^ r9: .cfa -8 + ^
STACK CFI INIT a04e0 56 .cfa: sp 0 + .ra: lr
STACK CFI a04e4 .cfa: sp 24 + .ra: .cfa -4 + ^ r4: .cfa -24 + ^ r5: .cfa -20 + ^ r6: .cfa -16 + ^ r7: .cfa -12 + ^ r8: .cfa -8 + ^
STACK CFI INIT a0538 12 .cfa: sp 0 + .ra: lr
STACK CFI a053c .cfa: sp 8 + .ra: .cfa -4 + ^ r3: .cfa -8 + ^
STACK CFI INIT a054c 30 .cfa: sp 0 + .ra: lr
STACK CFI a054e .cfa: sp 8 + .ra: .cfa -4 + ^ r3: .cfa -8 + ^
STACK CFI INIT a057c 12 .cfa: sp 0 + .ra: lr
STACK CFI a0580 .cfa: sp 8 + .ra: .cfa -4 + ^ r3: .cfa -8 + ^
STACK CFI INIT a0590 12 .cfa: sp 0 + .ra: lr
STACK CFI a0594 .cfa: sp 8 + .ra: .cfa -4 + ^ r3: .cfa -8 + ^
STACK CFI INIT a05a4 12 .cfa: sp 0 + .ra: lr
STACK CFI a05a8 .cfa: sp 8 + .ra: .cfa -4 + ^ r3: .cfa -8 + ^
STACK CFI INIT a05b8 1e .cfa: sp 0 + .ra: lr
STACK CFI a05ba .cfa: sp 8 + r2: .cfa -8 + ^ r3: .cfa -4 + ^
STACK CFI a05bc .cfa: sp 16 + .ra: .cfa -12 + ^ r4: .cfa -16 + ^
STACK CFI a05be .cfa: sp 24 +
STACK CFI INIT a05d8 f4 .cfa: sp 0 + .ra: lr
STACK CFI a05dc .cfa: sp 36 + .ra: .cfa -4 + ^ r10: .cfa -12 + ^ r11: .cfa -8 + ^ r4: .cfa -36 + ^ r5: .cfa -32 + ^ r6: .cfa -28 + ^ r7: .cfa -24 + ^ r8: .cfa -20 + ^ r9: .cfa -16 + ^
STACK CFI a05e0 .cfa: sp 216 +
STACK CFI INIT a06cc 1e .cfa: sp 0 + .ra: lr
STACK CFI a06ce .cfa: sp 8 + r2: .cfa -8 + ^ r3: .cfa -4 + ^
STACK CFI a06d0 .cfa: sp 16 + .ra: .cfa -12 + ^ r4: .cfa -16 + ^
STACK CFI a06d2 .cfa: sp 24 +
STACK CFI INIT a06ec 94 .cfa: sp 0 + .ra: lr
STACK CFI a06f0 .cfa: sp 32 + .ra: .cfa -4 + ^ r10: .cfa -8 + ^ r4: .cfa -32 + ^ r5: .cfa -28 + ^ r6: .cfa -24 + ^ r7: .cfa -20 + ^ r8: .cfa -16 + ^ r9: .cfa -12 + ^
STACK CFI a06f2 .cfa: sp 392 +
STACK CFI INIT a0780 108 .cfa: sp 0 + .ra: lr
STACK CFI a0784 .cfa: sp 36 + .ra: .cfa -4 + ^ r10: .cfa -12 + ^ r11: .cfa -8 + ^ r4: .cfa -36 + ^ r5: .cfa -32 + ^ r6: .cfa -28 + ^ r7: .cfa -24 + ^ r8: .cfa -20 + ^ r9: .cfa -16 + ^
STACK CFI a0786 .cfa: sp 216 +
STACK CFI INIT a0888 1e .cfa: sp 0 + .ra: lr
STACK CFI a088a .cfa: sp 8 + r2: .cfa -8 + ^ r3: .cfa -4 + ^
STACK CFI a088c .cfa: sp 16 + .ra: .cfa -12 + ^ r4: .cfa -16 + ^
STACK CFI a088e .cfa: sp 24 +
STACK CFI INIT a08a8 2c .cfa: sp 0 + .ra: lr
STACK CFI a08aa .cfa: sp 16 + .ra: .cfa -4 + ^ r3: .cfa -16 + ^ r4: .cfa -12 + ^ r5: .cfa -8 + ^
STACK CFI INIT a08e0 d8 .cfa: sp 0 + .ra: lr
STACK CFI a08fc .cfa: sp 4 + r7: .cfa -4 + ^
STACK CFI a090c .cfa: sp 16 +
STACK CFI a0944 .cfa: sp 4 +
STACK CFI a0948 .cfa: sp 0 + r7: r7
STACK CFI a0964 .cfa: sp 16 + r10: r10 r7: .cfa -4 + ^
STACK CFI a0968 .cfa: sp 0 + r5: r5 r7: r7
STACK CFI a096c .ra: .ra r10: r10 r11: r11 r4: r4 r5: r5 r6: r6 r7: r7 r8: r8 r9: r9 sp: sp
STACK CFI INIT a09c0 10 .cfa: sp 0 + .ra: lr
STACK CFI a09c6 .cfa: sp 8 + .ra: .cfa -4 + ^ r3: .cfa -8 + ^
STACK CFI INIT a09d0 14 .cfa: sp 0 + .ra: lr
STACK CFI a09d6 .cfa: sp 8 + .ra: .cfa -4 + ^ r3: .cfa -8 + ^
STACK CFI INIT a09e4 16 .cfa: sp 0 + .ra: lr
STACK CFI a09e6 .cfa: sp 8 + .ra: .cfa -4 + ^ r4: .cfa -8 + ^
STACK CFI INIT a09fc 10 .cfa: sp 0 + .ra: lr
STACK CFI a0a00 .cfa: sp 8 + .ra: .cfa -4 + ^ r3: .cfa -8 + ^
STACK CFI INIT a0a0c 34 .cfa: sp 0 + .ra: lr
STACK CFI a0a0e .cfa: sp 24 + .ra: .cfa -4 + ^ r3: .cfa -24 + ^ r4: .cfa -20 + ^ r5: .cfa -16 + ^ r6: .cfa -12 + ^ r7: .cfa -8 + ^
STACK CFI INIT a0a40 50 .cfa: sp 0 + .ra: lr
STACK CFI a0a42 .cfa: sp 20 + .ra: .cfa -4 + ^ r4: .cfa -20 + ^ r5: .cfa -16 + ^ r6: .cfa -12 + ^ r7: .cfa -8 + ^
STACK CFI a0a44 .cfa: sp 40 +
STACK CFI a0a48 .cfa: r7 32 +
STACK CFI INIT a0a90 48 .cfa: sp 0 + .ra: lr
STACK CFI a0a96 .cfa: sp 16 + .ra: .cfa -4 + ^ r3: .cfa -16 + ^ r4: .cfa -12 + ^ r7: .cfa -8 + ^
STACK CFI a0a9c .cfa: r7 16 +
STACK CFI INIT bd610 1c .cfa: sp 0 + .ra: lr
STACK CFI bd612 .cfa: sp 16 + .ra: .cfa -4 + ^ r4: .cfa -16 + ^ r5: .cfa -12 + ^ r7: .cfa -8 + ^
STACK CFI bd618 .cfa: r7 16 +
STACK CFI INIT a0ad8 ac .cfa: sp 0 + .ra: lr
STACK CFI a0ae0 .cfa: sp 16 + .ra: .cfa -4 + ^ r4: .cfa -16 + ^ r5: .cfa -12 + ^ r7: .cfa -8 + ^
STACK CFI a0ae2 .cfa: sp 32 +
STACK CFI a0ae6 .cfa: r7 32 +
STACK CFI INIT a0b84 204 .cfa: sp 0 + .ra: lr
STACK CFI a0b88 .cfa: sp 36 + .ra: .cfa -4 + ^ r10: .cfa -12 + ^ r11: .cfa -8 + ^ r4: .cfa -36 + ^ r5: .cfa -32 + ^ r6: .cfa -28 + ^ r7: .cfa -24 + ^ r8: .cfa -20 + ^ r9: .cfa -16 + ^
STACK CFI a0b8c .cfa: sp 104 +
STACK CFI a0b94 .cfa: r7 88 +
STACK CFI INIT a0d88 1f0 .cfa: sp 0 + .ra: lr
STACK CFI a0d8c .cfa: sp 36 + .ra: .cfa -4 + ^ r10: .cfa -12 + ^ r11: .cfa -8 + ^ r4: .cfa -36 + ^ r5: .cfa -32 + ^ r6: .cfa -28 + ^ r7: .cfa -24 + ^ r8: .cfa -20 + ^ r9: .cfa -16 + ^
STACK CFI a0d90 .cfa: sp 200 +
STACK CFI INIT a0f78 154 .cfa: sp 0 + .ra: lr
STACK CFI a0f7a .cfa: sp 12 + r1: .cfa -12 + ^ r2: .cfa -8 + ^ r3: .cfa -4 + ^
STACK CFI a0f84 .cfa: sp 36 + .ra: .cfa -16 + ^ r4: .cfa -36 + ^ r5: .cfa -32 + ^ r6: .cfa -28 + ^ r7: .cfa -24 + ^ r8: .cfa -20 + ^
STACK CFI a0f8a .cfa: sp 48 +
STACK CFI INIT a10cc 13c .cfa: sp 0 + .ra: lr
STACK CFI a10ce .cfa: sp 8 + r2: .cfa -8 + ^ r3: .cfa -4 + ^
STACK CFI a10d2 .cfa: sp 28 + .ra: .cfa -12 + ^ r4: .cfa -28 + ^ r5: .cfa -24 + ^ r6: .cfa -20 + ^ r7: .cfa -16 + ^
STACK CFI a10d6 .cfa: sp 40 +
STACK CFI INIT a1208 154 .cfa: sp 0 + .ra: lr
STACK CFI a120e .cfa: sp 32 + .ra: .cfa -4 + ^ r10: .cfa -8 + ^ r4: .cfa -32 + ^ r5: .cfa -28 + ^ r6: .cfa -24 + ^ r7: .cfa -20 + ^ r8: .cfa -16 + ^ r9: .cfa -12 + ^
STACK CFI INIT a135c 134 .cfa: sp 0 + .ra: lr
STACK CFI a1360 .cfa: sp 24 + .ra: .cfa -4 + ^ r4: .cfa -24 + ^ r5: .cfa -20 + ^ r6: .cfa -16 + ^ r7: .cfa -12 + ^ r8: .cfa -8 + ^
STACK CFI INIT a1490 16c .cfa: sp 0 + .ra: lr
STACK CFI a1494 .cfa: sp 28 + .ra: .cfa -4 + ^ r4: .cfa -28 + ^ r5: .cfa -24 + ^ r6: .cfa -20 + ^ r7: .cfa -16 + ^ r8: .cfa -12 + ^ r9: .cfa -8 + ^
STACK CFI a149a .cfa: sp 40 +
STACK CFI INIT a15fc 74 .cfa: sp 0 + .ra: lr
STACK CFI a1600 .cfa: sp 20 + .ra: .cfa -4 + ^ r4: .cfa -20 + ^ r5: .cfa -16 + ^ r6: .cfa -12 + ^ r7: .cfa -8 + ^
STACK CFI a1604 .cfa: sp 32 +
STACK CFI INIT a1670 30 .cfa: sp 0 + .ra: lr
STACK CFI a1674 .cfa: sp 8 + .ra: .cfa -4 + ^ r4: .cfa -8 + ^
STACK CFI INIT a16a0 26 .cfa: sp 0 + .ra: lr
STACK CFI a16a2 .cfa: sp 16 + .ra: .cfa -4 + ^ r3: .cfa -16 + ^ r4: .cfa -12 + ^ r5: .cfa -8 + ^
STACK CFI INIT a16c8 14 .cfa: sp 0 + .ra: lr
STACK CFI a16cc .cfa: sp 8 + .ra: .cfa -4 + ^ r3: .cfa -8 + ^
STACK CFI INIT a16dc 14 .cfa: sp 0 + .ra: lr
STACK CFI a16e0 .cfa: sp 8 + .ra: .cfa -4 + ^ r3: .cfa -8 + ^
STACK CFI INIT a16f0 14 .cfa: sp 0 + .ra: lr
STACK CFI a16f4 .cfa: sp 8 + .ra: .cfa -4 + ^ r3: .cfa -8 + ^
STACK CFI INIT a1704 28 .cfa: sp 0 + .ra: lr
STACK CFI a1708 .cfa: sp 16 + .ra: .cfa -4 + ^ r3: .cfa -16 + ^ r4: .cfa -12 + ^ r5: .cfa -8 + ^
STACK CFI INIT a172c 12 .cfa: sp 0 + .ra: lr
STACK CFI a1730 .cfa: sp 8 + .ra: .cfa -4 + ^ r3: .cfa -8 + ^
STACK CFI INIT a1740 38 .cfa: sp 0 + .ra: lr
STACK CFI a1742 .cfa: sp 16 + .ra: .cfa -4 + ^ r4: .cfa -16 + ^ r5: .cfa -12 + ^ r6: .cfa -8 + ^
STACK CFI INIT a1778 ae .cfa: sp 0 + .ra: lr
STACK CFI a177a .cfa: sp 24 + .ra: .cfa -4 + ^ r3: .cfa -24 + ^ r4: .cfa -20 + ^ r5: .cfa -16 + ^ r6: .cfa -12 + ^ r7: .cfa -8 + ^
STACK CFI INIT a1828 12 .cfa: sp 0 + .ra: lr
STACK CFI a182c .cfa: sp 8 + .ra: .cfa -4 + ^ r3: .cfa -8 + ^
STACK CFI INIT a183c 12 .cfa: sp 0 + .ra: lr
STACK CFI a1840 .cfa: sp 8 + .ra: .cfa -4 + ^ r3: .cfa -8 + ^
STACK CFI INIT a1850 18 .cfa: sp 0 + .ra: lr
STACK CFI a1852 .cfa: sp 12 + .ra: .cfa -4 + ^ r4: .cfa -12 + ^ r5: .cfa -8 + ^
STACK CFI a1854 .cfa: sp 32 +
STACK CFI INIT a1868 8c .cfa: sp 0 + .ra: lr
STACK CFI a186e .cfa: sp 24 + .ra: .cfa -4 + ^ r4: .cfa -24 + ^ r5: .cfa -20 + ^ r6: .cfa -16 + ^ r7: .cfa -12 + ^ r8: .cfa -8 + ^
STACK CFI a1874 .cfa: sp 648 +
STACK CFI INIT a18f4 28 .cfa: sp 0 + .ra: lr
STACK CFI a18f6 .cfa: sp 16 + .ra: .cfa -4 + ^ r3: .cfa -16 + ^ r4: .cfa -12 + ^ r5: .cfa -8 + ^
STACK CFI INIT a191c 18 .cfa: sp 0 + .ra: lr
STACK CFI a191e .cfa: sp 16 + .ra: .cfa -4 + ^ r4: .cfa -16 + ^ r5: .cfa -12 + ^ r6: .cfa -8 + ^
STACK CFI INIT a1934 18 .cfa: sp 0 + .ra: lr
STACK CFI a1936 .cfa: sp 16 + .ra: .cfa -4 + ^ r4: .cfa -16 + ^ r5: .cfa -12 + ^ r6: .cfa -8 + ^
STACK CFI INIT a194c 14 .cfa: sp 0 + .ra: lr
STACK CFI a194e .cfa: sp 8 + .ra: .cfa -4 + ^ r4: .cfa -8 + ^
STACK CFI INIT a1960 14 .cfa: sp 0 + .ra: lr
STACK CFI a1962 .cfa: sp 8 + .ra: .cfa -4 + ^ r4: .cfa -8 + ^
STACK CFI INIT a1974 22 .cfa: sp 0 + .ra: lr
STACK CFI a1976 .cfa: sp 12 + .ra: .cfa -4 + ^ r4: .cfa -12 + ^ r5: .cfa -8 + ^
STACK CFI a197a .cfa: sp 32 +
STACK CFI INIT a1998 22 .cfa: sp 0 + .ra: lr
STACK CFI a199a .cfa: sp 12 + .ra: .cfa -4 + ^ r4: .cfa -12 + ^ r5: .cfa -8 + ^
STACK CFI a199e .cfa: sp 32 +
STACK CFI INIT bd62c 1c .cfa: sp 0 + .ra: lr
STACK CFI bd62e .cfa: sp 8 + .ra: .cfa -4 + ^ r4: .cfa -8 + ^
STACK CFI INIT a19bc ec .cfa: sp 0 + .ra: lr
STACK CFI a19be .cfa: sp 16 + .ra: .cfa -4 + ^ r3: .cfa -16 + ^ r4: .cfa -12 + ^ r5: .cfa -8 + ^
STACK CFI INIT a1aa8 78 .cfa: sp 0 + .ra: lr
STACK CFI a1aac .cfa: sp 24 + .ra: .cfa -4 + ^ r4: .cfa -24 + ^ r5: .cfa -20 + ^ r6: .cfa -16 + ^ r7: .cfa -12 + ^ r8: .cfa -8 + ^
STACK CFI INIT a1b20 5c .cfa: sp 0 + .ra: lr
STACK CFI a1b22 .cfa: sp 8 + .ra: .cfa -4 + ^ r4: .cfa -8 + ^
STACK CFI a1b24 .cfa: sp 24 +
STACK CFI INIT a1b7c 4 .cfa: sp 0 + .ra: lr
STACK CFI INIT a1b80 a .cfa: sp 0 + .ra: lr
STACK CFI INIT a1b8c 1c .cfa: sp 0 + .ra: lr
STACK CFI INIT a1ba8 2e .cfa: sp 0 + .ra: lr
STACK CFI INIT a1bd8 1a .cfa: sp 0 + .ra: lr
STACK CFI INIT a1bf4 44 .cfa: sp 0 + .ra: lr
STACK CFI a1bf8 .cfa: sp 12 + .ra: .cfa -4 + ^ r4: .cfa -12 + ^ r5: .cfa -8 + ^
STACK CFI a1bfe .cfa: sp 32 +
STACK CFI INIT a1c38 104 .cfa: sp 0 + .ra: lr
STACK CFI a1c3c .cfa: sp 32 + r10: .cfa -8 + ^ r11: .cfa -4 + ^ r4: .cfa -32 + ^ r5: .cfa -28 + ^ r6: .cfa -24 + ^ r7: .cfa -20 + ^ r8: .cfa -16 + ^ r9: .cfa -12 + ^
STACK CFI a1c3e .cfa: sp 56 +
STACK CFI INIT a1d3c 14 .cfa: sp 0 + .ra: lr
STACK CFI INIT a1d50 17c .cfa: sp 0 + .ra: lr
STACK CFI a1d54 .cfa: sp 36 + .ra: .cfa -4 + ^ r10: .cfa -12 + ^ r11: .cfa -8 + ^ r4: .cfa -36 + ^ r5: .cfa -32 + ^ r6: .cfa -28 + ^ r7: .cfa -24 + ^ r8: .cfa -20 + ^ r9: .cfa -16 + ^
STACK CFI a1d56 .cfa: sp 80 +
STACK CFI INIT a1ecc 254 .cfa: sp 0 + .ra: lr
STACK CFI a1ed0 .cfa: sp 36 + .ra: .cfa -4 + ^ r10: .cfa -12 + ^ r11: .cfa -8 + ^ r4: .cfa -36 + ^ r5: .cfa -32 + ^ r6: .cfa -28 + ^ r7: .cfa -24 + ^ r8: .cfa -20 + ^ r9: .cfa -16 + ^
STACK CFI a1ed4 .cfa: sp 80 +
STACK CFI INIT a2120 180 .cfa: sp 0 + .ra: lr
STACK CFI a2124 .cfa: sp 32 + .ra: .cfa -4 + ^ r10: .cfa -8 + ^ r4: .cfa -32 + ^ r5: .cfa -28 + ^ r6: .cfa -24 + ^ r7: .cfa -20 + ^ r8: .cfa -16 + ^ r9: .cfa -12 + ^
STACK CFI a2126 .cfa: sp 64 +
STACK CFI INIT a22a0 188 .cfa: sp 0 + .ra: lr
STACK CFI a22a4 .cfa: sp 36 + .ra: .cfa -4 + ^ r10: .cfa -12 + ^ r11: .cfa -8 + ^ r4: .cfa -36 + ^ r5: .cfa -32 + ^ r6: .cfa -28 + ^ r7: .cfa -24 + ^ r8: .cfa -20 + ^ r9: .cfa -16 + ^
STACK CFI a22a6 .cfa: sp 72 +
STACK CFI INIT a2428 250 .cfa: sp 0 + .ra: lr
STACK CFI a242c .cfa: sp 36 + .ra: .cfa -4 + ^ r10: .cfa -12 + ^ r11: .cfa -8 + ^ r4: .cfa -36 + ^ r5: .cfa -32 + ^ r6: .cfa -28 + ^ r7: .cfa -24 + ^ r8: .cfa -20 + ^ r9: .cfa -16 + ^
STACK CFI a242e .cfa: sp 96 +
STACK CFI INIT a2678 250 .cfa: sp 0 + .ra: lr
STACK CFI a267c .cfa: sp 36 + .ra: .cfa -4 + ^ r10: .cfa -12 + ^ r11: .cfa -8 + ^ r4: .cfa -36 + ^ r5: .cfa -32 + ^ r6: .cfa -28 + ^ r7: .cfa -24 + ^ r8: .cfa -20 + ^ r9: .cfa -16 + ^
STACK CFI a267e .cfa: sp 96 +
STACK CFI INIT a28c8 d8 .cfa: sp 0 + .ra: lr
STACK CFI a28ce .cfa: sp 20 + .ra: .cfa -4 + ^ r4: .cfa -20 + ^ r5: .cfa -16 + ^ r6: .cfa -12 + ^ r7: .cfa -8 + ^
STACK CFI a28d2 .cfa: sp 32 +
STACK CFI INIT a29a0 d0 .cfa: sp 0 + .ra: lr
STACK CFI a29a6 .cfa: sp 16 + .ra: .cfa -4 + ^ r4: .cfa -16 + ^ r5: .cfa -12 + ^ r6: .cfa -8 + ^
STACK CFI a29aa .cfa: sp 32 +
STACK CFI INIT a2a70 cc .cfa: sp 0 + .ra: lr
STACK CFI a2a74 .cfa: sp 16 + .ra: .cfa -4 + ^ r4: .cfa -16 + ^ r5: .cfa -12 + ^ r6: .cfa -8 + ^
STACK CFI a2a78 .cfa: sp 24 +
STACK CFI INIT a2b3c 100 .cfa: sp 0 + .ra: lr
STACK CFI a2b3e .cfa: sp 20 + .ra: .cfa -4 + ^ r4: .cfa -20 + ^ r5: .cfa -16 + ^ r6: .cfa -12 + ^ r7: .cfa -8 + ^
STACK CFI a2b44 .cfa: sp 80 +
STACK CFI INIT a2c3c 168 .cfa: sp 0 + .ra: lr
STACK CFI a2c40 .cfa: sp 36 + .ra: .cfa -4 + ^ r10: .cfa -12 + ^ r11: .cfa -8 + ^ r4: .cfa -36 + ^ r5: .cfa -32 + ^ r6: .cfa -28 + ^ r7: .cfa -24 + ^ r8: .cfa -20 + ^ r9: .cfa -16 + ^
STACK CFI a2c42 .cfa: sp 72 +
STACK CFI INIT a2da4 1a4 .cfa: sp 0 + .ra: lr
STACK CFI a2da8 .cfa: sp 36 + .ra: .cfa -4 + ^ r10: .cfa -12 + ^ r11: .cfa -8 + ^ r4: .cfa -36 + ^ r5: .cfa -32 + ^ r6: .cfa -28 + ^ r7: .cfa -24 + ^ r8: .cfa -20 + ^ r9: .cfa -16 + ^
STACK CFI a2dae .cfa: sp 80 +
STACK CFI INIT a2f48 168 .cfa: sp 0 + .ra: lr
STACK CFI a2f4c .cfa: sp 36 + .ra: .cfa -4 + ^ r10: .cfa -12 + ^ r11: .cfa -8 + ^ r4: .cfa -36 + ^ r5: .cfa -32 + ^ r6: .cfa -28 + ^ r7: .cfa -24 + ^ r8: .cfa -20 + ^ r9: .cfa -16 + ^
STACK CFI a2f4e .cfa: sp 64 +
STACK CFI INIT a30b0 d8 .cfa: sp 0 + .ra: lr
STACK CFI a30b6 .cfa: sp 20 + .ra: .cfa -4 + ^ r4: .cfa -20 + ^ r5: .cfa -16 + ^ r6: .cfa -12 + ^ r7: .cfa -8 + ^
STACK CFI a30ba .cfa: sp 32 +
STACK CFI INIT a3188 d0 .cfa: sp 0 + .ra: lr
STACK CFI a318e .cfa: sp 16 + .ra: .cfa -4 + ^ r4: .cfa -16 + ^ r5: .cfa -12 + ^ r6: .cfa -8 + ^
STACK CFI a3192 .cfa: sp 32 +
STACK CFI INIT a3258 cc .cfa: sp 0 + .ra: lr
STACK CFI a325c .cfa: sp 16 + .ra: .cfa -4 + ^ r4: .cfa -16 + ^ r5: .cfa -12 + ^ r6: .cfa -8 + ^
STACK CFI a3260 .cfa: sp 24 +
STACK CFI INIT a3324 100 .cfa: sp 0 + .ra: lr
STACK CFI a3326 .cfa: sp 20 + .ra: .cfa -4 + ^ r4: .cfa -20 + ^ r5: .cfa -16 + ^ r6: .cfa -12 + ^ r7: .cfa -8 + ^
STACK CFI a332c .cfa: sp 80 +
STACK CFI INIT a3424 1a0 .cfa: sp 0 + .ra: lr
STACK CFI a3428 .cfa: sp 36 + .ra: .cfa -4 + ^ r10: .cfa -12 + ^ r11: .cfa -8 + ^ r4: .cfa -36 + ^ r5: .cfa -32 + ^ r6: .cfa -28 + ^ r7: .cfa -24 + ^ r8: .cfa -20 + ^ r9: .cfa -16 + ^
STACK CFI a342e .cfa: sp 72 +
STACK CFI INIT a35c4 140 .cfa: sp 0 + .ra: lr
STACK CFI a35cc .cfa: sp 36 + .ra: .cfa -4 + ^ r10: .cfa -12 + ^ r11: .cfa -8 + ^ r4: .cfa -36 + ^ r5: .cfa -32 + ^ r6: .cfa -28 + ^ r7: .cfa -24 + ^ r8: .cfa -20 + ^ r9: .cfa -16 + ^
STACK CFI a35d0 .cfa: sp 56 +
STACK CFI INIT a3704 128 .cfa: sp 0 + .ra: lr
STACK CFI a3708 .cfa: sp 36 + .ra: .cfa -4 + ^ r10: .cfa -12 + ^ r11: .cfa -8 + ^ r4: .cfa -36 + ^ r5: .cfa -32 + ^ r6: .cfa -28 + ^ r7: .cfa -24 + ^ r8: .cfa -20 + ^ r9: .cfa -16 + ^
STACK CFI a370e .cfa: sp 72 +
STACK CFI INIT a382c c8 .cfa: sp 0 + .ra: lr
STACK CFI a3832 .cfa: sp 20 + .ra: .cfa -4 + ^ r4: .cfa -20 + ^ r5: .cfa -16 + ^ r6: .cfa -12 + ^ r7: .cfa -8 + ^
STACK CFI a3836 .cfa: sp 32 +
STACK CFI INIT a38f4 cc .cfa: sp 0 + .ra: lr
STACK CFI a38fa .cfa: sp 20 + .ra: .cfa -4 + ^ r4: .cfa -20 + ^ r5: .cfa -16 + ^ r6: .cfa -12 + ^ r7: .cfa -8 + ^
STACK CFI a38fe .cfa: sp 40 +
STACK CFI INIT a39c0 c8 .cfa: sp 0 + .ra: lr
STACK CFI a39c4 .cfa: sp 20 + .ra: .cfa -4 + ^ r4: .cfa -20 + ^ r5: .cfa -16 + ^ r6: .cfa -12 + ^ r7: .cfa -8 + ^
STACK CFI a39c8 .cfa: sp 32 +
STACK CFI INIT a3a88 f8 .cfa: sp 0 + .ra: lr
STACK CFI a3a8c .cfa: sp 24 + .ra: .cfa -4 + ^ r4: .cfa -24 + ^ r5: .cfa -20 + ^ r6: .cfa -16 + ^ r7: .cfa -12 + ^ r8: .cfa -8 + ^
STACK CFI a3a92 .cfa: sp 80 +
STACK CFI INIT a3b80 140 .cfa: sp 0 + .ra: lr
STACK CFI a3b88 .cfa: sp 36 + .ra: .cfa -4 + ^ r10: .cfa -12 + ^ r11: .cfa -8 + ^ r4: .cfa -36 + ^ r5: .cfa -32 + ^ r6: .cfa -28 + ^ r7: .cfa -24 + ^ r8: .cfa -20 + ^ r9: .cfa -16 + ^
STACK CFI a3b8c .cfa: sp 56 +
STACK CFI INIT a3cc0 128 .cfa: sp 0 + .ra: lr
STACK CFI a3cc4 .cfa: sp 36 + .ra: .cfa -4 + ^ r10: .cfa -12 + ^ r11: .cfa -8 + ^ r4: .cfa -36 + ^ r5: .cfa -32 + ^ r6: .cfa -28 + ^ r7: .cfa -24 + ^ r8: .cfa -20 + ^ r9: .cfa -16 + ^
STACK CFI a3cca .cfa: sp 72 +
STACK CFI INIT a3de8 144 .cfa: sp 0 + .ra: lr
STACK CFI a3dee .cfa: sp 36 + .ra: .cfa -4 + ^ r10: .cfa -12 + ^ r11: .cfa -8 + ^ r4: .cfa -36 + ^ r5: .cfa -32 + ^ r6: .cfa -28 + ^ r7: .cfa -24 + ^ r8: .cfa -20 + ^ r9: .cfa -16 + ^
STACK CFI a3df4 .cfa: sp 64 +
STACK CFI INIT a3f2c 17c .cfa: sp 0 + .ra: lr
STACK CFI a3f30 .cfa: sp 36 + .ra: .cfa -4 + ^ r10: .cfa -12 + ^ r11: .cfa -8 + ^ r4: .cfa -36 + ^ r5: .cfa -32 + ^ r6: .cfa -28 + ^ r7: .cfa -24 + ^ r8: .cfa -20 + ^ r9: .cfa -16 + ^
STACK CFI a3f3a .cfa: sp 72 +
STACK CFI INIT a40a8 144 .cfa: sp 0 + .ra: lr
STACK CFI a40ae .cfa: sp 36 + .ra: .cfa -4 + ^ r10: .cfa -12 + ^ r11: .cfa -8 + ^ r4: .cfa -36 + ^ r5: .cfa -32 + ^ r6: .cfa -28 + ^ r7: .cfa -24 + ^ r8: .cfa -20 + ^ r9: .cfa -16 + ^
STACK CFI a40b4 .cfa: sp 64 +
STACK CFI INIT a41ec 17c .cfa: sp 0 + .ra: lr
STACK CFI a41f0 .cfa: sp 36 + .ra: .cfa -4 + ^ r10: .cfa -12 + ^ r11: .cfa -8 + ^ r4: .cfa -36 + ^ r5: .cfa -32 + ^ r6: .cfa -28 + ^ r7: .cfa -24 + ^ r8: .cfa -20 + ^ r9: .cfa -16 + ^
STACK CFI a41fa .cfa: sp 72 +
STACK CFI INIT a4368 c8 .cfa: sp 0 + .ra: lr
STACK CFI a436e .cfa: sp 20 + .ra: .cfa -4 + ^ r4: .cfa -20 + ^ r5: .cfa -16 + ^ r6: .cfa -12 + ^ r7: .cfa -8 + ^
STACK CFI a4372 .cfa: sp 32 +
STACK CFI INIT a4430 cc .cfa: sp 0 + .ra: lr
STACK CFI a4436 .cfa: sp 20 + .ra: .cfa -4 + ^ r4: .cfa -20 + ^ r5: .cfa -16 + ^ r6: .cfa -12 + ^ r7: .cfa -8 + ^
STACK CFI a443a .cfa: sp 40 +
STACK CFI INIT a44fc c8 .cfa: sp 0 + .ra: lr
STACK CFI a4500 .cfa: sp 20 + .ra: .cfa -4 + ^ r4: .cfa -20 + ^ r5: .cfa -16 + ^ r6: .cfa -12 + ^ r7: .cfa -8 + ^
STACK CFI a4504 .cfa: sp 32 +
STACK CFI INIT a45c4 f8 .cfa: sp 0 + .ra: lr
STACK CFI a45c8 .cfa: sp 24 + .ra: .cfa -4 + ^ r4: .cfa -24 + ^ r5: .cfa -20 + ^ r6: .cfa -16 + ^ r7: .cfa -12 + ^ r8: .cfa -8 + ^
STACK CFI a45ce .cfa: sp 80 +
STACK CFI INIT a46bc c8 .cfa: sp 0 + .ra: lr
STACK CFI a46c2 .cfa: sp 20 + .ra: .cfa -4 + ^ r4: .cfa -20 + ^ r5: .cfa -16 + ^ r6: .cfa -12 + ^ r7: .cfa -8 + ^
STACK CFI a46c6 .cfa: sp 32 +
STACK CFI INIT a4784 140 .cfa: sp 0 + .ra: lr
STACK CFI a478c .cfa: sp 36 + .ra: .cfa -4 + ^ r10: .cfa -12 + ^ r11: .cfa -8 + ^ r4: .cfa -36 + ^ r5: .cfa -32 + ^ r6: .cfa -28 + ^ r7: .cfa -24 + ^ r8: .cfa -20 + ^ r9: .cfa -16 + ^
STACK CFI a4790 .cfa: sp 56 +
STACK CFI INIT a48c4 140 .cfa: sp 0 + .ra: lr
STACK CFI a48cc .cfa: sp 36 + .ra: .cfa -4 + ^ r10: .cfa -12 + ^ r11: .cfa -8 + ^ r4: .cfa -36 + ^ r5: .cfa -32 + ^ r6: .cfa -28 + ^ r7: .cfa -24 + ^ r8: .cfa -20 + ^ r9: .cfa -16 + ^
STACK CFI a48d0 .cfa: sp 56 +
STACK CFI INIT a4a04 cc .cfa: sp 0 + .ra: lr
STACK CFI a4a0a .cfa: sp 20 + .ra: .cfa -4 + ^ r4: .cfa -20 + ^ r5: .cfa -16 + ^ r6: .cfa -12 + ^ r7: .cfa -8 + ^
STACK CFI a4a0e .cfa: sp 40 +
STACK CFI INIT a4ad0 c8 .cfa: sp 0 + .ra: lr
STACK CFI a4ad4 .cfa: sp 20 + .ra: .cfa -4 + ^ r4: .cfa -20 + ^ r5: .cfa -16 + ^ r6: .cfa -12 + ^ r7: .cfa -8 + ^
STACK CFI a4ad8 .cfa: sp 32 +
STACK CFI INIT a4b98 f8 .cfa: sp 0 + .ra: lr
STACK CFI a4b9c .cfa: sp 24 + .ra: .cfa -4 + ^ r4: .cfa -24 + ^ r5: .cfa -20 + ^ r6: .cfa -16 + ^ r7: .cfa -12 + ^ r8: .cfa -8 + ^
STACK CFI a4ba2 .cfa: sp 80 +
STACK CFI INIT a4c90 128 .cfa: sp 0 + .ra: lr
STACK CFI a4c94 .cfa: sp 36 + .ra: .cfa -4 + ^ r10: .cfa -12 + ^ r11: .cfa -8 + ^ r4: .cfa -36 + ^ r5: .cfa -32 + ^ r6: .cfa -28 + ^ r7: .cfa -24 + ^ r8: .cfa -20 + ^ r9: .cfa -16 + ^
STACK CFI a4c9a .cfa: sp 72 +
STACK CFI INIT a4db8 128 .cfa: sp 0 + .ra: lr
STACK CFI a4dbc .cfa: sp 36 + .ra: .cfa -4 + ^ r10: .cfa -12 + ^ r11: .cfa -8 + ^ r4: .cfa -36 + ^ r5: .cfa -32 + ^ r6: .cfa -28 + ^ r7: .cfa -24 + ^ r8: .cfa -20 + ^ r9: .cfa -16 + ^
STACK CFI a4dc2 .cfa: sp 72 +
STACK CFI INIT a4ee0 c .cfa: sp 0 + .ra: lr
STACK CFI INIT a4eec e0 .cfa: sp 0 + .ra: lr
STACK CFI a4ef0 .cfa: sp 28 + r10: .cfa -4 + ^ r4: .cfa -28 + ^ r5: .cfa -24 + ^ r6: .cfa -20 + ^ r7: .cfa -16 + ^ r8: .cfa -12 + ^ r9: .cfa -8 + ^
STACK CFI INIT a4fcc d4 .cfa: sp 0 + .ra: lr
STACK CFI a4fd0 .cfa: sp 36 + .ra: .cfa -4 + ^ r10: .cfa -12 + ^ r11: .cfa -8 + ^ r4: .cfa -36 + ^ r5: .cfa -32 + ^ r6: .cfa -28 + ^ r7: .cfa -24 + ^ r8: .cfa -20 + ^ r9: .cfa -16 + ^
STACK CFI a4fd4 .cfa: sp 1104 +
STACK CFI INIT a50a0 170 .cfa: sp 0 + .ra: lr
STACK CFI a50a4 .cfa: sp 32 + r10: .cfa -8 + ^ r11: .cfa -4 + ^ r4: .cfa -32 + ^ r5: .cfa -28 + ^ r6: .cfa -24 + ^ r7: .cfa -20 + ^ r8: .cfa -16 + ^ r9: .cfa -12 + ^
STACK CFI a50ac .cfa: sp 40 +
STACK CFI INIT a5210 c .cfa: sp 0 + .ra: lr
STACK CFI INIT a521c 34 .cfa: sp 0 + .ra: lr
STACK CFI a5222 .cfa: sp 20 + .ra: .cfa -4 + ^ r4: .cfa -20 + ^ r5: .cfa -16 + ^ r6: .cfa -12 + ^ r7: .cfa -8 + ^
STACK CFI a522a .cfa: sp 40 +
STACK CFI INIT a5250 c0 .cfa: sp 0 + .ra: lr
STACK CFI a5254 .cfa: sp 36 + .ra: .cfa -4 + ^ r10: .cfa -12 + ^ r11: .cfa -8 + ^ r4: .cfa -36 + ^ r5: .cfa -32 + ^ r6: .cfa -28 + ^ r7: .cfa -24 + ^ r8: .cfa -20 + ^ r9: .cfa -16 + ^
STACK CFI a5258 .cfa: sp 1104 +
STACK CFI INIT a5310 28 .cfa: sp 0 + .ra: lr
STACK CFI a5312 .cfa: sp 8 + .ra: .cfa -4 + ^ r4: .cfa -8 + ^
STACK CFI INIT a5338 60 .cfa: sp 0 + .ra: lr
STACK CFI a533a .cfa: sp 16 + .ra: .cfa -4 + ^ r4: .cfa -16 + ^ r5: .cfa -12 + ^ r6: .cfa -8 + ^
STACK CFI INIT a5398 10c .cfa: sp 0 + .ra: lr
STACK CFI a539c .cfa: sp 36 + .ra: .cfa -4 + ^ r10: .cfa -12 + ^ r11: .cfa -8 + ^ r4: .cfa -36 + ^ r5: .cfa -32 + ^ r6: .cfa -28 + ^ r7: .cfa -24 + ^ r8: .cfa -20 + ^ r9: .cfa -16 + ^
STACK CFI a539e .cfa: sp 64 +
STACK CFI INIT a54a4 44 .cfa: sp 0 + .ra: lr
STACK CFI a54a6 .cfa: sp 16 + .ra: .cfa -4 + ^ r3: .cfa -16 + ^ r4: .cfa -12 + ^ r5: .cfa -8 + ^
STACK CFI INIT a54e8 2e .cfa: sp 0 + .ra: lr
STACK CFI a54ea .cfa: sp 16 + .ra: .cfa -4 + ^ r3: .cfa -16 + ^ r4: .cfa -12 + ^ r5: .cfa -8 + ^
STACK CFI INIT a5518 2c .cfa: sp 0 + .ra: lr
STACK CFI a551a .cfa: sp 16 + .ra: .cfa -4 + ^ r3: .cfa -16 + ^ r4: .cfa -12 + ^ r5: .cfa -8 + ^
STACK CFI INIT a5544 f0 .cfa: sp 0 + .ra: lr
STACK CFI a554a .cfa: sp 16 + .ra: .cfa -4 + ^ r4: .cfa -16 + ^ r5: .cfa -12 + ^ r6: .cfa -8 + ^
STACK CFI INIT a5634 16 .cfa: sp 0 + .ra: lr
STACK CFI a5636 .cfa: sp 8 + .ra: .cfa -4 + ^ r4: .cfa -8 + ^
STACK CFI INIT a564c a4 .cfa: sp 0 + .ra: lr
STACK CFI a564e .cfa: sp 16 + .ra: .cfa -4 + ^ r3: .cfa -16 + ^ r4: .cfa -12 + ^ r5: .cfa -8 + ^
STACK CFI INIT a56f0 120 .cfa: sp 0 + .ra: lr
STACK CFI a56f4 .cfa: sp 36 + .ra: .cfa -4 + ^ r10: .cfa -12 + ^ r11: .cfa -8 + ^ r4: .cfa -36 + ^ r5: .cfa -32 + ^ r6: .cfa -28 + ^ r7: .cfa -24 + ^ r8: .cfa -20 + ^ r9: .cfa -16 + ^
STACK CFI a56f6 .cfa: sp 56 +
STACK CFI INIT a5810 c8 .cfa: sp 0 + .ra: lr
STACK CFI a5814 .cfa: sp 24 + .ra: .cfa -4 + ^ r4: .cfa -24 + ^ r5: .cfa -20 + ^ r6: .cfa -16 + ^ r7: .cfa -12 + ^ r8: .cfa -8 + ^
STACK CFI a5816 .cfa: sp 56 +
STACK CFI INIT a58d8 244 .cfa: sp 0 + .ra: lr
STACK CFI a58dc .cfa: sp 36 + .ra: .cfa -4 + ^ r10: .cfa -12 + ^ r11: .cfa -8 + ^ r4: .cfa -36 + ^ r5: .cfa -32 + ^ r6: .cfa -28 + ^ r7: .cfa -24 + ^ r8: .cfa -20 + ^ r9: .cfa -16 + ^
STACK CFI a58e0 .cfa: sp 1168 +
STACK CFI INIT a5b1c 18 .cfa: sp 0 + .ra: lr
STACK CFI a5b1e .cfa: sp 8 + .ra: .cfa -4 + ^ r3: .cfa -8 + ^
STACK CFI INIT a5b34 a0 .cfa: sp 0 + .ra: lr
STACK CFI a5b38 .cfa: sp 20 + .ra: .cfa -4 + ^ r4: .cfa -20 + ^ r5: .cfa -16 + ^ r6: .cfa -12 + ^ r7: .cfa -8 + ^
STACK CFI a5b3c .cfa: sp 32 +
STACK CFI INIT a5bd4 2b4 .cfa: sp 0 + .ra: lr
STACK CFI a5bda .cfa: sp 36 + .ra: .cfa -4 + ^ r10: .cfa -12 + ^ r11: .cfa -8 + ^ r4: .cfa -36 + ^ r5: .cfa -32 + ^ r6: .cfa -28 + ^ r7: .cfa -24 + ^ r8: .cfa -20 + ^ r9: .cfa -16 + ^
STACK CFI a5bdc .cfa: sp 88 +
STACK CFI a5be0 .cfa: r7 72 +
STACK CFI INIT a5e88 5cc .cfa: sp 0 + .ra: lr
STACK CFI a5e8c .cfa: sp 36 + .ra: .cfa -4 + ^ r10: .cfa -12 + ^ r11: .cfa -8 + ^ r4: .cfa -36 + ^ r5: .cfa -32 + ^ r6: .cfa -28 + ^ r7: .cfa -24 + ^ r8: .cfa -20 + ^ r9: .cfa -16 + ^
STACK CFI a5e8e .cfa: sp 528 +
STACK CFI a5e92 .cfa: r7 512 +
STACK CFI INIT a6454 70 .cfa: sp 0 + .ra: lr
STACK CFI a6456 .cfa: sp 12 + .ra: .cfa -4 + ^ r4: .cfa -12 + ^ r5: .cfa -8 + ^
STACK CFI a6458 .cfa: sp 48 +
STACK CFI INIT a64c4 2c .cfa: sp 0 + .ra: lr
STACK CFI a64c6 .cfa: sp 16 + .ra: .cfa -4 + ^ r3: .cfa -16 + ^ r4: .cfa -12 + ^ r5: .cfa -8 + ^
STACK CFI INIT a64f0 1bc .cfa: sp 0 + .ra: lr
STACK CFI a64f4 .cfa: sp 36 + .ra: .cfa -4 + ^ r10: .cfa -12 + ^ r11: .cfa -8 + ^ r4: .cfa -36 + ^ r5: .cfa -32 + ^ r6: .cfa -28 + ^ r7: .cfa -24 + ^ r8: .cfa -20 + ^ r9: .cfa -16 + ^
STACK CFI a64f6 .cfa: sp 64 +
STACK CFI INIT a66ac 68 .cfa: sp 0 + .ra: lr
STACK CFI a66ae .cfa: sp 20 + .ra: .cfa -4 + ^ r4: .cfa -20 + ^ r5: .cfa -16 + ^ r6: .cfa -12 + ^ r7: .cfa -8 + ^
STACK CFI a66b0 .cfa: sp 56 +
STACK CFI INIT a6714 5c .cfa: sp 0 + .ra: lr
STACK CFI a6718 .cfa: sp 12 + r4: .cfa -12 + ^ r5: .cfa -8 + ^ r6: .cfa -4 + ^
STACK CFI INIT a6770 34 .cfa: sp 0 + .ra: lr
STACK CFI a6774 .cfa: sp 16 + .ra: .cfa -4 + ^ r4: .cfa -16 + ^ r5: .cfa -12 + ^ r6: .cfa -8 + ^
STACK CFI INIT a67a4 22c .cfa: sp 0 + .ra: lr
STACK CFI a67a8 .cfa: sp 36 + .ra: .cfa -4 + ^ r10: .cfa -12 + ^ r11: .cfa -8 + ^ r4: .cfa -36 + ^ r5: .cfa -32 + ^ r6: .cfa -28 + ^ r7: .cfa -24 + ^ r8: .cfa -20 + ^ r9: .cfa -16 + ^
STACK CFI a67aa .cfa: sp 112 +
STACK CFI a67ac .cfa: r7 104 +
STACK CFI INIT a69d0 10 .cfa: sp 0 + .ra: lr
STACK CFI a69d2 .cfa: sp 4 + .ra: .cfa -4 + ^
STACK CFI INIT a69e0 64 .cfa: sp 0 + .ra: lr
STACK CFI a69e2 .cfa: sp 16 + .ra: .cfa -4 + ^ r4: .cfa -16 + ^ r5: .cfa -12 + ^ r6: .cfa -8 + ^
STACK CFI a69e8 .cfa: sp 32 +
STACK CFI INIT a6a44 784 .cfa: sp 0 + .ra: lr
STACK CFI a6a48 .cfa: sp 36 + .ra: .cfa -4 + ^ r10: .cfa -12 + ^ r11: .cfa -8 + ^ r4: .cfa -36 + ^ r5: .cfa -32 + ^ r6: .cfa -28 + ^ r7: .cfa -24 + ^ r8: .cfa -20 + ^ r9: .cfa -16 + ^
STACK CFI a6a4a .cfa: sp 128 +
STACK CFI a6a4c .cfa: r7 128 +
STACK CFI INIT a71c8 12 .cfa: sp 0 + .ra: lr
STACK CFI a71ca .cfa: sp 8 + .ra: .cfa -4 + ^ r4: .cfa -8 + ^
STACK CFI INIT a71dc 4 .cfa: sp 0 + .ra: lr
STACK CFI INIT a71e0 c0 .cfa: sp 0 + .ra: lr
STACK CFI a71e4 .cfa: sp 28 + .ra: .cfa -4 + ^ r4: .cfa -28 + ^ r5: .cfa -24 + ^ r6: .cfa -20 + ^ r7: .cfa -16 + ^ r8: .cfa -12 + ^ r9: .cfa -8 + ^
STACK CFI a71e6 .cfa: sp 56 +
STACK CFI a71e8 .cfa: r7 48 +
STACK CFI INIT a72a0 b8 .cfa: sp 0 + .ra: lr
STACK CFI a72a4 .cfa: sp 36 + .ra: .cfa -4 + ^ r10: .cfa -12 + ^ r11: .cfa -8 + ^ r4: .cfa -36 + ^ r5: .cfa -32 + ^ r6: .cfa -28 + ^ r7: .cfa -24 + ^ r8: .cfa -20 + ^ r9: .cfa -16 + ^
STACK CFI a72a6 .cfa: sp 56 +
STACK CFI a72a8 .cfa: r7 48 +
STACK CFI INIT a7358 68 .cfa: sp 0 + .ra: lr
STACK CFI a735a .cfa: sp 16 + .ra: .cfa -4 + ^ r4: .cfa -16 + ^ r5: .cfa -12 + ^ r6: .cfa -8 + ^
STACK CFI INIT a73c0 ec .cfa: sp 0 + .ra: lr
STACK CFI a73c4 .cfa: sp 36 + .ra: .cfa -4 + ^ r10: .cfa -12 + ^ r11: .cfa -8 + ^ r4: .cfa -36 + ^ r5: .cfa -32 + ^ r6: .cfa -28 + ^ r7: .cfa -24 + ^ r8: .cfa -20 + ^ r9: .cfa -16 + ^
STACK CFI a73c6 .cfa: sp 64 +
STACK CFI a73c8 .cfa: r7 56 +
STACK CFI INIT a74ac e0 .cfa: sp 0 + .ra: lr
STACK CFI a74b0 .cfa: sp 36 + .ra: .cfa -4 + ^ r10: .cfa -12 + ^ r11: .cfa -8 + ^ r4: .cfa -36 + ^ r5: .cfa -32 + ^ r6: .cfa -28 + ^ r7: .cfa -24 + ^ r8: .cfa -20 + ^ r9: .cfa -16 + ^
STACK CFI a74b2 .cfa: sp 56 +
STACK CFI a74b4 .cfa: r7 48 +
STACK CFI INIT a758c 13c .cfa: sp 0 + .ra: lr
STACK CFI a7590 .cfa: sp 24 + .ra: .cfa -4 + ^ r4: .cfa -24 + ^ r5: .cfa -20 + ^ r6: .cfa -16 + ^ r7: .cfa -12 + ^ r8: .cfa -8 + ^
STACK CFI a7592 .cfa: sp 128 +
STACK CFI INIT a76c8 332 .cfa: sp 0 + .ra: lr
STACK CFI a76cc .cfa: sp 36 + .ra: .cfa -4 + ^ r10: .cfa -12 + ^ r11: .cfa -8 + ^ r4: .cfa -36 + ^ r5: .cfa -32 + ^ r6: .cfa -28 + ^ r7: .cfa -24 + ^ r8: .cfa -20 + ^ r9: .cfa -16 + ^
STACK CFI a76ce .cfa: sp 192 +
STACK CFI INIT a79fc 118 .cfa: sp 0 + .ra: lr
STACK CFI a7a00 .cfa: sp 36 + .ra: .cfa -4 + ^ r10: .cfa -12 + ^ r11: .cfa -8 + ^ r4: .cfa -36 + ^ r5: .cfa -32 + ^ r6: .cfa -28 + ^ r7: .cfa -24 + ^ r8: .cfa -20 + ^ r9: .cfa -16 + ^
STACK CFI a7a02 .cfa: sp 80 +
STACK CFI a7a08 .cfa: r7 72 +
STACK CFI INIT a7b14 fc .cfa: sp 0 + .ra: lr
STACK CFI a7b1a .cfa: sp 32 + .ra: .cfa -4 + ^ r10: .cfa -8 + ^ r4: .cfa -32 + ^ r5: .cfa -28 + ^ r6: .cfa -24 + ^ r7: .cfa -20 + ^ r8: .cfa -16 + ^ r9: .cfa -12 + ^
STACK CFI a7b1e .cfa: sp 160 +
STACK CFI INIT a7c10 6dc .cfa: sp 0 + .ra: lr
STACK CFI a7c14 .cfa: sp 36 + .ra: .cfa -4 + ^ r10: .cfa -12 + ^ r11: .cfa -8 + ^ r4: .cfa -36 + ^ r5: .cfa -32 + ^ r6: .cfa -28 + ^ r7: .cfa -24 + ^ r8: .cfa -20 + ^ r9: .cfa -16 + ^
STACK CFI a7c16 .cfa: sp 456 +
STACK CFI INIT a82ec 18 .cfa: sp 0 + .ra: lr
STACK CFI a82ee .cfa: sp 16 + .ra: .cfa -4 + ^ r4: .cfa -16 + ^ r5: .cfa -12 + ^ r6: .cfa -8 + ^
STACK CFI a82f0 .cfa: sp 32 +
STACK CFI INIT a8304 4 .cfa: sp 0 + .ra: lr
STACK CFI INIT a8308 76 .cfa: sp 0 + .ra: lr
STACK CFI a830c .cfa: sp 24 + .ra: .cfa -4 + ^ r4: .cfa -24 + ^ r5: .cfa -20 + ^ r6: .cfa -16 + ^ r7: .cfa -12 + ^ r8: .cfa -8 + ^
STACK CFI a830e .cfa: sp 72 +
STACK CFI INIT a8380 10 .cfa: sp 0 + .ra: lr
STACK CFI a8382 .cfa: sp 8 + .ra: .cfa -4 + ^ r4: .cfa -8 + ^
STACK CFI a8384 .cfa: sp 16 +
STACK CFI INIT a8390 70 .cfa: sp 0 + .ra: lr
STACK CFI a8394 .cfa: sp 32 + .ra: .cfa -4 + ^ r10: .cfa -8 + ^ r4: .cfa -32 + ^ r5: .cfa -28 + ^ r6: .cfa -24 + ^ r7: .cfa -20 + ^ r8: .cfa -16 + ^ r9: .cfa -12 + ^
STACK CFI a8396 .cfa: sp 168 +
STACK CFI INIT a8400 18 .cfa: sp 0 + .ra: lr
STACK CFI a8402 .cfa: sp 12 + .ra: .cfa -4 + ^ r4: .cfa -12 + ^ r5: .cfa -8 + ^
STACK CFI a8404 .cfa: sp 32 +
STACK CFI INIT a8418 30 .cfa: sp 0 + .ra: lr
STACK CFI a841a .cfa: sp 12 + .ra: .cfa -4 + ^ r4: .cfa -12 + ^ r5: .cfa -8 + ^
STACK CFI a841c .cfa: sp 40 +
STACK CFI INIT a8448 380 .cfa: sp 0 + .ra: lr
STACK CFI a844c .cfa: sp 36 + .ra: .cfa -4 + ^ r10: .cfa -12 + ^ r11: .cfa -8 + ^ r4: .cfa -36 + ^ r5: .cfa -32 + ^ r6: .cfa -28 + ^ r7: .cfa -24 + ^ r8: .cfa -20 + ^ r9: .cfa -16 + ^
STACK CFI a844e .cfa: sp 456 +
STACK CFI INIT a87c8 18 .cfa: sp 0 + .ra: lr
STACK CFI a87ca .cfa: sp 16 + .ra: .cfa -4 + ^ r4: .cfa -16 + ^ r5: .cfa -12 + ^ r6: .cfa -8 + ^
STACK CFI a87cc .cfa: sp 32 +
STACK CFI INIT a87e0 160 .cfa: sp 0 + .ra: lr
STACK CFI a87e2 .cfa: sp 24 + .ra: .cfa -4 + ^ r3: .cfa -24 + ^ r4: .cfa -20 + ^ r5: .cfa -16 + ^ r6: .cfa -12 + ^ r7: .cfa -8 + ^
STACK CFI INIT a8940 2ec .cfa: sp 0 + .ra: lr
STACK CFI a8944 .cfa: sp 36 + .ra: .cfa -4 + ^ r10: .cfa -12 + ^ r11: .cfa -8 + ^ r4: .cfa -36 + ^ r5: .cfa -32 + ^ r6: .cfa -28 + ^ r7: .cfa -24 + ^ r8: .cfa -20 + ^ r9: .cfa -16 + ^
STACK CFI a8948 .cfa: sp 1200 +
STACK CFI a894a .cfa: r7 1200 +
STACK CFI INIT a8c2c c8 .cfa: sp 0 + .ra: lr
STACK CFI a8c32 .cfa: sp 20 + .ra: .cfa -4 + ^ r4: .cfa -20 + ^ r5: .cfa -16 + ^ r6: .cfa -12 + ^ r7: .cfa -8 + ^
STACK CFI a8c36 .cfa: sp 40 +
STACK CFI INIT a8cf4 c8 .cfa: sp 0 + .ra: lr
STACK CFI a8cf8 .cfa: sp 20 + .ra: .cfa -4 + ^ r4: .cfa -20 + ^ r5: .cfa -16 + ^ r6: .cfa -12 + ^ r7: .cfa -8 + ^
STACK CFI a8cfc .cfa: sp 32 +
STACK CFI INIT a8dbc f4 .cfa: sp 0 + .ra: lr
STACK CFI a8dc0 .cfa: sp 24 + .ra: .cfa -4 + ^ r4: .cfa -24 + ^ r5: .cfa -20 + ^ r6: .cfa -16 + ^ r7: .cfa -12 + ^ r8: .cfa -8 + ^
STACK CFI a8dc6 .cfa: sp 80 +
STACK CFI INIT a8eb0 c8 .cfa: sp 0 + .ra: lr
STACK CFI a8eb6 .cfa: sp 20 + .ra: .cfa -4 + ^ r4: .cfa -20 + ^ r5: .cfa -16 + ^ r6: .cfa -12 + ^ r7: .cfa -8 + ^
STACK CFI a8eba .cfa: sp 32 +
STACK CFI INIT a8f78 140 .cfa: sp 0 + .ra: lr
STACK CFI a8f80 .cfa: sp 36 + .ra: .cfa -4 + ^ r10: .cfa -12 + ^ r11: .cfa -8 + ^ r4: .cfa -36 + ^ r5: .cfa -32 + ^ r6: .cfa -28 + ^ r7: .cfa -24 + ^ r8: .cfa -20 + ^ r9: .cfa -16 + ^
STACK CFI a8f84 .cfa: sp 56 +
STACK CFI INIT a90b8 128 .cfa: sp 0 + .ra: lr
STACK CFI a90bc .cfa: sp 36 + .ra: .cfa -4 + ^ r10: .cfa -12 + ^ r11: .cfa -8 + ^ r4: .cfa -36 + ^ r5: .cfa -32 + ^ r6: .cfa -28 + ^ r7: .cfa -24 + ^ r8: .cfa -20 + ^ r9: .cfa -16 + ^
STACK CFI a90c2 .cfa: sp 72 +
STACK CFI INIT a91e0 42 .cfa: sp 0 + .ra: lr
STACK CFI a91e6 .cfa: sp 16 + .ra: .cfa -4 + ^ r4: .cfa -16 + ^ r5: .cfa -12 + ^ r6: .cfa -8 + ^
STACK CFI INIT a9224 88 .cfa: sp 0 + .ra: lr
STACK CFI a9226 .cfa: sp 16 + .ra: .cfa -4 + ^ r4: .cfa -16 + ^ r5: .cfa -12 + ^ r6: .cfa -8 + ^
STACK CFI INIT a92ac 2e .cfa: sp 0 + .ra: lr
STACK CFI INIT a92dc a .cfa: sp 0 + .ra: lr
STACK CFI INIT a92e8 2a .cfa: sp 0 + .ra: lr
STACK CFI a92f2 .cfa: sp 4 + r4: .cfa -4 + ^
STACK CFI INIT a9314 28 .cfa: sp 0 + .ra: lr
STACK CFI a9316 .cfa: sp 16 + .ra: .cfa -4 + ^ r3: .cfa -16 + ^ r4: .cfa -12 + ^ r5: .cfa -8 + ^
STACK CFI INIT a933c 2 .cfa: sp 0 + .ra: lr
STACK CFI INIT a9340 6c .cfa: sp 0 + .ra: lr
STACK CFI a9346 .cfa: sp 16 + .ra: .cfa -4 + ^ r5: .cfa -16 + ^ r6: .cfa -12 + ^ r7: .cfa -8 + ^
STACK CFI a934a .cfa: sp 24 +
STACK CFI INIT a93ac 80 .cfa: sp 0 + .ra: lr
STACK CFI a93b2 .cfa: sp 24 + .ra: .cfa -4 + ^ r4: .cfa -24 + ^ r5: .cfa -20 + ^ r6: .cfa -16 + ^ r7: .cfa -12 + ^ r8: .cfa -8 + ^
STACK CFI a93b6 .cfa: sp 32 +
STACK CFI INIT a942c 2e .cfa: sp 0 + .ra: lr
STACK CFI a9432 .cfa: sp 12 + r4: .cfa -12 + ^ r5: .cfa -8 + ^ r6: .cfa -4 + ^
STACK CFI INIT a945c 24 .cfa: sp 0 + .ra: lr
STACK CFI INIT a9480 88 .cfa: sp 0 + .ra: lr
STACK CFI a9486 .cfa: sp 40 + .ra: .cfa -4 + ^ r10: .cfa -12 + ^ r11: .cfa -8 + ^ r3: .cfa -40 + ^ r4: .cfa -36 + ^ r5: .cfa -32 + ^ r6: .cfa -28 + ^ r7: .cfa -24 + ^ r8: .cfa -20 + ^ r9: .cfa -16 + ^
STACK CFI INIT a9508 2c .cfa: sp 0 + .ra: lr
STACK CFI a950c .cfa: sp 8 + .ra: .cfa -4 + ^ r4: .cfa -8 + ^
STACK CFI INIT a9534 14 .cfa: sp 0 + .ra: lr
STACK CFI a9536 .cfa: sp 16 + .ra: .cfa -4 + ^ r3: .cfa -16 + ^ r4: .cfa -12 + ^ r5: .cfa -8 + ^
STACK CFI INIT a9548 54 .cfa: sp 0 + .ra: lr
STACK CFI a954a .cfa: sp 8 + r4: .cfa -8 + ^ r5: .cfa -4 + ^
STACK CFI INIT a959c 60 .cfa: sp 0 + .ra: lr
STACK CFI a959e .cfa: sp 8 + r4: .cfa -8 + ^ r5: .cfa -4 + ^
STACK CFI INIT a95fc 14 .cfa: sp 0 + .ra: lr
STACK CFI a95fe .cfa: sp 16 + .ra: .cfa -4 + ^ r3: .cfa -16 + ^ r4: .cfa -12 + ^ r5: .cfa -8 + ^
STACK CFI INIT a9610 10 .cfa: sp 0 + .ra: lr
STACK CFI INIT a9620 2e .cfa: sp 0 + .ra: lr
STACK CFI a9622 .cfa: sp 16 + .ra: .cfa -4 + ^ r4: .cfa -16 + ^ r5: .cfa -12 + ^ r6: .cfa -8 + ^
STACK CFI INIT a9650 36 .cfa: sp 0 + .ra: lr
STACK CFI a9652 .cfa: sp 16 + r4: .cfa -16 + ^ r5: .cfa -12 + ^ r6: .cfa -8 + ^ r7: .cfa -4 + ^
STACK CFI INIT a9688 b6 .cfa: sp 0 + .ra: lr
STACK CFI a968c .cfa: sp 36 + .ra: .cfa -4 + ^ r10: .cfa -12 + ^ r11: .cfa -8 + ^ r4: .cfa -36 + ^ r5: .cfa -32 + ^ r6: .cfa -28 + ^ r7: .cfa -24 + ^ r8: .cfa -20 + ^ r9: .cfa -16 + ^
STACK CFI a968e .cfa: sp 72 +
STACK CFI INIT a9740 10 .cfa: sp 0 + .ra: lr
STACK CFI INIT a9750 1c .cfa: sp 0 + .ra: lr
STACK CFI INIT a976c 3a6 .cfa: sp 0 + .ra: lr
STACK CFI a9770 .cfa: sp 36 + .ra: .cfa -4 + ^ r10: .cfa -12 + ^ r11: .cfa -8 + ^ r4: .cfa -36 + ^ r5: .cfa -32 + ^ r6: .cfa -28 + ^ r7: .cfa -24 + ^ r8: .cfa -20 + ^ r9: .cfa -16 + ^
STACK CFI a9772 .cfa: sp 176 +
STACK CFI a9776 .cfa: r7 168 +
STACK CFI INIT a9b14 1b4 .cfa: sp 0 + .ra: lr
STACK CFI a9b18 .cfa: sp 36 + .ra: .cfa -4 + ^ r10: .cfa -12 + ^ r11: .cfa -8 + ^ r4: .cfa -36 + ^ r5: .cfa -32 + ^ r6: .cfa -28 + ^ r7: .cfa -24 + ^ r8: .cfa -20 + ^ r9: .cfa -16 + ^
STACK CFI a9b28 .cfa: sp 56 +
STACK CFI INIT a9cc8 c0 .cfa: sp 0 + .ra: lr
STACK CFI a9cca .cfa: sp 16 + .ra: .cfa -4 + ^ r3: .cfa -16 + ^ r4: .cfa -12 + ^ r5: .cfa -8 + ^
STACK CFI INIT a9d88 260 .cfa: sp 0 + .ra: lr
STACK CFI a9d8c .cfa: sp 36 + .ra: .cfa -4 + ^ r10: .cfa -12 + ^ r11: .cfa -8 + ^ r4: .cfa -36 + ^ r5: .cfa -32 + ^ r6: .cfa -28 + ^ r7: .cfa -24 + ^ r8: .cfa -20 + ^ r9: .cfa -16 + ^
STACK CFI a9d8e .cfa: sp 168 +
STACK CFI a9d90 .cfa: r7 160 +
STACK CFI INIT a9fe8 a2 .cfa: sp 0 + .ra: lr
STACK CFI a9fec .cfa: sp 24 + .ra: .cfa -4 + ^ r4: .cfa -24 + ^ r5: .cfa -20 + ^ r6: .cfa -16 + ^ r7: .cfa -12 + ^ r8: .cfa -8 + ^
STACK CFI a9ff0 .cfa: sp 32 +
STACK CFI INIT aa08c 64 .cfa: sp 0 + .ra: lr
STACK CFI aa092 .cfa: sp 4 + r4: .cfa -4 + ^
STACK CFI INIT aa0f0 6c .cfa: sp 0 + .ra: lr
STACK CFI aa0f2 .cfa: sp 12 + .ra: .cfa -4 + ^ r4: .cfa -12 + ^ r5: .cfa -8 + ^
STACK CFI aa0f4 .cfa: sp 48 +
STACK CFI INIT aa15c ec .cfa: sp 0 + .ra: lr
STACK CFI aa164 .cfa: sp 36 + .ra: .cfa -4 + ^ r10: .cfa -12 + ^ r11: .cfa -8 + ^ r4: .cfa -36 + ^ r5: .cfa -32 + ^ r6: .cfa -28 + ^ r7: .cfa -24 + ^ r8: .cfa -20 + ^ r9: .cfa -16 + ^
STACK CFI aa176 .cfa: sp 56 +
STACK CFI INIT aa248 1e .cfa: sp 0 + .ra: lr
STACK CFI aa24a .cfa: sp 4 + .ra: .cfa -4 + ^
STACK CFI aa24c .cfa: sp 16 +
STACK CFI INIT aa268 54 .cfa: sp 0 + .ra: lr
STACK CFI aa26e .cfa: sp 24 + .ra: .cfa -4 + ^ r4: .cfa -24 + ^ r5: .cfa -20 + ^ r6: .cfa -16 + ^ r7: .cfa -12 + ^ r8: .cfa -8 + ^
STACK CFI aa274 .cfa: sp 48 +
STACK CFI INIT aa2bc 1cc .cfa: sp 0 + .ra: lr
STACK CFI aa2c0 .cfa: sp 36 + .ra: .cfa -4 + ^ r10: .cfa -12 + ^ r11: .cfa -8 + ^ r4: .cfa -36 + ^ r5: .cfa -32 + ^ r6: .cfa -28 + ^ r7: .cfa -24 + ^ r8: .cfa -20 + ^ r9: .cfa -16 + ^
STACK CFI aa2c4 .cfa: sp 136 +
STACK CFI INIT aa488 86 .cfa: sp 0 + .ra: lr
STACK CFI aa48c .cfa: sp 20 + r4: .cfa -20 + ^ r5: .cfa -16 + ^ r6: .cfa -12 + ^ r7: .cfa -8 + ^ r8: .cfa -4 + ^
STACK CFI aa48e .cfa: sp 32 +
STACK CFI INIT aa510 19c .cfa: sp 0 + .ra: lr
STACK CFI aa516 .cfa: sp 36 + .ra: .cfa -4 + ^ r10: .cfa -12 + ^ r11: .cfa -8 + ^ r4: .cfa -36 + ^ r5: .cfa -32 + ^ r6: .cfa -28 + ^ r7: .cfa -24 + ^ r8: .cfa -20 + ^ r9: .cfa -16 + ^
STACK CFI aa51a .cfa: sp 72 +
STACK CFI INIT aa6ac cc .cfa: sp 0 + .ra: lr
STACK CFI aa6b0 .cfa: sp 28 + r10: .cfa -4 + ^ r4: .cfa -28 + ^ r5: .cfa -24 + ^ r6: .cfa -20 + ^ r7: .cfa -16 + ^ r8: .cfa -12 + ^ r9: .cfa -8 + ^
STACK CFI INIT aa778 7c .cfa: sp 0 + .ra: lr
STACK CFI aa77c .cfa: sp 20 + r4: .cfa -20 + ^ r5: .cfa -16 + ^ r6: .cfa -12 + ^ r7: .cfa -8 + ^ r8: .cfa -4 + ^
STACK CFI INIT aa7f4 15c .cfa: sp 0 + .ra: lr
STACK CFI aa7f8 .cfa: sp 36 + .ra: .cfa -4 + ^ r10: .cfa -12 + ^ r11: .cfa -8 + ^ r4: .cfa -36 + ^ r5: .cfa -32 + ^ r6: .cfa -28 + ^ r7: .cfa -24 + ^ r8: .cfa -20 + ^ r9: .cfa -16 + ^
STACK CFI aa7fa .cfa: sp 48 +
STACK CFI INIT aa950 7d0 .cfa: sp 0 + .ra: lr
STACK CFI aa958 .cfa: sp 36 + .ra: .cfa -4 + ^ r10: .cfa -12 + ^ r11: .cfa -8 + ^ r4: .cfa -36 + ^ r5: .cfa -32 + ^ r6: .cfa -28 + ^ r7: .cfa -24 + ^ r8: .cfa -20 + ^ r9: .cfa -16 + ^
STACK CFI aa95e .cfa: sp 8292 +
STACK CFI aa964 .cfa: sp 8304 +
STACK CFI INIT ab120 6 .cfa: sp 0 + .ra: lr
STACK CFI INIT ab128 a .cfa: sp 0 + .ra: lr
STACK CFI ab12a .cfa: sp 8 + .ra: .cfa -4 + ^ r3: .cfa -8 + ^
STACK CFI INIT ab134 72 .cfa: sp 0 + .ra: lr
STACK CFI ab138 .cfa: sp 32 + .ra: .cfa -4 + ^ r3: .cfa -32 + ^ r4: .cfa -28 + ^ r5: .cfa -24 + ^ r6: .cfa -20 + ^ r7: .cfa -16 + ^ r8: .cfa -12 + ^ r9: .cfa -8 + ^
STACK CFI INIT bd96c 30 .cfa: sp 0 + .ra: lr
STACK CFI bd970 .cfa: sp 8 + .ra: .cfa -4 + ^ r4: .cfa -8 + ^
STACK CFI INIT ab1a8 4 .cfa: sp 0 + .ra: lr
STACK CFI INIT ab1ac 4c .cfa: sp 0 + .ra: lr
STACK CFI ab1ae .cfa: sp 4 + r4: .cfa -4 + ^
STACK CFI INIT ab1f8 158 .cfa: sp 0 + .ra: lr
STACK CFI ab1fe .cfa: sp 36 + .ra: .cfa -4 + ^ r10: .cfa -12 + ^ r11: .cfa -8 + ^ r4: .cfa -36 + ^ r5: .cfa -32 + ^ r6: .cfa -28 + ^ r7: .cfa -24 + ^ r8: .cfa -20 + ^ r9: .cfa -16 + ^
STACK CFI ab206 .cfa: sp 64 +
STACK CFI INIT ab350 74 .cfa: sp 0 + .ra: lr
STACK CFI ab352 .cfa: sp 24 + .ra: .cfa -4 + ^ r3: .cfa -24 + ^ r4: .cfa -20 + ^ r5: .cfa -16 + ^ r6: .cfa -12 + ^ r7: .cfa -8 + ^
STACK CFI INIT ab3c4 a8 .cfa: sp 0 + .ra: lr
STACK CFI ab3c8 .cfa: sp 24 + .ra: .cfa -4 + ^ r4: .cfa -24 + ^ r5: .cfa -20 + ^ r6: .cfa -16 + ^ r7: .cfa -12 + ^ r8: .cfa -8 + ^
STACK CFI ab3ce .cfa: sp 40 +
STACK CFI INIT ab46c 2f0 .cfa: sp 0 + .ra: lr
STACK CFI ab47a .cfa: sp 36 + .ra: .cfa -4 + ^ r10: .cfa -12 + ^ r11: .cfa -8 + ^ r4: .cfa -36 + ^ r5: .cfa -32 + ^ r6: .cfa -28 + ^ r7: .cfa -24 + ^ r8: .cfa -20 + ^ r9: .cfa -16 + ^
STACK CFI ab47c .cfa: sp 344 +
STACK CFI INIT ab75c 4c .cfa: sp 0 + .ra: lr
STACK CFI ab760 .cfa: sp 8 + .ra: .cfa -4 + ^ r4: .cfa -8 + ^
STACK CFI INIT ab7a8 2b4 .cfa: sp 0 + .ra: lr
STACK CFI ab7b2 .cfa: sp 36 + .ra: .cfa -4 + ^ r10: .cfa -12 + ^ r11: .cfa -8 + ^ r4: .cfa -36 + ^ r5: .cfa -32 + ^ r6: .cfa -28 + ^ r7: .cfa -24 + ^ r8: .cfa -20 + ^ r9: .cfa -16 + ^
STACK CFI ab7b8 .cfa: sp 72 +
STACK CFI INIT aba5c 5c .cfa: sp 0 + .ra: lr
STACK CFI aba60 .cfa: sp 32 + .ra: .cfa -4 + ^ r3: .cfa -32 + ^ r4: .cfa -28 + ^ r5: .cfa -24 + ^ r6: .cfa -20 + ^ r7: .cfa -16 + ^ r8: .cfa -12 + ^ r9: .cfa -8 + ^
STACK CFI INIT abab8 3c .cfa: sp 0 + .ra: lr
STACK CFI ababa .cfa: sp 16 + .ra: .cfa -4 + ^ r3: .cfa -16 + ^ r4: .cfa -12 + ^ r5: .cfa -8 + ^
STACK CFI INIT abaf4 11c .cfa: sp 0 + .ra: lr
STACK CFI abaf8 .cfa: sp 8 + .ra: .cfa -4 + ^ r4: .cfa -8 + ^
STACK CFI INIT abc10 144 .cfa: sp 0 + .ra: lr
STACK CFI abc14 .cfa: sp 16 + .ra: .cfa -4 + ^ r4: .cfa -16 + ^ r5: .cfa -12 + ^ r6: .cfa -8 + ^
STACK CFI abc18 .cfa: sp 104 +
STACK CFI INIT abd54 14 .cfa: sp 0 + .ra: lr
STACK CFI INIT abd68 58 .cfa: sp 0 + .ra: lr
STACK CFI abd6a .cfa: sp 20 + .ra: .cfa -4 + ^ r4: .cfa -20 + ^ r5: .cfa -16 + ^ r6: .cfa -12 + ^ r7: .cfa -8 + ^
STACK CFI abd6c .cfa: sp 152 +
STACK CFI INIT abdc0 10 .cfa: sp 0 + .ra: lr
STACK CFI INIT abdd0 2bc .cfa: sp 0 + .ra: lr
STACK CFI abdd4 .cfa: sp 36 + .ra: .cfa -4 + ^ r10: .cfa -12 + ^ r11: .cfa -8 + ^ r4: .cfa -36 + ^ r5: .cfa -32 + ^ r6: .cfa -28 + ^ r7: .cfa -24 + ^ r8: .cfa -20 + ^ r9: .cfa -16 + ^
STACK CFI abdd6 .cfa: sp 72 +
STACK CFI INIT ac08c 48 .cfa: sp 0 + .ra: lr
STACK CFI ac08e .cfa: sp 24 + .ra: .cfa -4 + ^ r3: .cfa -24 + ^ r4: .cfa -20 + ^ r5: .cfa -16 + ^ r6: .cfa -12 + ^ r7: .cfa -8 + ^
STACK CFI INIT bd648 18 .cfa: sp 0 + .ra: lr
STACK CFI INIT bd660 50 .cfa: sp 0 + .ra: lr
STACK CFI bd664 .cfa: sp 16 + .ra: .cfa -4 + ^ r4: .cfa -16 + ^ r5: .cfa -12 + ^ r6: .cfa -8 + ^
STACK CFI INIT ac0d4 194 .cfa: sp 0 + .ra: lr
STACK CFI ac0d8 .cfa: sp 32 + .ra: .cfa -4 + ^ r10: .cfa -8 + ^ r4: .cfa -32 + ^ r5: .cfa -28 + ^ r6: .cfa -24 + ^ r7: .cfa -20 + ^ r8: .cfa -16 + ^ r9: .cfa -12 + ^
STACK CFI ac0de .cfa: r7 32 +
STACK CFI INIT ac268 318 .cfa: sp 0 + .ra: lr
STACK CFI ac270 .cfa: sp 36 + .ra: .cfa -4 + ^ r10: .cfa -12 + ^ r11: .cfa -8 + ^ r4: .cfa -36 + ^ r5: .cfa -32 + ^ r6: .cfa -28 + ^ r7: .cfa -24 + ^ r8: .cfa -20 + ^ r9: .cfa -16 + ^
STACK CFI ac278 .cfa: sp 72 +
STACK CFI INIT ac580 34 .cfa: sp 0 + .ra: lr
STACK CFI ac582 .cfa: sp 4 + .ra: .cfa -4 + ^
STACK CFI ac584 .cfa: sp 16 +
STACK CFI INIT ac5b4 120 .cfa: sp 0 + .ra: lr
STACK CFI ac5b8 .cfa: sp 24 + .ra: .cfa -4 + ^ r4: .cfa -24 + ^ r5: .cfa -20 + ^ r6: .cfa -16 + ^ r7: .cfa -12 + ^ r8: .cfa -8 + ^
STACK CFI INIT ac6d4 170 .cfa: sp 0 + .ra: lr
STACK CFI ac6d8 .cfa: sp 28 + .ra: .cfa -4 + ^ r4: .cfa -28 + ^ r5: .cfa -24 + ^ r6: .cfa -20 + ^ r7: .cfa -16 + ^ r8: .cfa -12 + ^ r9: .cfa -8 + ^
STACK CFI ac6da .cfa: sp 40 +
STACK CFI ac6de .cfa: r7 40 +
STACK CFI INIT ac844 6a .cfa: sp 0 + .ra: lr
STACK CFI ac848 .cfa: sp 24 + .ra: .cfa -4 + ^ r4: .cfa -24 + ^ r5: .cfa -20 + ^ r6: .cfa -16 + ^ r7: .cfa -12 + ^ r8: .cfa -8 + ^
STACK CFI INIT ac8b0 84 .cfa: sp 0 + .ra: lr
STACK CFI ac8b2 .cfa: sp 24 + .ra: .cfa -4 + ^ r3: .cfa -24 + ^ r4: .cfa -20 + ^ r5: .cfa -16 + ^ r6: .cfa -12 + ^ r7: .cfa -8 + ^
STACK CFI INIT bb2ec 18 .cfa: sp 0 + .ra: lr
STACK CFI bb2ee .cfa: sp 12 + .ra: .cfa -4 + ^ r4: .cfa -12 + ^ r5: .cfa -8 + ^
STACK CFI bb2f0 .cfa: sp 24 +
STACK CFI INIT ac934 90 .cfa: sp 0 + .ra: lr
STACK CFI ac936 .cfa: sp 16 + .ra: .cfa -4 + ^ r3: .cfa -16 + ^ r4: .cfa -12 + ^ r5: .cfa -8 + ^
STACK CFI INIT ac9c4 9c .cfa: sp 0 + .ra: lr
STACK CFI ac9c8 .cfa: sp 32 + .ra: .cfa -4 + ^ r10: .cfa -8 + ^ r4: .cfa -32 + ^ r5: .cfa -28 + ^ r6: .cfa -24 + ^ r7: .cfa -20 + ^ r8: .cfa -16 + ^ r9: .cfa -12 + ^
STACK CFI ac9cc .cfa: sp 56 +
STACK CFI INIT aca60 50 .cfa: sp 0 + .ra: lr
STACK CFI aca64 .cfa: sp 24 + .ra: .cfa -4 + ^ r4: .cfa -24 + ^ r5: .cfa -20 + ^ r6: .cfa -16 + ^ r7: .cfa -12 + ^ r8: .cfa -8 + ^
STACK CFI INIT acab0 b0 .cfa: sp 0 + .ra: lr
STACK CFI acab4 .cfa: sp 36 + .ra: .cfa -4 + ^ r10: .cfa -12 + ^ r11: .cfa -8 + ^ r4: .cfa -36 + ^ r5: .cfa -32 + ^ r6: .cfa -28 + ^ r7: .cfa -24 + ^ r8: .cfa -20 + ^ r9: .cfa -16 + ^
STACK CFI acab6 .cfa: sp 56 +
STACK CFI INIT acb60 90 .cfa: sp 0 + .ra: lr
STACK CFI acb64 .cfa: sp 36 + .ra: .cfa -4 + ^ r10: .cfa -12 + ^ r11: .cfa -8 + ^ r4: .cfa -36 + ^ r5: .cfa -32 + ^ r6: .cfa -28 + ^ r7: .cfa -24 + ^ r8: .cfa -20 + ^ r9: .cfa -16 + ^
STACK CFI acb66 .cfa: sp 56 +
STACK CFI INIT acbf0 184 .cfa: sp 0 + .ra: lr
STACK CFI acbf4 .cfa: sp 36 + .ra: .cfa -4 + ^ r10: .cfa -12 + ^ r11: .cfa -8 + ^ r4: .cfa -36 + ^ r5: .cfa -32 + ^ r6: .cfa -28 + ^ r7: .cfa -24 + ^ r8: .cfa -20 + ^ r9: .cfa -16 + ^
STACK CFI acbf6 .cfa: sp 72 +
STACK CFI INIT acd74 54 .cfa: sp 0 + .ra: lr
STACK CFI acd78 .cfa: sp 32 + .ra: .cfa -4 + ^ r10: .cfa -8 + ^ r4: .cfa -32 + ^ r5: .cfa -28 + ^ r6: .cfa -24 + ^ r7: .cfa -20 + ^ r8: .cfa -16 + ^ r9: .cfa -12 + ^
STACK CFI INIT bb304 8 .cfa: sp 0 + .ra: lr
STACK CFI INIT acdc8 54 .cfa: sp 0 + .ra: lr
STACK CFI acdcc .cfa: sp 32 + .ra: .cfa -4 + ^ r10: .cfa -8 + ^ r4: .cfa -32 + ^ r5: .cfa -28 + ^ r6: .cfa -24 + ^ r7: .cfa -20 + ^ r8: .cfa -16 + ^ r9: .cfa -12 + ^
STACK CFI INIT bb30c 8 .cfa: sp 0 + .ra: lr
STACK CFI INIT ace1c 58 .cfa: sp 0 + .ra: lr
STACK CFI ace20 .cfa: sp 24 + .ra: .cfa -4 + ^ r4: .cfa -24 + ^ r5: .cfa -20 + ^ r6: .cfa -16 + ^ r7: .cfa -12 + ^ r8: .cfa -8 + ^
STACK CFI INIT bb314 8 .cfa: sp 0 + .ra: lr
STACK CFI INIT ace74 58 .cfa: sp 0 + .ra: lr
STACK CFI ace78 .cfa: sp 24 + .ra: .cfa -4 + ^ r4: .cfa -24 + ^ r5: .cfa -20 + ^ r6: .cfa -16 + ^ r7: .cfa -12 + ^ r8: .cfa -8 + ^
STACK CFI INIT bb31c 8 .cfa: sp 0 + .ra: lr
STACK CFI INIT acecc 4c .cfa: sp 0 + .ra: lr
STACK CFI aced0 .cfa: sp 32 + .ra: .cfa -4 + ^ r10: .cfa -8 + ^ r4: .cfa -32 + ^ r5: .cfa -28 + ^ r6: .cfa -24 + ^ r7: .cfa -20 + ^ r8: .cfa -16 + ^ r9: .cfa -12 + ^
STACK CFI INIT bb324 8 .cfa: sp 0 + .ra: lr
STACK CFI INIT acf18 4c .cfa: sp 0 + .ra: lr
STACK CFI acf1c .cfa: sp 32 + .ra: .cfa -4 + ^ r10: .cfa -8 + ^ r4: .cfa -32 + ^ r5: .cfa -28 + ^ r6: .cfa -24 + ^ r7: .cfa -20 + ^ r8: .cfa -16 + ^ r9: .cfa -12 + ^
STACK CFI INIT acf64 54 .cfa: sp 0 + .ra: lr
STACK CFI acf68 .cfa: sp 32 + .ra: .cfa -4 + ^ r10: .cfa -8 + ^ r4: .cfa -32 + ^ r5: .cfa -28 + ^ r6: .cfa -24 + ^ r7: .cfa -20 + ^ r8: .cfa -16 + ^ r9: .cfa -12 + ^
STACK CFI INIT bb32c 8 .cfa: sp 0 + .ra: lr
STACK CFI INIT acfb8 54 .cfa: sp 0 + .ra: lr
STACK CFI acfbc .cfa: sp 32 + .ra: .cfa -4 + ^ r10: .cfa -8 + ^ r4: .cfa -32 + ^ r5: .cfa -28 + ^ r6: .cfa -24 + ^ r7: .cfa -20 + ^ r8: .cfa -16 + ^ r9: .cfa -12 + ^
STACK CFI INIT bb334 8 .cfa: sp 0 + .ra: lr
STACK CFI INIT ad00c 4c .cfa: sp 0 + .ra: lr
STACK CFI ad010 .cfa: sp 32 + .ra: .cfa -4 + ^ r10: .cfa -8 + ^ r4: .cfa -32 + ^ r5: .cfa -28 + ^ r6: .cfa -24 + ^ r7: .cfa -20 + ^ r8: .cfa -16 + ^ r9: .cfa -12 + ^
STACK CFI INIT bb33c 8 .cfa: sp 0 + .ra: lr
STACK CFI INIT ad058 4c .cfa: sp 0 + .ra: lr
STACK CFI ad05c .cfa: sp 32 + .ra: .cfa -4 + ^ r10: .cfa -8 + ^ r4: .cfa -32 + ^ r5: .cfa -28 + ^ r6: .cfa -24 + ^ r7: .cfa -20 + ^ r8: .cfa -16 + ^ r9: .cfa -12 + ^
STACK CFI INIT bb344 8 .cfa: sp 0 + .ra: lr
STACK CFI INIT ad0a4 4c .cfa: sp 0 + .ra: lr
STACK CFI ad0a8 .cfa: sp 32 + .ra: .cfa -4 + ^ r10: .cfa -8 + ^ r4: .cfa -32 + ^ r5: .cfa -28 + ^ r6: .cfa -24 + ^ r7: .cfa -20 + ^ r8: .cfa -16 + ^ r9: .cfa -12 + ^
STACK CFI INIT bb34c 8 .cfa: sp 0 + .ra: lr
STACK CFI INIT ad0f0 54 .cfa: sp 0 + .ra: lr
STACK CFI ad0f4 .cfa: sp 32 + .ra: .cfa -4 + ^ r10: .cfa -8 + ^ r4: .cfa -32 + ^ r5: .cfa -28 + ^ r6: .cfa -24 + ^ r7: .cfa -20 + ^ r8: .cfa -16 + ^ r9: .cfa -12 + ^
STACK CFI INIT bb354 8 .cfa: sp 0 + .ra: lr
STACK CFI INIT ad144 4c .cfa: sp 0 + .ra: lr
STACK CFI ad148 .cfa: sp 32 + .ra: .cfa -4 + ^ r10: .cfa -8 + ^ r4: .cfa -32 + ^ r5: .cfa -28 + ^ r6: .cfa -24 + ^ r7: .cfa -20 + ^ r8: .cfa -16 + ^ r9: .cfa -12 + ^
STACK CFI INIT bb35c 8 .cfa: sp 0 + .ra: lr
STACK CFI INIT ad190 378 .cfa: sp 0 + .ra: lr
STACK CFI ad194 .cfa: sp 36 + .ra: .cfa -4 + ^ r10: .cfa -12 + ^ r11: .cfa -8 + ^ r4: .cfa -36 + ^ r5: .cfa -32 + ^ r6: .cfa -28 + ^ r7: .cfa -24 + ^ r8: .cfa -20 + ^ r9: .cfa -16 + ^
STACK CFI ad19c .cfa: sp 64 +
STACK CFI INIT ad508 18 .cfa: sp 0 + .ra: lr
STACK CFI ad50a .cfa: sp 8 + .ra: .cfa -4 + ^ r4: .cfa -8 + ^
STACK CFI INIT ad520 2 .cfa: sp 0 + .ra: lr
STACK CFI INIT ad524 4 .cfa: sp 0 + .ra: lr
STACK CFI INIT ad528 4 .cfa: sp 0 + .ra: lr
STACK CFI INIT ad52c 2 .cfa: sp 0 + .ra: lr
STACK CFI INIT ad530 64 .cfa: sp 0 + .ra: lr
STACK CFI ad536 .cfa: sp 20 + .ra: .cfa -4 + ^ r4: .cfa -20 + ^ r5: .cfa -16 + ^ r6: .cfa -12 + ^ r7: .cfa -8 + ^
STACK CFI ad53c .cfa: sp 48 +
STACK CFI INIT ad594 54 .cfa: sp 0 + .ra: lr
STACK CFI ad598 .cfa: sp 8 + .ra: .cfa -4 + ^ r4: .cfa -8 + ^
STACK CFI INIT ad5e8 64 .cfa: sp 0 + .ra: lr
STACK CFI ad5ea .cfa: sp 12 + .ra: .cfa -4 + ^ r4: .cfa -12 + ^ r5: .cfa -8 + ^
STACK CFI ad5ec .cfa: sp 24 +
STACK CFI INIT ad64c 210 .cfa: sp 0 + .ra: lr
STACK CFI ad650 .cfa: sp 36 + .ra: .cfa -4 + ^ r10: .cfa -12 + ^ r11: .cfa -8 + ^ r4: .cfa -36 + ^ r5: .cfa -32 + ^ r6: .cfa -28 + ^ r7: .cfa -24 + ^ r8: .cfa -20 + ^ r9: .cfa -16 + ^
STACK CFI ad654 .cfa: sp 72 +
STACK CFI INIT ad85c 2 .cfa: sp 0 + .ra: lr
STACK CFI INIT ad860 2 .cfa: sp 0 + .ra: lr
STACK CFI INIT ad864 4 .cfa: sp 0 + .ra: lr
STACK CFI INIT ad868 2 .cfa: sp 0 + .ra: lr
STACK CFI INIT ad86c 20 .cfa: sp 0 + .ra: lr
STACK CFI ad86e .cfa: sp 16 + .ra: .cfa -4 + ^ r3: .cfa -16 + ^ r4: .cfa -12 + ^ r5: .cfa -8 + ^
STACK CFI INIT ad88c 14c .cfa: sp 0 + .ra: lr
STACK CFI ad890 .cfa: sp 36 + .ra: .cfa -4 + ^ r10: .cfa -12 + ^ r11: .cfa -8 + ^ r4: .cfa -36 + ^ r5: .cfa -32 + ^ r6: .cfa -28 + ^ r7: .cfa -24 + ^ r8: .cfa -20 + ^ r9: .cfa -16 + ^
STACK CFI ad892 .cfa: sp 128 +
STACK CFI INIT ad9d8 bc .cfa: sp 0 + .ra: lr
STACK CFI ad9dc .cfa: sp 28 + .ra: .cfa -4 + ^ r4: .cfa -28 + ^ r5: .cfa -24 + ^ r6: .cfa -20 + ^ r7: .cfa -16 + ^ r8: .cfa -12 + ^ r9: .cfa -8 + ^
STACK CFI ad9de .cfa: sp 80 +
STACK CFI INIT ada94 1e4 .cfa: sp 0 + .ra: lr
STACK CFI ada98 .cfa: sp 36 + .ra: .cfa -4 + ^ r10: .cfa -12 + ^ r11: .cfa -8 + ^ r4: .cfa -36 + ^ r5: .cfa -32 + ^ r6: .cfa -28 + ^ r7: .cfa -24 + ^ r8: .cfa -20 + ^ r9: .cfa -16 + ^
STACK CFI ada9a .cfa: sp 128 +
STACK CFI ada9c .cfa: r7 112 +
STACK CFI INIT adc78 22 .cfa: sp 0 + .ra: lr
STACK CFI adc7a .cfa: sp 8 + .ra: .cfa -4 + ^ r4: .cfa -8 + ^
STACK CFI INIT adc9c 18 .cfa: sp 0 + .ra: lr
STACK CFI adc9e .cfa: sp 8 + .ra: .cfa -4 + ^ r4: .cfa -8 + ^
STACK CFI INIT adcb4 ac .cfa: sp 0 + .ra: lr
STACK CFI adcb8 .cfa: sp 36 + .ra: .cfa -4 + ^ r10: .cfa -12 + ^ r11: .cfa -8 + ^ r4: .cfa -36 + ^ r5: .cfa -32 + ^ r6: .cfa -28 + ^ r7: .cfa -24 + ^ r8: .cfa -20 + ^ r9: .cfa -16 + ^
STACK CFI adcba .cfa: sp 112 +
STACK CFI adcbc .cfa: r7 104 +
STACK CFI INIT add60 6c .cfa: sp 0 + .ra: lr
STACK CFI add62 .cfa: sp 20 + .ra: .cfa -4 + ^ r4: .cfa -20 + ^ r5: .cfa -16 + ^ r6: .cfa -12 + ^ r7: .cfa -8 + ^
STACK CFI add64 .cfa: sp 32 +
STACK CFI INIT addcc d4 .cfa: sp 0 + .ra: lr
STACK CFI addd0 .cfa: sp 28 + .ra: .cfa -4 + ^ r4: .cfa -28 + ^ r5: .cfa -24 + ^ r6: .cfa -20 + ^ r7: .cfa -16 + ^ r8: .cfa -12 + ^ r9: .cfa -8 + ^
STACK CFI addd2 .cfa: sp 88 +
STACK CFI INIT adea0 ac .cfa: sp 0 + .ra: lr
STACK CFI adea4 .cfa: sp 24 + .ra: .cfa -4 + ^ r4: .cfa -24 + ^ r5: .cfa -20 + ^ r6: .cfa -16 + ^ r7: .cfa -12 + ^ r8: .cfa -8 + ^
STACK CFI adea6 .cfa: sp 80 +
STACK CFI INIT adf4c d8 .cfa: sp 0 + .ra: lr
STACK CFI adf50 .cfa: sp 24 + .ra: .cfa -4 + ^ r4: .cfa -24 + ^ r5: .cfa -20 + ^ r6: .cfa -16 + ^ r7: .cfa -12 + ^ r8: .cfa -8 + ^
STACK CFI adf52 .cfa: sp 56 +
STACK CFI INIT ae024 38 .cfa: sp 0 + .ra: lr
STACK CFI ae026 .cfa: sp 16 + .ra: .cfa -4 + ^ r3: .cfa -16 + ^ r4: .cfa -12 + ^ r5: .cfa -8 + ^
STACK CFI INIT ae05c 80 .cfa: sp 0 + .ra: lr
STACK CFI ae060 .cfa: sp 32 + .ra: .cfa -4 + ^ r10: .cfa -8 + ^ r4: .cfa -32 + ^ r5: .cfa -28 + ^ r6: .cfa -24 + ^ r7: .cfa -20 + ^ r8: .cfa -16 + ^ r9: .cfa -12 + ^
STACK CFI ae068 .cfa: sp 40 +
STACK CFI INIT ae0dc 44 .cfa: sp 0 + .ra: lr
STACK CFI ae0de .cfa: sp 16 + .ra: .cfa -4 + ^ r4: .cfa -16 + ^ r5: .cfa -12 + ^ r6: .cfa -8 + ^
STACK CFI ae0e2 .cfa: sp 24 +
STACK CFI INIT ae120 9a .cfa: sp 0 + .ra: lr
STACK CFI ae124 .cfa: sp 24 + .ra: .cfa -4 + ^ r4: .cfa -24 + ^ r5: .cfa -20 + ^ r6: .cfa -16 + ^ r7: .cfa -12 + ^ r8: .cfa -8 + ^
STACK CFI ae126 .cfa: sp 32 +
STACK CFI INIT ae1bc ac .cfa: sp 0 + .ra: lr
STACK CFI ae1c0 .cfa: sp 32 + .ra: .cfa -4 + ^ r10: .cfa -8 + ^ r4: .cfa -32 + ^ r5: .cfa -28 + ^ r6: .cfa -24 + ^ r7: .cfa -20 + ^ r8: .cfa -16 + ^ r9: .cfa -12 + ^
STACK CFI ae1c2 .cfa: sp 96 +
STACK CFI INIT ae268 434 .cfa: sp 0 + .ra: lr
STACK CFI ae26c .cfa: sp 36 + .ra: .cfa -4 + ^ r10: .cfa -12 + ^ r11: .cfa -8 + ^ r4: .cfa -36 + ^ r5: .cfa -32 + ^ r6: .cfa -28 + ^ r7: .cfa -24 + ^ r8: .cfa -20 + ^ r9: .cfa -16 + ^
STACK CFI ae270 .cfa: sp 10532 +
STACK CFI ae272 .cfa: sp 10560 +
STACK CFI INIT ae69c 3c .cfa: sp 0 + .ra: lr
STACK CFI ae69e .cfa: sp 16 + .ra: .cfa -4 + ^ r3: .cfa -16 + ^ r4: .cfa -12 + ^ r5: .cfa -8 + ^
STACK CFI INIT ae6d8 22 .cfa: sp 0 + .ra: lr
STACK CFI ae6da .cfa: sp 16 + .ra: .cfa -4 + ^ r4: .cfa -16 + ^ r5: .cfa -12 + ^ r6: .cfa -8 + ^
STACK CFI INIT ae6fc 50 .cfa: sp 0 + .ra: lr
STACK CFI ae6fe .cfa: sp 16 + .ra: .cfa -4 + ^ r3: .cfa -16 + ^ r4: .cfa -12 + ^ r5: .cfa -8 + ^
STACK CFI INIT ae74c 6 .cfa: sp 0 + .ra: lr
STACK CFI INIT ae754 44 .cfa: sp 0 + .ra: lr
STACK CFI ae756 .cfa: sp 12 + .ra: .cfa -4 + ^ r4: .cfa -12 + ^ r5: .cfa -8 + ^
STACK CFI ae758 .cfa: sp 24 +
STACK CFI INIT ae798 54 .cfa: sp 0 + .ra: lr
STACK CFI ae79a .cfa: sp 16 + .ra: .cfa -4 + ^ r3: .cfa -16 + ^ r4: .cfa -12 + ^ r5: .cfa -8 + ^
STACK CFI INIT ae7ec 8c .cfa: sp 0 + .ra: lr
STACK CFI ae7f0 .cfa: sp 8 + r4: .cfa -8 + ^ r5: .cfa -4 + ^
STACK CFI INIT ae878 256 .cfa: sp 0 + .ra: lr
STACK CFI ae87c .cfa: sp 16 + .ra: .cfa -4 + ^ r4: .cfa -16 + ^ r5: .cfa -12 + ^ r6: .cfa -8 + ^
STACK CFI ae880 .cfa: sp 24 +
STACK CFI INIT aead0 4 .cfa: sp 0 + .ra: lr
STACK CFI INIT aead4 4c .cfa: sp 0 + .ra: lr
STACK CFI aeade .cfa: sp 24 + .ra: .cfa -4 + ^ r3: .cfa -24 + ^ r4: .cfa -20 + ^ r5: .cfa -16 + ^ r6: .cfa -12 + ^ r7: .cfa -8 + ^
STACK CFI INIT aeb20 fe .cfa: sp 0 + .ra: lr
STACK CFI aeb24 .cfa: sp 32 + .ra: .cfa -4 + ^ r10: .cfa -8 + ^ r4: .cfa -32 + ^ r5: .cfa -28 + ^ r6: .cfa -24 + ^ r7: .cfa -20 + ^ r8: .cfa -16 + ^ r9: .cfa -12 + ^
STACK CFI aeb2a .cfa: sp 56 +
STACK CFI INIT aec20 4 .cfa: sp 0 + .ra: lr
STACK CFI INIT aec24 4 .cfa: sp 0 + .ra: lr
STACK CFI INIT aec28 2 .cfa: sp 0 + .ra: lr
STACK CFI INIT aec2c 22 .cfa: sp 0 + .ra: lr
STACK CFI aec2e .cfa: sp 16 + .ra: .cfa -4 + ^ r3: .cfa -16 + ^ r4: .cfa -12 + ^ r5: .cfa -8 + ^
STACK CFI INIT aec50 1c .cfa: sp 0 + .ra: lr
STACK CFI aec52 .cfa: sp 16 + .ra: .cfa -4 + ^ r3: .cfa -16 + ^ r4: .cfa -12 + ^ r5: .cfa -8 + ^
STACK CFI INIT aec6c 3e .cfa: sp 0 + .ra: lr
STACK CFI aec6e .cfa: sp 16 + .ra: .cfa -4 + ^ r3: .cfa -16 + ^ r4: .cfa -12 + ^ r5: .cfa -8 + ^
STACK CFI INIT aecac 34 .cfa: sp 0 + .ra: lr
STACK CFI aecae .cfa: sp 16 + .ra: .cfa -4 + ^ r3: .cfa -16 + ^ r4: .cfa -12 + ^ r5: .cfa -8 + ^
STACK CFI INIT aece0 58 .cfa: sp 0 + .ra: lr
STACK CFI aece2 .cfa: sp 24 + .ra: .cfa -4 + ^ r3: .cfa -24 + ^ r4: .cfa -20 + ^ r5: .cfa -16 + ^ r6: .cfa -12 + ^ r7: .cfa -8 + ^
STACK CFI INIT aed38 154 .cfa: sp 0 + .ra: lr
STACK CFI aed3c .cfa: sp 24 + .ra: .cfa -4 + ^ r4: .cfa -24 + ^ r5: .cfa -20 + ^ r6: .cfa -16 + ^ r7: .cfa -12 + ^ r8: .cfa -8 + ^
STACK CFI aed40 .cfa: sp 8792 +
STACK CFI aed42 .cfa: sp 8832 +
STACK CFI INIT aee8c 138 .cfa: sp 0 + .ra: lr
STACK CFI aee90 .cfa: sp 24 + .ra: .cfa -4 + ^ r4: .cfa -24 + ^ r5: .cfa -20 + ^ r6: .cfa -16 + ^ r7: .cfa -12 + ^ r8: .cfa -8 + ^
STACK CFI aee94 .cfa: sp 40 +
STACK CFI INIT aefc4 22 .cfa: sp 0 + .ra: lr
STACK CFI aefc8 .cfa: sp 8 + .ra: .cfa -4 + ^ r3: .cfa -8 + ^
STACK CFI INIT aefe8 54 .cfa: sp 0 + .ra: lr
STACK CFI aefea .cfa: sp 16 + .ra: .cfa -4 + ^ r3: .cfa -16 + ^ r4: .cfa -12 + ^ r5: .cfa -8 + ^
STACK CFI INIT af03c 40 .cfa: sp 0 + .ra: lr
STACK CFI af040 .cfa: sp 8 + r4: .cfa -8 + ^ r5: .cfa -4 + ^
STACK CFI INIT af07c 2c .cfa: sp 0 + .ra: lr
STACK CFI af080 .cfa: sp 16 + .ra: .cfa -4 + ^ r4: .cfa -16 + ^ r5: .cfa -12 + ^ r6: .cfa -8 + ^
STACK CFI INIT af0a8 32 .cfa: sp 0 + .ra: lr
STACK CFI af0aa .cfa: sp 16 + .ra: .cfa -4 + ^ r3: .cfa -16 + ^ r4: .cfa -12 + ^ r5: .cfa -8 + ^
STACK CFI INIT af0dc 14 .cfa: sp 0 + .ra: lr
STACK CFI af0de .cfa: sp 8 + .ra: .cfa -4 + ^ r4: .cfa -8 + ^
STACK CFI INIT af0f0 36 .cfa: sp 0 + .ra: lr
STACK CFI af0f2 .cfa: sp 16 + .ra: .cfa -4 + ^ r3: .cfa -16 + ^ r4: .cfa -12 + ^ r5: .cfa -8 + ^
STACK CFI INIT af128 52 .cfa: sp 0 + .ra: lr
STACK CFI af12a .cfa: sp 16 + .ra: .cfa -4 + ^ r4: .cfa -16 + ^ r5: .cfa -12 + ^ r6: .cfa -8 + ^
STACK CFI INIT af17c 40 .cfa: sp 0 + .ra: lr
STACK CFI af17e .cfa: sp 24 + .ra: .cfa -4 + ^ r3: .cfa -24 + ^ r4: .cfa -20 + ^ r5: .cfa -16 + ^ r6: .cfa -12 + ^ r7: .cfa -8 + ^
STACK CFI INIT af1bc 2c .cfa: sp 0 + .ra: lr
STACK CFI af1be .cfa: sp 8 + .ra: .cfa -4 + ^ r4: .cfa -8 + ^
STACK CFI af1c0 .cfa: sp 16 +
STACK CFI INIT af1e8 46 .cfa: sp 0 + .ra: lr
STACK CFI af1ea .cfa: sp 24 + .ra: .cfa -4 + ^ r3: .cfa -24 + ^ r4: .cfa -20 + ^ r5: .cfa -16 + ^ r6: .cfa -12 + ^ r7: .cfa -8 + ^
STACK CFI INIT af230 42 .cfa: sp 0 + .ra: lr
STACK CFI af234 .cfa: sp 12 + .ra: .cfa -4 + ^ r4: .cfa -12 + ^ r5: .cfa -8 + ^
STACK CFI af23a .cfa: sp 24 +
STACK CFI INIT af274 44 .cfa: sp 0 + .ra: lr
STACK CFI af278 .cfa: sp 12 + .ra: .cfa -4 + ^ r4: .cfa -12 + ^ r5: .cfa -8 + ^
STACK CFI af27e .cfa: sp 24 +
STACK CFI INIT af2b8 3c .cfa: sp 0 + .ra: lr
STACK CFI af2c6 .cfa: sp 16 + .ra: .cfa -4 + ^ r4: .cfa -16 + ^ r5: .cfa -12 + ^ r6: .cfa -8 + ^
STACK CFI INIT af2f4 36 .cfa: sp 0 + .ra: lr
STACK CFI af2f6 .cfa: sp 16 + .ra: .cfa -4 + ^ r3: .cfa -16 + ^ r4: .cfa -12 + ^ r5: .cfa -8 + ^
STACK CFI INIT af32c 36 .cfa: sp 0 + .ra: lr
STACK CFI af32e .cfa: sp 16 + .ra: .cfa -4 + ^ r3: .cfa -16 + ^ r4: .cfa -12 + ^ r5: .cfa -8 + ^
STACK CFI INIT af364 5c .cfa: sp 0 + .ra: lr
STACK CFI af368 .cfa: sp 24 + .ra: .cfa -4 + ^ r4: .cfa -24 + ^ r5: .cfa -20 + ^ r6: .cfa -16 + ^ r7: .cfa -12 + ^ r8: .cfa -8 + ^
STACK CFI INIT af3c0 e4 .cfa: sp 0 + .ra: lr
STACK CFI af3c4 .cfa: sp 40 + .ra: .cfa -4 + ^ r10: .cfa -12 + ^ r11: .cfa -8 + ^ r3: .cfa -40 + ^ r4: .cfa -36 + ^ r5: .cfa -32 + ^ r6: .cfa -28 + ^ r7: .cfa -24 + ^ r8: .cfa -20 + ^ r9: .cfa -16 + ^
STACK CFI INIT af4a4 3c .cfa: sp 0 + .ra: lr
STACK CFI af4a6 .cfa: sp 16 + .ra: .cfa -4 + ^ r3: .cfa -16 + ^ r4: .cfa -12 + ^ r5: .cfa -8 + ^
STACK CFI INIT af4e0 40 .cfa: sp 0 + .ra: lr
STACK CFI af4e2 .cfa: sp 16 + .ra: .cfa -4 + ^ r3: .cfa -16 + ^ r4: .cfa -12 + ^ r5: .cfa -8 + ^
STACK CFI INIT af520 38 .cfa: sp 0 + .ra: lr
STACK CFI af522 .cfa: sp 8 + r4: .cfa -8 + ^ r5: .cfa -4 + ^
STACK CFI INIT af558 b4 .cfa: sp 0 + .ra: lr
STACK CFI af55c .cfa: sp 36 + .ra: .cfa -4 + ^ r10: .cfa -12 + ^ r11: .cfa -8 + ^ r4: .cfa -36 + ^ r5: .cfa -32 + ^ r6: .cfa -28 + ^ r7: .cfa -24 + ^ r8: .cfa -20 + ^ r9: .cfa -16 + ^
STACK CFI af564 .cfa: sp 56 +
STACK CFI INIT af60c bc .cfa: sp 0 + .ra: lr
STACK CFI af610 .cfa: sp 36 + .ra: .cfa -4 + ^ r10: .cfa -12 + ^ r11: .cfa -8 + ^ r4: .cfa -36 + ^ r5: .cfa -32 + ^ r6: .cfa -28 + ^ r7: .cfa -24 + ^ r8: .cfa -20 + ^ r9: .cfa -16 + ^
STACK CFI af618 .cfa: sp 64 +
STACK CFI INIT af6c8 5c .cfa: sp 0 + .ra: lr
STACK CFI af6ca .cfa: sp 16 + .ra: .cfa -4 + ^ r3: .cfa -16 + ^ r4: .cfa -12 + ^ r5: .cfa -8 + ^
STACK CFI INIT af724 22 .cfa: sp 0 + .ra: lr
STACK CFI af726 .cfa: sp 16 + .ra: .cfa -4 + ^ r3: .cfa -16 + ^ r4: .cfa -12 + ^ r5: .cfa -8 + ^
STACK CFI INIT af748 e .cfa: sp 0 + .ra: lr
STACK CFI af74a .cfa: sp 8 + .ra: .cfa -4 + ^ r3: .cfa -8 + ^
STACK CFI INIT af758 10 .cfa: sp 0 + .ra: lr
STACK CFI af75a .cfa: sp 8 + .ra: .cfa -4 + ^ r3: .cfa -8 + ^
STACK CFI INIT af768 10 .cfa: sp 0 + .ra: lr
STACK CFI af76a .cfa: sp 8 + .ra: .cfa -4 + ^ r3: .cfa -8 + ^
STACK CFI INIT af778 1e .cfa: sp 0 + .ra: lr
STACK CFI af77a .cfa: sp 16 + .ra: .cfa -4 + ^ r3: .cfa -16 + ^ r4: .cfa -12 + ^ r5: .cfa -8 + ^
STACK CFI INIT af798 2e .cfa: sp 0 + .ra: lr
STACK CFI af79a .cfa: sp 16 + .ra: .cfa -4 + ^ r3: .cfa -16 + ^ r4: .cfa -12 + ^ r5: .cfa -8 + ^
STACK CFI INIT af7c8 26 .cfa: sp 0 + .ra: lr
STACK CFI af7ca .cfa: sp 16 + .ra: .cfa -4 + ^ r3: .cfa -16 + ^ r4: .cfa -12 + ^ r5: .cfa -8 + ^
STACK CFI INIT af7f0 48 .cfa: sp 0 + .ra: lr
STACK CFI af7f2 .cfa: sp 12 + .ra: .cfa -4 + ^ r4: .cfa -12 + ^ r5: .cfa -8 + ^
STACK CFI af7f4 .cfa: sp 24 +
STACK CFI INIT af838 26 .cfa: sp 0 + .ra: lr
STACK CFI af83a .cfa: sp 16 + .ra: .cfa -4 + ^ r3: .cfa -16 + ^ r4: .cfa -12 + ^ r5: .cfa -8 + ^
STACK CFI INIT af860 34 .cfa: sp 0 + .ra: lr
STACK CFI af862 .cfa: sp 16 + .ra: .cfa -4 + ^ r3: .cfa -16 + ^ r4: .cfa -12 + ^ r5: .cfa -8 + ^
STACK CFI INIT af894 26 .cfa: sp 0 + .ra: lr
STACK CFI af896 .cfa: sp 16 + .ra: .cfa -4 + ^ r3: .cfa -16 + ^ r4: .cfa -12 + ^ r5: .cfa -8 + ^
STACK CFI INIT af8bc f0 .cfa: sp 0 + .ra: lr
STACK CFI af8c0 .cfa: sp 24 + .ra: .cfa -4 + ^ r4: .cfa -24 + ^ r5: .cfa -20 + ^ r6: .cfa -16 + ^ r7: .cfa -12 + ^ r8: .cfa -8 + ^
STACK CFI af8c2 .cfa: sp 40 +
STACK CFI INIT af9ac 1d0 .cfa: sp 0 + .ra: lr
STACK CFI af9b0 .cfa: sp 32 + .ra: .cfa -4 + ^ r10: .cfa -8 + ^ r4: .cfa -32 + ^ r5: .cfa -28 + ^ r6: .cfa -24 + ^ r7: .cfa -20 + ^ r8: .cfa -16 + ^ r9: .cfa -12 + ^
STACK CFI af9ba .cfa: sp 72 +
STACK CFI INIT afb7c 450 .cfa: sp 0 + .ra: lr
STACK CFI afb80 .cfa: sp 36 + .ra: .cfa -4 + ^ r10: .cfa -12 + ^ r11: .cfa -8 + ^ r4: .cfa -36 + ^ r5: .cfa -32 + ^ r6: .cfa -28 + ^ r7: .cfa -24 + ^ r8: .cfa -20 + ^ r9: .cfa -16 + ^
STACK CFI afb84 .cfa: sp 1136 +
STACK CFI INIT affcc 130 .cfa: sp 0 + .ra: lr
STACK CFI affd0 .cfa: sp 32 + .ra: .cfa -4 + ^ r10: .cfa -8 + ^ r4: .cfa -32 + ^ r5: .cfa -28 + ^ r6: .cfa -24 + ^ r7: .cfa -20 + ^ r8: .cfa -16 + ^ r9: .cfa -12 + ^
STACK CFI affd6 .cfa: sp 56 +
STACK CFI INIT b00fc e .cfa: sp 0 + .ra: lr
STACK CFI INIT b010c 12 .cfa: sp 0 + .ra: lr
STACK CFI b0112 .cfa: sp 8 + .ra: .cfa -4 + ^ r4: .cfa -8 + ^
STACK CFI INIT b0120 2 .cfa: sp 0 + .ra: lr
STACK CFI INIT b0124 30 .cfa: sp 0 + .ra: lr
STACK CFI b0126 .cfa: sp 16 + .ra: .cfa -4 + ^ r3: .cfa -16 + ^ r4: .cfa -12 + ^ r5: .cfa -8 + ^
STACK CFI INIT b0154 dc .cfa: sp 0 + .ra: lr
STACK CFI b0158 .cfa: sp 8 + .ra: .cfa -4 + ^ r4: .cfa -8 + ^
STACK CFI b015a .cfa: sp 16 +
STACK CFI INIT b0230 1d8 .cfa: sp 0 + .ra: lr
STACK CFI b0234 .cfa: sp 36 + .ra: .cfa -4 + ^ r10: .cfa -12 + ^ r11: .cfa -8 + ^ r4: .cfa -36 + ^ r5: .cfa -32 + ^ r6: .cfa -28 + ^ r7: .cfa -24 + ^ r8: .cfa -20 + ^ r9: .cfa -16 + ^
STACK CFI b0236 .cfa: sp 120 +
STACK CFI INIT b0408 a4 .cfa: sp 0 + .ra: lr
STACK CFI b040c .cfa: sp 32 + .ra: .cfa -4 + ^ r10: .cfa -8 + ^ r4: .cfa -32 + ^ r5: .cfa -28 + ^ r6: .cfa -24 + ^ r7: .cfa -20 + ^ r8: .cfa -16 + ^ r9: .cfa -12 + ^
STACK CFI b040e .cfa: sp 80 +
STACK CFI b0410 .cfa: r7 80 +
STACK CFI INIT b04ac 48 .cfa: sp 0 + .ra: lr
STACK CFI b04ae .cfa: sp 24 + .ra: .cfa -4 + ^ r3: .cfa -24 + ^ r4: .cfa -20 + ^ r5: .cfa -16 + ^ r6: .cfa -12 + ^ r7: .cfa -8 + ^
STACK CFI INIT b04f4 134 .cfa: sp 0 + .ra: lr
STACK CFI b04f8 .cfa: sp 28 + .ra: .cfa -4 + ^ r4: .cfa -28 + ^ r5: .cfa -24 + ^ r6: .cfa -20 + ^ r7: .cfa -16 + ^ r8: .cfa -12 + ^ r9: .cfa -8 + ^
STACK CFI b04fe .cfa: sp 88 +
STACK CFI INIT b0628 188 .cfa: sp 0 + .ra: lr
STACK CFI b062c .cfa: sp 32 + .ra: .cfa -4 + ^ r10: .cfa -8 + ^ r4: .cfa -32 + ^ r5: .cfa -28 + ^ r6: .cfa -24 + ^ r7: .cfa -20 + ^ r8: .cfa -16 + ^ r9: .cfa -12 + ^
STACK CFI b0630 .cfa: sp 88 +
STACK CFI INIT b07b0 4 .cfa: sp 0 + .ra: lr
STACK CFI INIT b07b4 e .cfa: sp 0 + .ra: lr
STACK CFI b07b8 .cfa: sp 8 + .ra: .cfa -4 + ^ r3: .cfa -8 + ^
STACK CFI INIT b07c4 12 .cfa: sp 0 + .ra: lr
STACK CFI b07ca .cfa: sp 8 + .ra: .cfa -4 + ^ r4: .cfa -8 + ^
STACK CFI INIT b07d8 36 .cfa: sp 0 + .ra: lr
STACK CFI b07da .cfa: sp 16 + .ra: .cfa -4 + ^ r3: .cfa -16 + ^ r4: .cfa -12 + ^ r5: .cfa -8 + ^
STACK CFI INIT b0810 6 .cfa: sp 0 + .ra: lr
STACK CFI b0812 .cfa: sp 8 + .ra: .cfa -4 + ^ r3: .cfa -8 + ^
STACK CFI INIT b0818 c8 .cfa: sp 0 + .ra: lr
STACK CFI b081c .cfa: sp 32 + .ra: .cfa -4 + ^ r10: .cfa -8 + ^ r4: .cfa -32 + ^ r5: .cfa -28 + ^ r6: .cfa -24 + ^ r7: .cfa -20 + ^ r8: .cfa -16 + ^ r9: .cfa -12 + ^
STACK CFI b0820 .cfa: sp 40 +
STACK CFI INIT b08e0 7c .cfa: sp 0 + .ra: lr
STACK CFI b08e4 .cfa: sp 28 + .ra: .cfa -4 + ^ r4: .cfa -28 + ^ r5: .cfa -24 + ^ r6: .cfa -20 + ^ r7: .cfa -16 + ^ r8: .cfa -12 + ^ r9: .cfa -8 + ^
STACK CFI b08e6 .cfa: sp 168 +
STACK CFI INIT b095c 24 .cfa: sp 0 + .ra: lr
STACK CFI b095e .cfa: sp 16 + .ra: .cfa -4 + ^ r3: .cfa -16 + ^ r4: .cfa -12 + ^ r5: .cfa -8 + ^
STACK CFI INIT b0980 1a .cfa: sp 0 + .ra: lr
STACK CFI b0982 .cfa: sp 8 + .ra: .cfa -4 + ^ r3: .cfa -8 + ^
STACK CFI INIT b099c 3c .cfa: sp 0 + .ra: lr
STACK CFI b099e .cfa: sp 24 + .ra: .cfa -4 + ^ r3: .cfa -24 + ^ r4: .cfa -20 + ^ r5: .cfa -16 + ^ r6: .cfa -12 + ^ r7: .cfa -8 + ^
STACK CFI INIT b09d8 bc .cfa: sp 0 + .ra: lr
STACK CFI b09dc .cfa: sp 36 + .ra: .cfa -4 + ^ r10: .cfa -12 + ^ r11: .cfa -8 + ^ r4: .cfa -36 + ^ r5: .cfa -32 + ^ r6: .cfa -28 + ^ r7: .cfa -24 + ^ r8: .cfa -20 + ^ r9: .cfa -16 + ^
STACK CFI b09e0 .cfa: sp 96 +
STACK CFI INIT b0a94 dc .cfa: sp 0 + .ra: lr
STACK CFI b0a98 .cfa: sp 32 + .ra: .cfa -4 + ^ r10: .cfa -8 + ^ r4: .cfa -32 + ^ r5: .cfa -28 + ^ r6: .cfa -24 + ^ r7: .cfa -20 + ^ r8: .cfa -16 + ^ r9: .cfa -12 + ^
STACK CFI b0a9a .cfa: sp 88 +
STACK CFI INIT b0b70 17c .cfa: sp 0 + .ra: lr
STACK CFI b0b74 .cfa: sp 32 + .ra: .cfa -4 + ^ r10: .cfa -8 + ^ r4: .cfa -32 + ^ r5: .cfa -28 + ^ r6: .cfa -24 + ^ r7: .cfa -20 + ^ r8: .cfa -16 + ^ r9: .cfa -12 + ^
STACK CFI b0b76 .cfa: sp 152 +
STACK CFI INIT b0cec 2 .cfa: sp 0 + .ra: lr
STACK CFI INIT b0cf0 c4 .cfa: sp 0 + .ra: lr
STACK CFI b0cf6 .cfa: sp 16 + .ra: .cfa -4 + ^ r4: .cfa -16 + ^ r5: .cfa -12 + ^ r6: .cfa -8 + ^
STACK CFI b0cfa .cfa: sp 24 +
STACK CFI INIT b0db4 f8 .cfa: sp 0 + .ra: lr
STACK CFI b0db8 .cfa: sp 36 + .ra: .cfa -4 + ^ r10: .cfa -12 + ^ r11: .cfa -8 + ^ r4: .cfa -36 + ^ r5: .cfa -32 + ^ r6: .cfa -28 + ^ r7: .cfa -24 + ^ r8: .cfa -20 + ^ r9: .cfa -16 + ^
STACK CFI b0dba .cfa: sp 96 +
STACK CFI INIT b0eac 7e .cfa: sp 0 + .ra: lr
STACK CFI b0eb0 .cfa: sp 32 + .ra: .cfa -4 + ^ r10: .cfa -8 + ^ r4: .cfa -32 + ^ r5: .cfa -28 + ^ r6: .cfa -24 + ^ r7: .cfa -20 + ^ r8: .cfa -16 + ^ r9: .cfa -12 + ^
STACK CFI b0eb4 .cfa: sp 88 +
STACK CFI INIT b0f2c 30c .cfa: sp 0 + .ra: lr
STACK CFI b0f32 .cfa: sp 32 + r10: .cfa -8 + ^ r11: .cfa -4 + ^ r4: .cfa -32 + ^ r5: .cfa -28 + ^ r6: .cfa -24 + ^ r7: .cfa -20 + ^ r8: .cfa -16 + ^ r9: .cfa -12 + ^
STACK CFI b0f34 .cfa: sp 40 +
STACK CFI INIT b1238 4b0 .cfa: sp 0 + .ra: lr
STACK CFI b123c .cfa: sp 36 + .ra: .cfa -4 + ^ r10: .cfa -12 + ^ r11: .cfa -8 + ^ r4: .cfa -36 + ^ r5: .cfa -32 + ^ r6: .cfa -28 + ^ r7: .cfa -24 + ^ r8: .cfa -20 + ^ r9: .cfa -16 + ^
STACK CFI b1240 .cfa: sp 192 +
STACK CFI INIT b16e8 20 .cfa: sp 0 + .ra: lr
STACK CFI INIT b1708 2 .cfa: sp 0 + .ra: lr
STACK CFI INIT b170c 22 .cfa: sp 0 + .ra: lr
STACK CFI b170e .cfa: sp 16 + .ra: .cfa -4 + ^ r3: .cfa -16 + ^ r4: .cfa -12 + ^ r5: .cfa -8 + ^
STACK CFI INIT b1730 62 .cfa: sp 0 + .ra: lr
STACK CFI b1736 .cfa: sp 24 + .ra: .cfa -4 + ^ r4: .cfa -24 + ^ r5: .cfa -20 + ^ r6: .cfa -16 + ^ r7: .cfa -12 + ^ r8: .cfa -8 + ^
STACK CFI b173a .cfa: sp 40 +
STACK CFI INIT b1794 172 .cfa: sp 0 + .ra: lr
STACK CFI b1798 .cfa: sp 24 + .ra: .cfa -4 + ^ r4: .cfa -24 + ^ r5: .cfa -20 + ^ r6: .cfa -16 + ^ r7: .cfa -12 + ^ r8: .cfa -8 + ^
STACK CFI b179c .cfa: sp 72 +
STACK CFI INIT b1908 b2 .cfa: sp 0 + .ra: lr
STACK CFI b190a .cfa: sp 20 + .ra: .cfa -4 + ^ r4: .cfa -20 + ^ r5: .cfa -16 + ^ r6: .cfa -12 + ^ r7: .cfa -8 + ^
STACK CFI b190c .cfa: sp 40 +
STACK CFI INIT b19bc 144 .cfa: sp 0 + .ra: lr
STACK CFI b19c0 .cfa: sp 36 + .ra: .cfa -4 + ^ r10: .cfa -12 + ^ r11: .cfa -8 + ^ r4: .cfa -36 + ^ r5: .cfa -32 + ^ r6: .cfa -28 + ^ r7: .cfa -24 + ^ r8: .cfa -20 + ^ r9: .cfa -16 + ^
STACK CFI b19c4 .cfa: sp 304 +
STACK CFI INIT b1b00 40 .cfa: sp 0 + .ra: lr
STACK CFI b1b04 .cfa: sp 28 + .ra: .cfa -4 + ^ r4: .cfa -28 + ^ r5: .cfa -24 + ^ r6: .cfa -20 + ^ r7: .cfa -16 + ^ r8: .cfa -12 + ^ r9: .cfa -8 + ^
STACK CFI b1b08 .cfa: sp 1072 +
STACK CFI INIT b1b40 2 .cfa: sp 0 + .ra: lr
STACK CFI INIT b1b44 16 .cfa: sp 0 + .ra: lr
STACK CFI b1b4a .cfa: sp 8 + .ra: .cfa -4 + ^ r4: .cfa -8 + ^
STACK CFI INIT b1b5c 2c .cfa: sp 0 + .ra: lr
STACK CFI b1b5e .cfa: sp 16 + .ra: .cfa -4 + ^ r3: .cfa -16 + ^ r4: .cfa -12 + ^ r5: .cfa -8 + ^
STACK CFI INIT b1b88 68 .cfa: sp 0 + .ra: lr
STACK CFI b1b8a .cfa: sp 16 + .ra: .cfa -4 + ^ r4: .cfa -16 + ^ r5: .cfa -12 + ^ r6: .cfa -8 + ^
STACK CFI b1b8e .cfa: sp 40 +
STACK CFI INIT b1bf0 94 .cfa: sp 0 + .ra: lr
STACK CFI b1bf4 .cfa: sp 28 + .ra: .cfa -4 + ^ r4: .cfa -28 + ^ r5: .cfa -24 + ^ r6: .cfa -20 + ^ r7: .cfa -16 + ^ r8: .cfa -12 + ^ r9: .cfa -8 + ^
STACK CFI b1bfa .cfa: sp 88 +
STACK CFI INIT b1c84 72 .cfa: sp 0 + .ra: lr
STACK CFI b1c8c .cfa: sp 24 + .ra: .cfa -4 + ^ r4: .cfa -24 + ^ r5: .cfa -20 + ^ r6: .cfa -16 + ^ r7: .cfa -12 + ^ r8: .cfa -8 + ^
STACK CFI b1c90 .cfa: sp 48 +
STACK CFI INIT b1cf8 128 .cfa: sp 0 + .ra: lr
STACK CFI b1cfc .cfa: sp 36 + .ra: .cfa -4 + ^ r10: .cfa -12 + ^ r11: .cfa -8 + ^ r4: .cfa -36 + ^ r5: .cfa -32 + ^ r6: .cfa -28 + ^ r7: .cfa -24 + ^ r8: .cfa -20 + ^ r9: .cfa -16 + ^
STACK CFI b1cfe .cfa: sp 512 +
STACK CFI INIT b1e20 e0 .cfa: sp 0 + .ra: lr
STACK CFI b1e24 .cfa: sp 36 + .ra: .cfa -4 + ^ r10: .cfa -12 + ^ r11: .cfa -8 + ^ r4: .cfa -36 + ^ r5: .cfa -32 + ^ r6: .cfa -28 + ^ r7: .cfa -24 + ^ r8: .cfa -20 + ^ r9: .cfa -16 + ^
STACK CFI b1e26 .cfa: sp 304 +
STACK CFI b1e28 .cfa: r7 296 +
STACK CFI INIT b1f00 1cc .cfa: sp 0 + .ra: lr
STACK CFI b1f04 .cfa: sp 36 + .ra: .cfa -4 + ^ r10: .cfa -12 + ^ r11: .cfa -8 + ^ r4: .cfa -36 + ^ r5: .cfa -32 + ^ r6: .cfa -28 + ^ r7: .cfa -24 + ^ r8: .cfa -20 + ^ r9: .cfa -16 + ^
STACK CFI b1f06 .cfa: sp 232 +
STACK CFI b1f08 .cfa: r7 224 +
STACK CFI INIT bd6b0 12 .cfa: sp 0 + .ra: lr
STACK CFI bd6b2 .cfa: sp 8 + .ra: .cfa -4 + ^ r3: .cfa -8 + ^
STACK CFI INIT b20cc 50 .cfa: sp 0 + .ra: lr
STACK CFI b20d2 .cfa: sp 4 + r4: .cfa -4 + ^
STACK CFI INIT b211c 184 .cfa: sp 0 + .ra: lr
STACK CFI b2122 .cfa: sp 24 + .ra: .cfa -4 + ^ r4: .cfa -24 + ^ r5: .cfa -20 + ^ r6: .cfa -16 + ^ r7: .cfa -12 + ^ r8: .cfa -8 + ^
STACK CFI b2126 .cfa: sp 1072 +
STACK CFI INIT b22a0 1c .cfa: sp 0 + .ra: lr
STACK CFI b22a2 .cfa: sp 8 + .ra: .cfa -4 + ^ r3: .cfa -8 + ^
STACK CFI INIT b22bc 1c .cfa: sp 0 + .ra: lr
STACK CFI b22be .cfa: sp 8 + .ra: .cfa -4 + ^ r3: .cfa -8 + ^
STACK CFI INIT b22d8 90 .cfa: sp 0 + .ra: lr
STACK CFI b22da .cfa: sp 20 + .ra: .cfa -4 + ^ r4: .cfa -20 + ^ r5: .cfa -16 + ^ r6: .cfa -12 + ^ r7: .cfa -8 + ^
STACK CFI b22de .cfa: sp 1064 +
STACK CFI INIT b2368 1c .cfa: sp 0 + .ra: lr
STACK CFI b236a .cfa: sp 8 + .ra: .cfa -4 + ^ r3: .cfa -8 + ^
STACK CFI INIT b2384 e .cfa: sp 0 + .ra: lr
STACK CFI INIT b2394 12 .cfa: sp 0 + .ra: lr
STACK CFI b239a .cfa: sp 8 + .ra: .cfa -4 + ^ r4: .cfa -8 + ^
STACK CFI INIT b23a8 2 .cfa: sp 0 + .ra: lr
STACK CFI INIT b23ac 2e .cfa: sp 0 + .ra: lr
STACK CFI b23ae .cfa: sp 16 + .ra: .cfa -4 + ^ r3: .cfa -16 + ^ r4: .cfa -12 + ^ r5: .cfa -8 + ^
STACK CFI INIT b23dc d8 .cfa: sp 0 + .ra: lr
STACK CFI b23e2 .cfa: sp 8 + r4: .cfa -8 + ^ r5: .cfa -4 + ^
STACK CFI b23e6 .cfa: sp 16 +
STACK CFI INIT b24b4 1b0 .cfa: sp 0 + .ra: lr
STACK CFI b24b8 .cfa: sp 36 + .ra: .cfa -4 + ^ r10: .cfa -12 + ^ r11: .cfa -8 + ^ r4: .cfa -36 + ^ r5: .cfa -32 + ^ r6: .cfa -28 + ^ r7: .cfa -24 + ^ r8: .cfa -20 + ^ r9: .cfa -16 + ^
STACK CFI b24ba .cfa: sp 120 +
STACK CFI INIT b2664 44 .cfa: sp 0 + .ra: lr
STACK CFI b2666 .cfa: sp 24 + .ra: .cfa -4 + ^ r3: .cfa -24 + ^ r4: .cfa -20 + ^ r5: .cfa -16 + ^ r6: .cfa -12 + ^ r7: .cfa -8 + ^
STACK CFI INIT b26a8 ac .cfa: sp 0 + .ra: lr
STACK CFI b26ac .cfa: sp 28 + .ra: .cfa -4 + ^ r4: .cfa -28 + ^ r5: .cfa -24 + ^ r6: .cfa -20 + ^ r7: .cfa -16 + ^ r8: .cfa -12 + ^ r9: .cfa -8 + ^
STACK CFI b26b2 .cfa: sp 40 +
STACK CFI INIT b2754 1c0 .cfa: sp 0 + .ra: lr
STACK CFI b2758 .cfa: sp 36 + .ra: .cfa -4 + ^ r10: .cfa -12 + ^ r11: .cfa -8 + ^ r4: .cfa -36 + ^ r5: .cfa -32 + ^ r6: .cfa -28 + ^ r7: .cfa -24 + ^ r8: .cfa -20 + ^ r9: .cfa -16 + ^
STACK CFI b275c .cfa: sp 96 +
STACK CFI INIT b2914 e .cfa: sp 0 + .ra: lr
STACK CFI INIT b2924 12 .cfa: sp 0 + .ra: lr
STACK CFI b292a .cfa: sp 8 + .ra: .cfa -4 + ^ r4: .cfa -8 + ^
STACK CFI INIT b2938 2 .cfa: sp 0 + .ra: lr
STACK CFI INIT b293c 102 .cfa: sp 0 + .ra: lr
STACK CFI b2942 .cfa: sp 8 + r4: .cfa -8 + ^ r5: .cfa -4 + ^
STACK CFI b2946 .cfa: sp 16 +
STACK CFI INIT b2a40 2e .cfa: sp 0 + .ra: lr
STACK CFI b2a42 .cfa: sp 16 + .ra: .cfa -4 + ^ r3: .cfa -16 + ^ r4: .cfa -12 + ^ r5: .cfa -8 + ^
STACK CFI INIT b2a70 494 .cfa: sp 0 + .ra: lr
STACK CFI b2a74 .cfa: sp 36 + .ra: .cfa -4 + ^ r10: .cfa -12 + ^ r11: .cfa -8 + ^ r4: .cfa -36 + ^ r5: .cfa -32 + ^ r6: .cfa -28 + ^ r7: .cfa -24 + ^ r8: .cfa -20 + ^ r9: .cfa -16 + ^
STACK CFI b2a76 .cfa: sp 280 +
STACK CFI b2a7a .cfa: r7 272 +
STACK CFI INIT b2f04 254 .cfa: sp 0 + .ra: lr
STACK CFI b2f06 .cfa: sp 8 +
STACK CFI b2f0a .cfa: sp 44 + .ra: .cfa -12 + ^ r10: .cfa -20 + ^ r11: .cfa -16 + ^ r4: .cfa -44 + ^ r5: .cfa -40 + ^ r6: .cfa -36 + ^ r7: .cfa -32 + ^ r8: .cfa -28 + ^ r9: .cfa -24 + ^
STACK CFI b2f0c .cfa: sp 120 +
STACK CFI INIT b3158 2a .cfa: sp 0 + .ra: lr
STACK CFI b315a .cfa: sp 8 +
STACK CFI b315c .cfa: sp 28 + .ra: .cfa -12 + ^ r4: .cfa -28 + ^ r5: .cfa -24 + ^ r6: .cfa -20 + ^ r7: .cfa -16 + ^
STACK CFI b315e .cfa: sp 56 +
STACK CFI INIT b3184 2a .cfa: sp 0 + .ra: lr
STACK CFI b3186 .cfa: sp 8 +
STACK CFI b3188 .cfa: sp 28 + .ra: .cfa -12 + ^ r4: .cfa -28 + ^ r5: .cfa -24 + ^ r6: .cfa -20 + ^ r7: .cfa -16 + ^
STACK CFI b318a .cfa: sp 56 +
STACK CFI INIT b31b0 68 .cfa: sp 0 + .ra: lr
STACK CFI b31b2 .cfa: sp 20 + .ra: .cfa -4 + ^ r4: .cfa -20 + ^ r5: .cfa -16 + ^ r6: .cfa -12 + ^ r7: .cfa -8 + ^
STACK CFI b31b4 .cfa: sp 32 +
STACK CFI INIT b3218 170 .cfa: sp 0 + .ra: lr
STACK CFI b321a .cfa: sp 16 + .ra: .cfa -4 + ^ r4: .cfa -16 + ^ r5: .cfa -12 + ^ r6: .cfa -8 + ^
STACK CFI b321c .cfa: sp 160 +
STACK CFI INIT b3388 e0 .cfa: sp 0 + .ra: lr
STACK CFI b338c .cfa: sp 28 + .ra: .cfa -4 + ^ r4: .cfa -28 + ^ r5: .cfa -24 + ^ r6: .cfa -20 + ^ r7: .cfa -16 + ^ r8: .cfa -12 + ^ r9: .cfa -8 + ^
STACK CFI b3392 .cfa: sp 56 +
STACK CFI INIT b3468 38 .cfa: sp 0 + .ra: lr
STACK CFI b346a .cfa: sp 4 + .ra: .cfa -4 + ^
STACK CFI b346c .cfa: sp 24 +
STACK CFI INIT b34a0 40 .cfa: sp 0 + .ra: lr
STACK CFI b34a2 .cfa: sp 8 + .ra: .cfa -4 + ^ r4: .cfa -8 + ^
STACK CFI b34a4 .cfa: sp 120 +
STACK CFI INIT b34e0 48 .cfa: sp 0 + .ra: lr
STACK CFI b34e2 .cfa: sp 12 + .ra: .cfa -4 + ^ r4: .cfa -12 + ^ r5: .cfa -8 + ^
STACK CFI b34e4 .cfa: sp 48 +
STACK CFI INIT b3528 48 .cfa: sp 0 + .ra: lr
STACK CFI b352a .cfa: sp 12 + .ra: .cfa -4 + ^ r4: .cfa -12 + ^ r5: .cfa -8 + ^
STACK CFI b352c .cfa: sp 48 +
STACK CFI INIT b3570 7c .cfa: sp 0 + .ra: lr
STACK CFI b3572 .cfa: sp 12 + .ra: .cfa -4 + ^ r4: .cfa -12 + ^ r5: .cfa -8 + ^
STACK CFI b3574 .cfa: sp 56 +
STACK CFI INIT b35ec 7c .cfa: sp 0 + .ra: lr
STACK CFI b35ee .cfa: sp 12 + .ra: .cfa -4 + ^ r4: .cfa -12 + ^ r5: .cfa -8 + ^
STACK CFI b35f0 .cfa: sp 56 +
STACK CFI INIT b3668 a8 .cfa: sp 0 + .ra: lr
STACK CFI b366c .cfa: sp 24 + .ra: .cfa -4 + ^ r4: .cfa -24 + ^ r5: .cfa -20 + ^ r6: .cfa -16 + ^ r7: .cfa -12 + ^ r8: .cfa -8 + ^
STACK CFI b366e .cfa: sp 64 +
STACK CFI INIT b3710 3c .cfa: sp 0 + .ra: lr
STACK CFI b3712 .cfa: sp 4 + .ra: .cfa -4 + ^
STACK CFI b3714 .cfa: sp 24 +
STACK CFI INIT b374c 40 .cfa: sp 0 + .ra: lr
STACK CFI b374e .cfa: sp 8 + .ra: .cfa -4 + ^ r4: .cfa -8 + ^
STACK CFI b3750 .cfa: sp 32 +
STACK CFI INIT b378c 30 .cfa: sp 0 + .ra: lr
STACK CFI b378e .cfa: sp 8 + .ra: .cfa -4 + ^ r4: .cfa -8 + ^
STACK CFI INIT b37bc 74 .cfa: sp 0 + .ra: lr
STACK CFI b37be .cfa: sp 16 + .ra: .cfa -4 + ^ r4: .cfa -16 + ^ r5: .cfa -12 + ^ r6: .cfa -8 + ^
STACK CFI b37c0 .cfa: sp 280 +
STACK CFI INIT b3830 d0 .cfa: sp 0 + .ra: lr
STACK CFI b3834 .cfa: sp 24 + .ra: .cfa -4 + ^ r4: .cfa -24 + ^ r5: .cfa -20 + ^ r6: .cfa -16 + ^ r7: .cfa -12 + ^ r8: .cfa -8 + ^
STACK CFI b3836 .cfa: sp 168 +
STACK CFI INIT b3900 1e .cfa: sp 0 + .ra: lr
STACK CFI b3902 .cfa: sp 8 + .ra: .cfa -4 + ^ r4: .cfa -8 + ^
STACK CFI INIT b3920 b4 .cfa: sp 0 + .ra: lr
STACK CFI b3924 .cfa: sp 36 + .ra: .cfa -4 + ^ r10: .cfa -12 + ^ r11: .cfa -8 + ^ r4: .cfa -36 + ^ r5: .cfa -32 + ^ r6: .cfa -28 + ^ r7: .cfa -24 + ^ r8: .cfa -20 + ^ r9: .cfa -16 + ^
STACK CFI b392c .cfa: sp 64 +
STACK CFI INIT b39d4 38 .cfa: sp 0 + .ra: lr
STACK CFI b39d6 .cfa: sp 24 + .ra: .cfa -4 + ^ r3: .cfa -24 + ^ r4: .cfa -20 + ^ r5: .cfa -16 + ^ r6: .cfa -12 + ^ r7: .cfa -8 + ^
STACK CFI INIT b3a0c 54 .cfa: sp 0 + .ra: lr
STACK CFI b3a0e .cfa: sp 16 + .ra: .cfa -4 + ^ r4: .cfa -16 + ^ r5: .cfa -12 + ^ r6: .cfa -8 + ^
STACK CFI b3a12 .cfa: sp 32 +
STACK CFI INIT b3a60 114 .cfa: sp 0 + .ra: lr
STACK CFI b3a64 .cfa: sp 32 + .ra: .cfa -4 + ^ r10: .cfa -8 + ^ r4: .cfa -32 + ^ r5: .cfa -28 + ^ r6: .cfa -24 + ^ r7: .cfa -20 + ^ r8: .cfa -16 + ^ r9: .cfa -12 + ^
STACK CFI b3a66 .cfa: sp 88 +
STACK CFI INIT b3b74 14 .cfa: sp 0 + .ra: lr
STACK CFI b3b76 .cfa: sp 12 + .ra: .cfa -4 + ^ r4: .cfa -12 + ^ r5: .cfa -8 + ^
STACK CFI b3b78 .cfa: sp 24 +
STACK CFI INIT b3b88 1c .cfa: sp 0 + .ra: lr
STACK CFI INIT bd99c 7c .cfa: sp 0 + .ra: lr
STACK CFI bd99e .cfa: sp 16 + .ra: .cfa -4 + ^ r3: .cfa -16 + ^ r4: .cfa -12 + ^ r5: .cfa -8 + ^
STACK CFI INIT b3ba4 94 .cfa: sp 0 + .ra: lr
STACK CFI b3ba8 .cfa: sp 8 + .ra: .cfa -4 + ^ r4: .cfa -8 + ^
STACK CFI INIT b3c38 28 .cfa: sp 0 + .ra: lr
STACK CFI b3c3a .cfa: sp 8 + .ra: .cfa -4 + ^ r3: .cfa -8 + ^
STACK CFI INIT b3c60 28 .cfa: sp 0 + .ra: lr
STACK CFI b3c62 .cfa: sp 8 + .ra: .cfa -4 + ^ r3: .cfa -8 + ^
STACK CFI INIT b3c88 28 .cfa: sp 0 + .ra: lr
STACK CFI b3c8a .cfa: sp 8 + .ra: .cfa -4 + ^ r3: .cfa -8 + ^
STACK CFI INIT b3cb0 28 .cfa: sp 0 + .ra: lr
STACK CFI b3cb2 .cfa: sp 8 + .ra: .cfa -4 + ^ r3: .cfa -8 + ^
STACK CFI INIT b3cd8 3c .cfa: sp 0 + .ra: lr
STACK CFI b3cdc .cfa: sp 24 + .ra: .cfa -4 + ^ r4: .cfa -24 + ^ r5: .cfa -20 + ^ r6: .cfa -16 + ^ r7: .cfa -12 + ^ r8: .cfa -8 + ^
STACK CFI INIT b3d14 d6 .cfa: sp 0 + .ra: lr
STACK CFI b3d18 .cfa: sp 24 + .ra: .cfa -4 + ^ r4: .cfa -24 + ^ r5: .cfa -20 + ^ r6: .cfa -16 + ^ r7: .cfa -12 + ^ r8: .cfa -8 + ^
STACK CFI INIT b3dec 94 .cfa: sp 0 + .ra: lr
STACK CFI b3df0 .cfa: sp 24 + .ra: .cfa -4 + ^ r4: .cfa -24 + ^ r5: .cfa -20 + ^ r6: .cfa -16 + ^ r7: .cfa -12 + ^ r8: .cfa -8 + ^
STACK CFI INIT b3e80 6e .cfa: sp 0 + .ra: lr
STACK CFI b3e84 .cfa: sp 24 + .ra: .cfa -4 + ^ r4: .cfa -24 + ^ r5: .cfa -20 + ^ r6: .cfa -16 + ^ r7: .cfa -12 + ^ r8: .cfa -8 + ^
STACK CFI b3e88 .cfa: sp 32 +
STACK CFI INIT b3ef0 4c .cfa: sp 0 + .ra: lr
STACK CFI b3ef2 .cfa: sp 16 + .ra: .cfa -4 + ^ r4: .cfa -16 + ^ r5: .cfa -12 + ^ r6: .cfa -8 + ^
STACK CFI b3ef4 .cfa: sp 24 +
STACK CFI INIT b3f3c 30 .cfa: sp 0 + .ra: lr
STACK CFI b3f42 .cfa: sp 20 + .ra: .cfa -4 + ^ r4: .cfa -20 + ^ r5: .cfa -16 + ^ r6: .cfa -12 + ^ r7: .cfa -8 + ^
STACK CFI b3f48 .cfa: sp 72 +
STACK CFI INIT b3f6c 2c .cfa: sp 0 + .ra: lr
STACK CFI b3f74 .cfa: sp 20 + .ra: .cfa -4 + ^ r4: .cfa -20 + ^ r5: .cfa -16 + ^ r6: .cfa -12 + ^ r7: .cfa -8 + ^
STACK CFI b3f76 .cfa: sp 72 +
STACK CFI INIT b3f98 2c .cfa: sp 0 + .ra: lr
STACK CFI b3fa0 .cfa: sp 20 + .ra: .cfa -4 + ^ r4: .cfa -20 + ^ r5: .cfa -16 + ^ r6: .cfa -12 + ^ r7: .cfa -8 + ^
STACK CFI b3fa2 .cfa: sp 72 +
STACK CFI INIT b3fc4 2c .cfa: sp 0 + .ra: lr
STACK CFI b3fcc .cfa: sp 20 + .ra: .cfa -4 + ^ r4: .cfa -20 + ^ r5: .cfa -16 + ^ r6: .cfa -12 + ^ r7: .cfa -8 + ^
STACK CFI b3fce .cfa: sp 72 +
STACK CFI INIT b3ff0 1c .cfa: sp 0 + .ra: lr
STACK CFI b3ff6 .cfa: sp 4 + .ra: .cfa -4 + ^
STACK CFI b3ff8 .cfa: sp 56 +
STACK CFI INIT b400c 1c .cfa: sp 0 + .ra: lr
STACK CFI b4012 .cfa: sp 8 + .ra: .cfa -4 + ^ r4: .cfa -8 + ^
STACK CFI b4014 .cfa: sp 56 +
STACK CFI INIT b4028 2a .cfa: sp 0 + .ra: lr
STACK CFI b4030 .cfa: sp 16 + .ra: .cfa -4 + ^ r4: .cfa -16 + ^ r5: .cfa -12 + ^ r6: .cfa -8 + ^
STACK CFI b4032 .cfa: sp 64 +
STACK CFI INIT b4054 32 .cfa: sp 0 + .ra: lr
STACK CFI b405a .cfa: sp 20 + .ra: .cfa -4 + ^ r4: .cfa -20 + ^ r5: .cfa -16 + ^ r6: .cfa -12 + ^ r7: .cfa -8 + ^
STACK CFI b4060 .cfa: sp 72 +
STACK CFI INIT b4088 12c .cfa: sp 0 + .ra: lr
STACK CFI b408c .cfa: sp 36 + .ra: .cfa -4 + ^ r10: .cfa -12 + ^ r11: .cfa -8 + ^ r4: .cfa -36 + ^ r5: .cfa -32 + ^ r6: .cfa -28 + ^ r7: .cfa -24 + ^ r8: .cfa -20 + ^ r9: .cfa -16 + ^
STACK CFI b4090 .cfa: sp 1376 +
STACK CFI INIT b41b4 54 .cfa: sp 0 + .ra: lr
STACK CFI b41b8 .cfa: sp 32 + .ra: .cfa -4 + ^ r3: .cfa -32 + ^ r4: .cfa -28 + ^ r5: .cfa -24 + ^ r6: .cfa -20 + ^ r7: .cfa -16 + ^ r8: .cfa -12 + ^ r9: .cfa -8 + ^
STACK CFI INIT b4208 26 .cfa: sp 0 + .ra: lr
STACK CFI b420a .cfa: sp 4 + .ra: .cfa -4 + ^
STACK CFI b420c .cfa: sp 136 +
STACK CFI INIT b4230 5a .cfa: sp 0 + .ra: lr
STACK CFI b4234 .cfa: sp 32 + .ra: .cfa -4 + ^ r3: .cfa -32 + ^ r4: .cfa -28 + ^ r5: .cfa -24 + ^ r6: .cfa -20 + ^ r7: .cfa -16 + ^ r8: .cfa -12 + ^ r9: .cfa -8 + ^
STACK CFI INIT b428c 3c .cfa: sp 0 + .ra: lr
STACK CFI b4294 .cfa: sp 4 + .ra: .cfa -4 + ^
STACK CFI b429a .cfa: sp 16 +
STACK CFI INIT b42c8 1c .cfa: sp 0 + .ra: lr
STACK CFI b42ca .cfa: sp 8 + .ra: .cfa -4 + ^ r4: .cfa -8 + ^
STACK CFI INIT b42e4 4 .cfa: sp 0 + .ra: lr
STACK CFI INIT b42e8 e .cfa: sp 0 + .ra: lr
STACK CFI b42ec .cfa: sp 8 + .ra: .cfa -4 + ^ r3: .cfa -8 + ^
STACK CFI INIT b42f8 12 .cfa: sp 0 + .ra: lr
STACK CFI b42fe .cfa: sp 8 + .ra: .cfa -4 + ^ r4: .cfa -8 + ^
STACK CFI INIT b430c 36 .cfa: sp 0 + .ra: lr
STACK CFI b430e .cfa: sp 16 + .ra: .cfa -4 + ^ r3: .cfa -16 + ^ r4: .cfa -12 + ^ r5: .cfa -8 + ^
STACK CFI INIT b4344 6 .cfa: sp 0 + .ra: lr
STACK CFI b4346 .cfa: sp 8 + .ra: .cfa -4 + ^ r3: .cfa -8 + ^
STACK CFI INIT b434c c8 .cfa: sp 0 + .ra: lr
STACK CFI b4350 .cfa: sp 32 + .ra: .cfa -4 + ^ r10: .cfa -8 + ^ r4: .cfa -32 + ^ r5: .cfa -28 + ^ r6: .cfa -24 + ^ r7: .cfa -20 + ^ r8: .cfa -16 + ^ r9: .cfa -12 + ^
STACK CFI b4354 .cfa: sp 40 +
STACK CFI INIT b4414 68 .cfa: sp 0 + .ra: lr
STACK CFI b4418 .cfa: sp 28 + .ra: .cfa -4 + ^ r4: .cfa -28 + ^ r5: .cfa -24 + ^ r6: .cfa -20 + ^ r7: .cfa -16 + ^ r8: .cfa -12 + ^ r9: .cfa -8 + ^
STACK CFI b441a .cfa: sp 56 +
STACK CFI INIT b447c 24 .cfa: sp 0 + .ra: lr
STACK CFI b447e .cfa: sp 16 + .ra: .cfa -4 + ^ r3: .cfa -16 + ^ r4: .cfa -12 + ^ r5: .cfa -8 + ^
STACK CFI INIT b44a0 1a .cfa: sp 0 + .ra: lr
STACK CFI b44a2 .cfa: sp 8 + .ra: .cfa -4 + ^ r3: .cfa -8 + ^
STACK CFI INIT b44bc 2c .cfa: sp 0 + .ra: lr
STACK CFI b44be .cfa: sp 24 + .ra: .cfa -4 + ^ r3: .cfa -24 + ^ r4: .cfa -20 + ^ r5: .cfa -16 + ^ r6: .cfa -12 + ^ r7: .cfa -8 + ^
STACK CFI INIT b44e8 38 .cfa: sp 0 + .ra: lr
STACK CFI b44ea .cfa: sp 24 + .ra: .cfa -4 + ^ r3: .cfa -24 + ^ r4: .cfa -20 + ^ r5: .cfa -16 + ^ r6: .cfa -12 + ^ r7: .cfa -8 + ^
STACK CFI INIT b4520 74 .cfa: sp 0 + .ra: lr
STACK CFI b4524 .cfa: sp 32 + .ra: .cfa -4 + ^ r10: .cfa -8 + ^ r4: .cfa -32 + ^ r5: .cfa -28 + ^ r6: .cfa -24 + ^ r7: .cfa -20 + ^ r8: .cfa -16 + ^ r9: .cfa -12 + ^
STACK CFI b452c .cfa: sp 40 +
STACK CFI INIT b4594 174 .cfa: sp 0 + .ra: lr
STACK CFI b4598 .cfa: sp 32 + .ra: .cfa -4 + ^ r10: .cfa -8 + ^ r4: .cfa -32 + ^ r5: .cfa -28 + ^ r6: .cfa -24 + ^ r7: .cfa -20 + ^ r8: .cfa -16 + ^ r9: .cfa -12 + ^
STACK CFI b459a .cfa: sp 56 +
STACK CFI INIT b4708 2 .cfa: sp 0 + .ra: lr
STACK CFI INIT b470c 4 .cfa: sp 0 + .ra: lr
STACK CFI INIT b4710 e .cfa: sp 0 + .ra: lr
STACK CFI b4714 .cfa: sp 8 + .ra: .cfa -4 + ^ r3: .cfa -8 + ^
STACK CFI INIT b4720 12 .cfa: sp 0 + .ra: lr
STACK CFI b4726 .cfa: sp 8 + .ra: .cfa -4 + ^ r4: .cfa -8 + ^
STACK CFI INIT b4734 32 .cfa: sp 0 + .ra: lr
STACK CFI b4736 .cfa: sp 16 + .ra: .cfa -4 + ^ r3: .cfa -16 + ^ r4: .cfa -12 + ^ r5: .cfa -8 + ^
STACK CFI INIT b4768 23c .cfa: sp 0 + .ra: lr
STACK CFI b476c .cfa: sp 36 + .ra: .cfa -4 + ^ r10: .cfa -12 + ^ r11: .cfa -8 + ^ r4: .cfa -36 + ^ r5: .cfa -32 + ^ r6: .cfa -28 + ^ r7: .cfa -24 + ^ r8: .cfa -20 + ^ r9: .cfa -16 + ^
STACK CFI b4770 .cfa: sp 64 +
STACK CFI INIT b49a4 1ec .cfa: sp 0 + .ra: lr
STACK CFI b49a8 .cfa: sp 32 + .ra: .cfa -4 + ^ r10: .cfa -8 + ^ r4: .cfa -32 + ^ r5: .cfa -28 + ^ r6: .cfa -24 + ^ r7: .cfa -20 + ^ r8: .cfa -16 + ^ r9: .cfa -12 + ^
STACK CFI b49b0 .cfa: sp 40 +
STACK CFI INIT b4b90 1b4 .cfa: sp 0 + .ra: lr
STACK CFI b4b94 .cfa: sp 32 + .ra: .cfa -4 + ^ r10: .cfa -8 + ^ r4: .cfa -32 + ^ r5: .cfa -28 + ^ r6: .cfa -24 + ^ r7: .cfa -20 + ^ r8: .cfa -16 + ^ r9: .cfa -12 + ^
STACK CFI b4b96 .cfa: sp 64 +
STACK CFI INIT b4d44 8 .cfa: sp 0 + .ra: lr
STACK CFI INIT b4d4c f8 .cfa: sp 0 + .ra: lr
STACK CFI b4d4e .cfa: sp 24 + .ra: .cfa -4 + ^ r3: .cfa -24 + ^ r4: .cfa -20 + ^ r5: .cfa -16 + ^ r6: .cfa -12 + ^ r7: .cfa -8 + ^
STACK CFI INIT b4e44 e4 .cfa: sp 0 + .ra: lr
STACK CFI b4e48 .cfa: sp 40 + .ra: .cfa -4 + ^ r10: .cfa -12 + ^ r11: .cfa -8 + ^ r3: .cfa -40 + ^ r4: .cfa -36 + ^ r5: .cfa -32 + ^ r6: .cfa -28 + ^ r7: .cfa -24 + ^ r8: .cfa -20 + ^ r9: .cfa -16 + ^
STACK CFI INIT b4f28 36 .cfa: sp 0 + .ra: lr
STACK CFI b4f2c .cfa: sp 32 + .ra: .cfa -4 + ^ r3: .cfa -32 + ^ r4: .cfa -28 + ^ r5: .cfa -24 + ^ r6: .cfa -20 + ^ r7: .cfa -16 + ^ r8: .cfa -12 + ^ r9: .cfa -8 + ^
STACK CFI INIT b4f60 68 .cfa: sp 0 + .ra: lr
STACK CFI b4f62 .cfa: sp 16 + .ra: .cfa -4 + ^ r3: .cfa -16 + ^ r4: .cfa -12 + ^ r5: .cfa -8 + ^
STACK CFI INIT b4fc8 18 .cfa: sp 0 + .ra: lr
STACK CFI b4fca .cfa: sp 4 + .ra: .cfa -4 + ^
STACK CFI b4fcc .cfa: sp 32 +
STACK CFI INIT b4fe0 4 .cfa: sp 0 + .ra: lr
STACK CFI INIT b4fe4 22 .cfa: sp 0 + .ra: lr
STACK CFI b4fe6 .cfa: sp 8 + .ra: .cfa -4 + ^ r3: .cfa -8 + ^
STACK CFI INIT b5008 2 .cfa: sp 0 + .ra: lr
STACK CFI INIT b500c 38 .cfa: sp 0 + .ra: lr
STACK CFI b500e .cfa: sp 12 + .ra: .cfa -4 + ^ r4: .cfa -12 + ^ r5: .cfa -8 + ^
STACK CFI b5014 .cfa: sp 24 +
STACK CFI INIT b5044 2 .cfa: sp 0 + .ra: lr
STACK CFI INIT b5048 70 .cfa: sp 0 + .ra: lr
STACK CFI b504a .cfa: sp 16 + .ra: .cfa -4 + ^ r4: .cfa -16 + ^ r5: .cfa -12 + ^ r6: .cfa -8 + ^
STACK CFI b5050 .cfa: sp 24 +
STACK CFI INIT b50b8 70 .cfa: sp 0 + .ra: lr
STACK CFI b50ba .cfa: sp 16 + .ra: .cfa -4 + ^ r4: .cfa -16 + ^ r5: .cfa -12 + ^ r6: .cfa -8 + ^
STACK CFI b50c0 .cfa: sp 24 +
STACK CFI INIT b5128 2 .cfa: sp 0 + .ra: lr
STACK CFI INIT b512c 2 .cfa: sp 0 + .ra: lr
STACK CFI INIT b5130 42 .cfa: sp 0 + .ra: lr
STACK CFI b5132 .cfa: sp 12 + .ra: .cfa -4 + ^ r4: .cfa -12 + ^ r5: .cfa -8 + ^
STACK CFI b5138 .cfa: sp 24 +
STACK CFI INIT b5174 40 .cfa: sp 0 + .ra: lr
STACK CFI b5176 .cfa: sp 12 + .ra: .cfa -4 + ^ r4: .cfa -12 + ^ r5: .cfa -8 + ^
STACK CFI b517c .cfa: sp 24 +
STACK CFI INIT b51b4 1e .cfa: sp 0 + .ra: lr
STACK CFI b51b6 .cfa: sp 8 + .ra: .cfa -4 + ^ r4: .cfa -8 + ^
STACK CFI b51ba .cfa: sp 16 +
STACK CFI INIT b51d4 1e .cfa: sp 0 + .ra: lr
STACK CFI b51d6 .cfa: sp 8 + .ra: .cfa -4 + ^ r4: .cfa -8 + ^
STACK CFI b51da .cfa: sp 16 +
STACK CFI INIT b51f4 4c .cfa: sp 0 + .ra: lr
STACK CFI b51f6 .cfa: sp 12 + .ra: .cfa -4 + ^ r4: .cfa -12 + ^ r5: .cfa -8 + ^
STACK CFI b51fc .cfa: sp 24 +
STACK CFI INIT b5240 2 .cfa: sp 0 + .ra: lr
STACK CFI INIT b5244 8 .cfa: sp 0 + .ra: lr
STACK CFI INIT b524c b4 .cfa: sp 0 + .ra: lr
STACK CFI b5250 .cfa: sp 24 + .ra: .cfa -4 + ^ r4: .cfa -24 + ^ r5: .cfa -20 + ^ r6: .cfa -16 + ^ r7: .cfa -12 + ^ r8: .cfa -8 + ^
STACK CFI b5254 .cfa: sp 32 +
STACK CFI INIT b5300 a .cfa: sp 0 + .ra: lr
STACK CFI INIT b530c 58 .cfa: sp 0 + .ra: lr
STACK CFI b5310 .cfa: sp 24 + .ra: .cfa -4 + ^ r4: .cfa -24 + ^ r5: .cfa -20 + ^ r6: .cfa -16 + ^ r7: .cfa -12 + ^ r8: .cfa -8 + ^
STACK CFI INIT b5364 b8 .cfa: sp 0 + .ra: lr
STACK CFI b536a .cfa: sp 24 + .ra: .cfa -4 + ^ r4: .cfa -24 + ^ r5: .cfa -20 + ^ r6: .cfa -16 + ^ r7: .cfa -12 + ^ r8: .cfa -8 + ^
STACK CFI b536e .cfa: sp 32 +
STACK CFI INIT b541c 12 .cfa: sp 0 + .ra: lr
STACK CFI b541e .cfa: sp 8 + .ra: .cfa -4 + ^ r3: .cfa -8 + ^
STACK CFI INIT b5430 6e .cfa: sp 0 + .ra: lr
STACK CFI b5432 .cfa: sp 16 + .ra: .cfa -4 + ^ r4: .cfa -16 + ^ r5: .cfa -12 + ^ r6: .cfa -8 + ^
STACK CFI b5438 .cfa: sp 24 +
STACK CFI INIT b54a0 2 .cfa: sp 0 + .ra: lr
STACK CFI INIT b54a4 6e .cfa: sp 0 + .ra: lr
STACK CFI b54a6 .cfa: sp 16 + .ra: .cfa -4 + ^ r4: .cfa -16 + ^ r5: .cfa -12 + ^ r6: .cfa -8 + ^
STACK CFI b54ac .cfa: sp 24 +
STACK CFI INIT b5514 2 .cfa: sp 0 + .ra: lr
STACK CFI INIT b5518 22 .cfa: sp 0 + .ra: lr
STACK CFI b551c .cfa: sp 8 + .ra: .cfa -4 + ^ r3: .cfa -8 + ^
STACK CFI INIT b553c 22 .cfa: sp 0 + .ra: lr
STACK CFI b5540 .cfa: sp 8 + .ra: .cfa -4 + ^ r3: .cfa -8 + ^
STACK CFI INIT b5560 42 .cfa: sp 0 + .ra: lr
STACK CFI b5562 .cfa: sp 12 + .ra: .cfa -4 + ^ r4: .cfa -12 + ^ r5: .cfa -8 + ^
STACK CFI b5568 .cfa: sp 24 +
STACK CFI INIT b55a4 40 .cfa: sp 0 + .ra: lr
STACK CFI b55a6 .cfa: sp 12 + .ra: .cfa -4 + ^ r4: .cfa -12 + ^ r5: .cfa -8 + ^
STACK CFI b55ac .cfa: sp 24 +
STACK CFI INIT b55e4 42 .cfa: sp 0 + .ra: lr
STACK CFI b55e6 .cfa: sp 12 + .ra: .cfa -4 + ^ r4: .cfa -12 + ^ r5: .cfa -8 + ^
STACK CFI b55ec .cfa: sp 24 +
STACK CFI INIT b5628 40 .cfa: sp 0 + .ra: lr
STACK CFI b562a .cfa: sp 12 + .ra: .cfa -4 + ^ r4: .cfa -12 + ^ r5: .cfa -8 + ^
STACK CFI b5630 .cfa: sp 24 +
STACK CFI INIT b5668 2 .cfa: sp 0 + .ra: lr
STACK CFI INIT b566c 8 .cfa: sp 0 + .ra: lr
STACK CFI INIT b5674 2a .cfa: sp 0 + .ra: lr
STACK CFI b5676 .cfa: sp 4 + r4: .cfa -4 + ^
STACK CFI INIT b56a0 1a .cfa: sp 0 + .ra: lr
STACK CFI INIT b56bc 26 .cfa: sp 0 + .ra: lr
STACK CFI b56c2 .cfa: sp 4 + r4: .cfa -4 + ^
STACK CFI INIT b56e4 26 .cfa: sp 0 + .ra: lr
STACK CFI b56ea .cfa: sp 4 + r4: .cfa -4 + ^
STACK CFI INIT b570c 24 .cfa: sp 0 + .ra: lr
STACK CFI b5712 .cfa: sp 8 + r4: .cfa -8 + ^ r5: .cfa -4 + ^
STACK CFI INIT b5730 26 .cfa: sp 0 + .ra: lr
STACK CFI b5736 .cfa: sp 4 + r4: .cfa -4 + ^
STACK CFI INIT b5758 24 .cfa: sp 0 + .ra: lr
STACK CFI b575a .cfa: sp 16 + .ra: .cfa -4 + ^ r3: .cfa -16 + ^ r4: .cfa -12 + ^ r5: .cfa -8 + ^
STACK CFI INIT b577c 26 .cfa: sp 0 + .ra: lr
STACK CFI b577e .cfa: sp 16 + .ra: .cfa -4 + ^ r3: .cfa -16 + ^ r4: .cfa -12 + ^ r5: .cfa -8 + ^
STACK CFI INIT b57a4 1c .cfa: sp 0 + .ra: lr
STACK CFI b57a6 .cfa: sp 4 + r4: .cfa -4 + ^
STACK CFI INIT b57c0 8c .cfa: sp 0 + .ra: lr
STACK CFI b57c2 .cfa: sp 20 + .ra: .cfa -4 + ^ r4: .cfa -20 + ^ r5: .cfa -16 + ^ r6: .cfa -12 + ^ r7: .cfa -8 + ^
STACK CFI b57c8 .cfa: sp 32 +
STACK CFI INIT b584c 44 .cfa: sp 0 + .ra: lr
STACK CFI b5850 .cfa: sp 24 + .ra: .cfa -4 + ^ r4: .cfa -24 + ^ r5: .cfa -20 + ^ r6: .cfa -16 + ^ r7: .cfa -12 + ^ r8: .cfa -8 + ^
STACK CFI b5854 .cfa: sp 32 +
STACK CFI INIT b5890 c .cfa: sp 0 + .ra: lr
STACK CFI INIT b589c c .cfa: sp 0 + .ra: lr
STACK CFI INIT b58a8 4 .cfa: sp 0 + .ra: lr
STACK CFI INIT b58ac 4 .cfa: sp 0 + .ra: lr
STACK CFI INIT b58b0 4 .cfa: sp 0 + .ra: lr
STACK CFI INIT b58b4 c .cfa: sp 0 + .ra: lr
STACK CFI INIT b58c0 16 .cfa: sp 0 + .ra: lr
STACK CFI b58c2 .cfa: sp 16 + .ra: .cfa -4 + ^ r3: .cfa -16 + ^ r4: .cfa -12 + ^ r5: .cfa -8 + ^
STACK CFI INIT b58d8 42 .cfa: sp 0 + .ra: lr
STACK CFI b58da .cfa: sp 16 + .ra: .cfa -4 + ^ r3: .cfa -16 + ^ r4: .cfa -12 + ^ r5: .cfa -8 + ^
STACK CFI INIT b591c 94 .cfa: sp 0 + .ra: lr
STACK CFI b5920 .cfa: sp 28 + .ra: .cfa -4 + ^ r4: .cfa -28 + ^ r5: .cfa -24 + ^ r6: .cfa -20 + ^ r7: .cfa -16 + ^ r8: .cfa -12 + ^ r9: .cfa -8 + ^
STACK CFI b5922 .cfa: sp 96 +
STACK CFI INIT b59b0 4 .cfa: sp 0 + .ra: lr
STACK CFI INIT b59b4 24 .cfa: sp 0 + .ra: lr
STACK CFI b59b6 .cfa: sp 8 + .ra: .cfa -4 + ^ r4: .cfa -8 + ^
STACK CFI b59b8 .cfa: sp 16 +
STACK CFI INIT b59d8 24 .cfa: sp 0 + .ra: lr
STACK CFI b59da .cfa: sp 8 + .ra: .cfa -4 + ^ r4: .cfa -8 + ^
STACK CFI b59dc .cfa: sp 16 +
STACK CFI INIT b59fc 24 .cfa: sp 0 + .ra: lr
STACK CFI b59fe .cfa: sp 8 + .ra: .cfa -4 + ^ r4: .cfa -8 + ^
STACK CFI b5a00 .cfa: sp 16 +
STACK CFI INIT b5a20 24 .cfa: sp 0 + .ra: lr
STACK CFI b5a22 .cfa: sp 8 + .ra: .cfa -4 + ^ r4: .cfa -8 + ^
STACK CFI b5a24 .cfa: sp 16 +
STACK CFI INIT b5a44 6 .cfa: sp 0 + .ra: lr
STACK CFI INIT b5a4c 10 .cfa: sp 0 + .ra: lr
STACK CFI b5a4e .cfa: sp 8 + .ra: .cfa -4 + ^ r3: .cfa -8 + ^
STACK CFI INIT b5a5c 6 .cfa: sp 0 + .ra: lr
STACK CFI INIT b5a64 1e .cfa: sp 0 + .ra: lr
STACK CFI b5a66 .cfa: sp 8 + .ra: .cfa -4 + ^ r3: .cfa -8 + ^
STACK CFI INIT b5a84 1e .cfa: sp 0 + .ra: lr
STACK CFI b5a86 .cfa: sp 8 + .ra: .cfa -4 + ^ r3: .cfa -8 + ^
STACK CFI INIT b5aa4 1c .cfa: sp 0 + .ra: lr
STACK CFI b5aa6 .cfa: sp 4 + r4: .cfa -4 + ^
STACK CFI INIT b5ac0 1a .cfa: sp 0 + .ra: lr
STACK CFI b5ac2 .cfa: sp 16 + .ra: .cfa -4 + ^ r3: .cfa -16 + ^ r4: .cfa -12 + ^ r5: .cfa -8 + ^
STACK CFI INIT b5adc dc .cfa: sp 0 + .ra: lr
STACK CFI b5ae0 .cfa: sp 40 + .ra: .cfa -4 + ^ r10: .cfa -12 + ^ r11: .cfa -8 + ^ r3: .cfa -40 + ^ r4: .cfa -36 + ^ r5: .cfa -32 + ^ r6: .cfa -28 + ^ r7: .cfa -24 + ^ r8: .cfa -20 + ^ r9: .cfa -16 + ^
STACK CFI INIT b5bb8 88 .cfa: sp 0 + .ra: lr
STACK CFI b5bbc .cfa: sp 16 + r4: .cfa -16 + ^ r5: .cfa -12 + ^ r6: .cfa -8 + ^ r7: .cfa -4 + ^
STACK CFI INIT b5c40 3c .cfa: sp 0 + .ra: lr
STACK CFI b5c44 .cfa: sp 16 + r4: .cfa -16 + ^ r5: .cfa -12 + ^ r6: .cfa -8 + ^ r7: .cfa -4 + ^
STACK CFI INIT b5c7c 46 .cfa: sp 0 + .ra: lr
STACK CFI b5c82 .cfa: sp 4 + r4: .cfa -4 + ^
STACK CFI INIT b5cc4 6c .cfa: sp 0 + .ra: lr
STACK CFI b5cc8 .cfa: sp 24 + .ra: .cfa -4 + ^ r4: .cfa -24 + ^ r5: .cfa -20 + ^ r6: .cfa -16 + ^ r7: .cfa -12 + ^ r8: .cfa -8 + ^
STACK CFI b5cca .cfa: sp 48 +
STACK CFI INIT b5d30 6c .cfa: sp 0 + .ra: lr
STACK CFI b5d34 .cfa: sp 24 + .ra: .cfa -4 + ^ r4: .cfa -24 + ^ r5: .cfa -20 + ^ r6: .cfa -16 + ^ r7: .cfa -12 + ^ r8: .cfa -8 + ^
STACK CFI b5d36 .cfa: sp 48 +
STACK CFI INIT b5d9c ba .cfa: sp 0 + .ra: lr
STACK CFI b5d9e .cfa: sp 4 + r4: .cfa -4 + ^
STACK CFI INIT b5e58 2c4 .cfa: sp 0 + .ra: lr
STACK CFI b5e5c .cfa: sp 36 + .ra: .cfa -4 + ^ r10: .cfa -12 + ^ r11: .cfa -8 + ^ r4: .cfa -36 + ^ r5: .cfa -32 + ^ r6: .cfa -28 + ^ r7: .cfa -24 + ^ r8: .cfa -20 + ^ r9: .cfa -16 + ^
STACK CFI b5e5e .cfa: sp 136 +
STACK CFI INIT bd6c4 1c .cfa: sp 0 + .ra: lr
STACK CFI INIT b611c 30 .cfa: sp 0 + .ra: lr
STACK CFI b611e .cfa: sp 20 + .ra: .cfa -4 + ^ r4: .cfa -20 + ^ r5: .cfa -16 + ^ r6: .cfa -12 + ^ r7: .cfa -8 + ^
STACK CFI b6122 .cfa: sp 40 +
STACK CFI INIT b614c 38 .cfa: sp 0 + .ra: lr
STACK CFI b6150 .cfa: sp 24 + .ra: .cfa -4 + ^ r4: .cfa -24 + ^ r5: .cfa -20 + ^ r6: .cfa -16 + ^ r7: .cfa -12 + ^ r8: .cfa -8 + ^
STACK CFI b6152 .cfa: sp 56 +
STACK CFI INIT b6184 48a .cfa: sp 0 + .ra: lr
STACK CFI b6188 .cfa: sp 36 + .ra: .cfa -4 + ^ r10: .cfa -12 + ^ r11: .cfa -8 + ^ r4: .cfa -36 + ^ r5: .cfa -32 + ^ r6: .cfa -28 + ^ r7: .cfa -24 + ^ r8: .cfa -20 + ^ r9: .cfa -16 + ^
STACK CFI b618a .cfa: sp 152 +
STACK CFI b618c .cfa: r7 144 +
STACK CFI INIT bd6e0 1c .cfa: sp 0 + .ra: lr
STACK CFI INIT b6610 28 .cfa: sp 0 + .ra: lr
STACK CFI b6612 .cfa: sp 20 + .ra: .cfa -4 + ^ r4: .cfa -20 + ^ r5: .cfa -16 + ^ r6: .cfa -12 + ^ r7: .cfa -8 + ^
STACK CFI b6614 .cfa: sp 40 +
STACK CFI INIT b6638 38 .cfa: sp 0 + .ra: lr
STACK CFI b663c .cfa: sp 24 + .ra: .cfa -4 + ^ r4: .cfa -24 + ^ r5: .cfa -20 + ^ r6: .cfa -16 + ^ r7: .cfa -12 + ^ r8: .cfa -8 + ^
STACK CFI b663e .cfa: sp 56 +
STACK CFI INIT b6670 560 .cfa: sp 0 + .ra: lr
STACK CFI b6674 .cfa: sp 36 + .ra: .cfa -4 + ^ r10: .cfa -12 + ^ r11: .cfa -8 + ^ r4: .cfa -36 + ^ r5: .cfa -32 + ^ r6: .cfa -28 + ^ r7: .cfa -24 + ^ r8: .cfa -20 + ^ r9: .cfa -16 + ^
STACK CFI b6676 .cfa: sp 176 +
STACK CFI b667e .cfa: r7 168 +
STACK CFI INIT bd6fc 1c .cfa: sp 0 + .ra: lr
STACK CFI INIT b6bd0 54 .cfa: sp 0 + .ra: lr
STACK CFI b6bd4 .cfa: sp 28 + .ra: .cfa -4 + ^ r10: .cfa -8 + ^ r4: .cfa -28 + ^ r5: .cfa -24 + ^ r6: .cfa -20 + ^ r7: .cfa -16 + ^ r9: .cfa -12 + ^
STACK CFI b6bde .cfa: sp 48 +
STACK CFI INIT b6c24 3c .cfa: sp 0 + .ra: lr
STACK CFI b6c28 .cfa: sp 28 + .ra: .cfa -4 + ^ r4: .cfa -28 + ^ r5: .cfa -24 + ^ r6: .cfa -20 + ^ r7: .cfa -16 + ^ r8: .cfa -12 + ^ r9: .cfa -8 + ^
STACK CFI b6c2a .cfa: sp 48 +
STACK CFI INIT b6c60 34 .cfa: sp 0 + .ra: lr
STACK CFI b6c68 .cfa: sp 16 + r4: .cfa -16 + ^ r5: .cfa -12 + ^ r6: .cfa -8 + ^ r7: .cfa -4 + ^
STACK CFI INIT b6c94 b0 .cfa: sp 0 + .ra: lr
STACK CFI b6c98 .cfa: sp 16 + .ra: .cfa -4 + ^ r4: .cfa -16 + ^ r5: .cfa -12 + ^ r6: .cfa -8 + ^
STACK CFI b6c9c .cfa: sp 24 +
STACK CFI INIT b6d44 2d4 .cfa: sp 0 + .ra: lr
STACK CFI b6d48 .cfa: sp 36 + .ra: .cfa -4 + ^ r10: .cfa -12 + ^ r11: .cfa -8 + ^ r4: .cfa -36 + ^ r5: .cfa -32 + ^ r6: .cfa -28 + ^ r7: .cfa -24 + ^ r8: .cfa -20 + ^ r9: .cfa -16 + ^
STACK CFI b6d4a .cfa: sp 112 +
STACK CFI INIT b7018 264 .cfa: sp 0 + .ra: lr
STACK CFI b701c .cfa: sp 36 + .ra: .cfa -4 + ^ r10: .cfa -12 + ^ r11: .cfa -8 + ^ r4: .cfa -36 + ^ r5: .cfa -32 + ^ r6: .cfa -28 + ^ r7: .cfa -24 + ^ r8: .cfa -20 + ^ r9: .cfa -16 + ^
STACK CFI b701e .cfa: sp 88 +
STACK CFI INIT bd718 1c .cfa: sp 0 + .ra: lr
STACK CFI INIT b727c 5ac .cfa: sp 0 + .ra: lr
STACK CFI b7280 .cfa: sp 36 + .ra: .cfa -4 + ^ r10: .cfa -12 + ^ r11: .cfa -8 + ^ r4: .cfa -36 + ^ r5: .cfa -32 + ^ r6: .cfa -28 + ^ r7: .cfa -24 + ^ r8: .cfa -20 + ^ r9: .cfa -16 + ^
STACK CFI b7282 .cfa: sp 168 +
STACK CFI b7286 .cfa: r7 160 +
STACK CFI INIT b7828 30 .cfa: sp 0 + .ra: lr
STACK CFI b782c .cfa: sp 24 + .ra: .cfa -4 + ^ r4: .cfa -24 + ^ r5: .cfa -20 + ^ r6: .cfa -16 + ^ r7: .cfa -12 + ^ r9: .cfa -8 + ^
STACK CFI b782e .cfa: sp 40 +
STACK CFI INIT b7858 3e .cfa: sp 0 + .ra: lr
STACK CFI b785c .cfa: sp 24 + .ra: .cfa -4 + ^ r4: .cfa -24 + ^ r5: .cfa -20 + ^ r6: .cfa -16 + ^ r7: .cfa -12 + ^ r8: .cfa -8 + ^
STACK CFI b785e .cfa: sp 56 +
STACK CFI INIT bd734 1c .cfa: sp 0 + .ra: lr
STACK CFI INIT b7898 4e .cfa: sp 0 + .ra: lr
STACK CFI b789a .cfa: sp 16 + .ra: .cfa -4 + ^ r3: .cfa -16 + ^ r4: .cfa -12 + ^ r5: .cfa -8 + ^
STACK CFI INIT b78e8 1a8 .cfa: sp 0 + .ra: lr
STACK CFI b78ec .cfa: sp 36 + .ra: .cfa -4 + ^ r10: .cfa -12 + ^ r11: .cfa -8 + ^ r4: .cfa -36 + ^ r5: .cfa -32 + ^ r6: .cfa -28 + ^ r7: .cfa -24 + ^ r8: .cfa -20 + ^ r9: .cfa -16 + ^
STACK CFI b78ee .cfa: sp 88 +
STACK CFI INIT b7a90 234 .cfa: sp 0 + .ra: lr
STACK CFI b7a94 .cfa: sp 36 + .ra: .cfa -4 + ^ r10: .cfa -12 + ^ r11: .cfa -8 + ^ r4: .cfa -36 + ^ r5: .cfa -32 + ^ r6: .cfa -28 + ^ r7: .cfa -24 + ^ r8: .cfa -20 + ^ r9: .cfa -16 + ^
STACK CFI b7a96 .cfa: sp 80 +
STACK CFI b7a98 .cfa: r7 72 +
STACK CFI INIT b7cc4 b8 .cfa: sp 0 + .ra: lr
STACK CFI b7cc8 .cfa: sp 36 + .ra: .cfa -4 + ^ r10: .cfa -12 + ^ r11: .cfa -8 + ^ r4: .cfa -36 + ^ r5: .cfa -32 + ^ r6: .cfa -28 + ^ r7: .cfa -24 + ^ r8: .cfa -20 + ^ r9: .cfa -16 + ^
STACK CFI b7cca .cfa: sp 56 +
STACK CFI INIT b7d7c 1d8 .cfa: sp 0 + .ra: lr
STACK CFI b7d80 .cfa: sp 36 + .ra: .cfa -4 + ^ r10: .cfa -12 + ^ r11: .cfa -8 + ^ r4: .cfa -36 + ^ r5: .cfa -32 + ^ r6: .cfa -28 + ^ r7: .cfa -24 + ^ r8: .cfa -20 + ^ r9: .cfa -16 + ^
STACK CFI b7d82 .cfa: sp 184 +
STACK CFI b7d86 .cfa: r7 184 +
STACK CFI INIT b7f54 78 .cfa: sp 0 + .ra: lr
STACK CFI b7f58 .cfa: sp 40 + .ra: .cfa -4 + ^ r10: .cfa -12 + ^ r11: .cfa -8 + ^ r3: .cfa -40 + ^ r4: .cfa -36 + ^ r5: .cfa -32 + ^ r6: .cfa -28 + ^ r7: .cfa -24 + ^ r8: .cfa -20 + ^ r9: .cfa -16 + ^
STACK CFI INIT b7fcc 118 .cfa: sp 0 + .ra: lr
STACK CFI b7fd0 .cfa: sp 40 + .ra: .cfa -4 + ^ r10: .cfa -12 + ^ r11: .cfa -8 + ^ r3: .cfa -40 + ^ r4: .cfa -36 + ^ r5: .cfa -32 + ^ r6: .cfa -28 + ^ r7: .cfa -24 + ^ r8: .cfa -20 + ^ r9: .cfa -16 + ^
STACK CFI b7fd4 .cfa: r7 40 +
STACK CFI INIT b80e4 3c .cfa: sp 0 + .ra: lr
STACK CFI b80e8 .cfa: sp 8 + .ra: .cfa -4 + ^ r4: .cfa -8 + ^
STACK CFI INIT b8120 238 .cfa: sp 0 + .ra: lr
STACK CFI b8124 .cfa: sp 36 + .ra: .cfa -4 + ^ r10: .cfa -12 + ^ r11: .cfa -8 + ^ r4: .cfa -36 + ^ r5: .cfa -32 + ^ r6: .cfa -28 + ^ r7: .cfa -24 + ^ r8: .cfa -20 + ^ r9: .cfa -16 + ^
STACK CFI b8126 .cfa: sp 256 +
STACK CFI b812a .cfa: r7 248 +
STACK CFI INIT b8358 e8 .cfa: sp 0 + .ra: lr
STACK CFI b835c .cfa: sp 36 + .ra: .cfa -4 + ^ r10: .cfa -12 + ^ r11: .cfa -8 + ^ r4: .cfa -36 + ^ r5: .cfa -32 + ^ r6: .cfa -28 + ^ r7: .cfa -24 + ^ r8: .cfa -20 + ^ r9: .cfa -16 + ^
STACK CFI b8362 .cfa: sp 56 +
STACK CFI INIT b8440 f8 .cfa: sp 0 + .ra: lr
STACK CFI b8444 .cfa: sp 36 + .ra: .cfa -4 + ^ r10: .cfa -12 + ^ r11: .cfa -8 + ^ r4: .cfa -36 + ^ r5: .cfa -32 + ^ r6: .cfa -28 + ^ r7: .cfa -24 + ^ r8: .cfa -20 + ^ r9: .cfa -16 + ^
STACK CFI b844a .cfa: sp 48 +
STACK CFI INIT b8538 94 .cfa: sp 0 + .ra: lr
STACK CFI b853c .cfa: sp 32 + .ra: .cfa -4 + ^ r10: .cfa -8 + ^ r4: .cfa -32 + ^ r5: .cfa -28 + ^ r6: .cfa -24 + ^ r7: .cfa -20 + ^ r8: .cfa -16 + ^ r9: .cfa -12 + ^
STACK CFI INIT b85cc c .cfa: sp 0 + .ra: lr
STACK CFI b85ce .cfa: sp 8 + .ra: .cfa -4 + ^ r3: .cfa -8 + ^
STACK CFI INIT b85d8 18 .cfa: sp 0 + .ra: lr
STACK CFI INIT b85f0 18 .cfa: sp 0 + .ra: lr
STACK CFI INIT b8608 18 .cfa: sp 0 + .ra: lr
STACK CFI INIT b8620 18 .cfa: sp 0 + .ra: lr
STACK CFI INIT b8638 18 .cfa: sp 0 + .ra: lr
STACK CFI INIT b8650 18 .cfa: sp 0 + .ra: lr
STACK CFI INIT b8668 d4 .cfa: sp 0 + .ra: lr
STACK CFI b866a .cfa: sp 12 + .ra: .cfa -4 + ^ r4: .cfa -12 + ^ r5: .cfa -8 + ^
STACK CFI b866c .cfa: sp 80 +
STACK CFI INIT b873c 84 .cfa: sp 0 + .ra: lr
STACK CFI b8740 .cfa: sp 28 + .ra: .cfa -4 + ^ r4: .cfa -28 + ^ r5: .cfa -24 + ^ r6: .cfa -20 + ^ r7: .cfa -16 + ^ r8: .cfa -12 + ^ r9: .cfa -8 + ^
STACK CFI b8742 .cfa: sp 48 +
STACK CFI INIT b87c0 16 .cfa: sp 0 + .ra: lr
STACK CFI b87c2 .cfa: sp 8 + .ra: .cfa -4 + ^ r3: .cfa -8 + ^
STACK CFI INIT b87d8 1cc .cfa: sp 0 + .ra: lr
STACK CFI b87dc .cfa: sp 32 + .ra: .cfa -4 + ^ r10: .cfa -8 + ^ r4: .cfa -32 + ^ r5: .cfa -28 + ^ r6: .cfa -24 + ^ r7: .cfa -20 + ^ r8: .cfa -16 + ^ r9: .cfa -12 + ^
STACK CFI b87e0 .cfa: sp 4256 +
STACK CFI b87e2 .cfa: sp 4264 +
STACK CFI b87e8 .cfa: r7 4256 +
STACK CFI INIT b89a4 54 .cfa: sp 0 + .ra: lr
STACK CFI b89a6 .cfa: sp 16 + .ra: .cfa -4 + ^ r4: .cfa -16 + ^ r5: .cfa -12 + ^ r6: .cfa -8 + ^
STACK CFI b89a8 .cfa: sp 24 +
STACK CFI INIT b89f8 23c .cfa: sp 0 + .ra: lr
STACK CFI b89fc .cfa: sp 32 + .ra: .cfa -4 + ^ r10: .cfa -8 + ^ r4: .cfa -32 + ^ r5: .cfa -28 + ^ r6: .cfa -24 + ^ r7: .cfa -20 + ^ r8: .cfa -16 + ^ r9: .cfa -12 + ^
STACK CFI b8a04 .cfa: sp 64 +
STACK CFI INIT b8c34 10 .cfa: sp 0 + .ra: lr
STACK CFI b8c36 .cfa: sp 4 + .ra: .cfa -4 + ^
STACK CFI b8c38 .cfa: sp 112 +
STACK CFI INIT b8c44 1c .cfa: sp 0 + .ra: lr
STACK CFI b8c46 .cfa: sp 8 + .ra: .cfa -4 + ^ r4: .cfa -8 + ^
STACK CFI INIT b8c60 12 .cfa: sp 0 + .ra: lr
STACK CFI b8c64 .cfa: sp 8 + .ra: .cfa -4 + ^ r3: .cfa -8 + ^
STACK CFI INIT b8c74 34 .cfa: sp 0 + .ra: lr
STACK CFI b8c76 .cfa: sp 8 + .ra: .cfa -4 + ^ r4: .cfa -8 + ^
STACK CFI b8c78 .cfa: sp 16 +
STACK CFI INIT b8ca8 1c .cfa: sp 0 + .ra: lr
STACK CFI b8caa .cfa: sp 8 + .ra: .cfa -4 + ^ r4: .cfa -8 + ^
STACK CFI INIT b8cc4 34 .cfa: sp 0 + .ra: lr
STACK CFI b8cc6 .cfa: sp 16 + .ra: .cfa -4 + ^ r4: .cfa -16 + ^ r5: .cfa -12 + ^ r6: .cfa -8 + ^
STACK CFI INIT b8cf8 3c .cfa: sp 0 + .ra: lr
STACK CFI b8cfa .cfa: sp 24 + .ra: .cfa -4 + ^ r3: .cfa -24 + ^ r4: .cfa -20 + ^ r5: .cfa -16 + ^ r6: .cfa -12 + ^ r7: .cfa -8 + ^
STACK CFI INIT b8d34 3c .cfa: sp 0 + .ra: lr
STACK CFI b8d36 .cfa: sp 24 + .ra: .cfa -4 + ^ r3: .cfa -24 + ^ r4: .cfa -20 + ^ r5: .cfa -16 + ^ r6: .cfa -12 + ^ r7: .cfa -8 + ^
STACK CFI INIT b8d70 24 .cfa: sp 0 + .ra: lr
STACK CFI b8d72 .cfa: sp 16 + .ra: .cfa -4 + ^ r3: .cfa -16 + ^ r4: .cfa -12 + ^ r5: .cfa -8 + ^
STACK CFI INIT b8d94 2 .cfa: sp 0 + .ra: lr
STACK CFI INIT b8d98 94 .cfa: sp 0 + .ra: lr
STACK CFI b8d9e .cfa: sp 8 + .ra: .cfa -4 + ^ r4: .cfa -8 + ^
STACK CFI INIT b8e2c a4 .cfa: sp 0 + .ra: lr
STACK CFI b8e30 .cfa: sp 12 + .ra: .cfa -4 + ^ r4: .cfa -12 + ^ r5: .cfa -8 + ^
STACK CFI b8e36 .cfa: sp 24 +
STACK CFI INIT b8ed0 9c .cfa: sp 0 + .ra: lr
STACK CFI b8ed2 .cfa: sp 16 + .ra: .cfa -4 + ^ r3: .cfa -16 + ^ r4: .cfa -12 + ^ r5: .cfa -8 + ^
STACK CFI INIT b8f6c 9c .cfa: sp 0 + .ra: lr
STACK CFI b8f72 .cfa: sp 8 + .ra: .cfa -4 + ^ r4: .cfa -8 + ^
STACK CFI INIT b9008 38 .cfa: sp 0 + .ra: lr
STACK CFI b900a .cfa: sp 12 + .ra: .cfa -4 + ^ r4: .cfa -12 + ^ r5: .cfa -8 + ^
STACK CFI b9010 .cfa: sp 24 +
STACK CFI INIT b9040 38 .cfa: sp 0 + .ra: lr
STACK CFI b9042 .cfa: sp 12 + .ra: .cfa -4 + ^ r4: .cfa -12 + ^ r5: .cfa -8 + ^
STACK CFI b9048 .cfa: sp 24 +
STACK CFI INIT b9078 d0 .cfa: sp 0 + .ra: lr
STACK CFI b907c .cfa: sp 16 + .ra: .cfa -4 + ^ r4: .cfa -16 + ^ r5: .cfa -12 + ^ r6: .cfa -8 + ^
STACK CFI b9080 .cfa: sp 24 +
STACK CFI INIT b9148 a8 .cfa: sp 0 + .ra: lr
STACK CFI b914c .cfa: sp 16 + .ra: .cfa -4 + ^ r4: .cfa -16 + ^ r5: .cfa -12 + ^ r6: .cfa -8 + ^
STACK CFI b9150 .cfa: sp 24 +
STACK CFI INIT b91f0 2 .cfa: sp 0 + .ra: lr
STACK CFI INIT b91f4 174 .cfa: sp 0 + .ra: lr
STACK CFI b91f8 .cfa: sp 36 + .ra: .cfa -4 + ^ r10: .cfa -12 + ^ r11: .cfa -8 + ^ r4: .cfa -36 + ^ r5: .cfa -32 + ^ r6: .cfa -28 + ^ r7: .cfa -24 + ^ r8: .cfa -20 + ^ r9: .cfa -16 + ^
STACK CFI b91fe .cfa: sp 344 +
STACK CFI INIT b9368 1d0 .cfa: sp 0 + .ra: lr
STACK CFI b936c .cfa: sp 12 + .ra: .cfa -4 + ^ r4: .cfa -12 + ^ r5: .cfa -8 + ^
STACK CFI b9370 .cfa: sp 24 +
STACK CFI INIT b9538 4e .cfa: sp 0 + .ra: lr
STACK CFI b953a .cfa: sp 8 + .ra: .cfa -4 + ^ r3: .cfa -8 + ^
STACK CFI INIT b9588 19c .cfa: sp 0 + .ra: lr
STACK CFI b958c .cfa: sp 36 + .ra: .cfa -4 + ^ r10: .cfa -12 + ^ r11: .cfa -8 + ^ r4: .cfa -36 + ^ r5: .cfa -32 + ^ r6: .cfa -28 + ^ r7: .cfa -24 + ^ r8: .cfa -20 + ^ r9: .cfa -16 + ^
STACK CFI b958e .cfa: sp 352 +
STACK CFI INIT b9724 168 .cfa: sp 0 + .ra: lr
STACK CFI b9728 .cfa: sp 36 + .ra: .cfa -4 + ^ r10: .cfa -12 + ^ r11: .cfa -8 + ^ r4: .cfa -36 + ^ r5: .cfa -32 + ^ r6: .cfa -28 + ^ r7: .cfa -24 + ^ r8: .cfa -20 + ^ r9: .cfa -16 + ^
STACK CFI b972e .cfa: sp 336 +
STACK CFI INIT b988c 48 .cfa: sp 0 + .ra: lr
STACK CFI b988e .cfa: sp 8 + .ra: .cfa -4 + ^ r3: .cfa -8 + ^
STACK CFI INIT b98d4 18c .cfa: sp 0 + .ra: lr
STACK CFI b98d8 .cfa: sp 36 + .ra: .cfa -4 + ^ r10: .cfa -12 + ^ r11: .cfa -8 + ^ r4: .cfa -36 + ^ r5: .cfa -32 + ^ r6: .cfa -28 + ^ r7: .cfa -24 + ^ r8: .cfa -20 + ^ r9: .cfa -16 + ^
STACK CFI b98dc .cfa: sp 336 +
STACK CFI INIT b9a60 90 .cfa: sp 0 + .ra: lr
STACK CFI b9a66 .cfa: sp 24 + .ra: .cfa -4 + ^ r4: .cfa -24 + ^ r5: .cfa -20 + ^ r6: .cfa -16 + ^ r7: .cfa -12 + ^ r8: .cfa -8 + ^
STACK CFI b9a6a .cfa: sp 32 +
STACK CFI INIT b9af0 4d0 .cfa: sp 0 + .ra: lr
STACK CFI b9af8 .cfa: sp 36 + .ra: .cfa -4 + ^ r10: .cfa -12 + ^ r11: .cfa -8 + ^ r4: .cfa -36 + ^ r5: .cfa -32 + ^ r6: .cfa -28 + ^ r7: .cfa -24 + ^ r8: .cfa -20 + ^ r9: .cfa -16 + ^
STACK CFI b9afe .cfa: sp 744 +
STACK CFI INIT b9fc0 104 .cfa: sp 0 + .ra: lr
STACK CFI b9fc8 .cfa: sp 24 + .ra: .cfa -4 + ^ r4: .cfa -24 + ^ r5: .cfa -20 + ^ r6: .cfa -16 + ^ r7: .cfa -12 + ^ r8: .cfa -8 + ^
STACK CFI INIT ba0c4 b4 .cfa: sp 0 + .ra: lr
STACK CFI ba0c6 .cfa: sp 16 + .ra: .cfa -4 + ^ r4: .cfa -16 + ^ r5: .cfa -12 + ^ r6: .cfa -8 + ^
STACK CFI INIT ba178 a0 .cfa: sp 0 + .ra: lr
STACK CFI ba17a .cfa: sp 16 + .ra: .cfa -4 + ^ r4: .cfa -16 + ^ r5: .cfa -12 + ^ r6: .cfa -8 + ^
STACK CFI ba17e .cfa: sp 1304 +
STACK CFI INIT ba218 28 .cfa: sp 0 + .ra: lr
STACK CFI ba21a .cfa: sp 8 + .ra: .cfa -4 + ^ r4: .cfa -8 + ^
STACK CFI INIT ba240 144 .cfa: sp 0 + .ra: lr
STACK CFI ba244 .cfa: sp 28 + .ra: .cfa -4 + ^ r4: .cfa -28 + ^ r5: .cfa -24 + ^ r6: .cfa -20 + ^ r7: .cfa -16 + ^ r8: .cfa -12 + ^ r9: .cfa -8 + ^
STACK CFI ba248 .cfa: sp 1320 +
STACK CFI INIT ba384 1a0 .cfa: sp 0 + .ra: lr
STACK CFI ba388 .cfa: sp 36 + .ra: .cfa -4 + ^ r10: .cfa -12 + ^ r11: .cfa -8 + ^ r4: .cfa -36 + ^ r5: .cfa -32 + ^ r6: .cfa -28 + ^ r7: .cfa -24 + ^ r8: .cfa -20 + ^ r9: .cfa -16 + ^
STACK CFI ba38a .cfa: sp 112 +
STACK CFI ba38c .cfa: r7 104 +
STACK CFI INIT ba524 1a .cfa: sp 0 + .ra: lr
STACK CFI ba526 .cfa: sp 16 + .ra: .cfa -4 + ^ r3: .cfa -16 + ^ r4: .cfa -12 + ^ r5: .cfa -8 + ^
STACK CFI INIT ba540 12 .cfa: sp 0 + .ra: lr
STACK CFI ba544 .cfa: sp 8 + .ra: .cfa -4 + ^ r3: .cfa -8 + ^
STACK CFI INIT ba554 18 .cfa: sp 0 + .ra: lr
STACK CFI INIT ba56c 4 .cfa: sp 0 + .ra: lr
STACK CFI INIT ba570 4 .cfa: sp 0 + .ra: lr
STACK CFI INIT ba574 4 .cfa: sp 0 + .ra: lr
STACK CFI INIT ba578 4 .cfa: sp 0 + .ra: lr
STACK CFI INIT ba57c 4 .cfa: sp 0 + .ra: lr
STACK CFI INIT ba580 4 .cfa: sp 0 + .ra: lr
STACK CFI INIT ba584 4 .cfa: sp 0 + .ra: lr
STACK CFI INIT ba588 4 .cfa: sp 0 + .ra: lr
STACK CFI INIT ba58c e .cfa: sp 0 + .ra: lr
STACK CFI INIT ba59c 140 .cfa: sp 0 + .ra: lr
STACK CFI ba5a0 .cfa: sp 36 + .ra: .cfa -4 + ^ r10: .cfa -12 + ^ r11: .cfa -8 + ^ r4: .cfa -36 + ^ r5: .cfa -32 + ^ r6: .cfa -28 + ^ r7: .cfa -24 + ^ r8: .cfa -20 + ^ r9: .cfa -16 + ^
STACK CFI ba5a2 .cfa: sp 96 +
STACK CFI INIT ba6dc 1d0 .cfa: sp 0 + .ra: lr
STACK CFI ba6e0 .cfa: sp 36 + .ra: .cfa -4 + ^ r10: .cfa -12 + ^ r11: .cfa -8 + ^ r4: .cfa -36 + ^ r5: .cfa -32 + ^ r6: .cfa -28 + ^ r7: .cfa -24 + ^ r8: .cfa -20 + ^ r9: .cfa -16 + ^
STACK CFI ba6e6 .cfa: sp 56 +
STACK CFI INIT ba8ac 3a .cfa: sp 0 + .ra: lr
STACK CFI ba8ba .cfa: sp 12 + r4: .cfa -12 + ^ r5: .cfa -8 + ^ r6: .cfa -4 + ^
STACK CFI INIT ba8e8 20 .cfa: sp 0 + .ra: lr
STACK CFI ba8ea .cfa: sp 8 + .ra: .cfa -4 + ^ r3: .cfa -8 + ^
STACK CFI INIT ba908 2c .cfa: sp 0 + .ra: lr
STACK CFI ba90a .cfa: sp 8 + .ra: .cfa -4 + ^ r3: .cfa -8 + ^
STACK CFI INIT ba934 50 .cfa: sp 0 + .ra: lr
STACK CFI ba936 .cfa: sp 16 + .ra: .cfa -4 + ^ r4: .cfa -16 + ^ r5: .cfa -12 + ^ r6: .cfa -8 + ^
STACK CFI ba93c .cfa: sp 32 +
STACK CFI INIT ba984 44 .cfa: sp 0 + .ra: lr
STACK CFI ba986 .cfa: sp 20 + .ra: .cfa -4 + ^ r4: .cfa -20 + ^ r5: .cfa -16 + ^ r6: .cfa -12 + ^ r7: .cfa -8 + ^
STACK CFI ba98c .cfa: sp 48 +
STACK CFI INIT ba9c8 1c .cfa: sp 0 + .ra: lr
STACK CFI ba9ca .cfa: sp 8 + .ra: .cfa -4 + ^ r3: .cfa -8 + ^
STACK CFI INIT ba9e4 50 .cfa: sp 0 + .ra: lr
STACK CFI ba9e6 .cfa: sp 12 + .ra: .cfa -4 + ^ r4: .cfa -12 + ^ r5: .cfa -8 + ^
STACK CFI ba9e8 .cfa: sp 40 +
STACK CFI INIT bd750 40 .cfa: sp 0 + .ra: lr
STACK CFI bd752 .cfa: sp 16 + .ra: .cfa -4 + ^ r4: .cfa -16 + ^ r5: .cfa -12 + ^ r6: .cfa -8 + ^
STACK CFI INIT bd790 e0 .cfa: sp 0 + .ra: lr
STACK CFI bd79c .cfa: sp 32 + .ra: .cfa -4 + ^ r10: .cfa -8 + ^ r4: .cfa -32 + ^ r5: .cfa -28 + ^ r6: .cfa -24 + ^ r7: .cfa -20 + ^ r8: .cfa -16 + ^ r9: .cfa -12 + ^
STACK CFI INIT baa34 3c .cfa: sp 0 + .ra: lr
STACK CFI baa38 .cfa: sp 8 + .ra: .cfa -4 + ^ r4: .cfa -8 + ^
STACK CFI baa3c .cfa: sp 24 +
STACK CFI INIT baa70 40 .cfa: sp 0 + .ra: lr
STACK CFI baa74 .cfa: sp 8 + .ra: .cfa -4 + ^ r4: .cfa -8 + ^
STACK CFI baa78 .cfa: sp 24 +
STACK CFI INIT baab0 24 .cfa: sp 0 + .ra: lr
STACK CFI baab2 .cfa: sp 8 + .ra: .cfa -4 + ^ r3: .cfa -8 + ^
STACK CFI INIT baad4 44 .cfa: sp 0 + .ra: lr
STACK CFI baade .cfa: sp 20 + .ra: .cfa -4 + ^ r4: .cfa -20 + ^ r5: .cfa -16 + ^ r6: .cfa -12 + ^ r7: .cfa -8 + ^
STACK CFI baae0 .cfa: sp 48 +
STACK CFI INIT bab18 320 .cfa: sp 0 + .ra: lr
STACK CFI bab1c .cfa: sp 36 + .ra: .cfa -4 + ^ r10: .cfa -12 + ^ r11: .cfa -8 + ^ r4: .cfa -36 + ^ r5: .cfa -32 + ^ r6: .cfa -28 + ^ r7: .cfa -24 + ^ r8: .cfa -20 + ^ r9: .cfa -16 + ^
STACK CFI bab1e .cfa: sp 120 +
STACK CFI bab20 .cfa: r7 104 +
STACK CFI INIT bae38 60 .cfa: sp 0 + .ra: lr
STACK CFI bae3a .cfa: sp 16 + .ra: .cfa -4 + ^ r4: .cfa -16 + ^ r5: .cfa -12 + ^ r6: .cfa -8 + ^
STACK CFI bae3c .cfa: sp 40 +
STACK CFI INIT bae98 12 .cfa: sp 0 + .ra: lr
STACK CFI bae9a .cfa: sp 8 + .ra: .cfa -4 + ^ r4: .cfa -8 + ^
STACK CFI bae9c .cfa: sp 16 +
STACK CFI INIT baeac 14 .cfa: sp 0 + .ra: lr
STACK CFI INIT baec0 2 .cfa: sp 0 + .ra: lr
STACK CFI INIT baec4 2 .cfa: sp 0 + .ra: lr
STACK CFI INIT baec8 2 .cfa: sp 0 + .ra: lr
STACK CFI INIT baecc 66 .cfa: sp 0 + .ra: lr
STACK CFI baed0 .cfa: sp 16 + r4: .cfa -16 + ^ r5: .cfa -12 + ^ r6: .cfa -8 + ^ r7: .cfa -4 + ^
STACK CFI INIT baf34 38 .cfa: sp 0 + .ra: lr
STACK CFI baf36 .cfa: sp 12 + .ra: .cfa -4 + ^ r4: .cfa -12 + ^ r5: .cfa -8 + ^
STACK CFI baf38 .cfa: sp 32 +
STACK CFI INIT bb369 25c .cfa: sp 0 + .ra: lr
STACK CFI INIT bb5e1 294 .cfa: sp 0 + .ra: lr
STACK CFI INIT bc729 36 .cfa: sp 0 + .ra: lr
STACK CFI bc751 .cfa: sp 16 + .ra: .cfa -12 + ^
STACK CFI INIT bc761 2c .cfa: sp 0 + .ra: lr
STACK CFI bc77f .cfa: sp 16 + .ra: .cfa -12 + ^
STACK CFI INIT bc798 30 .cfa: sp 0 + .ra: lr
STACK CFI bc79c .cfa: sp 32 + .ra: .cfa -4 + ^ r10: .cfa -8 + ^ r4: .cfa -32 + ^ r5: .cfa -28 + ^ r6: .cfa -24 + ^ r7: .cfa -20 + ^ r8: .cfa -16 + ^ r9: .cfa -12 + ^
STACK CFI INIT bc7c8 30 .cfa: sp 0 + .ra: lr
STACK CFI bc7cc .cfa: sp 32 + .ra: .cfa -4 + ^ r3: .cfa -32 + ^ r4: .cfa -28 + ^ r5: .cfa -24 + ^ r6: .cfa -20 + ^ r7: .cfa -16 + ^ r8: .cfa -12 + ^ r9: .cfa -8 + ^
STACK CFI INIT bc7f8 352 .cfa: sp 0 + .ra: lr
STACK CFI bc7fc .cfa: sp 36 + .ra: .cfa -4 + ^ r10: .cfa -12 + ^ r11: .cfa -8 + ^ r4: .cfa -36 + ^ r5: .cfa -32 + ^ r6: .cfa -28 + ^ r7: .cfa -24 + ^ r8: .cfa -20 + ^ r9: .cfa -16 + ^
STACK CFI bc814 .cfa: sp 56 +
STACK CFI INIT bcb4c 300 .cfa: sp 0 + .ra: lr
STACK CFI bcb50 .cfa: sp 36 + .ra: .cfa -4 + ^ r10: .cfa -12 + ^ r11: .cfa -8 + ^ r4: .cfa -36 + ^ r5: .cfa -32 + ^ r6: .cfa -28 + ^ r7: .cfa -24 + ^ r8: .cfa -20 + ^ r9: .cfa -16 + ^
STACK CFI bcb54 .cfa: sp 48 +
