MODULE Linux arm B6D89079B29535F239F18A295FD174D30 libidirectfbimageprovider_jpeg.so
FUNC db8 10 0 GetType
FUNC dc8 10 0 GetImplementation
FUNC dd8 1c 0 buffer_init_source
FUNC df4 4 0 buffer_term_source
FUNC df8 34 0 IDirectFBImageProvider_JPEG_SetRenderFlags
FUNC e2c 48 0 IDirectFBImageProvider_JPEG_GetImageDescription
FUNC e74 18 0 wrap_setjmp
FUNC e8c 14 0 IDirectFBImageProvider_JPEG_Destruct
FUNC ea0 38 0 Deallocate
FUNC ed8 118 0 buffer_fill_input_buffer
FUNC ff0 58 0 buffer_skip_input_data
FUNC 1048 78 0 IDirectFBImageProvider_JPEG_GetSurfaceDescription
FUNC 10c0 68 0 Allocate
FUNC 1128 f4c 0 IDirectFBImageProvider_JPEG_RenderTo
FUNC 2074 14 0 jpeglib_panic
FUNC 2088 134 0 Probe
FUNC 21bc 2cc 0 Construct
FUNC 2488 10 0 IDirectFBImageProvider_JPEG_ctor
FUNC 2498 10 0 IDirectFBImageProvider_JPEG_dtor
STACK CFI INIT db8 10 .cfa: sp 0 + .ra: lr
STACK CFI INIT dc8 10 .cfa: sp 0 + .ra: lr
STACK CFI INIT dd8 1c .cfa: sp 0 + .ra: lr
STACK CFI de0 .cfa: sp 8 +
STACK CFI dec .ra: .cfa -4 + ^ r3: .cfa -8 + ^
STACK CFI INIT df4 4 .cfa: sp 0 + .ra: lr
STACK CFI INIT df8 34 .cfa: sp 0 + .ra: lr
STACK CFI INIT e2c 48 .cfa: sp 0 + .ra: lr
STACK CFI INIT e74 18 .cfa: sp 0 + .ra: lr
STACK CFI e7c .cfa: sp 8 + .ra: .cfa -4 + ^ r3: .cfa -8 + ^
STACK CFI INIT e8c 14 .cfa: sp 0 + .ra: lr
STACK CFI INIT ea0 38 .cfa: sp 0 + .ra: lr
STACK CFI ea4 .cfa: sp 16 +
STACK CFI ea8 .ra: .cfa -4 + ^ r3: .cfa -16 + ^ r4: .cfa -12 + ^ r5: .cfa -8 + ^
STACK CFI INIT ed8 118 .cfa: sp 0 + .ra: lr
STACK CFI edc .cfa: sp 12 +
STACK CFI ee0 .ra: .cfa -4 + ^ r4: .cfa -12 + ^ r5: .cfa -8 + ^
STACK CFI eec .cfa: sp 32 +
STACK CFI INIT ff0 58 .cfa: sp 0 + .ra: lr
STACK CFI ff4 .cfa: sp 16 +
STACK CFI ff8 .ra: .cfa -4 + ^ r4: .cfa -16 + ^ r5: .cfa -12 + ^ r6: .cfa -8 + ^
STACK CFI INIT 1048 78 .cfa: sp 0 + .ra: lr
STACK CFI 1050 .cfa: sp 8 +
STACK CFI 1054 .ra: .cfa -4 + ^ r4: .cfa -8 + ^
STACK CFI INIT 10c0 68 .cfa: sp 0 + .ra: lr
STACK CFI 10c4 .cfa: sp 8 +
STACK CFI 10cc .ra: .cfa -4 + ^ r4: .cfa -8 + ^
STACK CFI INIT 1128 f4c .cfa: sp 0 + .ra: lr
STACK CFI 112c .cfa: sp 36 +
STACK CFI 1130 .ra: .cfa -4 + ^ r10: .cfa -12 + ^ r11: .cfa -8 + ^ r4: .cfa -36 + ^ r5: .cfa -32 + ^ r6: .cfa -28 + ^ r7: .cfa -24 + ^ r8: .cfa -20 + ^ r9: .cfa -16 + ^
STACK CFI 1134 .cfa: sp 1204 +
STACK CFI 1140 .cfa: sp 1216 +
STACK CFI INIT 2074 14 .cfa: sp 0 + .ra: lr
STACK CFI 207c .cfa: sp 8 +
STACK CFI 2084 .ra: .cfa -4 + ^ r3: .cfa -8 + ^
STACK CFI INIT 2088 134 .cfa: sp 0 + .ra: lr
STACK CFI 208c .cfa: sp 16 +
STACK CFI 2090 .ra: .cfa -4 + ^ r3: .cfa -16 + ^ r4: .cfa -12 + ^ r5: .cfa -8 + ^
STACK CFI INIT 21bc 2cc .cfa: sp 0 + .ra: lr
STACK CFI 21c0 .cfa: sp 16 +
STACK CFI 21c4 .cfa: sp 28 +
STACK CFI 21c8 .cfa: sp 1068 +
STACK CFI 21cc .cfa: sp 1072 +
STACK CFI 21d0 .ra: .cfa -20 + ^ r0: .cfa -16 + ^ r1: .cfa -12 + ^ r2: .cfa -8 + ^ r3: .cfa -4 + ^ r4: .cfa -28 + ^ r5: .cfa -24 + ^
STACK CFI INIT 2488 10 .cfa: sp 0 + .ra: lr
STACK CFI INIT 2498 10 .cfa: sp 0 + .ra: lr
