MODULE Linux arm EAD91A0D15F2E4EF23FA7AFC9F04C9110 libQtDBus.so.4.7.4
PUBLIC c830 0 _init
PUBLIC db80 0 _Z22qDBusBindToApplicationv
PUBLIC db84 0 _ZN15QDBusConnectionC1ERKS_
PUBLIC dbc8 0 _ZN15QDBusConnectionC1EP22QDBusConnectionPrivate
PUBLIC dc0c 0 _ZN15QDBusConnectionD1Ev
PUBLIC dc60 0 _ZN15QDBusConnectionaSERKS_
PUBLIC dcec 0 _ZNK15QDBusConnection4sendERK12QDBusMessage
PUBLIC de50 0 _ZNK15QDBusConnection16callWithCallbackERK12QDBusMessageP7QObjectPKcS6_i
PUBLIC dfc4 0 _ZNK15QDBusConnection16callWithCallbackERK12QDBusMessageP7QObjectPKci
PUBLIC dfe4 0 _ZNK15QDBusConnection4callERK12QDBusMessageN5QDBus8CallModeEi
PUBLIC e28c 0 _ZNK15QDBusConnection9asyncCallERK12QDBusMessagei
PUBLIC e2e4 0 _ZN15QDBusConnection7connectERK7QStringS2_S2_S2_RK11QStringListS2_P7QObjectPKc
PUBLIC e41c 0 _ZN15QDBusConnection10disconnectERK7QStringS2_S2_S2_RK11QStringListS2_P7QObjectPKc
PUBLIC e51c 0 _ZNK15QDBusConnection9interfaceEv
PUBLIC e52c 0 _ZNK15QDBusConnection11isConnectedEv
PUBLIC e5a4 0 _ZNK15QDBusConnection9lastErrorEv
PUBLIC e5d4 0 _ZNK15QDBusConnection11baseServiceEv
PUBLIC e658 0 _ZNK15QDBusConnection4nameEv
PUBLIC e6dc 0 _ZN15QDBusConnection15registerServiceERK7QString
PUBLIC e7d8 0 _ZN15QDBusConnection17unregisterServiceERK7QString
PUBLIC e92c 0 _ZN15QDBusConnection7connectERK7QStringS2_S2_S2_P7QObjectPKc
PUBLIC ea54 0 _ZN15QDBusConnection7connectERK7QStringS2_S2_S2_S2_P7QObjectPKc
PUBLIC eb0c 0 _ZN15QDBusConnection10disconnectERK7QStringS2_S2_S2_P7QObjectPKc
PUBLIC ec34 0 _ZN15QDBusConnection10disconnectERK7QStringS2_S2_S2_S2_P7QObjectPKc
PUBLIC edbc 0 _ZNK15QDBusConnection18objectRegisteredAtERK7QString
PUBLIC f4d4 0 _ZN15QDBusConnectionC2ERK7QString
PUBLIC f5bc 0 _ZN15QDBusConnection17disconnectFromBusERK7QString
PUBLIC f620 0 _ZN15QDBusConnection6senderEv
PUBLIC f76c 0 _ZN15QDBusConnection12connectToBusENS_7BusTypeERK7QString
PUBLIC fbac 0 _ZN15QDBusConnection9systemBusEv
PUBLIC fda0 0 _ZN15QDBusConnection10sessionBusEv
PUBLIC ff9c 0 _ZN15QDBusConnection12connectToBusERK7QStringS2_
PUBLIC 103e4 0 _ZN15QDBusConnection16unregisterObjectERK7QStringNS_14UnregisterModeE
PUBLIC 1069c 0 _ZN15QDBusConnection14registerObjectERK7QStringP7QObject6QFlagsINS_14RegisterOptionEE
PUBLIC 10cbc 0 _ZN10QDBusErrorD1Ev
PUBLIC 11a74 0 _ZN24QDBusConnectionInterfaceD1Ev
PUBLIC 11aa8 0 _ZN24QDBusConnectionInterfaceD0Ev
PUBLIC 11bb4 0 _ZN24QDBusConnectionInterfaceC1ERK15QDBusConnectionP7QObject
PUBLIC 11d6c 0 _ZN24QDBusConnectionInterface12startServiceERK7QString
PUBLIC 11fb8 0 _ZNK24QDBusConnectionInterface12serviceOwnerERK7QString
PUBLIC 12350 0 _ZNK24QDBusConnectionInterface19isServiceRegisteredERK7QString
PUBLIC 12534 0 _ZNK24QDBusConnectionInterface10servicePidERK7QString
PUBLIC 1271c 0 _ZNK24QDBusConnectionInterface10serviceUidERK7QString
PUBLIC 12904 0 _ZN24QDBusConnectionInterface15registerServiceERK7QStringNS_19ServiceQueueOptionsENS_25ServiceReplacementOptionsE
PUBLIC 12d68 0 _ZN24QDBusConnectionInterface17unregisterServiceERK7QString
PUBLIC 13188 0 _ZNK24QDBusConnectionInterface22registeredServiceNamesEv
PUBLIC 13544 0 _ZN24QDBusConnectionInterface13connectNotifyEPKc
PUBLIC 13620 0 _ZN24QDBusConnectionInterface16disconnectNotifyEPKc
PUBLIC 138c4 0 _ZN10QDBusErrorC1EPK9DBusError
PUBLIC 13b18 0 _ZN10QDBusErrorC1ERK12QDBusMessage
PUBLIC 13dbc 0 _ZN10QDBusErrorC1ENS_9ErrorTypeERK7QString
PUBLIC 13f04 0 _ZN10QDBusErrorC2ERKS_
PUBLIC 13f70 0 _ZN10QDBusErroraSERKS_
PUBLIC 13f9c 0 _ZNK10QDBusError4typeEv
PUBLIC 13fa4 0 _ZNK10QDBusError4nameEv
PUBLIC 13fdc 0 _ZNK10QDBusError7messageEv
PUBLIC 14014 0 _ZNK10QDBusError7isValidEv
PUBLIC 14024 0 _ZN10QDBusError11errorStringENS_9ErrorTypeE
PUBLIC 14068 0 _Zls6QDebugRK10QDBusError
PUBLIC 14a04 0 _Z15qDBusAddSpyHookPFvRK12QDBusMessageE
PUBLIC 25678 0 _ZNK12QDBusMessage12errorMessageEv
PUBLIC 275c4 0 _ZN12QDBusMessageC2ERKS_
PUBLIC 27600 0 _ZNK12QDBusMessage7serviceEv
PUBLIC 2763c 0 _ZNK12QDBusMessage4pathEv
PUBLIC 27678 0 _ZNK12QDBusMessage9interfaceEv
PUBLIC 276b4 0 _ZNK12QDBusMessage6memberEv
PUBLIC 2773c 0 _ZNK12QDBusMessage9errorNameEv
PUBLIC 277c4 0 _ZNK12QDBusMessage9signatureEv
PUBLIC 27800 0 _ZNK12QDBusMessage15isReplyRequiredEv
PUBLIC 27878 0 _ZNK12QDBusMessage15setDelayedReplyEb
PUBLIC 27894 0 _ZNK12QDBusMessage14isDelayedReplyEv
PUBLIC 278a4 0 _ZN12QDBusMessage19setAutoStartServiceEb
PUBLIC 278c0 0 _ZNK12QDBusMessage16autoStartServiceEv
PUBLIC 278d4 0 _ZNK12QDBusMessage4typeEv
PUBLIC 27a94 0 _ZN12QDBusMessageC1Ev
PUBLIC 27d60 0 _ZN12QDBusMessageD1Ev
PUBLIC 27dc0 0 _ZN12QDBusMessage12createSignalERK7QStringS2_S2_
PUBLIC 27e24 0 _ZN12QDBusMessage16createMethodCallERK7QStringS2_S2_S2_
PUBLIC 27e9c 0 _ZN12QDBusMessage11createErrorERK7QStringS2_
PUBLIC 27eec 0 _ZNK12QDBusMessage16createErrorReplyE7QStringRKS0_
PUBLIC 27fd4 0 _ZNK12QDBusMessage16createErrorReplyEN10QDBusError9ErrorTypeERK7QString
PUBLIC 2807c 0 _ZN12QDBusMessageaSERKS_
PUBLIC 28110 0 _ZN12QDBusMessagelsERK8QVariant
PUBLIC 28d78 0 _ZNK12QDBusMessage9argumentsEv
PUBLIC 28dd0 0 _ZN12QDBusMessage12setArgumentsERK5QListI8QVariantE
PUBLIC 28e60 0 _ZNK12QDBusMessage11createReplyERK5QListI8QVariantE
PUBLIC 28f58 0 _Zls6QDebugRK12QDBusMessage
PUBLIC 2a36c 0 _ZN11QDBusServerC1ERK7QStringP7QObject
PUBLIC 2a670 0 _ZNK11QDBusServer11isConnectedEv
PUBLIC 2a6e8 0 _ZNK11QDBusServer9lastErrorEv
PUBLIC 2a704 0 _ZNK11QDBusServer7addressEv
PUBLIC 2a890 0 _ZNK22QDBusAbstractInterface10metaObjectEv
PUBLIC 2a8bc 0 _ZN22QDBusAbstractInterfaceD2Ev
PUBLIC 2a8f0 0 _ZN22QDBusAbstractInterfaceD0Ev
PUBLIC 2a90c 0 _ZN22QDBusAbstractInterface13connectNotifyEPKc
PUBLIC 2a978 0 _ZN22QDBusAbstractInterface16disconnectNotifyEPKc
PUBLIC 2a9bc 0 _ZN22QDBusAbstractInterface11qt_metacastEPKc
PUBLIC 2bc94 0 _ZN26QDBusAbstractInterfaceBaseC2ER29QDBusAbstractInterfacePrivateP7QObject
PUBLIC 2bccc 0 _ZNK22QDBusAbstractInterface7isValidEv
PUBLIC 2bce4 0 _ZNK22QDBusAbstractInterface10connectionEv
PUBLIC 2bd00 0 _ZNK22QDBusAbstractInterface7serviceEv
PUBLIC 2bd3c 0 _ZNK22QDBusAbstractInterface4pathEv
PUBLIC 2bd78 0 _ZNK22QDBusAbstractInterface9interfaceEv
PUBLIC 2bdb4 0 _ZNK22QDBusAbstractInterface9lastErrorEv
PUBLIC 2bdd0 0 _ZN22QDBusAbstractInterface25asyncCallWithArgumentListERK7QStringRK5QListI8QVariantE
PUBLIC 2bfb4 0 _ZN22QDBusAbstractInterface16callWithCallbackERK7QStringRK5QListI8QVariantEP7QObjectPKcSB_
PUBLIC 2c24c 0 _ZN22QDBusAbstractInterface16callWithCallbackERK7QStringRK5QListI8QVariantEP7QObjectPKc
PUBLIC 2c270 0 _ZNK22QDBusAbstractInterface15internalPropGetEPKc
PUBLIC 2c284 0 _ZN22QDBusAbstractInterface15internalPropSetEPKcRK8QVariant
PUBLIC 2d3fc 0 _ZN22QDBusAbstractInterface9asyncCallERK7QStringRK8QVariantS5_S5_S5_S5_S5_S5_S5_
PUBLIC 2e1a0 0 _ZN22QDBusAbstractInterfaceC1ER29QDBusAbstractInterfacePrivateP7QObject
PUBLIC 2e55c 0 _ZN22QDBusAbstractInterfaceC2ERK7QStringS2_PKcRK15QDBusConnectionP7QObject
PUBLIC 2e9b4 0 _ZN22QDBusAbstractInterface20callWithArgumentListEN5QDBus8CallModeERK7QStringRK5QListI8QVariantE
PUBLIC 2f204 0 _ZNK22QDBusAbstractInterface17internalConstCallEN5QDBus8CallModeERK7QStringRK5QListI8QVariantE
PUBLIC 2f228 0 _ZN22QDBusAbstractInterface4callEN5QDBus8CallModeERK7QStringRK8QVariantS7_S7_S7_S7_S7_S7_S7_
PUBLIC 2ffdc 0 _ZN22QDBusAbstractInterface4callERK7QStringRK8QVariantS5_S5_S5_S5_S5_S5_S5_
PUBLIC 30038 0 _ZN26QDBusAbstractInterfaceBase11qt_metacallEN11QMetaObject4CallEiPPv
PUBLIC 300d8 0 _ZN22QDBusAbstractInterface11qt_metacallEN11QMetaObject4CallEiPPv
PUBLIC 30120 0 _ZN26QDBusAbstractInterfaceBaseD2Ev
PUBLIC 30154 0 _ZN26QDBusAbstractInterfaceBaseD0Ev
PUBLIC 30614 0 _ZNK14QDBusInterface10metaObjectEv
PUBLIC 30640 0 _ZN14QDBusInterfaceD2Ev
PUBLIC 30674 0 _ZN14QDBusInterfaceD0Ev
PUBLIC 30b74 0 _ZN14QDBusInterfaceC1ERK7QStringS2_S2_RK15QDBusConnectionP7QObject
PUBLIC 31c10 0 _ZN14QDBusInterface11qt_metacastEPKc
PUBLIC 31cd0 0 _ZN14QDBusInterface11qt_metacallEN11QMetaObject4CallEiPPv
PUBLIC 37f38 0 _ZN18QDBusIntrospection8ArgumentD2Ev
PUBLIC 37fc4 0 _ZN18QDBusIntrospection8PropertyD1Ev
PUBLIC 38140 0 _ZN18QDBusIntrospection6ObjectD2Ev
PUBLIC 382dc 0 _ZN18QDBusIntrospection6MethodD2Ev
PUBLIC 3839c 0 _ZN18QDBusIntrospection6SignalD1Ev
PUBLIC 39cc0 0 _ZN9QDBusUtil23isValidPartOfObjectPathERK7QString
PUBLIC 39d28 0 _ZN9QDBusUtil17isValidMemberNameERK7QString
PUBLIC 39db8 0 _ZN9QDBusUtil16isValidSignatureERK7QString
PUBLIC 39e88 0 _ZN9QDBusUtil22isValidSingleSignatureERK7QString
PUBLIC 39f58 0 _ZN9QDBusUtil20isValidInterfaceNameERK7QString
PUBLIC 3a028 0 _ZN9QDBusUtil16isValidErrorNameERK7QString
PUBLIC 3a02c 0 _ZN9QDBusUtil27isValidUniqueConnectionNameERK7QString
PUBLIC 3a1cc 0 _ZN9QDBusUtil14isValidBusNameERK7QString
PUBLIC 3a32c 0 _ZN9QDBusUtil17isValidObjectPathERK7QString
PUBLIC 3b714 0 _ZN9QDBusUtil16argumentToStringERK8QVariant
PUBLIC 3c594 0 _ZN18QDBusIntrospection15parseInterfacesERK7QString
PUBLIC 3cd98 0 _ZN18QDBusIntrospection11parseObjectERK7QStringS2_S2_
PUBLIC 3d214 0 _ZN18QDBusIntrospection15parseObjectTreeERK7QStringS2_S2_
PUBLIC 3d858 0 _ZN18QDBusIntrospection14parseInterfaceERK7QString
PUBLIC 3deb0 0 _ZN20QDBusAbstractAdaptorD2Ev
PUBLIC 3dee4 0 _ZN20QDBusAbstractAdaptorD0Ev
PUBLIC 3e054 0 _ZN20QDBusAbstractAdaptor19setAutoRelaySignalsEb
PUBLIC 3e21c 0 _ZNK20QDBusAbstractAdaptor16autoRelaySignalsEv
PUBLIC 3e9c0 0 _ZN20QDBusAbstractAdaptorC1EP7QObject
PUBLIC 42f38 0 _ZN15QDBusMetaObjectC2Ev
PUBLIC 42f3c 0 _ZNK15QDBusMetaObject17dbusNameForMethodEi
PUBLIC 42f78 0 _ZNK15QDBusMetaObject23inputSignatureForMethodEi
PUBLIC 42fb8 0 _ZNK15QDBusMetaObject24outputSignatureForMethodEi
PUBLIC 42ff8 0 _ZNK15QDBusMetaObject19inputTypesForMethodEi
PUBLIC 43034 0 _ZNK15QDBusMetaObject20outputTypesForMethodEi
PUBLIC 43070 0 _ZNK15QDBusMetaObject16propertyMetaTypeEi
PUBLIC 46120 0 _ZN15QDBusMetaObject16createMetaObjectERK7QStringS2_R5QHashIS0_PS_ER10QDBusError
PUBLIC 485e4 0 _ZN18QDBusIntrospection9InterfaceD1Ev
PUBLIC 487b0 0 _Z26qDBusGenerateMetaObjectXml7QStringPK11QMetaObjectS2_i
PUBLIC 4b81c 0 _ZN13QDBusArgumentC2Ev
PUBLIC 4b978 0 _ZN13QDBusArgumentC1ERKS_
PUBLIC 4b9bc 0 _ZN13QDBusArgumentC1EP20QDBusArgumentPrivate
PUBLIC 4b9c4 0 _ZN13QDBusArgumentaSERKS_
PUBLIC 4baa4 0 _ZN13QDBusArgumentD2Ev
PUBLIC 4bb58 0 _ZN13QDBusArgumentlsEh
PUBLIC 4bb9c 0 _ZN13QDBusArgumentlsEb
PUBLIC 4bbe0 0 _ZN13QDBusArgumentlsEs
PUBLIC 4bc24 0 _ZN13QDBusArgumentlsEt
PUBLIC 4bc68 0 _ZN13QDBusArgumentlsEi
PUBLIC 4bcac 0 _ZN13QDBusArgumentlsEj
PUBLIC 4bcf0 0 _ZN13QDBusArgumentlsEx
PUBLIC 4bd3c 0 _ZN13QDBusArgumentlsEy
PUBLIC 4bd88 0 _ZN13QDBusArgumentlsEd
PUBLIC 4bdd4 0 _ZN13QDBusArgumentlsERK15QDBusObjectPath
PUBLIC 4bfa4 0 _ZN13QDBusArgumentlsERK14QDBusSignature
PUBLIC 4c174 0 _ZN13QDBusArgumentlsERK10QByteArray
PUBLIC 4c2d0 0 _ZNK13QDBusArgument16currentSignatureEv
PUBLIC 4c48c 0 _ZNK13QDBusArgumentrsERh
PUBLIC 4c558 0 _ZNK13QDBusArgumentrsERb
PUBLIC 4c62c 0 _ZNK13QDBusArgumentrsERt
PUBLIC 4c6f8 0 _ZNK13QDBusArgumentrsERs
PUBLIC 4c7c4 0 _ZNK13QDBusArgumentrsERi
PUBLIC 4c890 0 _ZNK13QDBusArgumentrsERj
PUBLIC 4c95c 0 _ZNK13QDBusArgumentrsERx
PUBLIC 4ca28 0 _ZNK13QDBusArgumentrsERy
PUBLIC 4caf4 0 _ZNK13QDBusArgumentrsERd
PUBLIC 4cbc0 0 _ZNK13QDBusArgumentrsER7QString
PUBLIC 4cce8 0 _ZNK13QDBusArgumentrsER15QDBusObjectPath
PUBLIC 4ce90 0 _ZNK13QDBusArgumentrsER14QDBusSignature
PUBLIC 4d038 0 _ZNK13QDBusArgument5atEndEv
PUBLIC 4d144 0 _ZN13QDBusArgumentlsERK7QString
PUBLIC 4d320 0 _ZN13QDBusArgument14beginStructureEv
PUBLIC 4d34c 0 _ZN13QDBusArgument13beginMapEntryEv
PUBLIC 4d378 0 _ZN13QDBusArgument10beginArrayEi
PUBLIC 4d548 0 _ZN13QDBusArgument8beginMapEii
PUBLIC 4e008 0 _ZN13QDBusArgument12endStructureEv
PUBLIC 4e02c 0 _ZN13QDBusArgument8endArrayEv
PUBLIC 4e050 0 _ZN13QDBusArgument6endMapEv
PUBLIC 4e074 0 _ZN13QDBusArgument11endMapEntryEv
PUBLIC 4e098 0 _ZN13QDBusArgumentlsERK11QStringList
PUBLIC 4e5bc 0 _ZNK13QDBusArgument11currentTypeEv
PUBLIC 4e6dc 0 _ZNK13QDBusArgumentrsER10QByteArray
PUBLIC 4e8e0 0 _ZNK13QDBusArgument14beginStructureEv
PUBLIC 4e904 0 _ZNK13QDBusArgument10beginArrayEv
PUBLIC 4e928 0 _ZNK13QDBusArgument8beginMapEv
PUBLIC 4e94c 0 _ZNK13QDBusArgument13beginMapEntryEv
PUBLIC 4f228 0 _ZNK13QDBusArgument12endStructureEv
PUBLIC 4f24c 0 _ZNK13QDBusArgument8endArrayEv
PUBLIC 4f270 0 _ZNK13QDBusArgument6endMapEv
PUBLIC 4f294 0 _ZNK13QDBusArgument11endMapEntryEv
PUBLIC 4f3b4 0 _ZrsRK13QDBusArgumentR5QDate
PUBLIC 4f430 0 _ZlsR13QDBusArgumentRK5QDate
PUBLIC 4f4c4 0 _ZrsRK13QDBusArgumentR5QTime
PUBLIC 4f538 0 _ZlsR13QDBusArgumentRK5QTime
PUBLIC 4f5ec 0 _ZrsRK13QDBusArgumentR9QDateTime
PUBLIC 4f678 0 _ZlsR13QDBusArgumentRK9QDateTime
PUBLIC 4f6f0 0 _ZrsRK13QDBusArgumentR5QRect
PUBLIC 4f75c 0 _ZlsR13QDBusArgumentRK5QRect
PUBLIC 4f7b8 0 _ZrsRK13QDBusArgumentR6QRectF
PUBLIC 4f840 0 _ZlsR13QDBusArgumentRK6QRectF
PUBLIC 4f8cc 0 _ZrsRK13QDBusArgumentR5QSize
PUBLIC 4f900 0 _ZlsR13QDBusArgumentRK5QSize
PUBLIC 4f934 0 _ZrsRK13QDBusArgumentR6QSizeF
PUBLIC 4f988 0 _ZlsR13QDBusArgumentRK6QSizeF
PUBLIC 4f9dc 0 _ZrsRK13QDBusArgumentR6QPoint
PUBLIC 4fa10 0 _ZlsR13QDBusArgumentRK6QPoint
PUBLIC 4fa44 0 _ZrsRK13QDBusArgumentR7QPointF
PUBLIC 4fa98 0 _ZlsR13QDBusArgumentRK7QPointF
PUBLIC 4faec 0 _ZrsRK13QDBusArgumentR5QLine
PUBLIC 4fb60 0 _ZlsR13QDBusArgumentRK5QLine
PUBLIC 4fbbc 0 _ZrsRK13QDBusArgumentR6QLineF
PUBLIC 4fc30 0 _ZlsR13QDBusArgumentRK6QLineF
PUBLIC 51454 0 _ZN13QDBusArgument13appendVariantERK8QVariant
PUBLIC 5147c 0 _ZN13QDBusArgumentlsERK12QDBusVariant
PUBLIC 51d9c 0 _ZNK13QDBusArgumentrsER11QStringList
PUBLIC 52fa0 0 _ZNK13QDBusArgument9asVariantEv
PUBLIC 53000 0 _ZNK13QDBusArgumentrsER12QDBusVariant
PUBLIC 53214 0 _ZrsRK13QDBusArgumentR8QVariant
PUBLIC 5329c 0 _Z14qDBusReplyFillRK12QDBusMessageR10QDBusErrorR8QVariant
PUBLIC 54540 0 _ZN13QDBusMetaType25registerMarshallOperatorsEiPFvR13QDBusArgumentPKvEPFvRKS0_PvE
PUBLIC 54e18 0 _ZN13QDBusMetaType8marshallER13QDBusArgumentiPKv
PUBLIC 54f30 0 _ZN13QDBusMetaType10demarshallERK13QDBusArgumentiPv
PUBLIC 5505c 0 _ZN13QDBusMetaType15signatureToTypeEPKc
PUBLIC 552bc 0 _ZN13QDBusMetaType15typeToSignatureEi
PUBLIC 598ac 0 _ZN15QDBusObjectPath5checkEv
PUBLIC 599fc 0 _ZN14QDBusSignature5checkEv
PUBLIC 59bb4 0 _ZN12QDBusContextC2Ev
PUBLIC 59bc0 0 _ZN12QDBusContextD2Ev
PUBLIC 59bc4 0 _ZNK12QDBusContext14calledFromDBusEv
PUBLIC 59bd4 0 _ZNK12QDBusContext10connectionEv
PUBLIC 59bec 0 _ZNK12QDBusContext7messageEv
PUBLIC 59bf8 0 _ZNK12QDBusContext14isDelayedReplyEv
PUBLIC 59c08 0 _ZNK12QDBusContext15setDelayedReplyEb
PUBLIC 59c20 0 _ZNK12QDBusContext14sendErrorReplyERK7QStringS2_
PUBLIC 59d50 0 _ZNK12QDBusContext14sendErrorReplyEN10QDBusError9ErrorTypeERK7QString
PUBLIC 59dd4 0 _ZNK23QDBusPendingCallWatcher10metaObjectEv
PUBLIC 5a33c 0 _ZN16QDBusPendingCallC1ERKS_
PUBLIC 5a37c 0 _ZN16QDBusPendingCallC1EP23QDBusPendingCallPrivate
PUBLIC 5a3bc 0 _ZNK16QDBusPendingCall10isFinishedEv
PUBLIC 5a418 0 _ZN16QDBusPendingCall15waitForFinishedEv
PUBLIC 5a428 0 _ZNK16QDBusPendingCall7isValidEv
PUBLIC 5a47c 0 _ZNK16QDBusPendingCall7isErrorEv
PUBLIC 5a4dc 0 _ZNK16QDBusPendingCall5errorEv
PUBLIC 5a64c 0 _ZNK16QDBusPendingCall5replyEv
PUBLIC 5a7f0 0 _ZN23QDBusPendingCallWatcher15waitForFinishedEv
PUBLIC 5a828 0 _ZN23QDBusPendingCallWatcher8finishedEPS_
PUBLIC 5aa08 0 _ZN16QDBusPendingCallaSERKS_
PUBLIC 5aaa0 0 _ZN16QDBusPendingCallD1Ev
PUBLIC 5ab04 0 _ZN23QDBusPendingCallWatcherC1ERK16QDBusPendingCallP7QObject
PUBLIC 5ad94 0 _ZN23QDBusPendingCallWatcherD2Ev
PUBLIC 5addc 0 _ZN23QDBusPendingCallWatcherD0Ev
PUBLIC 5adf8 0 _ZN16QDBusPendingCall17fromCompletedCallERK12QDBusMessage
PUBLIC 5afa4 0 _ZN16QDBusPendingCall9fromErrorERK10QDBusError
PUBLIC 5b52c 0 _ZN23QDBusPendingCallWatcher11qt_metacastEPKc
PUBLIC 5b598 0 _ZN23QDBusPendingCallWatcher11qt_metacallEN11QMetaObject4CallEiPPv
PUBLIC 5b658 0 _ZN21QDBusPendingReplyDataC1Ev
PUBLIC 5b670 0 _ZN21QDBusPendingReplyDataD2Ev
PUBLIC 5b684 0 _ZN21QDBusPendingReplyData6assignERK16QDBusPendingCall
PUBLIC 5b688 0 _ZN21QDBusPendingReplyData6assignERK12QDBusMessage
PUBLIC 5b8ac 0 _ZN21QDBusPendingReplyData12setMetaTypesEiPKi
PUBLIC 5b91c 0 _ZNK21QDBusPendingReplyData10argumentAtEi
PUBLIC 5bd54 0 _ZNK19QDBusServiceWatcher10metaObjectEv
PUBLIC 5bd80 0 _ZN19QDBusServiceWatcherD1Ev
PUBLIC 5bdb4 0 _ZN19QDBusServiceWatcherD0Ev
PUBLIC 5c1f0 0 _ZNK19QDBusServiceWatcher9watchModeEv
PUBLIC 5c200 0 _ZNK19QDBusServiceWatcher10connectionEv
PUBLIC 5c21c 0 _ZN19QDBusServiceWatcher17serviceRegisteredERK7QString
PUBLIC 5c258 0 _ZN19QDBusServiceWatcher19serviceUnregisteredERK7QString
PUBLIC 5c298 0 _ZN19QDBusServiceWatcher19serviceOwnerChangedERK7QStringS2_S2_
PUBLIC 5c334 0 _ZN19QDBusServiceWatcherC1EP7QObject
PUBLIC 5c9bc 0 _ZN19QDBusServiceWatcher17addWatchedServiceERK7QString
PUBLIC 5c9fc 0 _ZN19QDBusServiceWatcher20removeWatchedServiceERK7QString
PUBLIC 5ca20 0 _ZNK19QDBusServiceWatcher15watchedServicesEv
PUBLIC 5ccd4 0 _ZN19QDBusServiceWatcherC1ERK7QStringRK15QDBusConnection6QFlagsINS_13WatchModeFlagEEP7QObject
PUBLIC 5ce34 0 _ZN19QDBusServiceWatcher18setWatchedServicesERK11QStringList
PUBLIC 5cee4 0 _ZN19QDBusServiceWatcher12setWatchModeE6QFlagsINS_13WatchModeFlagEE
PUBLIC 5cf1c 0 _ZN19QDBusServiceWatcher13setConnectionERK15QDBusConnection
PUBLIC 5d008 0 _ZN19QDBusServiceWatcher11qt_metacastEPKc
PUBLIC 5d04c 0 _ZN19QDBusServiceWatcher11qt_metacallEN11QMetaObject4CallEiPPv
PUBLIC 5d4b8 0 _ZNK24QDBusConnectionInterface10metaObjectEv
PUBLIC 5d564 0 _ZN24QDBusConnectionInterface17serviceRegisteredERK7QString
PUBLIC 5d5a0 0 _ZN24QDBusConnectionInterface19serviceUnregisteredERK7QString
PUBLIC 5d5e0 0 _ZN24QDBusConnectionInterface19serviceOwnerChangedERK7QStringS2_S2_
PUBLIC 5d620 0 _ZN24QDBusConnectionInterface22callWithCallbackFailedERK10QDBusErrorRK12QDBusMessage
PUBLIC 5d664 0 _ZN24QDBusConnectionInterface12NameAcquiredERK7QString
PUBLIC 5d6a4 0 _ZN24QDBusConnectionInterface8NameLostERK7QString
PUBLIC 5d6e4 0 _ZN24QDBusConnectionInterface16NameOwnerChangedERK7QStringS2_S2_
PUBLIC 5d724 0 _ZN24QDBusConnectionInterface11qt_metacastEPKc
PUBLIC 5d768 0 _ZN24QDBusConnectionInterface11qt_metacallEN11QMetaObject4CallEiPPv
PUBLIC 5e3c8 0 _ZNK11QDBusServer10metaObjectEv
PUBLIC 5e3f4 0 _ZN11QDBusServer13newConnectionERK15QDBusConnection
PUBLIC 5e430 0 _ZN11QDBusServer11qt_metacastEPKc
PUBLIC 5e474 0 _ZN11QDBusServer11qt_metacallEN11QMetaObject4CallEiPPv
PUBLIC 5e4bc 0 _ZN11QDBusServerD1Ev
PUBLIC 5e4f0 0 _ZN11QDBusServerD0Ev
PUBLIC 5e52c 0 _ZNK20QDBusAbstractAdaptor10metaObjectEv
PUBLIC 5e558 0 _ZN20QDBusAbstractAdaptor11qt_metacastEPKc
PUBLIC 5e59c 0 _ZN20QDBusAbstractAdaptor11qt_metacallEN11QMetaObject4CallEiPPv
PUBLIC 5e9f0 0 _fini
