MODULE Linux arm 6E93BFE17512BDE7C4CD64B369115AD10 libdirectfbwm_default.so
FUNC 1e5c 10 0 keys_compare
FUNC 1e6c c 0 wm_join
FUNC 1e78 8 0 wm_leave
FUNC 1e80 8 0 wm_suspend
FUNC 1e88 8 0 wm_resume
FUNC 1e90 8 0 wm_post_init
FUNC 1e98 8 0 wm_resize_stack
FUNC 1ea0 134 0 wm_window_lookup
FUNC 1fd4 208 0 wm_enum_windows
FUNC 21dc 18 0 wm_get_insets
FUNC 21f4 1c 0 wm_preconfigure_window
FUNC 2210 8 0 wm_begin_updates
FUNC 2218 80 0 wm_set_cursor_position
FUNC 2298 204 0 flush_updating
FUNC 249c cc 0 defaultwm_surface_reaction
FUNC 2568 f8 0 defaultwm_surface_display_notify
FUNC 2660 36c 0 wm_grab
FUNC 29cc 1c 0 wm_remove_window_property
FUNC 29e8 20 0 wm_get_window_property
FUNC 2a08 1c 0 wm_set_window_property
FUNC 2a24 23c 0 wm_close_stack
FUNC 2c60 14 0 wm_shutdown
FUNC 2c74 54 0 wm_initialize
FUNC 2cc8 6c 0 wm_get_info
FUNC 2d34 548 0 get_keyboard_window
FUNC 327c 698 0 wm_flush_keys
FUNC 3914 14c 0 switch_focus
FUNC 3a60 858 0 window_at_pointer
FUNC 42b8 30 0 wm_window_at
FUNC 42e8 3b0 0 wind_of_change
FUNC 4698 43c 0 update_window
FUNC 4ad4 5f8 0 restack_window
FUNC 50cc b40 0 wm_remove_window
FUNC 5c0c 1bc 0 wm_init_stack
FUNC 5dc8 17c 0 send_button_event
FUNC 5f44 2ac 0 draw_cursor
FUNC 61f0 f20 0 wm_update_cursor
FUNC 7110 850 0 draw_window
FUNC 7960 b84 0 update_region
FUNC 84e4 854 0 repaint_stack
FUNC 8d38 19c 0 process_updates
FUNC 8ed4 d8 0 wm_update_window
FUNC 8fac 38 0 wm_update_stack
FUNC 8fe4 194 0 wm_request_focus
FUNC 9178 18c 0 request_focus
FUNC 9304 2fc 0 update_focus
FUNC 9600 1d0 0 wm_ungrab
FUNC 97d0 70 0 wm_restack_window
FUNC 9840 c08 0 set_opacity
FUNC a448 c50 0 wm_set_window_config
FUNC b098 2ac 0 wm_add_window
FUNC b344 3d4 0 perform_motion
FUNC b718 784 0 wm_set_active
FUNC be9c 10f4 0 wm_process_input
FUNC cf90 38 0 directfbwm_default
STACK CFI INIT 1e5c 10 .cfa: sp 0 + .ra: lr
STACK CFI INIT 1e6c c .cfa: sp 0 + .ra: lr
STACK CFI INIT 1e78 8 .cfa: sp 0 + .ra: lr
STACK CFI INIT 1e80 8 .cfa: sp 0 + .ra: lr
STACK CFI INIT 1e88 8 .cfa: sp 0 + .ra: lr
STACK CFI INIT 1e90 8 .cfa: sp 0 + .ra: lr
STACK CFI INIT 1e98 8 .cfa: sp 0 + .ra: lr
STACK CFI INIT 1ea0 134 .cfa: sp 0 + .ra: lr
STACK CFI 1ea8 .cfa: sp 4 +
STACK CFI 1eb0 r4: .cfa -4 + ^
STACK CFI INIT 1fd4 208 .cfa: sp 0 + .ra: lr
STACK CFI 1fd8 .cfa: sp 32 +
STACK CFI 1fdc .ra: .cfa -4 + ^ r10: .cfa -8 + ^ r3: .cfa -32 + ^ r4: .cfa -28 + ^ r5: .cfa -24 + ^ r6: .cfa -20 + ^ r7: .cfa -16 + ^ r8: .cfa -12 + ^
STACK CFI INIT 21dc 18 .cfa: sp 0 + .ra: lr
STACK CFI INIT 21f4 1c .cfa: sp 0 + .ra: lr
STACK CFI INIT 2210 8 .cfa: sp 0 + .ra: lr
STACK CFI INIT 2218 80 .cfa: sp 0 + .ra: lr
STACK CFI 2224 .cfa: sp 16 +
STACK CFI 2228 .ra: .cfa -4 + ^ r3: .cfa -16 + ^ r4: .cfa -12 + ^ r5: .cfa -8 + ^
STACK CFI INIT 2298 204 .cfa: sp 0 + .ra: lr
STACK CFI 229c .cfa: sp 32 +
STACK CFI 22a0 .cfa: sp 72 +
STACK CFI 22a4 .ra: .cfa -4 + ^ r10: .cfa -8 + ^ r4: .cfa -32 + ^ r5: .cfa -28 + ^ r6: .cfa -24 + ^ r7: .cfa -20 + ^ r8: .cfa -16 + ^ r9: .cfa -12 + ^
STACK CFI INIT 249c cc .cfa: sp 0 + .ra: lr
STACK CFI 24a0 .cfa: sp 24 +
STACK CFI 24a4 .cfa: sp 56 +
STACK CFI 24a8 .ra: .cfa -4 + ^ r4: .cfa -24 + ^ r5: .cfa -20 + ^ r6: .cfa -16 + ^ r7: .cfa -12 + ^ r8: .cfa -8 + ^
STACK CFI INIT 2568 f8 .cfa: sp 0 + .ra: lr
STACK CFI 256c .cfa: sp 32 +
STACK CFI 2570 .cfa: sp 64 +
STACK CFI 2574 .ra: .cfa -4 + ^ r10: .cfa -8 + ^ r4: .cfa -32 + ^ r5: .cfa -28 + ^ r6: .cfa -24 + ^ r7: .cfa -20 + ^ r8: .cfa -16 + ^ r9: .cfa -12 + ^
STACK CFI INIT 2660 36c .cfa: sp 0 + .ra: lr
STACK CFI 266c .cfa: sp 20 +
STACK CFI 2674 .cfa: sp 32 +
STACK CFI 2678 .ra: .cfa -4 + ^ r4: .cfa -20 + ^ r5: .cfa -16 + ^ r6: .cfa -12 + ^ r7: .cfa -8 + ^
STACK CFI INIT 29cc 1c .cfa: sp 0 + .ra: lr
STACK CFI 29d0 .cfa: sp 8 +
STACK CFI 29dc .ra: .cfa -4 + ^ r3: .cfa -8 + ^
STACK CFI INIT 29e8 20 .cfa: sp 0 + .ra: lr
STACK CFI 29ec .cfa: sp 8 +
STACK CFI 29f4 .ra: .cfa -4 + ^ r3: .cfa -8 + ^
STACK CFI INIT 2a08 1c .cfa: sp 0 + .ra: lr
STACK CFI 2a0c .cfa: sp 8 +
STACK CFI 2a18 .ra: .cfa -4 + ^ r3: .cfa -8 + ^
STACK CFI INIT 2a24 23c .cfa: sp 0 + .ra: lr
STACK CFI 2a28 .cfa: sp 36 +
STACK CFI 2a2c .ra: .cfa -4 + ^ r10: .cfa -12 + ^ r11: .cfa -8 + ^ r4: .cfa -36 + ^ r5: .cfa -32 + ^ r6: .cfa -28 + ^ r7: .cfa -24 + ^ r8: .cfa -20 + ^ r9: .cfa -16 + ^
STACK CFI 2a38 .cfa: sp 56 +
STACK CFI INIT 2c60 14 .cfa: sp 0 + .ra: lr
STACK CFI 2c64 .cfa: sp 8 +
STACK CFI 2c68 .ra: .cfa -4 + ^ r3: .cfa -8 + ^
STACK CFI INIT 2c74 54 .cfa: sp 0 + .ra: lr
STACK CFI 2c78 .cfa: sp 16 +
STACK CFI 2c7c .ra: .cfa -4 + ^ r4: .cfa -16 + ^ r5: .cfa -12 + ^ r6: .cfa -8 + ^
STACK CFI INIT 2cc8 6c .cfa: sp 0 + .ra: lr
STACK CFI 2ccc .cfa: sp 8 +
STACK CFI 2cd0 .ra: .cfa -4 + ^ r4: .cfa -8 + ^
STACK CFI INIT 2d34 548 .cfa: sp 0 + .ra: lr
STACK CFI 2d3c .cfa: sp 24 +
STACK CFI 2d40 .ra: .cfa -4 + ^ r4: .cfa -24 + ^ r5: .cfa -20 + ^ r6: .cfa -16 + ^ r7: .cfa -12 + ^ r8: .cfa -8 + ^
STACK CFI 2d48 .cfa: sp 32 +
STACK CFI INIT 327c 698 .cfa: sp 0 + .ra: lr
STACK CFI 3284 .cfa: sp 28 +
STACK CFI 328c .cfa: sp 120 +
STACK CFI 3290 .ra: .cfa -4 + ^ r10: .cfa -8 + ^ r4: .cfa -28 + ^ r5: .cfa -24 + ^ r6: .cfa -20 + ^ r7: .cfa -16 + ^ r8: .cfa -12 + ^
STACK CFI INIT 3914 14c .cfa: sp 0 + .ra: lr
STACK CFI 3918 .cfa: sp 28 +
STACK CFI 391c .ra: .cfa -4 + ^ r10: .cfa -8 + ^ r4: .cfa -28 + ^ r5: .cfa -24 + ^ r6: .cfa -20 + ^ r7: .cfa -16 + ^ r8: .cfa -12 + ^
STACK CFI 3924 .cfa: sp 120 +
STACK CFI INIT 3a60 858 .cfa: sp 0 + .ra: lr
STACK CFI 3a64 .cfa: sp 36 +
STACK CFI 3a6c .ra: .cfa -4 + ^ r10: .cfa -12 + ^ r11: .cfa -8 + ^ r4: .cfa -36 + ^ r5: .cfa -32 + ^ r6: .cfa -28 + ^ r7: .cfa -24 + ^ r8: .cfa -20 + ^ r9: .cfa -16 + ^
STACK CFI 3a70 .cfa: sp 96 +
STACK CFI INIT 42b8 30 .cfa: sp 0 + .ra: lr
STACK CFI 42bc .cfa: sp 4 +
STACK CFI 42c0 .cfa: sp 16 +
STACK CFI 42d0 .ra: .cfa -4 + ^
STACK CFI INIT 42e8 3b0 .cfa: sp 0 + .ra: lr
STACK CFI 42ec .cfa: sp 36 +
STACK CFI 42f0 .cfa: sp 104 +
STACK CFI 42f4 .ra: .cfa -4 + ^ r10: .cfa -12 + ^ r11: .cfa -8 + ^ r4: .cfa -36 + ^ r5: .cfa -32 + ^ r6: .cfa -28 + ^ r7: .cfa -24 + ^ r8: .cfa -20 + ^ r9: .cfa -16 + ^
STACK CFI INIT 4698 43c .cfa: sp 0 + .ra: lr
STACK CFI 469c .cfa: sp 36 +
STACK CFI 46a0 .ra: .cfa -4 + ^ r10: .cfa -12 + ^ r11: .cfa -8 + ^ r4: .cfa -36 + ^ r5: .cfa -32 + ^ r6: .cfa -28 + ^ r7: .cfa -24 + ^ r8: .cfa -20 + ^ r9: .cfa -16 + ^
STACK CFI 46a8 .cfa: sp 88 +
STACK CFI INIT 4ad4 5f8 .cfa: sp 0 + .ra: lr
STACK CFI 4ad8 .cfa: sp 36 +
STACK CFI 4adc .ra: .cfa -4 + ^ r10: .cfa -12 + ^ r11: .cfa -8 + ^ r4: .cfa -36 + ^ r5: .cfa -32 + ^ r6: .cfa -28 + ^ r7: .cfa -24 + ^ r8: .cfa -20 + ^ r9: .cfa -16 + ^
STACK CFI 4ae0 .cfa: sp 64 +
STACK CFI INIT 50cc b40 .cfa: sp 0 + .ra: lr
STACK CFI 50d0 .cfa: sp 36 +
STACK CFI 50d4 .ra: .cfa -4 + ^ r10: .cfa -12 + ^ r11: .cfa -8 + ^ r4: .cfa -36 + ^ r5: .cfa -32 + ^ r6: .cfa -28 + ^ r7: .cfa -24 + ^ r8: .cfa -20 + ^ r9: .cfa -16 + ^
STACK CFI 50dc .cfa: sp 144 +
STACK CFI INIT 5c0c 1bc .cfa: sp 0 + .ra: lr
STACK CFI 5c10 .cfa: sp 24 +
STACK CFI 5c14 .ra: .cfa -4 + ^ r3: .cfa -24 + ^ r4: .cfa -20 + ^ r5: .cfa -16 + ^ r6: .cfa -12 + ^ r7: .cfa -8 + ^
STACK CFI INIT 5dc8 17c .cfa: sp 0 + .ra: lr
STACK CFI 5dcc .cfa: sp 16 +
STACK CFI 5dd0 .ra: .cfa -4 + ^ r4: .cfa -16 + ^ r5: .cfa -12 + ^ r6: .cfa -8 + ^
STACK CFI 5e0c .cfa: sp 112 +
STACK CFI INIT 5f44 2ac .cfa: sp 0 + .ra: lr
STACK CFI 5f54 .cfa: sp 32 +
STACK CFI 5f5c .ra: .cfa -4 + ^ r10: .cfa -8 + ^ r4: .cfa -32 + ^ r5: .cfa -28 + ^ r6: .cfa -24 + ^ r7: .cfa -20 + ^ r8: .cfa -16 + ^ r9: .cfa -12 + ^
STACK CFI 5f60 .cfa: sp 64 +
STACK CFI INIT 61f0 f20 .cfa: sp 0 + .ra: lr
STACK CFI 61f4 .cfa: sp 36 +
STACK CFI 61fc .ra: .cfa -4 + ^ r10: .cfa -12 + ^ r11: .cfa -8 + ^ r4: .cfa -36 + ^ r5: .cfa -32 + ^ r6: .cfa -28 + ^ r7: .cfa -24 + ^ r8: .cfa -20 + ^ r9: .cfa -16 + ^
STACK CFI 6208 .cfa: sp 360 +
STACK CFI INIT 7110 850 .cfa: sp 0 + .ra: lr
STACK CFI 7114 .cfa: sp 36 +
STACK CFI 7118 .ra: .cfa -4 + ^ r10: .cfa -12 + ^ r11: .cfa -8 + ^ r4: .cfa -36 + ^ r5: .cfa -32 + ^ r6: .cfa -28 + ^ r7: .cfa -24 + ^ r8: .cfa -20 + ^ r9: .cfa -16 + ^
STACK CFI 712c .cfa: sp 128 +
STACK CFI INIT 7960 b84 .cfa: sp 0 + .ra: lr
STACK CFI 7964 .cfa: sp 36 +
STACK CFI 7968 .ra: .cfa -4 + ^ r10: .cfa -12 + ^ r11: .cfa -8 + ^ r4: .cfa -36 + ^ r5: .cfa -32 + ^ r6: .cfa -28 + ^ r7: .cfa -24 + ^ r8: .cfa -20 + ^ r9: .cfa -16 + ^
STACK CFI 796c .cfa: sp 184 +
STACK CFI INIT 84e4 854 .cfa: sp 0 + .ra: lr
STACK CFI 84e8 .cfa: sp 36 +
STACK CFI 84ec .cfa: r11 4 + .ra: .cfa -4 + ^ r10: .cfa -12 + ^ r11: .cfa -8 + ^ r4: .cfa -36 + ^ r5: .cfa -32 + ^ r6: .cfa -28 + ^ r7: .cfa -24 + ^ r8: .cfa -20 + ^ r9: .cfa -16 + ^
STACK CFI INIT 8d38 19c .cfa: sp 0 + .ra: lr
STACK CFI 8d3c .cfa: sp 36 +
STACK CFI 8d40 .ra: .cfa -4 + ^ r10: .cfa -12 + ^ r11: .cfa -8 + ^ r4: .cfa -36 + ^ r5: .cfa -32 + ^ r6: .cfa -28 + ^ r7: .cfa -24 + ^ r8: .cfa -20 + ^ r9: .cfa -16 + ^
STACK CFI 8d54 .cfa: sp 80 +
STACK CFI INIT 8ed4 d8 .cfa: sp 0 + .ra: lr
STACK CFI 8ed8 .cfa: sp 36 +
STACK CFI 8edc .ra: .cfa -4 + ^ r10: .cfa -12 + ^ r11: .cfa -8 + ^ r4: .cfa -36 + ^ r5: .cfa -32 + ^ r6: .cfa -28 + ^ r7: .cfa -24 + ^ r8: .cfa -20 + ^ r9: .cfa -16 + ^
STACK CFI 8ef8 .cfa: sp 144 +
STACK CFI INIT 8fac 38 .cfa: sp 0 + .ra: lr
STACK CFI 8fb0 .cfa: sp 16 +
STACK CFI 8fb4 .ra: .cfa -4 + ^ r4: .cfa -16 + ^ r5: .cfa -12 + ^ r6: .cfa -8 + ^
STACK CFI INIT 8fe4 194 .cfa: sp 0 + .ra: lr
STACK CFI 8fe8 .cfa: sp 24 +
STACK CFI 8fec .ra: .cfa -4 + ^ r4: .cfa -24 + ^ r5: .cfa -20 + ^ r6: .cfa -16 + ^ r7: .cfa -12 + ^ r8: .cfa -8 + ^
STACK CFI 8ffc .cfa: sp 120 +
STACK CFI INIT 9178 18c .cfa: sp 0 + .ra: lr
STACK CFI 917c .cfa: sp 24 +
STACK CFI 9180 .ra: .cfa -4 + ^ r4: .cfa -24 + ^ r5: .cfa -20 + ^ r6: .cfa -16 + ^ r7: .cfa -12 + ^ r8: .cfa -8 + ^
STACK CFI 918c .cfa: sp 120 +
STACK CFI INIT 9304 2fc .cfa: sp 0 + .ra: lr
STACK CFI 9308 .cfa: sp 32 +
STACK CFI 930c .ra: .cfa -4 + ^ r10: .cfa -8 + ^ r4: .cfa -32 + ^ r5: .cfa -28 + ^ r6: .cfa -24 + ^ r7: .cfa -20 + ^ r8: .cfa -16 + ^ r9: .cfa -12 + ^
STACK CFI 9320 .cfa: sp 128 +
STACK CFI INIT 9600 1d0 .cfa: sp 0 + .ra: lr
STACK CFI 9604 .cfa: sp 16 +
STACK CFI 960c .ra: .cfa -4 + ^ r4: .cfa -16 + ^ r5: .cfa -12 + ^ r6: .cfa -8 + ^
STACK CFI 9618 .cfa: sp 24 +
STACK CFI INIT 97d0 70 .cfa: sp 0 + .ra: lr
STACK CFI 97d4 .cfa: sp 20 +
STACK CFI 97d8 .ra: .cfa -4 + ^ r4: .cfa -20 + ^ r5: .cfa -16 + ^ r6: .cfa -12 + ^ r7: .cfa -8 + ^
STACK CFI 97dc .cfa: sp 40 +
STACK CFI INIT 9840 c08 .cfa: sp 0 + .ra: lr
STACK CFI 9844 .cfa: sp 36 +
STACK CFI 9848 .ra: .cfa -4 + ^ r10: .cfa -12 + ^ r11: .cfa -8 + ^ r4: .cfa -36 + ^ r5: .cfa -32 + ^ r6: .cfa -28 + ^ r7: .cfa -24 + ^ r8: .cfa -20 + ^ r9: .cfa -16 + ^
STACK CFI 9868 .cfa: sp 144 +
STACK CFI INIT a448 c50 .cfa: sp 0 + .ra: lr
STACK CFI a44c .cfa: sp 36 +
STACK CFI a450 .cfa: sp 384 +
STACK CFI a454 .ra: .cfa -4 + ^ r10: .cfa -12 + ^ r11: .cfa -8 + ^ r4: .cfa -36 + ^ r5: .cfa -32 + ^ r6: .cfa -28 + ^ r7: .cfa -24 + ^ r8: .cfa -20 + ^ r9: .cfa -16 + ^
STACK CFI INIT b098 2ac .cfa: sp 0 + .ra: lr
STACK CFI b09c .cfa: sp 32 +
STACK CFI b0a0 .ra: .cfa -4 + ^ r10: .cfa -8 + ^ r4: .cfa -32 + ^ r5: .cfa -28 + ^ r6: .cfa -24 + ^ r7: .cfa -20 + ^ r8: .cfa -16 + ^ r9: .cfa -12 + ^
STACK CFI INIT b344 3d4 .cfa: sp 0 + .ra: lr
STACK CFI b34c .cfa: sp 28 +
STACK CFI b350 .ra: .cfa -4 + ^ r10: .cfa -8 + ^ r4: .cfa -28 + ^ r5: .cfa -24 + ^ r6: .cfa -20 + ^ r7: .cfa -16 + ^ r8: .cfa -12 + ^
STACK CFI b35c .cfa: sp 128 +
STACK CFI INIT b718 784 .cfa: sp 0 + .ra: lr
STACK CFI b71c .cfa: sp 28 +
STACK CFI b720 .ra: .cfa -4 + ^ r10: .cfa -8 + ^ r4: .cfa -28 + ^ r5: .cfa -24 + ^ r6: .cfa -20 + ^ r7: .cfa -16 + ^ r8: .cfa -12 + ^
STACK CFI b734 .cfa: sp 120 +
STACK CFI INIT be9c 10f4 .cfa: sp 0 + .ra: lr
STACK CFI bea0 .cfa: sp 36 +
STACK CFI bea4 .ra: .cfa -4 + ^ r10: .cfa -12 + ^ r11: .cfa -8 + ^ r4: .cfa -36 + ^ r5: .cfa -32 + ^ r6: .cfa -28 + ^ r7: .cfa -24 + ^ r8: .cfa -20 + ^ r9: .cfa -16 + ^
STACK CFI bee4 .cfa: sp 232 +
STACK CFI INIT cf90 38 .cfa: sp 0 + .ra: lr
STACK CFI INIT cfc8 220 .cfa: sp 0 + .ra: lr
