MODULE Linux arm 4501DCC433C2169D22D362A29C32F8610 libidirectfbfont_ft2.so
FUNC e64 10 0 GetType
FUNC e74 10 0 GetImplementation
FUNC e84 24 0 ft2Latin1GetCharacterIndex
FUNC ea8 19c 0 ft2Latin1DecodeText
FUNC 1044 38 0 Deallocate
FUNC 107c 220 0 ft2UTF8DecodeText
FUNC 129c 74 0 ft2UTF8GetCharacterIndex
FUNC 1310 174 0 Probe
FUNC 1484 20c 0 get_kerning
FUNC 1690 6c 0 Allocate
FUNC 16fc 20e4 0 render_glyph
FUNC 37e0 1c4 0 get_glyph_info
FUNC 39a4 bd8 0 Construct
FUNC 457c f0 0 IDirectFBFont_FT2_Release
FUNC 466c 10 0 IDirectFBFont_FT2_ctor
FUNC 467c 10 0 IDirectFBFont_FT2_dtor
STACK CFI INIT e64 10 .cfa: sp 0 + .ra: lr
STACK CFI INIT e74 10 .cfa: sp 0 + .ra: lr
STACK CFI INIT e84 24 .cfa: sp 0 + .ra: lr
STACK CFI INIT ea8 19c .cfa: sp 0 + .ra: lr
STACK CFI eb0 .cfa: sp 12 +
STACK CFI ebc r4: .cfa -12 + ^ r5: .cfa -8 + ^ r6: .cfa -4 + ^
STACK CFI INIT 1044 38 .cfa: sp 0 + .ra: lr
STACK CFI 1048 .cfa: sp 16 +
STACK CFI 104c .ra: .cfa -4 + ^ r3: .cfa -16 + ^ r4: .cfa -12 + ^ r5: .cfa -8 + ^
STACK CFI INIT 107c 220 .cfa: sp 0 + .ra: lr
STACK CFI 1080 .cfa: sp 36 +
STACK CFI 1084 .ra: .cfa -4 + ^ r10: .cfa -12 + ^ r11: .cfa -8 + ^ r4: .cfa -36 + ^ r5: .cfa -32 + ^ r6: .cfa -28 + ^ r7: .cfa -24 + ^ r8: .cfa -20 + ^ r9: .cfa -16 + ^
STACK CFI 1090 .cfa: sp 48 +
STACK CFI INIT 129c 74 .cfa: sp 0 + .ra: lr
STACK CFI 12a0 .cfa: sp 16 +
STACK CFI 12a4 .ra: .cfa -4 + ^ r4: .cfa -16 + ^ r5: .cfa -12 + ^ r6: .cfa -8 + ^
STACK CFI INIT 1310 174 .cfa: sp 0 + .ra: lr
STACK CFI 1318 .cfa: sp 16 +
STACK CFI 131c .ra: .cfa -4 + ^ r4: .cfa -16 + ^ r5: .cfa -12 + ^ r6: .cfa -8 + ^
STACK CFI 1324 .cfa: sp 32 +
STACK CFI INIT 1484 20c .cfa: sp 0 + .ra: lr
STACK CFI 1490 .cfa: sp 36 +
STACK CFI 1494 .ra: .cfa -4 + ^ r10: .cfa -12 + ^ r11: .cfa -8 + ^ r4: .cfa -36 + ^ r5: .cfa -32 + ^ r6: .cfa -28 + ^ r7: .cfa -24 + ^ r8: .cfa -20 + ^ r9: .cfa -16 + ^
STACK CFI 1498 .cfa: sp 72 +
STACK CFI INIT 1690 6c .cfa: sp 0 + .ra: lr
STACK CFI 1694 .cfa: sp 8 +
STACK CFI 169c .ra: .cfa -4 + ^ r4: .cfa -8 + ^
STACK CFI INIT 16fc 20e4 .cfa: sp 0 + .ra: lr
STACK CFI 1700 .cfa: sp 36 +
STACK CFI 1704 .ra: .cfa -4 + ^ r10: .cfa -12 + ^ r11: .cfa -8 + ^ r4: .cfa -36 + ^ r5: .cfa -32 + ^ r6: .cfa -28 + ^ r7: .cfa -24 + ^ r8: .cfa -20 + ^ r9: .cfa -16 + ^
STACK CFI 170c .cfa: sp 144 +
STACK CFI INIT 37e0 1c4 .cfa: sp 0 + .ra: lr
STACK CFI 37e4 .cfa: sp 40 +
STACK CFI 37e8 .ra: .cfa -4 + ^ r10: .cfa -12 + ^ r11: .cfa -8 + ^ r3: .cfa -40 + ^ r4: .cfa -36 + ^ r5: .cfa -32 + ^ r6: .cfa -28 + ^ r7: .cfa -24 + ^ r8: .cfa -20 + ^ r9: .cfa -16 + ^
STACK CFI INIT 39a4 bd8 .cfa: sp 0 + .ra: lr
STACK CFI 39a8 .cfa: sp 36 +
STACK CFI 39ac .ra: .cfa -4 + ^ r10: .cfa -12 + ^ r11: .cfa -8 + ^ r4: .cfa -36 + ^ r5: .cfa -32 + ^ r6: .cfa -28 + ^ r7: .cfa -24 + ^ r8: .cfa -20 + ^ r9: .cfa -16 + ^
STACK CFI 39b0 .cfa: sp 208 +
STACK CFI INIT 457c f0 .cfa: sp 0 + .ra: lr
STACK CFI 4580 .cfa: sp 24 +
STACK CFI 4584 .ra: .cfa -4 + ^ r4: .cfa -24 + ^ r5: .cfa -20 + ^ r6: .cfa -16 + ^ r7: .cfa -12 + ^ r8: .cfa -8 + ^
STACK CFI INIT 466c 10 .cfa: sp 0 + .ra: lr
STACK CFI INIT 467c 10 .cfa: sp 0 + .ra: lr
STACK CFI INIT 468c 220 .cfa: sp 0 + .ra: lr
