MODULE Linux arm AC3071E2C757AE3E07E027E1F37BDC290 libQtNetwork.so.4.7.4
PUBLIC 1b974 0 _init
PUBLIC 1d484 0 _ZNK4QFtp10metaObjectEv
PUBLIC 1e050 0 _ZNK4QFtp14bytesAvailableEv
PUBLIC 1e05c 0 _ZN4QFtp4readEPcx
PUBLIC 1e068 0 _ZN4QFtp7readAllEv
PUBLIC 1e084 0 _ZNK4QFtp9currentIdEv
PUBLIC 1e0ac 0 _ZNK4QFtp14currentCommandEv
PUBLIC 1e0d4 0 _ZNK4QFtp13currentDeviceEv
PUBLIC 1e110 0 _ZNK4QFtp18hasPendingCommandsEv
PUBLIC 1e134 0 _ZNK4QFtp5stateEv
PUBLIC 1e140 0 _ZNK4QFtp5errorEv
PUBLIC 1e14c 0 _ZNK4QFtp11errorStringEv
PUBLIC 1e7c4 0 _ZN4QFtp12stateChangedEi
PUBLIC 1e804 0 _ZN4QFtp8listInfoERK8QUrlInfo
PUBLIC 1e844 0 _ZN4QFtp9readyReadEv
PUBLIC 1e868 0 _ZN4QFtp20dataTransferProgressExx
PUBLIC 1e8b4 0 _ZN4QFtp15rawCommandReplyEiRK7QString
PUBLIC 1e93c 0 _ZN4QFtp14commandStartedEi
PUBLIC 1e980 0 _ZN4QFtp15commandFinishedEib
PUBLIC 1e9d4 0 _ZN4QFtp4doneEb
PUBLIC 20f18 0 _ZN4QFtp13connectToHostERK7QStringt
PUBLIC 210a0 0 _ZN4QFtp5closeEv
PUBLIC 211b4 0 _ZN4QFtp15setTransferModeENS_12TransferModeE
PUBLIC 21274 0 _ZN4QFtp8setProxyERK7QStringt
PUBLIC 213f0 0 _ZN4QFtp10rawCommandERK7QString
PUBLIC 21600 0 _ZN4QFtp4listERK7QString
PUBLIC 21988 0 _ZN4QFtp2cdERK7QString
PUBLIC 21b40 0 _ZN4QFtp3getERK7QStringP9QIODeviceNS_12TransferTypeE
PUBLIC 21fe0 0 _ZN4QFtp3putEP9QIODeviceRK7QStringNS_12TransferTypeE
PUBLIC 22518 0 _ZN4QFtp6removeERK7QString
PUBLIC 226d0 0 _ZN4QFtp5mkdirERK7QString
PUBLIC 22888 0 _ZN4QFtp5rmdirERK7QString
PUBLIC 22a40 0 _ZN4QFtp6renameERK7QStringS2_
PUBLIC 22e38 0 _ZN4QFtp3putERK10QByteArrayRK7QStringNS_12TransferTypeE
PUBLIC 23340 0 _ZN4QFtp5loginERK7QStringS2_
PUBLIC 245c0 0 _ZN4QFtp20clearPendingCommandsEv
PUBLIC 2466c 0 _ZN4QFtp5abortEv
PUBLIC 246a0 0 _ZN4QFtpD1Ev
PUBLIC 246f0 0 _ZN4QFtpD0Ev
PUBLIC 26804 0 _ZN4QFtpC2EP7QObject
PUBLIC 2766c 0 _ZN4QFtp11qt_metacastEPKc
PUBLIC 279d4 0 _ZN4QFtp11qt_metacallEN11QMetaObject4CallEiPPv
PUBLIC 28ed0 0 _ZN11QHttpHeaderD1Ev
PUBLIC 28f20 0 _ZNK19QHttpResponseHeader12majorVersionEv
PUBLIC 28f2c 0 _ZNK19QHttpResponseHeader12minorVersionEv
PUBLIC 28f38 0 _ZNK18QHttpRequestHeader12majorVersionEv
PUBLIC 28f44 0 _ZNK18QHttpRequestHeader12minorVersionEv
PUBLIC 28f50 0 _ZNK5QHttp10metaObjectEv
PUBLIC 28f7c 0 _ZN11QHttpHeaderD0Ev
PUBLIC 29190 0 _ZN11QHttpHeaderC1Ev
PUBLIC 2922c 0 _ZNK11QHttpHeader7isValidEv
PUBLIC 29238 0 _ZNK11QHttpHeader8toStringEv
PUBLIC 294b0 0 _ZNK19QHttpResponseHeader8toStringEv
PUBLIC 296c8 0 _ZNK18QHttpRequestHeader8toStringEv
PUBLIC 2993c 0 _ZN11QHttpHeader8setValidEb
PUBLIC 29948 0 _ZNK11QHttpHeader5valueERK7QString
PUBLIC 29ab8 0 _ZNK11QHttpHeader6hasKeyERK7QString
PUBLIC 29b9c 0 _ZNK11QHttpHeader16hasContentLengthEv
PUBLIC 29c24 0 _ZNK11QHttpHeader13contentLengthEv
PUBLIC 29d04 0 _ZNK11QHttpHeader14hasContentTypeEv
PUBLIC 29d8c 0 _ZNK11QHttpHeader11contentTypeEv
PUBLIC 29ecc 0 _ZN19QHttpResponseHeader13setStatusLineEiRK7QStringii
PUBLIC 29f08 0 _ZNK19QHttpResponseHeader10statusCodeEv
PUBLIC 29f14 0 _ZNK19QHttpResponseHeader12reasonPhraseEv
PUBLIC 29f50 0 _ZN18QHttpRequestHeader10setRequestERK7QStringS2_ii
PUBLIC 29f94 0 _ZNK18QHttpRequestHeader6methodEv
PUBLIC 29fd0 0 _ZNK18QHttpRequestHeader4pathEv
PUBLIC 2a1dc 0 _ZNK5QHttp14bytesAvailableEv
PUBLIC 2a1ec 0 _ZNK5QHttp9currentIdEv
PUBLIC 2a214 0 _ZNK5QHttp19currentSourceDeviceEv
PUBLIC 2a250 0 _ZNK5QHttp24currentDestinationDeviceEv
PUBLIC 2a28c 0 _ZNK5QHttp18hasPendingRequestsEv
PUBLIC 2a2b0 0 _ZNK5QHttp5stateEv
PUBLIC 2a2bc 0 _ZNK5QHttp5errorEv
PUBLIC 2a2c8 0 _ZNK5QHttp11errorStringEv
PUBLIC 2a490 0 _ZN5QHttp12stateChangedEi
PUBLIC 2aa8c 0 _ZN5QHttp22responseHeaderReceivedERK19QHttpResponseHeader
PUBLIC 2aacc 0 _ZN5QHttp9readyReadERK19QHttpResponseHeader
PUBLIC 2ab0c 0 _ZN5QHttp16dataSendProgressEii
PUBLIC 2abd0 0 _ZN5QHttp16dataReadProgressEii
PUBLIC 2ac20 0 _ZN5QHttp14requestStartedEi
PUBLIC 2ac64 0 _ZN5QHttp15requestFinishedEib
PUBLIC 2acb8 0 _ZN5QHttp4doneEb
PUBLIC 2ad00 0 _ZN5QHttp27proxyAuthenticationRequiredERK13QNetworkProxyP14QAuthenticator
PUBLIC 2ad4c 0 _ZN5QHttp22authenticationRequiredERK7QStringtP14QAuthenticator
PUBLIC 2ada0 0 _ZNK11QHttpHeader9allValuesERK7QString
PUBLIC 2aef8 0 _ZN11QHttpHeader8addValueERK7QStringS2_
PUBLIC 2afa0 0 _ZN11QHttpHeader9parseLineERK7QStringi
PUBLIC 2b0f4 0 _ZN19QHttpResponseHeader9parseLineERK7QStringi
PUBLIC 2b454 0 _ZN5QHttp4readEPcx
PUBLIC 2bd48 0 _ZN5QHttp7readAllEv
PUBLIC 2bfb0 0 _ZN5QHttp7setHostERK7QStringt
PUBLIC 2c08c 0 _ZN5QHttp7setHostERK7QStringNS_14ConnectionModeEt
PUBLIC 2c1a4 0 _ZN5QHttp9setSocketEP10QTcpSocket
PUBLIC 2c240 0 _ZN5QHttp7setUserERK7QStringS2_
PUBLIC 2c344 0 _ZN5QHttp8setProxyERK7QStringiS2_S2_
PUBLIC 2c45c 0 _ZN5QHttp8setProxyERK13QNetworkProxy
PUBLIC 2c530 0 _ZN5QHttp5closeEv
PUBLIC 2c5c4 0 _ZN5QHttp15closeConnectionEv
PUBLIC 2c658 0 _ZN18QHttpRequestHeader9parseLineERK7QStringi
PUBLIC 2c9d8 0 _ZN11QHttpHeader5parseERK7QString
PUBLIC 2cfe4 0 _ZN11QHttpHeaderC1ERK7QString
PUBLIC 2d0b4 0 _ZN11QHttpHeaderC1ER18QHttpHeaderPrivateRK7QString
PUBLIC 2d138 0 _ZN19QHttpResponseHeaderC2Ev
PUBLIC 2d28c 0 _ZN19QHttpResponseHeaderC2EiRK7QStringii
PUBLIC 2d3fc 0 _ZN18QHttpRequestHeaderC2Ev
PUBLIC 2d590 0 _ZNK5QHttp14currentRequestEv
PUBLIC 2d5fc 0 _ZN5QHttpC2EP7QObject
PUBLIC 2d670 0 _ZN5QHttpC1ERK7QStringtP7QObject
PUBLIC 2d700 0 _ZN5QHttpC2ERK7QStringNS_14ConnectionModeEtP7QObject
PUBLIC 2d7b0 0 _ZN18QHttpRequestHeaderC1ERK7QStringS2_ii
PUBLIC 2d958 0 _ZN19QHttpResponseHeaderC2ERK7QString
PUBLIC 2dab0 0 _ZN18QHttpRequestHeaderC1ERK7QString
PUBLIC 2dc34 0 _ZN11QHttpHeaderC2ERKS_
PUBLIC 2dd84 0 _ZNK11QHttpHeader6valuesEv
PUBLIC 2dddc 0 _ZN11QHttpHeader15removeAllValuesERK7QString
PUBLIC 2df40 0 _ZN11QHttpHeader8setValueERK7QStringS2_
PUBLIC 2e0a0 0 _ZN11QHttpHeader16setContentLengthEi
PUBLIC 2e180 0 _ZN11QHttpHeader14setContentTypeERK7QString
PUBLIC 2e208 0 _ZN11QHttpHeader11removeValueERK7QString
PUBLIC 2e368 0 _ZN11QHttpHeader9setValuesERK5QListI5QPairI7QStringS2_EE
PUBLIC 2e3f8 0 _ZN11QHttpHeaderaSERKS_
PUBLIC 2e4a4 0 _ZN19QHttpResponseHeaderaSERKS_
PUBLIC 2e4ec 0 _ZN18QHttpRequestHeaderaSERKS_
PUBLIC 2e6b8 0 _ZN11QHttpHeaderC1ER18QHttpHeaderPrivateRKS_
PUBLIC 2e7b0 0 _ZN19QHttpResponseHeaderC2ERKS_
PUBLIC 2e8ec 0 _ZNK5QHttp12lastResponseEv
PUBLIC 2e908 0 _ZN18QHttpRequestHeaderC2ERKS_
PUBLIC 2ea90 0 _ZN5QHttp7requestERK18QHttpRequestHeaderRK10QByteArrayP9QIODevice
PUBLIC 2ebac 0 _ZN5QHttp4postERK7QStringRK10QByteArrayP9QIODevice
PUBLIC 2ee00 0 _ZN5QHttp7requestERK18QHttpRequestHeaderP9QIODeviceS4_
PUBLIC 2eed4 0 _ZN5QHttp4headERK7QString
PUBLIC 2f110 0 _ZN5QHttp3getERK7QStringP9QIODevice
PUBLIC 2f350 0 _ZN5QHttp4postERK7QStringP9QIODeviceS4_
PUBLIC 2f598 0 _ZNK11QHttpHeader4keysEv
PUBLIC 323d8 0 _ZN5QHttp20clearPendingRequestsEv
PUBLIC 32480 0 _ZN5QHttp5abortEv
PUBLIC 32558 0 _ZN5QHttpD1Ev
PUBLIC 325a0 0 _ZN5QHttpD0Ev
PUBLIC 32954 0 _ZN5QHttp11qt_metacastEPKc
PUBLIC 32998 0 _ZN5QHttp11qt_metacallEN11QMetaObject4CallEiPPv
PUBLIC 32c54 0 _ZN18QHttpRequestHeaderD1Ev
PUBLIC 32c88 0 _ZN19QHttpResponseHeaderD2Ev
PUBLIC 32d34 0 _ZN18QHttpRequestHeaderD0Ev
PUBLIC 32d70 0 _ZN19QHttpResponseHeaderD0Ev
PUBLIC 47628 0 _ZNK21QNetworkAccessManager10metaObjectEv
PUBLIC 47c8c 0 _ZNK21QNetworkAccessManager5proxyEv
PUBLIC 47ca8 0 _ZN21QNetworkAccessManager8setProxyERK13QNetworkProxy
PUBLIC 47ce4 0 _ZNK21QNetworkAccessManager12proxyFactoryEv
PUBLIC 47cf0 0 _ZN21QNetworkAccessManager15setProxyFactoryEP20QNetworkProxyFactory
PUBLIC 47d50 0 _ZNK21QNetworkAccessManager5cacheEv
PUBLIC 47d5c 0 _ZN21QNetworkAccessManager8setCacheEP21QAbstractNetworkCache
PUBLIC 47da8 0 _ZN21QNetworkAccessManager12setCookieJarEP17QNetworkCookieJar
PUBLIC 47e24 0 _ZNK21QNetworkAccessManager13configurationEv
PUBLIC 47e54 0 _ZNK21QNetworkAccessManager17networkAccessibleEv
PUBLIC 47ef4 0 _ZN21QNetworkAccessManager4headERK15QNetworkRequest
PUBLIC 47f24 0 _ZN21QNetworkAccessManager3getERK15QNetworkRequest
PUBLIC 47f54 0 _ZN21QNetworkAccessManager4postERK15QNetworkRequestP9QIODevice
PUBLIC 47f84 0 _ZN21QNetworkAccessManager4postERK15QNetworkRequestRK10QByteArray
PUBLIC 48010 0 _ZN21QNetworkAccessManager3putERK15QNetworkRequestP9QIODevice
PUBLIC 48040 0 _ZN21QNetworkAccessManager3putERK15QNetworkRequestRK10QByteArray
PUBLIC 480cc 0 _ZN21QNetworkAccessManager14deleteResourceERK15QNetworkRequest
PUBLIC 480fc 0 _ZN21QNetworkAccessManager17sendCustomRequestERK15QNetworkRequestRK10QByteArrayP9QIODevice
PUBLIC 481e8 0 _ZNK21QNetworkAccessManager9cookieJarEv
PUBLIC 48370 0 _ZN21QNetworkAccessManager27proxyAuthenticationRequiredERK13QNetworkProxyP14QAuthenticator
PUBLIC 483bc 0 _ZN21QNetworkAccessManager22authenticationRequiredEP13QNetworkReplyP14QAuthenticator
PUBLIC 4840c 0 _ZN21QNetworkAccessManager8finishedEP13QNetworkReply
PUBLIC 48450 0 _ZN21QNetworkAccessManager23networkSessionConnectedEv
PUBLIC 48474 0 _ZN21QNetworkAccessManager24networkAccessibleChangedENS_20NetworkAccessibilityE
PUBLIC 48538 0 _ZN21QNetworkAccessManager20setNetworkAccessibleENS_20NetworkAccessibilityE
PUBLIC 48580 0 _ZN21QNetworkAccessManagerD2Ev
PUBLIC 48718 0 _ZN21QNetworkAccessManagerD0Ev
PUBLIC 4ad94 0 _ZN21QNetworkAccessManager16setConfigurationERK21QNetworkConfiguration
PUBLIC 4ad9c 0 _ZN21QNetworkAccessManagerC2EP7QObject
PUBLIC 4b654 0 _ZNK21QNetworkAccessManager19activeConfigurationEv
PUBLIC 4b7a0 0 _ZN21QNetworkAccessManager13createRequestENS_9OperationERK15QNetworkRequestP9QIODevice
PUBLIC 4c620 0 _ZN21QNetworkAccessManager11qt_metacastEPKc
PUBLIC 4c664 0 _ZN21QNetworkAccessManager11qt_metacallEN11QMetaObject4CallEiPPv
PUBLIC 5cc54 0 _ZN14QNetworkCookieC1ERKS_
PUBLIC 5cc94 0 _ZN14QNetworkCookieaSERKS_
PUBLIC 5ce80 0 _ZNK14QNetworkCookieeqERKS_
PUBLIC 5cffc 0 _ZNK14QNetworkCookie8isSecureEv
PUBLIC 5d008 0 _ZNK14QNetworkCookie10isHttpOnlyEv
PUBLIC 5d014 0 _ZNK14QNetworkCookie15isSessionCookieEv
PUBLIC 5d030 0 _ZNK14QNetworkCookie14expirationDateEv
PUBLIC 5d04c 0 _ZNK14QNetworkCookie6domainEv
PUBLIC 5d088 0 _ZNK14QNetworkCookie4pathEv
PUBLIC 5d0c4 0 _ZNK14QNetworkCookie4nameEv
PUBLIC 5d100 0 _ZNK14QNetworkCookie5valueEv
PUBLIC 5d13c 0 _ZNK14QNetworkCookie9toRawFormENS_7RawFormE
PUBLIC 5d814 0 _Zls6QDebugRK14QNetworkCookie
PUBLIC 5d99c 0 _ZN14QNetworkCookieD2Ev
PUBLIC 5dd54 0 _ZN14QNetworkCookie11setHttpOnlyEb
PUBLIC 5dd88 0 _ZN14QNetworkCookie9setSecureEb
PUBLIC 5ddbc 0 _ZN14QNetworkCookie17setExpirationDateERK9QDateTime
PUBLIC 5ddf8 0 _ZN14QNetworkCookie9setDomainERK7QString
PUBLIC 5de34 0 _ZN14QNetworkCookie7setPathERK7QString
PUBLIC 5de70 0 _ZN14QNetworkCookie7setNameERK10QByteArray
PUBLIC 5deac 0 _ZN14QNetworkCookie8setValueERK10QByteArray
PUBLIC 5dee8 0 _ZN14QNetworkCookieC2ERK10QByteArrayS2_
PUBLIC 5fcec 0 _ZN14QNetworkCookie12parseCookiesERK10QByteArray
PUBLIC 60744 0 _ZN17QNetworkCookieJarD1Ev
PUBLIC 60778 0 _ZN17QNetworkCookieJarD0Ev
PUBLIC 607e8 0 _ZN17QNetworkCookieJarC2EP7QObject
PUBLIC 60c7c 0 _ZN17QNetworkCookieJar13setAllCookiesERK5QListI14QNetworkCookieE
PUBLIC 60d0c 0 _ZNK17QNetworkCookieJar10allCookiesEv
PUBLIC 60d64 0 _ZN17QNetworkCookieJar17setCookiesFromUrlERK5QListI14QNetworkCookieERK4QUrl
PUBLIC 61e30 0 _ZNK17QNetworkCookieJar13cookiesForUrlERK4QUrl
PUBLIC 628bc 0 _ZN15QNetworkRequestC1ERKS_
PUBLIC 628fc 0 _ZNK15QNetworkRequest3urlEv
PUBLIC 62918 0 _ZNK15QNetworkRequest6headerENS_12KnownHeadersE
PUBLIC 6298c 0 _ZNK15QNetworkRequest9attributeENS_9AttributeERK8QVariant
PUBLIC 629f4 0 _ZNK15QNetworkRequest17originatingObjectEv
PUBLIC 62a14 0 _ZNK15QNetworkRequest8priorityEv
PUBLIC 62a9c 0 _ZNK15QNetworkRequest12hasRawHeaderERK10QByteArray
PUBLIC 62ae4 0 _ZNK15QNetworkRequest9rawHeaderERK10QByteArray
PUBLIC 63070 0 _ZN15QNetworkRequestaSERKS_
PUBLIC 6322c 0 _ZNK15QNetworkRequesteqERKS_
PUBLIC 6329c 0 _ZN15QNetworkRequestD1Ev
PUBLIC 63630 0 _ZNK15QNetworkRequest13rawHeaderListEv
PUBLIC 638c4 0 _ZN15QNetworkRequest20setOriginatingObjectEP7QObject
PUBLIC 63a40 0 _ZN15QNetworkRequest11setPriorityENS_8PriorityE
PUBLIC 63a74 0 _ZN15QNetworkRequest6setUrlERK4QUrl
PUBLIC 63ab0 0 _ZN15QNetworkRequest12setAttributeENS_9AttributeERK8QVariant
PUBLIC 63c04 0 _ZN15QNetworkRequestC2ERK4QUrl
PUBLIC 64734 0 _ZN15QNetworkRequest12setRawHeaderERK10QByteArrayS2_
PUBLIC 65cc8 0 _ZN15QNetworkRequest9setHeaderENS_12KnownHeadersERK8QVariant
PUBLIC 666c8 0 _ZNK13QNetworkReply12isSequentialEv
PUBLIC 666d0 0 _ZN13QNetworkReply17setReadBufferSizeEx
PUBLIC 666dc 0 _ZN13QNetworkReply15ignoreSslErrorsEv
PUBLIC 666e0 0 _ZN13QNetworkReply9writeDataEPKcx
PUBLIC 666ec 0 _ZN13QNetworkReplyD1Ev
PUBLIC 66720 0 _ZN13QNetworkReplyD0Ev
PUBLIC 667ac 0 _ZN13QNetworkReplyC1ER20QNetworkReplyPrivateP7QObject
PUBLIC 667e4 0 _ZNK13QNetworkReply14readBufferSizeEv
PUBLIC 667f0 0 _ZNK13QNetworkReply7managerEv
PUBLIC 667fc 0 _ZNK13QNetworkReply7requestEv
PUBLIC 66818 0 _ZNK13QNetworkReply9operationEv
PUBLIC 66824 0 _ZNK13QNetworkReply5errorEv
PUBLIC 66830 0 _ZNK13QNetworkReply10isFinishedEv
PUBLIC 66848 0 _ZNK13QNetworkReply9isRunningEv
PUBLIC 6685c 0 _ZNK13QNetworkReply3urlEv
PUBLIC 66878 0 _ZNK13QNetworkReply6headerEN15QNetworkRequest12KnownHeadersE
PUBLIC 66948 0 _ZNK13QNetworkReply12hasRawHeaderERK10QByteArray
PUBLIC 66988 0 _ZNK13QNetworkReply9rawHeaderERK10QByteArray
PUBLIC 66a3c 0 _ZNK13QNetworkReply14rawHeaderPairsEv
PUBLIC 66a48 0 _ZNK13QNetworkReply13rawHeaderListEv
PUBLIC 66a64 0 _ZNK13QNetworkReply9attributeEN15QNetworkRequest9AttributeE
PUBLIC 66ad8 0 _ZN13QNetworkReply12setOperationEN21QNetworkAccessManager9OperationE
PUBLIC 66ae4 0 _ZN13QNetworkReply10setRequestERK15QNetworkRequest
PUBLIC 66af0 0 _ZN13QNetworkReply8setErrorENS_12NetworkErrorERK7QString
PUBLIC 66b00 0 _ZN13QNetworkReply6setUrlERK4QUrl
PUBLIC 66b0c 0 _ZN13QNetworkReply9setHeaderEN15QNetworkRequest12KnownHeadersERK8QVariant
PUBLIC 66b18 0 _ZN13QNetworkReply12setRawHeaderERK10QByteArrayS2_
PUBLIC 66d84 0 _ZN13QNetworkReplyC2EP7QObject
PUBLIC 66de4 0 _ZN13QNetworkReply12setAttributeEN15QNetworkRequest9AttributeERK8QVariant
PUBLIC 66ef8 0 _ZN13QNetworkReply5closeEv
PUBLIC 6c924 0 _ZN21QAbstractNetworkCacheD1Ev
PUBLIC 6c958 0 _ZN21QAbstractNetworkCacheD0Ev
PUBLIC 6ca6c 0 _ZN21QNetworkCacheMetaDataC2ERKS_
PUBLIC 6caac 0 _ZNK21QNetworkCacheMetaData10saveToDiskEv
PUBLIC 6cab8 0 _ZNK21QNetworkCacheMetaData3urlEv
PUBLIC 6cad4 0 _ZNK21QNetworkCacheMetaData12lastModifiedEv
PUBLIC 6caf0 0 _ZNK21QNetworkCacheMetaData14expirationDateEv
PUBLIC 6cb0c 0 _ZN21QAbstractNetworkCacheC1EP7QObject
PUBLIC 6cb88 0 _ZN21QAbstractNetworkCacheC1ER28QAbstractNetworkCachePrivateP7QObject
PUBLIC 6cbc0 0 _ZN21QNetworkCacheMetaDataC2Ev
PUBLIC 6ccd8 0 _ZN21QNetworkCacheMetaDataD2Ev
PUBLIC 6cdcc 0 _ZN21QNetworkCacheMetaDataaSERKS_
PUBLIC 6cef4 0 _ZNK21QNetworkCacheMetaData7isValidEv
PUBLIC 6d1b8 0 _ZNK21QNetworkCacheMetaDataeqERKS_
PUBLIC 6d254 0 _ZNK21QNetworkCacheMetaData10attributesEv
PUBLIC 6d2b8 0 _ZNK21QNetworkCacheMetaData10rawHeadersEv
PUBLIC 6d530 0 _ZlsR11QDataStreamRK21QNetworkCacheMetaData
PUBLIC 6d544 0 _ZN21QNetworkCacheMetaData13setSaveToDiskEb
PUBLIC 6d578 0 _ZN21QNetworkCacheMetaData15setLastModifiedERK9QDateTime
PUBLIC 6d5b4 0 _ZN21QNetworkCacheMetaData17setExpirationDateERK9QDateTime
PUBLIC 6d5f0 0 _ZN21QNetworkCacheMetaData13setAttributesERK5QHashIN15QNetworkRequest9AttributeE8QVariantE
PUBLIC 6d6b4 0 _ZN21QNetworkCacheMetaData6setUrlERK4QUrl
PUBLIC 6de94 0 _ZrsR11QDataStreamR21QNetworkCacheMetaData
PUBLIC 6dea8 0 _ZN21QNetworkCacheMetaData13setRawHeadersERK5QListI5QPairI10QByteArrayS2_EE
PUBLIC 6e5a4 0 _ZNK17QNetworkDiskCache9cacheSizeEv
PUBLIC 6e5fc 0 _ZN17QNetworkDiskCache5clearEv
PUBLIC 6e628 0 _ZN17QNetworkDiskCache14updateMetaDataERK21QNetworkCacheMetaData
PUBLIC 6e8e8 0 _ZNK17QNetworkDiskCache14cacheDirectoryEv
PUBLIC 6e924 0 _ZN17QNetworkDiskCache17setCacheDirectoryERK7QString
PUBLIC 6eb9c 0 _ZNK17QNetworkDiskCache16maximumCacheSizeEv
PUBLIC 6eba8 0 _ZN17QNetworkDiskCache19setMaximumCacheSizeEx
PUBLIC 6fa58 0 _ZN17QNetworkDiskCacheC2EP7QObject
PUBLIC 6fbc0 0 _ZN17QNetworkDiskCacheD2Ev
PUBLIC 6fdc8 0 _ZN17QNetworkDiskCacheD0Ev
PUBLIC 6fde4 0 _ZN17QNetworkDiskCache6removeERK4QUrl
PUBLIC 70104 0 _ZN17QNetworkDiskCache6expireEv
PUBLIC 70a0c 0 _ZN17QNetworkDiskCache7prepareERK21QNetworkCacheMetaData
PUBLIC 71bc4 0 _ZN17QNetworkDiskCache6insertEP9QIODevice
PUBLIC 72424 0 _ZNK17QNetworkDiskCache12fileMetaDataERK7QString
PUBLIC 724cc 0 _ZN17QNetworkDiskCache8metaDataERK4QUrl
PUBLIC 725b8 0 _ZN17QNetworkDiskCache4dataERK4QUrl
PUBLIC 73140 0 _ZNK15QNetworkSession10metaObjectEv
PUBLIC 7316c 0 _ZN15QNetworkSessionD2Ev
PUBLIC 731c8 0 _ZN15QNetworkSessionD0Ev
PUBLIC 731e4 0 _ZN15QNetworkSession13connectNotifyEPKc
PUBLIC 73234 0 _ZN15QNetworkSession16disconnectNotifyEPKc
PUBLIC 73280 0 _ZN15QNetworkSession13waitForOpenedEi
PUBLIC 73394 0 _ZN15QNetworkSession5closeEv
PUBLIC 733b4 0 _ZN15QNetworkSession4stopEv
PUBLIC 733d4 0 _ZNK15QNetworkSession13configurationEv
PUBLIC 73404 0 _ZNK15QNetworkSession9interfaceEv
PUBLIC 73438 0 _ZNK15QNetworkSession6isOpenEv
PUBLIC 73448 0 _ZNK15QNetworkSession5stateEv
PUBLIC 73458 0 _ZNK15QNetworkSession5errorEv
PUBLIC 73480 0 _ZNK15QNetworkSession11errorStringEv
PUBLIC 734dc 0 _ZNK15QNetworkSession15sessionPropertyERK7QString
PUBLIC 737e8 0 _ZN15QNetworkSession18setSessionPropertyERK7QStringRK8QVariant
PUBLIC 73880 0 _ZN15QNetworkSession7migrateEv
PUBLIC 738a0 0 _ZN15QNetworkSession6ignoreEv
PUBLIC 738c0 0 _ZN15QNetworkSession6acceptEv
PUBLIC 738e0 0 _ZN15QNetworkSession6rejectEv
PUBLIC 73900 0 _ZNK15QNetworkSession12bytesWrittenEv
PUBLIC 7392c 0 _ZNK15QNetworkSession13bytesReceivedEv
PUBLIC 73958 0 _ZNK15QNetworkSession10activeTimeEv
PUBLIC 73984 0 _ZN15QNetworkSession12stateChangedENS_5StateE
PUBLIC 739c4 0 _ZN15QNetworkSession6openedEv
PUBLIC 739e8 0 _ZN15QNetworkSession6closedEv
PUBLIC 73a0c 0 _ZN15QNetworkSession5errorENS_12SessionErrorE
PUBLIC 73a50 0 _ZN15QNetworkSession4openEv
PUBLIC 73a80 0 _ZN15QNetworkSession29preferredConfigurationChangedERK21QNetworkConfigurationb
PUBLIC 73acc 0 _ZN15QNetworkSession25newConfigurationActivatedEv
PUBLIC 73af0 0 _ZN15QNetworkSessionC1ERK21QNetworkConfigurationP7QObject
PUBLIC 73f3c 0 _ZN15QNetworkSession11qt_metacastEPKc
PUBLIC 73f80 0 _ZN15QNetworkSession11qt_metacallEN11QMetaObject4CallEiPPv
PUBLIC 742b8 0 _ZNK28QNetworkConfigurationManager10metaObjectEv
PUBLIC 743c0 0 _ZN28QNetworkConfigurationManagerD2Ev
PUBLIC 74414 0 _ZN28QNetworkConfigurationManagerD0Ev
PUBLIC 74430 0 _Z35qNetworkConfigurationManagerPrivatev
PUBLIC 74434 0 _ZN28QNetworkConfigurationManagerC1EP7QObject
PUBLIC 74548 0 _ZNK28QNetworkConfigurationManager20defaultConfigurationEv
PUBLIC 74578 0 _ZNK28QNetworkConfigurationManager17allConfigurationsE6QFlagsIN21QNetworkConfiguration9StateFlagEE
PUBLIC 745fc 0 _ZNK28QNetworkConfigurationManager27configurationFromIdentifierERK7QString
PUBLIC 74638 0 _ZNK28QNetworkConfigurationManager8isOnlineEv
PUBLIC 74650 0 _ZNK28QNetworkConfigurationManager12capabilitiesEv
PUBLIC 74678 0 _ZN28QNetworkConfigurationManager20updateConfigurationsEv
PUBLIC 74690 0 _ZN28QNetworkConfigurationManager18configurationAddedERK21QNetworkConfiguration
PUBLIC 746cc 0 _ZN28QNetworkConfigurationManager20configurationRemovedERK21QNetworkConfiguration
PUBLIC 7470c 0 _ZN28QNetworkConfigurationManager20configurationChangedERK21QNetworkConfiguration
PUBLIC 7474c 0 _ZN28QNetworkConfigurationManager18onlineStateChangedEb
PUBLIC 74794 0 _ZN28QNetworkConfigurationManager15updateCompletedEv
PUBLIC 747b8 0 _ZN28QNetworkConfigurationManager11qt_metacastEPKc
PUBLIC 747fc 0 _ZN28QNetworkConfigurationManager11qt_metacallEN11QMetaObject4CallEiPPv
PUBLIC 74898 0 _ZN21QNetworkConfigurationC1Ev
PUBLIC 748a4 0 _ZN21QNetworkConfigurationC2ERKS_
PUBLIC 748e8 0 _ZN21QNetworkConfigurationaSERKS_
PUBLIC 74988 0 _ZN21QNetworkConfigurationD2Ev
PUBLIC 74a5c 0 _ZNK21QNetworkConfigurationeqERKS_
PUBLIC 74a90 0 _ZNK21QNetworkConfiguration4nameEv
PUBLIC 74b3c 0 _ZNK21QNetworkConfiguration10identifierEv
PUBLIC 74be8 0 _ZNK21QNetworkConfiguration4typeEv
PUBLIC 74c24 0 _ZNK21QNetworkConfiguration7isValidEv
PUBLIC 74c68 0 _ZNK21QNetworkConfiguration5stateEv
PUBLIC 74cb0 0 _ZNK21QNetworkConfiguration7purposeEv
PUBLIC 74cf4 0 _ZNK21QNetworkConfiguration18isRoamingAvailableEv
PUBLIC 74d38 0 _ZNK21QNetworkConfiguration10bearerTypeEv
PUBLIC 74d88 0 _ZNK21QNetworkConfiguration14bearerTypeNameEv
PUBLIC 74fa8 0 _ZNK21QNetworkConfiguration8childrenEv
PUBLIC 759e0 0 _ZN35QNetworkConfigurationManagerPrivate7cleanupEv
PUBLIC 75a20 0 _ZN35QNetworkConfigurationManagerPrivate8isOnlineEv
PUBLIC 75a70 0 _ZN35QNetworkConfigurationManagerPrivate13enablePollingEv
PUBLIC 75bf4 0 _ZN35QNetworkConfigurationManagerPrivate14disablePollingEv
PUBLIC 75c34 0 _ZN35QNetworkConfigurationManagerPrivateC1Ev
PUBLIC 75dd0 0 _ZN35QNetworkConfigurationManagerPrivateD1Ev
PUBLIC 75fbc 0 _ZN35QNetworkConfigurationManagerPrivateD0Ev
PUBLIC 75fd8 0 _ZN35QNetworkConfigurationManagerPrivate7enginesEv
PUBLIC 7607c 0 _ZN35QNetworkConfigurationManagerPrivate12capabilitiesEv
PUBLIC 761c4 0 _ZN35QNetworkConfigurationManagerPrivate27configurationFromIdentifierERK7QString
PUBLIC 767f4 0 _ZN35QNetworkConfigurationManagerPrivate12startPollingEv
PUBLIC 76ac4 0 _ZN35QNetworkConfigurationManagerPrivate17allConfigurationsE6QFlagsIN21QNetworkConfiguration9StateFlagEE
PUBLIC 771d4 0 _ZN35QNetworkConfigurationManagerPrivate20defaultConfigurationEv
PUBLIC 77e68 0 _ZN35QNetworkConfigurationManagerPrivate20configurationRemovedE28QExplicitlySharedDataPointerI28QNetworkConfigurationPrivateE
PUBLIC 77fec 0 _ZN35QNetworkConfigurationManagerPrivate20configurationChangedE28QExplicitlySharedDataPointerI28QNetworkConfigurationPrivateE
PUBLIC 78270 0 _ZN35QNetworkConfigurationManagerPrivate18configurationAddedE28QExplicitlySharedDataPointerI28QNetworkConfigurationPrivateE
PUBLIC 784c8 0 _ZN35QNetworkConfigurationManagerPrivate20updateConfigurationsEv
PUBLIC 78de0 0 _ZN35QNetworkConfigurationManagerPrivate10initializeEv
PUBLIC 78e40 0 _ZN35QNetworkConfigurationManagerPrivate11pollEnginesEv
PUBLIC 79110 0 _ZN35QNetworkConfigurationManagerPrivate31performAsyncConfigurationUpdateEv
PUBLIC 79de8 0 _ZNK13QBearerEngine15requiresPollingEv
PUBLIC 79df0 0 _ZNK13QBearerEngine10metaObjectEv
PUBLIC 79e1c 0 _ZNK13QBearerEngine19configurationsInUseEv
PUBLIC 79fa0 0 _ZN13QBearerEngine18configurationAddedE28QExplicitlySharedDataPointerI28QNetworkConfigurationPrivateE
PUBLIC 79fdc 0 _ZN13QBearerEngine20configurationRemovedE28QExplicitlySharedDataPointerI28QNetworkConfigurationPrivateE
PUBLIC 7a01c 0 _ZN13QBearerEngine20configurationChangedE28QExplicitlySharedDataPointerI28QNetworkConfigurationPrivateE
PUBLIC 7a05c 0 _ZN13QBearerEngine15updateCompletedEv
PUBLIC 7a080 0 _ZN13QBearerEngineC2EP7QObject
PUBLIC 7a170 0 _ZN13QBearerEngineD1Ev
PUBLIC 7aae4 0 _ZN13QBearerEngineD0Ev
PUBLIC 7ab00 0 _ZN13QBearerEngine11qt_metacastEPKc
PUBLIC 7ab44 0 _ZN13QBearerEngine11qt_metacallEN11QMetaObject4CallEiPPv
PUBLIC 7ada8 0 _ZN19QBearerEnginePluginD1Ev
PUBLIC 7adf0 0 _ZThn8_N19QBearerEnginePluginD1Ev
PUBLIC 7adf8 0 _ZN19QBearerEnginePluginD0Ev
PUBLIC 7ae14 0 _ZThn8_N19QBearerEnginePluginD0Ev
PUBLIC 7ae1c 0 _ZN19QBearerEnginePluginC2EP7QObject
PUBLIC 7ae80 0 _ZN29QBearerEngineFactoryInterfaceD2Ev
PUBLIC 7aed8 0 _ZN29QBearerEngineFactoryInterfaceD0Ev
PUBLIC 7c0cc 0 _ZN14QAuthenticatorC1Ev
PUBLIC 7c0d8 0 _ZN14QAuthenticatorC1ERKS_
PUBLIC 7c118 0 _ZNK14QAuthenticator4userEv
PUBLIC 7c19c 0 _ZNK14QAuthenticator8passwordEv
PUBLIC 7c220 0 _ZNK14QAuthenticator5realmEv
PUBLIC 7c2a4 0 _ZNK14QAuthenticator6isNullEv
PUBLIC 7d01c 0 _ZN14QAuthenticatorD2Ev
PUBLIC 7d2dc 0 _ZN14QAuthenticatoraSERKS_
PUBLIC 7d5f0 0 _ZNK14QAuthenticatoreqERKS_
PUBLIC 7d690 0 _ZNK14QAuthenticator6optionERK7QString
PUBLIC 7d72c 0 _ZNK14QAuthenticator7optionsEv
PUBLIC 7d7dc 0 _ZN14QAuthenticator6detachEv
PUBLIC 7dce4 0 _ZN14QAuthenticator7setUserERK7QString
PUBLIC 7e1e8 0 _ZN14QAuthenticator11setPasswordERK7QString
PUBLIC 7e20c 0 _ZN14QAuthenticator9setOptionERK7QStringRK8QVariant
PUBLIC 84df4 0 _ZN12QHostAddressC1Ev
PUBLIC 84e24 0 _ZN12QHostAddressC1ERKS_
PUBLIC 84ed4 0 _ZN12QHostAddressD1Ev
PUBLIC 84f80 0 _ZN12QHostAddressaSERKS_
PUBLIC 85178 0 _ZN12QHostAddress5clearEv
PUBLIC 851a0 0 _ZN12QHostAddress10setAddressEj
PUBLIC 851bc 0 _ZN12QHostAddress10setAddressEPh
PUBLIC 851ec 0 _ZN12QHostAddress10setAddressERK12QIPv6Address
PUBLIC 85218 0 _ZN12QHostAddress10setAddressEPK8sockaddr
PUBLIC 85a0c 0 _ZN12QHostAddress10setAddressERK7QString
PUBLIC 85a94 0 _ZN12QHostAddressaSERK7QString
PUBLIC 85aa8 0 _ZNK12QHostAddress13toIPv4AddressEv
PUBLIC 85ad4 0 _ZNK12QHostAddress8protocolEv
PUBLIC 85b00 0 _ZNK12QHostAddress13toIPv6AddressEv
PUBLIC 85b44 0 _ZNK12QHostAddress8toStringEv
PUBLIC 85e90 0 _Zls6QDebugRK12QHostAddress
PUBLIC 8602c 0 _Z5qHashRK12QHostAddress
PUBLIC 860a0 0 _ZNK12QHostAddress7scopeIdEv
PUBLIC 86150 0 _ZlsR11QDataStreamRK12QHostAddress
PUBLIC 86250 0 _ZN12QHostAddress10setScopeIdERK7QString
PUBLIC 86294 0 _ZrsR11QDataStreamR12QHostAddress
PUBLIC 863e8 0 _ZNK12QHostAddresseqERKS_
PUBLIC 864ac 0 _ZNK12QHostAddress6isNullEv
PUBLIC 864e4 0 _ZNK12QHostAddress10isInSubnetERKS_i
PUBLIC 86604 0 _ZNK12QHostAddress10isInSubnetERK5QPairIS_iE
PUBLIC 8660c 0 _ZN12QHostAddressC1Ej
PUBLIC 86660 0 _ZN12QHostAddressC1EPh
PUBLIC 866b4 0 _ZN12QHostAddressC2ERK12QIPv6Address
PUBLIC 86708 0 _ZN12QHostAddressC1ERK7QString
PUBLIC 86768 0 _ZN12QHostAddressC2EPK8sockaddr
PUBLIC 867fc 0 _ZN12QHostAddressC2ENS_14SpecialAddressE
PUBLIC 86a8c 0 _ZNK12QHostAddresseqENS_14SpecialAddressE
PUBLIC 86b74 0 _ZN12QHostAddress11parseSubnetERK7QString
PUBLIC 872b0 0 _ZNK9QHostInfo8hostNameEv
PUBLIC 872ec 0 _ZN9QHostInfo11setHostNameERK7QString
PUBLIC 872f8 0 _ZNK9QHostInfo5errorEv
PUBLIC 87304 0 _ZN9QHostInfo8setErrorENS_13HostInfoErrorE
PUBLIC 87310 0 _ZNK9QHostInfo8lookupIdEv
PUBLIC 8731c 0 _ZN9QHostInfo11setLookupIdEi
PUBLIC 87328 0 _ZNK9QHostInfo11errorStringEv
PUBLIC 87364 0 _ZN9QHostInfo14setErrorStringERK7QString
PUBLIC 87448 0 _ZN9QHostInfoD1Ev
PUBLIC 87508 0 _ZN9QHostInfoC2Ei
PUBLIC 875dc 0 _ZN9QHostInfoaSERKS_
PUBLIC 876a0 0 _ZNK9QHostInfo9addressesEv
PUBLIC 876f8 0 _ZN9QHostInfoC1ERKS_
PUBLIC 877dc 0 _ZN9QHostInfo12setAddressesERK5QListI12QHostAddressE
PUBLIC 888e8 0 _ZN9QHostInfo10lookupHostERK7QStringP7QObjectPKc
PUBLIC 88c8c 0 _ZN9QHostInfo15abortHostLookupEi
PUBLIC 88ca4 0 _ZN9QHostInfo8fromNameERK7QString
PUBLIC 88fe8 0 _Z19qt_qhostinfo_lookupRK7QStringP7QObjectPKcPbPi
PUBLIC 8a7ec 0 _ZN8QUrlInfoD2Ev
PUBLIC 8a91c 0 _ZN8QUrlInfoD0Ev
PUBLIC 8a938 0 _ZN8QUrlInfo14setPermissionsEi
PUBLIC 8aa6c 0 _ZN8QUrlInfo6setDirEb
PUBLIC 8aba0 0 _ZN8QUrlInfo7setFileEb
PUBLIC 8acd4 0 _ZN8QUrlInfo10setSymLinkEb
PUBLIC 8ae08 0 _ZN8QUrlInfo11setWritableEb
PUBLIC 8af3c 0 _ZN8QUrlInfo11setReadableEb
PUBLIC 8b070 0 _ZN8QUrlInfo7setSizeEx
PUBLIC 8b1a4 0 _ZN8QUrlInfo8setGroupERK7QString
PUBLIC 8b2e8 0 _ZN8QUrlInfo15setLastModifiedERK9QDateTime
PUBLIC 8b42c 0 _ZN8QUrlInfo8setOwnerERK7QString
PUBLIC 8b570 0 _ZN8QUrlInfo7setNameERK7QString
PUBLIC 8b6ac 0 _ZN8QUrlInfoC1Ev
PUBLIC 8b6d8 0 _ZN8QUrlInfoC2ERKS_
PUBLIC 8b8a4 0 _ZN8QUrlInfoC2ERK7QStringiS2_S2_xRK9QDateTimeS5_bbbbbb
PUBLIC 8baa0 0 _ZN8QUrlInfoC1ERK4QUrliRK7QStringS5_xRK9QDateTimeS8_bbbbbb
PUBLIC 8bd64 0 _ZN8QUrlInfo11setLastReadERK9QDateTime
PUBLIC 8beac 0 _ZN8QUrlInfoaSERKS_
PUBLIC 8c17c 0 _ZNK8QUrlInfo4nameEv
PUBLIC 8c200 0 _ZNK8QUrlInfo11permissionsEv
PUBLIC 8c210 0 _ZNK8QUrlInfo5ownerEv
PUBLIC 8c294 0 _ZNK8QUrlInfo5groupEv
PUBLIC 8c318 0 _ZNK8QUrlInfo4sizeEv
PUBLIC 8c338 0 _ZNK8QUrlInfo12lastModifiedEv
PUBLIC 8c368 0 _ZNK8QUrlInfo8lastReadEv
PUBLIC 8c398 0 _ZNK8QUrlInfo5isDirEv
PUBLIC 8c3a8 0 _ZNK8QUrlInfo6isFileEv
PUBLIC 8c3b8 0 _ZNK8QUrlInfo9isSymLinkEv
PUBLIC 8c3c8 0 _ZNK8QUrlInfo10isWritableEv
PUBLIC 8c3d8 0 _ZNK8QUrlInfo10isReadableEv
PUBLIC 8c3e8 0 _ZNK8QUrlInfo12isExecutableEv
PUBLIC 8c3f8 0 _ZN8QUrlInfo11greaterThanERKS_S1_i
PUBLIC 8c570 0 _ZN8QUrlInfo8lessThanERKS_S1_i
PUBLIC 8c584 0 _ZN8QUrlInfo5equalERKS_S1_i
PUBLIC 8c6fc 0 _ZNK8QUrlInfoeqERKS_
PUBLIC 8c808 0 _ZNK8QUrlInfo7isValidEv
PUBLIC 8c818 0 _ZN20QNetworkProxyFactoryD2Ev
PUBLIC 8c83c 0 _ZN20QNetworkProxyFactoryD0Ev
PUBLIC 8cc88 0 _ZN13QNetworkProxyC1ERKS_
PUBLIC 8ccc8 0 _ZN13QNetworkProxyD2Ev
PUBLIC 8cfc8 0 _ZNK13QNetworkProxyeqERKS_
PUBLIC 8d068 0 _ZN13QNetworkProxyaSERKS_
PUBLIC 8d1b4 0 _ZN13QNetworkProxy7setTypeENS_9ProxyTypeE
PUBLIC 8d210 0 _ZNK13QNetworkProxy4typeEv
PUBLIC 8d220 0 _ZN13QNetworkProxy15setCapabilitiesE6QFlagsINS_10CapabilityEE
PUBLIC 8d254 0 _ZNK13QNetworkProxy12capabilitiesEv
PUBLIC 8d26c 0 _ZNK13QNetworkProxy14isCachingProxyEv
PUBLIC 8d294 0 _ZNK13QNetworkProxy18isTransparentProxyEv
PUBLIC 8d2b8 0 _ZN13QNetworkProxy7setUserERK7QString
PUBLIC 8d2dc 0 _ZNK13QNetworkProxy4userEv
PUBLIC 8d360 0 _ZN13QNetworkProxy11setPasswordERK7QString
PUBLIC 8d384 0 _ZNK13QNetworkProxy8passwordEv
PUBLIC 8d408 0 _ZN13QNetworkProxy11setHostNameERK7QString
PUBLIC 8d42c 0 _ZNK13QNetworkProxy8hostNameEv
PUBLIC 8d4b0 0 _ZN13QNetworkProxy7setPortEt
PUBLIC 8d4cc 0 _ZNK13QNetworkProxy4portEv
PUBLIC 8d5dc 0 _ZN18QNetworkProxyQueryC2Ev
PUBLIC 8d5e8 0 _ZN18QNetworkProxyQueryC1ERKS_
PUBLIC 8d628 0 _ZN18QNetworkProxyQueryD2Ev
PUBLIC 8d68c 0 _ZN18QNetworkProxyQueryaSERKS_
PUBLIC 8d724 0 _ZNK18QNetworkProxyQueryeqERKS_
PUBLIC 8d78c 0 _ZNK18QNetworkProxyQuery9queryTypeEv
PUBLIC 8d79c 0 _ZN18QNetworkProxyQuery12setQueryTypeENS_9QueryTypeE
PUBLIC 8d7b8 0 _ZNK18QNetworkProxyQuery8peerPortEv
PUBLIC 8d7d4 0 _ZN18QNetworkProxyQuery11setPeerPortEi
PUBLIC 8d7f8 0 _ZNK18QNetworkProxyQuery12peerHostNameEv
PUBLIC 8d860 0 _ZN18QNetworkProxyQuery15setPeerHostNameERK7QString
PUBLIC 8d884 0 _ZNK18QNetworkProxyQuery9localPortEv
PUBLIC 8d898 0 _ZN18QNetworkProxyQuery12setLocalPortEi
PUBLIC 8d8b4 0 _ZNK18QNetworkProxyQuery11protocolTagEv
PUBLIC 8d91c 0 _ZN18QNetworkProxyQuery14setProtocolTagERK7QString
PUBLIC 8d940 0 _ZNK18QNetworkProxyQuery3urlEv
PUBLIC 8d970 0 _ZN18QNetworkProxyQuery6setUrlERK4QUrl
PUBLIC 8d994 0 _ZN20QNetworkProxyFactoryC2Ev
PUBLIC 8d9b8 0 _ZN13QNetworkProxyC1Ev
PUBLIC 8da9c 0 _ZN20QNetworkProxyFactory26setApplicationProxyFactoryEPS_
PUBLIC 8db60 0 _ZN20QNetworkProxyFactory25setUseSystemConfigurationEb
PUBLIC 8dbb0 0 _ZN13QNetworkProxyC1ENS_9ProxyTypeERK7QStringtS3_S3_
PUBLIC 8dd90 0 _ZN13QNetworkProxy19setApplicationProxyERKS_
PUBLIC 8e0b0 0 _ZN18QNetworkProxyQueryC2ERK4QUrlNS_9QueryTypeE
PUBLIC 8e100 0 _ZN18QNetworkProxyQueryC1ERK7QStringiS2_NS_9QueryTypeE
PUBLIC 8e188 0 _ZN18QNetworkProxyQueryC1EtRK7QStringNS_9QueryTypeE
PUBLIC 8e6e0 0 _ZN13QNetworkProxy16applicationProxyEv
PUBLIC 8e798 0 _ZN20QNetworkProxyFactory13proxyForQueryERK18QNetworkProxyQuery
PUBLIC 8f014 0 _ZN20QNetworkAddressEntryC2Ev
PUBLIC 8f078 0 _ZN20QNetworkAddressEntryC1ERKS_
PUBLIC 8f0ec 0 _ZN20QNetworkAddressEntryaSERKS_
PUBLIC 8f130 0 _ZN20QNetworkAddressEntryD1Ev
PUBLIC 8f1fc 0 _ZNK20QNetworkAddressEntryeqERKS_
PUBLIC 8f278 0 _ZNK20QNetworkAddressEntry2ipEv
PUBLIC 8f290 0 _ZN20QNetworkAddressEntry5setIpERK12QHostAddress
PUBLIC 8f298 0 _ZNK20QNetworkAddressEntry7netmaskEv
PUBLIC 8f2b4 0 _ZN20QNetworkAddressEntry10setNetmaskERK12QHostAddress
PUBLIC 8f360 0 _ZNK20QNetworkAddressEntry12prefixLengthEv
PUBLIC 8f36c 0 _ZN20QNetworkAddressEntry15setPrefixLengthEi
PUBLIC 8f394 0 _ZNK20QNetworkAddressEntry9broadcastEv
PUBLIC 8f3b0 0 _ZN20QNetworkAddressEntry12setBroadcastERK12QHostAddress
PUBLIC 8f3bc 0 _ZN17QNetworkInterfaceC1Ev
PUBLIC 8f3c8 0 _ZN17QNetworkInterfaceC2ERKS_
PUBLIC 8f408 0 _ZNK17QNetworkInterface5indexEv
PUBLIC 8f418 0 _ZNK17QNetworkInterface4nameEv
PUBLIC 8f49c 0 _ZNK17QNetworkInterface7isValidEv
PUBLIC 8f500 0 _ZNK17QNetworkInterface17humanReadableNameEv
PUBLIC 8f59c 0 _ZNK17QNetworkInterface5flagsEv
PUBLIC 8f5b0 0 _ZNK17QNetworkInterface15hardwareAddressEv
PUBLIC 8f634 0 _ZN17QNetworkInterfaceD2Ev
PUBLIC 8f8fc 0 _ZN17QNetworkInterfaceaSERKS_
PUBLIC 90670 0 _ZN17QNetworkInterface17interfaceFromNameERK7QString
PUBLIC 90a28 0 _ZN17QNetworkInterface18interfaceFromIndexEi
PUBLIC 90ce8 0 _ZN17QNetworkInterface13allInterfacesEv
PUBLIC 91098 0 _ZN17QNetworkInterface12allAddressesEv
PUBLIC 913c4 0 _ZNK17QNetworkInterface14addressEntriesEv
PUBLIC 9146c 0 _Zls6QDebugRK17QNetworkInterface
PUBLIC 93878 0 _ZN9QHostInfo13localHostNameEv
PUBLIC 94398 0 _ZN9QHostInfo15localDomainNameEv
PUBLIC 95870 0 _ZN20QNetworkProxyFactory19systemProxyForQueryERK18QNetworkProxyQuery
PUBLIC a3374 0 _ZNK15QAbstractSocket12bytesToWriteEv
PUBLIC a3384 0 _ZNK15QAbstractSocket12isSequentialEv
PUBLIC a338c 0 _ZNK15QAbstractSocket10metaObjectEv
PUBLIC a3518 0 _ZN15QAbstractSocket8readDataEPcx
PUBLIC a41d4 0 _ZN15QAbstractSocketC2ENS_10SocketTypeER22QAbstractSocketPrivateP7QObject
PUBLIC a4220 0 _ZNK15QAbstractSocket7isValidEv
PUBLIC a4250 0 _ZN15QAbstractSocket13connectToHostERK7QStringt6QFlagsIN9QIODevice12OpenModeFlagEE
PUBLIC a43a0 0 _ZN15QAbstractSocket13connectToHostERK12QHostAddresst6QFlagsIN9QIODevice12OpenModeFlagEE
PUBLIC a4424 0 _ZNK15QAbstractSocket9localPortEv
PUBLIC a4430 0 _ZNK15QAbstractSocket12localAddressEv
PUBLIC a444c 0 _ZNK15QAbstractSocket8peerPortEv
PUBLIC a4458 0 _ZNK15QAbstractSocket11peerAddressEv
PUBLIC a4474 0 _ZNK15QAbstractSocket8peerNameEv
PUBLIC a44bc 0 _ZNK15QAbstractSocket16socketDescriptorEv
PUBLIC a44c8 0 _ZN15QAbstractSocket15setSocketOptionENS_12SocketOptionERK8QVariant
PUBLIC a4538 0 _ZN15QAbstractSocket12socketOptionENS_12SocketOptionE
PUBLIC a45e4 0 _ZN15QAbstractSocket5abortEv
PUBLIC a4bcc 0 _ZN15QAbstractSocketD2Ev
PUBLIC a4c24 0 _ZN15QAbstractSocketD0Ev
PUBLIC a4c40 0 _ZN15QAbstractSocket12setLocalPortEt
PUBLIC a4c4c 0 _ZN15QAbstractSocket15setLocalAddressERK12QHostAddress
PUBLIC a4c58 0 _ZN15QAbstractSocket11setPeerPortEt
PUBLIC a4c64 0 _ZN15QAbstractSocket14setPeerAddressERK12QHostAddress
PUBLIC a4c70 0 _ZN15QAbstractSocket11setPeerNameERK7QString
PUBLIC a4c7c 0 _ZN15QAbstractSocket18disconnectFromHostEv
PUBLIC a4df4 0 _ZNK15QAbstractSocket14readBufferSizeEv
PUBLIC a4e00 0 _ZN15QAbstractSocket17setReadBufferSizeEx
PUBLIC a4e64 0 _ZNK15QAbstractSocket5stateEv
PUBLIC a4e70 0 _ZN15QAbstractSocket14setSocketStateENS_11SocketStateE
PUBLIC a4e7c 0 _ZNK15QAbstractSocket10socketTypeEv
PUBLIC a5058 0 _ZNK15QAbstractSocket5errorEv
PUBLIC a5064 0 _ZN15QAbstractSocket14setSocketErrorENS_11SocketErrorE
PUBLIC a5070 0 _ZN15QAbstractSocket8setProxyERK13QNetworkProxy
PUBLIC a507c 0 _ZNK15QAbstractSocket5proxyEv
PUBLIC a5098 0 _Zls6QDebugN15QAbstractSocket11SocketErrorE
PUBLIC a58a4 0 _Zls6QDebugN15QAbstractSocket11SocketStateE
PUBLIC a5c4c 0 _ZN15QAbstractSocket9hostFoundEv
PUBLIC a5c70 0 _ZN15QAbstractSocket9connectedEv
PUBLIC a5c94 0 _ZN15QAbstractSocket12disconnectedEv
PUBLIC a5cb8 0 _ZN15QAbstractSocket12stateChangedENS_11SocketStateE
PUBLIC a5df0 0 _ZN15QAbstractSocket19setSocketDescriptorEiNS_11SocketStateE6QFlagsIN9QIODevice12OpenModeFlagEE
PUBLIC a6034 0 _ZN15QAbstractSocket5errorENS_11SocketErrorE
PUBLIC a6cac 0 _ZN15QAbstractSocket5flushEv
PUBLIC a6cc8 0 _ZN15QAbstractSocket27proxyAuthenticationRequiredERK13QNetworkProxyP14QAuthenticator
PUBLIC a75f0 0 _ZN15QAbstractSocket9writeDataEPKcx
PUBLIC a8fdc 0 _ZN15QAbstractSocketC1ENS_10SocketTypeEP7QObject
PUBLIC a9eac 0 _ZN15QAbstractSocket27connectToHostImplementationERK7QStringt6QFlagsIN9QIODevice12OpenModeFlagEE
PUBLIC aad44 0 _ZN15QAbstractSocket16waitForConnectedEi
PUBLIC aafd8 0 _ZN15QAbstractSocket16waitForReadyReadEi
PUBLIC ab1b8 0 _ZN15QAbstractSocket19waitForBytesWrittenEi
PUBLIC ab3c4 0 _ZN15QAbstractSocket19waitForDisconnectedEi
PUBLIC ab5e8 0 _ZNK15QAbstractSocket14bytesAvailableEv
PUBLIC ab65c 0 _ZNK15QAbstractSocket11canReadLineEv
PUBLIC ab710 0 _ZNK15QAbstractSocket5atEndEv
PUBLIC ab764 0 _ZN15QAbstractSocket12readLineDataEPcx
PUBLIC ab768 0 _ZN15QAbstractSocket5closeEv
PUBLIC ab860 0 _ZN15QAbstractSocket32disconnectFromHostImplementationEv
PUBLIC ac580 0 _ZN15QAbstractSocket11qt_metacastEPKc
PUBLIC ac5c4 0 _ZN15QAbstractSocket11qt_metacallEN11QMetaObject4CallEiPPv
PUBLIC ad13c 0 _ZN10QTcpSocketD2Ev
PUBLIC ad170 0 _ZN10QTcpSocketD0Ev
PUBLIC ad18c 0 _ZN10QTcpSocketC2EP7QObject
PUBLIC ad218 0 _ZN10QTcpSocketC1ER17QTcpSocketPrivateP7QObject
PUBLIC ad2e0 0 _ZN10QUdpSocketD1Ev
PUBLIC ad314 0 _ZN10QUdpSocketD0Ev
PUBLIC ad430 0 _ZN10QUdpSocketC1EP7QObject
PUBLIC ad4bc 0 _ZN10QUdpSocket4bindERK12QHostAddresst
PUBLIC ad660 0 _ZN10QUdpSocket4bindERK12QHostAddresst6QFlagsINS_8BindFlagEE
PUBLIC ad83c 0 _ZN10QUdpSocket4bindEt
PUBLIC ad890 0 _ZN10QUdpSocket4bindEt6QFlagsINS_8BindFlagEE
PUBLIC ad8f0 0 _ZNK10QUdpSocket19hasPendingDatagramsEv
PUBLIC ad93c 0 _ZNK10QUdpSocket19pendingDatagramSizeEv
PUBLIC ad984 0 _ZN10QUdpSocket13writeDatagramEPKcxRK12QHostAddresst
PUBLIC adae4 0 _ZN10QUdpSocket12readDatagramEPcxP12QHostAddressPt
PUBLIC adc90 0 _ZNK10QTcpServer21hasPendingConnectionsEv
PUBLIC adcac 0 _ZNK10QTcpServer10metaObjectEv
PUBLIC add48 0 _ZNK10QTcpServer11isListeningEv
PUBLIC add70 0 _ZNK10QTcpServer16socketDescriptorEv
PUBLIC add9c 0 _ZN10QTcpServer19setSocketDescriptorEi
PUBLIC adf00 0 _ZNK10QTcpServer10serverPortEv
PUBLIC adf14 0 _ZNK10QTcpServer13serverAddressEv
PUBLIC adf44 0 _ZN10QTcpServer20waitForNewConnectionEiPb
PUBLIC ae020 0 _ZN10QTcpServer24setMaxPendingConnectionsEi
PUBLIC ae02c 0 _ZNK10QTcpServer21maxPendingConnectionsEv
PUBLIC ae038 0 _ZNK10QTcpServer11serverErrorEv
PUBLIC ae044 0 _ZNK10QTcpServer11errorStringEv
PUBLIC ae080 0 _ZN10QTcpServer8setProxyERK13QNetworkProxy
PUBLIC ae08c 0 _ZNK10QTcpServer5proxyEv
PUBLIC ae0a8 0 _ZN10QTcpServer13newConnectionEv
PUBLIC ae2f0 0 _ZN10QTcpServerC1EP7QObject
PUBLIC ae45c 0 _ZN10QTcpServer20addPendingConnectionEP10QTcpSocket
PUBLIC ae4b4 0 _ZN10QTcpServer18incomingConnectionEi
PUBLIC aeb24 0 _ZN10QTcpServer6listenERK12QHostAddresst
PUBLIC aee94 0 _ZN10QTcpServer5closeEv
PUBLIC af008 0 _ZN10QTcpServerD1Ev
PUBLIC af050 0 _ZN10QTcpServerD0Ev
PUBLIC af06c 0 _ZN10QTcpServer21nextPendingConnectionEv
PUBLIC af130 0 _ZN10QTcpServer11qt_metacastEPKc
PUBLIC af174 0 _ZN10QTcpServer11qt_metacallEN11QMetaObject4CallEiPPv
PUBLIC af40c 0 _ZNK12QLocalSocket12isSequentialEv
PUBLIC af414 0 _ZNK12QLocalSocket10metaObjectEv
PUBLIC af440 0 _ZN12QLocalSocketD2Ev
PUBLIC af498 0 _ZN12QLocalSocketD0Ev
PUBLIC af4b4 0 _ZN12QLocalSocketC2EP7QObject
PUBLIC af528 0 _ZNK12QLocalSocket10serverNameEv
PUBLIC af564 0 _ZNK12QLocalSocket14fullServerNameEv
PUBLIC af5a0 0 _ZNK12QLocalSocket5stateEv
PUBLIC af5ac 0 _Zls6QDebugN12QLocalSocket16LocalSocketErrorE
PUBLIC afaa0 0 _Zls6QDebugN12QLocalSocket16LocalSocketStateE
PUBLIC afd4c 0 _ZN12QLocalSocket9connectedEv
PUBLIC afd70 0 _ZN12QLocalSocket12disconnectedEv
PUBLIC afd94 0 _ZN12QLocalSocket5errorENS_16LocalSocketErrorE
PUBLIC afdd8 0 _ZN12QLocalSocket12stateChangedENS_16LocalSocketStateE
PUBLIC afe1c 0 _ZN12QLocalSocket11qt_metacastEPKc
PUBLIC afe60 0 _ZN12QLocalSocket11qt_metacallEN11QMetaObject4CallEiPPv
PUBLIC aff38 0 _ZNK12QLocalServer21hasPendingConnectionsEv
PUBLIC aff54 0 _ZNK12QLocalServer10metaObjectEv
PUBLIC aff80 0 _ZNK12QLocalServer11errorStringEv
PUBLIC affbc 0 _ZNK12QLocalServer11isListeningEv
PUBLIC affd4 0 _ZN12QLocalServer6listenERK7QString
PUBLIC b02c8 0 _ZNK12QLocalServer21maxPendingConnectionsEv
PUBLIC b02d4 0 _ZN12QLocalServer12removeServerERK7QString
PUBLIC b02d8 0 _ZNK12QLocalServer10serverNameEv
PUBLIC b0314 0 _ZNK12QLocalServer14fullServerNameEv
PUBLIC b0350 0 _ZNK12QLocalServer11serverErrorEv
PUBLIC b035c 0 _ZN12QLocalServer24setMaxPendingConnectionsEi
PUBLIC b0368 0 _ZN12QLocalServer20waitForNewConnectionEiPb
PUBLIC b03b4 0 _ZN12QLocalServer13newConnectionEv
PUBLIC b03d8 0 _ZN12QLocalServerC2EP7QObject
PUBLIC b0554 0 _ZN12QLocalServer18incomingConnectionEj
PUBLIC b05f8 0 _ZN12QLocalServer5closeEv
PUBLIC b08d8 0 _ZN12QLocalServerD2Ev
PUBLIC b0930 0 _ZN12QLocalServerD0Ev
PUBLIC b094c 0 _ZN12QLocalServer21nextPendingConnectionEv
PUBLIC b0a04 0 _ZN12QLocalServer11qt_metacastEPKc
PUBLIC b0a48 0 _ZN12QLocalServer11qt_metacallEN11QMetaObject4CallEiPPv
PUBLIC b3a68 0 _ZN12QLocalSocket19setSocketDescriptorEjNS_16LocalSocketStateE6QFlagsIN9QIODevice12OpenModeFlagEE
PUBLIC b42d4 0 _ZN12QLocalSocket15connectToServerERK7QString6QFlagsIN9QIODevice12OpenModeFlagEE
PUBLIC b45bc 0 _ZNK12QLocalSocket16socketDescriptorEv
PUBLIC b45c8 0 _ZN12QLocalSocket5abortEv
PUBLIC b45d4 0 _ZNK12QLocalSocket12bytesToWriteEv
PUBLIC b45e0 0 _ZN12QLocalSocket19waitForBytesWrittenEi
PUBLIC b45ec 0 _ZN12QLocalSocket5flushEv
PUBLIC b45f8 0 _ZN12QLocalSocket20disconnectFromServerEv
PUBLIC b4604 0 _ZNK12QLocalSocket5errorEv
PUBLIC b4640 0 _ZNK12QLocalSocket7isValidEv
PUBLIC b464c 0 _ZNK12QLocalSocket14readBufferSizeEv
PUBLIC b4658 0 _ZN12QLocalSocket17setReadBufferSizeEx
PUBLIC b4664 0 _ZN12QLocalSocket16waitForConnectedEi
PUBLIC b484c 0 _ZN12QLocalSocket16waitForReadyReadEi
PUBLIC b4874 0 _ZN12QLocalSocket8readDataEPcx
PUBLIC b4880 0 _ZN12QLocalSocket9writeDataEPKcx
PUBLIC b488c 0 _ZNK12QLocalSocket14bytesAvailableEv
PUBLIC b48b4 0 _ZNK12QLocalSocket11canReadLineEv
PUBLIC b48dc 0 _ZN12QLocalSocket5closeEv
PUBLIC b4ac8 0 _ZN12QLocalSocket19waitForDisconnectedEi
PUBLIC b6b30 0 _ZNK17QNetworkCookieJar10metaObjectEv
PUBLIC b6b5c 0 _ZN17QNetworkCookieJar11qt_metacastEPKc
PUBLIC b6ba0 0 _ZN17QNetworkCookieJar11qt_metacallEN11QMetaObject4CallEiPPv
PUBLIC b6ba4 0 _ZNK13QNetworkReply10metaObjectEv
PUBLIC b6bd0 0 _ZN13QNetworkReply15metaDataChangedEv
PUBLIC b6bf4 0 _ZN13QNetworkReply8finishedEv
PUBLIC b6c18 0 _ZN13QNetworkReply5errorENS_12NetworkErrorE
PUBLIC b6c5c 0 _ZN13QNetworkReply14uploadProgressExx
PUBLIC b6ca8 0 _ZN13QNetworkReply16downloadProgressExx
PUBLIC b6cf4 0 _ZN13QNetworkReply11qt_metacastEPKc
PUBLIC b6d38 0 _ZN13QNetworkReply11qt_metacallEN11QMetaObject4CallEiPPv
PUBLIC b6e10 0 _ZNK21QAbstractNetworkCache10metaObjectEv
PUBLIC b6e3c 0 _ZN21QAbstractNetworkCache11qt_metacastEPKc
PUBLIC b6e80 0 _ZN21QAbstractNetworkCache11qt_metacallEN11QMetaObject4CallEiPPv
PUBLIC b6ec8 0 _ZNK17QNetworkDiskCache10metaObjectEv
PUBLIC b6ef4 0 _ZN17QNetworkDiskCache11qt_metacastEPKc
PUBLIC b6f38 0 _ZN17QNetworkDiskCache11qt_metacallEN11QMetaObject4CallEiPPv
PUBLIC b6f80 0 _ZNK35QNetworkConfigurationManagerPrivate10metaObjectEv
PUBLIC b6fac 0 _ZN35QNetworkConfigurationManagerPrivate18configurationAddedERK21QNetworkConfiguration
PUBLIC b6fe8 0 _ZN35QNetworkConfigurationManagerPrivate20configurationRemovedERK21QNetworkConfiguration
PUBLIC b7028 0 _ZN35QNetworkConfigurationManagerPrivate27configurationUpdateCompleteEv
PUBLIC b704c 0 _ZN35QNetworkConfigurationManagerPrivate20configurationChangedERK21QNetworkConfiguration
PUBLIC b708c 0 _ZN35QNetworkConfigurationManagerPrivate18onlineStateChangedEb
PUBLIC b70d4 0 _ZN35QNetworkConfigurationManagerPrivate5abortEv
PUBLIC b70f8 0 _ZN35QNetworkConfigurationManagerPrivate11qt_metacastEPKc
PUBLIC b713c 0 _ZN35QNetworkConfigurationManagerPrivate11qt_metacallEN11QMetaObject4CallEiPPv
PUBLIC b73dc 0 _ZNK22QNetworkSessionPrivate10metaObjectEv
PUBLIC b7408 0 _ZN22QNetworkSessionPrivate25quitPendingWaitsForOpenedEv
PUBLIC b742c 0 _ZN22QNetworkSessionPrivate5errorEN15QNetworkSession12SessionErrorE
PUBLIC b7470 0 _ZN22QNetworkSessionPrivate12stateChangedEN15QNetworkSession5StateE
PUBLIC b74b4 0 _ZN22QNetworkSessionPrivate6closedEv
PUBLIC b74d8 0 _ZN22QNetworkSessionPrivate25newConfigurationActivatedEv
PUBLIC b74fc 0 _ZN22QNetworkSessionPrivate29preferredConfigurationChangedERK21QNetworkConfigurationb
PUBLIC b7548 0 _ZN22QNetworkSessionPrivate11qt_metacastEPKc
PUBLIC b758c 0 _ZN22QNetworkSessionPrivate11qt_metacallEN11QMetaObject4CallEiPPv
PUBLIC b772c 0 _ZNK19QBearerEnginePlugin10metaObjectEv
PUBLIC b7758 0 _ZN19QBearerEnginePlugin11qt_metacastEPKc
PUBLIC b77fc 0 _ZN19QBearerEnginePlugin11qt_metacallEN11QMetaObject4CallEiPPv
PUBLIC b7f80 0 _ZNK10QTcpSocket10metaObjectEv
PUBLIC b7fac 0 _ZN10QTcpSocket11qt_metacastEPKc
PUBLIC b7ff0 0 _ZN10QTcpSocket11qt_metacallEN11QMetaObject4CallEiPPv
PUBLIC b7ff4 0 _ZNK10QUdpSocket10metaObjectEv
PUBLIC b8020 0 _ZN10QUdpSocket11qt_metacastEPKc
PUBLIC b8064 0 _ZN10QUdpSocket11qt_metacallEN11QMetaObject4CallEiPPv
PUBLIC b8068 0 _fini
