MODULE Linux arm 10895356F118A8AD38E3C33514CAD1D70 libfusion-1.7.so.4.0.0
FUNC 3ad0 108 0 ToString<__Fusion_FusionObject>::ToString
FUNC 3bd8 a8 0 ToString_FusionObject
FUNC 3c80 88 0 ToString<__Fusion_FusionObject>::~ToString
FUNC 3d08 4ac 0 fusion_arena_enter
FUNC 41b4 c0 0 fusion_arena_add_shared_field
FUNC 4274 64 0 fusion_arena_get_shared_field
FUNC 42d8 1b0 0 fusion_arena_exit
FUNC 4488 18 0 fusion_call_init
FUNC 44a0 18 0 fusion_call_init3
FUNC 44b8 34 0 fusion_call_init_from
FUNC 44ec 8 0 fusion_call_set_name
FUNC 44f4 104 0 fusion_call_execute
FUNC 45f8 108 0 fusion_call_execute2
FUNC 4700 138 0 fusion_call_execute3
FUNC 4838 c 0 fusion_call_return
FUNC 4844 10 0 fusion_call_get_owner
FUNC 4854 14 0 fusion_call_destroy
FUNC 4868 8 0 fusion_call_add_permissions
FUNC 4870 8 0 fusion_call_set_quota
FUNC 4878 8 0 fusion_world_flush_calls
FUNC 4880 4 0 __Fusion_call_init
FUNC 4884 4 0 __Fusion_call_deinit
FUNC 4888 4dc 0 event_dispatcher_loop
FUNC 4d64 328 0 _fusion_event_dispatcher_process
FUNC 508c 204 0 _fusion_event_dispatcher_process_reactions
FUNC 5290 1f0 0 _fusion_event_dispatcher_process_reactor_free
FUNC 5480 230 0 fusion_enter
FUNC 56b0 8 0 fusion_world_activate
FUNC 56b8 14 0 fusion_dispatch_cleanup_add
FUNC 56cc 8 0 fusion_dispatch_cleanup_remove
FUNC 56d4 8 0 fusion_stop_dispatcher
FUNC 56dc 80 0 fusion_dispatch
FUNC 575c e4 0 fusion_exit
FUNC 5840 4 0 fusion_world_set_fork_action
FUNC 5844 8 0 fusion_world_get_fork_action
FUNC 584c 4 0 fusion_world_set_fork_callback
FUNC 5850 4 0 fusion_world_set_leave_callback
FUNC 5854 8 0 fusion_world_index
FUNC 585c 8 0 fusion_master
FUNC 5864 10 0 fusion_kill
FUNC 5874 8 0 fusion_id
FUNC 587c 8 0 fusion_is_multi
FUNC 5884 8 0 fusion_dispatcher_tid
FUNC 588c 8 0 fusion_sync
FUNC 5894 8 0 fusion_is_shared
FUNC 589c 10 0 fusion_get_tmpfs
FUNC 58ac 84 0 fusion_get_fusionee_path
FUNC 5930 84 0 fusion_get_fusionee_pid
FUNC 59b4 20 0 fusion_world_set_root
FUNC 59d4 c 0 fusion_world_get_root
FUNC 59e0 10 0 ptr_compare
FUNC 59f0 a8 0 fusion_skirmish_init
FUNC 5a98 4 0 fusion_skirmish_init2
FUNC 5a9c 40 0 fusion_skirmish_prevail
FUNC 5adc 40 0 fusion_skirmish_swoop
FUNC 5b1c 54 0 fusion_skirmish_lock_count
FUNC 5b70 34 0 fusion_skirmish_dismiss
FUNC 5ba4 398 0 fusion_skirmish_dismiss_multi
FUNC 5f3c 1b8 0 fusion_skirmish_prevail_multi
FUNC 60f4 74 0 fusion_skirmish_destroy
FUNC 6168 e4 0 fusion_skirmish_wait
FUNC 624c 2c 0 fusion_skirmish_notify
FUNC 6278 8 0 fusion_skirmish_add_permissions
FUNC 6280 20 0 object_iterator
FUNC 62a0 2e8 0 object_reference_watcher
FUNC 6588 180 0 fusion_object_pool_create
FUNC 6708 3dc 0 fusion_object_pool_destroy
FUNC 6ae4 c 0 fusion_object_pool_set_describe
FUNC 6af0 68 0 fusion_object_pool_enum
FUNC 6b58 2a4 0 fusion_object_create
FUNC 6dfc a4 0 fusion_object_get
FUNC 6ea0 64 0 fusion_object_lookup
FUNC 6f04 8 0 fusion_object_set_lock
FUNC 6f0c 10 0 fusion_object_activate
FUNC 6f1c 190 0 fusion_object_destroy
FUNC 70ac 120 0 fusion_object_set_property
FUNC 71cc e4 0 fusion_object_set_int_property
FUNC 72b0 d8 0 fusion_object_set_string_property
FUNC 7388 10 0 fusion_object_get_property
FUNC 7398 3c 0 fusion_object_remove_property
FUNC 73d4 cc 0 fusion_object_add_access
FUNC 74a0 160 0 fusion_object_has_access
FUNC 7600 10c 0 fusion_object_add_owner
FUNC 770c 128 0 fusion_object_check_owner
FUNC 7834 8c 0 fusion_object_catch
FUNC 78c0 38 0 fusion_property_init
FUNC 78f8 78 0 fusion_property_lease
FUNC 7970 b8 0 fusion_property_purchase
FUNC 7a28 40 0 fusion_property_cede
FUNC 7a68 8 0 fusion_property_holdup
FUNC 7a70 34 0 fusion_property_destroy
FUNC 7aa4 4c 0 fusion_reactor_new
FUNC 7af0 c 0 fusion_reactor_set_lock
FUNC 7afc c 0 fusion_reactor_set_lock_only
FUNC 7b08 60 0 fusion_reactor_detach
FUNC 7b68 64 0 fusion_reactor_attach_global
FUNC 7bcc 74 0 fusion_reactor_detach_global
FUNC 7c40 60 0 fusion_reactor_attach_channel
FUNC 7ca0 2c 0 fusion_reactor_attach
FUNC 7ccc 1ec 0 fusion_reactor_dispatch_channel
FUNC 7eb8 84 0 fusion_reactor_set_dispatch_callback
FUNC 7f3c 84 0 fusion_reactor_set_name
FUNC 7fc0 8 0 fusion_reactor_add_permissions
FUNC 7fc8 2c 0 fusion_reactor_dispatch
FUNC 7ff4 8 0 fusion_reactor_direct
FUNC 7ffc 10 0 fusion_reactor_destroy
FUNC 800c 48 0 fusion_reactor_free
FUNC 8054 48 0 fusion_ref_init
FUNC 809c 8 0 fusion_ref_init2
FUNC 80a4 8 0 fusion_ref_set_name
FUNC 80ac 124 0 fusion_ref_up
FUNC 81d0 1ec 0 fusion_ref_down
FUNC 83bc 98 0 fusion_ref_catch
FUNC 8454 94 0 fusion_ref_throw
FUNC 84e8 20 0 fusion_ref_stat
FUNC 8508 a4 0 fusion_ref_zero_lock
FUNC 85ac 98 0 fusion_ref_zero_trylock
FUNC 8644 68 0 fusion_ref_unlock
FUNC 86ac 90 0 fusion_ref_watch
FUNC 873c 88 0 fusion_ref_inherit
FUNC 87c4 5c 0 fusion_ref_destroy
FUNC 8820 8 0 fusion_ref_add_permissions
FUNC 8828 40 0 __Fusion_conf_init
FUNC 8868 4 0 __Fusion_conf_deinit
FUNC 886c 680 0 fusion_config_set
FUNC 8eec 180 0 fusion_hash_node_destroy
FUNC 906c 1b8 0 fusion_hash_create_internal
FUNC 9224 30 0 fusion_hash_create_local
FUNC 9254 3c 0 fusion_hash_create
FUNC 9290 134 0 fusion_hash_destroy
FUNC 93c4 c 0 fusion_hash_set_autofree
FUNC 93d0 104 0 fusion_hash_lookup
FUNC 94d4 2bc 0 fusion_hash_replace
FUNC 9790 140 0 fusion_hash_remove
FUNC 98d0 6c 0 fusion_hash_iterate
FUNC 993c 8 0 fusion_hash_size
FUNC 9944 4c 0 fusion_hash_should_resize
FUNC 9990 288 0 fusion_hash_resize
FUNC 9c18 21c 0 fusion_hash_insert
FUNC 9e34 10 0 __Fusion_init_all
FUNC 9e44 10 0 __Fusion_deinit_all
FUNC 9e54 4 0 fusion_dbg_print_memleaks
FUNC 9e58 2c 0 fusion_dbg_shmalloc
FUNC 9e84 40 0 fusion_dbg_shcalloc
FUNC 9ec4 4c 0 fusion_dbg_shrealloc
FUNC 9f10 3c 0 fusion_dbg_shfree
FUNC 9f4c 2c 0 fusion_dbg_shstrdup
FUNC 9f78 7c 0 fusion_shmalloc
FUNC 9ff4 88 0 fusion_shcalloc
FUNC a07c 88 0 fusion_shrealloc
FUNC a104 80 0 fusion_shfree
FUNC a184 80 0 fusion_shstrdup
FUNC a204 24 0 fusion_vector_init
FUNC a228 7c 0 fusion_vector_destroy
FUNC a2a4 1d4 0 fusion_vector_add
FUNC a478 200 0 fusion_vector_insert
FUNC a678 6c 0 fusion_vector_move
FUNC a6e4 40 0 fusion_vector_remove
FUNC a724 18 0 fusion_vector_remove_last
FUNC a73c 74 0 fusion_shm_pool_create
FUNC a7b0 1c 0 fusion_shm_pool_destroy
FUNC a7cc 14 0 fusion_shm_pool_attach
FUNC a7e0 14 0 fusion_shm_pool_detach
FUNC a7f4 50 0 fusion_shm_pool_allocate
FUNC a844 2c 0 fusion_shm_pool_reallocate
FUNC a870 14 0 fusion_shm_pool_deallocate
FUNC a884 8 0 fusion_shm_enum_pools
STACK CFI INIT 3ad0 108 .cfa: sp 0 + .ra: lr
STACK CFI 3ae0 .cfa: sp 20 +
STACK CFI 3ae4 .ra: .cfa -4 + ^ r4: .cfa -20 + ^ r5: .cfa -16 + ^ r6: .cfa -12 + ^ r7: .cfa -8 + ^
STACK CFI 3b0c .cfa: sp 40 +
STACK CFI INIT 3c80 88 .cfa: sp 0 + .ra: lr
STACK CFI 3c88 .cfa: sp 12 +
STACK CFI 3c90 .ra: .cfa -4 + ^ r4: .cfa -12 + ^ r5: .cfa -8 + ^
STACK CFI 3ca8 .cfa: sp 24 +
STACK CFI INIT 3bd8 a8 .cfa: sp 0 + .ra: lr
STACK CFI 3bdc .cfa: sp 16 +
STACK CFI 3be0 .cfa: sp 32 +
STACK CFI 3be8 .ra: .cfa -4 + ^ r4: .cfa -16 + ^ r5: .cfa -12 + ^ r6: .cfa -8 + ^
STACK CFI INIT 3d08 4ac .cfa: sp 0 + .ra: lr
STACK CFI 3d0c .cfa: sp 36 +
STACK CFI 3d10 .ra: .cfa -4 + ^ r10: .cfa -12 + ^ r11: .cfa -8 + ^ r4: .cfa -36 + ^ r5: .cfa -32 + ^ r6: .cfa -28 + ^ r7: .cfa -24 + ^ r8: .cfa -20 + ^ r9: .cfa -16 + ^
STACK CFI 3d14 .cfa: sp 136 +
STACK CFI INIT 41b4 c0 .cfa: sp 0 + .ra: lr
STACK CFI 41b8 .cfa: sp 32 +
STACK CFI 41bc .ra: .cfa -4 + ^ r10: .cfa -8 + ^ r4: .cfa -32 + ^ r5: .cfa -28 + ^ r6: .cfa -24 + ^ r7: .cfa -20 + ^ r8: .cfa -16 + ^ r9: .cfa -12 + ^
STACK CFI 41c4 .cfa: sp 40 +
STACK CFI INIT 4274 64 .cfa: sp 0 + .ra: lr
STACK CFI 4278 .cfa: sp 24 +
STACK CFI 427c .ra: .cfa -4 + ^ r4: .cfa -24 + ^ r5: .cfa -20 + ^ r6: .cfa -16 + ^ r7: .cfa -12 + ^ r8: .cfa -8 + ^
STACK CFI INIT 42d8 1b0 .cfa: sp 0 + .ra: lr
STACK CFI 42dc .cfa: sp 36 +
STACK CFI 42e0 .ra: .cfa -4 + ^ r10: .cfa -12 + ^ r11: .cfa -8 + ^ r4: .cfa -36 + ^ r5: .cfa -32 + ^ r6: .cfa -28 + ^ r7: .cfa -24 + ^ r8: .cfa -20 + ^ r9: .cfa -16 + ^
STACK CFI 42e4 .cfa: sp 48 +
STACK CFI INIT 4488 18 .cfa: sp 0 + .ra: lr
STACK CFI INIT 44a0 18 .cfa: sp 0 + .ra: lr
STACK CFI INIT 44b8 34 .cfa: sp 0 + .ra: lr
STACK CFI INIT 44ec 8 .cfa: sp 0 + .ra: lr
STACK CFI INIT 44f4 104 .cfa: sp 0 + .ra: lr
STACK CFI 44fc .cfa: sp 28 +
STACK CFI 4500 .cfa: sp 96 +
STACK CFI 4504 .ra: .cfa -4 + ^ r10: .cfa -8 + ^ r4: .cfa -28 + ^ r5: .cfa -24 + ^ r6: .cfa -20 + ^ r7: .cfa -16 + ^ r8: .cfa -12 + ^
STACK CFI INIT 45f8 108 .cfa: sp 0 + .ra: lr
STACK CFI 4600 .cfa: sp 28 +
STACK CFI 4604 .cfa: sp 96 +
STACK CFI 4608 .ra: .cfa -4 + ^ r10: .cfa -8 + ^ r4: .cfa -28 + ^ r5: .cfa -24 + ^ r6: .cfa -20 + ^ r7: .cfa -16 + ^ r8: .cfa -12 + ^
STACK CFI INIT 4700 138 .cfa: sp 0 + .ra: lr
STACK CFI 4708 .cfa: sp 36 +
STACK CFI 470c .cfa: sp 128 +
STACK CFI 4710 .ra: .cfa -4 + ^ r10: .cfa -12 + ^ r11: .cfa -8 + ^ r4: .cfa -36 + ^ r5: .cfa -32 + ^ r6: .cfa -28 + ^ r7: .cfa -24 + ^ r8: .cfa -20 + ^ r9: .cfa -16 + ^
STACK CFI INIT 4838 c .cfa: sp 0 + .ra: lr
STACK CFI INIT 4844 10 .cfa: sp 0 + .ra: lr
STACK CFI INIT 4854 14 .cfa: sp 0 + .ra: lr
STACK CFI INIT 4868 8 .cfa: sp 0 + .ra: lr
STACK CFI INIT 4870 8 .cfa: sp 0 + .ra: lr
STACK CFI INIT 4878 8 .cfa: sp 0 + .ra: lr
STACK CFI INIT 4880 4 .cfa: sp 0 + .ra: lr
STACK CFI INIT 4884 4 .cfa: sp 0 + .ra: lr
STACK CFI INIT 4888 4dc .cfa: sp 0 + .ra: lr
STACK CFI 488c .cfa: sp 36 +
STACK CFI 4894 .ra: .cfa -4 + ^ r10: .cfa -12 + ^ r11: .cfa -8 + ^ r4: .cfa -36 + ^ r5: .cfa -32 + ^ r6: .cfa -28 + ^ r7: .cfa -24 + ^ r8: .cfa -20 + ^ r9: .cfa -16 + ^
STACK CFI 48a0 .cfa: sp 88 +
STACK CFI INIT 4d64 328 .cfa: sp 0 + .ra: lr
STACK CFI 4d68 .cfa: sp 40 +
STACK CFI 4d6c .ra: .cfa -4 + ^ r10: .cfa -12 + ^ r11: .cfa -8 + ^ r3: .cfa -40 + ^ r4: .cfa -36 + ^ r5: .cfa -32 + ^ r6: .cfa -28 + ^ r7: .cfa -24 + ^ r8: .cfa -20 + ^ r9: .cfa -16 + ^
STACK CFI INIT 508c 204 .cfa: sp 0 + .ra: lr
STACK CFI 5090 .cfa: sp 40 +
STACK CFI 5094 .ra: .cfa -4 + ^ r10: .cfa -12 + ^ r11: .cfa -8 + ^ r3: .cfa -40 + ^ r4: .cfa -36 + ^ r5: .cfa -32 + ^ r6: .cfa -28 + ^ r7: .cfa -24 + ^ r8: .cfa -20 + ^ r9: .cfa -16 + ^
STACK CFI INIT 5290 1f0 .cfa: sp 0 + .ra: lr
STACK CFI 5298 .cfa: sp 24 +
STACK CFI 52a0 .ra: .cfa -4 + ^ r4: .cfa -24 + ^ r5: .cfa -20 + ^ r6: .cfa -16 + ^ r7: .cfa -12 + ^ r8: .cfa -8 + ^
STACK CFI INIT 5480 230 .cfa: sp 0 + .ra: lr
STACK CFI 5484 .cfa: sp 20 +
STACK CFI 5488 .cfa: sp 32 +
STACK CFI 548c .ra: .cfa -4 + ^ r4: .cfa -20 + ^ r5: .cfa -16 + ^ r6: .cfa -12 + ^ r7: .cfa -8 + ^
STACK CFI INIT 56b0 8 .cfa: sp 0 + .ra: lr
STACK CFI INIT 56b8 14 .cfa: sp 0 + .ra: lr
STACK CFI 56c0 .cfa: sp 8 + .ra: .cfa -4 + ^ r3: .cfa -8 + ^
STACK CFI INIT 56cc 8 .cfa: sp 0 + .ra: lr
STACK CFI INIT 56d4 8 .cfa: sp 0 + .ra: lr
STACK CFI INIT 56dc 80 .cfa: sp 0 + .ra: lr
STACK CFI 56e8 .cfa: sp 16 +
STACK CFI 56ec .ra: .cfa -4 + ^ r3: .cfa -16 + ^ r4: .cfa -12 + ^ r5: .cfa -8 + ^
STACK CFI INIT 575c e4 .cfa: sp 0 + .ra: lr
STACK CFI 5764 .cfa: sp 24 +
STACK CFI 576c .ra: .cfa -4 + ^ r3: .cfa -24 + ^ r4: .cfa -20 + ^ r5: .cfa -16 + ^ r6: .cfa -12 + ^ r7: .cfa -8 + ^
STACK CFI INIT 5840 4 .cfa: sp 0 + .ra: lr
STACK CFI INIT 5844 8 .cfa: sp 0 + .ra: lr
STACK CFI INIT 584c 4 .cfa: sp 0 + .ra: lr
STACK CFI INIT 5850 4 .cfa: sp 0 + .ra: lr
STACK CFI INIT 5854 8 .cfa: sp 0 + .ra: lr
STACK CFI INIT 585c 8 .cfa: sp 0 + .ra: lr
STACK CFI INIT 5864 10 .cfa: sp 0 + .ra: lr
STACK CFI INIT 5874 8 .cfa: sp 0 + .ra: lr
STACK CFI INIT 587c 8 .cfa: sp 0 + .ra: lr
STACK CFI INIT 5884 8 .cfa: sp 0 + .ra: lr
STACK CFI INIT 588c 8 .cfa: sp 0 + .ra: lr
STACK CFI INIT 5894 8 .cfa: sp 0 + .ra: lr
STACK CFI INIT 589c 10 .cfa: sp 0 + .ra: lr
STACK CFI INIT 58ac 84 .cfa: sp 0 + .ra: lr
STACK CFI 58b8 .cfa: sp 16 +
STACK CFI 58bc .ra: .cfa -4 + ^ r3: .cfa -16 + ^ r4: .cfa -12 + ^ r5: .cfa -8 + ^
STACK CFI INIT 5930 84 .cfa: sp 0 + .ra: lr
STACK CFI 593c .cfa: sp 16 +
STACK CFI 5940 .ra: .cfa -4 + ^ r3: .cfa -16 + ^ r4: .cfa -12 + ^ r5: .cfa -8 + ^
STACK CFI INIT 59b4 20 .cfa: sp 0 + .ra: lr
STACK CFI INIT 59d4 c .cfa: sp 0 + .ra: lr
STACK CFI INIT 59e0 10 .cfa: sp 0 + .ra: lr
STACK CFI INIT 59f0 a8 .cfa: sp 0 + .ra: lr
STACK CFI 59f4 .cfa: sp 16 +
STACK CFI 59f8 .ra: .cfa -4 + ^ r3: .cfa -16 + ^ r4: .cfa -12 + ^ r5: .cfa -8 + ^
STACK CFI INIT 5a98 4 .cfa: sp 0 + .ra: lr
STACK CFI INIT 5a9c 40 .cfa: sp 0 + .ra: lr
STACK CFI 5aa0 .cfa: sp 8 +
STACK CFI 5aa4 .ra: .cfa -4 + ^ r4: .cfa -8 + ^
STACK CFI INIT 5adc 40 .cfa: sp 0 + .ra: lr
STACK CFI 5ae0 .cfa: sp 8 +
STACK CFI 5ae4 .ra: .cfa -4 + ^ r4: .cfa -8 + ^
STACK CFI INIT 5b1c 54 .cfa: sp 0 + .ra: lr
STACK CFI 5b20 .cfa: sp 16 +
STACK CFI 5b24 .ra: .cfa -4 + ^ r4: .cfa -16 + ^ r5: .cfa -12 + ^ r6: .cfa -8 + ^
STACK CFI INIT 5b70 34 .cfa: sp 0 + .ra: lr
STACK CFI 5b78 .cfa: sp 8 +
STACK CFI 5b88 .ra: .cfa -4 + ^ r4: .cfa -8 + ^
STACK CFI INIT 5ba4 398 .cfa: sp 0 + .ra: lr
STACK CFI 5bac .cfa: sp 36 +
STACK CFI 5bb0 .ra: .cfa -4 + ^ r10: .cfa -12 + ^ r11: .cfa -8 + ^ r4: .cfa -36 + ^ r5: .cfa -32 + ^ r6: .cfa -28 + ^ r7: .cfa -24 + ^ r8: .cfa -20 + ^ r9: .cfa -16 + ^
STACK CFI 5bb4 .cfa: r11 4 +
STACK CFI INIT 5f3c 1b8 .cfa: sp 0 + .ra: lr
STACK CFI 5f44 .cfa: sp 36 +
STACK CFI 5f48 .ra: .cfa -4 + ^ r10: .cfa -12 + ^ r11: .cfa -8 + ^ r4: .cfa -36 + ^ r5: .cfa -32 + ^ r6: .cfa -28 + ^ r7: .cfa -24 + ^ r8: .cfa -20 + ^ r9: .cfa -16 + ^
STACK CFI 5f4c .cfa: r11 4 +
STACK CFI INIT 60f4 74 .cfa: sp 0 + .ra: lr
STACK CFI 60f8 .cfa: sp 16 +
STACK CFI 60fc .ra: .cfa -4 + ^ r4: .cfa -16 + ^ r5: .cfa -12 + ^ r6: .cfa -8 + ^
STACK CFI INIT 6168 e4 .cfa: sp 0 + .ra: lr
STACK CFI 6170 .cfa: sp 16 +
STACK CFI 6178 .cfa: sp 32 +
STACK CFI 617c .ra: .cfa -4 + ^ r4: .cfa -16 + ^ r5: .cfa -12 + ^ r6: .cfa -8 + ^
STACK CFI INIT 624c 2c .cfa: sp 0 + .ra: lr
STACK CFI 6254 .cfa: sp 8 +
STACK CFI 6258 .ra: .cfa -4 + ^ r3: .cfa -8 + ^
STACK CFI INIT 6278 8 .cfa: sp 0 + .ra: lr
STACK CFI INIT 6280 20 .cfa: sp 0 + .ra: lr
STACK CFI 6288 .cfa: sp 8 +
STACK CFI 6290 .ra: .cfa -4 + ^ r3: .cfa -8 + ^
STACK CFI INIT 62a0 2e8 .cfa: sp 0 + .ra: lr
STACK CFI 62a4 .cfa: sp 28 +
STACK CFI 62a8 .ra: .cfa -4 + ^ r10: .cfa -8 + ^ r4: .cfa -28 + ^ r5: .cfa -24 + ^ r6: .cfa -20 + ^ r7: .cfa -16 + ^ r8: .cfa -12 + ^
STACK CFI 62b4 .cfa: sp 48 +
STACK CFI INIT 6588 180 .cfa: sp 0 + .ra: lr
STACK CFI 658c .cfa: sp 36 +
STACK CFI 6590 .cfa: sp 64 +
STACK CFI 6594 .ra: .cfa -4 + ^ r10: .cfa -12 + ^ r11: .cfa -8 + ^ r4: .cfa -36 + ^ r5: .cfa -32 + ^ r6: .cfa -28 + ^ r7: .cfa -24 + ^ r8: .cfa -20 + ^ r9: .cfa -16 + ^
STACK CFI INIT 6708 3dc .cfa: sp 0 + .ra: lr
STACK CFI 6710 .cfa: sp 36 +
STACK CFI 6714 .ra: .cfa -4 + ^ r10: .cfa -12 + ^ r11: .cfa -8 + ^ r4: .cfa -36 + ^ r5: .cfa -32 + ^ r6: .cfa -28 + ^ r7: .cfa -24 + ^ r8: .cfa -20 + ^ r9: .cfa -16 + ^
STACK CFI 6718 .cfa: sp 88 +
STACK CFI INIT 6ae4 c .cfa: sp 0 + .ra: lr
STACK CFI INIT 6af0 68 .cfa: sp 0 + .ra: lr
STACK CFI 6af4 .cfa: sp 24 +
STACK CFI 6af8 .ra: .cfa -4 + ^ r4: .cfa -24 + ^ r5: .cfa -20 + ^ r6: .cfa -16 + ^ r7: .cfa -12 + ^ r8: .cfa -8 + ^
STACK CFI 6afc .cfa: sp 40 +
STACK CFI INIT 6b58 2a4 .cfa: sp 0 + .ra: lr
STACK CFI 6b5c .cfa: sp 36 +
STACK CFI 6b60 .ra: .cfa -4 + ^ r10: .cfa -12 + ^ r11: .cfa -8 + ^ r4: .cfa -36 + ^ r5: .cfa -32 + ^ r6: .cfa -28 + ^ r7: .cfa -24 + ^ r8: .cfa -20 + ^ r9: .cfa -16 + ^
STACK CFI 6b64 .cfa: sp 56 +
STACK CFI INIT 6dfc a4 .cfa: sp 0 + .ra: lr
STACK CFI 6e00 .cfa: sp 24 +
STACK CFI 6e04 .ra: .cfa -4 + ^ r4: .cfa -24 + ^ r5: .cfa -20 + ^ r6: .cfa -16 + ^ r7: .cfa -12 + ^ r8: .cfa -8 + ^
STACK CFI 6e08 .cfa: sp 32 +
STACK CFI INIT 6ea0 64 .cfa: sp 0 + .ra: lr
STACK CFI 6ea4 .cfa: sp 24 +
STACK CFI 6ea8 .ra: .cfa -4 + ^ r3: .cfa -24 + ^ r4: .cfa -20 + ^ r5: .cfa -16 + ^ r6: .cfa -12 + ^ r7: .cfa -8 + ^
STACK CFI INIT 6f04 8 .cfa: sp 0 + .ra: lr
STACK CFI INIT 6f0c 10 .cfa: sp 0 + .ra: lr
STACK CFI INIT 6f1c 190 .cfa: sp 0 + .ra: lr
STACK CFI 6f20 .cfa: sp 28 +
STACK CFI 6f24 .ra: .cfa -4 + ^ r10: .cfa -8 + ^ r4: .cfa -28 + ^ r5: .cfa -24 + ^ r6: .cfa -20 + ^ r7: .cfa -16 + ^ r8: .cfa -12 + ^
STACK CFI 6f30 .cfa: sp 40 +
STACK CFI INIT 70ac 120 .cfa: sp 0 + .ra: lr
STACK CFI 70b4 .cfa: sp 32 +
STACK CFI 70bc .cfa: sp 40 +
STACK CFI 70c0 .ra: .cfa -4 + ^ r10: .cfa -8 + ^ r4: .cfa -32 + ^ r5: .cfa -28 + ^ r6: .cfa -24 + ^ r7: .cfa -20 + ^ r8: .cfa -16 + ^ r9: .cfa -12 + ^
STACK CFI INIT 71cc e4 .cfa: sp 0 + .ra: lr
STACK CFI 71d4 .cfa: sp 28 +
STACK CFI 71d8 .ra: .cfa -4 + ^ r10: .cfa -8 + ^ r4: .cfa -28 + ^ r5: .cfa -24 + ^ r6: .cfa -20 + ^ r7: .cfa -16 + ^ r8: .cfa -12 + ^
STACK CFI 71f0 .cfa: sp 40 +
STACK CFI INIT 72b0 d8 .cfa: sp 0 + .ra: lr
STACK CFI 72b8 .cfa: sp 24 +
STACK CFI 72bc .ra: .cfa -4 + ^ r4: .cfa -24 + ^ r5: .cfa -20 + ^ r6: .cfa -16 + ^ r7: .cfa -12 + ^ r8: .cfa -8 + ^
STACK CFI 72cc .cfa: sp 32 +
STACK CFI INIT 7388 10 .cfa: sp 0 + .ra: lr
STACK CFI INIT 7398 3c .cfa: sp 0 + .ra: lr
STACK CFI 739c .cfa: sp 8 +
STACK CFI 73a0 .ra: .cfa -4 + ^ r4: .cfa -8 + ^
STACK CFI INIT 73d4 cc .cfa: sp 0 + .ra: lr
STACK CFI 73dc .cfa: sp 24 +
STACK CFI 73e0 .ra: .cfa -4 + ^ r4: .cfa -24 + ^ r5: .cfa -20 + ^ r6: .cfa -16 + ^ r7: .cfa -12 + ^ r8: .cfa -8 + ^
STACK CFI 73ec .cfa: sp 32 +
STACK CFI INIT 74a0 160 .cfa: sp 0 + .ra: lr
STACK CFI 74a4 .cfa: sp 32 +
STACK CFI 74a8 .ra: .cfa -4 + ^ r10: .cfa -8 + ^ r3: .cfa -32 + ^ r4: .cfa -28 + ^ r5: .cfa -24 + ^ r6: .cfa -20 + ^ r7: .cfa -16 + ^ r8: .cfa -12 + ^
STACK CFI INIT 7600 10c .cfa: sp 0 + .ra: lr
STACK CFI 7608 .cfa: sp 12 +
STACK CFI 7610 r4: .cfa -12 + ^ r5: .cfa -8 + ^ r6: .cfa -4 + ^
STACK CFI INIT 770c 128 .cfa: sp 0 + .ra: lr
STACK CFI 7714 .cfa: sp 8 +
STACK CFI 7718 r4: .cfa -8 + ^ r5: .cfa -4 + ^
STACK CFI INIT 7834 8c .cfa: sp 0 + .ra: lr
STACK CFI 7838 .cfa: sp 24 +
STACK CFI 783c .ra: .cfa -4 + ^ r3: .cfa -24 + ^ r4: .cfa -20 + ^ r5: .cfa -16 + ^ r6: .cfa -12 + ^ r7: .cfa -8 + ^
STACK CFI INIT 78c0 38 .cfa: sp 0 + .ra: lr
STACK CFI 78c4 .cfa: sp 8 +
STACK CFI 78c8 .ra: .cfa -4 + ^ r4: .cfa -8 + ^
STACK CFI INIT 78f8 78 .cfa: sp 0 + .ra: lr
STACK CFI 78fc .cfa: sp 16 +
STACK CFI 7900 .ra: .cfa -4 + ^ r3: .cfa -16 + ^ r4: .cfa -12 + ^ r5: .cfa -8 + ^
STACK CFI INIT 7970 b8 .cfa: sp 0 + .ra: lr
STACK CFI 7974 .cfa: sp 16 +
STACK CFI 7978 .ra: .cfa -4 + ^ r3: .cfa -16 + ^ r4: .cfa -12 + ^ r5: .cfa -8 + ^
STACK CFI INIT 7a28 40 .cfa: sp 0 + .ra: lr
STACK CFI 7a2c .cfa: sp 8 +
STACK CFI 7a30 .ra: .cfa -4 + ^ r4: .cfa -8 + ^
STACK CFI INIT 7a68 8 .cfa: sp 0 + .ra: lr
STACK CFI INIT 7a70 34 .cfa: sp 0 + .ra: lr
STACK CFI 7a74 .cfa: sp 8 +
STACK CFI 7a78 .ra: .cfa -4 + ^ r4: .cfa -8 + ^
STACK CFI INIT 7aa4 4c .cfa: sp 0 + .ra: lr
STACK CFI 7aa8 .cfa: sp 16 +
STACK CFI 7ab0 .ra: .cfa -4 + ^ r4: .cfa -16 + ^ r5: .cfa -12 + ^ r6: .cfa -8 + ^
STACK CFI INIT 7af0 c .cfa: sp 0 + .ra: lr
STACK CFI INIT 7afc c .cfa: sp 0 + .ra: lr
STACK CFI INIT 7b08 60 .cfa: sp 0 + .ra: lr
STACK CFI 7b0c .cfa: sp 16 +
STACK CFI 7b10 .ra: .cfa -4 + ^ r4: .cfa -16 + ^ r5: .cfa -12 + ^ r6: .cfa -8 + ^
STACK CFI INIT 7b68 64 .cfa: sp 0 + .ra: lr
STACK CFI 7b6c .cfa: sp 16 +
STACK CFI 7b70 .ra: .cfa -4 + ^ r4: .cfa -16 + ^ r5: .cfa -12 + ^ r6: .cfa -8 + ^
STACK CFI INIT 7bcc 74 .cfa: sp 0 + .ra: lr
STACK CFI 7bd0 .cfa: sp 16 +
STACK CFI 7bd4 .ra: .cfa -4 + ^ r4: .cfa -16 + ^ r5: .cfa -12 + ^ r6: .cfa -8 + ^
STACK CFI INIT 7c40 60 .cfa: sp 0 + .ra: lr
STACK CFI 7c44 .cfa: sp 16 +
STACK CFI 7c48 .ra: .cfa -4 + ^ r4: .cfa -16 + ^ r5: .cfa -12 + ^ r6: .cfa -8 + ^
STACK CFI INIT 7ca0 2c .cfa: sp 0 + .ra: lr
STACK CFI 7ca4 .cfa: sp 4 +
STACK CFI 7cac .ra: .cfa -4 + ^
STACK CFI 7cb0 .cfa: sp 16 +
STACK CFI INIT 7ccc 1ec .cfa: sp 0 + .ra: lr
STACK CFI 7cd0 .cfa: sp 36 +
STACK CFI 7cd4 .ra: .cfa -4 + ^ r10: .cfa -12 + ^ r11: .cfa -8 + ^ r4: .cfa -36 + ^ r5: .cfa -32 + ^ r6: .cfa -28 + ^ r7: .cfa -24 + ^ r8: .cfa -20 + ^ r9: .cfa -16 + ^
STACK CFI 7cd8 .cfa: sp 72 +
STACK CFI INIT 7eb8 84 .cfa: sp 0 + .ra: lr
STACK CFI 7ec4 .cfa: sp 16 +
STACK CFI 7ec8 .ra: .cfa -4 + ^ r3: .cfa -16 + ^ r4: .cfa -12 + ^ r5: .cfa -8 + ^
STACK CFI INIT 7f3c 84 .cfa: sp 0 + .ra: lr
STACK CFI 7f48 .cfa: sp 16 +
STACK CFI 7f4c .ra: .cfa -4 + ^ r3: .cfa -16 + ^ r4: .cfa -12 + ^ r5: .cfa -8 + ^
STACK CFI INIT 7fc0 8 .cfa: sp 0 + .ra: lr
STACK CFI INIT 7fc8 2c .cfa: sp 0 + .ra: lr
STACK CFI 7fd0 .cfa: sp 4 +
STACK CFI 7fd4 .ra: .cfa -4 + ^
STACK CFI 7fd8 .cfa: sp 16 +
STACK CFI INIT 7ff4 8 .cfa: sp 0 + .ra: lr
STACK CFI INIT 7ffc 10 .cfa: sp 0 + .ra: lr
STACK CFI INIT 800c 48 .cfa: sp 0 + .ra: lr
STACK CFI 8010 .cfa: sp 16 +
STACK CFI 8014 .ra: .cfa -4 + ^ r3: .cfa -16 + ^ r4: .cfa -12 + ^ r5: .cfa -8 + ^
STACK CFI INIT 8054 48 .cfa: sp 0 + .ra: lr
STACK CFI 8058 .cfa: sp 8 +
STACK CFI 805c .ra: .cfa -4 + ^ r4: .cfa -8 + ^
STACK CFI INIT 809c 8 .cfa: sp 0 + .ra: lr
STACK CFI INIT 80a4 8 .cfa: sp 0 + .ra: lr
STACK CFI INIT 80ac 124 .cfa: sp 0 + .ra: lr
STACK CFI 80b4 .cfa: sp 16 +
STACK CFI 80b8 .ra: .cfa -4 + ^ r4: .cfa -16 + ^ r5: .cfa -12 + ^ r6: .cfa -8 + ^
STACK CFI INIT 81d0 1ec .cfa: sp 0 + .ra: lr
STACK CFI 81d4 .cfa: sp 20 +
STACK CFI 81d8 .ra: .cfa -4 + ^ r4: .cfa -20 + ^ r5: .cfa -16 + ^ r6: .cfa -12 + ^ r7: .cfa -8 + ^
STACK CFI 81e8 .cfa: sp 56 +
STACK CFI INIT 83bc 98 .cfa: sp 0 + .ra: lr
STACK CFI 83c4 .cfa: sp 8 +
STACK CFI 83c8 .ra: .cfa -4 + ^ r4: .cfa -8 + ^
STACK CFI INIT 8454 94 .cfa: sp 0 + .ra: lr
STACK CFI 845c .cfa: sp 8 +
STACK CFI 8460 .ra: .cfa -4 + ^ r3: .cfa -8 + ^
STACK CFI INIT 84e8 20 .cfa: sp 0 + .ra: lr
STACK CFI INIT 8508 a4 .cfa: sp 0 + .ra: lr
STACK CFI 850c .cfa: sp 24 +
STACK CFI 8510 .ra: .cfa -4 + ^ r3: .cfa -24 + ^ r4: .cfa -20 + ^ r5: .cfa -16 + ^ r6: .cfa -12 + ^ r7: .cfa -8 + ^
STACK CFI INIT 85ac 98 .cfa: sp 0 + .ra: lr
STACK CFI 85b0 .cfa: sp 16 +
STACK CFI 85b4 .ra: .cfa -4 + ^ r4: .cfa -16 + ^ r5: .cfa -12 + ^ r6: .cfa -8 + ^
STACK CFI INIT 8644 68 .cfa: sp 0 + .ra: lr
STACK CFI 8648 .cfa: sp 16 +
STACK CFI 864c .ra: .cfa -4 + ^ r4: .cfa -16 + ^ r5: .cfa -12 + ^ r6: .cfa -8 + ^
STACK CFI INIT 86ac 90 .cfa: sp 0 + .ra: lr
STACK CFI 86b0 .cfa: sp 24 +
STACK CFI 86b4 .ra: .cfa -4 + ^ r3: .cfa -24 + ^ r4: .cfa -20 + ^ r5: .cfa -16 + ^ r6: .cfa -12 + ^ r7: .cfa -8 + ^
STACK CFI INIT 873c 88 .cfa: sp 0 + .ra: lr
STACK CFI 8740 .cfa: sp 16 +
STACK CFI 8744 .ra: .cfa -4 + ^ r4: .cfa -16 + ^ r5: .cfa -12 + ^ r6: .cfa -8 + ^
STACK CFI INIT 87c4 5c .cfa: sp 0 + .ra: lr
STACK CFI 87c8 .cfa: sp 16 +
STACK CFI 87cc .ra: .cfa -4 + ^ r3: .cfa -16 + ^ r4: .cfa -12 + ^ r5: .cfa -8 + ^
STACK CFI INIT 8820 8 .cfa: sp 0 + .ra: lr
STACK CFI INIT 8828 40 .cfa: sp 0 + .ra: lr
STACK CFI INIT 8868 4 .cfa: sp 0 + .ra: lr
STACK CFI INIT 886c 680 .cfa: sp 0 + .ra: lr
STACK CFI 8870 .cfa: sp 16 +
STACK CFI 8874 .ra: .cfa -4 + ^ r4: .cfa -16 + ^ r5: .cfa -12 + ^ r6: .cfa -8 + ^
STACK CFI 887c .cfa: sp 24 +
STACK CFI INIT 8eec 180 .cfa: sp 0 + .ra: lr
STACK CFI 8ef0 .cfa: sp 16 +
STACK CFI 8ef4 .ra: .cfa -4 + ^ r4: .cfa -16 + ^ r5: .cfa -12 + ^ r6: .cfa -8 + ^
STACK CFI 8ef8 .cfa: sp 24 +
STACK CFI INIT 906c 1b8 .cfa: sp 0 + .ra: lr
STACK CFI 9070 .cfa: sp 32 +
STACK CFI 9074 .cfa: sp 40 +
STACK CFI 9078 .ra: .cfa -4 + ^ r10: .cfa -8 + ^ r4: .cfa -32 + ^ r5: .cfa -28 + ^ r6: .cfa -24 + ^ r7: .cfa -20 + ^ r8: .cfa -16 + ^ r9: .cfa -12 + ^
STACK CFI INIT 9224 30 .cfa: sp 0 + .ra: lr
STACK CFI 9228 .cfa: sp 4 +
STACK CFI 9230 .cfa: sp 16 +
STACK CFI 9234 .ra: .cfa -4 + ^
STACK CFI INIT 9254 3c .cfa: sp 0 + .ra: lr
STACK CFI 9258 .cfa: sp 8 +
STACK CFI 9260 .cfa: sp 16 +
STACK CFI 9264 .ra: .cfa -4 + ^ r4: .cfa -8 + ^
STACK CFI INIT 9290 134 .cfa: sp 0 + .ra: lr
STACK CFI 9298 .cfa: sp 16 +
STACK CFI 92a0 .cfa: sp 24 +
STACK CFI 92a4 .ra: .cfa -4 + ^ r4: .cfa -16 + ^ r5: .cfa -12 + ^ r6: .cfa -8 + ^
STACK CFI INIT 93c4 c .cfa: sp 0 + .ra: lr
STACK CFI INIT 93d0 104 .cfa: sp 0 + .ra: lr
STACK CFI 93d8 .cfa: sp 16 +
STACK CFI 93e0 .ra: .cfa -4 + ^ r4: .cfa -16 + ^ r5: .cfa -12 + ^ r6: .cfa -8 + ^
STACK CFI INIT 94d4 2bc .cfa: sp 0 + .ra: lr
STACK CFI 94d8 .cfa: sp 36 +
STACK CFI 94dc .ra: .cfa -4 + ^ r10: .cfa -12 + ^ r11: .cfa -8 + ^ r4: .cfa -36 + ^ r5: .cfa -32 + ^ r6: .cfa -28 + ^ r7: .cfa -24 + ^ r8: .cfa -20 + ^ r9: .cfa -16 + ^
STACK CFI 94e0 .cfa: sp 48 +
STACK CFI INIT 9790 140 .cfa: sp 0 + .ra: lr
STACK CFI 9794 .cfa: sp 32 +
STACK CFI 9798 .ra: .cfa -4 + ^ r10: .cfa -8 + ^ r3: .cfa -32 + ^ r4: .cfa -28 + ^ r5: .cfa -24 + ^ r6: .cfa -20 + ^ r7: .cfa -16 + ^ r8: .cfa -12 + ^
STACK CFI INIT 98d0 6c .cfa: sp 0 + .ra: lr
STACK CFI 98d8 .cfa: sp 24 +
STACK CFI 98e0 .ra: .cfa -4 + ^ r4: .cfa -24 + ^ r5: .cfa -20 + ^ r6: .cfa -16 + ^ r7: .cfa -12 + ^ r8: .cfa -8 + ^
STACK CFI INIT 993c 8 .cfa: sp 0 + .ra: lr
STACK CFI INIT 9944 4c .cfa: sp 0 + .ra: lr
STACK CFI INIT 9990 288 .cfa: sp 0 + .ra: lr
STACK CFI 99a4 .cfa: sp 36 +
STACK CFI 99ac .cfa: sp 64 +
STACK CFI 99b0 .ra: .cfa -4 + ^ r10: .cfa -12 + ^ r11: .cfa -8 + ^ r4: .cfa -36 + ^ r5: .cfa -32 + ^ r6: .cfa -28 + ^ r7: .cfa -24 + ^ r8: .cfa -20 + ^ r9: .cfa -16 + ^
STACK CFI INIT 9c18 21c .cfa: sp 0 + .ra: lr
STACK CFI 9c20 .cfa: sp 28 +
STACK CFI 9c24 .ra: .cfa -4 + ^ r10: .cfa -8 + ^ r4: .cfa -28 + ^ r5: .cfa -24 + ^ r6: .cfa -20 + ^ r7: .cfa -16 + ^ r8: .cfa -12 + ^
STACK CFI 9c30 .cfa: sp 40 +
STACK CFI INIT 9e34 10 .cfa: sp 0 + .ra: lr
STACK CFI 9e38 .cfa: sp 8 + .ra: .cfa -4 + ^ r4: .cfa -8 + ^
STACK CFI INIT 9e44 10 .cfa: sp 0 + .ra: lr
STACK CFI 9e48 .cfa: sp 8 + .ra: .cfa -4 + ^ r4: .cfa -8 + ^
STACK CFI INIT 9e54 4 .cfa: sp 0 + .ra: lr
STACK CFI INIT 9e58 2c .cfa: sp 0 + .ra: lr
STACK CFI INIT 9e84 40 .cfa: sp 0 + .ra: lr
STACK CFI 9e8c .cfa: sp 4 +
STACK CFI 9e98 r4: .cfa -4 + ^
STACK CFI INIT 9ec4 4c .cfa: sp 0 + .ra: lr
STACK CFI 9ecc .cfa: sp 8 +
STACK CFI 9ed4 r4: .cfa -8 + ^ r5: .cfa -4 + ^
STACK CFI INIT 9f10 3c .cfa: sp 0 + .ra: lr
STACK CFI 9f18 .cfa: sp 4 +
STACK CFI 9f24 r4: .cfa -4 + ^
STACK CFI INIT 9f4c 2c .cfa: sp 0 + .ra: lr
STACK CFI INIT 9f78 7c .cfa: sp 0 + .ra: lr
STACK CFI 9f88 .cfa: sp 8 +
STACK CFI 9f90 .ra: .cfa -4 + ^ r4: .cfa -8 + ^
STACK CFI INIT 9ff4 88 .cfa: sp 0 + .ra: lr
STACK CFI a004 .cfa: sp 16 +
STACK CFI a00c .ra: .cfa -4 + ^ r4: .cfa -16 + ^ r5: .cfa -12 + ^ r6: .cfa -8 + ^
STACK CFI INIT a07c 88 .cfa: sp 0 + .ra: lr
STACK CFI a08c .cfa: sp 16 +
STACK CFI a094 .ra: .cfa -4 + ^ r4: .cfa -16 + ^ r5: .cfa -12 + ^ r6: .cfa -8 + ^
STACK CFI INIT a104 80 .cfa: sp 0 + .ra: lr
STACK CFI a114 .cfa: sp 8 +
STACK CFI a11c .ra: .cfa -4 + ^ r4: .cfa -8 + ^
STACK CFI INIT a184 80 .cfa: sp 0 + .ra: lr
STACK CFI a194 .cfa: sp 8 +
STACK CFI a19c .ra: .cfa -4 + ^ r4: .cfa -8 + ^
STACK CFI INIT a204 24 .cfa: sp 0 + .ra: lr
STACK CFI INIT a228 7c .cfa: sp 0 + .ra: lr
STACK CFI a230 .cfa: sp 8 +
STACK CFI a238 .cfa: sp 16 +
STACK CFI a23c .ra: .cfa -4 + ^ r4: .cfa -8 + ^
STACK CFI INIT a2a4 1d4 .cfa: sp 0 + .ra: lr
STACK CFI a2a8 .cfa: sp 28 +
STACK CFI a2ac .ra: .cfa -4 + ^ r10: .cfa -8 + ^ r4: .cfa -28 + ^ r5: .cfa -24 + ^ r6: .cfa -20 + ^ r7: .cfa -16 + ^ r8: .cfa -12 + ^
STACK CFI a2b8 .cfa: sp 40 +
STACK CFI INIT a478 200 .cfa: sp 0 + .ra: lr
STACK CFI a47c .cfa: sp 32 +
STACK CFI a480 .ra: .cfa -4 + ^ r10: .cfa -8 + ^ r4: .cfa -32 + ^ r5: .cfa -28 + ^ r6: .cfa -24 + ^ r7: .cfa -20 + ^ r8: .cfa -16 + ^ r9: .cfa -12 + ^
STACK CFI a490 .cfa: sp 40 +
STACK CFI INIT a678 6c .cfa: sp 0 + .ra: lr
STACK CFI a680 .cfa: sp 24 +
STACK CFI a684 .ra: .cfa -4 + ^ r3: .cfa -24 + ^ r4: .cfa -20 + ^ r5: .cfa -16 + ^ r6: .cfa -12 + ^ r7: .cfa -8 + ^
STACK CFI INIT a6e4 40 .cfa: sp 0 + .ra: lr
STACK CFI a6ec .cfa: sp 8 +
STACK CFI a6f0 .ra: .cfa -4 + ^ r4: .cfa -8 + ^
STACK CFI INIT a724 18 .cfa: sp 0 + .ra: lr
STACK CFI INIT a73c 74 .cfa: sp 0 + .ra: lr
STACK CFI a740 .cfa: sp 8 +
STACK CFI a74c .ra: .cfa -4 + ^ r4: .cfa -8 + ^
STACK CFI INIT a7b0 1c .cfa: sp 0 + .ra: lr
STACK CFI a7b4 .cfa: sp 8 +
STACK CFI a7b8 .ra: .cfa -4 + ^ r4: .cfa -8 + ^
STACK CFI INIT a7cc 14 .cfa: sp 0 + .ra: lr
STACK CFI INIT a7e0 14 .cfa: sp 0 + .ra: lr
STACK CFI INIT a7f4 50 .cfa: sp 0 + .ra: lr
STACK CFI a7fc .cfa: sp 8 +
STACK CFI a804 .ra: .cfa -4 + ^ r3: .cfa -8 + ^
STACK CFI INIT a844 2c .cfa: sp 0 + .ra: lr
STACK CFI a848 .cfa: sp 8 +
STACK CFI a850 .ra: .cfa -4 + ^ r3: .cfa -8 + ^
STACK CFI INIT a870 14 .cfa: sp 0 + .ra: lr
STACK CFI a878 .cfa: sp 8 + .ra: .cfa -4 + ^ r3: .cfa -8 + ^
STACK CFI INIT a884 8 .cfa: sp 0 + .ra: lr
STACK CFI INIT a88c 38 .cfa: sp 0 + .ra: lr
STACK CFI a890 .cfa: sp 24 +
STACK CFI a894 .ra: .cfa -4 + ^ r3: .cfa -24 + ^ r4: .cfa -20 + ^ r5: .cfa -16 + ^ r6: .cfa -12 + ^ r7: .cfa -8 + ^
STACK CFI INIT a8c4 38 .cfa: sp 0 + .ra: lr
STACK CFI a8c8 .cfa: sp 24 +
STACK CFI a8cc .ra: .cfa -4 + ^ r3: .cfa -24 + ^ r4: .cfa -20 + ^ r5: .cfa -16 + ^ r6: .cfa -12 + ^ r7: .cfa -8 + ^
STACK CFI INIT a8fc 38 .cfa: sp 0 + .ra: lr
STACK CFI a900 .cfa: sp 24 +
STACK CFI a904 .ra: .cfa -4 + ^ r3: .cfa -24 + ^ r4: .cfa -20 + ^ r5: .cfa -16 + ^ r6: .cfa -12 + ^ r7: .cfa -8 + ^
STACK CFI INIT a934 38 .cfa: sp 0 + .ra: lr
STACK CFI a938 .cfa: sp 24 +
STACK CFI a93c .ra: .cfa -4 + ^ r3: .cfa -24 + ^ r4: .cfa -20 + ^ r5: .cfa -16 + ^ r6: .cfa -12 + ^ r7: .cfa -8 + ^
STACK CFI INIT a96c 38 .cfa: sp 0 + .ra: lr
STACK CFI a970 .cfa: sp 24 +
STACK CFI a974 .ra: .cfa -4 + ^ r3: .cfa -24 + ^ r4: .cfa -20 + ^ r5: .cfa -16 + ^ r6: .cfa -12 + ^ r7: .cfa -8 + ^
STACK CFI INIT a9a4 3c .cfa: sp 0 + .ra: lr
STACK CFI a9a8 .cfa: sp 24 +
STACK CFI a9ac .ra: .cfa -4 + ^ r3: .cfa -24 + ^ r4: .cfa -20 + ^ r5: .cfa -16 + ^ r6: .cfa -12 + ^ r7: .cfa -8 + ^
STACK CFI INIT a9e0 64 .cfa: sp 0 + .ra: lr
STACK CFI a9e4 .cfa: sp 32 +
STACK CFI a9e8 .ra: .cfa -4 + ^ r10: .cfa -8 + ^ r4: .cfa -32 + ^ r5: .cfa -28 + ^ r6: .cfa -24 + ^ r7: .cfa -20 + ^ r8: .cfa -16 + ^ r9: .cfa -12 + ^
STACK CFI INIT aa44 64 .cfa: sp 0 + .ra: lr
STACK CFI aa48 .cfa: sp 32 +
STACK CFI aa4c .ra: .cfa -4 + ^ r10: .cfa -8 + ^ r4: .cfa -32 + ^ r5: .cfa -28 + ^ r6: .cfa -24 + ^ r7: .cfa -20 + ^ r8: .cfa -16 + ^ r9: .cfa -12 + ^
STACK CFI INIT aaa8 64 .cfa: sp 0 + .ra: lr
STACK CFI aaac .cfa: sp 32 +
STACK CFI aab0 .ra: .cfa -4 + ^ r10: .cfa -8 + ^ r4: .cfa -32 + ^ r5: .cfa -28 + ^ r6: .cfa -24 + ^ r7: .cfa -20 + ^ r8: .cfa -16 + ^ r9: .cfa -12 + ^
STACK CFI INIT ab0c 64 .cfa: sp 0 + .ra: lr
STACK CFI ab10 .cfa: sp 32 +
STACK CFI ab14 .ra: .cfa -4 + ^ r10: .cfa -8 + ^ r4: .cfa -32 + ^ r5: .cfa -28 + ^ r6: .cfa -24 + ^ r7: .cfa -20 + ^ r8: .cfa -16 + ^ r9: .cfa -12 + ^
STACK CFI INIT ab70 64 .cfa: sp 0 + .ra: lr
STACK CFI ab74 .cfa: sp 32 +
STACK CFI ab78 .ra: .cfa -4 + ^ r10: .cfa -8 + ^ r4: .cfa -32 + ^ r5: .cfa -28 + ^ r6: .cfa -24 + ^ r7: .cfa -20 + ^ r8: .cfa -16 + ^ r9: .cfa -12 + ^
STACK CFI INIT abd4 68 .cfa: sp 0 + .ra: lr
STACK CFI abd8 .cfa: sp 32 +
STACK CFI abdc .ra: .cfa -4 + ^ r10: .cfa -8 + ^ r4: .cfa -32 + ^ r5: .cfa -28 + ^ r6: .cfa -24 + ^ r7: .cfa -20 + ^ r8: .cfa -16 + ^ r9: .cfa -12 + ^
STACK CFI INIT ac3c 5c .cfa: sp 0 + .ra: lr
STACK CFI ac40 .cfa: sp 32 +
STACK CFI ac44 .ra: .cfa -4 + ^ r10: .cfa -8 + ^ r4: .cfa -32 + ^ r5: .cfa -28 + ^ r6: .cfa -24 + ^ r7: .cfa -20 + ^ r8: .cfa -16 + ^ r9: .cfa -12 + ^
STACK CFI INIT ac98 5c .cfa: sp 0 + .ra: lr
STACK CFI ac9c .cfa: sp 32 +
STACK CFI aca0 .ra: .cfa -4 + ^ r10: .cfa -8 + ^ r4: .cfa -32 + ^ r5: .cfa -28 + ^ r6: .cfa -24 + ^ r7: .cfa -20 + ^ r8: .cfa -16 + ^ r9: .cfa -12 + ^
STACK CFI INIT acf4 5c .cfa: sp 0 + .ra: lr
STACK CFI acf8 .cfa: sp 32 +
STACK CFI acfc .ra: .cfa -4 + ^ r10: .cfa -8 + ^ r4: .cfa -32 + ^ r5: .cfa -28 + ^ r6: .cfa -24 + ^ r7: .cfa -20 + ^ r8: .cfa -16 + ^ r9: .cfa -12 + ^
STACK CFI INIT ad50 5c .cfa: sp 0 + .ra: lr
STACK CFI ad54 .cfa: sp 32 +
STACK CFI ad58 .ra: .cfa -4 + ^ r10: .cfa -8 + ^ r4: .cfa -32 + ^ r5: .cfa -28 + ^ r6: .cfa -24 + ^ r7: .cfa -20 + ^ r8: .cfa -16 + ^ r9: .cfa -12 + ^
STACK CFI INIT adac 5c .cfa: sp 0 + .ra: lr
STACK CFI adb0 .cfa: sp 32 +
STACK CFI adb4 .ra: .cfa -4 + ^ r10: .cfa -8 + ^ r4: .cfa -32 + ^ r5: .cfa -28 + ^ r6: .cfa -24 + ^ r7: .cfa -20 + ^ r8: .cfa -16 + ^ r9: .cfa -12 + ^
STACK CFI INIT ae08 60 .cfa: sp 0 + .ra: lr
STACK CFI ae0c .cfa: sp 32 +
STACK CFI ae10 .ra: .cfa -4 + ^ r10: .cfa -8 + ^ r4: .cfa -32 + ^ r5: .cfa -28 + ^ r6: .cfa -24 + ^ r7: .cfa -20 + ^ r8: .cfa -16 + ^ r9: .cfa -12 + ^
STACK CFI INIT ae68 38 .cfa: sp 0 + .ra: lr
STACK CFI ae6c .cfa: sp 24 +
STACK CFI ae70 .ra: .cfa -4 + ^ r3: .cfa -24 + ^ r4: .cfa -20 + ^ r5: .cfa -16 + ^ r6: .cfa -12 + ^ r7: .cfa -8 + ^
STACK CFI INIT aea0 38 .cfa: sp 0 + .ra: lr
STACK CFI aea4 .cfa: sp 24 +
STACK CFI aea8 .ra: .cfa -4 + ^ r3: .cfa -24 + ^ r4: .cfa -20 + ^ r5: .cfa -16 + ^ r6: .cfa -12 + ^ r7: .cfa -8 + ^
STACK CFI INIT aed8 38 .cfa: sp 0 + .ra: lr
STACK CFI aedc .cfa: sp 24 +
STACK CFI aee0 .ra: .cfa -4 + ^ r3: .cfa -24 + ^ r4: .cfa -20 + ^ r5: .cfa -16 + ^ r6: .cfa -12 + ^ r7: .cfa -8 + ^
STACK CFI INIT af10 38 .cfa: sp 0 + .ra: lr
STACK CFI af14 .cfa: sp 24 +
STACK CFI af18 .ra: .cfa -4 + ^ r3: .cfa -24 + ^ r4: .cfa -20 + ^ r5: .cfa -16 + ^ r6: .cfa -12 + ^ r7: .cfa -8 + ^
STACK CFI INIT af48 38 .cfa: sp 0 + .ra: lr
STACK CFI af4c .cfa: sp 24 +
STACK CFI af50 .ra: .cfa -4 + ^ r3: .cfa -24 + ^ r4: .cfa -20 + ^ r5: .cfa -16 + ^ r6: .cfa -12 + ^ r7: .cfa -8 + ^
STACK CFI INIT af80 3c .cfa: sp 0 + .ra: lr
STACK CFI af84 .cfa: sp 24 +
STACK CFI af88 .ra: .cfa -4 + ^ r3: .cfa -24 + ^ r4: .cfa -20 + ^ r5: .cfa -16 + ^ r6: .cfa -12 + ^ r7: .cfa -8 + ^
STACK CFI INIT afbc 6c .cfa: sp 0 + .ra: lr
STACK CFI afc0 .cfa: sp 32 +
STACK CFI afc4 .ra: .cfa -4 + ^ r10: .cfa -8 + ^ r4: .cfa -32 + ^ r5: .cfa -28 + ^ r6: .cfa -24 + ^ r7: .cfa -20 + ^ r8: .cfa -16 + ^ r9: .cfa -12 + ^
STACK CFI INIT b028 6c .cfa: sp 0 + .ra: lr
STACK CFI b02c .cfa: sp 32 +
STACK CFI b030 .ra: .cfa -4 + ^ r10: .cfa -8 + ^ r4: .cfa -32 + ^ r5: .cfa -28 + ^ r6: .cfa -24 + ^ r7: .cfa -20 + ^ r8: .cfa -16 + ^ r9: .cfa -12 + ^
STACK CFI INIT b094 6c .cfa: sp 0 + .ra: lr
STACK CFI b098 .cfa: sp 32 +
STACK CFI b09c .ra: .cfa -4 + ^ r10: .cfa -8 + ^ r4: .cfa -32 + ^ r5: .cfa -28 + ^ r6: .cfa -24 + ^ r7: .cfa -20 + ^ r8: .cfa -16 + ^ r9: .cfa -12 + ^
STACK CFI INIT b100 6c .cfa: sp 0 + .ra: lr
STACK CFI b104 .cfa: sp 32 +
STACK CFI b108 .ra: .cfa -4 + ^ r10: .cfa -8 + ^ r4: .cfa -32 + ^ r5: .cfa -28 + ^ r6: .cfa -24 + ^ r7: .cfa -20 + ^ r8: .cfa -16 + ^ r9: .cfa -12 + ^
STACK CFI INIT b16c 6c .cfa: sp 0 + .ra: lr
STACK CFI b170 .cfa: sp 32 +
STACK CFI b174 .ra: .cfa -4 + ^ r10: .cfa -8 + ^ r4: .cfa -32 + ^ r5: .cfa -28 + ^ r6: .cfa -24 + ^ r7: .cfa -20 + ^ r8: .cfa -16 + ^ r9: .cfa -12 + ^
STACK CFI INIT b1d8 70 .cfa: sp 0 + .ra: lr
STACK CFI b1dc .cfa: sp 32 +
STACK CFI b1e0 .ra: .cfa -4 + ^ r10: .cfa -8 + ^ r4: .cfa -32 + ^ r5: .cfa -28 + ^ r6: .cfa -24 + ^ r7: .cfa -20 + ^ r8: .cfa -16 + ^ r9: .cfa -12 + ^
STACK CFI INIT b248 64 .cfa: sp 0 + .ra: lr
STACK CFI b24c .cfa: sp 32 +
STACK CFI b250 .ra: .cfa -4 + ^ r10: .cfa -8 + ^ r4: .cfa -32 + ^ r5: .cfa -28 + ^ r6: .cfa -24 + ^ r7: .cfa -20 + ^ r8: .cfa -16 + ^ r9: .cfa -12 + ^
STACK CFI INIT b2ac 64 .cfa: sp 0 + .ra: lr
STACK CFI b2b0 .cfa: sp 32 +
STACK CFI b2b4 .ra: .cfa -4 + ^ r10: .cfa -8 + ^ r4: .cfa -32 + ^ r5: .cfa -28 + ^ r6: .cfa -24 + ^ r7: .cfa -20 + ^ r8: .cfa -16 + ^ r9: .cfa -12 + ^
STACK CFI INIT b310 64 .cfa: sp 0 + .ra: lr
STACK CFI b314 .cfa: sp 32 +
STACK CFI b318 .ra: .cfa -4 + ^ r10: .cfa -8 + ^ r4: .cfa -32 + ^ r5: .cfa -28 + ^ r6: .cfa -24 + ^ r7: .cfa -20 + ^ r8: .cfa -16 + ^ r9: .cfa -12 + ^
STACK CFI INIT b374 64 .cfa: sp 0 + .ra: lr
STACK CFI b378 .cfa: sp 32 +
STACK CFI b37c .ra: .cfa -4 + ^ r10: .cfa -8 + ^ r4: .cfa -32 + ^ r5: .cfa -28 + ^ r6: .cfa -24 + ^ r7: .cfa -20 + ^ r8: .cfa -16 + ^ r9: .cfa -12 + ^
STACK CFI INIT b3d8 64 .cfa: sp 0 + .ra: lr
STACK CFI b3dc .cfa: sp 32 +
STACK CFI b3e0 .ra: .cfa -4 + ^ r10: .cfa -8 + ^ r4: .cfa -32 + ^ r5: .cfa -28 + ^ r6: .cfa -24 + ^ r7: .cfa -20 + ^ r8: .cfa -16 + ^ r9: .cfa -12 + ^
STACK CFI INIT b43c 68 .cfa: sp 0 + .ra: lr
STACK CFI b440 .cfa: sp 32 +
STACK CFI b444 .ra: .cfa -4 + ^ r10: .cfa -8 + ^ r4: .cfa -32 + ^ r5: .cfa -28 + ^ r6: .cfa -24 + ^ r7: .cfa -20 + ^ r8: .cfa -16 + ^ r9: .cfa -12 + ^
STACK CFI INIT b4a4 44 .cfa: sp 0 + .ra: lr
STACK CFI b4a8 .cfa: sp 24 +
STACK CFI b4ac .ra: .cfa -4 + ^ r4: .cfa -24 + ^ r5: .cfa -20 + ^ r6: .cfa -16 + ^ r7: .cfa -12 + ^ r8: .cfa -8 + ^
STACK CFI INIT b4e8 78 .cfa: sp 0 + .ra: lr
STACK CFI b4ec .cfa: sp 32 +
STACK CFI b4f0 .ra: .cfa -4 + ^ r10: .cfa -8 + ^ r4: .cfa -32 + ^ r5: .cfa -28 + ^ r6: .cfa -24 + ^ r7: .cfa -20 + ^ r8: .cfa -16 + ^ r9: .cfa -12 + ^
STACK CFI INIT b560 70 .cfa: sp 0 + .ra: lr
STACK CFI b564 .cfa: sp 32 +
STACK CFI b568 .ra: .cfa -4 + ^ r10: .cfa -8 + ^ r4: .cfa -32 + ^ r5: .cfa -28 + ^ r6: .cfa -24 + ^ r7: .cfa -20 + ^ r8: .cfa -16 + ^ r9: .cfa -12 + ^
STACK CFI INIT b5d0 2c .cfa: sp 0 + .ra: lr
STACK CFI b5d8 .cfa: sp 8 +
STACK CFI b5e0 .ra: .cfa -4 + ^ r3: .cfa -8 + ^
STACK CFI INIT b5fc 1c .cfa: sp 0 + .ra: lr
STACK CFI b600 .cfa: sp 8 +
STACK CFI b604 .ra: .cfa -4 + ^ r4: .cfa -8 + ^
STACK CFI INIT b618 1c .cfa: sp 0 + .ra: lr
STACK CFI b61c .cfa: sp 8 +
STACK CFI b620 .ra: .cfa -4 + ^ r4: .cfa -8 + ^
STACK CFI INIT b634 14 .cfa: sp 0 + .ra: lr
STACK CFI b638 .cfa: sp 8 +
STACK CFI b63c .ra: .cfa -4 + ^ r3: .cfa -8 + ^
STACK CFI INIT b648 38 .cfa: sp 0 + .ra: lr
STACK CFI b64c .cfa: sp 24 +
STACK CFI b650 .ra: .cfa -4 + ^ r3: .cfa -24 + ^ r4: .cfa -20 + ^ r5: .cfa -16 + ^ r6: .cfa -12 + ^ r7: .cfa -8 + ^
STACK CFI INIT b680 60 .cfa: sp 0 + .ra: lr
STACK CFI b684 .cfa: sp 32 +
STACK CFI b688 .ra: .cfa -4 + ^ r10: .cfa -8 + ^ r4: .cfa -32 + ^ r5: .cfa -28 + ^ r6: .cfa -24 + ^ r7: .cfa -20 + ^ r8: .cfa -16 + ^ r9: .cfa -12 + ^
STACK CFI INIT b6e0 58 .cfa: sp 0 + .ra: lr
STACK CFI b6e4 .cfa: sp 32 +
STACK CFI b6e8 .ra: .cfa -4 + ^ r10: .cfa -8 + ^ r4: .cfa -32 + ^ r5: .cfa -28 + ^ r6: .cfa -24 + ^ r7: .cfa -20 + ^ r8: .cfa -16 + ^ r9: .cfa -12 + ^
STACK CFI INIT b738 20 .cfa: sp 0 + .ra: lr
STACK CFI b73c .cfa: sp 8 +
STACK CFI b740 .ra: .cfa -4 + ^ r4: .cfa -8 + ^
STACK CFI INIT b758 20 .cfa: sp 0 + .ra: lr
STACK CFI b75c .cfa: sp 8 +
STACK CFI b760 .ra: .cfa -4 + ^ r4: .cfa -8 + ^
STACK CFI INIT b778 20 .cfa: sp 0 + .ra: lr
STACK CFI b77c .cfa: sp 8 +
STACK CFI b780 .ra: .cfa -4 + ^ r4: .cfa -8 + ^
